ccollections
OrderedDict
p0
((lp1
(lp2
I0
a(igetkdvelements
KDVelement
p3
(dp4
S'Description'
p5
NsS'Langkey'
p6
I1
sS'SortOrder'
p7
I0
sS'ID'
p8
I0
sS'IsActive'
p9
I01
sS'Name'
p10
S'Ukjent'
p11
sbaa(lp12
I100
a(igetkdvelements
KDVelement
p13
(dp14
g5
Nsg6
I1
sg7
I10
sg8
I100
sg9
I01
sg10
S'Ikke spesifisert'
p15
sbaa(lp16
I110
a(igetkdvelements
KDVelement
p17
(dp18
g5
Nsg6
I1
sg7
I200
sg8
I110
sg9
I00
sg10
S'Langrenn'
p19
sbaa(lp20
I111
a(igetkdvelements
KDVelement
p21
(dp22
g5
Nsg6
I1
sg7
I20
sg8
I111
sg9
I01
sg10
S'Topptur'
p23
sbaa(lp24
I112
a(igetkdvelements
KDVelement
p25
(dp26
g5
Nsg6
I1
sg7
I50
sg8
I112
sg9
I01
sg10
S'Ski i anlegg'
p27
sbaa(lp28
I113
a(igetkdvelements
KDVelement
p29
(dp30
g5
Nsg6
I1
sg7
I40
sg8
I113
sg9
I01
sg10
S'Ski offpist'
p31
sbaa(lp32
I114
a(igetkdvelements
KDVelement
p33
(dp34
g5
Nsg6
I1
sg7
I60
sg8
I114
sg9
I01
sg10
S'Fjellskitur'
p35
sbaa(lp36
I115
a(igetkdvelements
KDVelement
p37
(dp38
g5
Nsg6
I1
sg7
I70
sg8
I115
sg9
I01
sg10
S'Skitur i loeype'
p39
sbaa(lp40
I116
a(igetkdvelements
KDVelement
p41
(dp42
g5
Nsg6
I1
sg7
I80
sg8
I116
sg9
I01
sg10
S'Klatring'
p43
sbaa(lp44
I117
a(igetkdvelements
KDVelement
p45
(dp46
g5
Nsg6
I1
sg7
I85
sg8
I117
sg9
I01
sg10
S'Fottur'
p47
sbaa(lp48
I120
a(igetkdvelements
KDVelement
p49
(dp50
g5
Nsg6
I1
sg7
I100
sg8
I120
sg9
I01
sg10
S'Vei'
p51
sbaa(lp52
I130
a(igetkdvelements
KDVelement
p53
(dp54
g5
Nsg6
I1
sg7
I90
sg8
I130
sg9
I01
sg10
S'Snoeskuter'
p55
sbaa(lp56
I140
a(igetkdvelements
KDVelement
p57
(dp58
g5
Nsg6
I1
sg7
I110
sg8
I140
sg9
I01
sg10
S'Jernbane'
p59
sbaa(lp60
I160
a(igetkdvelements
KDVelement
p61
(dp62
g5
Nsg6
I1
sg7
I120
sg8
I160
sg9
I01
sg10
S'Hus'
p63
sbaa(lp64
I190
a(igetkdvelements
KDVelement
p65
(dp66
g5
Nsg6
I1
sg7
I130
sg8
I190
sg9
I01
sg10
S'Annet'
p67
sbaa(lp68
I200
a(igetkdvelements
KDVelement
p69
(dp70
g5
Nsg6
I1
sg7
I10
sg8
I200
sg9
I01
sg10
S'Ikke spesifisert'
p71
sbaa(lp72
I210
a(igetkdvelements
KDVelement
p73
(dp74
g5
Nsg6
I1
sg7
I20
sg8
I210
sg9
I00
sg10
S'Friluftsliv'
p75
sbaa(lp76
I211
a(igetkdvelements
KDVelement
p77
(dp78
g5
Nsg6
I1
sg7
I70
sg8
I211
sg9
I01
sg10
S'Personer'
p79
sbaa(lp80
I220
a(igetkdvelements
KDVelement
p81
(dp82
g5
Nsg6
I1
sg7
I30
sg8
I220
sg9
I01
sg10
S'Veg'
p83
sbaa(lp84
I240
a(igetkdvelements
KDVelement
p85
(dp86
g5
Nsg6
I1
sg7
I40
sg8
I240
sg9
I01
sg10
S'Jernbane'
p87
sbaa(lp88
I251
a(igetkdvelements
KDVelement
p89
(dp90
g5
Nsg6
I1
sg7
I80
sg8
I251
sg9
I01
sg10
S'Skog og landbruk areal'
p91
sbaa(lp92
I260
a(igetkdvelements
KDVelement
p93
(dp94
g5
Nsg6
I1
sg7
I50
sg8
I260
sg9
I01
sg10
S'Bebyggelse'
p95
sbaa(lp96
I290
a(igetkdvelements
KDVelement
p97
(dp98
g5
Nsg6
I1
sg7
I90
sg8
I290
sg9
I01
sg10
S'Annet'
p99
sbaa(lp100
I300
a(igetkdvelements
KDVelement
p101
(dp102
g5
Nsg6
I1
sg7
I10
sg8
I300
sg9
I01
sg10
S'Ikke spesifisert'
p103
sbaa(lp104
I310
a(igetkdvelements
KDVelement
p105
(dp106
g5
Nsg6
I1
sg7
I20
sg8
I310
sg9
I00
sg10
S'Friluftsliv'
p107
sbaa(lp108
I311
a(igetkdvelements
KDVelement
p109
(dp110
g5
Nsg6
I1
sg7
I70
sg8
I311
sg9
I01
sg10
S'Personer'
p111
sbaa(lp112
I320
a(igetkdvelements
KDVelement
p113
(dp114
g5
Nsg6
I1
sg7
I30
sg8
I320
sg9
I01
sg10
S'Veg'
p115
sbaa(lp116
I340
a(igetkdvelements
KDVelement
p117
(dp118
g5
Nsg6
I1
sg7
I40
sg8
I340
sg9
I01
sg10
S'Jernbane'
p119
sbaa(lp120
I351
a(igetkdvelements
KDVelement
p121
(dp122
g5
Nsg6
I1
sg7
I80
sg8
I351
sg9
I01
sg10
S'Skog og landbruk areal'
p123
sbaa(lp124
I360
a(igetkdvelements
KDVelement
p125
(dp126
g5
Nsg6
I1
sg7
I50
sg8
I360
sg9
I01
sg10
S'Bebyggelse'
p127
sbaa(lp128
I390
a(igetkdvelements
KDVelement
p129
(dp130
g5
Nsg6
I1
sg7
I90
sg8
I390
sg9
I01
sg10
S'Annet'
p131
sbaa(lp132
I400
a(igetkdvelements
KDVelement
p133
(dp134
g5
Nsg6
I1
sg7
I10
sg8
I400
sg9
I01
sg10
S'Ikke spesifisert'
p135
sbaa(lp136
I410
a(igetkdvelements
KDVelement
p137
(dp138
g5
Nsg6
I1
sg7
I20
sg8
I410
sg9
I00
sg10
S'Friluftsliv'
p139
sbaa(lp140
I411
a(igetkdvelements
KDVelement
p141
(dp142
g5
Nsg6
I1
sg7
I70
sg8
I411
sg9
I01
sg10
S'Personer'
p143
sbaa(lp144
I420
a(igetkdvelements
KDVelement
p145
(dp146
g5
Nsg6
I1
sg7
I30
sg8
I420
sg9
I01
sg10
S'Veg'
p147
sbaa(lp148
I440
a(igetkdvelements
KDVelement
p149
(dp150
g5
Nsg6
I1
sg7
I40
sg8
I440
sg9
I01
sg10
S'Jernbane'
p151
sbaa(lp152
I451
a(igetkdvelements
KDVelement
p153
(dp154
g5
Nsg6
I1
sg7
I80
sg8
I451
sg9
I01
sg10
S'Skog og landbruk areal'
p155
sbaa(lp156
I460
a(igetkdvelements
KDVelement
p157
(dp158
g5
Nsg6
I1
sg7
I50
sg8
I460
sg9
I01
sg10
S'Bebyggelse'
p159
sbaa(lp160
I490
a(igetkdvelements
KDVelement
p161
(dp162
g5
Nsg6
I1
sg7
I90
sg8
I490
sg9
I01
sg10
S'Annet'
p163
sbaa(lp164
I500
a(igetkdvelements
KDVelement
p165
(dp166
g5
Nsg6
I1
sg7
I10
sg8
I500
sg9
I01
sg10
S'Ikke spesifisert'
p167
sbaa(lp168
I600
a(igetkdvelements
KDVelement
p169
(dp170
g5
Nsg6
I1
sg7
I10
sg8
I600
sg9
I01
sg10
S'Ikke spesifisert'
p171
sbaa(lp172
I610
a(igetkdvelements
KDVelement
p173
(dp174
g5
Nsg6
I1
sg7
I20
sg8
I610
sg9
I01
sg10
S'Friluftsliv'
p175
sbaa(lp176
I615
a(igetkdvelements
KDVelement
p177
(dp178
g5
Nsg6
I1
sg7
I30
sg8
I615
sg9
I01
sg10
S'Instrumentering'
p179
sbaa(lp180
I620
a(igetkdvelements
KDVelement
p181
(dp182
g5
Nsg6
I1
sg7
I40
sg8
I620
sg9
I01
sg10
S'Veg'
p183
sbaa(lp184
I640
a(igetkdvelements
KDVelement
p185
(dp186
g5
Nsg6
I1
sg7
I50
sg8
I640
sg9
I01
sg10
S'Jernbane'
p187
sbaa(lp188
I660
a(igetkdvelements
KDVelement
p189
(dp190
g5
Nsg6
I1
sg7
I60
sg8
I660
sg9
I01
sg10
S'Bebyggelse'
p191
sbaa(lp192
I690
a(igetkdvelements
KDVelement
p193
(dp194
g5
Nsg6
I1
sg7
I70
sg8
I690
sg9
I01
sg10
S'Annet'
p195
sbaa(lp196
I700
a(igetkdvelements
KDVelement
p197
(dp198
g5
Nsg6
I1
sg7
I10
sg8
I700
sg9
I01
sg10
S'Ikke spesifisert'
p199
sbaa(lp200
I710
a(igetkdvelements
KDVelement
p201
(dp202
g5
Nsg6
I1
sg7
I20
sg8
I710
sg9
I01
sg10
S'Gaaende'
p203
sbaa(lp204
I711
a(igetkdvelements
KDVelement
p205
(dp206
g5
Nsg6
I1
sg7
I30
sg8
I711
sg9
I01
sg10
S'Skoeyteloeper'
p207
sbaa(lp208
I720
a(igetkdvelements
KDVelement
p209
(dp210
g5
Nsg6
I1
sg7
I40
sg8
I720
sg9
I01
sg10
S'Scooter paa isen'
p211
sbaa(lp212
I721
a(igetkdvelements
KDVelement
p213
(dp214
g5
Nsg6
I1
sg7
I50
sg8
I721
sg9
I01
sg10
S'Bil paa isen'
p215
sbaa(lp216
I730
a(igetkdvelements
KDVelement
p217
(dp218
g5
Nsg6
I1
sg7
I60
sg8
I730
sg9
I01
sg10
S'Traktor paa isen'
p219
sbaa(lp220
I731
a(igetkdvelements
KDVelement
p221
(dp222
g5
Nsg6
I1
sg7
I70
sg8
I731
sg9
I01
sg10
S'Gravemaskin e.l. paa isen'
p223
sbaa(lp224
I772
a(igetkdvelements
KDVelement
p225
(dp226
g5
Nsg6
I1
sg7
I80
sg8
I772
sg9
I01
sg10
S'Isgang'
p227
sbaa(lp228
I773
a(igetkdvelements
KDVelement
p229
(dp230
g5
Nsg6
I1
sg7
I90
sg8
I773
sg9
I01
sg10
S'Svellis / Kjoeving'
p231
sbaa(lp232
I774
a(igetkdvelements
KDVelement
p233
(dp234
g5
Nsg6
I1
sg7
I100
sg8
I774
sg9
I01
sg10
S'Drivis'
p235
sbaa(lp236
I790
a(igetkdvelements
KDVelement
p237
(dp238
g5
Nsg6
I1
sg7
I110
sg8
I790
sg9
I01
sg10
S'Annet'
p239
sbaatp240
Rp241
.