ccollections
OrderedDict
p0
((lp1
(lp2
I0
a(i__main__
KDVelement
p3
(dp4
S'Description'
p5
NsS'Langkey'
p6
I1
sS'SortOrder'
p7
I1
sS'ID'
p8
I0
sS'IsActive'
p9
I01
sS'Name'
p10
S'Ikke gitt'
p11
sbaa(lp12
I10
a(i__main__
KDVelement
p13
(dp14
g5
Nsg6
I1
sg7
I2
sg8
I10
sg9
I00
sg10
S'Loessnoeskred'
p15
sbaa(lp16
I11
a(i__main__
KDVelement
p17
(dp18
g5
Nsg6
I1
sg7
I2
sg8
I11
sg9
I01
sg10
S'Vaatt loessnoeskred'
p19
sbaa(lp20
I12
a(i__main__
KDVelement
p21
(dp22
g5
Nsg6
I1
sg7
I2
sg8
I12
sg9
I01
sg10
S'Toert loessnoeskred'
p23
sbaa(lp24
I20
a(i__main__
KDVelement
p25
(dp26
g5
Nsg6
I1
sg7
I3
sg8
I20
sg9
I00
sg10
S'Flakskred'
p27
sbaa(lp28
I21
a(i__main__
KDVelement
p29
(dp30
g5
Nsg6
I1
sg7
I3
sg8
I21
sg9
I01
sg10
S'Vaatt flakskred'
p31
sbaa(lp32
I22
a(i__main__
KDVelement
p33
(dp34
g5
Nsg6
I1
sg7
I3
sg8
I22
sg9
I01
sg10
S'Toert flakskred'
p35
sbaa(lp36
I30
a(i__main__
KDVelement
p37
(dp38
g5
Nsg6
I1
sg7
I4
sg8
I30
sg9
I01
sg10
S'Soerpeskred'
p39
sbaa(lp40
I40
a(i__main__
KDVelement
p41
(dp42
g5
Nsg6
I1
sg7
I5
sg8
I40
sg9
I01
sg10
S'Skavlfall'
p43
sbaa(lp44
I99
a(i__main__
KDVelement
p45
(dp46
g5
Nsg6
I1
sg7
I10
sg8
I99
sg9
I01
sg10
S'Ukjent'
p47
sbaatp48
Rp49
.