ccollections
OrderedDict
p0
((lp1
(lp2
I0
a(i__main__
KDVelement
p3
(dp4
S'Description'
p5
NsS'Langkey'
p6
I1
sS'SortOrder'
p7
I1
sS'ID'
p8
I0
sS'IsActive'
p9
I01
sS'Name'
p10
S'ikke gitt'
p11
sbaa(lp12
I1
a(i__main__
KDVelement
p13
(dp14
g5
Nsg6
I1
sg7
I2
sg8
I1
sg9
I01
sg10
S'Temperatur'
p15
sbaa(lp16
I2
a(i__main__
KDVelement
p17
(dp18
g5
Nsg6
I1
sg7
I3
sg8
I2
sg9
I01
sg10
S'Temperatur + sol'
p19
sbaa(lp20
I3
a(i__main__
KDVelement
p21
(dp22
g5
Nsg6
I1
sg7
I4
sg8
I3
sg9
I01
sg10
S'Sol'
p23
sbaa(lp24
I4
a(i__main__
KDVelement
p25
(dp26
g5
Nsg6
I1
sg7
I5
sg8
I4
sg9
I01
sg10
S'Nysnoe'
p27
sbaa(lp28
I5
a(i__main__
KDVelement
p29
(dp30
g5
Nsg6
I1
sg7
I6
sg8
I5
sg9
I01
sg10
S'Vind'
p31
sbaa(lp32
I6
a(i__main__
KDVelement
p33
(dp34
g5
Nsg6
I1
sg7
I7
sg8
I6
sg9
I01
sg10
S'Nysnoe + vind'
p35
sbaa(lp36
I7
a(i__main__
KDVelement
p37
(dp38
g5
Nsg6
I1
sg7
I8
sg8
I7
sg9
I01
sg10
S'Skare'
p39
sbaa(lp40
I8
a(i__main__
KDVelement
p41
(dp42
g5
Nsg6
I1
sg7
I9
sg8
I8
sg9
I01
sg10
S'Overflaterim'
p43
sbaa(lp44
I9
a(i__main__
KDVelement
p45
(dp46
g5
Nsg6
I1
sg7
I10
sg8
I9
sg9
I01
sg10
S'Sjiktovergang'
p47
sbaa(lp48
I10
a(i__main__
KDVelement
p49
(dp50
g5
Nsg6
I1
sg7
I11
sg8
I10
sg9
I01
sg10
S'Hagl'
p51
sbaa(lp52
I11
a(i__main__
KDVelement
p53
(dp54
g5
Nsg6
I1
sg7
I12
sg8
I11
sg9
I01
sg10
S'Begerkrystaller'
p55
sbaatp56
Rp57
.