ccollections
OrderedDict
p0
((lp1
(lp2
I0
a(igetkdvelements
KDVelement
p3
(dp4
S'Description'
p5
NsS'Langkey'
p6
I1
sS'SortOrder'
p7
I0
sS'ID'
p8
I0
sS'IsActive'
p9
I01
sS'Name'
p10
S'Ikke gitt'
p11
sbaa(lp12
I10
a(igetkdvelements
KDVelement
p13
(dp14
g5
Nsg6
I1
sg7
I10
sg8
I10
sg9
I01
sg10
S'Stor tilleggsbelastning'
p15
sbaa(lp16
I21
a(igetkdvelements
KDVelement
p17
(dp18
g5
Nsg6
I1
sg7
I21
sg8
I21
sg9
I01
sg10
S'Liten tilleggsbelastning'
p19
sbaa(lp20
I22
a(igetkdvelements
KDVelement
p21
(dp22
g5
Nsg6
I1
sg7
I22
sg8
I22
sg9
I01
sg10
S'Naturlig utloest'
p23
sbaatp24
Rp25
.