ccollections
OrderedDict
p0
((lp1
(lp2
I0
a(igetkdvelements
KDVelement
p3
(dp4
S'Description'
p5
NsS'Langkey'
p6
I1
sS'SortOrder'
p7
I1
sS'ID'
p8
I0
sS'IsActive'
p9
I01
sS'Name'
p10
S'Ikke gitt'
p11
sbaa(lp12
I2
a(igetkdvelements
KDVelement
p13
(dp14
g5
Nsg6
I1
sg7
I3
sg8
I2
sg9
I01
sg10
S'Lite sannsynlig'
p15
sbaa(lp16
I3
a(igetkdvelements
KDVelement
p17
(dp18
g5
Nsg6
I1
sg7
I4
sg8
I3
sg9
I01
sg10
S'Mulig'
p19
sbaa(lp20
I5
a(igetkdvelements
KDVelement
p21
(dp22
g5
Nsg6
I1
sg7
I6
sg8
I5
sg9
I01
sg10
S'Sannsynlig'
p23
sbaa(lp24
I7
a(igetkdvelements
KDVelement
p25
(dp26
g5
Nsg6
I1
sg7
I8
sg8
I7
sg9
I01
sg10
S'Meget sannsynlig'
p27
sbaatp28
Rp29
.