ccollections
OrderedDict
p0
((lp1
(lp2
I0
a(igetkdvelements
KDVelement
p3
(dp4
S'Description'
p5
S'Ikke gitt'
p6
sS'Langkey'
p7
I1
sS'SortOrder'
p8
I0
sS'ID'
p9
I0
sS'IsActive'
p10
I01
sS'Name'
p11
S'Ikke gitt'
p12
sbaa(lp13
I1
a(igetkdvelements
KDVelement
p14
(dp15
g5
Nsg7
I1
sg8
I1
sg9
I1
sg10
I00
sg11
S'Regn'
p16
sbaa(lp17
I2
a(igetkdvelements
KDVelement
p18
(dp19
g5
Nsg7
I1
sg8
I2
sg9
I2
sg10
I00
sg11
S'Oppvarming'
p20
sbaa(lp21
I3
a(igetkdvelements
KDVelement
p22
(dp23
g5
Nsg7
I1
sg8
I3
sg9
I3
sg10
I00
sg11
S'Ingen gjenfrysing'
p24
sbaa(lp25
I4
a(igetkdvelements
KDVelement
p26
(dp27
g5
Nsg7
I1
sg8
I4
sg9
I4
sg10
I00
sg11
S'Paalagring'
p28
sbaa(lp29
I5
a(igetkdvelements
KDVelement
p30
(dp31
g5
Nsg7
I1
sg8
I5
sg9
I5
sg10
I00
sg11
S'Svake lag'
p32
sbaa(lp33
I6
a(igetkdvelements
KDVelement
p34
(dp35
g5
Nsg7
I1
sg8
I6
sg9
I6
sg10
I00
sg11
S'Regn + oppvarming'
p36
sbaa(lp37
I7
a(igetkdvelements
KDVelement
p38
(dp39
g5
Nsg7
I1
sg8
I7
sg9
I7
sg10
I00
sg11
S'Regn + oppvarm + ingen gj.frys'
p40
sbaa(lp41
I8
a(igetkdvelements
KDVelement
p42
(dp43
g5
Nsg7
I1
sg8
I8
sg9
I8
sg10
I00
sg11
S'Vind'
p44
sbaa(lp45
I9
a(igetkdvelements
KDVelement
p46
(dp47
g5
Nsg7
I1
sg8
I9
sg9
I9
sg10
I00
sg11
S'Oppvarm + ingen gj.frys'
p48
sbaa(lp49
I10
a(igetkdvelements
KDVelement
p50
(dp51
g5
S'Nedfoeyket svakt lag med nysnoe'
p52
sg7
I1
sg8
I10
sg9
I10
sg10
I01
sg11
S'Nedfoeyket loes nysnoe'
p53
sbaa(lp54
I11
a(igetkdvelements
KDVelement
p55
(dp56
g5
S'Nedsnoedd eller nedfoeyket overflaterim'
p57
sg7
I1
sg8
I11
sg9
I11
sg10
I01
sg11
S'Nedsnoedd overflaterim'
p58
sbaa(lp59
I12
a(igetkdvelements
KDVelement
p60
(dp61
g5
S'Nedsnoedd eller nedfoeyket svakt lag med sproehagl'
p62
sg7
I1
sg8
I12
sg9
I12
sg10
I00
sg11
S'Lag med sproehagl'
p63
sbaa(lp64
I13
a(igetkdvelements
KDVelement
p65
(dp66
g5
S'Nedsnoedd eller nedfoeyket kantkornet snoe'
p67
sg7
I1
sg8
I13
sg9
I13
sg10
I01
sg11
S'Nedsnoedd kantkornet snoe'
p68
sbaa(lp69
I14
a(igetkdvelements
KDVelement
p70
(dp71
g5
S'Daarlig binding mellom glatt skare og overliggende snoe'
p72
sg7
I1
sg8
I14
sg9
I14
sg10
I01
sg11
S'Daarlig binding mot skare'
p73
sbaa(lp74
I15
a(igetkdvelements
KDVelement
p75
(dp76
g5
S'Daarlig binding mellom lag i fokksnoeen'
p77
sg7
I1
sg8
I15
sg9
I15
sg10
I01
sg11
S'Daarlig binding i fokksnoeen'
p78
sbaa(lp79
I16
a(igetkdvelements
KDVelement
p80
(dp81
g5
S'Kantkornet snoe ved bakken'
p82
sg7
I1
sg8
I16
sg9
I16
sg10
I01
sg11
S'Kantkornet ved bakken'
p83
sbaa(lp84
I17
a(igetkdvelements
KDVelement
p85
(dp86
g5
S'Kantkornet snoe rundt vegetasjon'
p87
sg7
I1
sg8
I17
sg9
I17
sg10
I00
sg11
S'Kantkornet rundt vegetasjon'
p88
sbaa(lp89
I18
a(igetkdvelements
KDVelement
p90
(dp91
g5
S'Kantkornet snoe over skarelag'
p92
sg7
I1
sg8
I22
sg9
I18
sg10
I01
sg11
S'Kantkornet over skaren'
p93
sbaa(lp94
I19
a(igetkdvelements
KDVelement
p95
(dp96
g5
S'Kantkornet snoe under skarelag'
p97
sg7
I1
sg8
I21
sg9
I19
sg10
I01
sg11
S'Kantkornet under skaren'
p98
sbaa(lp99
I20
a(igetkdvelements
KDVelement
p100
(dp101
g5
S'Vann ved bakken/smelting fra bakken'
p102
sg7
I1
sg8
I24
sg9
I20
sg10
I01
sg11
S'Smelting fra bakken'
p103
sbaa(lp104
I21
a(igetkdvelements
KDVelement
p105
(dp106
g5
S'Snoedekket gjennomfuktet og ustabilt fra overflaten'
p107
sg7
I1
sg8
I21
sg9
I21
sg10
I00
sg11
S'Gjennomfuktet fra overflaten'
p108
sbaa(lp109
I22
a(igetkdvelements
KDVelement
p110
(dp111
g5
S'Opphopning av vann i/over lag i snoedekket'
p112
sg7
I1
sg8
I23
sg9
I22
sg10
I01
sg11
S'Opphopning av vann over lag'
p113
sbaa(lp114
I23
a(igetkdvelements
KDVelement
p115
(dp116
g5
S'Snoedekket er overmettet av vann'
p117
sg7
I1
sg8
I49
sg9
I23
sg10
I00
sg11
S'Snoedekket er overmettet av vann'
p118
sbaa(lp119
I24
a(igetkdvelements
KDVelement
p120
(dp121
g5
S'Ubunden snoe'
p122
sg7
I1
sg8
I30
sg9
I24
sg10
I01
sg11
S'Ubunden snoe'
p123
sbaa(lp124
I25
a(igetkdvelements
KDVelement
p125
(dp126
g5
S'Regn / temperaturstigning / soloppvarming'
p127
sg7
I1
sg8
I50
sg9
I25
sg10
I00
sg11
S'Regn/temperaturstigning'
p128
sbaatp129
Rp130
.