ccollections
OrderedDict
p0
((lp1
(lp2
I0
a(i__main__
KDVelement
p3
(dp4
S'Description'
p5
NsS'Langkey'
p6
I1
sS'SortOrder'
p7
I0
sS'ID'
p8
I0
sS'IsActive'
p9
I01
sS'Name'
p10
S'Ikke gitt'
p11
sbaa(lp12
I10
a(i__main__
KDVelement
p13
(dp14
g5
Nsg6
I1
sg7
I10
sg8
I10
sg9
I01
sg10
S'Toerre loessnoeskred'
p15
sbaa(lp16
I15
a(i__main__
KDVelement
p17
(dp18
g5
Nsg6
I1
sg7
I15
sg8
I15
sg9
I01
sg10
S'Vaate loessnoeskred'
p19
sbaa(lp20
I20
a(i__main__
KDVelement
p21
(dp22
g5
Nsg6
I1
sg7
I20
sg8
I20
sg9
I01
sg10
S'Toerre flakskred'
p23
sbaa(lp24
I25
a(i__main__
KDVelement
p25
(dp26
g5
Nsg6
I1
sg7
I25
sg8
I25
sg9
I01
sg10
S'Vaate flakskred'
p27
sbaa(lp28
I30
a(i__main__
KDVelement
p29
(dp30
g5
Nsg6
I1
sg7
I30
sg8
I30
sg9
I01
sg10
S'Soerpeskred'
p31
sbaa(lp32
I40
a(i__main__
KDVelement
p33
(dp34
g5
Nsg6
I1
sg7
I40
sg8
I40
sg9
I01
sg10
S'Skavl'
p35
sbaatp36
Rp37
.