ccollections
OrderedDict
p0
((lp1
(lp2
I0
a(i__main__
KDVelement
p3
(dp4
S'Description'
p5
NsS'Langkey'
p6
I1
sS'SortOrder'
p7
I0
sS'ID'
p8
I0
sS'IsActive'
p9
I01
sS'Name'
p10
S'Ikke spesifisert'
p11
sbaa(lp12
I10
a(i__main__
KDVelement
p13
(dp14
g5
Nsg6
I1
sg7
I10
sg8
I10
sg9
I01
sg10
S'Paavirket ingenting'
p15
sbaa(lp16
I15
a(i__main__
KDVelement
p17
(dp18
g5
Nsg6
I1
sg7
I20
sg8
I15
sg9
I01
sg10
S'Trafikk hindret'
p19
sbaa(lp20
I20
a(i__main__
KDVelement
p21
(dp22
g5
Nsg6
I1
sg7
I30
sg8
I20
sg9
I01
sg10
S'Kun materielle skader'
p23
sbaa(lp24
I25
a(i__main__
KDVelement
p25
(dp26
g5
Nsg6
I1
sg7
I40
sg8
I25
sg9
I01
sg10
S'Evakuering'
p27
sbaa(lp28
I29
a(i__main__
KDVelement
p29
(dp30
g5
Nsg6
I1
sg7
I50
sg8
I29
sg9
I01
sg10
S'Nestenulykke'
p31
sbaa(lp32
I30
a(i__main__
KDVelement
p33
(dp34
g5
Nsg6
I1
sg7
I60
sg8
I30
sg9
I01
sg10
S'Personer skadet'
p35
sbaa(lp36
I40
a(i__main__
KDVelement
p37
(dp38
g5
Nsg6
I1
sg7
I70
sg8
I40
sg9
I01
sg10
S'Personer omkommet'
p39
sbaa(lp40
I99
a(i__main__
KDVelement
p41
(dp42
g5
Nsg6
I1
sg7
I80
sg8
I99
sg9
I01
sg10
S'Annet'
p43
sbaa(lp44
I310
a(i__main__
KDVelement
p45
(dp46
g5
Nsg6
I1
sg7
I310
sg8
I310
sg9
I00
sg10
S'Trafikk hindret'
p47
sbaa(lp48
I315
a(i__main__
KDVelement
p49
(dp50
g5
Nsg6
I1
sg7
I315
sg8
I315
sg9
I00
sg10
S'Vei oedelagt'
p51
sbaa(lp52
I320
a(i__main__
KDVelement
p53
(dp54
g5
Nsg6
I1
sg7
I320
sg8
I320
sg9
I00
sg10
S'Kun materielle skader'
p55
sbaa(lp56
I325
a(i__main__
KDVelement
p57
(dp58
g5
Nsg6
I1
sg7
I325
sg8
I325
sg9
I00
sg10
S'Personer skadet'
p59
sbaa(lp60
I330
a(i__main__
KDVelement
p61
(dp62
g5
Nsg6
I1
sg7
I330
sg8
I330
sg9
I00
sg10
S'Personer omkommet'
p63
sbaa(lp64
I335
a(i__main__
KDVelement
p65
(dp66
g5
Nsg6
I1
sg7
I335
sg8
I335
sg9
I00
sg10
S'Annet'
p67
sbaatp68
Rp69
.