(lp0
(lp1
(igetproblems
AvalancheProblem
p2
(dp3
S'region_id'
p4
I121
sS'aval_distribution'
p5
NsS'aval_type'
p6
NsS'date'
p7
cdatetime
date
p8
(S'\x07\xdf\x0b\x1c'
p9
tp10
Rp11
sS'problem_combined'
p12
S'Nedfoeyket svakt lag med nysnoe'
p13
sS'main_cause'
p14
NsS'danger_level_name'
p15
NsS'aval_probability'
p16
NsS'regobs_view'
p17
S'AvalancheEvalProblem2V'
p18
sS'aval_trigger'
p19
NsS'source'
p20
S'Observasjon'
p21
sS'metadata'
p22
(dp23
sS'region_name'
p24
S'Fjordane'
p25
sS'aval_size'
p26
S'2 - Smaa'
p27
sS'regid'
p28
I68594
sS'cause_tid'
p29
I10
sS'municipal_name'
p30
S'JOELSTER'
p31
sS'danger_level'
p32
NsS'nick_name'
p33
Vbrit-siv@obskorps
p34
sS'url'
p35
S'http://www.regobs.no/Registration/68594'
p36
sS'cause_name'
p37
S'Lag med loes nysnoe'
p38
sS'order'
p39
I0
sba(igetproblems
AvalancheProblem
p40
(dp41
g4
I121
sg5
S'Noen bratte heng'
p42
sg6
S'Toerre flakskred'
p43
sg7
g8
(S'\x07\xdf\x0c\x02'
p44
tp45
Rp46
sg12
S'Nedfoeyket svakt lag med nysnoe'
p47
sg14
S'Fokksnoe'
p48
sg15
Nsg16
S'Mulig'
p49
sg17
S'AvalancheWarnProblemV'
p50
sg19
S'Naturlig utloest'
p51
sg20
S'Varsel'
p52
sg22
(dp53
sg24
S'Fjordane'
p54
sg26
S'3 - Middels'
p55
sg28
Nsg29
I10
sg30
Nsg32
Nsg33
Nsg35
S'http://www.varsom.no/Snoskred/Fjordane/?date=02.12.2015'
p56
sg37
S'Lag med loes nysnoe'
p57
sg39
I1
sba(igetproblems
AvalancheProblem
p58
(dp59
g4
I121
sg5
S'Noen bratte heng'
p60
sg6
S'Vaate loessnoeskred'
p61
sg7
g8
(S'\x07\xdf\x0c\x02'
p62
tp63
Rp64
sg12
S'Ubunden snoe'
p65
sg14
S'Nysnoe'
p66
sg15
Nsg16
S'Sannsynlig'
p67
sg17
g50
sg19
S'Naturlig utloest'
p68
sg20
S'Varsel'
p69
sg22
(dp70
sg24
S'Fjordane'
p71
sg26
S'2 - Smaa'
p72
sg28
Nsg29
I24
sg30
Nsg32
Nsg33
Nsg35
S'http://www.varsom.no/Snoskred/Fjordane/?date=02.12.2015'
p73
sg37
S'Ubunden snoe'
p74
sg39
I2
sba(igetproblems
AvalancheProblem
p75
(dp76
g4
I121
sg5
Nsg6
Nsg7
g8
(S'\x07\xdf\x0c\x03'
p77
tp78
Rp79
sg12
S'Nedfoeyket svakt lag med nysnoe'
p80
sg14
Nsg15
Nsg16
Nsg17
g18
sg19
Nsg20
S'Observasjon'
p81
sg22
(dp82
sg24
S'Fjordane'
p83
sg26
S'3 - Middels'
p84
sg28
I69081
sg29
I10
sg30
S'JOELSTER'
p85
sg32
Nsg33
Vbrit-siv@obskorps
p86
sg35
S'http://www.regobs.no/Registration/69081'
p87
sg37
S'Lag med loes nysnoe'
p88
sg39
I0
sba(igetproblems
AvalancheProblem
p89
(dp90
g4
I121
sg5
S'Noen bratte heng'
p91
sg6
S'Toerre flakskred'
p92
sg7
g8
(S'\x07\xdf\x0c\x03'
p93
tp94
Rp95
sg12
S'Nedfoeyket svakt lag med nysnoe'
p96
sg14
g48
sg15
Nsg16
S'Mulig'
p97
sg17
g50
sg19
S'Liten tilleggsbelastning'
p98
sg20
S'Varsel'
p99
sg22
(dp100
sg24
S'Fjordane'
p101
sg26
S'3 - Middels'
p102
sg28
Nsg29
I10
sg30
Nsg32
Nsg33
Nsg35
S'http://www.varsom.no/Snoskred/Fjordane/?date=03.12.2015'
p103
sg37
S'Lag med loes nysnoe'
p104
sg39
I2
sba(igetproblems
AvalancheProblem
p105
(dp106
g4
I121
sg5
Nsg6
Nsg7
g8
(S'\x07\xdf\x0c\x04'
p107
tp108
Rp109
sg12
S'Nedfoeyket svakt lag med nysnoe'
p110
sg14
Nsg15
Nsg16
Nsg17
g18
sg19
Nsg20
S'Observasjon'
p111
sg22
(dp112
sg24
S'Fjordane'
p113
sg26
S'2 - Smaa'
p114
sg28
I69299
sg29
I10
sg30
S'JOELSTER'
p115
sg32
Nsg33
VBodil@SVV
p116
sg35
S'http://www.regobs.no/Registration/69299'
p117
sg37
S'Lag med loes nysnoe'
p118
sg39
I0
sba(igetproblems
AvalancheProblem
p119
(dp120
g4
I121
sg5
Nsg6
Nsg7
g8
(S'\x07\xdf\x0c\x04'
p121
tp122
Rp123
sg12
S'Nedsnoedd eller nedfoeyket overflaterim'
p124
sg14
Nsg15
Nsg16
Nsg17
g18
sg19
Nsg20
S'Observasjon'
p125
sg22
(dp126
sg24
S'Fjordane'
p127
sg26
S'3 - Middels'
p128
sg28
I69299
sg29
I11
sg30
S'JOELSTER'
p129
sg32
Nsg33
VBodil@SVV
p130
sg35
S'http://www.regobs.no/Registration/69299'
p131
sg37
S'Lag med overflaterim'
p132
sg39
I1
sba(igetproblems
AvalancheProblem
p133
(dp134
g4
I121
sg5
S'Noen bratte heng'
p135
sg6
S'Toerre flakskred'
p136
sg7
g8
(S'\x07\xdf\x0c\x04'
p137
tp138
Rp139
sg12
S'Daarlig binding mellom lag i fokksnoeen'
p140
sg14
g48
sg15
Nsg16
S'Mulig'
p141
sg17
g50
sg19
S'Stor tilleggsbelastning'
p142
sg20
S'Varsel'
p143
sg22
(dp144
sg24
S'Fjordane'
p145
sg26
S'2 - Smaa'
p146
sg28
Nsg29
I15
sg30
Nsg32
Nsg33
Nsg35
S'http://www.varsom.no/Snoskred/Fjordane/?date=04.12.2015'
p147
sg37
S'I fokksnoeen'
p148
sg39
I0
sba(igetproblems
AvalancheProblem
p149
(dp150
g4
I121
sg5
S'Mange bratte heng'
p151
sg6
S'Vaate flakskred'
p152
sg7
g8
(S'\x07\xdf\x0c\x05'
p153
tp154
Rp155
sg12
S'Opphopning av vann i/over lag i snoedekket'
p156
sg14
S'Vaat snoe'
p157
sg15
Nsg16
S'Mulig'
p158
sg17
g50
sg19
S'Naturlig utloest'
p159
sg20
S'Varsel'
p160
sg22
(dp161
sg24
S'Fjordane'
p162
sg26
S'3 - Middels'
p163
sg28
Nsg29
I22
sg30
Nsg32
Nsg33
Nsg35
S'http://www.varsom.no/Snoskred/Fjordane/?date=05.12.2015'
p164
sg37
S'Opphopning over skaren'
p165
sg39
I0
sba(igetproblems
AvalancheProblem
p166
(dp167
g4
I121
sg5
S'Mange bratte heng'
p168
sg6
S'Toerre flakskred'
p169
sg7
g8
(S'\x07\xdf\x0c\x05'
p170
tp171
Rp172
sg12
S'Nedfoeyket svakt lag med nysnoe'
p173
sg14
g48
sg15
Nsg16
S'Mulig'
p174
sg17
g50
sg19
S'Naturlig utloest'
p175
sg20
S'Varsel'
p176
sg22
(dp177
sg24
S'Fjordane'
p178
sg26
S'3 - Middels'
p179
sg28
Nsg29
I10
sg30
Nsg32
Nsg33
Nsg35
S'http://www.varsom.no/Snoskred/Fjordane/?date=05.12.2015'
p180
sg37
S'Lag med loes nysnoe'
p181
sg39
I1
sba(igetproblems
AvalancheProblem
p182
(dp183
g4
I121
sg5
Nsg6
Nsg7
g8
(S'\x07\xdf\x0c\x06'
p184
tp185
Rp186
sg12
S'Daarlig binding mellom lag i fokksnoeen'
p187
sg14
Nsg15
Nsg16
Nsg17
g18
sg19
Nsg20
S'Observasjon'
p188
sg22
(dp189
sg24
S'Fjordane'
p190
sg26
S'3 - Middels'
p191
sg28
I69553
sg29
I15
sg30
S'JOELSTER'
p192
sg32
Nsg33
Vbrit-siv@obskorps
p193
sg35
S'http://www.regobs.no/Registration/69553'
p194
sg37
S'I fokksnoeen'
p195
sg39
I0
sba(igetproblems
AvalancheProblem
p196
(dp197
g4
I121
sg5
Nsg6
Nsg7
g8
(S'\x07\xdf\x0c\x06'
p198
tp199
Rp200
sg12
S'Daarlig binding mellom lag i fokksnoeen'
p201
sg14
Nsg15
Nsg16
Nsg17
g18
sg19
Nsg20
S'Observasjon'
p202
sg22
(dp203
sg24
S'Fjordane'
p204
sg26
S'3 - Middels'
p205
sg28
I69556
sg29
I15
sg30
S'GLOPPEN'
p206
sg32
Nsg33
VJanR@ObsKorps
p207
sg35
S'http://www.regobs.no/Registration/69556'
p208
sg37
S'I fokksnoeen'
p209
sg39
I0
sba(igetproblems
AvalancheProblem
p210
(dp211
g4
I121
sg5
S'Noen bratte heng'
p212
sg6
S'Toerre flakskred'
p213
sg7
g8
(S'\x07\xdf\x0c\x06'
p214
tp215
Rp216
sg12
S'Nedfoeyket svakt lag med nysnoe'
p217
sg14
g48
sg15
Nsg16
S'Mulig'
p218
sg17
g50
sg19
S'Naturlig utloest'
p219
sg20
S'Varsel'
p220
sg22
(dp221
sg24
S'Fjordane'
p222
sg26
S'3 - Middels'
p223
sg28
Nsg29
I10
sg30
Nsg32
Nsg33
Nsg35
S'http://www.varsom.no/Snoskred/Fjordane/?date=06.12.2015'
p224
sg37
S'Lag med loes nysnoe'
p225
sg39
I0
sba(igetproblems
AvalancheProblem
p226
(dp227
g4
I121
sg5
S'Noen bratte heng'
p228
sg6
S'Vaate flakskred'
p229
sg7
g8
(S'\x07\xdf\x0c\x06'
p230
tp231
Rp232
sg12
S'Opphopning av vann i/over lag i snoedekket'
p233
sg14
g157
sg15
Nsg16
S'Mulig'
p234
sg17
g50
sg19
S'Naturlig utloest'
p235
sg20
S'Varsel'
p236
sg22
(dp237
sg24
S'Fjordane'
p238
sg26
S'3 - Middels'
p239
sg28
Nsg29
I22
sg30
Nsg32
Nsg33
Nsg35
S'http://www.varsom.no/Snoskred/Fjordane/?date=06.12.2015'
p240
sg37
S'Opphopning over skaren'
p241
sg39
I1
sba(igetproblems
AvalancheProblem
p242
(dp243
g4
I121
sg5
S'Noen bratte heng'
p244
sg6
S'Toerre flakskred'
p245
sg7
g8
(S'\x07\xdf\x0c\x07'
p246
tp247
Rp248
sg12
S'Nedfoeyket svakt lag med nysnoe'
p249
sg14
g48
sg15
Nsg16
S'Mulig'
p250
sg17
g50
sg19
S'Liten tilleggsbelastning'
p251
sg20
S'Varsel'
p252
sg22
(dp253
sg24
S'Fjordane'
p254
sg26
S'3 - Middels'
p255
sg28
Nsg29
I10
sg30
Nsg32
Nsg33
Nsg35
S'http://www.varsom.no/Snoskred/Fjordane/?date=07.12.2015'
p256
sg37
S'Lag med loes nysnoe'
p257
sg39
I0
sba(igetproblems
AvalancheProblem
p258
(dp259
g4
I121
sg5
S'Noen bratte heng'
p260
sg6
S'Vaate flakskred'
p261
sg7
g8
(S'\x07\xdf\x0c\x08'
p262
tp263
Rp264
sg12
S'Opphopning av vann i/over lag i snoedekket'
p265
sg14
g157
sg15
Nsg16
S'Mulig'
p266
sg17
g50
sg19
S'Naturlig utloest'
p267
sg20
S'Varsel'
p268
sg22
(dp269
sg24
S'Fjordane'
p270
sg26
S'3 - Middels'
p271
sg28
Nsg29
I22
sg30
Nsg32
Nsg33
Nsg35
S'http://www.varsom.no/Snoskred/Fjordane/?date=08.12.2015'
p272
sg37
S'Opphopning over skaren'
p273
sg39
I0
sba(igetproblems
AvalancheProblem
p274
(dp275
g4
I121
sg5
S'Noen bratte heng'
p276
sg6
S'Vaate loessnoeskred'
p277
sg7
g8
(S'\x07\xdf\x0c\x08'
p278
tp279
Rp280
sg12
S'Ubunden snoe'
p281
sg14
g66
sg15
Nsg16
S'Mulig'
p282
sg17
g50
sg19
S'Naturlig utloest'
p283
sg20
S'Varsel'
p284
sg22
(dp285
sg24
S'Fjordane'
p286
sg26
S'2 - Smaa'
p287
sg28
Nsg29
I24
sg30
Nsg32
Nsg33
Nsg35
S'http://www.varsom.no/Snoskred/Fjordane/?date=08.12.2015'
p288
sg37
S'Ubunden snoe'
p289
sg39
I1
sba(igetproblems
AvalancheProblem
p290
(dp291
g4
I121
sg5
Nsg6
Nsg7
g8
(S'\x07\xdf\x0c\t'
p292
tp293
Rp294
sg12
S'Nedfoeyket svakt lag med nysnoe'
p295
sg14
Nsg15
Nsg16
Nsg17
g18
sg19
Nsg20
S'Observasjon'
p296
sg22
(dp297
sg24
S'Fjordane'
p298
sg26
S'2 - Smaa'
p299
sg28
I70012
sg29
I10
sg30
S'JOELSTER'
p300
sg32
Nsg33
Vbrit-siv@obskorps
p301
sg35
S'http://www.regobs.no/Registration/70012'
p302
sg37
S'Lag med loes nysnoe'
p303
sg39
I0
sba(igetproblems
AvalancheProblem
p304
(dp305
g4
I121
sg5
S'Noen bratte heng'
p306
sg6
S'Toerre flakskred'
p307
sg7
g8
(S'\x07\xdf\x0c\t'
p308
tp309
Rp310
sg12
S'Nedfoeyket svakt lag med nysnoe'
p311
sg14
g48
sg15
Nsg16
S'Mulig'
p312
sg17
g50
sg19
S'Liten tilleggsbelastning'
p313
sg20
S'Varsel'
p314
sg22
(dp315
sg24
S'Fjordane'
p316
sg26
S'3 - Middels'
p317
sg28
Nsg29
I10
sg30
Nsg32
Nsg33
Nsg35
S'http://www.varsom.no/Snoskred/Fjordane/?date=09.12.2015'
p318
sg37
S'Lag med loes nysnoe'
p319
sg39
I0
sba(igetproblems
AvalancheProblem
p320
(dp321
g4
I121
sg5
S'Isolerte faresoner'
p322
sg6
S'Vaate flakskred'
p323
sg7
g8
(S'\x07\xdf\x0c\t'
p324
tp325
Rp326
sg12
S'Opphopning av vann i/over lag i snoedekket'
p327
sg14
g157
sg15
Nsg16
S'Mulig'
p328
sg17
g50
sg19
S'Naturlig utloest'
p329
sg20
S'Varsel'
p330
sg22
(dp331
sg24
S'Fjordane'
p332
sg26
S'2 - Smaa'
p333
sg28
Nsg29
I22
sg30
Nsg32
Nsg33
Nsg35
S'http://www.varsom.no/Snoskred/Fjordane/?date=09.12.2015'
p334
sg37
S'Opphopning over skaren'
p335
sg39
I1
sba(igetproblems
AvalancheProblem
p336
(dp337
g4
I121
sg5
S'Mange bratte heng'
p338
sg6
S'Vaate loessnoeskred'
p339
sg7
g8
(S'\x07\xdf\x0c\t'
p340
tp341
Rp342
sg12
S'Ubunden snoe'
p343
sg14
g66
sg15
Nsg16
S'Sannsynlig'
p344
sg17
g50
sg19
S'Naturlig utloest'
p345
sg20
S'Varsel'
p346
sg22
(dp347
sg24
S'Fjordane'
p348
sg26
S'2 - Smaa'
p349
sg28
Nsg29
I24
sg30
Nsg32
Nsg33
Nsg35
S'http://www.varsom.no/Snoskred/Fjordane/?date=09.12.2015'
p350
sg37
S'Ubunden snoe'
p351
sg39
I2
sba(igetproblems
AvalancheProblem
p352
(dp353
g4
I121
sg5
S'Noen bratte heng'
p354
sg6
S'Toerre flakskred'
p355
sg7
g8
(S'\x07\xdf\x0c\n'
p356
tp357
Rp358
sg12
S'Nedfoeyket svakt lag med nysnoe'
p359
sg14
g48
sg15
Nsg16
S'Mulig'
p360
sg17
g50
sg19
S'Naturlig utloest'
p361
sg20
S'Varsel'
p362
sg22
(dp363
sg24
S'Fjordane'
p364
sg26
S'3 - Middels'
p365
sg28
Nsg29
I10
sg30
Nsg32
Nsg33
Nsg35
S'http://www.varsom.no/Snoskred/Fjordane/?date=10.12.2015'
p366
sg37
S'Lag med loes nysnoe'
p367
sg39
I0
sba(igetproblems
AvalancheProblem
p368
(dp369
g4
I121
sg5
S'Noen bratte heng'
p370
sg6
S'Vaate loessnoeskred'
p371
sg7
g8
(S'\x07\xdf\x0c\n'
p372
tp373
Rp374
sg12
S'Ubunden snoe'
p375
sg14
g66
sg15
Nsg16
S'Mulig'
p376
sg17
g50
sg19
S'Naturlig utloest'
p377
sg20
S'Varsel'
p378
sg22
(dp379
sg24
S'Fjordane'
p380
sg26
S'2 - Smaa'
p381
sg28
Nsg29
I24
sg30
Nsg32
Nsg33
Nsg35
S'http://www.varsom.no/Snoskred/Fjordane/?date=10.12.2015'
p382
sg37
S'Ubunden snoe'
p383
sg39
I1
sba(igetproblems
AvalancheProblem
p384
(dp385
g4
I121
sg5
S'Noen bratte heng'
p386
sg6
S'Toerre flakskred'
p387
sg7
g8
(S'\x07\xdf\x0c\x0b'
p388
tp389
Rp390
sg12
S'Nedfoeyket svakt lag med nysnoe'
p391
sg14
g48
sg15
Nsg16
S'Mulig'
p392
sg17
g50
sg19
S'Naturlig utloest'
p393
sg20
S'Varsel'
p394
sg22
(dp395
sg24
S'Fjordane'
p396
sg26
S'3 - Middels'
p397
sg28
Nsg29
I10
sg30
Nsg32
Nsg33
Nsg35
S'http://www.varsom.no/Snoskred/Fjordane/?date=11.12.2015'
p398
sg37
S'Lag med loes nysnoe'
p399
sg39
I0
sba(igetproblems
AvalancheProblem
p400
(dp401
g4
I121
sg5
Nsg6
Nsg7
g8
(S'\x07\xdf\x0c\x0c'
p402
tp403
Rp404
sg12
S'Nedfoeyket svakt lag med nysnoe'
p405
sg14
Nsg15
Nsg16
Nsg17
g18
sg19
Nsg20
S'Observasjon'
p406
sg22
(dp407
sg24
S'Fjordane'
p408
sg26
S'2 - Smaa'
p409
sg28
I70370
sg29
I10
sg30
S'JOELSTER'
p410
sg32
Nsg33
Vbrit-siv@obskorps
p411
sg35
S'http://www.regobs.no/Registration/70370'
p412
sg37
S'Lag med loes nysnoe'
p413
sg39
I0
sba(igetproblems
AvalancheProblem
p414
(dp415
g4
I121
sg5
S'Noen bratte heng'
p416
sg6
S'Toerre flakskred'
p417
sg7
g8
(S'\x07\xdf\x0c\x0c'
p418
tp419
Rp420
sg12
S'Nedfoeyket svakt lag med nysnoe'
p421
sg14
g48
sg15
Nsg16
S'Mulig'
p422
sg17
g50
sg19
S'Liten tilleggsbelastning'
p423
sg20
S'Varsel'
p424
sg22
(dp425
sg24
S'Fjordane'
p426
sg26
S'3 - Middels'
p427
sg28
Nsg29
I10
sg30
Nsg32
Nsg33
Nsg35
S'http://www.varsom.no/Snoskred/Fjordane/?date=12.12.2015'
p428
sg37
S'Lag med loes nysnoe'
p429
sg39
I0
sba(igetproblems
AvalancheProblem
p430
(dp431
g4
I121
sg5
S'Noen bratte heng'
p432
sg6
S'Toerre flakskred'
p433
sg7
g8
(S'\x07\xdf\x0c\r'
p434
tp435
Rp436
sg12
S'Nedfoeyket svakt lag med nysnoe'
p437
sg14
g48
sg15
Nsg16
S'Mulig'
p438
sg17
g50
sg19
S'Liten tilleggsbelastning'
p439
sg20
S'Varsel'
p440
sg22
(dp441
sg24
S'Fjordane'
p442
sg26
S'2 - Smaa'
p443
sg28
Nsg29
I10
sg30
Nsg32
Nsg33
Nsg35
S'http://www.varsom.no/Snoskred/Fjordane/?date=13.12.2015'
p444
sg37
S'Lag med loes nysnoe'
p445
sg39
I0
sba(igetproblems
AvalancheProblem
p446
(dp447
g4
I121
sg5
S'Noen bratte heng'
p448
sg6
S'Toerre flakskred'
p449
sg7
g8
(S'\x07\xdf\x0c\x0e'
p450
tp451
Rp452
sg12
S'Nedfoeyket svakt lag med nysnoe'
p453
sg14
g48
sg15
Nsg16
S'Mulig'
p454
sg17
g50
sg19
S'Liten tilleggsbelastning'
p455
sg20
S'Varsel'
p456
sg22
(dp457
sg24
S'Fjordane'
p458
sg26
S'2 - Smaa'
p459
sg28
Nsg29
I10
sg30
Nsg32
Nsg33
Nsg35
S'http://www.varsom.no/Snoskred/Fjordane/?date=14.12.2015'
p460
sg37
S'Lag med loes nysnoe'
p461
sg39
I0
sba(igetproblems
AvalancheProblem
p462
(dp463
g4
I121
sg5
Nsg6
Nsg7
g8
(S'\x07\xdf\x0c\x0f'
p464
tp465
Rp466
sg12
S'Nedfoeyket svakt lag med nysnoe'
p467
sg14
Nsg15
Nsg16
Nsg17
g18
sg19
Nsg20
S'Observasjon'
p468
sg22
(dp469
sg24
S'Fjordane'
p470
sg26
S'2 - Smaa'
p471
sg28
I70778
sg29
I10
sg30
S'JOELSTER'
p472
sg32
Nsg33
VJan Helge@SVV
p473
sg35
S'http://www.regobs.no/Registration/70778'
p474
sg37
S'Lag med loes nysnoe'
p475
sg39
I0
sba(igetproblems
AvalancheProblem
p476
(dp477
g4
I121
sg5
S'Noen bratte heng'
p478
sg6
S'Toerre flakskred'
p479
sg7
g8
(S'\x07\xdf\x0c\x0f'
p480
tp481
Rp482
sg12
S'Nedfoeyket svakt lag med nysnoe'
p483
sg14
g48
sg15
Nsg16
S'Mulig'
p484
sg17
g50
sg19
S'Liten tilleggsbelastning'
p485
sg20
S'Varsel'
p486
sg22
(dp487
sg24
S'Fjordane'
p488
sg26
S'2 - Smaa'
p489
sg28
Nsg29
I10
sg30
Nsg32
Nsg33
Nsg35
S'http://www.varsom.no/Snoskred/Fjordane/?date=15.12.2015'
p490
sg37
S'Lag med loes nysnoe'
p491
sg39
I0
sba(igetproblems
AvalancheProblem
p492
(dp493
g4
I121
sg5
Nsg6
Nsg7
g8
(S'\x07\xdf\x0c\x10'
p494
tp495
Rp496
sg12
S'Nedfoeyket svakt lag med nysnoe'
p497
sg14
Nsg15
Nsg16
Nsg17
g18
sg19
Nsg20
S'Observasjon'
p498
sg22
(dp499
sg24
S'Fjordane'
p500
sg26
S'2 - Smaa'
p501
sg28
I70936
sg29
I10
sg30
S'JOELSTER'
p502
sg32
Nsg33
Vbrit-siv@obskorps
p503
sg35
S'http://www.regobs.no/Registration/70936'
p504
sg37
S'Lag med loes nysnoe'
p505
sg39
I0
sba(igetproblems
AvalancheProblem
p506
(dp507
g4
I121
sg5
Nsg6
Nsg7
g8
(S'\x07\xdf\x0c\x10'
p508
tp509
Rp510
sg12
S'Nedsnoedd eller nedfoeyket overflaterim'
p511
sg14
Nsg15
Nsg16
Nsg17
g18
sg19
Nsg20
S'Observasjon'
p512
sg22
(dp513
sg24
S'Fjordane'
p514
sg26
S'2 - Smaa'
p515
sg28
I70936
sg29
I11
sg30
S'JOELSTER'
p516
sg32
Nsg33
Vbrit-siv@obskorps
p517
sg35
S'http://www.regobs.no/Registration/70936'
p518
sg37
S'Lag med overflaterim'
p519
sg39
I1
sba(igetproblems
AvalancheProblem
p520
(dp521
g4
I121
sg5
S'Noen bratte heng'
p522
sg6
S'Toerre flakskred'
p523
sg7
g8
(S'\x07\xdf\x0c\x10'
p524
tp525
Rp526
sg12
S'Nedsnoedd eller nedfoeyket overflaterim'
p527
sg14
S'Vedvarende svakt lag'
p528
sg15
Nsg16
S'Mulig'
p529
sg17
g50
sg19
S'Liten tilleggsbelastning'
p530
sg20
S'Varsel'
p531
sg22
(dp532
sg24
S'Fjordane'
p533
sg26
S'3 - Middels'
p534
sg28
Nsg29
I11
sg30
Nsg32
Nsg33
Nsg35
S'http://www.varsom.no/Snoskred/Fjordane/?date=16.12.2015'
p535
sg37
S'Lag med overflaterim'
p536
sg39
I0
sba(igetproblems
AvalancheProblem
p537
(dp538
g4
I121
sg5
S'Isolerte faresoner'
p539
sg6
S'Toerre flakskred'
p540
sg7
g8
(S'\x07\xdf\x0c\x11'
p541
tp542
Rp543
sg12
S'Nedsnoedd eller nedfoeyket overflaterim'
p544
sg14
g528
sg15
Nsg16
S'Mulig'
p545
sg17
g50
sg19
S'Naturlig utloest'
p546
sg20
S'Varsel'
p547
sg22
(dp548
sg24
S'Fjordane'
p549
sg26
S'3 - Middels'
p550
sg28
Nsg29
I11
sg30
Nsg32
Nsg33
Nsg35
S'http://www.varsom.no/Snoskred/Fjordane/?date=17.12.2015'
p551
sg37
S'Lag med overflaterim'
p552
sg39
I0
sba(igetproblems
AvalancheProblem
p553
(dp554
g4
I121
sg5
S'Noen bratte heng'
p555
sg6
S'Toerre flakskred'
p556
sg7
g8
(S'\x07\xdf\x0c\x11'
p557
tp558
Rp559
sg12
S'Nedfoeyket svakt lag med nysnoe'
p560
sg14
g48
sg15
Nsg16
S'Mulig'
p561
sg17
g50
sg19
S'Liten tilleggsbelastning'
p562
sg20
S'Varsel'
p563
sg22
(dp564
sg24
S'Fjordane'
p565
sg26
S'2 - Smaa'
p566
sg28
Nsg29
I10
sg30
Nsg32
Nsg33
Nsg35
S'http://www.varsom.no/Snoskred/Fjordane/?date=17.12.2015'
p567
sg37
S'Lag med loes nysnoe'
p568
sg39
I1
sba(igetproblems
AvalancheProblem
p569
(dp570
g4
I121
sg5
S'Isolerte faresoner'
p571
sg6
S'Toerre flakskred'
p572
sg7
g8
(S'\x07\xdf\x0c\x12'
p573
tp574
Rp575
sg12
S'Nedsnoedd eller nedfoeyket overflaterim'
p576
sg14
g528
sg15
Nsg16
S'Mulig'
p577
sg17
g50
sg19
S'Naturlig utloest'
p578
sg20
S'Varsel'
p579
sg22
(dp580
sg24
S'Fjordane'
p581
sg26
S'3 - Middels'
p582
sg28
Nsg29
I11
sg30
Nsg32
Nsg33
Nsg35
S'http://www.varsom.no/Snoskred/Fjordane/?date=18.12.2015'
p583
sg37
S'Lag med overflaterim'
p584
sg39
I0
sba(igetproblems
AvalancheProblem
p585
(dp586
g4
I121
sg5
S'Noen bratte heng'
p587
sg6
S'Toerre flakskred'
p588
sg7
g8
(S'\x07\xdf\x0c\x12'
p589
tp590
Rp591
sg12
S'Nedfoeyket svakt lag med nysnoe'
p592
sg14
g48
sg15
Nsg16
S'Mulig'
p593
sg17
g50
sg19
S'Naturlig utloest'
p594
sg20
S'Varsel'
p595
sg22
(dp596
sg24
S'Fjordane'
p597
sg26
S'3 - Middels'
p598
sg28
Nsg29
I10
sg30
Nsg32
Nsg33
Nsg35
S'http://www.varsom.no/Snoskred/Fjordane/?date=18.12.2015'
p599
sg37
S'Lag med loes nysnoe'
p600
sg39
I1
sba(igetproblems
AvalancheProblem
p601
(dp602
g4
I121
sg5
S'Mange bratte heng'
p603
sg6
S'Vaate loessnoeskred'
p604
sg7
g8
(S'\x07\xdf\x0c\x12'
p605
tp606
Rp607
sg12
S'Ubunden snoe'
p608
sg14
g66
sg15
Nsg16
S'Mulig'
p609
sg17
g50
sg19
S'Naturlig utloest'
p610
sg20
S'Varsel'
p611
sg22
(dp612
sg24
S'Fjordane'
p613
sg26
S'2 - Smaa'
p614
sg28
Nsg29
I24
sg30
Nsg32
Nsg33
Nsg35
S'http://www.varsom.no/Snoskred/Fjordane/?date=18.12.2015'
p615
sg37
S'Ubunden snoe'
p616
sg39
I2
sba(igetproblems
AvalancheProblem
p617
(dp618
g4
I121
sg5
Nsg6
Nsg7
g8
(S'\x07\xdf\x0c\x13'
p619
tp620
Rp621
sg12
S'Nedfoeyket svakt lag med nysnoe'
p622
sg14
Nsg15
Nsg16
Nsg17
g18
sg19
Nsg20
S'Observasjon'
p623
sg22
(dp624
sg24
S'Fjordane'
p625
sg26
S'3 - Middels'
p626
sg28
I71300
sg29
I10
sg30
S'JOELSTER'
p627
sg32
Nsg33
Vbrit-siv@obskorps
p628
sg35
S'http://www.regobs.no/Registration/71300'
p629
sg37
S'Lag med loes nysnoe'
p630
sg39
I0
sba(igetproblems
AvalancheProblem
p631
(dp632
g4
I121
sg5
S'Noen bratte heng'
p633
sg6
S'Vaate loessnoeskred'
p634
sg7
g8
(S'\x07\xdf\x0c\x13'
p635
tp636
Rp637
sg12
S'Ubunden snoe'
p638
sg14
g66
sg15
Nsg16
S'Mulig'
p639
sg17
g50
sg19
S'Naturlig utloest'
p640
sg20
S'Varsel'
p641
sg22
(dp642
sg24
S'Fjordane'
p643
sg26
S'2 - Smaa'
p644
sg28
Nsg29
I24
sg30
Nsg32
Nsg33
Nsg35
S'http://www.varsom.no/Snoskred/Fjordane/?date=19.12.2015'
p645
sg37
S'Ubunden snoe'
p646
sg39
I1
sba(igetproblems
AvalancheProblem
p647
(dp648
g4
I121
sg5
S'Noen bratte heng'
p649
sg6
S'Toerre flakskred'
p650
sg7
g8
(S'\x07\xdf\x0c\x13'
p651
tp652
Rp653
sg12
S'Nedfoeyket svakt lag med nysnoe'
p654
sg14
g48
sg15
Nsg16
S'Mulig'
p655
sg17
g50
sg19
S'Naturlig utloest'
p656
sg20
S'Varsel'
p657
sg22
(dp658
sg24
S'Fjordane'
p659
sg26
S'3 - Middels'
p660
sg28
Nsg29
I10
sg30
Nsg32
Nsg33
Nsg35
S'http://www.varsom.no/Snoskred/Fjordane/?date=19.12.2015'
p661
sg37
S'Lag med loes nysnoe'
p662
sg39
I2
sba(igetproblems
AvalancheProblem
p663
(dp664
g4
I121
sg5
S'Noen bratte heng'
p665
sg6
S'Toerre flakskred'
p666
sg7
g8
(S'\x07\xdf\x0c\x14'
p667
tp668
Rp669
sg12
S'Nedfoeyket svakt lag med nysnoe'
p670
sg14
g48
sg15
Nsg16
S'Mulig'
p671
sg17
g50
sg19
S'Naturlig utloest'
p672
sg20
S'Varsel'
p673
sg22
(dp674
sg24
S'Fjordane'
p675
sg26
S'3 - Middels'
p676
sg28
Nsg29
I10
sg30
Nsg32
Nsg33
Nsg35
S'http://www.varsom.no/Snoskred/Fjordane/?date=20.12.2015'
p677
sg37
S'Lag med loes nysnoe'
p678
sg39
I0
sba(igetproblems
AvalancheProblem
p679
(dp680
g4
I121
sg5
S'Noen bratte heng'
p681
sg6
S'Vaate loessnoeskred'
p682
sg7
g8
(S'\x07\xdf\x0c\x14'
p683
tp684
Rp685
sg12
S'Ubunden snoe'
p686
sg14
g66
sg15
Nsg16
S'Mulig'
p687
sg17
g50
sg19
S'Naturlig utloest'
p688
sg20
S'Varsel'
p689
sg22
(dp690
sg24
S'Fjordane'
p691
sg26
S'2 - Smaa'
p692
sg28
Nsg29
I24
sg30
Nsg32
Nsg33
Nsg35
S'http://www.varsom.no/Snoskred/Fjordane/?date=20.12.2015'
p693
sg37
S'Ubunden snoe'
p694
sg39
I1
sba(igetproblems
AvalancheProblem
p695
(dp696
g4
I121
sg5
S'Noen bratte heng'
p697
sg6
S'Toerre flakskred'
p698
sg7
g8
(S'\x07\xdf\x0c\x15'
p699
tp700
Rp701
sg12
S'Nedfoeyket svakt lag med nysnoe'
p702
sg14
g48
sg15
Nsg16
S'Mulig'
p703
sg17
g50
sg19
S'Liten tilleggsbelastning'
p704
sg20
S'Varsel'
p705
sg22
(dp706
sg24
S'Fjordane'
p707
sg26
S'3 - Middels'
p708
sg28
Nsg29
I10
sg30
Nsg32
Nsg33
Nsg35
S'http://www.varsom.no/Snoskred/Fjordane/?date=21.12.2015'
p709
sg37
S'Lag med loes nysnoe'
p710
sg39
I0
sba(igetproblems
AvalancheProblem
p711
(dp712
g4
I121
sg5
S'Noen bratte heng'
p713
sg6
S'Vaate loessnoeskred'
p714
sg7
g8
(S'\x07\xdf\x0c\x15'
p715
tp716
Rp717
sg12
S'Ubunden snoe'
p718
sg14
g66
sg15
Nsg16
S'Mulig'
p719
sg17
g50
sg19
S'Liten tilleggsbelastning'
p720
sg20
S'Varsel'
p721
sg22
(dp722
sg24
S'Fjordane'
p723
sg26
S'2 - Smaa'
p724
sg28
Nsg29
I24
sg30
Nsg32
Nsg33
Nsg35
S'http://www.varsom.no/Snoskred/Fjordane/?date=21.12.2015'
p725
sg37
S'Ubunden snoe'
p726
sg39
I1
sba(igetproblems
AvalancheProblem
p727
(dp728
g4
I121
sg5
Nsg6
Nsg7
g8
(S'\x07\xdf\x0c\x16'
p729
tp730
Rp731
sg12
S'Nedfoeyket svakt lag med nysnoe'
p732
sg14
Nsg15
Nsg16
Nsg17
g18
sg19
Nsg20
S'Observasjon'
p733
sg22
(dp734
sg24
S'Fjordane'
p735
sg26
S'3 - Middels'
p736
sg28
I71651
sg29
I10
sg30
S'JOELSTER'
p737
sg32
Nsg33
Vbrit-siv@obskorps
p738
sg35
S'http://www.regobs.no/Registration/71651'
p739
sg37
S'Lag med loes nysnoe'
p740
sg39
I0
sba(igetproblems
AvalancheProblem
p741
(dp742
g4
I121
sg5
S'Noen bratte heng'
p743
sg6
S'Toerre flakskred'
p744
sg7
g8
(S'\x07\xdf\x0c\x16'
p745
tp746
Rp747
sg12
S'Nedfoeyket svakt lag med nysnoe'
p748
sg14
g48
sg15
Nsg16
S'Mulig'
p749
sg17
g50
sg19
S'Liten tilleggsbelastning'
p750
sg20
S'Varsel'
p751
sg22
(dp752
sg24
S'Fjordane'
p753
sg26
S'3 - Middels'
p754
sg28
Nsg29
I10
sg30
Nsg32
Nsg33
Nsg35
S'http://www.varsom.no/Snoskred/Fjordane/?date=22.12.2015'
p755
sg37
S'Lag med loes nysnoe'
p756
sg39
I0
sba(igetproblems
AvalancheProblem
p757
(dp758
g4
I121
sg5
S'Noen bratte heng'
p759
sg6
S'Vaate loessnoeskred'
p760
sg7
g8
(S'\x07\xdf\x0c\x16'
p761
tp762
Rp763
sg12
S'Ubunden snoe'
p764
sg14
g66
sg15
Nsg16
S'Mulig'
p765
sg17
g50
sg19
S'Naturlig utloest'
p766
sg20
S'Varsel'
p767
sg22
(dp768
sg24
S'Fjordane'
p769
sg26
S'2 - Smaa'
p770
sg28
Nsg29
I24
sg30
Nsg32
Nsg33
Nsg35
S'http://www.varsom.no/Snoskred/Fjordane/?date=22.12.2015'
p771
sg37
S'Ubunden snoe'
p772
sg39
I1
sba(igetproblems
AvalancheProblem
p773
(dp774
g4
I121
sg5
S'Mange bratte heng'
p775
sg6
S'Toerre flakskred'
p776
sg7
g8
(S'\x07\xdf\x0c\x17'
p777
tp778
Rp779
sg12
S'Nedfoeyket svakt lag med nysnoe'
p780
sg14
g48
sg15
Nsg16
S'Mulig'
p781
sg17
g50
sg19
S'Liten tilleggsbelastning'
p782
sg20
S'Varsel'
p783
sg22
(dp784
sg24
S'Fjordane'
p785
sg26
S'2 - Smaa'
p786
sg28
Nsg29
I10
sg30
Nsg32
Nsg33
Nsg35
S'http://www.varsom.no/Snoskred/Fjordane/?date=23.12.2015'
p787
sg37
S'Lag med loes nysnoe'
p788
sg39
I0
sba(igetproblems
AvalancheProblem
p789
(dp790
g4
I121
sg5
S'Noen bratte heng'
p791
sg6
S'Vaate loessnoeskred'
p792
sg7
g8
(S'\x07\xdf\x0c\x17'
p793
tp794
Rp795
sg12
S'Ubunden snoe'
p796
sg14
g66
sg15
Nsg16
S'Mulig'
p797
sg17
g50
sg19
S'Naturlig utloest'
p798
sg20
S'Varsel'
p799
sg22
(dp800
sg24
S'Fjordane'
p801
sg26
S'2 - Smaa'
p802
sg28
Nsg29
I24
sg30
Nsg32
Nsg33
Nsg35
S'http://www.varsom.no/Snoskred/Fjordane/?date=23.12.2015'
p803
sg37
S'Ubunden snoe'
p804
sg39
I1
sba(igetproblems
AvalancheProblem
p805
(dp806
g4
I121
sg5
S'Noen bratte heng'
p807
sg6
S'Toerre flakskred'
p808
sg7
g8
(S'\x07\xdf\x0c\x18'
p809
tp810
Rp811
sg12
S'Nedfoeyket svakt lag med nysnoe'
p812
sg14
g48
sg15
Nsg16
S'Mulig'
p813
sg17
g50
sg19
S'Naturlig utloest'
p814
sg20
S'Varsel'
p815
sg22
(dp816
sg24
S'Fjordane'
p817
sg26
S'3 - Middels'
p818
sg28
Nsg29
I10
sg30
Nsg32
Nsg33
Nsg35
S'http://www.varsom.no/Snoskred/Fjordane/?date=24.12.2015'
p819
sg37
S'Lag med loes nysnoe'
p820
sg39
I0
sba(igetproblems
AvalancheProblem
p821
(dp822
g4
I121
sg5
S'Noen bratte heng'
p823
sg6
S'Vaate flakskred'
p824
sg7
g8
(S'\x07\xdf\x0c\x18'
p825
tp826
Rp827
sg12
S'Opphopning av vann i/over lag i snoedekket'
p828
sg14
g157
sg15
Nsg16
S'Mulig'
p829
sg17
g50
sg19
S'Naturlig utloest'
p830
sg20
S'Varsel'
p831
sg22
(dp832
sg24
S'Fjordane'
p833
sg26
S'3 - Middels'
p834
sg28
Nsg29
I22
sg30
Nsg32
Nsg33
Nsg35
S'http://www.varsom.no/Snoskred/Fjordane/?date=24.12.2015'
p835
sg37
S'Opphopning over skaren'
p836
sg39
I1
sba(igetproblems
AvalancheProblem
p837
(dp838
g4
I121
sg5
S'Noen bratte heng'
p839
sg6
S'Toerre flakskred'
p840
sg7
g8
(S'\x07\xdf\x0c\x19'
p841
tp842
Rp843
sg12
S'Nedfoeyket svakt lag med nysnoe'
p844
sg14
g48
sg15
Nsg16
S'Mulig'
p845
sg17
g50
sg19
S'Naturlig utloest'
p846
sg20
S'Varsel'
p847
sg22
(dp848
sg24
S'Fjordane'
p849
sg26
S'3 - Middels'
p850
sg28
Nsg29
I10
sg30
Nsg32
Nsg33
Nsg35
S'http://www.varsom.no/Snoskred/Fjordane/?date=25.12.2015'
p851
sg37
S'Lag med loes nysnoe'
p852
sg39
I0
sba(igetproblems
AvalancheProblem
p853
(dp854
g4
I121
sg5
Nsg6
Nsg7
g8
(S'\x07\xdf\x0c\x1a'
p855
tp856
Rp857
sg12
S'Nedfoeyket svakt lag med nysnoe'
p858
sg14
Nsg15
Nsg16
Nsg17
g18
sg19
Nsg20
S'Observasjon'
p859
sg22
(dp860
sg24
S'Fjordane'
p861
sg26
S'3 - Middels'
p862
sg28
I72078
sg29
I10
sg30
S'JOELSTER'
p863
sg32
Nsg33
Vbrit-siv@obskorps
p864
sg35
S'http://www.regobs.no/Registration/72078'
p865
sg37
S'Lag med loes nysnoe'
p866
sg39
I0
sba(igetproblems
AvalancheProblem
p867
(dp868
g4
I121
sg5
S'Noen bratte heng'
p869
sg6
S'Toerre flakskred'
p870
sg7
g8
(S'\x07\xdf\x0c\x1a'
p871
tp872
Rp873
sg12
S'Nedfoeyket svakt lag med nysnoe'
p874
sg14
g48
sg15
Nsg16
S'Mulig'
p875
sg17
g50
sg19
S'Liten tilleggsbelastning'
p876
sg20
S'Varsel'
p877
sg22
(dp878
sg24
S'Fjordane'
p879
sg26
S'3 - Middels'
p880
sg28
Nsg29
I10
sg30
Nsg32
Nsg33
Nsg35
S'http://www.varsom.no/Snoskred/Fjordane/?date=26.12.2015'
p881
sg37
S'Lag med loes nysnoe'
p882
sg39
I0
sba(igetproblems
AvalancheProblem
p883
(dp884
g4
I121
sg5
S'Noen bratte heng'
p885
sg6
S'Toerre flakskred'
p886
sg7
g8
(S'\x07\xdf\x0c\x1b'
p887
tp888
Rp889
sg12
S'Nedfoeyket svakt lag med nysnoe'
p890
sg14
g48
sg15
Nsg16
S'Mulig'
p891
sg17
g50
sg19
S'Liten tilleggsbelastning'
p892
sg20
S'Varsel'
p893
sg22
(dp894
sg24
S'Fjordane'
p895
sg26
S'3 - Middels'
p896
sg28
Nsg29
I10
sg30
Nsg32
Nsg33
Nsg35
S'http://www.varsom.no/Snoskred/Fjordane/?date=27.12.2015'
p897
sg37
S'Lag med loes nysnoe'
p898
sg39
I0
sba(igetproblems
AvalancheProblem
p899
(dp900
g4
I121
sg5
S'Noen bratte heng'
p901
sg6
S'Toerre flakskred'
p902
sg7
g8
(S'\x07\xdf\x0c\x1b'
p903
tp904
Rp905
sg12
S'Nedfoeyket svakt lag med nysnoe'
p906
sg14
g48
sg15
Nsg16
S'Mulig'
p907
sg17
g50
sg19
S'Stor tilleggsbelastning'
p908
sg20
S'Varsel'
p909
sg22
(dp910
sg24
S'Fjordane'
p911
sg26
S'2 - Smaa'
p912
sg28
Nsg29
I10
sg30
Nsg32
Nsg33
Nsg35
S'http://www.varsom.no/Snoskred/Fjordane/?date=27.12.2015'
p913
sg37
S'Lag med loes nysnoe'
p914
sg39
I1
sba(igetproblems
AvalancheProblem
p915
(dp916
g4
I121
sg5
S'Noen bratte heng'
p917
sg6
S'Toerre flakskred'
p918
sg7
g8
(S'\x07\xdf\x0c\x1c'
p919
tp920
Rp921
sg12
S'Nedfoeyket svakt lag med nysnoe'
p922
sg14
g48
sg15
Nsg16
S'Mulig'
p923
sg17
g50
sg19
S'Liten tilleggsbelastning'
p924
sg20
S'Varsel'
p925
sg22
(dp926
sg24
S'Fjordane'
p927
sg26
S'3 - Middels'
p928
sg28
Nsg29
I10
sg30
Nsg32
Nsg33
Nsg35
S'http://www.varsom.no/Snoskred/Fjordane/?date=28.12.2015'
p929
sg37
S'Lag med loes nysnoe'
p930
sg39
I0
sba(igetproblems
AvalancheProblem
p931
(dp932
g4
I121
sg5
S'Noen bratte heng'
p933
sg6
S'Toerre flakskred'
p934
sg7
g8
(S'\x07\xdf\x0c\x1d'
p935
tp936
Rp937
sg12
S'Nedsnoedd eller nedfoeyket overflaterim'
p938
sg14
g528
sg15
Nsg16
S'Mulig'
p939
sg17
g50
sg19
S'Liten tilleggsbelastning'
p940
sg20
S'Varsel'
p941
sg22
(dp942
sg24
S'Fjordane'
p943
sg26
S'2 - Smaa'
p944
sg28
Nsg29
I11
sg30
Nsg32
Nsg33
Nsg35
S'http://www.varsom.no/Snoskred/Fjordane/?date=29.12.2015'
p945
sg37
S'Lag med overflaterim'
p946
sg39
I0
sba(igetproblems
AvalancheProblem
p947
(dp948
g4
I121
sg5
S'Noen bratte heng'
p949
sg6
S'Toerre flakskred'
p950
sg7
g8
(S'\x07\xdf\x0c\x1d'
p951
tp952
Rp953
sg12
S'Nedfoeyket svakt lag med nysnoe'
p954
sg14
g48
sg15
Nsg16
S'Mulig'
p955
sg17
g50
sg19
S'Liten tilleggsbelastning'
p956
sg20
S'Varsel'
p957
sg22
(dp958
sg24
S'Fjordane'
p959
sg26
S'2 - Smaa'
p960
sg28
Nsg29
I10
sg30
Nsg32
Nsg33
Nsg35
S'http://www.varsom.no/Snoskred/Fjordane/?date=29.12.2015'
p961
sg37
S'Lag med loes nysnoe'
p962
sg39
I1
sba(igetproblems
AvalancheProblem
p963
(dp964
g4
I121
sg5
S'Noen bratte heng'
p965
sg6
S'Toerre flakskred'
p966
sg7
g8
(S'\x07\xdf\x0c\x1e'
p967
tp968
Rp969
sg12
S'Nedfoeyket svakt lag med nysnoe'
p970
sg14
g48
sg15
Nsg16
S'Mulig'
p971
sg17
g50
sg19
S'Liten tilleggsbelastning'
p972
sg20
S'Varsel'
p973
sg22
(dp974
sg24
S'Fjordane'
p975
sg26
S'2 - Smaa'
p976
sg28
Nsg29
I10
sg30
Nsg32
Nsg33
Nsg35
S'http://www.varsom.no/Snoskred/Fjordane/?date=30.12.2015'
p977
sg37
S'Lag med loes nysnoe'
p978
sg39
I0
sba(igetproblems
AvalancheProblem
p979
(dp980
g4
I121
sg5
Nsg6
Nsg7
g8
(S'\x07\xdf\x0c\x1f'
p981
tp982
Rp983
sg12
S'Daarlig binding mellom lag i fokksnoeen'
p984
sg14
Nsg15
Nsg16
Nsg17
g18
sg19
Nsg20
S'Observasjon'
p985
sg22
(dp986
sg24
S'Fjordane'
p987
sg26
S'3 - Middels'
p988
sg28
I72669
sg29
I15
sg30
S'JOELSTER'
p989
sg32
Nsg33
Vbrit-siv@obskorps
p990
sg35
S'http://www.regobs.no/Registration/72669'
p991
sg37
S'I fokksnoeen'
p992
sg39
I0
sba(igetproblems
AvalancheProblem
p993
(dp994
g4
I121
sg5
S'Noen bratte heng'
p995
sg6
S'Toerre flakskred'
p996
sg7
g8
(S'\x07\xdf\x0c\x1f'
p997
tp998
Rp999
sg12
S'Nedfoeyket svakt lag med nysnoe'
p1000
sg14
g48
sg15
Nsg16
S'Mulig'
p1001
sg17
g50
sg19
S'Liten tilleggsbelastning'
p1002
sg20
S'Varsel'
p1003
sg22
(dp1004
sg24
S'Fjordane'
p1005
sg26
S'3 - Middels'
p1006
sg28
Nsg29
I10
sg30
Nsg32
Nsg33
Nsg35
S'http://www.varsom.no/Snoskred/Fjordane/?date=31.12.2015'
p1007
sg37
S'Lag med loes nysnoe'
p1008
sg39
I0
sba(igetproblems
AvalancheProblem
p1009
(dp1010
g4
I121
sg5
S'Noen bratte heng'
p1011
sg6
S'Toerre flakskred'
p1012
sg7
g8
(S'\x07\xe0\x01\x01'
p1013
tp1014
Rp1015
sg12
S'Nedfoeyket svakt lag med nysnoe'
p1016
sg14
g48
sg15
Nsg16
S'Mulig'
p1017
sg17
g50
sg19
S'Liten tilleggsbelastning'
p1018
sg20
S'Varsel'
p1019
sg22
(dp1020
sg24
S'Fjordane'
p1021
sg26
S'3 - Middels'
p1022
sg28
Nsg29
I10
sg30
Nsg32
Nsg33
Nsg35
S'http://www.varsom.no/Snoskred/Fjordane/?date=01.01.2016'
p1023
sg37
S'Lag med loes nysnoe'
p1024
sg39
I0
sba(igetproblems
AvalancheProblem
p1025
(dp1026
g4
I121
sg5
Nsg6
Nsg7
g8
(S'\x07\xe0\x01\x02'
p1027
tp1028
Rp1029
sg12
S'Daarlig binding mellom lag i fokksnoeen'
p1030
sg14
Nsg15
Nsg16
Nsg17
g18
sg19
Nsg20
S'Observasjon'
p1031
sg22
(dp1032
sg24
S'Fjordane'
p1033
sg26
S'2 - Smaa'
p1034
sg28
I72898
sg29
I15
sg30
S'JOELSTER'
p1035
sg32
Nsg33
Vbrit-siv@obskorps
p1036
sg35
S'http://www.regobs.no/Registration/72898'
p1037
sg37
S'I fokksnoeen'
p1038
sg39
I0
sba(igetproblems
AvalancheProblem
p1039
(dp1040
g4
I121
sg5
S'Noen bratte heng'
p1041
sg6
S'Toerre flakskred'
p1042
sg7
g8
(S'\x07\xe0\x01\x02'
p1043
tp1044
Rp1045
sg12
S'Nedfoeyket svakt lag med nysnoe'
p1046
sg14
g48
sg15
Nsg16
S'Mulig'
p1047
sg17
g50
sg19
S'Liten tilleggsbelastning'
p1048
sg20
S'Varsel'
p1049
sg22
(dp1050
sg24
S'Fjordane'
p1051
sg26
S'3 - Middels'
p1052
sg28
Nsg29
I10
sg30
Nsg32
Nsg33
Nsg35
S'http://www.varsom.no/Snoskred/Fjordane/?date=02.01.2016'
p1053
sg37
S'Lag med loes nysnoe'
p1054
sg39
I0
sba(igetproblems
AvalancheProblem
p1055
(dp1056
g4
I121
sg5
S'Noen bratte heng'
p1057
sg6
S'Toerre flakskred'
p1058
sg7
g8
(S'\x07\xe0\x01\x03'
p1059
tp1060
Rp1061
sg12
S'Nedfoeyket svakt lag med nysnoe'
p1062
sg14
g48
sg15
Nsg16
S'Mulig'
p1063
sg17
g50
sg19
S'Stor tilleggsbelastning'
p1064
sg20
S'Varsel'
p1065
sg22
(dp1066
sg24
S'Fjordane'
p1067
sg26
S'2 - Smaa'
p1068
sg28
Nsg29
I10
sg30
Nsg32
Nsg33
Nsg35
S'http://www.varsom.no/Snoskred/Fjordane/?date=03.01.2016'
p1069
sg37
S'Lag med loes nysnoe'
p1070
sg39
I0
sba(igetproblems
AvalancheProblem
p1071
(dp1072
g4
I121
sg5
S'Noen bratte heng'
p1073
sg6
S'Toerre flakskred'
p1074
sg7
g8
(S'\x07\xe0\x01\x04'
p1075
tp1076
Rp1077
sg12
S'Nedfoeyket svakt lag med nysnoe'
p1078
sg14
g48
sg15
Nsg16
S'Mulig'
p1079
sg17
g50
sg19
S'Stor tilleggsbelastning'
p1080
sg20
S'Varsel'
p1081
sg22
(dp1082
sg24
S'Fjordane'
p1083
sg26
S'2 - Smaa'
p1084
sg28
Nsg29
I10
sg30
Nsg32
Nsg33
Nsg35
S'http://www.varsom.no/Snoskred/Fjordane/?date=04.01.2016'
p1085
sg37
S'Lag med loes nysnoe'
p1086
sg39
I0
sba(igetproblems
AvalancheProblem
p1087
(dp1088
g4
I121
sg5
S'Noen bratte heng'
p1089
sg6
S'Toerre flakskred'
p1090
sg7
g8
(S'\x07\xe0\x01\x05'
p1091
tp1092
Rp1093
sg12
S'Daarlig binding mellom lag i fokksnoeen'
p1094
sg14
g48
sg15
Nsg16
S'Mulig'
p1095
sg17
g50
sg19
S'Stor tilleggsbelastning'
p1096
sg20
S'Varsel'
p1097
sg22
(dp1098
sg24
S'Fjordane'
p1099
sg26
S'2 - Smaa'
p1100
sg28
Nsg29
I15
sg30
Nsg32
Nsg33
Nsg35
S'http://www.varsom.no/Snoskred/Fjordane/?date=05.01.2016'
p1101
sg37
S'I fokksnoeen'
p1102
sg39
I0
sba(igetproblems
AvalancheProblem
p1103
(dp1104
g4
I121
sg5
Nsg6
Nsg7
g8
(S'\x07\xe0\x01\x06'
p1105
tp1106
Rp1107
sg12
S'Daarlig binding mellom lag i fokksnoeen'
p1108
sg14
Nsg15
Nsg16
Nsg17
g18
sg19
Nsg20
S'Observasjon'
p1109
sg22
(dp1110
sg24
S'Fjordane'
p1111
sg26
S'2 - Smaa'
p1112
sg28
I73369
sg29
I15
sg30
S'JOELSTER'
p1113
sg32
Nsg33
Vbrit-siv@obskorps
p1114
sg35
S'http://www.regobs.no/Registration/73369'
p1115
sg37
S'I fokksnoeen'
p1116
sg39
I0
sba(igetproblems
AvalancheProblem
p1117
(dp1118
g4
I121
sg5
S'Isolerte faresoner'
p1119
sg6
S'Toerre flakskred'
p1120
sg7
g8
(S'\x07\xe0\x01\x06'
p1121
tp1122
Rp1123
sg12
S'Daarlig binding mellom lag i fokksnoeen'
p1124
sg14
g48
sg15
Nsg16
S'Mulig'
p1125
sg17
g50
sg19
S'Stor tilleggsbelastning'
p1126
sg20
S'Varsel'
p1127
sg22
(dp1128
sg24
S'Fjordane'
p1129
sg26
S'2 - Smaa'
p1130
sg28
Nsg29
I15
sg30
Nsg32
Nsg33
Nsg35
S'http://www.varsom.no/Snoskred/Fjordane/?date=06.01.2016'
p1131
sg37
S'I fokksnoeen'
p1132
sg39
I0
sba(igetproblems
AvalancheProblem
p1133
(dp1134
g4
I121
sg5
S'Isolerte faresoner'
p1135
sg6
S'Toerre flakskred'
p1136
sg7
g8
(S'\x07\xe0\x01\x07'
p1137
tp1138
Rp1139
sg12
S'Daarlig binding mellom lag i fokksnoeen'
p1140
sg14
g48
sg15
Nsg16
S'Mulig'
p1141
sg17
g50
sg19
S'Stor tilleggsbelastning'
p1142
sg20
S'Varsel'
p1143
sg22
(dp1144
sg24
S'Fjordane'
p1145
sg26
S'2 - Smaa'
p1146
sg28
Nsg29
I15
sg30
Nsg32
Nsg33
Nsg35
S'http://www.varsom.no/Snoskred/Fjordane/?date=07.01.2016'
p1147
sg37
S'I fokksnoeen'
p1148
sg39
I0
sba(igetproblems
AvalancheProblem
p1149
(dp1150
g4
I121
sg5
S'Isolerte faresoner'
p1151
sg6
S'Toerre flakskred'
p1152
sg7
g8
(S'\x07\xe0\x01\x08'
p1153
tp1154
Rp1155
sg12
S'Daarlig binding mellom lag i fokksnoeen'
p1156
sg14
g48
sg15
Nsg16
S'Mulig'
p1157
sg17
g50
sg19
S'Stor tilleggsbelastning'
p1158
sg20
S'Varsel'
p1159
sg22
(dp1160
sg24
S'Fjordane'
p1161
sg26
S'2 - Smaa'
p1162
sg28
Nsg29
I15
sg30
Nsg32
Nsg33
Nsg35
S'http://www.varsom.no/Snoskred/Fjordane/?date=08.01.2016'
p1163
sg37
S'I fokksnoeen'
p1164
sg39
I0
sba(igetproblems
AvalancheProblem
p1165
(dp1166
g4
I121
sg5
Nsg6
Nsg7
g8
(S'\x07\xe0\x01\t'
p1167
tp1168
Rp1169
sg12
S'Daarlig binding mellom lag i fokksnoeen'
p1170
sg14
Nsg15
Nsg16
Nsg17
g18
sg19
Nsg20
S'Observasjon'
p1171
sg22
(dp1172
sg24
S'Fjordane'
p1173
sg26
S'2 - Smaa'
p1174
sg28
I73777
sg29
I15
sg30
S'JOELSTER'
p1175
sg32
Nsg33
Vbrit-siv@obskorps
p1176
sg35
S'http://www.regobs.no/Registration/73777'
p1177
sg37
S'I fokksnoeen'
p1178
sg39
I0
sba(igetproblems
AvalancheProblem
p1179
(dp1180
g4
I121
sg5
S'Isolerte faresoner'
p1181
sg6
S'Toerre flakskred'
p1182
sg7
g8
(S'\x07\xe0\x01\t'
p1183
tp1184
Rp1185
sg12
S'Daarlig binding mellom lag i fokksnoeen'
p1186
sg14
g48
sg15
Nsg16
S'Mulig'
p1187
sg17
g50
sg19
S'Stor tilleggsbelastning'
p1188
sg20
S'Varsel'
p1189
sg22
(dp1190
sg24
S'Fjordane'
p1191
sg26
S'2 - Smaa'
p1192
sg28
Nsg29
I15
sg30
Nsg32
Nsg33
Nsg35
S'http://www.varsom.no/Snoskred/Fjordane/?date=09.01.2016'
p1193
sg37
S'I fokksnoeen'
p1194
sg39
I0
sba(igetproblems
AvalancheProblem
p1195
(dp1196
g4
I121
sg5
S'Isolerte faresoner'
p1197
sg6
S'Toerre flakskred'
p1198
sg7
g8
(S'\x07\xe0\x01\n'
p1199
tp1200
Rp1201
sg12
S'Daarlig binding mellom lag i fokksnoeen'
p1202
sg14
g48
sg15
Nsg16
S'Lite sannsynlig'
p1203
sg17
g50
sg19
S'Stor tilleggsbelastning'
p1204
sg20
S'Varsel'
p1205
sg22
(dp1206
sg24
S'Fjordane'
p1207
sg26
S'2 - Smaa'
p1208
sg28
Nsg29
I15
sg30
Nsg32
Nsg33
Nsg35
S'http://www.varsom.no/Snoskred/Fjordane/?date=10.01.2016'
p1209
sg37
S'I fokksnoeen'
p1210
sg39
I0
sba(igetproblems
AvalancheProblem
p1211
(dp1212
g4
I121
sg5
S'Noen bratte heng'
p1213
sg6
S'Toerre flakskred'
p1214
sg7
g8
(S'\x07\xe0\x01\x0b'
p1215
tp1216
Rp1217
sg12
S'Daarlig binding mellom lag i fokksnoeen'
p1218
sg14
g48
sg15
Nsg16
S'Lite sannsynlig'
p1219
sg17
g50
sg19
S'Stor tilleggsbelastning'
p1220
sg20
S'Varsel'
p1221
sg22
(dp1222
sg24
S'Fjordane'
p1223
sg26
S'2 - Smaa'
p1224
sg28
Nsg29
I15
sg30
Nsg32
Nsg33
Nsg35
S'http://www.varsom.no/Snoskred/Fjordane/?date=11.01.2016'
p1225
sg37
S'I fokksnoeen'
p1226
sg39
I0
sba(igetproblems
AvalancheProblem
p1227
(dp1228
g4
I121
sg5
Nsg6
Nsg7
g8
(S'\x07\xe0\x01\x0c'
p1229
tp1230
Rp1231
sg12
S'Kantkornet snoe under skarelag'
p1232
sg14
Nsg15
Nsg16
Nsg17
g18
sg19
Nsg20
S'Observasjon'
p1233
sg22
(dp1234
sg24
S'Fjordane'
p1235
sg26
S'3 - Middels'
p1236
sg28
I74128
sg29
I19
sg30
S'GLOPPEN'
p1237
sg32
Nsg33
VLars-Ove@nordfjordfhs
p1238
sg35
S'http://www.regobs.no/Registration/74128'
p1239
sg37
S'Kantkornet under skaren'
p1240
sg39
I0
sba(igetproblems
AvalancheProblem
p1241
(dp1242
g4
I121
sg5
Nsg6
Nsg7
g8
(S'\x07\xe0\x01\x0c'
p1243
tp1244
Rp1245
sg12
S'Nedfoeyket svakt lag med nysnoe'
p1246
sg14
Nsg15
Nsg16
Nsg17
g18
sg19
Nsg20
S'Observasjon'
p1247
sg22
(dp1248
sg24
S'Fjordane'
p1249
sg26
S'1 - Harmloest'
p1250
sg28
I74100
sg29
I10
sg30
S'JOELSTER'
p1251
sg32
Nsg33
Vbrit-siv@obskorps
p1252
sg35
S'http://www.regobs.no/Registration/74100'
p1253
sg37
S'Lag med loes nysnoe'
p1254
sg39
I0
sba(igetproblems
AvalancheProblem
p1255
(dp1256
g4
I121
sg5
S'Noen bratte heng'
p1257
sg6
S'Toerre flakskred'
p1258
sg7
g8
(S'\x07\xe0\x01\x0c'
p1259
tp1260
Rp1261
sg12
S'Daarlig binding mellom lag i fokksnoeen'
p1262
sg14
g48
sg15
Nsg16
S'Lite sannsynlig'
p1263
sg17
g50
sg19
S'Stor tilleggsbelastning'
p1264
sg20
S'Varsel'
p1265
sg22
(dp1266
sg24
S'Fjordane'
p1267
sg26
S'2 - Smaa'
p1268
sg28
Nsg29
I15
sg30
Nsg32
Nsg33
Nsg35
S'http://www.varsom.no/Snoskred/Fjordane/?date=12.01.2016'
p1269
sg37
S'I fokksnoeen'
p1270
sg39
I0
sba(igetproblems
AvalancheProblem
p1271
(dp1272
g4
I121
sg5
Nsg6
Nsg7
g8
(S'\x07\xe0\x01\r'
p1273
tp1274
Rp1275
sg12
S'Daarlig binding mellom lag i fokksnoeen'
p1276
sg14
Nsg15
Nsg16
Nsg17
g18
sg19
Nsg20
S'Observasjon'
p1277
sg22
(dp1278
sg24
S'Fjordane'
p1279
sg26
S'1 - Harmloest'
p1280
sg28
I74227
sg29
I15
sg30
S'BALESTRAND'
p1281
sg32
Nsg33
VIngrid SVV
p1282
sg35
S'http://www.regobs.no/Registration/74227'
p1283
sg37
S'I fokksnoeen'
p1284
sg39
I0
sba(igetproblems
AvalancheProblem
p1285
(dp1286
g4
I121
sg5
S'Noen bratte heng'
p1287
sg6
S'Toerre flakskred'
p1288
sg7
g8
(S'\x07\xe0\x01\r'
p1289
tp1290
Rp1291
sg12
S'Nedfoeyket svakt lag med nysnoe'
p1292
sg14
g48
sg15
Nsg16
S'Mulig'
p1293
sg17
g50
sg19
S'Liten tilleggsbelastning'
p1294
sg20
S'Varsel'
p1295
sg22
(dp1296
sg24
S'Fjordane'
p1297
sg26
S'1 - Harmloest'
p1298
sg28
Nsg29
I10
sg30
Nsg32
Nsg33
Nsg35
S'http://www.varsom.no/Snoskred/Fjordane/?date=13.01.2016'
p1299
sg37
S'Lag med loes nysnoe'
p1300
sg39
I0
sba(igetproblems
AvalancheProblem
p1301
(dp1302
g4
I121
sg5
S'Isolerte faresoner'
p1303
sg6
S'Toerre flakskred'
p1304
sg7
g8
(S'\x07\xe0\x01\x0e'
p1305
tp1306
Rp1307
sg12
S'Nedfoeyket svakt lag med nysnoe'
p1308
sg14
g48
sg15
Nsg16
S'Mulig'
p1309
sg17
g50
sg19
S'Liten tilleggsbelastning'
p1310
sg20
S'Varsel'
p1311
sg22
(dp1312
sg24
S'Fjordane'
p1313
sg26
S'2 - Smaa'
p1314
sg28
Nsg29
I10
sg30
Nsg32
Nsg33
Nsg35
S'http://www.varsom.no/Snoskred/Fjordane/?date=14.01.2016'
p1315
sg37
S'Lag med loes nysnoe'
p1316
sg39
I0
sba(igetproblems
AvalancheProblem
p1317
(dp1318
g4
I121
sg5
S'Noen bratte heng'
p1319
sg6
S'Toerre flakskred'
p1320
sg7
g8
(S'\x07\xe0\x01\x0f'
p1321
tp1322
Rp1323
sg12
S'Daarlig binding mellom lag i fokksnoeen'
p1324
sg14
g48
sg15
Nsg16
S'Mulig'
p1325
sg17
g50
sg19
S'Liten tilleggsbelastning'
p1326
sg20
S'Varsel'
p1327
sg22
(dp1328
sg24
S'Fjordane'
p1329
sg26
S'2 - Smaa'
p1330
sg28
Nsg29
I15
sg30
Nsg32
Nsg33
Nsg35
S'http://www.varsom.no/Snoskred/Fjordane/?date=15.01.2016'
p1331
sg37
S'I fokksnoeen'
p1332
sg39
I0
sba(igetproblems
AvalancheProblem
p1333
(dp1334
g4
I121
sg5
Nsg6
Nsg7
g8
(S'\x07\xe0\x01\x10'
p1335
tp1336
Rp1337
sg12
S'Nedfoeyket svakt lag med nysnoe'
p1338
sg14
Nsg15
Nsg16
Nsg17
g18
sg19
Nsg20
S'Observasjon'
p1339
sg22
(dp1340
sg24
S'Fjordane'
p1341
sg26
S'2 - Smaa'
p1342
sg28
I75627
sg29
I10
sg30
S'FOERDE'
p1343
sg32
Nsg33
Vbrit-siv@obskorps
p1344
sg35
S'http://www.regobs.no/Registration/75627'
p1345
sg37
S'Lag med loes nysnoe'
p1346
sg39
I0
sba(igetproblems
AvalancheProblem
p1347
(dp1348
g4
I121
sg5
Nsg6
Nsg7
g8
(S'\x07\xe0\x01\x10'
p1349
tp1350
Rp1351
sg12
S'Daarlig binding mellom lag i fokksnoeen'
p1352
sg14
Nsg15
Nsg16
Nsg17
g18
sg19
Nsg20
S'Observasjon'
p1353
sg22
(dp1354
sg24
S'Fjordane'
p1355
sg26
Nsg28
I75636
sg29
I15
sg30
S'NAUSTDAL'
p1356
sg32
Nsg33
Vkjetilhd
p1357
sg35
S'http://www.regobs.no/Registration/75636'
p1358
sg37
S'I fokksnoeen'
p1359
sg39
I0
sba(igetproblems
AvalancheProblem
p1360
(dp1361
g4
I121
sg5
S'Noen bratte heng'
p1362
sg6
S'Toerre flakskred'
p1363
sg7
g8
(S'\x07\xe0\x01\x10'
p1364
tp1365
Rp1366
sg12
S'Daarlig binding mellom lag i fokksnoeen'
p1367
sg14
g48
sg15
Nsg16
S'Sannsynlig'
p1368
sg17
g50
sg19
S'Liten tilleggsbelastning'
p1369
sg20
S'Varsel'
p1370
sg22
(dp1371
sg24
S'Fjordane'
p1372
sg26
S'2 - Smaa'
p1373
sg28
Nsg29
I15
sg30
Nsg32
Nsg33
Nsg35
S'http://www.varsom.no/Snoskred/Fjordane/?date=16.01.2016'
p1374
sg37
S'I fokksnoeen'
p1375
sg39
I0
sba(igetproblems
AvalancheProblem
p1376
(dp1377
g4
I121
sg5
S'Noen bratte heng'
p1378
sg6
S'Toerre flakskred'
p1379
sg7
g8
(S'\x07\xe0\x01\x11'
p1380
tp1381
Rp1382
sg12
S'Daarlig binding mellom lag i fokksnoeen'
p1383
sg14
g48
sg15
Nsg16
S'Mulig'
p1384
sg17
g50
sg19
S'Liten tilleggsbelastning'
p1385
sg20
S'Varsel'
p1386
sg22
(dp1387
sg24
S'Fjordane'
p1388
sg26
S'2 - Smaa'
p1389
sg28
Nsg29
I15
sg30
Nsg32
Nsg33
Nsg35
S'http://www.varsom.no/Snoskred/Fjordane/?date=17.01.2016'
p1390
sg37
S'I fokksnoeen'
p1391
sg39
I0
sba(igetproblems
AvalancheProblem
p1392
(dp1393
g4
I121
sg5
Nsg6
Nsg7
g8
(S'\x07\xe0\x01\x12'
p1394
tp1395
Rp1396
sg12
S'Kantkornet snoe over skarelag'
p1397
sg14
Nsg15
Nsg16
Nsg17
g18
sg19
Nsg20
S'Observasjon'
p1398
sg22
(dp1399
sg24
S'Fjordane'
p1400
sg26
Nsg28
I75875
sg29
I18
sg30
S'JOELSTER'
p1401
sg32
Nsg33
VPMBakke
p1402
sg35
S'http://www.regobs.no/Registration/75875'
p1403
sg37
S'Kantkornet over skaren'
p1404
sg39
I0
sba(igetproblems
AvalancheProblem
p1405
(dp1406
g4
I121
sg5
S'Noen bratte heng'
p1407
sg6
S'Toerre flakskred'
p1408
sg7
g8
(S'\x07\xe0\x01\x12'
p1409
tp1410
Rp1411
sg12
S'Nedsnoedd eller nedfoeyket overflaterim'
p1412
sg14
g528
sg15
Nsg16
S'Mulig'
p1413
sg17
g50
sg19
S'Liten tilleggsbelastning'
p1414
sg20
S'Varsel'
p1415
sg22
(dp1416
sg24
S'Fjordane'
p1417
sg26
S'3 - Middels'
p1418
sg28
Nsg29
I11
sg30
Nsg32
Nsg33
Nsg35
S'http://www.varsom.no/Snoskred/Fjordane/?date=18.01.2016'
p1419
sg37
S'Lag med overflaterim'
p1420
sg39
I0
sba(igetproblems
AvalancheProblem
p1421
(dp1422
g4
I121
sg5
S'Noen bratte heng'
p1423
sg6
S'Toerre flakskred'
p1424
sg7
g8
(S'\x07\xe0\x01\x12'
p1425
tp1426
Rp1427
sg12
S'Daarlig binding mellom lag i fokksnoeen'
p1428
sg14
g48
sg15
Nsg16
S'Mulig'
p1429
sg17
g50
sg19
S'Liten tilleggsbelastning'
p1430
sg20
S'Varsel'
p1431
sg22
(dp1432
sg24
S'Fjordane'
p1433
sg26
S'2 - Smaa'
p1434
sg28
Nsg29
I15
sg30
Nsg32
Nsg33
Nsg35
S'http://www.varsom.no/Snoskred/Fjordane/?date=18.01.2016'
p1435
sg37
S'I fokksnoeen'
p1436
sg39
I1
sba(igetproblems
AvalancheProblem
p1437
(dp1438
g4
I121
sg5
Nsg6
Nsg7
g8
(S'\x07\xe0\x01\x13'
p1439
tp1440
Rp1441
sg12
S'Nedfoeyket svakt lag med nysnoe'
p1442
sg14
Nsg15
Nsg16
Nsg17
g18
sg19
Nsg20
S'Observasjon'
p1443
sg22
(dp1444
sg24
S'Fjordane'
p1445
sg26
S'2 - Smaa'
p1446
sg28
I76107
sg29
I10
sg30
S'JOELSTER'
p1447
sg32
Nsg33
Vbrit-siv@obskorps
p1448
sg35
S'http://www.regobs.no/Registration/76107'
p1449
sg37
S'Lag med loes nysnoe'
p1450
sg39
I0
sba(igetproblems
AvalancheProblem
p1451
(dp1452
g4
I121
sg5
S'Noen bratte heng'
p1453
sg6
S'Toerre flakskred'
p1454
sg7
g8
(S'\x07\xe0\x01\x13'
p1455
tp1456
Rp1457
sg12
S'Nedsnoedd eller nedfoeyket overflaterim'
p1458
sg14
g528
sg15
Nsg16
S'Mulig'
p1459
sg17
g50
sg19
S'Liten tilleggsbelastning'
p1460
sg20
S'Varsel'
p1461
sg22
(dp1462
sg24
S'Fjordane'
p1463
sg26
S'3 - Middels'
p1464
sg28
Nsg29
I11
sg30
Nsg32
Nsg33
Nsg35
S'http://www.varsom.no/Snoskred/Fjordane/?date=19.01.2016'
p1465
sg37
S'Lag med overflaterim'
p1466
sg39
I0
sba(igetproblems
AvalancheProblem
p1467
(dp1468
g4
I121
sg5
S'Noen bratte heng'
p1469
sg6
S'Toerre flakskred'
p1470
sg7
g8
(S'\x07\xe0\x01\x13'
p1471
tp1472
Rp1473
sg12
S'Daarlig binding mellom lag i fokksnoeen'
p1474
sg14
g48
sg15
Nsg16
S'Mulig'
p1475
sg17
g50
sg19
S'Liten tilleggsbelastning'
p1476
sg20
S'Varsel'
p1477
sg22
(dp1478
sg24
S'Fjordane'
p1479
sg26
S'2 - Smaa'
p1480
sg28
Nsg29
I15
sg30
Nsg32
Nsg33
Nsg35
S'http://www.varsom.no/Snoskred/Fjordane/?date=19.01.2016'
p1481
sg37
S'I fokksnoeen'
p1482
sg39
I1
sba(igetproblems
AvalancheProblem
p1483
(dp1484
g4
I121
sg5
Nsg6
Nsg7
g8
(S'\x07\xe0\x01\x14'
p1485
tp1486
Rp1487
sg12
S'Nedfoeyket svakt lag med nysnoe'
p1488
sg14
Nsg15
Nsg16
Nsg17
g18
sg19
Nsg20
S'Observasjon'
p1489
sg22
(dp1490
sg24
S'Fjordane'
p1491
sg26
S'2 - Smaa'
p1492
sg28
I76227
sg29
I10
sg30
S'JOELSTER'
p1493
sg32
Nsg33
VLars-Ove@nordfjordfhs
p1494
sg35
S'http://www.regobs.no/Registration/76227'
p1495
sg37
S'Lag med loes nysnoe'
p1496
sg39
I0
sba(igetproblems
AvalancheProblem
p1497
(dp1498
g4
I121
sg5
S'Noen bratte heng'
p1499
sg6
S'Toerre flakskred'
p1500
sg7
g8
(S'\x07\xe0\x01\x14'
p1501
tp1502
Rp1503
sg12
S'Nedsnoedd eller nedfoeyket overflaterim'
p1504
sg14
g528
sg15
Nsg16
S'Mulig'
p1505
sg17
g50
sg19
S'Liten tilleggsbelastning'
p1506
sg20
S'Varsel'
p1507
sg22
(dp1508
sg24
S'Fjordane'
p1509
sg26
S'2 - Smaa'
p1510
sg28
Nsg29
I11
sg30
Nsg32
Nsg33
Nsg35
S'http://www.varsom.no/Snoskred/Fjordane/?date=20.01.2016'
p1511
sg37
S'Lag med overflaterim'
p1512
sg39
I0
sba(igetproblems
AvalancheProblem
p1513
(dp1514
g4
I121
sg5
S'Noen bratte heng'
p1515
sg6
S'Toerre flakskred'
p1516
sg7
g8
(S'\x07\xe0\x01\x14'
p1517
tp1518
Rp1519
sg12
S'Daarlig binding mellom lag i fokksnoeen'
p1520
sg14
g48
sg15
Nsg16
S'Mulig'
p1521
sg17
g50
sg19
S'Liten tilleggsbelastning'
p1522
sg20
S'Varsel'
p1523
sg22
(dp1524
sg24
S'Fjordane'
p1525
sg26
S'2 - Smaa'
p1526
sg28
Nsg29
I15
sg30
Nsg32
Nsg33
Nsg35
S'http://www.varsom.no/Snoskred/Fjordane/?date=20.01.2016'
p1527
sg37
S'I fokksnoeen'
p1528
sg39
I1
sba(igetproblems
AvalancheProblem
p1529
(dp1530
g4
I121
sg5
Nsg6
Nsg7
g8
(S'\x07\xe0\x01\x15'
p1531
tp1532
Rp1533
sg12
S'Nedfoeyket svakt lag med nysnoe'
p1534
sg14
Nsg15
Nsg16
Nsg17
g18
sg19
Nsg20
S'Observasjon'
p1535
sg22
(dp1536
sg24
S'Fjordane'
p1537
sg26
S'2 - Smaa'
p1538
sg28
I76531
sg29
I10
sg30
S'JOELSTER'
p1539
sg32
Nsg33
Vbrit-siv@obskorps
p1540
sg35
S'http://www.regobs.no/Registration/76531'
p1541
sg37
S'Lag med loes nysnoe'
p1542
sg39
I0
sba(igetproblems
AvalancheProblem
p1543
(dp1544
g4
I121
sg5
S'Isolerte faresoner'
p1545
sg6
S'Toerre flakskred'
p1546
sg7
g8
(S'\x07\xe0\x01\x15'
p1547
tp1548
Rp1549
sg12
S'Nedsnoedd eller nedfoeyket overflaterim'
p1550
sg14
g528
sg15
Nsg16
S'Lite sannsynlig'
p1551
sg17
g50
sg19
S'Stor tilleggsbelastning'
p1552
sg20
S'Varsel'
p1553
sg22
(dp1554
sg24
S'Fjordane'
p1555
sg26
S'2 - Smaa'
p1556
sg28
Nsg29
I11
sg30
Nsg32
Nsg33
Nsg35
S'http://www.varsom.no/Snoskred/Fjordane/?date=21.01.2016'
p1557
sg37
S'Lag med overflaterim'
p1558
sg39
I0
sba(igetproblems
AvalancheProblem
p1559
(dp1560
g4
I121
sg5
S'Noen bratte heng'
p1561
sg6
S'Toerre flakskred'
p1562
sg7
g8
(S'\x07\xe0\x01\x15'
p1563
tp1564
Rp1565
sg12
S'Nedfoeyket svakt lag med nysnoe'
p1566
sg14
g48
sg15
Nsg16
S'Mulig'
p1567
sg17
g50
sg19
S'Liten tilleggsbelastning'
p1568
sg20
S'Varsel'
p1569
sg22
(dp1570
sg24
S'Fjordane'
p1571
sg26
S'2 - Smaa'
p1572
sg28
Nsg29
I10
sg30
Nsg32
Nsg33
Nsg35
S'http://www.varsom.no/Snoskred/Fjordane/?date=21.01.2016'
p1573
sg37
S'Lag med loes nysnoe'
p1574
sg39
I1
sba(igetproblems
AvalancheProblem
p1575
(dp1576
g4
I121
sg5
Nsg6
Nsg7
g8
(S'\x07\xe0\x01\x16'
p1577
tp1578
Rp1579
sg12
S'Daarlig binding mellom lag i fokksnoeen'
p1580
sg14
Nsg15
Nsg16
Nsg17
g18
sg19
Nsg20
S'Observasjon'
p1581
sg22
(dp1582
sg24
S'Fjordane'
p1583
sg26
S'2 - Smaa'
p1584
sg28
I76639
sg29
I15
sg30
S'BALESTRAND'
p1585
sg32
Nsg33
VIngrid SVV
p1586
sg35
S'http://www.regobs.no/Registration/76639'
p1587
sg37
S'I fokksnoeen'
p1588
sg39
I0
sba(igetproblems
AvalancheProblem
p1589
(dp1590
g4
I121
sg5
S'Noen bratte heng'
p1591
sg6
S'Toerre flakskred'
p1592
sg7
g8
(S'\x07\xe0\x01\x16'
p1593
tp1594
Rp1595
sg12
S'Nedfoeyket svakt lag med nysnoe'
p1596
sg14
g48
sg15
Nsg16
S'Mulig'
p1597
sg17
g50
sg19
S'Liten tilleggsbelastning'
p1598
sg20
S'Varsel'
p1599
sg22
(dp1600
sg24
S'Fjordane'
p1601
sg26
S'3 - Middels'
p1602
sg28
Nsg29
I10
sg30
Nsg32
Nsg33
Nsg35
S'http://www.varsom.no/Snoskred/Fjordane/?date=22.01.2016'
p1603
sg37
S'Lag med loes nysnoe'
p1604
sg39
I0
sba(igetproblems
AvalancheProblem
p1605
(dp1606
g4
I121
sg5
S'Isolerte faresoner'
p1607
sg6
S'Toerre flakskred'
p1608
sg7
g8
(S'\x07\xe0\x01\x16'
p1609
tp1610
Rp1611
sg12
S'Nedsnoedd eller nedfoeyket overflaterim'
p1612
sg14
g528
sg15
Nsg16
S'Mulig'
p1613
sg17
g50
sg19
S'Liten tilleggsbelastning'
p1614
sg20
S'Varsel'
p1615
sg22
(dp1616
sg24
S'Fjordane'
p1617
sg26
S'3 - Middels'
p1618
sg28
Nsg29
I11
sg30
Nsg32
Nsg33
Nsg35
S'http://www.varsom.no/Snoskred/Fjordane/?date=22.01.2016'
p1619
sg37
S'Lag med overflaterim'
p1620
sg39
I1
sba(igetproblems
AvalancheProblem
p1621
(dp1622
g4
I121
sg5
S'Isolerte faresoner'
p1623
sg6
S'Toerre flakskred'
p1624
sg7
g8
(S'\x07\xe0\x01\x17'
p1625
tp1626
Rp1627
sg12
S'Nedsnoedd eller nedfoeyket overflaterim'
p1628
sg14
g528
sg15
Nsg16
S'Mulig'
p1629
sg17
g50
sg19
S'Naturlig utloest'
p1630
sg20
S'Varsel'
p1631
sg22
(dp1632
sg24
S'Fjordane'
p1633
sg26
S'3 - Middels'
p1634
sg28
Nsg29
I11
sg30
Nsg32
Nsg33
Nsg35
S'http://www.varsom.no/Snoskred/Fjordane/?date=23.01.2016'
p1635
sg37
S'Lag med overflaterim'
p1636
sg39
I0
sba(igetproblems
AvalancheProblem
p1637
(dp1638
g4
I121
sg5
S'Noen bratte heng'
p1639
sg6
S'Toerre flakskred'
p1640
sg7
g8
(S'\x07\xe0\x01\x17'
p1641
tp1642
Rp1643
sg12
S'Nedfoeyket svakt lag med nysnoe'
p1644
sg14
g48
sg15
Nsg16
S'Mulig'
p1645
sg17
g50
sg19
S'Liten tilleggsbelastning'
p1646
sg20
S'Varsel'
p1647
sg22
(dp1648
sg24
S'Fjordane'
p1649
sg26
S'3 - Middels'
p1650
sg28
Nsg29
I10
sg30
Nsg32
Nsg33
Nsg35
S'http://www.varsom.no/Snoskred/Fjordane/?date=23.01.2016'
p1651
sg37
S'Lag med loes nysnoe'
p1652
sg39
I1
sba(igetproblems
AvalancheProblem
p1653
(dp1654
g4
I121
sg5
S'Noen bratte heng'
p1655
sg6
S'Vaate loessnoeskred'
p1656
sg7
g8
(S'\x07\xe0\x01\x17'
p1657
tp1658
Rp1659
sg12
S'Ubunden snoe'
p1660
sg14
g66
sg15
Nsg16
S'Mulig'
p1661
sg17
g50
sg19
S'Naturlig utloest'
p1662
sg20
S'Varsel'
p1663
sg22
(dp1664
sg24
S'Fjordane'
p1665
sg26
S'2 - Smaa'
p1666
sg28
Nsg29
I24
sg30
Nsg32
Nsg33
Nsg35
S'http://www.varsom.no/Snoskred/Fjordane/?date=23.01.2016'
p1667
sg37
S'Ubunden snoe'
p1668
sg39
I2
sba(igetproblems
AvalancheProblem
p1669
(dp1670
g4
I121
sg5
Nsg6
Nsg7
g8
(S'\x07\xe0\x01\x18'
p1671
tp1672
Rp1673
sg12
S'Daarlig binding mellom lag i fokksnoeen'
p1674
sg14
Nsg15
Nsg16
Nsg17
g18
sg19
Nsg20
S'Observasjon'
p1675
sg22
(dp1676
sg24
S'Fjordane'
p1677
sg26
S'2 - Smaa'
p1678
sg28
I76945
sg29
I15
sg30
S'JOELSTER'
p1679
sg32
Nsg33
Vbrit-siv@obskorps
p1680
sg35
S'http://www.regobs.no/Registration/76945'
p1681
sg37
S'I fokksnoeen'
p1682
sg39
I0
sba(igetproblems
AvalancheProblem
p1683
(dp1684
g4
I121
sg5
Nsg6
Nsg7
g8
(S'\x07\xe0\x01\x18'
p1685
tp1686
Rp1687
sg12
S'Nedsnoedd eller nedfoeyket kantkornet snoe'
p1688
sg14
Nsg15
Nsg16
Nsg17
g18
sg19
Nsg20
S'Observasjon'
p1689
sg22
(dp1690
sg24
S'Fjordane'
p1691
sg26
S'2 - Smaa'
p1692
sg28
I76945
sg29
I13
sg30
S'JOELSTER'
p1693
sg32
Nsg33
Vbrit-siv@obskorps
p1694
sg35
S'http://www.regobs.no/Registration/76945'
p1695
sg37
S'Lag med kantkornet snoe'
p1696
sg39
I1
sba(igetproblems
AvalancheProblem
p1697
(dp1698
g4
I121
sg5
Nsg6
Nsg7
g8
(S'\x07\xe0\x01\x18'
p1699
tp1700
Rp1701
sg12
S'Ubunden snoe'
p1702
sg14
Nsg15
Nsg16
Nsg17
g18
sg19
Nsg20
S'Observasjon'
p1703
sg22
(dp1704
sg24
S'Fjordane'
p1705
sg26
S'2 - Smaa'
p1706
sg28
I76945
sg29
I24
sg30
S'JOELSTER'
p1707
sg32
Nsg33
Vbrit-siv@obskorps
p1708
sg35
S'http://www.regobs.no/Registration/76945'
p1709
sg37
S'Ubunden snoe'
p1710
sg39
I2
sba(igetproblems
AvalancheProblem
p1711
(dp1712
g4
I121
sg5
S'Noen bratte heng'
p1713
sg6
S'Toerre flakskred'
p1714
sg7
g8
(S'\x07\xe0\x01\x18'
p1715
tp1716
Rp1717
sg12
S'Nedfoeyket svakt lag med nysnoe'
p1718
sg14
g48
sg15
Nsg16
S'Mulig'
p1719
sg17
g50
sg19
S'Liten tilleggsbelastning'
p1720
sg20
S'Varsel'
p1721
sg22
(dp1722
sg24
S'Fjordane'
p1723
sg26
S'2 - Smaa'
p1724
sg28
Nsg29
I10
sg30
Nsg32
Nsg33
Nsg35
S'http://www.varsom.no/Snoskred/Fjordane/?date=24.01.2016'
p1725
sg37
S'Lag med loes nysnoe'
p1726
sg39
I0
sba(igetproblems
AvalancheProblem
p1727
(dp1728
g4
I121
sg5
S'Isolerte faresoner'
p1729
sg6
S'Toerre flakskred'
p1730
sg7
g8
(S'\x07\xe0\x01\x18'
p1731
tp1732
Rp1733
sg12
S'Nedsnoedd eller nedfoeyket overflaterim'
p1734
sg14
g528
sg15
Nsg16
S'Mulig'
p1735
sg17
g50
sg19
S'Naturlig utloest'
p1736
sg20
S'Varsel'
p1737
sg22
(dp1738
sg24
S'Fjordane'
p1739
sg26
S'3 - Middels'
p1740
sg28
Nsg29
I11
sg30
Nsg32
Nsg33
Nsg35
S'http://www.varsom.no/Snoskred/Fjordane/?date=24.01.2016'
p1741
sg37
S'Lag med overflaterim'
p1742
sg39
I1
sba(igetproblems
AvalancheProblem
p1743
(dp1744
g4
I121
sg5
S'Mange bratte heng'
p1745
sg6
S'Vaate loessnoeskred'
p1746
sg7
g8
(S'\x07\xe0\x01\x18'
p1747
tp1748
Rp1749
sg12
S'Ubunden snoe'
p1750
sg14
g66
sg15
Nsg16
S'Mulig'
p1751
sg17
g50
sg19
S'Naturlig utloest'
p1752
sg20
S'Varsel'
p1753
sg22
(dp1754
sg24
S'Fjordane'
p1755
sg26
S'2 - Smaa'
p1756
sg28
Nsg29
I24
sg30
Nsg32
Nsg33
Nsg35
S'http://www.varsom.no/Snoskred/Fjordane/?date=24.01.2016'
p1757
sg37
S'Ubunden snoe'
p1758
sg39
I2
sba(igetproblems
AvalancheProblem
p1759
(dp1760
g4
I121
sg5
S'Noen bratte heng'
p1761
sg6
S'Vaate flakskred'
p1762
sg7
g8
(S'\x07\xe0\x01\x19'
p1763
tp1764
Rp1765
sg12
S'Nedsnoedd eller nedfoeyket kantkornet snoe'
p1766
sg14
g528
sg15
Nsg16
S'Mulig'
p1767
sg17
g50
sg19
S'Naturlig utloest'
p1768
sg20
S'Varsel'
p1769
sg22
(dp1770
sg24
S'Fjordane'
p1771
sg26
S'3 - Middels'
p1772
sg28
Nsg29
I13
sg30
Nsg32
Nsg33
Nsg35
S'http://www.varsom.no/Snoskred/Fjordane/?date=25.01.2016'
p1773
sg37
S'Lag med kantkornet snoe'
p1774
sg39
I0
sba(igetproblems
AvalancheProblem
p1775
(dp1776
g4
I121
sg5
S'Noen bratte heng'
p1777
sg6
S'Toerre flakskred'
p1778
sg7
g8
(S'\x07\xe0\x01\x19'
p1779
tp1780
Rp1781
sg12
S'Nedsnoedd eller nedfoeyket overflaterim'
p1782
sg14
g528
sg15
Nsg16
S'Mulig'
p1783
sg17
g50
sg19
S'Naturlig utloest'
p1784
sg20
S'Varsel'
p1785
sg22
(dp1786
sg24
S'Fjordane'
p1787
sg26
S'3 - Middels'
p1788
sg28
Nsg29
I11
sg30
Nsg32
Nsg33
Nsg35
S'http://www.varsom.no/Snoskred/Fjordane/?date=25.01.2016'
p1789
sg37
S'Lag med overflaterim'
p1790
sg39
I2
sba(igetproblems
AvalancheProblem
p1791
(dp1792
g4
I121
sg5
Nsg6
Nsg7
g8
(S'\x07\xe0\x01\x1a'
p1793
tp1794
Rp1795
sg12
S'Nedfoeyket svakt lag med nysnoe'
p1796
sg14
Nsg15
Nsg16
Nsg17
g18
sg19
Nsg20
S'Observasjon'
p1797
sg22
(dp1798
sg24
S'Fjordane'
p1799
sg26
S'3 - Middels'
p1800
sg28
I77290
sg29
I10
sg30
S'JOELSTER'
p1801
sg32
Nsg33
Vbrit-siv@obskorps
p1802
sg35
S'http://www.regobs.no/Registration/77290'
p1803
sg37
S'Lag med loes nysnoe'
p1804
sg39
I0
sba(igetproblems
AvalancheProblem
p1805
(dp1806
g4
I121
sg5
S'Isolerte faresoner'
p1807
sg6
S'Vaate flakskred'
p1808
sg7
g8
(S'\x07\xe0\x01\x1a'
p1809
tp1810
Rp1811
sg12
S'Nedsnoedd eller nedfoeyket kantkornet snoe'
p1812
sg14
g528
sg15
Nsg16
S'Lite sannsynlig'
p1813
sg17
g50
sg19
S'Naturlig utloest'
p1814
sg20
S'Varsel'
p1815
sg22
(dp1816
sg24
S'Fjordane'
p1817
sg26
S'3 - Middels'
p1818
sg28
Nsg29
I13
sg30
Nsg32
Nsg33
Nsg35
S'http://www.varsom.no/Snoskred/Fjordane/?date=26.01.2016'
p1819
sg37
S'Lag med kantkornet snoe'
p1820
sg39
I0
sba(igetproblems
AvalancheProblem
p1821
(dp1822
g4
I121
sg5
S'Noen bratte heng'
p1823
sg6
S'Toerre flakskred'
p1824
sg7
g8
(S'\x07\xe0\x01\x1a'
p1825
tp1826
Rp1827
sg12
S'Nedfoeyket svakt lag med nysnoe'
p1828
sg14
g48
sg15
Nsg16
S'Mulig'
p1829
sg17
g50
sg19
S'Liten tilleggsbelastning'
p1830
sg20
S'Varsel'
p1831
sg22
(dp1832
sg24
S'Fjordane'
p1833
sg26
S'3 - Middels'
p1834
sg28
Nsg29
I10
sg30
Nsg32
Nsg33
Nsg35
S'http://www.varsom.no/Snoskred/Fjordane/?date=26.01.2016'
p1835
sg37
S'Lag med loes nysnoe'
p1836
sg39
I1
sba(igetproblems
AvalancheProblem
p1837
(dp1838
g4
I121
sg5
S'Noen bratte heng'
p1839
sg6
S'Vaate loessnoeskred'
p1840
sg7
g8
(S'\x07\xe0\x01\x1a'
p1841
tp1842
Rp1843
sg12
S'Ubunden snoe'
p1844
sg14
g66
sg15
Nsg16
S'Mulig'
p1845
sg17
g50
sg19
S'Naturlig utloest'
p1846
sg20
S'Varsel'
p1847
sg22
(dp1848
sg24
S'Fjordane'
p1849
sg26
S'2 - Smaa'
p1850
sg28
Nsg29
I24
sg30
Nsg32
Nsg33
Nsg35
S'http://www.varsom.no/Snoskred/Fjordane/?date=26.01.2016'
p1851
sg37
S'Ubunden snoe'
p1852
sg39
I2
sba(igetproblems
AvalancheProblem
p1853
(dp1854
g4
I121
sg5
S'Noen bratte heng'
p1855
sg6
S'Toerre flakskred'
p1856
sg7
g8
(S'\x07\xe0\x01\x1b'
p1857
tp1858
Rp1859
sg12
S'Nedfoeyket svakt lag med nysnoe'
p1860
sg14
g48
sg15
Nsg16
S'Mulig'
p1861
sg17
g50
sg19
S'Liten tilleggsbelastning'
p1862
sg20
S'Varsel'
p1863
sg22
(dp1864
sg24
S'Fjordane'
p1865
sg26
S'3 - Middels'
p1866
sg28
Nsg29
I10
sg30
Nsg32
Nsg33
Nsg35
S'http://www.varsom.no/Snoskred/Fjordane/?date=27.01.2016'
p1867
sg37
S'Lag med loes nysnoe'
p1868
sg39
I0
sba(igetproblems
AvalancheProblem
p1869
(dp1870
g4
I121
sg5
S'Noen bratte heng'
p1871
sg6
S'Vaate loessnoeskred'
p1872
sg7
g8
(S'\x07\xe0\x01\x1b'
p1873
tp1874
Rp1875
sg12
S'Ubunden snoe'
p1876
sg14
g66
sg15
Nsg16
S'Mulig'
p1877
sg17
g50
sg19
S'Naturlig utloest'
p1878
sg20
S'Varsel'
p1879
sg22
(dp1880
sg24
S'Fjordane'
p1881
sg26
S'2 - Smaa'
p1882
sg28
Nsg29
I24
sg30
Nsg32
Nsg33
Nsg35
S'http://www.varsom.no/Snoskred/Fjordane/?date=27.01.2016'
p1883
sg37
S'Ubunden snoe'
p1884
sg39
I1
sba(igetproblems
AvalancheProblem
p1885
(dp1886
g4
I121
sg5
Nsg6
Nsg7
g8
(S'\x07\xe0\x01\x1c'
p1887
tp1888
Rp1889
sg12
S'Nedfoeyket svakt lag med nysnoe'
p1890
sg14
Nsg15
Nsg16
Nsg17
g18
sg19
Nsg20
S'Observasjon'
p1891
sg22
(dp1892
sg24
S'Fjordane'
p1893
sg26
Nsg28
I77575
sg29
I10
sg30
S'BALESTRAND'
p1894
sg32
Nsg33
VSiljeM@Svv
p1895
sg35
S'http://www.regobs.no/Registration/77575'
p1896
sg37
S'Lag med loes nysnoe'
p1897
sg39
I0
sba(igetproblems
AvalancheProblem
p1898
(dp1899
g4
I121
sg5
Nsg6
Nsg7
g8
(S'\x07\xe0\x01\x1c'
p1900
tp1901
Rp1902
sg12
S'Nedfoeyket svakt lag med nysnoe'
p1903
sg14
Nsg15
Nsg16
Nsg17
g18
sg19
Nsg20
S'Observasjon'
p1904
sg22
(dp1905
sg24
S'Fjordane'
p1906
sg26
S'3 - Middels'
p1907
sg28
I77623
sg29
I10
sg30
S'JOELSTER'
p1908
sg32
Nsg33
Vbrit-siv@obskorps
p1909
sg35
S'http://www.regobs.no/Registration/77623'
p1910
sg37
S'Lag med loes nysnoe'
p1911
sg39
I0
sba(igetproblems
AvalancheProblem
p1912
(dp1913
g4
I121
sg5
S'Mange bratte heng'
p1914
sg6
S'Toerre flakskred'
p1915
sg7
g8
(S'\x07\xe0\x01\x1c'
p1916
tp1917
Rp1918
sg12
S'Nedfoeyket svakt lag med nysnoe'
p1919
sg14
g48
sg15
Nsg16
S'Mulig'
p1920
sg17
g50
sg19
S'Liten tilleggsbelastning'
p1921
sg20
S'Varsel'
p1922
sg22
(dp1923
sg24
S'Fjordane'
p1924
sg26
S'3 - Middels'
p1925
sg28
Nsg29
I10
sg30
Nsg32
Nsg33
Nsg35
S'http://www.varsom.no/Snoskred/Fjordane/?date=28.01.2016'
p1926
sg37
S'Lag med loes nysnoe'
p1927
sg39
I0
sba(igetproblems
AvalancheProblem
p1928
(dp1929
g4
I121
sg5
S'Noen bratte heng'
p1930
sg6
S'Toerre flakskred'
p1931
sg7
g8
(S'\x07\xe0\x01\x1d'
p1932
tp1933
Rp1934
sg12
S'Nedfoeyket svakt lag med nysnoe'
p1935
sg14
g48
sg15
Nsg16
S'Sannsynlig'
p1936
sg17
g50
sg19
S'Naturlig utloest'
p1937
sg20
S'Varsel'
p1938
sg22
(dp1939
sg24
S'Fjordane'
p1940
sg26
S'3 - Middels'
p1941
sg28
Nsg29
I10
sg30
Nsg32
Nsg33
Nsg35
S'http://www.varsom.no/Snoskred/Fjordane/?date=29.01.2016'
p1942
sg37
S'Lag med loes nysnoe'
p1943
sg39
I0
sba(igetproblems
AvalancheProblem
p1944
(dp1945
g4
I121
sg5
S'Noen bratte heng'
p1946
sg6
S'Vaate flakskred'
p1947
sg7
g8
(S'\x07\xe0\x01\x1d'
p1948
tp1949
Rp1950
sg12
S'Opphopning av vann i/over lag i snoedekket'
p1951
sg14
g157
sg15
Nsg16
S'Mulig'
p1952
sg17
g50
sg19
S'Naturlig utloest'
p1953
sg20
S'Varsel'
p1954
sg22
(dp1955
sg24
S'Fjordane'
p1956
sg26
S'3 - Middels'
p1957
sg28
Nsg29
I22
sg30
Nsg32
Nsg33
Nsg35
S'http://www.varsom.no/Snoskred/Fjordane/?date=29.01.2016'
p1958
sg37
S'Opphopning over skaren'
p1959
sg39
I1
sba(igetproblems
AvalancheProblem
p1960
(dp1961
g4
I121
sg5
S'Noen bratte heng'
p1962
sg6
S'Vaate flakskred'
p1963
sg7
g8
(S'\x07\xe0\x01\x1d'
p1964
tp1965
Rp1966
sg12
S'Nedsnoedd eller nedfoeyket overflaterim'
p1967
sg14
g528
sg15
Nsg16
S'Mulig'
p1968
sg17
g50
sg19
S'Naturlig utloest'
p1969
sg20
S'Varsel'
p1970
sg22
(dp1971
sg24
S'Fjordane'
p1972
sg26
S'3 - Middels'
p1973
sg28
Nsg29
I11
sg30
Nsg32
Nsg33
Nsg35
S'http://www.varsom.no/Snoskred/Fjordane/?date=29.01.2016'
p1974
sg37
S'Lag med overflaterim'
p1975
sg39
I2
sba(igetproblems
AvalancheProblem
p1976
(dp1977
g4
I121
sg5
Nsg6
Nsg7
g8
(S'\x07\xe0\x01\x1e'
p1978
tp1979
Rp1980
sg12
S'Nedfoeyket svakt lag med nysnoe'
p1981
sg14
Nsg15
Nsg16
Nsg17
g18
sg19
Nsg20
S'Observasjon'
p1982
sg22
(dp1983
sg24
S'Fjordane'
p1984
sg26
S'3 - Middels'
p1985
sg28
I77883
sg29
I10
sg30
S'JOELSTER'
p1986
sg32
Nsg33
Vbrit-siv@obskorps
p1987
sg35
S'http://www.regobs.no/Registration/77883'
p1988
sg37
S'Lag med loes nysnoe'
p1989
sg39
I0
sba(igetproblems
AvalancheProblem
p1990
(dp1991
g4
I121
sg5
S'Noen bratte heng'
p1992
sg6
S'Toerre flakskred'
p1993
sg7
g8
(S'\x07\xe0\x01\x1e'
p1994
tp1995
Rp1996
sg12
S'Nedfoeyket svakt lag med nysnoe'
p1997
sg14
g48
sg15
Nsg16
S'Sannsynlig'
p1998
sg17
g50
sg19
S'Naturlig utloest'
p1999
sg20
S'Varsel'
p2000
sg22
(dp2001
sg24
S'Fjordane'
p2002
sg26
S'3 - Middels'
p2003
sg28
Nsg29
I10
sg30
Nsg32
Nsg33
Nsg35
S'http://www.varsom.no/Snoskred/Fjordane/?date=30.01.2016'
p2004
sg37
S'Lag med loes nysnoe'
p2005
sg39
I0
sba(igetproblems
AvalancheProblem
p2006
(dp2007
g4
I121
sg5
S'Noen bratte heng'
p2008
sg6
S'Toerre flakskred'
p2009
sg7
g8
(S'\x07\xe0\x01\x1f'
p2010
tp2011
Rp2012
sg12
S'Nedfoeyket svakt lag med nysnoe'
p2013
sg14
g48
sg15
Nsg16
S'Mulig'
p2014
sg17
g50
sg19
S'Liten tilleggsbelastning'
p2015
sg20
S'Varsel'
p2016
sg22
(dp2017
sg24
S'Fjordane'
p2018
sg26
S'3 - Middels'
p2019
sg28
Nsg29
I10
sg30
Nsg32
Nsg33
Nsg35
S'http://www.varsom.no/Snoskred/Fjordane/?date=31.01.2016'
p2020
sg37
S'Lag med loes nysnoe'
p2021
sg39
I0
sba(igetproblems
AvalancheProblem
p2022
(dp2023
g4
I121
sg5
S'Noen bratte heng'
p2024
sg6
S'Toerre flakskred'
p2025
sg7
g8
(S'\x07\xe0\x01\x1f'
p2026
tp2027
Rp2028
sg12
S'Daarlig binding mellom lag i fokksnoeen'
p2029
sg14
g48
sg15
Nsg16
S'Mulig'
p2030
sg17
g50
sg19
S'Stor tilleggsbelastning'
p2031
sg20
S'Varsel'
p2032
sg22
(dp2033
sg24
S'Fjordane'
p2034
sg26
S'3 - Middels'
p2035
sg28
Nsg29
I15
sg30
Nsg32
Nsg33
Nsg35
S'http://www.varsom.no/Snoskred/Fjordane/?date=31.01.2016'
p2036
sg37
S'I fokksnoeen'
p2037
sg39
I1
sbaa(lp2038
(igetdangers
AvalancheDanger
p2039
(dp2040
S'main_message_no'
p2041
S'Ikke vurdert'
p2042
sS'main_message_en'
p2043
Nsg32
I0
sg24
S'Fjordane'
p2044
sg20
S'Varsel'
p2045
sS'avalanche_problems'
p2046
(lp2047
sS'nick'
p2048
NsS'region_regobs_id'
p2049
I121
sg7
g8
(S'\x07\xdf\x0b\x0f'
p2050
tp2051
Rp2052
sg15
Nsg22
(dp2053
S'Original norwegian main message'
p2054
VIkke vurdert
p2055
ssS'data_table'
p2056
S'Forecast API'
p2057
sba(igetdangers
AvalancheDanger
p2058
(dp2059
g2041
S'Ikke vurdert'
p2060
sg2043
Nsg32
I0
sg24
S'Fjordane'
p2061
sg20
g2045
sg2046
(lp2062
sg2048
Nsg2049
I121
sg7
g8
(S'\x07\xdf\x0b\x10'
p2063
tp2064
Rp2065
sg15
Nsg22
(dp2066
g2054
VIkke vurdert
p2067
ssg2056
S'Forecast API'
p2068
sba(igetdangers
AvalancheDanger
p2069
(dp2070
g2041
S'Ikke vurdert'
p2071
sg2043
Nsg32
I0
sg24
S'Fjordane'
p2072
sg20
g2045
sg2046
(lp2073
sg2048
Nsg2049
I121
sg7
g8
(S'\x07\xdf\x0b\x11'
p2074
tp2075
Rp2076
sg15
Nsg22
(dp2077
g2054
VIkke vurdert
p2078
ssg2056
S'Forecast API'
p2079
sba(igetdangers
AvalancheDanger
p2080
(dp2081
g2041
S'Ikke vurdert'
p2082
sg2043
Nsg32
I0
sg24
S'Fjordane'
p2083
sg20
g2045
sg2046
(lp2084
sg2048
Nsg2049
I121
sg7
g8
(S'\x07\xdf\x0b\x12'
p2085
tp2086
Rp2087
sg15
Nsg22
(dp2088
g2054
VIkke vurdert
p2089
ssg2056
S'Forecast API'
p2090
sba(igetdangers
AvalancheDanger
p2091
(dp2092
g2041
S'Ikke vurdert'
p2093
sg2043
Nsg32
I0
sg24
S'Fjordane'
p2094
sg20
g2045
sg2046
(lp2095
sg2048
Nsg2049
I121
sg7
g8
(S'\x07\xdf\x0b\x13'
p2096
tp2097
Rp2098
sg15
Nsg22
(dp2099
g2054
VIkke vurdert
p2100
ssg2056
S'Forecast API'
p2101
sba(igetdangers
AvalancheDanger
p2102
(dp2103
g2041
S'Ikke vurdert'
p2104
sg2043
Nsg32
I0
sg24
S'Fjordane'
p2105
sg20
g2045
sg2046
(lp2106
sg2048
Nsg2049
I121
sg7
g8
(S'\x07\xdf\x0b\x14'
p2107
tp2108
Rp2109
sg15
Nsg22
(dp2110
g2054
VIkke vurdert
p2111
ssg2056
S'Forecast API'
p2112
sba(igetdangers
AvalancheDanger
p2113
(dp2114
g2041
S'Ikke vurdert'
p2115
sg2043
Nsg32
I0
sg24
S'Fjordane'
p2116
sg20
g2045
sg2046
(lp2117
sg2048
Nsg2049
I121
sg7
g8
(S'\x07\xdf\x0b\x15'
p2118
tp2119
Rp2120
sg15
Nsg22
(dp2121
g2054
VIkke vurdert
p2122
ssg2056
S'Forecast API'
p2123
sba(igetdangers
AvalancheDanger
p2124
(dp2125
g2041
S'Ikke vurdert'
p2126
sg2043
Nsg32
I0
sg24
S'Fjordane'
p2127
sg20
g2045
sg2046
(lp2128
sg2048
Nsg2049
I121
sg7
g8
(S'\x07\xdf\x0b\x16'
p2129
tp2130
Rp2131
sg15
Nsg22
(dp2132
g2054
VIkke vurdert
p2133
ssg2056
S'Forecast API'
p2134
sba(igetdangers
AvalancheDanger
p2135
(dp2136
g2041
S'Ikke vurdert'
p2137
sg2043
Nsg32
I0
sg24
S'Fjordane'
p2138
sg20
g2045
sg2046
(lp2139
sg2048
Nsg2049
I121
sg7
g8
(S'\x07\xdf\x0b\x17'
p2140
tp2141
Rp2142
sg15
Nsg22
(dp2143
g2054
VIkke vurdert
p2144
ssg2056
S'Forecast API'
p2145
sba(igetdangers
AvalancheDanger
p2146
(dp2147
g2041
S'Ikke vurdert'
p2148
sg2043
Nsg32
I0
sg24
S'Fjordane'
p2149
sg20
g2045
sg2046
(lp2150
sg2048
Nsg2049
I121
sg7
g8
(S'\x07\xdf\x0b\x18'
p2151
tp2152
Rp2153
sg15
Nsg22
(dp2154
g2054
VIkke vurdert
p2155
ssg2056
S'Forecast API'
p2156
sba(igetdangers
AvalancheDanger
p2157
(dp2158
g2041
S'Ikke vurdert'
p2159
sg2043
Nsg32
I0
sg24
S'Fjordane'
p2160
sg20
g2045
sg2046
(lp2161
sg2048
Nsg2049
I121
sg7
g8
(S'\x07\xdf\x0b\x19'
p2162
tp2163
Rp2164
sg15
Nsg22
(dp2165
g2054
VIkke vurdert
p2166
ssg2056
S'Forecast API'
p2167
sba(igetdangers
AvalancheDanger
p2168
(dp2169
g2041
S'Ikke vurdert'
p2170
sg2043
Nsg32
I0
sg24
S'Fjordane'
p2171
sg20
g2045
sg2046
(lp2172
sg2048
Nsg2049
I121
sg7
g8
(S'\x07\xdf\x0b\x1a'
p2173
tp2174
Rp2175
sg15
Nsg22
(dp2176
g2054
VIkke vurdert
p2177
ssg2056
S'Forecast API'
p2178
sba(igetdangers
AvalancheDanger
p2179
(dp2180
g2041
S'Ikke vurdert'
p2181
sg2043
Nsg32
I0
sg24
S'Fjordane'
p2182
sg20
g2045
sg2046
(lp2183
sg2048
Nsg2049
I121
sg7
g8
(S'\x07\xdf\x0b\x1b'
p2184
tp2185
Rp2186
sg15
Nsg22
(dp2187
g2054
VIkke vurdert
p2188
ssg2056
S'Forecast API'
p2189
sba(igetdangers
AvalancheDanger
p2190
(dp2191
g2041
S'Ikke vurdert'
p2192
sg2043
Nsg32
I0
sg24
S'Fjordane'
p2193
sg20
g2045
sg2046
(lp2194
sg2048
Nsg2049
I121
sg7
g8
(S'\x07\xdf\x0b\x1c'
p2195
tp2196
Rp2197
sg15
Nsg22
(dp2198
g2054
VIkke vurdert
p2199
ssg2056
S'Forecast API'
p2200
sba(igetdangers
AvalancheDanger
p2201
(dp2202
g2041
Nsg2043
Nsg32
I2
sg24
S'Fjordane'
p2203
sg20
S'Observasjon'
p2204
sg2046
(lp2205
sg2048
Vbrit-siv@obskorps
p2206
sg2049
I121
sg7
g8
(S'\x07\xdf\x0b\x1c'
p2207
tp2208
Rp2209
sg15
S'2 Moderat'
p2210
sg22
(dp2211
S'Original datetime'
p2212
cdatetime
datetime
p2213
(S'\x07\xdf\x0b\x1c\x11#-\x00\x00\x00'
p2214
tp2215
Rp2216
ssg2056
S'AvalancheEvaluation3V'
p2217
sba(igetdangers
AvalancheDanger
p2218
(dp2219
g2041
S'Ikke vurdert'
p2220
sg2043
Nsg32
I0
sg24
S'Fjordane'
p2221
sg20
g2045
sg2046
(lp2222
sg2048
Nsg2049
I121
sg7
g8
(S'\x07\xdf\x0b\x1d'
p2223
tp2224
Rp2225
sg15
Nsg22
(dp2226
g2054
VIkke vurdert
p2227
ssg2056
S'Forecast API'
p2228
sba(igetdangers
AvalancheDanger
p2229
(dp2230
g2041
S'Ikke vurdert'
p2231
sg2043
Nsg32
I0
sg24
S'Fjordane'
p2232
sg20
g2045
sg2046
(lp2233
sg2048
Nsg2049
I121
sg7
g8
(S'\x07\xdf\x0b\x1e'
p2234
tp2235
Rp2236
sg15
Nsg22
(dp2237
g2054
VIkke vurdert
p2238
ssg2056
S'Forecast API'
p2239
sba(igetdangers
AvalancheDanger
p2240
(dp2241
g2041
S'Ikke vurdert'
p2242
sg2043
Nsg32
I0
sg24
S'Fjordane'
p2243
sg20
g2045
sg2046
(lp2244
sg2048
Nsg2049
I121
sg7
g8
(S'\x07\xdf\x0c\x01'
p2245
tp2246
Rp2247
sg15
Nsg22
(dp2248
g2054
VIkke vurdert
p2249
ssg2056
S'Forecast API'
p2250
sba(igetdangers
AvalancheDanger
p2251
(dp2252
g2041
S'I hoeyden er nysnoeflak i leomraader problemet. I lavlandet kan det gaa vaate skred i bratt terreng.'
p2253
sg2043
Nsg32
I3
sg24
S'Fjordane'
p2254
sg20
g2045
sg2046
(lp2255
sg2048
Nsg2049
I121
sg7
g8
(S'\x07\xdf\x0c\x02'
p2256
tp2257
Rp2258
sg15
S'3 Betydelig'
p2259
sg22
(dp2260
g2054
VI hyden er nysnflak i leomrder problemet. I lavlandet kan det g vte skred i bratt terreng.
p2261
ssg2056
S'Forecast API'
p2262
sba(igetdangers
AvalancheDanger
p2263
(dp2264
g2041
S'Ustabile forhold. Stedvis kan en enkelt skikjoerer loese ut skred der det har lagt seg opp ferske nysnoeflak. Det er stor variasjon i forholdene pga bygevaer.'
p2265
sg2043
Nsg32
I3
sg24
S'Fjordane'
p2266
sg20
g2045
sg2046
(lp2267
sg2048
Nsg2049
I121
sg7
g8
(S'\x07\xdf\x0c\x03'
p2268
tp2269
Rp2270
sg15
S'3 Betydelig'
p2271
sg22
(dp2272
g2054
VUstabile forhold. Stedvis kan en enkelt skikjrer lse ut skred der det har lagt seg opp ferske nysnflak. Det er stor variasjon i forholdene pga bygevr.
p2273
ssg2056
S'Forecast API'
p2274
sba(igetdangers
AvalancheDanger
p2275
(dp2276
g2041
Nsg2043
Nsg32
I3
sg24
S'Fjordane'
p2277
sg20
g2204
sg2046
(lp2278
sg2048
Vbrit-siv@obskorps
p2279
sg2049
I121
sg7
g8
(S'\x07\xdf\x0c\x03'
p2280
tp2281
Rp2282
sg15
S'3 Betydelig'
p2283
sg22
(dp2284
g2212
g2213
(S'\x07\xdf\x0c\x03\x0c\x1f&\x00\x00\x00'
p2285
tp2286
Rp2287
ssg2056
S'AvalancheEvaluation3V'
p2288
sba(igetdangers
AvalancheDanger
p2289
(dp2290
g2041
S'Lokalt ustabile forhold. Vaer forsiktig der det ligger fersk fokksnoe i hoeyden. OEkende skredfare natt til loerdag.'
p2291
sg2043
Nsg32
I2
sg24
S'Fjordane'
p2292
sg20
g2045
sg2046
(lp2293
sg2048
Nsg2049
I121
sg7
g8
(S'\x07\xdf\x0c\x04'
p2294
tp2295
Rp2296
sg15
S'2 Moderat'
p2297
sg22
(dp2298
g2054
VLokalt ustabile forhold. Vr forsiktig der det ligger fersk fokksn i hyden. kende skredfare natt til lrdag.
p2299
ssg2056
S'Forecast API'
p2300
sba(igetdangers
AvalancheDanger
p2301
(dp2302
g2041
Nsg2043
Nsg32
I2
sg24
S'Fjordane'
p2303
sg20
g2204
sg2046
(lp2304
sg2048
VBodil@SVV
p2305
sg2049
I121
sg7
g8
(S'\x07\xdf\x0c\x04'
p2306
tp2307
Rp2308
sg15
S'2 Moderat'
p2309
sg22
(dp2310
g2212
g2213
(S'\x07\xdf\x0c\x04\x0e\x01(\x00\x00\x00'
p2311
tp2312
Rp2313
ssg2056
S'AvalancheEvaluation3V'
p2314
sba(igetdangers
AvalancheDanger
p2315
(dp2316
g2041
Nsg2043
Nsg32
I0
sg24
S'Fjordane'
p2317
sg20
g2204
sg2046
(lp2318
sg2048
Vdrift@svv
p2319
sg2049
I121
sg7
g8
(S'\x07\xdf\x0c\x04'
p2320
tp2321
Rp2322
sg15
S'0 Ikke vurdert'
p2323
sg22
(dp2324
g2212
g2213
(S'\x07\xdf\x0c\x04\x0e2\x00\x00\x00\x00'
p2325
tp2326
Rp2327
ssg2056
S'AvalancheEvaluation3V'
p2328
sba(igetdangers
AvalancheDanger
p2329
(dp2330
g2041
S'Faren oeker naar regnet kommer. Unngaa potensielle loesneomraader og utloepsomraader for skred. Hoeyere til fjells vil det legge seg opp ustabile nysnoeflak i leomraader.'
p2331
sg2043
Nsg32
I4
sg24
S'Fjordane'
p2332
sg20
g2045
sg2046
(lp2333
sg2048
Nsg2049
I121
sg7
g8
(S'\x07\xdf\x0c\x05'
p2334
tp2335
Rp2336
sg15
S'4 Stor'
p2337
sg22
(dp2338
g2054
VFaren ker nr regnet kommer. Unng potensielle lsneomrder og utlpsomrder for skred. Hyere til fjells vil det legge seg opp ustabile nysnflak i leomrder.
p2339
ssg2056
S'Forecast API'
p2340
sba(igetdangers
AvalancheDanger
p2341
(dp2342
g2041
Nsg2043
Nsg32
I4
sg24
S'Fjordane'
p2343
sg20
g2204
sg2046
(lp2344
sg2048
Vdrift@svv
p2345
sg2049
I121
sg7
g8
(S'\x07\xdf\x0c\x05'
p2346
tp2347
Rp2348
sg15
S'4 Stor'
p2349
sg22
(dp2350
g2212
g2213
(S'\x07\xdf\x0c\x05\n\x07\x00\x00\x00\x00'
p2351
tp2352
Rp2353
ssg2056
S'AvalancheEvaluation3V'
p2354
sba(igetdangers
AvalancheDanger
p2355
(dp2356
g2041
S'Lokale forskjeller. Stoerst fare i indre og soerlige deler. Unngaa terrengfeller og store bratte heng til nysnoeen har stabilisert seg. Naturlig utloeste skred mulig'
p2357
sg2043
Nsg32
I3
sg24
S'Fjordane'
p2358
sg20
g2045
sg2046
(lp2359
sg2048
Nsg2049
I121
sg7
g8
(S'\x07\xdf\x0c\x06'
p2360
tp2361
Rp2362
sg15
S'3 Betydelig'
p2363
sg22
(dp2364
g2054
VLokale forskjeller. Strst fare i indre og srlige deler. Unng terrengfeller og store bratte heng til nysnen har stabilisert seg. Naturlig utlste skred mulig
p2365
ssg2056
S'Forecast API'
p2366
sba(igetdangers
AvalancheDanger
p2367
(dp2368
g2041
Nsg2043
Nsg32
I3
sg24
S'Fjordane'
p2369
sg20
g2204
sg2046
(lp2370
sg2048
Vbrit-siv@obskorps
p2371
sg2049
I121
sg7
g8
(S'\x07\xdf\x0c\x06'
p2372
tp2373
Rp2374
sg15
S'3 Betydelig'
p2375
sg22
(dp2376
g2212
g2213
(S'\x07\xdf\x0c\x06\x10\x0b4\x00\x00\x00'
p2377
tp2378
Rp2379
ssg2056
S'AvalancheEvaluation3V'
p2380
sba(igetdangers
AvalancheDanger
p2381
(dp2382
g2041
Nsg2043
Nsg32
I3
sg24
S'Fjordane'
p2383
sg20
g2204
sg2046
(lp2384
sg2048
VJanR@ObsKorps
p2385
sg2049
I121
sg7
g8
(S'\x07\xdf\x0c\x06'
p2386
tp2387
Rp2388
sg15
S'3 Betydelig'
p2389
sg22
(dp2390
g2212
g2213
(S'\x07\xdf\x0c\x06\x11(.\x00\x00\x00'
p2391
tp2392
Rp2393
ssg2056
S'AvalancheEvaluation3V'
p2394
sba(igetdangers
AvalancheDanger
p2395
(dp2396
g2041
S'Unngaa terrengfeller og store bratte heng til den ferske fokksnoeen har stabilisert seg.'
p2397
sg2043
Nsg32
I3
sg24
S'Fjordane'
p2398
sg20
g2045
sg2046
(lp2399
sg2048
Nsg2049
I121
sg7
g8
(S'\x07\xdf\x0c\x07'
p2400
tp2401
Rp2402
sg15
S'3 Betydelig'
p2403
sg22
(dp2404
g2054
VUnng terrengfeller og store bratte heng til den ferske fokksnen har stabilisert seg.
p2405
ssg2056
S'Forecast API'
p2406
sba(igetdangers
AvalancheDanger
p2407
(dp2408
g2041
S'Ny runde med regn og mildvaer gjoer snoeen ustabil, naturlig utloeste skred kan forekomme.'
p2409
sg2043
Nsg32
I3
sg24
S'Fjordane'
p2410
sg20
g2045
sg2046
(lp2411
sg2048
Nsg2049
I121
sg7
g8
(S'\x07\xdf\x0c\x08'
p2412
tp2413
Rp2414
sg15
S'3 Betydelig'
p2415
sg22
(dp2416
g2054
VNy runde med regn og mildvr gjr snen ustabil, naturlig utlste skred kan forekomme.
p2417
ssg2056
S'Forecast API'
p2418
sba(igetdangers
AvalancheDanger
p2419
(dp2420
g2041
S'Krevende forhold. I hoeyden er nysnoeflak i leomraader problemet. Under nysnoegrensa der det regner paa nysnoe ventes smaa vaate loessnoeskred.'
p2421
sg2043
Nsg32
I3
sg24
S'Fjordane'
p2422
sg20
g2045
sg2046
(lp2423
sg2048
Nsg2049
I121
sg7
g8
(S'\x07\xdf\x0c\t'
p2424
tp2425
Rp2426
sg15
S'3 Betydelig'
p2427
sg22
(dp2428
g2054
VKrevende forhold. I hyden er nysnflak i leomrder problemet. Under nysngrensa der det regner p nysn ventes sm vte lssnskred.
p2429
ssg2056
S'Forecast API'
p2430
sba(igetdangers
AvalancheDanger
p2431
(dp2432
g2041
Nsg2043
Nsg32
I2
sg24
S'Fjordane'
p2433
sg20
g2204
sg2046
(lp2434
sg2048
Vbrit-siv@obskorps
p2435
sg2049
I121
sg7
g8
(S'\x07\xdf\x0c\t'
p2436
tp2437
Rp2438
sg15
S'2 Moderat'
p2439
sg22
(dp2440
g2212
g2213
(S'\x07\xdf\x0c\t\x12\x14\x04\x00\x00\x00'
p2441
tp2442
Rp2443
ssg2056
S'AvalancheEvaluation3V'
p2444
sba(igetdangers
AvalancheDanger
p2445
(dp2446
g2041
S'Krevende forhold med mye nedboer. Unngaa bratt terreng i hoeyden. I lavlandet kan det gaa enkelte naturlig utloeste vaate skred.'
p2447
sg2043
Nsg32
I3
sg24
S'Fjordane'
p2448
sg20
g2045
sg2046
(lp2449
sg2048
Nsg2049
I121
sg7
g8
(S'\x07\xdf\x0c\n'
p2450
tp2451
Rp2452
sg15
S'3 Betydelig'
p2453
sg22
(dp2454
g2054
VKrevende forhold med mye nedbr. Unng bratt terreng i hyden. I lavlandet kan det g enkelte naturlig utlste vte skred.
p2455
ssg2056
S'Forecast API'
p2456
sba(igetdangers
AvalancheDanger
p2457
(dp2458
g2041
S'Krevende forhold. Unngaa bratt terreng i hoeyden.'
p2459
sg2043
Nsg32
I3
sg24
S'Fjordane'
p2460
sg20
g2045
sg2046
(lp2461
sg2048
Nsg2049
I121
sg7
g8
(S'\x07\xdf\x0c\x0b'
p2462
tp2463
Rp2464
sg15
S'3 Betydelig'
p2465
sg22
(dp2466
g2054
VKrevende forhold. Unng bratt terreng i hyden.
p2467
ssg2056
S'Forecast API'
p2468
sba(igetdangers
AvalancheDanger
p2469
(dp2470
g2041
S'Unngaa terreng der nysnoeen har bundet seg saman til mjuke flak.'
p2471
sg2043
Nsg32
I3
sg24
S'Fjordane'
p2472
sg20
g2045
sg2046
(lp2473
sg2048
Nsg2049
I121
sg7
g8
(S'\x07\xdf\x0c\x0c'
p2474
tp2475
Rp2476
sg15
S'3 Betydelig'
p2477
sg22
(dp2478
g2054
VUnng terreng der nysnen har bundet seg saman til mjuke flak.
p2479
ssg2056
S'Forecast API'
p2480
sba(igetdangers
AvalancheDanger
p2481
(dp2482
g2041
Nsg2043
Nsg32
I2
sg24
S'Fjordane'
p2483
sg20
g2204
sg2046
(lp2484
sg2048
Vbrit-siv@obskorps
p2485
sg2049
I121
sg7
g8
(S'\x07\xdf\x0c\x0c'
p2486
tp2487
Rp2488
sg15
S'2 Moderat'
p2489
sg22
(dp2490
g2212
g2213
(S'\x07\xdf\x0c\x0c\x10\x12$\x00\x00\x00'
p2491
tp2492
Rp2493
ssg2056
S'AvalancheEvaluation3V'
p2494
sba(igetdangers
AvalancheDanger
p2495
(dp2496
g2041
S'Stort sett stabile forhold, men snoebyger i fjellet og varierende vindforhold vil gi lokale forskjeller. Foelg med paa hvor det danner seg flak av innblaast nysnoe.'
p2497
sg2043
Nsg32
I2
sg24
S'Fjordane'
p2498
sg20
g2045
sg2046
(lp2499
sg2048
Nsg2049
I121
sg7
g8
(S'\x07\xdf\x0c\r'
p2500
tp2501
Rp2502
sg15
S'2 Moderat'
p2503
sg22
(dp2504
g2054
VStort sett stabile forhold, men snbyger i fjellet og varierende vindforhold vil gi lokale forskjeller. Flg med p hvor det danner seg flak av innblst nysn.
p2505
ssg2056
S'Forecast API'
p2506
sba(igetdangers
AvalancheDanger
p2507
(dp2508
g2041
S'Vaer forsiktig i leomraader og andre terrengformasjoner som samler fokksnoe. Mest utsatt himmelretning skifter i loepet av dagen.'
p2509
sg2043
Nsg32
I2
sg24
S'Fjordane'
p2510
sg20
g2045
sg2046
(lp2511
sg2048
Nsg2049
I121
sg7
g8
(S'\x07\xdf\x0c\x0e'
p2512
tp2513
Rp2514
sg15
S'2 Moderat'
p2515
sg22
(dp2516
g2054
VVr forsiktig i leomrder og andre terrengformasjoner som samler fokksn. Mest utsatt himmelretning skifter i lpet av dagen.
p2517
ssg2056
S'Forecast API'
p2518
sba(igetdangers
AvalancheDanger
p2519
(dp2520
g2041
S'Det finst fersk fokksnoe i leformasjonar i terrenget. Skred er lettast aa loeyse ut der fokksnoelaget er tynt eller mjukt.'
p2521
sg2043
Nsg32
I2
sg24
S'Fjordane'
p2522
sg20
g2045
sg2046
(lp2523
sg2048
Nsg2049
I121
sg7
g8
(S'\x07\xdf\x0c\x0f'
p2524
tp2525
Rp2526
sg15
S'2 Moderat'
p2527
sg22
(dp2528
g2054
VDet finst fersk fokksn i leformasjonar i terrenget. Skred er lettast  lyse ut der fokksnlaget er tynt eller mjukt. 
p2529
ssg2056
S'Forecast API'
p2530
sba(igetdangers
AvalancheDanger
p2531
(dp2532
g2041
Nsg2043
Nsg32
I2
sg24
S'Fjordane'
p2533
sg20
g2204
sg2046
(lp2534
sg2048
VJan Helge@SVV
p2535
sg2049
I121
sg7
g8
(S'\x07\xdf\x0c\x0f'
p2536
tp2537
Rp2538
sg15
S'2 Moderat'
p2539
sg22
(dp2540
g2212
g2213
(S'\x07\xdf\x0c\x0f\x10\x157\x00\x00\x00'
p2541
tp2542
Rp2543
ssg2056
S'AvalancheEvaluation3V'
p2544
sba(igetdangers
AvalancheDanger
p2545
(dp2546
g2041
S'Krevende forhold. Et nedsnoedd svakt lag kan utloeses av skiloeper. Fjernutloesning er mulig.'
p2547
sg2043
Nsg32
I3
sg24
S'Fjordane'
p2548
sg20
g2045
sg2046
(lp2549
sg2048
Nsg2049
I121
sg7
g8
(S'\x07\xdf\x0c\x10'
p2550
tp2551
Rp2552
sg15
S'3 Betydelig'
p2553
sg22
(dp2554
g2054
VKrevende forhold. Et nedsndd svakt lag kan utlses av skilper. Fjernutlsning er mulig.
p2555
ssg2056
S'Forecast API'
p2556
sba(igetdangers
AvalancheDanger
p2557
(dp2558
g2041
Nsg2043
Nsg32
I3
sg24
S'Fjordane'
p2559
sg20
g2204
sg2046
(lp2560
sg2048
Vbrit-siv@obskorps
p2561
sg2049
I121
sg7
g8
(S'\x07\xdf\x0c\x10'
p2562
tp2563
Rp2564
sg15
S'3 Betydelig'
p2565
sg22
(dp2566
g2212
g2213
(S'\x07\xdf\x0c\x10\x126\x1f\x00\x00\x00'
p2567
tp2568
Rp2569
ssg2056
S'AvalancheEvaluation3V'
p2570
sba(igetdangers
AvalancheDanger
p2571
(dp2572
g2041
S'Krevende forhold. Svakt lag, mye fersk fokksnoe og stigende temperatur gir kortvarig mulighet for naturlig utloeste skred. Fjernutloesning er ogsaa mulig.'
p2573
sg2043
Nsg32
I3
sg24
S'Fjordane'
p2574
sg20
g2045
sg2046
(lp2575
sg2048
Nsg2049
I121
sg7
g8
(S'\x07\xdf\x0c\x11'
p2576
tp2577
Rp2578
sg15
S'3 Betydelig'
p2579
sg22
(dp2580
g2054
VKrevende forhold. Svakt lag, mye fersk fokksn og stigende temperatur gir kortvarig mulighet for naturlig utlste skred. Fjernutlsning er ogs mulig.
p2581
ssg2056
S'Forecast API'
p2582
sba(igetdangers
AvalancheDanger
p2583
(dp2584
g2041
S'Krevende forhold. Svakt lag, kraftig vind, mye nedboer og hoey temperatur gir mulighet for naturlig utloeste skred. Fjernutloesning er ogsaa mulig.'
p2585
sg2043
Nsg32
I3
sg24
S'Fjordane'
p2586
sg20
g2045
sg2046
(lp2587
sg2048
Nsg2049
I121
sg7
g8
(S'\x07\xdf\x0c\x12'
p2588
tp2589
Rp2590
sg15
S'3 Betydelig'
p2591
sg22
(dp2592
g2054
VKrevende forhold. Svakt lag, kraftig vind, mye nedbr og hy temperatur gir mulighet for naturlig utlste skred. Fjernutlsning er ogs mulig.
p2593
ssg2056
S'Forecast API'
p2594
sba(igetdangers
AvalancheDanger
p2595
(dp2596
g2041
S'Krevende forhold. Svakt lag, kraftig vind, mye nedboer og hoey temperatur gir mulighet for naturlig utloeste skred.'
p2597
sg2043
Nsg32
I3
sg24
S'Fjordane'
p2598
sg20
g2045
sg2046
(lp2599
sg2048
Nsg2049
I121
sg7
g8
(S'\x07\xdf\x0c\x13'
p2600
tp2601
Rp2602
sg15
S'3 Betydelig'
p2603
sg22
(dp2604
g2054
VKrevende forhold. Svakt lag, kraftig vind, mye nedbr og hy temperatur gir mulighet for naturlig utlste skred. 
p2605
ssg2056
S'Forecast API'
p2606
sba(igetdangers
AvalancheDanger
p2607
(dp2608
g2041
Nsg2043
Nsg32
I3
sg24
S'Fjordane'
p2609
sg20
g2204
sg2046
(lp2610
sg2048
Vbrit-siv@obskorps
p2611
sg2049
I121
sg7
g8
(S'\x07\xdf\x0c\x13'
p2612
tp2613
Rp2614
sg15
S'3 Betydelig'
p2615
sg22
(dp2616
g2212
g2213
(S'\x07\xdf\x0c\x13\x0e%$\x00\x00\x00'
p2617
tp2618
Rp2619
ssg2056
S'AvalancheEvaluation3V'
p2620
sba(igetdangers
AvalancheDanger
p2621
(dp2622
g2041
S'Krevende forhold. Svakt lag, kraftig vind, mye nedboer og hoey temperatur gir mulighet for naturlig utloeste skred.'
p2623
sg2043
Nsg32
I3
sg24
S'Fjordane'
p2624
sg20
g2045
sg2046
(lp2625
sg2048
Nsg2049
I121
sg7
g8
(S'\x07\xdf\x0c\x14'
p2626
tp2627
Rp2628
sg15
S'3 Betydelig'
p2629
sg22
(dp2630
g2054
VKrevende forhold. Svakt lag, kraftig vind, mye nedbr og hy temperatur gir mulighet for naturlig utlste skred. 
p2631
ssg2056
S'Forecast API'
p2632
sba(igetdangers
AvalancheDanger
p2633
(dp2634
g2041
S'Ver forsiktig i leomraade der det samlar seg fokksnoe, td. bak ryggar, i soekk og renneformasjonar. Lettast aa loeyse ut skred der fokksnoelaget er tynt eller mjukt.'
p2635
sg2043
Nsg32
I3
sg24
S'Fjordane'
p2636
sg20
g2045
sg2046
(lp2637
sg2048
Nsg2049
I121
sg7
g8
(S'\x07\xdf\x0c\x15'
p2638
tp2639
Rp2640
sg15
S'3 Betydelig'
p2641
sg22
(dp2642
g2054
VVer forsiktig i leomrde der det samlar seg fokksn, td. bak ryggar, i skk og renneformasjonar. Lettast  lyse ut skred der fokksnlaget er tynt eller mjukt.
p2643
ssg2056
S'Forecast API'
p2644
sba(igetdangers
AvalancheDanger
p2645
(dp2646
g2041
S'Krevende forhold med mye nedboer. Unngaa bratt terreng i hoeyden. I lavlandet kan det gaa enkelte naturlig utloeste vaate skred.'
p2647
sg2043
Nsg32
I3
sg24
S'Fjordane'
p2648
sg20
g2045
sg2046
(lp2649
sg2048
Nsg2049
I121
sg7
g8
(S'\x07\xdf\x0c\x16'
p2650
tp2651
Rp2652
sg15
S'3 Betydelig'
p2653
sg22
(dp2654
g2054
VKrevende forhold med mye nedbr. Unng bratt terreng i hyden. I lavlandet kan det g enkelte naturlig utlste vte skred.
p2655
ssg2056
S'Forecast API'
p2656
sba(igetdangers
AvalancheDanger
p2657
(dp2658
g2041
Nsg2043
Nsg32
I3
sg24
S'Fjordane'
p2659
sg20
g2204
sg2046
(lp2660
sg2048
Vbrit-siv@obskorps
p2661
sg2049
I121
sg7
g8
(S'\x07\xdf\x0c\x16'
p2662
tp2663
Rp2664
sg15
S'3 Betydelig'
p2665
sg22
(dp2666
g2212
g2213
(S'\x07\xdf\x0c\x16\x0c\n\x10\x00\x00\x00'
p2667
tp2668
Rp2669
ssg2056
S'AvalancheEvaluation3V'
p2670
sba(igetdangers
AvalancheDanger
p2671
(dp2672
g2041
S'Krevende forhold med mye nedboer. Unngaa bratt terreng i hoeyden. I lavlandet kan det gaa enkelte naturlig utloeste vaate skred.'
p2673
sg2043
Nsg32
I3
sg24
S'Fjordane'
p2674
sg20
g2045
sg2046
(lp2675
sg2048
Nsg2049
I121
sg7
g8
(S'\x07\xdf\x0c\x17'
p2676
tp2677
Rp2678
sg15
S'3 Betydelig'
p2679
sg22
(dp2680
g2054
VKrevende forhold med mye nedbr. Unng bratt terreng i hyden. I lavlandet kan det g enkelte naturlig utlste vte skred.
p2681
ssg2056
S'Forecast API'
p2682
sba(igetdangers
AvalancheDanger
p2683
(dp2684
g2041
S'Lokalt mye nedboer og vind foerer til oekt skredfare. Vaer forsiktig i leomraader og andre terrengformasjoner hvor vinden legger fra seg ustabile nysnoeflak.'
p2685
sg2043
Nsg32
I3
sg24
S'Fjordane'
p2686
sg20
g2045
sg2046
(lp2687
sg2048
Nsg2049
I121
sg7
g8
(S'\x07\xdf\x0c\x18'
p2688
tp2689
Rp2690
sg15
S'3 Betydelig'
p2691
sg22
(dp2692
g2054
VLokalt mye nedbr og vind frer til kt skredfare. Vr forsiktig i leomrder og andre terrengformasjoner hvor vinden legger fra seg ustabile nysnflak.
p2693
ssg2056
S'Forecast API'
p2694
sba(igetdangers
AvalancheDanger
p2695
(dp2696
g2041
S'Generelt ustabile forhold. Unngaa leomraader og andre terrengformasjoner hvor vinden har lagt fra seg mye nysnoe. Naturlig utloeste skred kan forekomme.'
p2697
sg2043
Nsg32
I3
sg24
S'Fjordane'
p2698
sg20
g2045
sg2046
(lp2699
sg2048
Nsg2049
I121
sg7
g8
(S'\x07\xdf\x0c\x19'
p2700
tp2701
Rp2702
sg15
S'3 Betydelig'
p2703
sg22
(dp2704
g2054
VGenerelt ustabile forhold. Unng leomrder og andre terrengformasjoner hvor vinden har lagt fra seg mye nysn. Naturlig utlste skred kan forekomme.
p2705
ssg2056
S'Forecast API'
p2706
sba(igetdangers
AvalancheDanger
p2707
(dp2708
g2041
S'Generelt ustabile forhold. Stedvis kan en enkelt skikjoerer loese ut skred i omraader med ferske nysnoeflak. Det er stor variasjon i forholdene pga bygevaer.'
p2709
sg2043
Nsg32
I3
sg24
S'Fjordane'
p2710
sg20
g2045
sg2046
(lp2711
sg2048
Nsg2049
I121
sg7
g8
(S'\x07\xdf\x0c\x1a'
p2712
tp2713
Rp2714
sg15
S'3 Betydelig'
p2715
sg22
(dp2716
g2054
VGenerelt ustabile forhold. Stedvis kan en enkelt skikjrer lse ut skred i omrder med ferske nysnflak. Det er stor variasjon i forholdene pga bygevr.
p2717
ssg2056
S'Forecast API'
p2718
sba(igetdangers
AvalancheDanger
p2719
(dp2720
g2041
Nsg2043
Nsg32
I3
sg24
S'Fjordane'
p2721
sg20
g2204
sg2046
(lp2722
sg2048
Vbrit-siv@obskorps
p2723
sg2049
I121
sg7
g8
(S'\x07\xdf\x0c\x1a'
p2724
tp2725
Rp2726
sg15
S'3 Betydelig'
p2727
sg22
(dp2728
g2212
g2213
(S'\x07\xdf\x0c\x1a\x0e/5\x00\x00\x00'
p2729
tp2730
Rp2731
ssg2056
S'AvalancheEvaluation3V'
p2732
sba(igetdangers
AvalancheDanger
p2733
(dp2734
g2041
S'Vindauke foerer til auka fare. Unngaa leomraade der det samlar seg fersk fokksnoe, typisk bak ryggar, i soekk og renneformasjonar.'
p2735
sg2043
Nsg32
I3
sg24
S'Fjordane'
p2736
sg20
g2045
sg2046
(lp2737
sg2048
Nsg2049
I121
sg7
g8
(S'\x07\xdf\x0c\x1b'
p2738
tp2739
Rp2740
sg15
S'3 Betydelig'
p2741
sg22
(dp2742
g2054
VVindauke frer til auka fare. Unng leomrde der det samlar seg fersk fokksn, typisk bak ryggar, i skk og renneformasjonar.
p2743
ssg2056
S'Forecast API'
p2744
sba(igetdangers
AvalancheDanger
p2745
(dp2746
g2041
S'Ver forsiktig i leomraade der det samlar seg fokksnoe, td. bak ryggar, i soekk og renneformasjonar. Lettast aa loeyse ut skred der fokksnoelaget er tynt eller mjukt.'
p2747
sg2043
Nsg32
I3
sg24
S'Fjordane'
p2748
sg20
g2045
sg2046
(lp2749
sg2048
Nsg2049
I121
sg7
g8
(S'\x07\xdf\x0c\x1c'
p2750
tp2751
Rp2752
sg15
S'3 Betydelig'
p2753
sg22
(dp2754
g2054
VVer forsiktig i leomrde der det samlar seg fokksn, td. bak ryggar, i skk og renneformasjonar. Lettast  lyse ut skred der fokksnlaget er tynt eller mjukt.
p2755
ssg2056
S'Forecast API'
p2756
sba(igetdangers
AvalancheDanger
p2757
(dp2758
g2041
S'Det finnes svake lag i snoedekket som kan trigges av en skiloeper eller skuter der snoedekket er tynt. Vaer varsom i omraader med fersk fokksnoe.'
p2759
sg2043
Nsg32
I2
sg24
S'Fjordane'
p2760
sg20
g2045
sg2046
(lp2761
sg2048
Nsg2049
I121
sg7
g8
(S'\x07\xdf\x0c\x1d'
p2762
tp2763
Rp2764
sg15
S'2 Moderat'
p2765
sg22
(dp2766
g2054
VDet finnes svake lag i sndekket som kan trigges av en skilper eller skuter der sndekket er tynt. Vr varsom i omrder med fersk fokksn.
p2767
ssg2056
S'Forecast API'
p2768
sba(igetdangers
AvalancheDanger
p2769
(dp2770
g2041
S'Det finst fersk fokksnoe i leformasjonar i terrenget. Skred er lettast aa loeyse ut der fokksnoelaget er tynt eller mjukt.'
p2771
sg2043
Nsg32
I2
sg24
S'Fjordane'
p2772
sg20
g2045
sg2046
(lp2773
sg2048
Nsg2049
I121
sg7
g8
(S'\x07\xdf\x0c\x1e'
p2774
tp2775
Rp2776
sg15
S'2 Moderat'
p2777
sg22
(dp2778
g2054
VDet finst fersk fokksn i leformasjonar i terrenget. Skred er lettast  lyse ut der fokksnlaget er tynt eller mjukt. 
p2779
ssg2056
S'Forecast API'
p2780
sba(igetdangers
AvalancheDanger
p2781
(dp2782
g2041
S'Vaer forsiktig i leomraader der det samler seg fokksnoe. Det er lettest aa loese ut skred der fokksnoelaget er tynt eller mykt.'
p2783
sg2043
Nsg32
I3
sg24
S'Fjordane'
p2784
sg20
g2045
sg2046
(lp2785
sg2048
Nsg2049
I121
sg7
g8
(S'\x07\xdf\x0c\x1f'
p2786
tp2787
Rp2788
sg15
S'3 Betydelig'
p2789
sg22
(dp2790
g2054
VVr forsiktig i leomrder der det samler seg fokksn. Det er lettest  lse ut skred der fokksnlaget er tynt eller mykt.
p2791
ssg2056
S'Forecast API'
p2792
sba(igetdangers
AvalancheDanger
p2793
(dp2794
g2041
Nsg2043
Nsg32
I3
sg24
S'Fjordane'
p2795
sg20
g2204
sg2046
(lp2796
sg2048
Vbrit-siv@obskorps
p2797
sg2049
I121
sg7
g8
(S'\x07\xdf\x0c\x1f'
p2798
tp2799
Rp2800
sg15
S'3 Betydelig'
p2801
sg22
(dp2802
g2212
g2213
(S'\x07\xdf\x0c\x1f\x0b::\x00\x00\x00'
p2803
tp2804
Rp2805
ssg2056
S'AvalancheEvaluation3V'
p2806
sba(igetdangers
AvalancheDanger
p2807
(dp2808
g2041
S'Vaer varsom i leomraader. Det har bygd seg opp store ansamlinger av snoe i leomraader fjellet. Sprekker i snoedekket og droennelyder er tydelige tegn paa ustabilitet.'
p2809
sg2043
Nsg32
I3
sg24
S'Fjordane'
p2810
sg20
g2045
sg2046
(lp2811
sg2048
Nsg2049
I121
sg7
g8
(S'\x07\xe0\x01\x01'
p2812
tp2813
Rp2814
sg15
S'3 Betydelig'
p2815
sg22
(dp2816
g2054
VVr varsom i leomrder. Det har bygd seg opp store ansamlinger av sn i leomrder fjellet. Sprekker i sndekket og drnnelyder er tydelige tegn p ustabilitet.
p2817
ssg2056
S'Forecast API'
p2818
sba(igetdangers
AvalancheDanger
p2819
(dp2820
g2041
S'Vaer varsom i leomraader. Det har bygd seg opp store ansamlinger av snoe i leomraader fjellet. Sprekker i snoedekket og droennelyder er tydelige tegn paa ustabilitet.'
p2821
sg2043
Nsg32
I3
sg24
S'Fjordane'
p2822
sg20
g2045
sg2046
(lp2823
sg2048
Nsg2049
I121
sg7
g8
(S'\x07\xe0\x01\x02'
p2824
tp2825
Rp2826
sg15
S'3 Betydelig'
p2827
sg22
(dp2828
g2054
VVr varsom i leomrder. Det har bygd seg opp store ansamlinger av sn i leomrder fjellet. Sprekker i sndekket og drnnelyder er tydelige tegn p ustabilitet.
p2829
ssg2056
S'Forecast API'
p2830
sba(igetdangers
AvalancheDanger
p2831
(dp2832
g2041
Nsg2043
Nsg32
I2
sg24
S'Fjordane'
p2833
sg20
g2204
sg2046
(lp2834
sg2048
Vbrit-siv@obskorps
p2835
sg2049
I121
sg7
g8
(S'\x07\xe0\x01\x02'
p2836
tp2837
Rp2838
sg15
S'2 Moderat'
p2839
sg22
(dp2840
g2212
g2213
(S'\x07\xe0\x01\x02\x0e6\x07\x00\x00\x00'
p2841
tp2842
Rp2843
ssg2056
S'AvalancheEvaluation3V'
p2844
sba(igetdangers
AvalancheDanger
p2845
(dp2846
g2041
S'Vaer varsom i terreng der nysnoeen har bundet seg i mjuke flak til nysnoeen har stabilisert seg.'
p2847
sg2043
Nsg32
I2
sg24
S'Fjordane'
p2848
sg20
g2045
sg2046
(lp2849
sg2048
Nsg2049
I121
sg7
g8
(S'\x07\xe0\x01\x03'
p2850
tp2851
Rp2852
sg15
S'2 Moderat'
p2853
sg22
(dp2854
g2054
VVr varsom i terreng der nysnen har bundet seg i mjuke flak til nysnen har stabilisert seg.
p2855
ssg2056
S'Forecast API'
p2856
sba(igetdangers
AvalancheDanger
p2857
(dp2858
g2041
S'Lokalt ustabile forhold. Vaer forsiktig der det ligger fersk fokksnoe i hoeyden, ellers generelt stabilt og hardt snoedekke.'
p2859
sg2043
Nsg32
I2
sg24
S'Fjordane'
p2860
sg20
g2045
sg2046
(lp2861
sg2048
Nsg2049
I121
sg7
g8
(S'\x07\xe0\x01\x04'
p2862
tp2863
Rp2864
sg15
S'2 Moderat'
p2865
sg22
(dp2866
g2054
VLokalt ustabile forhold. Vr forsiktig der det ligger fersk fokksn i hyden, ellers generelt stabilt og hardt sndekke.
p2867
ssg2056
S'Forecast API'
p2868
sba(igetdangers
AvalancheDanger
p2869
(dp2870
g2041
S'Lokalt ustabile forhold. Vaer forsiktig der det ligger fersk fokksnoe i hoeyden, ellers generelt stabilt og hardt snoedekke.'
p2871
sg2043
Nsg32
I2
sg24
S'Fjordane'
p2872
sg20
g2045
sg2046
(lp2873
sg2048
Nsg2049
I121
sg7
g8
(S'\x07\xe0\x01\x05'
p2874
tp2875
Rp2876
sg15
S'2 Moderat'
p2877
sg22
(dp2878
g2054
VLokalt ustabile forhold. Vr forsiktig der det ligger fersk fokksn i hyden, ellers generelt stabilt og hardt sndekke.
p2879
ssg2056
S'Forecast API'
p2880
sba(igetdangers
AvalancheDanger
p2881
(dp2882
g2041
S'Lite snoe og generelt stabile forhold, kun mulighet for aa loese ut skred i noen faa leheng med fokksnoeansamlinger.'
p2883
sg2043
Nsg32
I1
sg24
S'Fjordane'
p2884
sg20
g2045
sg2046
(lp2885
sg2048
Nsg2049
I121
sg7
g8
(S'\x07\xe0\x01\x06'
p2886
tp2887
Rp2888
sg15
S'1 Liten'
p2889
sg22
(dp2890
g2054
VLite sn og generelt stabile forhold, kun mulighet for  lse ut skred i noen f leheng med fokksnansamlinger.
p2891
ssg2056
S'Forecast API'
p2892
sba(igetdangers
AvalancheDanger
p2893
(dp2894
g2041
Nsg2043
Nsg32
I1
sg24
S'Fjordane'
p2895
sg20
g2204
sg2046
(lp2896
sg2048
Vbrit-siv@obskorps
p2897
sg2049
I121
sg7
g8
(S'\x07\xe0\x01\x06'
p2898
tp2899
Rp2900
sg15
S'1 Liten'
p2901
sg22
(dp2902
g2212
g2213
(S'\x07\xe0\x01\x06\x0c:-\x00\x00\x00'
p2903
tp2904
Rp2905
ssg2056
S'AvalancheEvaluation3V'
p2906
sba(igetdangers
AvalancheDanger
p2907
(dp2908
g2041
S'Lite snoe og generelt stabile forhold, kun mulighet for aa loese ut skred i noen faa leheng med fokksnoeansamlinger.'
p2909
sg2043
Nsg32
I1
sg24
S'Fjordane'
p2910
sg20
g2045
sg2046
(lp2911
sg2048
Nsg2049
I121
sg7
g8
(S'\x07\xe0\x01\x07'
p2912
tp2913
Rp2914
sg15
S'1 Liten'
p2915
sg22
(dp2916
g2054
VLite sn og generelt stabile forhold, kun mulighet for  lse ut skred i noen f leheng med fokksnansamlinger.
p2917
ssg2056
S'Forecast API'
p2918
sba(igetdangers
AvalancheDanger
p2919
(dp2920
g2041
S'Lite snoe og generelt stabile forhold, kun mulighet for aa loese ut skred i noen faa leheng med fokksnoeansamlinger.'
p2921
sg2043
Nsg32
I1
sg24
S'Fjordane'
p2922
sg20
g2045
sg2046
(lp2923
sg2048
Nsg2049
I121
sg7
g8
(S'\x07\xe0\x01\x08'
p2924
tp2925
Rp2926
sg15
S'1 Liten'
p2927
sg22
(dp2928
g2054
VLite sn og generelt stabile forhold, kun mulighet for  lse ut skred i noen f leheng med fokksnansamlinger.
p2929
ssg2056
S'Forecast API'
p2930
sba(igetdangers
AvalancheDanger
p2931
(dp2932
g2041
S'Lite snoe og generelt stabile forhold, kun mulighet for aa loese ut skred i noen faa leheng med fokksnoeansamlinger.'
p2933
sg2043
Nsg32
I1
sg24
S'Fjordane'
p2934
sg20
g2045
sg2046
(lp2935
sg2048
Nsg2049
I121
sg7
g8
(S'\x07\xe0\x01\t'
p2936
tp2937
Rp2938
sg15
S'1 Liten'
p2939
sg22
(dp2940
g2054
VLite sn og generelt stabile forhold, kun mulighet for  lse ut skred i noen f leheng med fokksnansamlinger.
p2941
ssg2056
S'Forecast API'
p2942
sba(igetdangers
AvalancheDanger
p2943
(dp2944
g2041
Nsg2043
Nsg32
I1
sg24
S'Fjordane'
p2945
sg20
g2204
sg2046
(lp2946
sg2048
VJanR@ObsKorps
p2947
sg2049
I121
sg7
g8
(S'\x07\xe0\x01\t'
p2948
tp2949
Rp2950
sg15
S'1 Liten'
p2951
sg22
(dp2952
g2212
g2213
(S'\x07\xe0\x01\t\r\x03\x1e\x00\x00\x00'
p2953
tp2954
Rp2955
ssg2056
S'AvalancheEvaluation3V'
p2956
sba(igetdangers
AvalancheDanger
p2957
(dp2958
g2041
Nsg2043
Nsg32
I1
sg24
S'Fjordane'
p2959
sg20
g2204
sg2046
(lp2960
sg2048
Vbrit-siv@obskorps
p2961
sg2049
I121
sg7
g8
(S'\x07\xe0\x01\t'
p2962
tp2963
Rp2964
sg15
S'1 Liten'
p2965
sg22
(dp2966
g2212
g2213
(S'\x07\xe0\x01\t\x0e\x11\x16\x00\x00\x00'
p2967
tp2968
Rp2969
ssg2056
S'AvalancheEvaluation3V'
p2970
sba(igetdangers
AvalancheDanger
p2971
(dp2972
g2041
S'Lite snoe og generelt stabile forhold, kun mulighet for aa loese ut skred i noen faa leheng med fokksnoeansamlinger.'
p2973
sg2043
Nsg32
I1
sg24
S'Fjordane'
p2974
sg20
g2045
sg2046
(lp2975
sg2048
Nsg2049
I121
sg7
g8
(S'\x07\xe0\x01\n'
p2976
tp2977
Rp2978
sg15
S'1 Liten'
p2979
sg22
(dp2980
g2054
VLite sn og generelt stabile forhold, kun mulighet for  lse ut skred i noen f leheng med fokksnansamlinger.
p2981
ssg2056
S'Forecast API'
p2982
sba(igetdangers
AvalancheDanger
p2983
(dp2984
g2041
S'Lite snoe og generelt stabile forhold, kun mulighet for aa loese ut skred i noen faa leheng med fokksnoeansamlinger.'
p2985
sg2043
Nsg32
I1
sg24
S'Fjordane'
p2986
sg20
g2045
sg2046
(lp2987
sg2048
Nsg2049
I121
sg7
g8
(S'\x07\xe0\x01\x0b'
p2988
tp2989
Rp2990
sg15
S'1 Liten'
p2991
sg22
(dp2992
g2054
VLite sn og generelt stabile forhold, kun mulighet for  lse ut skred i noen f leheng med fokksnansamlinger.
p2993
ssg2056
S'Forecast API'
p2994
sba(igetdangers
AvalancheDanger
p2995
(dp2996
g2041
S'Lite snoe og generelt stabile forhold, kun mulighet for aa loese ut skred i noen faa leheng med fokksnoeansamlinger.'
p2997
sg2043
Nsg32
I1
sg24
S'Fjordane'
p2998
sg20
g2045
sg2046
(lp2999
sg2048
Nsg2049
I121
sg7
g8
(S'\x07\xe0\x01\x0c'
p3000
tp3001
Rp3002
sg15
S'1 Liten'
p3003
sg22
(dp3004
g2054
VLite sn og generelt stabile forhold, kun mulighet for  lse ut skred i noen f leheng med fokksnansamlinger.
p3005
ssg2056
S'Forecast API'
p3006
sba(igetdangers
AvalancheDanger
p3007
(dp3008
g2041
Nsg2043
Nsg32
I1
sg24
S'Fjordane'
p3009
sg20
g2204
sg2046
(lp3010
sg2048
Vbrit-siv@obskorps
p3011
sg2049
I121
sg7
g8
(S'\x07\xe0\x01\x0c'
p3012
tp3013
Rp3014
sg15
S'1 Liten'
p3015
sg22
(dp3016
g2212
g2213
(S'\x07\xe0\x01\x0c\x0b;"\x00\x00\x00'
p3017
tp3018
Rp3019
ssg2056
S'AvalancheEvaluation3V'
p3020
sba(igetdangers
AvalancheDanger
p3021
(dp3022
g2041
S'Lite snoe og generelt stabile forhold, kun mulighet for aa loese ut skred i noen faa leheng med fokksnoeansamlinger.'
p3023
sg2043
Nsg32
I1
sg24
S'Fjordane'
p3024
sg20
g2045
sg2046
(lp3025
sg2048
Nsg2049
I121
sg7
g8
(S'\x07\xe0\x01\r'
p3026
tp3027
Rp3028
sg15
S'1 Liten'
p3029
sg22
(dp3030
g2054
VLite sn og generelt stabile forhold, kun mulighet for  lse ut skred i noen f leheng med fokksnansamlinger.
p3031
ssg2056
S'Forecast API'
p3032
sba(igetdangers
AvalancheDanger
p3033
(dp3034
g2041
Nsg2043
Nsg32
I1
sg24
S'Fjordane'
p3035
sg20
g2204
sg2046
(lp3036
sg2048
VIngrid SVV
p3037
sg2049
I121
sg7
g8
(S'\x07\xe0\x01\r'
p3038
tp3039
Rp3040
sg15
S'1 Liten'
p3041
sg22
(dp3042
g2212
g2213
(S'\x07\xe0\x01\r\r\x0f\x18\x00\x00\x00'
p3043
tp3044
Rp3045
ssg2056
S'AvalancheEvaluation3V'
p3046
sba(igetdangers
AvalancheDanger
p3047
(dp3048
g2041
S'Litt nysnoe foerer til smaa ustabile nysnoeflak i enkelte leomraader, ellers stort sett stabile forhold.'
p3049
sg2043
Nsg32
I1
sg24
S'Fjordane'
p3050
sg20
g2045
sg2046
(lp3051
sg2048
Nsg2049
I121
sg7
g8
(S'\x07\xe0\x01\x0e'
p3052
tp3053
Rp3054
sg15
S'1 Liten'
p3055
sg22
(dp3056
g2054
VLitt nysn frer til sm ustabile nysnflak i enkelte leomrder, ellers stort sett stabile forhold. 
p3057
ssg2056
S'Forecast API'
p3058
sba(igetdangers
AvalancheDanger
p3059
(dp3060
g2041
S'Vaer forsiktig i leomraader og andre terrengformasjoner som samler fokksnoe. Mest utsatt himmelretning skifter i loepet av dagen.'
p3061
sg2043
Nsg32
I2
sg24
S'Fjordane'
p3062
sg20
g2045
sg2046
(lp3063
sg2048
Nsg2049
I121
sg7
g8
(S'\x07\xe0\x01\x0f'
p3064
tp3065
Rp3066
sg15
S'2 Moderat'
p3067
sg22
(dp3068
g2054
VVr forsiktig i leomrder og andre terrengformasjoner som samler fokksn. Mest utsatt himmelretning skifter i lpet av dagen.
p3069
ssg2056
S'Forecast API'
p3070
sba(igetdangers
AvalancheDanger
p3071
(dp3072
g2041
S'Unngaa leomraader og andre terrengformasjoner som samler fokksnoe. Mest utsatt himmelretning skifter i loepet av dagen.'
p3073
sg2043
Nsg32
I3
sg24
S'Fjordane'
p3074
sg20
g2045
sg2046
(lp3075
sg2048
Nsg2049
I121
sg7
g8
(S'\x07\xe0\x01\x10'
p3076
tp3077
Rp3078
sg15
S'3 Betydelig'
p3079
sg22
(dp3080
g2054
VUnng leomrder og andre terrengformasjoner som samler fokksn. Mest utsatt himmelretning skifter i lpet av dagen.
p3081
ssg2056
S'Forecast API'
p3082
sba(igetdangers
AvalancheDanger
p3083
(dp3084
g2041
Nsg2043
Nsg32
I2
sg24
S'Fjordane'
p3085
sg20
g2204
sg2046
(lp3086
sg2048
Vbrit-siv@obskorps
p3087
sg2049
I121
sg7
g8
(S'\x07\xe0\x01\x10'
p3088
tp3089
Rp3090
sg15
S'2 Moderat'
p3091
sg22
(dp3092
g2212
g2213
(S'\x07\xe0\x01\x10\x12\x08\x10\x00\x00\x00'
p3093
tp3094
Rp3095
ssg2056
S'AvalancheEvaluation3V'
p3096
sba(igetdangers
AvalancheDanger
p3097
(dp3098
g2041
Nsg2043
Nsg32
I3
sg24
S'Fjordane'
p3099
sg20
g2204
sg2046
(lp3100
sg2048
Vkjetilhd
p3101
sg2049
I121
sg7
g8
(S'\x07\xe0\x01\x10'
p3102
tp3103
Rp3104
sg15
S'3 Betydelig'
p3105
sg22
(dp3106
g2212
g2213
(S'\x07\xe0\x01\x10\x15\x12/\x00\x00\x00'
p3107
tp3108
Rp3109
ssg2056
S'AvalancheEvaluation3V'
p3110
sba(igetdangers
AvalancheDanger
p3111
(dp3112
g2041
S'Vaer forsiktig i leomraader hvor et svakt lag av overflaterim kan ligge under fersk fokksnoe.'
p3113
sg2043
Nsg32
I2
sg24
S'Fjordane'
p3114
sg20
g2045
sg2046
(lp3115
sg2048
Nsg2049
I121
sg7
g8
(S'\x07\xe0\x01\x11'
p3116
tp3117
Rp3118
sg15
S'2 Moderat'
p3119
sg22
(dp3120
g2054
VVr forsiktig i leomrder hvor et svakt lag av overflaterim kan ligge under fersk fokksn.
p3121
ssg2056
S'Forecast API'
p3122
sba(igetdangers
AvalancheDanger
p3123
(dp3124
g2041
S'Ungaa fersk fokksnoe i hoeyden. Det finnes lommer med svakt lag av kantkorn og rim under den eldre fokksnoeen.'
p3125
sg2043
Nsg32
I3
sg24
S'Fjordane'
p3126
sg20
g2045
sg2046
(lp3127
sg2048
Nsg2049
I121
sg7
g8
(S'\x07\xe0\x01\x12'
p3128
tp3129
Rp3130
sg15
S'3 Betydelig'
p3131
sg22
(dp3132
g2054
VUng fersk fokksn i hyden. Det finnes lommer med svakt lag av kantkorn og rim under den eldre fokksnen.
p3133
ssg2056
S'Forecast API'
p3134
sba(igetdangers
AvalancheDanger
p3135
(dp3136
g2041
S'Unngaa fersk fokksnoe i hoeyden. Det finnes lommer med svakt lag av kantkorn og rim under den eldre fokksnoeen.'
p3137
sg2043
Nsg32
I3
sg24
S'Fjordane'
p3138
sg20
g2045
sg2046
(lp3139
sg2048
Nsg2049
I121
sg7
g8
(S'\x07\xe0\x01\x13'
p3140
tp3141
Rp3142
sg15
S'3 Betydelig'
p3143
sg22
(dp3144
g2054
VUnng fersk fokksn i hyden. Det finnes lommer med svakt lag av kantkorn og rim under den eldre fokksnen.
p3145
ssg2056
S'Forecast API'
p3146
sba(igetdangers
AvalancheDanger
p3147
(dp3148
g2041
Nsg2043
Nsg32
I2
sg24
S'Fjordane'
p3149
sg20
g2204
sg2046
(lp3150
sg2048
Vbrit-siv@obskorps
p3151
sg2049
I121
sg7
g8
(S'\x07\xe0\x01\x13'
p3152
tp3153
Rp3154
sg15
S'2 Moderat'
p3155
sg22
(dp3156
g2212
g2213
(S'\x07\xe0\x01\x13\x10\x1e3\x00\x00\x00'
p3157
tp3158
Rp3159
ssg2056
S'AvalancheEvaluation3V'
p3160
sba(igetdangers
AvalancheDanger
p3161
(dp3162
g2041
Nsg2043
Nsg32
I1
sg24
S'Fjordane'
p3163
sg20
g2204
sg2046
(lp3164
sg2048
Vdrift@svv
p3165
sg2049
I121
sg7
g8
(S'\x07\xe0\x01\x13'
p3166
tp3167
Rp3168
sg15
S'1 Liten'
p3169
sg22
(dp3170
g2212
g2213
(S'\x07\xe0\x01\x13\x13,\x00\x00\x00\x00'
p3171
tp3172
Rp3173
ssg2056
S'AvalancheEvaluation3V'
p3174
sba(igetdangers
AvalancheDanger
p3175
(dp3176
g2041
Nsg2043
Nsg32
I2
sg24
S'Fjordane'
p3177
sg20
g2204
sg2046
(lp3178
sg2048
VJanR@ObsKorps
p3179
sg2049
I121
sg7
g8
(S'\x07\xe0\x01\x13'
p3180
tp3181
Rp3182
sg15
S'2 Moderat'
p3183
sg22
(dp3184
g2212
g2213
(S'\x07\xe0\x01\x13\x15\x13\x06\x00\x00\x00'
p3185
tp3186
Rp3187
ssg2056
S'AvalancheEvaluation3V'
p3188
sba(igetdangers
AvalancheDanger
p3189
(dp3190
g2041
S'Lokalt ustabilt. Vaer forsiktig i leomraader. Det finnes lommer med svakt lag av kantkorn og rim i den eldre fokksnoeen.'
p3191
sg2043
Nsg32
I2
sg24
S'Fjordane'
p3192
sg20
g2045
sg2046
(lp3193
sg2048
Nsg2049
I121
sg7
g8
(S'\x07\xe0\x01\x14'
p3194
tp3195
Rp3196
sg15
S'2 Moderat'
p3197
sg22
(dp3198
g2054
VLokalt ustabilt. Vr forsiktig i leomrder. Det finnes lommer med svakt lag av kantkorn og rim i den eldre fokksnen.
p3199
ssg2056
S'Forecast API'
p3200
sba(igetdangers
AvalancheDanger
p3201
(dp3202
g2041
S'Lokalt ustabilt. Vaer forsiktig i leomraader. Det finnes lommer med svakt lag av kantkorn og rim i den eldre fokksnoeen.'
p3203
sg2043
Nsg32
I2
sg24
S'Fjordane'
p3204
sg20
g2045
sg2046
(lp3205
sg2048
Nsg2049
I121
sg7
g8
(S'\x07\xe0\x01\x15'
p3206
tp3207
Rp3208
sg15
S'2 Moderat'
p3209
sg22
(dp3210
g2054
VLokalt ustabilt. Vr forsiktig i leomrder. Det finnes lommer med svakt lag av kantkorn og rim i den eldre fokksnen.
p3211
ssg2056
S'Forecast API'
p3212
sba(igetdangers
AvalancheDanger
p3213
(dp3214
g2041
S'Lokalt utabile fokksnoeflak i leomraader. Svake lag med kantkorn og rim kan paavirkes der snoedekket er tynt.'
p3215
sg2043
Nsg32
I3
sg24
S'Fjordane'
p3216
sg20
g2045
sg2046
(lp3217
sg2048
Nsg2049
I121
sg7
g8
(S'\x07\xe0\x01\x16'
p3218
tp3219
Rp3220
sg15
S'3 Betydelig'
p3221
sg22
(dp3222
g2054
VLokalt utabile fokksnflak i leomrder. Svake lag med kantkorn og rim kan pvirkes der sndekket er tynt.
p3223
ssg2056
S'Forecast API'
p3224
sba(igetdangers
AvalancheDanger
p3225
(dp3226
g2041
Nsg2043
Nsg32
I2
sg24
S'Fjordane'
p3227
sg20
g2204
sg2046
(lp3228
sg2048
VIngrid SVV
p3229
sg2049
I121
sg7
g8
(S'\x07\xe0\x01\x16'
p3230
tp3231
Rp3232
sg15
S'2 Moderat'
p3233
sg22
(dp3234
g2212
g2213
(S'\x07\xe0\x01\x16\x0c52\x00\x00\x00'
p3235
tp3236
Rp3237
ssg2056
S'AvalancheEvaluation3V'
p3238
sba(igetdangers
AvalancheDanger
p3239
(dp3240
g2041
Nsg2043
Nsg32
I1
sg24
S'Fjordane'
p3241
sg20
g2204
sg2046
(lp3242
sg2048
Vskule@svv
p3243
sg2049
I121
sg7
g8
(S'\x07\xe0\x01\x16'
p3244
tp3245
Rp3246
sg15
S'1 Liten'
p3247
sg22
(dp3248
g2212
g2213
(S'\x07\xe0\x01\x16\r9\x1e\x00\x00\x00'
p3249
tp3250
Rp3251
ssg2056
S'AvalancheEvaluation3V'
p3252
sba(igetdangers
AvalancheDanger
p3253
(dp3254
g2041
Nsg2043
Nsg32
I2
sg24
S'Fjordane'
p3255
sg20
g2204
sg2046
(lp3256
sg2048
Vdrift@svv
p3257
sg2049
I121
sg7
g8
(S'\x07\xe0\x01\x16'
p3258
tp3259
Rp3260
sg15
S'2 Moderat'
p3261
sg22
(dp3262
g2212
g2213
(S'\x07\xe0\x01\x16\x0f\x02\x00\x00\x00\x00'
p3263
tp3264
Rp3265
ssg2056
S'AvalancheEvaluation3V'
p3266
sba(igetdangers
AvalancheDanger
p3267
(dp3268
g2041
S'Komplekse forhold med nysnoeflak og vedvarende svake lag i hoeyden. Vaate loessnoeskred under mildvaersgrensa. Trygg ferdsel krever mye kunnskap.'
p3269
sg2043
Nsg32
I3
sg24
S'Fjordane'
p3270
sg20
g2045
sg2046
(lp3271
sg2048
Nsg2049
I121
sg7
g8
(S'\x07\xe0\x01\x17'
p3272
tp3273
Rp3274
sg15
S'3 Betydelig'
p3275
sg22
(dp3276
g2054
VKomplekse forhold med nysnflak og vedvarende svake lag i hyden. Vte lssnskred under mildvrsgrensa. Trygg ferdsel krever mye kunnskap.
p3277
ssg2056
S'Forecast API'
p3278
sba(igetdangers
AvalancheDanger
p3279
(dp3280
g2041
S'Krevende forhold. Unngaa leomraader hvor det legger seg opp ferske nysnoeflak. Svake lag i snoedekket gir en utfordrende situasjon over skoggrensa.'
p3281
sg2043
Nsg32
I3
sg24
S'Fjordane'
p3282
sg20
g2045
sg2046
(lp3283
sg2048
Nsg2049
I121
sg7
g8
(S'\x07\xe0\x01\x18'
p3284
tp3285
Rp3286
sg15
S'3 Betydelig'
p3287
sg22
(dp3288
g2054
VKrevende forhold. Unng leomrder hvor det legger seg opp ferske nysnflak. Svake lag i sndekket gir en utfordrende situasjon over skoggrensa. 
p3289
ssg2056
S'Forecast API'
p3290
sba(igetdangers
AvalancheDanger
p3291
(dp3292
g2041
Nsg2043
Nsg32
I2
sg24
S'Fjordane'
p3293
sg20
g2204
sg2046
(lp3294
sg2048
Vbrit-siv@obskorps
p3295
sg2049
I121
sg7
g8
(S'\x07\xe0\x01\x18'
p3296
tp3297
Rp3298
sg15
S'2 Moderat'
p3299
sg22
(dp3300
g2212
g2213
(S'\x07\xe0\x01\x18\x11\x17\x15\x00\x00\x00'
p3301
tp3302
Rp3303
ssg2056
S'AvalancheEvaluation3V'
p3304
sba(igetdangers
AvalancheDanger
p3305
(dp3306
g2041
S'Flere nedsnoedde svake lag kan foere til middels store skred. I lavlandet kan det gaa vaate skred i bratt terreng.'
p3307
sg2043
Nsg32
I3
sg24
S'Fjordane'
p3308
sg20
g2045
sg2046
(lp3309
sg2048
Nsg2049
I121
sg7
g8
(S'\x07\xe0\x01\x19'
p3310
tp3311
Rp3312
sg15
S'3 Betydelig'
p3313
sg22
(dp3314
g2054
VFlere nedsndde svake lag kan fre til middels store skred. I lavlandet kan det g vte skred i bratt terreng.
p3315
ssg2056
S'Forecast API'
p3316
sba(igetdangers
AvalancheDanger
p3317
(dp3318
g2041
S'Generelt ustabile forhold, saerlig over nysnoegrensa. Nysnoeflak i hoeyden, mulighet for vaate skred i lavereliggende stroek.'
p3319
sg2043
Nsg32
I3
sg24
S'Fjordane'
p3320
sg20
g2045
sg2046
(lp3321
sg2048
Nsg2049
I121
sg7
g8
(S'\x07\xe0\x01\x1a'
p3322
tp3323
Rp3324
sg15
S'3 Betydelig'
p3325
sg22
(dp3326
g2054
VGenerelt ustabile forhold, srlig over nysngrensa. Nysnflak i hyden, mulighet for vte skred i lavereliggende strk.
p3327
ssg2056
S'Forecast API'
p3328
sba(igetdangers
AvalancheDanger
p3329
(dp3330
g2041
Nsg2043
Nsg32
I3
sg24
S'Fjordane'
p3331
sg20
g2204
sg2046
(lp3332
sg2048
Vbrit-siv@obskorps
p3333
sg2049
I121
sg7
g8
(S'\x07\xe0\x01\x1a'
p3334
tp3335
Rp3336
sg15
S'3 Betydelig'
p3337
sg22
(dp3338
g2212
g2213
(S"\x07\xe0\x01\x1a\x12 '\x00\x00\x00"
p3339
tp3340
Rp3341
ssg2056
S'AvalancheEvaluation3V'
p3342
sba(igetdangers
AvalancheDanger
p3343
(dp3344
g2041
S'Ustabile nysnoeflak i leomraader er hovedproblemet. Vaate loessnoeskred i lavlandet. Synkende skredfare mot 2-moderat utover dagen hvis lite nedboer.'
p3345
sg2043
Nsg32
I3
sg24
S'Fjordane'
p3346
sg20
g2045
sg2046
(lp3347
sg2048
Nsg2049
I121
sg7
g8
(S'\x07\xe0\x01\x1b'
p3348
tp3349
Rp3350
sg15
S'3 Betydelig'
p3351
sg22
(dp3352
g2054
VUstabile nysnflak i leomrder er hovedproblemet. Vte lssnskred i lavlandet. Synkende skredfare mot 2-moderat utover dagen hvis lite nedbr.
p3353
ssg2056
S'Forecast API'
p3354
sba(igetdangers
AvalancheDanger
p3355
(dp3356
g2041
S'Unngaa bratt terreng med fersk fokksnoe.'
p3357
sg2043
Nsg32
I3
sg24
S'Fjordane'
p3358
sg20
g2045
sg2046
(lp3359
sg2048
Nsg2049
I121
sg7
g8
(S'\x07\xe0\x01\x1c'
p3360
tp3361
Rp3362
sg15
S'3 Betydelig'
p3363
sg22
(dp3364
g2054
VUnng bratt terreng med fersk fokksn.
p3365
ssg2056
S'Forecast API'
p3366
sba(igetdangers
AvalancheDanger
p3367
(dp3368
g2041
Nsg2043
Nsg32
I3
sg24
S'Fjordane'
p3369
sg20
g2204
sg2046
(lp3370
sg2048
VSiljeM@Svv
p3371
sg2049
I121
sg7
g8
(S'\x07\xe0\x01\x1c'
p3372
tp3373
Rp3374
sg15
S'3 Betydelig'
p3375
sg22
(dp3376
g2212
g2213
(S'\x07\xe0\x01\x1c\x0c#\x06\x00\x00\x00'
p3377
tp3378
Rp3379
ssg2056
S'AvalancheEvaluation3V'
p3380
sba(igetdangers
AvalancheDanger
p3381
(dp3382
g2041
S'Omfattende ustabile forhold pga. store nysnoemengder og vind. Naturlig utloeste skred forventes. Unngaa skredterreng.'
p3383
sg2043
Nsg32
I4
sg24
S'Fjordane'
p3384
sg20
g2045
sg2046
(lp3385
sg2048
Nsg2049
I121
sg7
g8
(S'\x07\xe0\x01\x1d'
p3386
tp3387
Rp3388
sg15
S'4 Stor'
p3389
sg22
(dp3390
g2054
VOmfattende ustabile forhold pga. store nysnmengder og vind. Naturlig utlste skred forventes. Unng skredterreng.
p3391
ssg2056
S'Forecast API'
p3392
sba(igetdangers
AvalancheDanger
p3393
(dp3394
g2041
S'Omfattende ustabile forhold pga. store nysnoe mengder og vind. Naturlig utloeste skred forventes. Skredfaren er synkende mot FG3-betydelig utover formiddagen.'
p3395
sg2043
Nsg32
I4
sg24
S'Fjordane'
p3396
sg20
g2045
sg2046
(lp3397
sg2048
Nsg2049
I121
sg7
g8
(S'\x07\xe0\x01\x1e'
p3398
tp3399
Rp3400
sg15
S'4 Stor'
p3401
sg22
(dp3402
g2054
VOmfattende ustabile forhold pga. store nysn mengder og vind. Naturlig utlste skred forventes. Skredfaren er synkende mot FG3-betydelig utover formiddagen.
p3403
ssg2056
S'Forecast API'
p3404
sba(igetdangers
AvalancheDanger
p3405
(dp3406
g2041
Nsg2043
Nsg32
I3
sg24
S'Fjordane'
p3407
sg20
g2204
sg2046
(lp3408
sg2048
Vbrit-siv@obskorps
p3409
sg2049
I121
sg7
g8
(S'\x07\xe0\x01\x1e'
p3410
tp3411
Rp3412
sg15
S'3 Betydelig'
p3413
sg22
(dp3414
g2212
g2213
(S'\x07\xe0\x01\x1e\x138\x02\x00\x00\x00'
p3415
tp3416
Rp3417
ssg2056
S'AvalancheEvaluation3V'
p3418
sba(igetdangers
AvalancheDanger
p3419
(dp3420
g2041
S'Vind og nysnoe kan gi ustabile forhold i mange bratte heng. Unngaa leomraade kor det samlar seg fersk fokksnoe, typisk bak ryggar, i soekk og renneformasjonar.'
p3421
sg2043
Nsg32
I3
sg24
S'Fjordane'
p3422
sg20
g2045
sg2046
(lp3423
sg2048
Nsg2049
I121
sg7
g8
(S'\x07\xe0\x01\x1f'
p3424
tp3425
Rp3426
sg15
S'3 Betydelig'
p3427
sg22
(dp3428
g2054
VVind og nysn kan gi ustabile forhold i mange bratte heng. Unng leomrde kor det samlar seg fersk fokksn, typisk bak ryggar, i skk og renneformasjonar.
p3429
ssg2056
S'Forecast API'
p3430
sba(igetdangers
AvalancheDanger
p3431
(dp3432
g2041
S''
p3433
sg2043
Nsg32
I3
sg24
S'Fjordane'
p3434
sg20
g2045
sg2046
(lp3435
sg2048
Nsg2049
I121
sg7
g8
(S'\x07\xe0\x02\x01'
p3436
tp3437
Rp3438
sg15
S'3 Betydelig'
p3439
sg22
(dp3440
g2054
V
p3441
ssg2056
S'Forecast API'
p3442
sbaa.