ccollections
OrderedDict
p0
((lp1
(lp2
I0
a(igetkdvelements
KDVelement
p3
(dp4
S'Description'
p5
NsS'Langkey'
p6
I1
sS'SortOrder'
p7
I1
sS'ID'
p8
I0
sS'IsActive'
p9
I01
sS'Name'
p10
S'Ikke gitt'
p11
sbaa(lp12
I1
a(igetkdvelements
KDVelement
p13
(dp14
g5
Nsg6
I1
sg7
I2
sg8
I1
sg9
I01
sg10
S'Ingen faretegn observert'
p15
sbaa(lp16
I2
a(igetkdvelements
KDVelement
p17
(dp18
g5
Nsg6
I1
sg7
I3
sg8
I2
sg9
I01
sg10
S'Ferske skred'
p19
sbaa(lp20
I3
a(igetkdvelements
KDVelement
p21
(dp22
g5
Nsg6
I1
sg7
I4
sg8
I3
sg9
I01
sg10
S'Droenn i snoeen'
p23
sbaa(lp24
I4
a(igetkdvelements
KDVelement
p25
(dp26
g5
Nsg6
I1
sg7
I5
sg8
I4
sg9
I01
sg10
S'Ferske sprekker'
p27
sbaa(lp28
I5
a(igetkdvelements
KDVelement
p29
(dp30
g5
S'Brukes i elrapp'
p31
sg6
I1
sg7
I6
sg8
I5
sg9
I01
sg10
S'Stort snoefall'
p32
sbaa(lp33
I6
a(igetkdvelements
KDVelement
p34
(dp35
g5
Nsg6
I1
sg7
I7
sg8
I6
sg9
I01
sg10
S'Rimkrystaller'
p36
sbaa(lp37
I7
a(igetkdvelements
KDVelement
p38
(dp39
g5
Nsg6
I1
sg7
I8
sg8
I7
sg9
I01
sg10
S'Rask temperaturstigning'
p40
sbaa(lp41
I8
a(igetkdvelements
KDVelement
p42
(dp43
g5
Nsg6
I1
sg7
I9
sg8
I8
sg9
I01
sg10
S'Mye vann i snoeen'
p44
sbaa(lp45
I9
a(igetkdvelements
KDVelement
p46
(dp47
g5
Nsg6
I1
sg7
I10
sg8
I9
sg9
I01
sg10
S'Fersk vindtransportert snoe'
p48
sbaa(lp49
I99
a(igetkdvelements
KDVelement
p50
(dp51
g5
Nsg6
I1
sg7
I99
sg8
I99
sg9
I01
sg10
S'Annet faretegn (spesifiser)'
p52
sbaa(lp53
I200
a(igetkdvelements
KDVelement
p54
(dp55
g5
Nsg6
I1
sg7
I201
sg8
I200
sg9
I01
sg10
S'Ikke gitt'
p56
sbaa(lp57
I201
a(igetkdvelements
KDVelement
p58
(dp59
g5
Nsg6
I1
sg7
I202
sg8
I201
sg9
I01
sg10
S'Ingen faretegn observert'
p60
sbaa(lp61
I202
a(igetkdvelements
KDVelement
p62
(dp63
g5
Nsg6
I1
sg7
I203
sg8
I202
sg9
I01
sg10
S'Intenst regnvaer'
p64
sbaa(lp65
I203
a(igetkdvelements
KDVelement
p66
(dp67
g5
Nsg6
I1
sg7
I204
sg8
I203
sg9
I01
sg10
S'Intens snoesmelting'
p68
sbaa(lp69
I204
a(igetkdvelements
KDVelement
p70
(dp71
g5
Nsg6
I1
sg7
I211
sg8
I204
sg9
I01
sg10
S'Overvann i terreng'
p72
sbaa(lp73
I205
a(igetkdvelements
KDVelement
p74
(dp75
g5
Nsg6
I1
sg7
I212
sg8
I205
sg9
I01
sg10
S'Utilstrekkelig drenering'
p76
sbaa(lp77
I206
a(igetkdvelements
KDVelement
p78
(dp79
g5
Nsg6
I1
sg7
I207
sg8
I206
sg9
I01
sg10
S'Stor vannfoering i bekker/elver'
p80
sbaa(lp81
I207
a(igetkdvelements
KDVelement
p82
(dp83
g5
Nsg6
I1
sg7
I208
sg8
I207
sg9
I01
sg10
S'Jordfarga bekker/elver'
p84
sbaa(lp85
I208
a(igetkdvelements
KDVelement
p86
(dp87
g5
Nsg6
I1
sg7
I213
sg8
I208
sg9
I01
sg10
S'Sprekker/sig i terrenget'
p88
sbaa(lp89
I209
a(igetkdvelements
KDVelement
p90
(dp91
g5
Nsg6
I1
sg7
I214
sg8
I209
sg9
I01
sg10
S'Ferske jordskred'
p92
sbaa(lp93
I210
a(igetkdvelements
KDVelement
p94
(dp95
g5
Nsg6
I1
sg7
Nsg8
I210
sg9
I00
sg10
S'Sprekker i terrenget'
p96
sbaa(lp97
I211
a(igetkdvelements
KDVelement
p98
(dp99
g5
Nsg6
I1
sg7
Nsg8
I211
sg9
I00
sg10
S'Rask oekning i grunnvannstand'
p100
sbaa(lp101
I212
a(igetkdvelements
KDVelement
p102
(dp103
g5
Nsg6
I1
sg7
I205
sg8
I212
sg9
I01
sg10
S'Snoedekke med mye vann'
p104
sbaa(lp105
I214
a(igetkdvelements
KDVelement
p106
(dp107
g5
Nsg6
I1
sg7
I210
sg8
I214
sg9
I01
sg10
S'Bekker tar nye loep'
p108
sbaa(lp109
I220
a(igetkdvelements
KDVelement
p110
(dp111
g5
Nsg6
I1
sg7
Nsg8
I220
sg9
I00
sg10
S'Terreng nedsynkning'
p112
sbaa(lp113
I221
a(igetkdvelements
KDVelement
p114
(dp115
g5
Nsg6
I1
sg7
Nsg8
I221
sg9
I00
sg10
S'Sig i massene'
p116
sbaa(lp117
I222
a(igetkdvelements
KDVelement
p118
(dp119
g5
Nsg6
I1
sg7
I215
sg8
I222
sg9
I01
sg10
S'Massebevegelse langs skredkant'
p120
sbaa(lp121
I223
a(igetkdvelements
KDVelement
p122
(dp123
g5
S'Tre som boeyer seg'
p124
sg6
I1
sg7
I216
sg8
I223
sg9
I01
sg10
S'"Fulle traer"'
p125
sbaa(lp126
I230
a(igetkdvelements
KDVelement
p127
(dp128
g5
Nsg6
I1
sg7
I209
sg8
I230
sg9
I01
sg10
S'Erosjon langs bekker/elver'
p129
sbaa(lp130
I240
a(igetkdvelements
KDVelement
p131
(dp132
g5
Nsg6
I1
sg7
Nsg8
I240
sg9
I00
sg10
S'Nye oppdemmingar i terrenget'
p133
sbaa(lp134
I250
a(igetkdvelements
KDVelement
p135
(dp136
g5
Nsg6
I1
sg7
Nsg8
I250
sg9
I00
sg10
S'Steinsprang'
p137
sbaa(lp138
I299
a(igetkdvelements
KDVelement
p139
(dp140
g5
Nsg6
I1
sg7
I220
sg8
I299
sg9
I01
sg10
S'Andre faretegn (spesifiser)'
p141
sbaa(lp142
I302
a(igetkdvelements
KDVelement
p143
(dp144
g5
Nsg6
I1
sg7
Nsg8
I302
sg9
I00
sg10
S'Erosjon/utglidninger langs elv'
p145
sbaa(lp146
I311
a(igetkdvelements
KDVelement
p147
(dp148
g5
Nsg6
I1
sg7
Nsg8
I311
sg9
I00
sg10
S'Nye bekker'
p149
sbaa(lp150
I312
a(igetkdvelements
KDVelement
p151
(dp152
g5
Nsg6
I1
sg7
Nsg8
I312
sg9
I00
sg10
S'Bekker som forsvinner'
p153
sbaa(lp154
I313
a(igetkdvelements
KDVelement
p155
(dp156
g5
Nsg6
I1
sg7
Nsg8
I313
sg9
I00
sg10
S'Jordfarget bekk/elv'
p157
sbaa(lp158
I320
a(igetkdvelements
KDVelement
p159
(dp160
g5
Nsg6
I1
sg7
Nsg8
I320
sg9
I00
sg10
S'Nye oppdemmingar i terrenget'
p161
sbaa(lp162
I399
a(igetkdvelements
KDVelement
p163
(dp164
g5
Nsg6
I1
sg7
Nsg8
I399
sg9
I00
sg10
S'Annet (spesifiser)'
p165
sbaa(lp166
I600
a(igetkdvelements
KDVelement
p167
(dp168
g5
Nsg6
I1
sg7
I600
sg8
I600
sg9
I01
sg10
S'Ikke gitt'
p169
sbaa(lp170
I601
a(igetkdvelements
KDVelement
p171
(dp172
g5
Nsg6
I1
sg7
I601
sg8
I601
sg9
I01
sg10
S'Ingen faretegn observert'
p173
sbaa(lp174
I611
a(igetkdvelements
KDVelement
p175
(dp176
g5
Nsg6
I1
sg7
I611
sg8
I611
sg9
I01
sg10
S'Tette stikkrenner pga is'
p177
sbaa(lp178
I612
a(igetkdvelements
KDVelement
p179
(dp180
g5
Nsg6
I1
sg7
I612
sg8
I612
sg9
I01
sg10
S'Tette stikkrenner pga rusk'
p181
sbaa(lp182
I621
a(igetkdvelements
KDVelement
p183
(dp184
g5
Nsg6
I1
sg7
I621
sg8
I621
sg9
I01
sg10
S'Moderat vannstandsauke'
p185
sbaa(lp186
I622
a(igetkdvelements
KDVelement
p187
(dp188
g5
Nsg6
I1
sg7
I622
sg8
I622
sg9
I01
sg10
S'Kraftig vannstandsauke'
p189
sbaa(lp190
I623
a(igetkdvelements
KDVelement
p191
(dp192
g5
Nsg6
I1
sg7
I623
sg8
I623
sg9
I01
sg10
S'Hoey vannstand/flom'
p193
sbaa(lp194
I699
a(igetkdvelements
KDVelement
p195
(dp196
g5
Nsg6
I1
sg7
I699
sg8
I699
sg9
I01
sg10
S'Annet (spesifiser)'
p197
sbaa(lp198
I700
a(igetkdvelements
KDVelement
p199
(dp200
g5
Nsg6
I1
sg7
I700
sg8
I700
sg9
I01
sg10
S'Ikke gitt'
p201
sbaa(lp202
I701
a(igetkdvelements
KDVelement
p203
(dp204
g5
Nsg6
I1
sg7
I701
sg8
I701
sg9
I01
sg10
S'Ingen faretegn observert'
p205
sbaa(lp206
I705
a(igetkdvelements
KDVelement
p207
(dp208
g5
Nsg6
I1
sg7
I705
sg8
I705
sg9
I01
sg10
S'tynt isdekke'
p209
sbaa(lp210
I711
a(igetkdvelements
KDVelement
p211
(dp212
g5
Nsg6
I1
sg7
I711
sg8
I711
sg9
I01
sg10
S'Isen har loesnet fra land'
p213
sbaa(lp214
I712
a(igetkdvelements
KDVelement
p215
(dp216
g5
Nsg6
I1
sg7
I712
sg8
I712
sg9
I01
sg10
S'innloepsosen er aapen'
p217
sbaa(lp218
I713
a(igetkdvelements
KDVelement
p219
(dp220
g5
Nsg6
I1
sg7
I713
sg8
I713
sg9
I01
sg10
S'utloepsosen er aapen'
p221
sbaa(lp222
I714
a(igetkdvelements
KDVelement
p223
(dp224
g5
Nsg6
I1
sg7
I714
sg8
I714
sg9
I01
sg10
S'Store sprekker eller raaker'
p225
sbaa(lp226
I720
a(igetkdvelements
KDVelement
p227
(dp228
g5
Nsg6
I1
sg7
I720
sg8
I720
sg9
I01
sg10
S'mye overvann'
p229
sbaa(lp230
I730
a(igetkdvelements
KDVelement
p231
(dp232
g5
Nsg6
I1
sg7
I730
sg8
I730
sg9
I01
sg10
S'oekt vannfoering'
p233
sbaa(lp234
I799
a(igetkdvelements
KDVelement
p235
(dp236
g5
Nsg6
I1
sg7
I799
sg8
I799
sg9
I01
sg10
S'Annet (spesifiser)'
p237
sbaatp238
Rp239
.