ccollections
OrderedDict
p0
((lp1
(lp2
I0
a(igetkdvelements
KDVelement
p3
(dp4
S'Description'
p5
NsS'Langkey'
p6
I1
sS'SortOrder'
p7
I1
sS'ID'
p8
I0
sS'IsActive'
p9
I01
sS'Name'
p10
S'Ikke gitt'
p11
sbaa(lp12
I1
a(igetkdvelements
KDVelement
p13
(dp14
g5
S'Relativt ufarlig'
p15
sg6
I1
sg7
I2
sg8
I1
sg9
I01
sg10
S'1 - Harmloest'
p16
sbaa(lp17
I2
a(igetkdvelements
KDVelement
p18
(dp19
g5
S'Farlig for mennesker'
p20
sg6
I1
sg7
I3
sg8
I2
sg9
I01
sg10
S'2 - Smaa'
p21
sbaa(lp22
I3
a(igetkdvelements
KDVelement
p23
(dp24
g5
S'Farlig for liten infrastr'
p25
sg6
I1
sg7
I4
sg8
I3
sg9
I01
sg10
S'3 - Middels'
p26
sbaa(lp27
I4
a(igetkdvelements
KDVelement
p28
(dp29
g5
S'Farlig for stoerre infrastr'
p30
sg6
I1
sg7
I5
sg8
I4
sg9
I01
sg10
S'4 - Store'
p31
sbaa(lp32
I5
a(igetkdvelements
KDVelement
p33
(dp34
g5
S'Mulig det stoerste vi har sett'
p35
sg6
I1
sg7
I6
sg8
I5
sg9
I01
sg10
S'5 - Svaert store'
p36
sbaa(lp37
I9
a(igetkdvelements
KDVelement
p38
(dp39
g5
Nsg6
I1
sg7
I10
sg8
I9
sg9
I01
sg10
S'Ukjent'
p40
sbaatp41
Rp42
.