ccollections
OrderedDict
p0
((lp1
(lp2
I0
a(igetkdvelements
KDVelement
p3
(dp4
S'Description'
p5
NsS'Langkey'
p6
I1
sS'SortOrder'
p7
I1
sS'ID'
p8
I0
sS'IsActive'
p9
I01
sS'Name'
p10
S'Ikke gitt'
p11
sbaa(lp12
I1
a(igetkdvelements
KDVelement
p13
(dp14
g5
Nsg6
I1
sg7
I2
sg8
I1
sg9
I00
sg10
S'Ingen'
p15
sbaa(lp16
I2
a(igetkdvelements
KDVelement
p17
(dp18
g5
Nsg6
I1
sg7
I3
sg8
I2
sg9
I01
sg10
S'Ett (1)'
p19
sbaa(lp20
I3
a(igetkdvelements
KDVelement
p21
(dp22
g5
Nsg6
I1
sg7
I4
sg8
I3
sg9
I01
sg10
S'Noen (2-5)'
p23
sbaa(lp24
I4
a(igetkdvelements
KDVelement
p25
(dp26
g5
Nsg6
I1
sg7
I5
sg8
I4
sg9
I01
sg10
S'Flere (6-10)'
p27
sbaa(lp28
I5
a(igetkdvelements
KDVelement
p29
(dp30
g5
Nsg6
I1
sg7
I6
sg8
I5
sg9
I01
sg10
S'Mange (10 eller mer)'
p31
sbaatp32
Rp33
.