ccollections
OrderedDict
p0
((lp1
(lp2
I0
a(igetkdvelements
KDVelement
p3
(dp4
S'Description'
p5
NsS'Langkey'
p6
I1
sS'SortOrder'
p7
I0
sS'ID'
p8
I0
sS'IsActive'
p9
I01
sS'Name'
p10
S'Ikke gitt'
p11
sbaa(lp12
I100
a(igetkdvelements
KDVelement
p13
(dp14
g5
S'Omraadeinndeling for snoeobservasjoner (GeoHazardTID = 10)'
p15
sg6
I1
sg7
I0
sg8
I100
sg9
I01
sg10
S'Varslingsregion ikke gitt'
p16
sbaa(lp17
I101
a(igetkdvelements
KDVelement
p18
(dp19
g5
Nsg6
I1
sg7
Nsg8
I101
sg9
I00
sg10
S'ss&sN Testomraade 1'
p20
sbaa(lp21
I102
a(igetkdvelements
KDVelement
p22
(dp23
g5
Nsg6
I1
sg7
Nsg8
I102
sg9
I00
sg10
S'ss&sN Testomraade 2'
p24
sbaa(lp25
I103
a(igetkdvelements
KDVelement
p26
(dp27
g5
Nsg6
I1
sg7
Nsg8
I103
sg9
I00
sg10
S'ss&sN Testomraade 3'
p28
sbaa(lp29
I104
a(igetkdvelements
KDVelement
p30
(dp31
g5
Nsg6
I1
sg7
Nsg8
I104
sg9
I00
sg10
S'ss&sN Testomraade 4'
p32
sbaa(lp33
I105
a(igetkdvelements
KDVelement
p34
(dp35
g5
Nsg6
I1
sg7
Nsg8
I105
sg9
I00
sg10
S'ss&sN Testomraade 5'
p36
sbaa(lp37
I106
a(igetkdvelements
KDVelement
p38
(dp39
g5
Nsg6
I1
sg7
I10
sg8
I106
sg9
I01
sg10
S'Alta'
p40
sbaa(lp41
I107
a(igetkdvelements
KDVelement
p42
(dp43
g5
Nsg6
I1
sg7
I20
sg8
I107
sg9
I01
sg10
S'Kaafjord'
p44
sbaa(lp45
I108
a(igetkdvelements
KDVelement
p46
(dp47
g5
Nsg6
I1
sg7
I30
sg8
I108
sg9
I01
sg10
S'Tromsoe'
p48
sbaa(lp49
I109
a(igetkdvelements
KDVelement
p50
(dp51
g5
Nsg6
I1
sg7
I40
sg8
I109
sg9
I01
sg10
S'Balsfjord'
p52
sbaa(lp53
I110
a(igetkdvelements
KDVelement
p54
(dp55
g5
Nsg6
I1
sg7
I50
sg8
I110
sg9
I01
sg10
S'Senja'
p56
sbaa(lp57
I111
a(igetkdvelements
KDVelement
p58
(dp59
g5
Nsg6
I1
sg7
I22
sg8
I111
sg9
I01
sg10
S'Lyngsalpan'
p60
sbaa(lp61
I112
a(igetkdvelements
KDVelement
p62
(dp63
g5
Nsg6
I1
sg7
I70
sg8
I112
sg9
I01
sg10
S'Bardu'
p64
sbaa(lp65
I113
a(igetkdvelements
KDVelement
p66
(dp67
g5
Nsg6
I1
sg7
I80
sg8
I113
sg9
I00
sg10
S'Harstad'
p68
sbaa(lp69
I114
a(igetkdvelements
KDVelement
p70
(dp71
g5
Nsg6
I1
sg7
I90
sg8
I114
sg9
I01
sg10
S'Narvik'
p72
sbaa(lp73
I115
a(igetkdvelements
KDVelement
p74
(dp75
g5
Nsg6
I1
sg7
I100
sg8
I115
sg9
I01
sg10
S'Vesteraalen'
p76
sbaa(lp77
I116
a(igetkdvelements
KDVelement
p78
(dp79
g5
Nsg6
I1
sg7
I110
sg8
I116
sg9
I01
sg10
S'Lofoten'
p80
sbaa(lp81
I117
a(igetkdvelements
KDVelement
p82
(dp83
g5
Nsg6
I1
sg7
I120
sg8
I117
sg9
I01
sg10
S'Trollheimen'
p84
sbaa(lp85
I118
a(igetkdvelements
KDVelement
p86
(dp87
g5
Nsg6
I1
sg7
I130
sg8
I118
sg9
I01
sg10
S'Romsdal'
p88
sbaa(lp89
I119
a(igetkdvelements
KDVelement
p90
(dp91
g5
Nsg6
I1
sg7
I140
sg8
I119
sg9
I01
sg10
S'Sunnmoere'
p92
sbaa(lp93
I120
a(igetkdvelements
KDVelement
p94
(dp95
g5
Nsg6
I1
sg7
I150
sg8
I120
sg9
I00
sg10
S'Nordfjord'
p96
sbaa(lp97
I121
a(igetkdvelements
KDVelement
p98
(dp99
g5
Nsg6
I1
sg7
I160
sg8
I121
sg9
I01
sg10
S'Fjordane'
p100
sbaa(lp101
I122
a(igetkdvelements
KDVelement
p102
(dp103
g5
Nsg6
I1
sg7
I170
sg8
I122
sg9
I01
sg10
S'Sogn'
p104
sbaa(lp105
I123
a(igetkdvelements
KDVelement
p106
(dp107
g5
Nsg6
I1
sg7
I180
sg8
I123
sg9
I01
sg10
S'Jotunheimen'
p108
sbaa(lp109
I124
a(igetkdvelements
KDVelement
p110
(dp111
g5
Nsg6
I1
sg7
I190
sg8
I124
sg9
I01
sg10
S'Voss'
p112
sbaa(lp113
I125
a(igetkdvelements
KDVelement
p114
(dp115
g5
Nsg6
I1
sg7
I200
sg8
I125
sg9
I00
sg10
S'Hallingskarvet'
p116
sbaa(lp117
I126
a(igetkdvelements
KDVelement
p118
(dp119
g5
Nsg6
I1
sg7
I210
sg8
I126
sg9
I00
sg10
S'Hemsedalfjella'
p120
sbaa(lp121
I127
a(igetkdvelements
KDVelement
p122
(dp123
g5
Nsg6
I1
sg7
I220
sg8
I127
sg9
I01
sg10
S'Roeldal'
p124
sbaa(lp125
I128
a(igetkdvelements
KDVelement
p126
(dp127
g5
Nsg6
I1
sg7
I230
sg8
I128
sg9
I01
sg10
S'Rauland'
p128
sbaa(lp129
I129
a(igetkdvelements
KDVelement
p130
(dp131
g5
Nsg6
I1
sg7
I61
sg8
I129
sg9
I01
sg10
S'Tamokdalen'
p132
sbaa(lp133
I130
a(igetkdvelements
KDVelement
p134
(dp135
g5
Nsg6
I1
sg7
I240
sg8
I130
sg9
I01
sg10
S'Nordenskioldland'
p136
sbaa(lp137
I131
a(igetkdvelements
KDVelement
p138
(dp139
g5
Nsg6
I1
sg7
I115
sg8
I131
sg9
I01
sg10
S'Svartisen'
p140
sbaa(lp141
I132
a(igetkdvelements
KDVelement
p142
(dp143
g5
Nsg6
I1
sg7
I210
sg8
I132
sg9
I01
sg10
S'Hallingdal'
p144
sbaa(lp145
I133
a(igetkdvelements
KDVelement
p146
(dp147
g5
Nsg6
I1
sg7
I114
sg8
I133
sg9
I01
sg10
S'Salten'
p148
sbaa(lp149
I151
a(igetkdvelements
KDVelement
p150
(dp151
g5
Nsg6
I1
sg7
I269
sg8
I151
sg9
I01
sg10
S'OEstfold'
p152
sbaa(lp153
I152
a(igetkdvelements
KDVelement
p154
(dp155
g5
Nsg6
I1
sg7
I268
sg8
I152
sg9
I01
sg10
S'Akershus'
p156
sbaa(lp157
I153
a(igetkdvelements
KDVelement
p158
(dp159
g5
Nsg6
I1
sg7
I267
sg8
I153
sg9
I01
sg10
S'Oslo'
p160
sbaa(lp161
I154
a(igetkdvelements
KDVelement
p162
(dp163
g5
Nsg6
I1
sg7
I266
sg8
I154
sg9
I01
sg10
S'Hedmark'
p164
sbaa(lp165
I155
a(igetkdvelements
KDVelement
p166
(dp167
g5
Nsg6
I1
sg7
I265
sg8
I155
sg9
I01
sg10
S'Oppland'
p168
sbaa(lp169
I156
a(igetkdvelements
KDVelement
p170
(dp171
g5
Nsg6
I1
sg7
I264
sg8
I156
sg9
I01
sg10
S'Buskerud'
p172
sbaa(lp173
I157
a(igetkdvelements
KDVelement
p174
(dp175
g5
Nsg6
I1
sg7
I263
sg8
I157
sg9
I01
sg10
S'Vestfold'
p176
sbaa(lp177
I158
a(igetkdvelements
KDVelement
p178
(dp179
g5
Nsg6
I1
sg7
I262
sg8
I158
sg9
I01
sg10
S'Telemark'
p180
sbaa(lp181
I159
a(igetkdvelements
KDVelement
p182
(dp183
g5
Nsg6
I1
sg7
I261
sg8
I159
sg9
I01
sg10
S'Aust-Agder'
p184
sbaa(lp185
I160
a(igetkdvelements
KDVelement
p186
(dp187
g5
Nsg6
I1
sg7
I260
sg8
I160
sg9
I01
sg10
S'Vest-Agder'
p188
sbaa(lp189
I161
a(igetkdvelements
KDVelement
p190
(dp191
g5
Nsg6
I1
sg7
I259
sg8
I161
sg9
I01
sg10
S'Rogaland'
p192
sbaa(lp193
I162
a(igetkdvelements
KDVelement
p194
(dp195
g5
Nsg6
I1
sg7
I258
sg8
I162
sg9
I01
sg10
S'Hordaland'
p196
sbaa(lp197
I163
a(igetkdvelements
KDVelement
p198
(dp199
g5
Nsg6
I1
sg7
I257
sg8
I163
sg9
I01
sg10
S'Sogn og Fjordane'
p200
sbaa(lp201
I164
a(igetkdvelements
KDVelement
p202
(dp203
g5
Nsg6
I1
sg7
I256
sg8
I164
sg9
I01
sg10
S'Moere og Romsdal'
p204
sbaa(lp205
I165
a(igetkdvelements
KDVelement
p206
(dp207
g5
Nsg6
I1
sg7
I255
sg8
I165
sg9
I01
sg10
S'Soer-Troendelag'
p208
sbaa(lp209
I166
a(igetkdvelements
KDVelement
p210
(dp211
g5
Nsg6
I1
sg7
I254
sg8
I166
sg9
I01
sg10
S'Nord-Troendelag'
p212
sbaa(lp213
I167
a(igetkdvelements
KDVelement
p214
(dp215
g5
Nsg6
I1
sg7
I253
sg8
I167
sg9
I01
sg10
S'Nordland'
p216
sbaa(lp217
I168
a(igetkdvelements
KDVelement
p218
(dp219
g5
Nsg6
I1
sg7
I252
sg8
I168
sg9
I01
sg10
S'Troms'
p220
sbaa(lp221
I169
a(igetkdvelements
KDVelement
p222
(dp223
g5
Nsg6
I1
sg7
I251
sg8
I169
sg9
I01
sg10
S'Finnmark'
p224
sbaa(lp225
I170
a(igetkdvelements
KDVelement
p226
(dp227
g5
Nsg6
I1
sg7
I250
sg8
I170
sg9
I01
sg10
S'Svalbard'
p228
sbaa(lp229
I199
a(igetkdvelements
KDVelement
p230
(dp231
g5
Nsg6
I1
sg7
Nsg8
I199
sg9
I00
sg10
S'Annen region'
p232
sbaa(lp233
I200
a(igetkdvelements
KDVelement
p234
(dp235
g5
S'Omraadeinndeling for jordobservasjoner (GeoHazardTID = 20)'
p236
sg6
I1
sg7
I0
sg8
I200
sg9
I01
sg10
S'Fylke ikke gitt'
p237
sbaa(lp238
I201
a(igetkdvelements
KDVelement
p239
(dp240
g5
Nsg6
I1
sg7
I10
sg8
I201
sg9
I01
sg10
S'OEstfold'
p241
sbaa(lp242
I202
a(igetkdvelements
KDVelement
p243
(dp244
g5
Nsg6
I1
sg7
I20
sg8
I202
sg9
I01
sg10
S'Akershus'
p245
sbaa(lp246
I203
a(igetkdvelements
KDVelement
p247
(dp248
g5
Nsg6
I1
sg7
I30
sg8
I203
sg9
I01
sg10
S'Oslo'
p249
sbaa(lp250
I204
a(igetkdvelements
KDVelement
p251
(dp252
g5
Nsg6
I1
sg7
I40
sg8
I204
sg9
I01
sg10
S'Hedmark'
p253
sbaa(lp254
I205
a(igetkdvelements
KDVelement
p255
(dp256
g5
Nsg6
I1
sg7
I50
sg8
I205
sg9
I01
sg10
S'Oppland'
p257
sbaa(lp258
I206
a(igetkdvelements
KDVelement
p259
(dp260
g5
Nsg6
I1
sg7
I60
sg8
I206
sg9
I01
sg10
S'Buskerud'
p261
sbaa(lp262
I207
a(igetkdvelements
KDVelement
p263
(dp264
g5
Nsg6
I1
sg7
I70
sg8
I207
sg9
I01
sg10
S'Vestfold'
p265
sbaa(lp266
I208
a(igetkdvelements
KDVelement
p267
(dp268
g5
Nsg6
I1
sg7
I80
sg8
I208
sg9
I01
sg10
S'Telemark'
p269
sbaa(lp270
I209
a(igetkdvelements
KDVelement
p271
(dp272
g5
Nsg6
I1
sg7
I90
sg8
I209
sg9
I01
sg10
S'Aust-Agder'
p273
sbaa(lp274
I210
a(igetkdvelements
KDVelement
p275
(dp276
g5
Nsg6
I1
sg7
I100
sg8
I210
sg9
I01
sg10
S'Vest-Agder'
p277
sbaa(lp278
I211
a(igetkdvelements
KDVelement
p279
(dp280
g5
Nsg6
I1
sg7
I110
sg8
I211
sg9
I01
sg10
S'Rogaland'
p281
sbaa(lp282
I212
a(igetkdvelements
KDVelement
p283
(dp284
g5
Nsg6
I1
sg7
I120
sg8
I212
sg9
I01
sg10
S'Hordaland'
p285
sbaa(lp286
I214
a(igetkdvelements
KDVelement
p287
(dp288
g5
Nsg6
I1
sg7
I130
sg8
I214
sg9
I01
sg10
S'Sogn og Fjordane'
p289
sbaa(lp290
I215
a(igetkdvelements
KDVelement
p291
(dp292
g5
Nsg6
I1
sg7
I140
sg8
I215
sg9
I01
sg10
S'Moere og Romsdal'
p293
sbaa(lp294
I216
a(igetkdvelements
KDVelement
p295
(dp296
g5
Nsg6
I1
sg7
I150
sg8
I216
sg9
I01
sg10
S'Soer-Troendelag'
p297
sbaa(lp298
I217
a(igetkdvelements
KDVelement
p299
(dp300
g5
Nsg6
I1
sg7
I160
sg8
I217
sg9
I01
sg10
S'Nord-Troendelag'
p301
sbaa(lp302
I218
a(igetkdvelements
KDVelement
p303
(dp304
g5
Nsg6
I1
sg7
I170
sg8
I218
sg9
I01
sg10
S'Nordland'
p305
sbaa(lp306
I219
a(igetkdvelements
KDVelement
p307
(dp308
g5
Nsg6
I1
sg7
I180
sg8
I219
sg9
I01
sg10
S'Troms'
p309
sbaa(lp310
I220
a(igetkdvelements
KDVelement
p311
(dp312
g5
Nsg6
I1
sg7
I190
sg8
I220
sg9
I01
sg10
S'Finnmark'
p313
sbaa(lp314
I221
a(igetkdvelements
KDVelement
p315
(dp316
g5
Nsg6
I1
sg7
I200
sg8
I221
sg9
I01
sg10
S'Svalbard'
p317
sbaa(lp318
I222
a(igetkdvelements
KDVelement
p319
(dp320
g5
Nsg6
I1
sg7
I210
sg8
I222
sg9
I01
sg10
S'Jan Mayen'
p321
sbaa(lp322
I223
a(igetkdvelements
KDVelement
p323
(dp324
g5
Nsg6
I1
sg7
I220
sg8
I223
sg9
I01
sg10
S'Kontinentalsokkelen'
p325
sbaa(lp326
I299
a(igetkdvelements
KDVelement
p327
(dp328
g5
Nsg6
I1
sg7
I1000
sg8
I299
sg9
I01
sg10
S'Ukjent'
p329
sbaa(lp330
I300
a(igetkdvelements
KDVelement
p331
(dp332
g5
S'Omraadeinndeling for vaat-jordobservasjoner (GeoHazardTID = 30)'
p333
sg6
I1
sg7
I0
sg8
I300
sg9
I01
sg10
S'Fylke ikke gitt'
p334
sbaa(lp335
I301
a(igetkdvelements
KDVelement
p336
(dp337
g5
Nsg6
I1
sg7
I10
sg8
I301
sg9
I01
sg10
S'OEstfold'
p338
sbaa(lp339
I302
a(igetkdvelements
KDVelement
p340
(dp341
g5
Nsg6
I1
sg7
I20
sg8
I302
sg9
I01
sg10
S'Akershus'
p342
sbaa(lp343
I303
a(igetkdvelements
KDVelement
p344
(dp345
g5
Nsg6
I1
sg7
I30
sg8
I303
sg9
I01
sg10
S'Oslo'
p346
sbaa(lp347
I304
a(igetkdvelements
KDVelement
p348
(dp349
g5
Nsg6
I1
sg7
I40
sg8
I304
sg9
I01
sg10
S'Hedmark'
p350
sbaa(lp351
I305
a(igetkdvelements
KDVelement
p352
(dp353
g5
Nsg6
I1
sg7
I50
sg8
I305
sg9
I01
sg10
S'Oppland'
p354
sbaa(lp355
I306
a(igetkdvelements
KDVelement
p356
(dp357
g5
Nsg6
I1
sg7
I60
sg8
I306
sg9
I01
sg10
S'Buskerud'
p358
sbaa(lp359
I307
a(igetkdvelements
KDVelement
p360
(dp361
g5
Nsg6
I1
sg7
I70
sg8
I307
sg9
I01
sg10
S'Vestfold'
p362
sbaa(lp363
I308
a(igetkdvelements
KDVelement
p364
(dp365
g5
Nsg6
I1
sg7
I80
sg8
I308
sg9
I01
sg10
S'Telemark'
p366
sbaa(lp367
I309
a(igetkdvelements
KDVelement
p368
(dp369
g5
Nsg6
I1
sg7
I90
sg8
I309
sg9
I01
sg10
S'Aust-Agder'
p370
sbaa(lp371
I310
a(igetkdvelements
KDVelement
p372
(dp373
g5
Nsg6
I1
sg7
I100
sg8
I310
sg9
I01
sg10
S'Vest-Agder'
p374
sbaa(lp375
I311
a(igetkdvelements
KDVelement
p376
(dp377
g5
Nsg6
I1
sg7
I110
sg8
I311
sg9
I01
sg10
S'Rogaland'
p378
sbaa(lp379
I312
a(igetkdvelements
KDVelement
p380
(dp381
g5
Nsg6
I1
sg7
I120
sg8
I312
sg9
I01
sg10
S'Hordaland'
p382
sbaa(lp383
I314
a(igetkdvelements
KDVelement
p384
(dp385
g5
Nsg6
I1
sg7
I130
sg8
I314
sg9
I01
sg10
S'Sogn og Fjordane'
p386
sbaa(lp387
I315
a(igetkdvelements
KDVelement
p388
(dp389
g5
Nsg6
I1
sg7
I140
sg8
I315
sg9
I01
sg10
S'Moere og Romsdal'
p390
sbaa(lp391
I316
a(igetkdvelements
KDVelement
p392
(dp393
g5
Nsg6
I1
sg7
I150
sg8
I316
sg9
I01
sg10
S'Soer-Troendelag'
p394
sbaa(lp395
I317
a(igetkdvelements
KDVelement
p396
(dp397
g5
Nsg6
I1
sg7
I160
sg8
I317
sg9
I01
sg10
S'Nord-Troendelag'
p398
sbaa(lp399
I318
a(igetkdvelements
KDVelement
p400
(dp401
g5
Nsg6
I1
sg7
I170
sg8
I318
sg9
I01
sg10
S'Nordland'
p402
sbaa(lp403
I319
a(igetkdvelements
KDVelement
p404
(dp405
g5
Nsg6
I1
sg7
I180
sg8
I319
sg9
I01
sg10
S'Troms'
p406
sbaa(lp407
I320
a(igetkdvelements
KDVelement
p408
(dp409
g5
Nsg6
I1
sg7
I190
sg8
I320
sg9
I01
sg10
S'Finnmark'
p410
sbaa(lp411
I321
a(igetkdvelements
KDVelement
p412
(dp413
g5
Nsg6
I1
sg7
I200
sg8
I321
sg9
I01
sg10
S'Svalbard'
p414
sbaa(lp415
I322
a(igetkdvelements
KDVelement
p416
(dp417
g5
Nsg6
I1
sg7
I210
sg8
I322
sg9
I01
sg10
S'Jan Mayen'
p418
sbaa(lp419
I323
a(igetkdvelements
KDVelement
p420
(dp421
g5
Nsg6
I1
sg7
I220
sg8
I323
sg9
I01
sg10
S'Kontinentalsokkelen'
p422
sbaa(lp423
I399
a(igetkdvelements
KDVelement
p424
(dp425
g5
Nsg6
I1
sg7
I1000
sg8
I399
sg9
I01
sg10
S'Ukjent'
p426
sbaa(lp427
I400
a(igetkdvelements
KDVelement
p428
(dp429
g5
S'Omraadeinndeling for steinobservasjoner (GeoHazardTID = 40)'
p430
sg6
I1
sg7
I0
sg8
I400
sg9
I01
sg10
S'Fylke ikke gitt'
p431
sbaa(lp432
I401
a(igetkdvelements
KDVelement
p433
(dp434
g5
Nsg6
I1
sg7
I10
sg8
I401
sg9
I01
sg10
S'OEstfold'
p435
sbaa(lp436
I402
a(igetkdvelements
KDVelement
p437
(dp438
g5
Nsg6
I1
sg7
I20
sg8
I402
sg9
I01
sg10
S'Akershus'
p439
sbaa(lp440
I403
a(igetkdvelements
KDVelement
p441
(dp442
g5
Nsg6
I1
sg7
I30
sg8
I403
sg9
I01
sg10
S'Oslo'
p443
sbaa(lp444
I404
a(igetkdvelements
KDVelement
p445
(dp446
g5
Nsg6
I1
sg7
I40
sg8
I404
sg9
I01
sg10
S'Hedmark'
p447
sbaa(lp448
I405
a(igetkdvelements
KDVelement
p449
(dp450
g5
Nsg6
I1
sg7
I50
sg8
I405
sg9
I01
sg10
S'Oppland'
p451
sbaa(lp452
I406
a(igetkdvelements
KDVelement
p453
(dp454
g5
Nsg6
I1
sg7
I60
sg8
I406
sg9
I01
sg10
S'Buskerud'
p455
sbaa(lp456
I407
a(igetkdvelements
KDVelement
p457
(dp458
g5
Nsg6
I1
sg7
I70
sg8
I407
sg9
I01
sg10
S'Vestfold'
p459
sbaa(lp460
I408
a(igetkdvelements
KDVelement
p461
(dp462
g5
Nsg6
I1
sg7
I80
sg8
I408
sg9
I01
sg10
S'Telemark'
p463
sbaa(lp464
I409
a(igetkdvelements
KDVelement
p465
(dp466
g5
Nsg6
I1
sg7
I90
sg8
I409
sg9
I01
sg10
S'Aust-Agder'
p467
sbaa(lp468
I410
a(igetkdvelements
KDVelement
p469
(dp470
g5
Nsg6
I1
sg7
I100
sg8
I410
sg9
I01
sg10
S'Vest-Agder'
p471
sbaa(lp472
I411
a(igetkdvelements
KDVelement
p473
(dp474
g5
Nsg6
I1
sg7
I110
sg8
I411
sg9
I01
sg10
S'Rogaland'
p475
sbaa(lp476
I412
a(igetkdvelements
KDVelement
p477
(dp478
g5
Nsg6
I1
sg7
I120
sg8
I412
sg9
I01
sg10
S'Hordaland'
p479
sbaa(lp480
I414
a(igetkdvelements
KDVelement
p481
(dp482
g5
Nsg6
I1
sg7
I130
sg8
I414
sg9
I01
sg10
S'Sogn og Fjordane'
p483
sbaa(lp484
I415
a(igetkdvelements
KDVelement
p485
(dp486
g5
Nsg6
I1
sg7
I140
sg8
I415
sg9
I01
sg10
S'Moere og Romsdal'
p487
sbaa(lp488
I416
a(igetkdvelements
KDVelement
p489
(dp490
g5
Nsg6
I1
sg7
I150
sg8
I416
sg9
I01
sg10
S'Soer-Troendelag'
p491
sbaa(lp492
I417
a(igetkdvelements
KDVelement
p493
(dp494
g5
Nsg6
I1
sg7
I160
sg8
I417
sg9
I01
sg10
S'Nord-Troendelag'
p495
sbaa(lp496
I418
a(igetkdvelements
KDVelement
p497
(dp498
g5
Nsg6
I1
sg7
I170
sg8
I418
sg9
I01
sg10
S'Nordland'
p499
sbaa(lp500
I419
a(igetkdvelements
KDVelement
p501
(dp502
g5
Nsg6
I1
sg7
I180
sg8
I419
sg9
I01
sg10
S'Troms'
p503
sbaa(lp504
I420
a(igetkdvelements
KDVelement
p505
(dp506
g5
Nsg6
I1
sg7
I190
sg8
I420
sg9
I01
sg10
S'Finnmark'
p507
sbaa(lp508
I421
a(igetkdvelements
KDVelement
p509
(dp510
g5
Nsg6
I1
sg7
I200
sg8
I421
sg9
I01
sg10
S'Svalbard'
p511
sbaa(lp512
I422
a(igetkdvelements
KDVelement
p513
(dp514
g5
Nsg6
I1
sg7
I210
sg8
I422
sg9
I01
sg10
S'Jan Mayen'
p515
sbaa(lp516
I423
a(igetkdvelements
KDVelement
p517
(dp518
g5
Nsg6
I1
sg7
I220
sg8
I423
sg9
I01
sg10
S'Kontinentalsokkelen'
p519
sbaa(lp520
I499
a(igetkdvelements
KDVelement
p521
(dp522
g5
Nsg6
I1
sg7
I1000
sg8
I499
sg9
I01
sg10
S'Ukjent'
p523
sbaa(lp524
I700
a(igetkdvelements
KDVelement
p525
(dp526
g5
S'Omraadeinndeling for isobservasjoner (GeoHazardTID = 70)'
p527
sg6
I1
sg7
I0
sg8
I700
sg9
I01
sg10
S'Fylke ikke gitt'
p528
sbaa(lp529
I701
a(igetkdvelements
KDVelement
p530
(dp531
g5
Nsg6
I1
sg7
I10
sg8
I701
sg9
I01
sg10
S'OEstfold'
p532
sbaa(lp533
I702
a(igetkdvelements
KDVelement
p534
(dp535
g5
Nsg6
I1
sg7
I20
sg8
I702
sg9
I01
sg10
S'Akershus'
p536
sbaa(lp537
I703
a(igetkdvelements
KDVelement
p538
(dp539
g5
Nsg6
I1
sg7
I30
sg8
I703
sg9
I01
sg10
S'Oslo'
p540
sbaa(lp541
I704
a(igetkdvelements
KDVelement
p542
(dp543
g5
Nsg6
I1
sg7
I40
sg8
I704
sg9
I01
sg10
S'Hedmark'
p544
sbaa(lp545
I705
a(igetkdvelements
KDVelement
p546
(dp547
g5
Nsg6
I1
sg7
I50
sg8
I705
sg9
I01
sg10
S'Oppland'
p548
sbaa(lp549
I706
a(igetkdvelements
KDVelement
p550
(dp551
g5
Nsg6
I1
sg7
I60
sg8
I706
sg9
I01
sg10
S'Buskerud'
p552
sbaa(lp553
I707
a(igetkdvelements
KDVelement
p554
(dp555
g5
Nsg6
I1
sg7
I70
sg8
I707
sg9
I01
sg10
S'Vestfold'
p556
sbaa(lp557
I708
a(igetkdvelements
KDVelement
p558
(dp559
g5
Nsg6
I1
sg7
I80
sg8
I708
sg9
I01
sg10
S'Telemark'
p560
sbaa(lp561
I709
a(igetkdvelements
KDVelement
p562
(dp563
g5
Nsg6
I1
sg7
I90
sg8
I709
sg9
I01
sg10
S'Aust-Agder'
p564
sbaa(lp565
I710
a(igetkdvelements
KDVelement
p566
(dp567
g5
Nsg6
I1
sg7
I100
sg8
I710
sg9
I01
sg10
S'Vest-Agder'
p568
sbaa(lp569
I711
a(igetkdvelements
KDVelement
p570
(dp571
g5
Nsg6
I1
sg7
I110
sg8
I711
sg9
I01
sg10
S'Rogaland'
p572
sbaa(lp573
I712
a(igetkdvelements
KDVelement
p574
(dp575
g5
Nsg6
I1
sg7
I120
sg8
I712
sg9
I01
sg10
S'Hordaland'
p576
sbaa(lp577
I714
a(igetkdvelements
KDVelement
p578
(dp579
g5
Nsg6
I1
sg7
I130
sg8
I714
sg9
I01
sg10
S'Sogn og Fjordane'
p580
sbaa(lp581
I715
a(igetkdvelements
KDVelement
p582
(dp583
g5
Nsg6
I1
sg7
I140
sg8
I715
sg9
I01
sg10
S'Moere og Romsdal'
p584
sbaa(lp585
I716
a(igetkdvelements
KDVelement
p586
(dp587
g5
Nsg6
I1
sg7
I150
sg8
I716
sg9
I01
sg10
S'Soer-Troendelag'
p588
sbaa(lp589
I717
a(igetkdvelements
KDVelement
p590
(dp591
g5
Nsg6
I1
sg7
I160
sg8
I717
sg9
I01
sg10
S'Nord-Troendelag'
p592
sbaa(lp593
I718
a(igetkdvelements
KDVelement
p594
(dp595
g5
Nsg6
I1
sg7
I170
sg8
I718
sg9
I01
sg10
S'Nordland'
p596
sbaa(lp597
I719
a(igetkdvelements
KDVelement
p598
(dp599
g5
Nsg6
I1
sg7
I180
sg8
I719
sg9
I01
sg10
S'Troms'
p600
sbaa(lp601
I720
a(igetkdvelements
KDVelement
p602
(dp603
g5
Nsg6
I1
sg7
I190
sg8
I720
sg9
I01
sg10
S'Finnmark'
p604
sbaa(lp605
I721
a(igetkdvelements
KDVelement
p606
(dp607
g5
Nsg6
I1
sg7
I200
sg8
I721
sg9
I01
sg10
S'Svalbard'
p608
sbaa(lp609
I722
a(igetkdvelements
KDVelement
p610
(dp611
g5
Nsg6
I1
sg7
I210
sg8
I722
sg9
I01
sg10
S'Jan Mayen'
p612
sbaa(lp613
I723
a(igetkdvelements
KDVelement
p614
(dp615
g5
Nsg6
I1
sg7
I220
sg8
I723
sg9
I01
sg10
S'Kontinentalsokkelen'
p616
sbaa(lp617
I799
a(igetkdvelements
KDVelement
p618
(dp619
g5
Nsg6
I1
sg7
I1000
sg8
I799
sg9
I01
sg10
S'Ukjent'
p620
sbaa(lp621
I1000
a(igetkdvelements
KDVelement
p622
(dp623
g5
S'Svenske varslingsregioner'
p624
sg6
I1
sg7
Nsg8
I1000
sg9
I01
sg10
S'Ingen varslingsregion SE'
p625
sbaa(lp626
I1001
a(igetkdvelements
KDVelement
p627
(dp628
g5
Nsg6
I1
sg7
Nsg8
I1001
sg9
I01
sg10
S'Treriksrset - Torne Trsk'
p629
sbaa(lp630
I1002
a(igetkdvelements
KDVelement
p631
(dp632
g5
Nsg6
I1
sg7
Nsg8
I1002
sg9
I01
sg10
S'Riksgrnsenfjllen'
p633
sbaa(lp634
I1003
a(igetkdvelements
KDVelement
p635
(dp636
g5
Nsg6
I1
sg7
Nsg8
I1003
sg9
I01
sg10
S'Abisko, Torne Trsk'
p637
sbaa(lp638
I1004
a(igetkdvelements
KDVelement
p639
(dp640
g5
Nsg6
I1
sg7
Nsg8
I1004
sg9
I01
sg10
S'Kebnekaise'
p641
sbaa(lp642
I1005
a(igetkdvelements
KDVelement
p643
(dp644
g5
Nsg6
I1
sg7
Nsg8
I1005
sg9
I01
sg10
S'Vstra Gllivarefjllen'
p645
sbaa(lp646
I1006
a(igetkdvelements
KDVelement
p647
(dp648
g5
Nsg6
I1
sg7
Nsg8
I1006
sg9
I01
sg10
S'stra Gllivarefjllen'
p649
sbaa(lp650
I1007
a(igetkdvelements
KDVelement
p651
(dp652
g5
Nsg6
I1
sg7
Nsg8
I1007
sg9
I01
sg10
S'Vstra Jokkmokksfjllen'
p653
sbaa(lp654
I1008
a(igetkdvelements
KDVelement
p655
(dp656
g5
Nsg6
I1
sg7
Nsg8
I1008
sg9
I01
sg10
S'stra Jokkmokksfjllen'
p657
sbaa(lp658
I1009
a(igetkdvelements
KDVelement
p659
(dp660
g5
Nsg6
I1
sg7
Nsg8
I1009
sg9
I01
sg10
S'Vstra Arjeplogsfjllen'
p661
sbaa(lp662
I1010
a(igetkdvelements
KDVelement
p663
(dp664
g5
Nsg6
I1
sg7
Nsg8
I1010
sg9
I01
sg10
S'stra Arjeplogsfjllen'
p665
sbaa(lp666
I1011
a(igetkdvelements
KDVelement
p667
(dp668
g5
Nsg6
I1
sg7
Nsg8
I1011
sg9
I01
sg10
S'Vstra Vindel- och Trnafjllen'
p669
sbaa(lp670
I1012
a(igetkdvelements
KDVelement
p671
(dp672
g5
Nsg6
I1
sg7
Nsg8
I1012
sg9
I01
sg10
S'stra Vindel- och Trnafjllen'
p673
sbaa(lp674
I1013
a(igetkdvelements
KDVelement
p675
(dp676
g5
Nsg6
I1
sg7
Nsg8
I1013
sg9
I01
sg10
S'Stekenjokksfjllen'
p677
sbaa(lp678
I1014
a(igetkdvelements
KDVelement
p679
(dp680
g5
Nsg6
I1
sg7
Nsg8
I1014
sg9
I01
sg10
S'Marsfjllen'
p681
sbaa(lp682
I1015
a(igetkdvelements
KDVelement
p683
(dp684
g5
Nsg6
I1
sg7
Nsg8
I1015
sg9
I01
sg10
S'Hotagen-Frostviken'
p685
sbaa(lp686
I1016
a(igetkdvelements
KDVelement
p687
(dp688
g5
Nsg6
I1
sg7
Nsg8
I1016
sg9
I01
sg10
S'Flatruet, Helags, Sylarna, Storlien'
p689
sbaa(lp690
I1017
a(igetkdvelements
KDVelement
p691
(dp692
g5
Nsg6
I1
sg7
Nsg8
I1017
sg9
I01
sg10
S'AAre, Vaalaadalen, Oviksfjllen'
p693
sbaa(lp694
I1018
a(igetkdvelements
KDVelement
p695
(dp696
g5
Nsg6
I1
sg7
Nsg8
I1018
sg9
I01
sg10
S'Ljungdalen, Funsdalen'
p697
sbaa(lp698
I1019
a(igetkdvelements
KDVelement
p699
(dp700
g5
Nsg6
I1
sg7
Nsg8
I1019
sg9
I01
sg10
S'Klvsj, Vemdalen'
p701
sbaa(lp702
I1020
a(igetkdvelements
KDVelement
p703
(dp704
g5
Nsg6
I1
sg7
Nsg8
I1020
sg9
I01
sg10
S'Idre, Grvelsjn'
p705
sbaa(lp706
I1021
a(igetkdvelements
KDVelement
p707
(dp708
g5
Nsg6
I1
sg7
Nsg8
I1021
sg9
I01
sg10
S'Slenfjllen'
p709
sbaa(lp710
I2000
a(igetkdvelements
KDVelement
p711
(dp712
g5
S'Ommraadeinndeling for vannobservasjoner (GeoHazardTID = 20)'
p713
sg6
I1
sg7
Nsg8
I2000
sg9
I01
sg10
S'Vassdrag ikke gitt'
p714
sbaa(lp715
I2001
a(igetkdvelements
KDVelement
p716
(dp717
g5
Nsg6
I1
sg7
Nsg8
I2001
sg9
I01
sg10
S'HALDENVASSDRAGET'
p718
sbaa(lp719
I2002
a(igetkdvelements
KDVelement
p720
(dp721
g5
Nsg6
I1
sg7
Nsg8
I2002
sg9
I01
sg10
S'GLOMMAVASSDRAGET'
p722
sbaa(lp723
I2003
a(igetkdvelements
KDVelement
p724
(dp725
g5
Nsg6
I1
sg7
Nsg8
I2003
sg9
I01
sg10
S'MOSSEVASSDRAGET'
p726
sbaa(lp727
I2004
a(igetkdvelements
KDVelement
p728
(dp729
g5
Nsg6
I1
sg7
Nsg8
I2004
sg9
I01
sg10
S'HOELENELVA'
p730
sbaa(lp731
I2005
a(igetkdvelements
KDVelement
p732
(dp733
g5
Nsg6
I1
sg7
Nsg8
I2005
sg9
I01
sg10
S'NESODDEN OG BUNNEFJORDEN'
p734
sbaa(lp735
I2006
a(igetkdvelements
KDVelement
p736
(dp737
g5
Nsg6
I1
sg7
Nsg8
I2006
sg9
I01
sg10
S'NORDMARKVASSDRAGET'
p738
sbaa(lp739
I2007
a(igetkdvelements
KDVelement
p740
(dp741
g5
Nsg6
I1
sg7
Nsg8
I2007
sg9
I01
sg10
S'LYSAKERELVA'
p742
sbaa(lp743
I2008
a(igetkdvelements
KDVelement
p744
(dp745
g5
Nsg6
I1
sg7
Nsg8
I2008
sg9
I01
sg10
S'SANDVIKSELVA'
p746
sbaa(lp747
I2009
a(igetkdvelements
KDVelement
p748
(dp749
g5
Nsg6
I1
sg7
Nsg8
I2009
sg9
I01
sg10
S'AAROSVASSDRAGET'
p750
sbaa(lp751
I2010
a(igetkdvelements
KDVelement
p752
(dp753
g5
Nsg6
I1
sg7
Nsg8
I2010
sg9
I01
sg10
S'HURUMLANDET OEST OG SOER'
p754
sbaa(lp755
I2011
a(igetkdvelements
KDVelement
p756
(dp757
g5
Nsg6
I1
sg7
Nsg8
I2011
sg9
I01
sg10
S'LIERELVA'
p758
sbaa(lp759
I2012
a(igetkdvelements
KDVelement
p760
(dp761
g5
Nsg6
I1
sg7
Nsg8
I2012
sg9
I01
sg10
S'DRAMMENSVASSDRAGET'
p762
sbaa(lp763
I2013
a(igetkdvelements
KDVelement
p764
(dp765
g5
Nsg6
I1
sg7
Nsg8
I2013
sg9
I01
sg10
S'SANDEVASSDRAGET'
p766
sbaa(lp767
I2014
a(igetkdvelements
KDVelement
p768
(dp769
g5
Nsg6
I1
sg7
Nsg8
I2014
sg9
I01
sg10
S'AULIVASSDRAGET'
p770
sbaa(lp771
I2015
a(igetkdvelements
KDVelement
p772
(dp773
g5
Nsg6
I1
sg7
Nsg8
I2015
sg9
I01
sg10
S'NUMEDALSLAAGEN OG SILJANVASSDRAGET'
p774
sbaa(lp775
I2016
a(igetkdvelements
KDVelement
p776
(dp777
g5
Nsg6
I1
sg7
Nsg8
I2016
sg9
I01
sg10
S'SKIENSVASSDRAGET'
p778
sbaa(lp779
I2017
a(igetkdvelements
KDVelement
p780
(dp781
g5
Nsg6
I1
sg7
Nsg8
I2017
sg9
I01
sg10
S'KRAGEROEVASSDRAGET'
p782
sbaa(lp783
I2018
a(igetkdvelements
KDVelement
p784
(dp785
g5
Nsg6
I1
sg7
Nsg8
I2018
sg9
I01
sg10
S'VEGAARSVASSDRAGET OG GJERSTADVASSDRAGET'
p786
sbaa(lp787
I2019
a(igetkdvelements
KDVelement
p788
(dp789
g5
Nsg6
I1
sg7
Nsg8
I2019
sg9
I01
sg10
S'ARENDALSVASSDRAGET'
p790
sbaa(lp791
I2020
a(igetkdvelements
KDVelement
p792
(dp793
g5
Nsg6
I1
sg7
Nsg8
I2020
sg9
I01
sg10
S'TOVDALSVASSDRAGET'
p794
sbaa(lp795
I2021
a(igetkdvelements
KDVelement
p796
(dp797
g5
Nsg6
I1
sg7
Nsg8
I2021
sg9
I01
sg10
S'OTRA'
p798
sbaa(lp799
I2022
a(igetkdvelements
KDVelement
p800
(dp801
g5
Nsg6
I1
sg7
Nsg8
I2022
sg9
I01
sg10
S'MANDALSELVA'
p802
sbaa(lp803
I2023
a(igetkdvelements
KDVelement
p804
(dp805
g5
Nsg6
I1
sg7
Nsg8
I2023
sg9
I01
sg10
S'AUDNA'
p806
sbaa(lp807
I2024
a(igetkdvelements
KDVelement
p808
(dp809
g5
Nsg6
I1
sg7
Nsg8
I2024
sg9
I01
sg10
S'LYGNA'
p810
sbaa(lp811
I2025
a(igetkdvelements
KDVelement
p812
(dp813
g5
Nsg6
I1
sg7
Nsg8
I2025
sg9
I01
sg10
S'KVINA'
p814
sbaa(lp815
I2026
a(igetkdvelements
KDVelement
p816
(dp817
g5
Nsg6
I1
sg7
Nsg8
I2026
sg9
I01
sg10
S'SIRA OG SOKNA'
p818
sbaa(lp819
I2027
a(igetkdvelements
KDVelement
p820
(dp821
g5
Nsg6
I1
sg7
Nsg8
I2027
sg9
I01
sg10
S'BJERKREIMVASSDRAGET'
p822
sbaa(lp823
I2028
a(igetkdvelements
KDVelement
p824
(dp825
g5
Nsg6
I1
sg7
Nsg8
I2028
sg9
I01
sg10
S'FIGGJO'
p826
sbaa(lp827
I2029
a(igetkdvelements
KDVelement
p828
(dp829
g5
Nsg6
I1
sg7
Nsg8
I2029
sg9
I01
sg10
S'STAVANGER OG SANDNES KOMMUNER'
p830
sbaa(lp831
I2030
a(igetkdvelements
KDVelement
p832
(dp833
g5
Nsg6
I1
sg7
Nsg8
I2030
sg9
I01
sg10
S'FRAFJORDELVA'
p834
sbaa(lp835
I2031
a(igetkdvelements
KDVelement
p836
(dp837
g5
Nsg6
I1
sg7
Nsg8
I2031
sg9
I01
sg10
S'LYSEVASSDRAGET'
p838
sbaa(lp839
I2032
a(igetkdvelements
KDVelement
p840
(dp841
g5
Nsg6
I1
sg7
Nsg8
I2032
sg9
I01
sg10
S'JOERPELANDSAANA'
p842
sbaa(lp843
I2033
a(igetkdvelements
KDVelement
p844
(dp845
g5
Nsg6
I1
sg7
Nsg8
I2033
sg9
I01
sg10
S'AARDALSELVA'
p846
sbaa(lp847
I2034
a(igetkdvelements
KDVelement
p848
(dp849
g5
Nsg6
I1
sg7
Nsg8
I2034
sg9
I01
sg10
S'RYFYLKEOEYANE'
p850
sbaa(lp851
I2035
a(igetkdvelements
KDVelement
p852
(dp853
g5
Nsg6
I1
sg7
Nsg8
I2035
sg9
I01
sg10
S'ULLA OG FOERREELVA'
p854
sbaa(lp855
I2036
a(igetkdvelements
KDVelement
p856
(dp857
g5
Nsg6
I1
sg7
Nsg8
I2036
sg9
I01
sg10
S'SULDALSVASSDRAGET'
p858
sbaa(lp859
I2037
a(igetkdvelements
KDVelement
p860
(dp861
g5
Nsg6
I1
sg7
Nsg8
I2037
sg9
I01
sg10
S'SAUDAVASSDRAGET'
p862
sbaa(lp863
I2038
a(igetkdvelements
KDVelement
p864
(dp865
g5
Nsg6
I1
sg7
Nsg8
I2038
sg9
I01
sg10
S'VIKEDALSELVA'
p866
sbaa(lp867
I2039
a(igetkdvelements
KDVelement
p868
(dp869
g5
Nsg6
I1
sg7
Nsg8
I2039
sg9
I01
sg10
S'KYST NEDSTRAND-HAUGESUND-TITTELSNES'
p870
sbaa(lp871
I2040
a(igetkdvelements
KDVelement
p872
(dp873
g5
Nsg6
I1
sg7
Nsg8
I2040
sg9
I01
sg10
S'KARMOEY'
p874
sbaa(lp875
I2041
a(igetkdvelements
KDVelement
p876
(dp877
g5
Nsg6
I1
sg7
Nsg8
I2041
sg9
I01
sg10
S'ETNEVASSDRAGET'
p878
sbaa(lp879
I2042
a(igetkdvelements
KDVelement
p880
(dp881
g5
Nsg6
I1
sg7
Nsg8
I2042
sg9
I01
sg10
S'BLAAELVA'
p882
sbaa(lp883
I2043
a(igetkdvelements
KDVelement
p884
(dp885
g5
Nsg6
I1
sg7
Nsg8
I2043
sg9
I01
sg10
S'BOEMLO'
p886
sbaa(lp887
I2044
a(igetkdvelements
KDVelement
p888
(dp889
g5
Nsg6
I1
sg7
Nsg8
I2044
sg9
I01
sg10
S'STORDOEYA'
p890
sbaa(lp891
I2045
a(igetkdvelements
KDVelement
p892
(dp893
g5
Nsg6
I1
sg7
Nsg8
I2045
sg9
I01
sg10
S'HARDANGERFJORDEN OEST: SUNDE-AENES'
p894
sbaa(lp895
I2046
a(igetkdvelements
KDVelement
p896
(dp897
g5
Nsg6
I1
sg7
Nsg8
I2046
sg9
I01
sg10
S'MAURANGERFJORDEN OG SILDEFJORDEN OEST'
p898
sbaa(lp899
I2047
a(igetkdvelements
KDVelement
p900
(dp901
g5
Nsg6
I1
sg7
Nsg8
I2047
sg9
I01
sg10
S'SAMLAFJORDEN SOER OG JONDAL KOMMUNE'
p902
sbaa(lp903
I2048
a(igetkdvelements
KDVelement
p904
(dp905
g5
Nsg6
I1
sg7
Nsg8
I2048
sg9
I01
sg10
S'OPO'
p906
sbaa(lp907
I2049
a(igetkdvelements
KDVelement
p908
(dp909
g5
Nsg6
I1
sg7
Nsg8
I2049
sg9
I01
sg10
S'TYSSO'
p910
sbaa(lp911
I2050
a(igetkdvelements
KDVelement
p912
(dp913
g5
Nsg6
I1
sg7
Nsg8
I2050
sg9
I01
sg10
S'EIDFJORDVASSDRAGET, KINSO OG SIMA'
p914
sbaa(lp915
I2051
a(igetkdvelements
KDVelement
p916
(dp917
g5
Nsg6
I1
sg7
Nsg8
I2051
sg9
I01
sg10
S'OSAFJORDEN, ULVIKFJORDEN OG EIDFJORDEN NORD'
p918
sbaa(lp919
I2052
a(igetkdvelements
KDVelement
p920
(dp921
g5
Nsg6
I1
sg7
Nsg8
I2052
sg9
I01
sg10
S'GRANVINFJORDEN OG SAMLAFJORDEN NORD'
p922
sbaa(lp923
I2053
a(igetkdvelements
KDVelement
p924
(dp925
g5
Nsg6
I1
sg7
Nsg8
I2053
sg9
I01
sg10
S'SAEVAREIDELVA'
p926
sbaa(lp927
I2054
a(igetkdvelements
KDVelement
p928
(dp929
g5
Nsg6
I1
sg7
Nsg8
I2054
sg9
I01
sg10
S'TYSNES OG AUSTEVOLL KOMMUNER'
p930
sbaa(lp931
I2055
a(igetkdvelements
KDVelement
p932
(dp933
g5
Nsg6
I1
sg7
Nsg8
I2055
sg9
I01
sg10
S'SAMNANGERVASSDRAGET'
p934
sbaa(lp935
I2056
a(igetkdvelements
KDVelement
p936
(dp937
g5
Nsg6
I1
sg7
Nsg8
I2056
sg9
I01
sg10
S'BERGEN OG OMEGN'
p938
sbaa(lp939
I2057
a(igetkdvelements
KDVelement
p940
(dp941
g5
Nsg6
I1
sg7
Nsg8
I2057
sg9
I01
sg10
S'SOTRA'
p942
sbaa(lp943
I2058
a(igetkdvelements
KDVelement
p944
(dp945
g5
Nsg6
I1
sg7
Nsg8
I2058
sg9
I01
sg10
S'OEYGARDEN KOMMUNE'
p946
sbaa(lp947
I2059
a(igetkdvelements
KDVelement
p948
(dp949
g5
Nsg6
I1
sg7
Nsg8
I2059
sg9
I01
sg10
S'ASKOEYA OG HOLSNOEYA'
p950
sbaa(lp951
I2060
a(igetkdvelements
KDVelement
p952
(dp953
g5
Nsg6
I1
sg7
Nsg8
I2060
sg9
I01
sg10
S'OSTEROEYA'
p954
sbaa(lp955
I2061
a(igetkdvelements
KDVelement
p956
(dp957
g5
Nsg6
I1
sg7
Nsg8
I2061
sg9
I01
sg10
S'BERGSDALSVASSDRAGET'
p958
sbaa(lp959
I2062
a(igetkdvelements
KDVelement
p960
(dp961
g5
Nsg6
I1
sg7
Nsg8
I2062
sg9
I01
sg10
S'VOSSOVASSDRAGET'
p962
sbaa(lp963
I2063
a(igetkdvelements
KDVelement
p964
(dp965
g5
Nsg6
I1
sg7
Nsg8
I2063
sg9
I01
sg10
S'EKSINGEDALSVASSDRAGET'
p966
sbaa(lp967
I2064
a(igetkdvelements
KDVelement
p968
(dp969
g5
Nsg6
I1
sg7
Nsg8
I2064
sg9
I01
sg10
S'STEINSLANDSVASSDRAGET'
p970
sbaa(lp971
I2065
a(igetkdvelements
KDVelement
p972
(dp973
g5
Nsg6
I1
sg7
Nsg8
I2065
sg9
I01
sg10
S'LINDAASHALVOEYA, SEIMSFJORDEN OG AUSTFJORDEN'
p974
sbaa(lp975
I2066
a(igetkdvelements
KDVelement
p976
(dp977
g5
Nsg6
I1
sg7
Nsg8
I2066
sg9
I01
sg10
S'FOSNOEYA, RADOEYA OG FEDJE'
p978
sbaa(lp979
I2067
a(igetkdvelements
KDVelement
p980
(dp981
g5
Nsg6
I1
sg7
Nsg8
I2067
sg9
I01
sg10
S'MASFJORDEN'
p982
sbaa(lp983
I2068
a(igetkdvelements
KDVelement
p984
(dp985
g5
Nsg6
I1
sg7
Nsg8
I2068
sg9
I01
sg10
S'SOGNESJOEEN SOER'
p986
sbaa(lp987
I2069
a(igetkdvelements
KDVelement
p988
(dp989
g5
Nsg6
I1
sg7
Nsg8
I2069
sg9
I01
sg10
S'YTRE SOGNEFJORDEN SOER: RUTLEDAL-VARMRAAK'
p990
sbaa(lp991
I2070
a(igetkdvelements
KDVelement
p992
(dp993
g5
Nsg6
I1
sg7
Nsg8
I2070
sg9
I01
sg10
S'VIKSVASSDRAGET'
p994
sbaa(lp995
I2071
a(igetkdvelements
KDVelement
p996
(dp997
g5
Nsg6
I1
sg7
Nsg8
I2071
sg9
I01
sg10
S'NAEROEYELVI'
p998
sbaa(lp999
I2072
a(igetkdvelements
KDVelement
p1000
(dp1001
g5
Nsg6
I1
sg7
Nsg8
I2072
sg9
I01
sg10
S'AURLANDSVASSDRAGET'
p1002
sbaa(lp1003
I2073
a(igetkdvelements
KDVelement
p1004
(dp1005
g5
Nsg6
I1
sg7
Nsg8
I2073
sg9
I01
sg10
S'LAERDALSVASSDRAGET'
p1006
sbaa(lp1007
I2074
a(igetkdvelements
KDVelement
p1008
(dp1009
g5
Nsg6
I1
sg7
Nsg8
I2074
sg9
I01
sg10
S'AARDALSVASSDRAGET'
p1010
sbaa(lp1011
I2075
a(igetkdvelements
KDVelement
p1012
(dp1013
g5
Nsg6
I1
sg7
Nsg8
I2075
sg9
I01
sg10
S'FORTUNVASSDRAGET'
p1014
sbaa(lp1015
I2076
a(igetkdvelements
KDVelement
p1016
(dp1017
g5
Nsg6
I1
sg7
Nsg8
I2076
sg9
I01
sg10
S'JOSTEDOELA'
p1018
sbaa(lp1019
I2077
a(igetkdvelements
KDVelement
p1020
(dp1021
g5
Nsg6
I1
sg7
Nsg8
I2077
sg9
I01
sg10
S'AAROEYVASSDRAGET'
p1022
sbaa(lp1023
I2078
a(igetkdvelements
KDVelement
p1024
(dp1025
g5
Nsg6
I1
sg7
Nsg8
I2078
sg9
I01
sg10
S'VETLEFJORDEN OG FJAERLANDSFJORDEN'
p1026
sbaa(lp1027
I2079
a(igetkdvelements
KDVelement
p1028
(dp1029
g5
Nsg6
I1
sg7
Nsg8
I2079
sg9
I01
sg10
S'HOEYANGERVASSDRAGET'
p1030
sbaa(lp1031
I2080
a(igetkdvelements
KDVelement
p1032
(dp1033
g5
Nsg6
I1
sg7
Nsg8
I2080
sg9
I01
sg10
S'YTRE SOGNEFJORDEN NORD: KYRKJEBOE-RISNES'
p1034
sbaa(lp1035
I2081
a(igetkdvelements
KDVelement
p1036
(dp1037
g5
Nsg6
I1
sg7
Nsg8
I2081
sg9
I01
sg10
S'SOLUND KOMMUNE'
p1038
sbaa(lp1039
I2082
a(igetkdvelements
KDVelement
p1040
(dp1041
g5
Nsg6
I1
sg7
Nsg8
I2082
sg9
I01
sg10
S'GUDDALSVASSDRAGET'
p1042
sbaa(lp1043
I2083
a(igetkdvelements
KDVelement
p1044
(dp1045
g5
Nsg6
I1
sg7
Nsg8
I2083
sg9
I01
sg10
S'GAULARVASSDRAGET'
p1046
sbaa(lp1047
I2084
a(igetkdvelements
KDVelement
p1048
(dp1049
g5
Nsg6
I1
sg7
Nsg8
I2084
sg9
I01
sg10
S'JOELSTRA'
p1050
sbaa(lp1051
I2085
a(igetkdvelements
KDVelement
p1052
(dp1053
g5
Nsg6
I1
sg7
Nsg8
I2085
sg9
I01
sg10
S'OSELVVASSDRAGET'
p1054
sbaa(lp1055
I2086
a(igetkdvelements
KDVelement
p1056
(dp1057
g5
Nsg6
I1
sg7
Nsg8
I2086
sg9
I01
sg10
S'GJENGEDALSVASSDRAGET'
p1058
sbaa(lp1059
I2087
a(igetkdvelements
KDVelement
p1060
(dp1061
g5
Nsg6
I1
sg7
Nsg8
I2087
sg9
I01
sg10
S'BREIMSVASSDRAGET'
p1062
sbaa(lp1063
I2088
a(igetkdvelements
KDVelement
p1064
(dp1065
g5
Nsg6
I1
sg7
Nsg8
I2088
sg9
I01
sg10
S'STRYNVASSDRAGET'
p1066
sbaa(lp1067
I2089
a(igetkdvelements
KDVelement
p1068
(dp1069
g5
Nsg6
I1
sg7
Nsg8
I2089
sg9
I01
sg10
S'HORNINDALVASSDRAGET'
p1070
sbaa(lp1071
I2090
a(igetkdvelements
KDVelement
p1072
(dp1073
g5
Nsg6
I1
sg7
Nsg8
I2090
sg9
I01
sg10
S'BREMANGERLANDET'
p1074
sbaa(lp1075
I2091
a(igetkdvelements
KDVelement
p1076
(dp1077
g5
Nsg6
I1
sg7
Nsg8
I2091
sg9
I01
sg10
S'SILDEGAPET'
p1078
sbaa(lp1079
I2092
a(igetkdvelements
KDVelement
p1080
(dp1081
g5
Nsg6
I1
sg7
Nsg8
I2092
sg9
I01
sg10
S'GUSDALELVA'
p1082
sbaa(lp1083
I2093
a(igetkdvelements
KDVelement
p1084
(dp1085
g5
Nsg6
I1
sg7
Nsg8
I2093
sg9
I01
sg10
S'ROVDEFJORDEN SOER OG SYVDEFJORDEN'
p1086
sbaa(lp1087
I2094
a(igetkdvelements
KDVelement
p1088
(dp1089
g5
Nsg6
I1
sg7
Nsg8
I2094
sg9
I01
sg10
S'STIGEDALSELVA'
p1090
sbaa(lp1091
I2095
a(igetkdvelements
KDVelement
p1092
(dp1093
g5
Nsg6
I1
sg7
Nsg8
I2095
sg9
I01
sg10
S'OERSTAVASSDRAGET'
p1094
sbaa(lp1095
I2096
a(igetkdvelements
KDVelement
p1096
(dp1097
g5
Nsg6
I1
sg7
Nsg8
I2096
sg9
I01
sg10
S'HAREIDLANDET OG GURSKOEYA'
p1098
sbaa(lp1099
I2097
a(igetkdvelements
KDVelement
p1100
(dp1101
g5
Nsg6
I1
sg7
Nsg8
I2097
sg9
I01
sg10
S'STORFJORDEN SOER, HJOERUNDFJORDEN OG SYKKYLVSFJORDEN'
p1102
sbaa(lp1103
I2098
a(igetkdvelements
KDVelement
p1104
(dp1105
g5
Nsg6
I1
sg7
Nsg8
I2098
sg9
I01
sg10
S'STORFJORDEN SOER, SUNNYLVSFJORDEN OG GEIRANGERFJORD'
p1106
sbaa(lp1107
I2099
a(igetkdvelements
KDVelement
p1108
(dp1109
g5
Nsg6
I1
sg7
Nsg8
I2099
sg9
I01
sg10
S'TAFJORDVASSDRAGET'
p1110
sbaa(lp1111
I2100
a(igetkdvelements
KDVelement
p1112
(dp1113
g5
Nsg6
I1
sg7
Nsg8
I2100
sg9
I01
sg10
S'VALLDOELA'
p1114
sbaa(lp1115
I2101
a(igetkdvelements
KDVelement
p1116
(dp1117
g5
Nsg6
I1
sg7
Nsg8
I2101
sg9
I01
sg10
S'AALESUND OG OMEGN'
p1118
sbaa(lp1119
I2102
a(igetkdvelements
KDVelement
p1120
(dp1121
g5
Nsg6
I1
sg7
Nsg8
I2102
sg9
I01
sg10
S'MIDTFJORDEN SOER OG ROMSDALSFJORDEN VEST'
p1122
sbaa(lp1123
I2103
a(igetkdvelements
KDVelement
p1124
(dp1125
g5
Nsg6
I1
sg7
Nsg8
I2103
sg9
I01
sg10
S'RAUMA'
p1126
sbaa(lp1127
I2104
a(igetkdvelements
KDVelement
p1128
(dp1129
g5
Nsg6
I1
sg7
Nsg8
I2104
sg9
I01
sg10
S'EIRA'
p1130
sbaa(lp1131
I2105
a(igetkdvelements
KDVelement
p1132
(dp1133
g5
Nsg6
I1
sg7
Nsg8
I2105
sg9
I01
sg10
S'GUSJAAVASSDRAGET'
p1134
sbaa(lp1135
I2106
a(igetkdvelements
KDVelement
p1136
(dp1137
g5
Nsg6
I1
sg7
Nsg8
I2106
sg9
I01
sg10
S'AUKRA, MISUND OG SANDOEY KOMMUNER'
p1138
sbaa(lp1139
I2107
a(igetkdvelements
KDVelement
p1140
(dp1141
g5
Nsg6
I1
sg7
Nsg8
I2107
sg9
I01
sg10
S'FRAENFJORDEN, JULSUNDET OG HUSTADVIKA'
p1142
sbaa(lp1143
I2108
a(igetkdvelements
KDVelement
p1144
(dp1145
g5
Nsg6
I1
sg7
Nsg8
I2108
sg9
I01
sg10
S'KORNSTADFJORDEN OG BATNFJORDEN'
p1146
sbaa(lp1147
I2109
a(igetkdvelements
KDVelement
p1148
(dp1149
g5
Nsg6
I1
sg7
Nsg8
I2109
sg9
I01
sg10
S'DRIVA'
p1150
sbaa(lp1151
I2110
a(igetkdvelements
KDVelement
p1152
(dp1153
g5
Nsg6
I1
sg7
Nsg8
I2110
sg9
I01
sg10
S'AVEROEY, FREI OG KRISTIANDSUND KOMMUNER'
p1154
sbaa(lp1155
I2111
a(igetkdvelements
KDVelement
p1156
(dp1157
g5
Nsg6
I1
sg7
Nsg8
I2111
sg9
I01
sg10
S'KYST TINGVOLLFJORDEN-SURNADALSFJORDEN'
p1158
sbaa(lp1159
I2112
a(igetkdvelements
KDVelement
p1160
(dp1161
g5
Nsg6
I1
sg7
Nsg8
I2112
sg9
I01
sg10
S'SURNA'
p1162
sbaa(lp1163
I2113
a(igetkdvelements
KDVelement
p1164
(dp1165
g5
Nsg6
I1
sg7
Nsg8
I2113
sg9
I01
sg10
S'FJELNA'
p1166
sbaa(lp1167
I2114
a(igetkdvelements
KDVelement
p1168
(dp1169
g5
Nsg6
I1
sg7
Nsg8
I2114
sg9
I01
sg10
S'TUSTNA KOMMUNE OG ERTVAAGOEY'
p1170
sbaa(lp1171
I2115
a(igetkdvelements
KDVelement
p1172
(dp1173
g5
Nsg6
I1
sg7
Nsg8
I2115
sg9
I01
sg10
S'SMOELA KOMMUNE'
p1174
sbaa(lp1175
I2116
a(igetkdvelements
KDVelement
p1176
(dp1177
g5
Nsg6
I1
sg7
Nsg8
I2116
sg9
I01
sg10
S'ROESTA'
p1178
sbaa(lp1179
I2117
a(igetkdvelements
KDVelement
p1180
(dp1181
g5
Nsg6
I1
sg7
Nsg8
I2117
sg9
I01
sg10
S'HITRA KOMMUNE'
p1182
sbaa(lp1183
I2118
a(igetkdvelements
KDVelement
p1184
(dp1185
g5
Nsg6
I1
sg7
Nsg8
I2118
sg9
I01
sg10
S'FROEYA KOMMUNE'
p1186
sbaa(lp1187
I2119
a(igetkdvelements
KDVelement
p1188
(dp1189
g5
Nsg6
I1
sg7
Nsg8
I2119
sg9
I01
sg10
S'TRONDHEIMSLEIA OEST: STAMNES-AGDENES FYR'
p1190
sbaa(lp1191
I2120
a(igetkdvelements
KDVelement
p1192
(dp1193
g5
Nsg6
I1
sg7
Nsg8
I2120
sg9
I01
sg10
S'YTRE TRONDHEIMSFJORDEN: AGDENES FYR-GEITANESET'
p1194
sbaa(lp1195
I2121
a(igetkdvelements
KDVelement
p1196
(dp1197
g5
Nsg6
I1
sg7
Nsg8
I2121
sg9
I01
sg10
S'ORKLA'
p1198
sbaa(lp1199
I2122
a(igetkdvelements
KDVelement
p1200
(dp1201
g5
Nsg6
I1
sg7
Nsg8
I2122
sg9
I01
sg10
S'GAULA'
p1202
sbaa(lp1203
I2123
a(igetkdvelements
KDVelement
p1204
(dp1205
g5
Nsg6
I1
sg7
Nsg8
I2123
sg9
I01
sg10
S'NIDELVVASSDRAGET'
p1206
sbaa(lp1207
I2124
a(igetkdvelements
KDVelement
p1208
(dp1209
g5
Nsg6
I1
sg7
Nsg8
I2124
sg9
I01
sg10
S'STJOERDALSVASSDRAGET'
p1210
sbaa(lp1211
I2125
a(igetkdvelements
KDVelement
p1212
(dp1213
g5
Nsg6
I1
sg7
Nsg8
I2125
sg9
I01
sg10
S'AASENFJORDEN'
p1214
sbaa(lp1215
I2126
a(igetkdvelements
KDVelement
p1216
(dp1217
g5
Nsg6
I1
sg7
Nsg8
I2126
sg9
I01
sg10
S'TRONDHEIMSFJORDEN OEST: FROSTA-VERDALSOERA'
p1218
sbaa(lp1219
I2127
a(igetkdvelements
KDVelement
p1220
(dp1221
g5
Nsg6
I1
sg7
Nsg8
I2127
sg9
I01
sg10
S'VERDALSVASSDRAGET'
p1222
sbaa(lp1223
I2128
a(igetkdvelements
KDVelement
p1224
(dp1225
g5
Nsg6
I1
sg7
Nsg8
I2128
sg9
I01
sg10
S'SNAASAVASSDRAGET'
p1226
sbaa(lp1227
I2129
a(igetkdvelements
KDVelement
p1228
(dp1229
g5
Nsg6
I1
sg7
Nsg8
I2129
sg9
I01
sg10
S'FOLLAVASSDRAGET'
p1230
sbaa(lp1231
I2130
a(igetkdvelements
KDVelement
p1232
(dp1233
g5
Nsg6
I1
sg7
Nsg8
I2130
sg9
I01
sg10
S'VERRANSUNDET'
p1234
sbaa(lp1235
I2131
a(igetkdvelements
KDVelement
p1236
(dp1237
g5
Nsg6
I1
sg7
Nsg8
I2131
sg9
I01
sg10
S'TRONDHEIMSFJORDEN VEST'
p1238
sbaa(lp1239
I2132
a(igetkdvelements
KDVelement
p1240
(dp1241
g5
Nsg6
I1
sg7
Nsg8
I2132
sg9
I01
sg10
S'SKAUDALSVASSDRAGET'
p1242
sbaa(lp1243
I2133
a(igetkdvelements
KDVelement
p1244
(dp1245
g5
Nsg6
I1
sg7
Nsg8
I2133
sg9
I01
sg10
S'STJOERNFJORDEN'
p1246
sbaa(lp1247
I2134
a(igetkdvelements
KDVelement
p1248
(dp1249
g5
Nsg6
I1
sg7
Nsg8
I2134
sg9
I01
sg10
S'TEKSDALSELVA'
p1250
sbaa(lp1251
I2135
a(igetkdvelements
KDVelement
p1252
(dp1253
g5
Nsg6
I1
sg7
Nsg8
I2135
sg9
I01
sg10
S'STORDALSELVA'
p1254
sbaa(lp1255
I2136
a(igetkdvelements
KDVelement
p1256
(dp1257
g5
Nsg6
I1
sg7
Nsg8
I2136
sg9
I01
sg10
S'HOFSTADELVA'
p1258
sbaa(lp1259
I2137
a(igetkdvelements
KDVelement
p1260
(dp1261
g5
Nsg6
I1
sg7
Nsg8
I2137
sg9
I01
sg10
S'OSEN OG FLATANGER KOMMUNER'
p1262
sbaa(lp1263
I2138
a(igetkdvelements
KDVelement
p1264
(dp1265
g5
Nsg6
I1
sg7
Nsg8
I2138
sg9
I01
sg10
S'AARGAARDSVASSDRAGET OG BOGNA'
p1266
sbaa(lp1267
I2139
a(igetkdvelements
KDVelement
p1268
(dp1269
g5
Nsg6
I1
sg7
Nsg8
I2139
sg9
I01
sg10
S'NAMSEN'
p1270
sbaa(lp1271
I2140
a(igetkdvelements
KDVelement
p1272
(dp1273
g5
Nsg6
I1
sg7
Nsg8
I2140
sg9
I01
sg10
S'SALSVATNVASSDRAGET'
p1274
sbaa(lp1275
I2141
a(igetkdvelements
KDVelement
p1276
(dp1277
g5
Nsg6
I1
sg7
Nsg8
I2141
sg9
I01
sg10
S'OPPLOEYVASSDRAGET'
p1278
sbaa(lp1279
I2142
a(igetkdvelements
KDVelement
p1280
(dp1281
g5
Nsg6
I1
sg7
Nsg8
I2142
sg9
I01
sg10
S'INDRE FOLDA'
p1282
sbaa(lp1283
I2143
a(igetkdvelements
KDVelement
p1284
(dp1285
g5
Nsg6
I1
sg7
Nsg8
I2143
sg9
I01
sg10
S'VIKNA OG KYST FOLDFJORDEN-BINDALSFJORDEN'
p1286
sbaa(lp1287
I2144
a(igetkdvelements
KDVelement
p1288
(dp1289
g5
Nsg6
I1
sg7
Nsg8
I2144
sg9
I01
sg10
S'AABJOERA'
p1290
sbaa(lp1291
I2145
a(igetkdvelements
KDVelement
p1292
(dp1293
g5
Nsg6
I1
sg7
Nsg8
I2145
sg9
I01
sg10
S'BINDALSFJORDEN NORD'
p1294
sbaa(lp1295
I2146
a(igetkdvelements
KDVelement
p1296
(dp1297
g5
Nsg6
I1
sg7
Nsg8
I2146
sg9
I01
sg10
S'KYST ROEYINGEN-VELFJORDEN'
p1298
sbaa(lp1299
I2147
a(igetkdvelements
KDVelement
p1300
(dp1301
g5
Nsg6
I1
sg7
Nsg8
I2147
sg9
I01
sg10
S'VEGA KOMMUNE'
p1302
sbaa(lp1303
I2148
a(igetkdvelements
KDVelement
p1304
(dp1305
g5
Nsg6
I1
sg7
Nsg8
I2148
sg9
I01
sg10
S'LOMSDALSVASSDRAGET'
p1306
sbaa(lp1307
I2149
a(igetkdvelements
KDVelement
p1308
(dp1309
g5
Nsg6
I1
sg7
Nsg8
I2149
sg9
I01
sg10
S'VISTEN, HALSFJORDEN OG YTRE VEFSNFJORDEN OEST'
p1310
sbaa(lp1311
I2150
a(igetkdvelements
KDVelement
p1312
(dp1313
g5
Nsg6
I1
sg7
Nsg8
I2150
sg9
I01
sg10
S'ALSTEN OG TJOETTA'
p1314
sbaa(lp1315
I2151
a(igetkdvelements
KDVelement
p1316
(dp1317
g5
Nsg6
I1
sg7
Nsg8
I2151
sg9
I01
sg10
S'VEFSNA'
p1318
sbaa(lp1319
I2152
a(igetkdvelements
KDVelement
p1320
(dp1321
g5
Nsg6
I1
sg7
Nsg8
I2152
sg9
I01
sg10
S'FUSTA OG DREVJA'
p1322
sbaa(lp1323
I2153
a(igetkdvelements
KDVelement
p1324
(dp1325
g5
Nsg6
I1
sg7
Nsg8
I2153
sg9
I01
sg10
S'LEIRFJORD KOMMUNE'
p1326
sbaa(lp1327
I2154
a(igetkdvelements
KDVelement
p1328
(dp1329
g5
Nsg6
I1
sg7
Nsg8
I2154
sg9
I01
sg10
S'DOENNA OG HEROEY KOMMUNER'
p1330
sbaa(lp1331
I2155
a(igetkdvelements
KDVelement
p1332
(dp1333
g5
Nsg6
I1
sg7
Nsg8
I2155
sg9
I01
sg10
S'ROESSAAGA'
p1334
sbaa(lp1335
I2156
a(igetkdvelements
KDVelement
p1336
(dp1337
g5
Nsg6
I1
sg7
Nsg8
I2156
sg9
I01
sg10
S'RANAVASSDRAGET'
p1338
sbaa(lp1339
I2157
a(igetkdvelements
KDVelement
p1340
(dp1341
g5
Nsg6
I1
sg7
Nsg8
I2157
sg9
I01
sg10
S'KYST UTSKARPEN-NESNA-TONNES'
p1342
sbaa(lp1343
I2158
a(igetkdvelements
KDVelement
p1344
(dp1345
g5
Nsg6
I1
sg7
Nsg8
I2158
sg9
I01
sg10
S'OEYER I NESNA, LUROEY OG TRAENA KOMMUNER'
p1346
sbaa(lp1347
I2159
a(igetkdvelements
KDVelement
p1348
(dp1349
g5
Nsg6
I1
sg7
Nsg8
I2159
sg9
I01
sg10
S'VESTRE SVARTISEN OG ROEDOEY KOMMUNE'
p1350
sbaa(lp1351
I2160
a(igetkdvelements
KDVelement
p1352
(dp1353
g5
Nsg6
I1
sg7
Nsg8
I2160
sg9
I01
sg10
S'FYKANAAGA'
p1354
sbaa(lp1355
I2161
a(igetkdvelements
KDVelement
p1356
(dp1357
g5
Nsg6
I1
sg7
Nsg8
I2161
sg9
I01
sg10
S'BEIARELVA, MORSDALSFJORDEN OG NORDFJORDEN'
p1358
sbaa(lp1359
I2162
a(igetkdvelements
KDVelement
p1360
(dp1361
g5
Nsg6
I1
sg7
Nsg8
I2162
sg9
I01
sg10
S'SALTFJORDEN: NORDFJORDEN-SKJERSTAD'
p1362
sbaa(lp1363
I2163
a(igetkdvelements
KDVelement
p1364
(dp1365
g5
Nsg6
I1
sg7
Nsg8
I2163
sg9
I01
sg10
S'SALTELVA'
p1366
sbaa(lp1367
I2164
a(igetkdvelements
KDVelement
p1368
(dp1369
g5
Nsg6
I1
sg7
Nsg8
I2164
sg9
I01
sg10
S'SULITJELMAVASSDRAGET'
p1370
sbaa(lp1371
I2165
a(igetkdvelements
KDVelement
p1372
(dp1373
g5
Nsg6
I1
sg7
Nsg8
I2165
sg9
I01
sg10
S'KYST SALTSTRAUMEN-BODOE-TAARNVIKFJELLET'
p1374
sbaa(lp1375
I2166
a(igetkdvelements
KDVelement
p1376
(dp1377
g5
Nsg6
I1
sg7
Nsg8
I2166
sg9
I01
sg10
S'FAGERBAKKVASSDRAGET OG LAKSAAGA'
p1378
sbaa(lp1379
I2167
a(igetkdvelements
KDVelement
p1380
(dp1381
g5
Nsg6
I1
sg7
Nsg8
I2167
sg9
I01
sg10
S'KOBBELVVASSDRAGET'
p1382
sbaa(lp1383
I2168
a(igetkdvelements
KDVelement
p1384
(dp1385
g5
Nsg6
I1
sg7
Nsg8
I2168
sg9
I01
sg10
S'NORDFOLDA'
p1386
sbaa(lp1387
I2169
a(igetkdvelements
KDVelement
p1388
(dp1389
g5
Nsg6
I1
sg7
Nsg8
I2169
sg9
I01
sg10
S'YTRE DEL AV STEIGEN KOMMUNE'
p1390
sbaa(lp1391
I2170
a(igetkdvelements
KDVelement
p1392
(dp1393
g5
Nsg6
I1
sg7
Nsg8
I2170
sg9
I01
sg10
S'SAGELVVASSDRAGET'
p1394
sbaa(lp1395
I2171
a(igetkdvelements
KDVelement
p1396
(dp1397
g5
Nsg6
I1
sg7
Nsg8
I2171
sg9
I01
sg10
S'HELLEMOVASSDRAGET'
p1398
sbaa(lp1399
I2172
a(igetkdvelements
KDVelement
p1400
(dp1401
g5
Nsg6
I1
sg7
Nsg8
I2172
sg9
I01
sg10
S'FORSAAVASSDRAGET'
p1402
sbaa(lp1403
I2173
a(igetkdvelements
KDVelement
p1404
(dp1405
g5
Nsg6
I1
sg7
Nsg8
I2173
sg9
I01
sg10
S'SKJOMAVASSDRAGET'
p1406
sbaa(lp1407
I2174
a(igetkdvelements
KDVelement
p1408
(dp1409
g5
Nsg6
I1
sg7
Nsg8
I2174
sg9
I01
sg10
S'INDRE OFOTFJORDEN'
p1410
sbaa(lp1411
I2175
a(igetkdvelements
KDVelement
p1412
(dp1413
g5
Nsg6
I1
sg7
Nsg8
I2175
sg9
I01
sg10
S'OFOTFJORDEN NORD: TANGVIK-BOGEN-SELNES'
p1414
sbaa(lp1415
I2176
a(igetkdvelements
KDVelement
p1416
(dp1417
g5
Nsg6
I1
sg7
Nsg8
I2176
sg9
I01
sg10
S'TJELDOEYA'
p1418
sbaa(lp1419
I2177
a(igetkdvelements
KDVelement
p1420
(dp1421
g5
Nsg6
I1
sg7
Nsg8
I2177
sg9
I01
sg10
S'OESTRE HINNOEYA'
p1422
sbaa(lp1423
I2178
a(igetkdvelements
KDVelement
p1424
(dp1425
g5
Nsg6
I1
sg7
Nsg8
I2178
sg9
I01
sg10
S'VESTRE HINNOEYA'
p1426
sbaa(lp1427
I2179
a(igetkdvelements
KDVelement
p1428
(dp1429
g5
Nsg6
I1
sg7
Nsg8
I2179
sg9
I01
sg10
S'VAAGAN KOMMUNE'
p1430
sbaa(lp1431
I2180
a(igetkdvelements
KDVelement
p1432
(dp1433
g5
Nsg6
I1
sg7
Nsg8
I2180
sg9
I01
sg10
S'VESTVAAGOEY KOMMUNE'
p1434
sbaa(lp1435
I2181
a(igetkdvelements
KDVelement
p1436
(dp1437
g5
Nsg6
I1
sg7
Nsg8
I2181
sg9
I01
sg10
S'FLAKSTADOEYA OG MOSKENESOEYA'
p1438
sbaa(lp1439
I2182
a(igetkdvelements
KDVelement
p1440
(dp1441
g5
Nsg6
I1
sg7
Nsg8
I2182
sg9
I01
sg10
S'VAEROEY KOMMUNE'
p1442
sbaa(lp1443
I2183
a(igetkdvelements
KDVelement
p1444
(dp1445
g5
Nsg6
I1
sg7
Nsg8
I2183
sg9
I01
sg10
S'ROEST KOMMUNE'
p1446
sbaa(lp1447
I2184
a(igetkdvelements
KDVelement
p1448
(dp1449
g5
Nsg6
I1
sg7
Nsg8
I2184
sg9
I01
sg10
S'HADSELOEYA'
p1450
sbaa(lp1451
I2185
a(igetkdvelements
KDVelement
p1452
(dp1453
g5
Nsg6
I1
sg7
Nsg8
I2185
sg9
I01
sg10
S'LANGOEYA'
p1454
sbaa(lp1455
I2186
a(igetkdvelements
KDVelement
p1456
(dp1457
g5
Nsg6
I1
sg7
Nsg8
I2186
sg9
I01
sg10
S'ANDOEYA'
p1458
sbaa(lp1459
I2187
a(igetkdvelements
KDVelement
p1460
(dp1461
g5
Nsg6
I1
sg7
Nsg8
I2187
sg9
I01
sg10
S'GRYTOEYA, BJARKOEYA OG SANDSOEYA'
p1462
sbaa(lp1463
I2188
a(igetkdvelements
KDVelement
p1464
(dp1465
g5
Nsg6
I1
sg7
Nsg8
I2188
sg9
I01
sg10
S'ROLLA'
p1466
sbaa(lp1467
I2189
a(igetkdvelements
KDVelement
p1468
(dp1469
g5
Nsg6
I1
sg7
Nsg8
I2189
sg9
I01
sg10
S'SKODDEBERGVASSDRAGET'
p1470
sbaa(lp1471
I2190
a(igetkdvelements
KDVelement
p1472
(dp1473
g5
Nsg6
I1
sg7
Nsg8
I2190
sg9
I01
sg10
S'GRATANGEN OG LAVANGEN'
p1474
sbaa(lp1475
I2191
a(igetkdvelements
KDVelement
p1476
(dp1477
g5
Nsg6
I1
sg7
Nsg8
I2191
sg9
I01
sg10
S'SALANGSELVA'
p1478
sbaa(lp1479
I2192
a(igetkdvelements
KDVelement
p1480
(dp1481
g5
Nsg6
I1
sg7
Nsg8
I2192
sg9
I01
sg10
S'ANDOERJA'
p1482
sbaa(lp1483
I2193
a(igetkdvelements
KDVelement
p1484
(dp1485
g5
Nsg6
I1
sg7
Nsg8
I2193
sg9
I01
sg10
S'SKOEELVVASSDRAGET'
p1486
sbaa(lp1487
I2194
a(igetkdvelements
KDVelement
p1488
(dp1489
g5
Nsg6
I1
sg7
Nsg8
I2194
sg9
I01
sg10
S'LAKSELVA OG LYSELVVASSDRAGET'
p1490
sbaa(lp1491
I2195
a(igetkdvelements
KDVelement
p1492
(dp1493
g5
Nsg6
I1
sg7
Nsg8
I2195
sg9
I01
sg10
S'SENJA VEST'
p1494
sbaa(lp1495
I2196
a(igetkdvelements
KDVelement
p1496
(dp1497
g5
Nsg6
I1
sg7
Nsg8
I2196
sg9
I01
sg10
S'MAALSELVVASSDRAGET'
p1498
sbaa(lp1499
I2197
a(igetkdvelements
KDVelement
p1500
(dp1501
g5
Nsg6
I1
sg7
Nsg8
I2197
sg9
I01
sg10
S'KVALOEYA OG TROMSOEYA'
p1502
sbaa(lp1503
I2198
a(igetkdvelements
KDVelement
p1504
(dp1505
g5
Nsg6
I1
sg7
Nsg8
I2198
sg9
I01
sg10
S'NORDKJOSELVA'
p1506
sbaa(lp1507
I2199
a(igetkdvelements
KDVelement
p1508
(dp1509
g5
Nsg6
I1
sg7
Nsg8
I2199
sg9
I01
sg10
S'TROMSOEYSUNDET OG GROETSUNDET OEST, REINOEYA OG KARLSOE'
p1510
sbaa(lp1511
I2200
a(igetkdvelements
KDVelement
p1512
(dp1513
g5
Nsg6
I1
sg7
Nsg8
I2200
sg9
I01
sg10
S'RINGVASSOEYA'
p1514
sbaa(lp1515
I2201
a(igetkdvelements
KDVelement
p1516
(dp1517
g5
Nsg6
I1
sg7
Nsg8
I2201
sg9
I01
sg10
S'REBBENESOEYA, GRYTOEYA, NORD-KVALOEYA OG HELGOEYA'
p1518
sbaa(lp1519
I2202
a(igetkdvelements
KDVelement
p1520
(dp1521
g5
Nsg6
I1
sg7
Nsg8
I2202
sg9
I01
sg10
S'VANNA OG NORD-FUGLOEYA'
p1522
sbaa(lp1523
I2203
a(igetkdvelements
KDVelement
p1524
(dp1525
g5
Nsg6
I1
sg7
Nsg8
I2203
sg9
I01
sg10
S'LAKSELVA'
p1526
sbaa(lp1527
I2204
a(igetkdvelements
KDVelement
p1528
(dp1529
g5
Nsg6
I1
sg7
Nsg8
I2204
sg9
I01
sg10
S'SIGNALDALSELVA'
p1530
sbaa(lp1531
I2205
a(igetkdvelements
KDVelement
p1532
(dp1533
g5
Nsg6
I1
sg7
Nsg8
I2205
sg9
I01
sg10
S'SKIBOTNVASSDRAGET'
p1534
sbaa(lp1535
I2206
a(igetkdvelements
KDVelement
p1536
(dp1537
g5
Nsg6
I1
sg7
Nsg8
I2206
sg9
I01
sg10
S'KAAFJORDVASSDRAGET'
p1538
sbaa(lp1539
I2207
a(igetkdvelements
KDVelement
p1540
(dp1541
g5
Nsg6
I1
sg7
Nsg8
I2207
sg9
I01
sg10
S'ARNOEYA OG LAUKOEYA'
p1542
sbaa(lp1543
I2208
a(igetkdvelements
KDVelement
p1544
(dp1545
g5
Nsg6
I1
sg7
Nsg8
I2208
sg9
I01
sg10
S'REISAVASSDRAGET'
p1546
sbaa(lp1547
I2209
a(igetkdvelements
KDVelement
p1548
(dp1549
g5
Nsg6
I1
sg7
Nsg8
I2209
sg9
I01
sg10
S'KVAENANGSVASSDRAGET'
p1550
sbaa(lp1551
I2210
a(igetkdvelements
KDVelement
p1552
(dp1553
g5
Nsg6
I1
sg7
Nsg8
I2210
sg9
I01
sg10
S'STORELVA'
p1554
sbaa(lp1555
I2211
a(igetkdvelements
KDVelement
p1556
(dp1557
g5
Nsg6
I1
sg7
Nsg8
I2211
sg9
I01
sg10
S'LOPPA KOMMUNE OG LANGFJORDEN'
p1558
sbaa(lp1559
I2212
a(igetkdvelements
KDVelement
p1560
(dp1561
g5
Nsg6
I1
sg7
Nsg8
I2212
sg9
I01
sg10
S'ALTAVASSDRAGET'
p1562
sbaa(lp1563
I2213
a(igetkdvelements
KDVelement
p1564
(dp1565
g5
Nsg6
I1
sg7
Nsg8
I2213
sg9
I01
sg10
S'REPPARFJORDVASSDRAGET'
p1566
sbaa(lp1567
I2214
a(igetkdvelements
KDVelement
p1568
(dp1569
g5
Nsg6
I1
sg7
Nsg8
I2214
sg9
I01
sg10
S'STJERNOEYA'
p1570
sbaa(lp1571
I2215
a(igetkdvelements
KDVelement
p1572
(dp1573
g5
Nsg6
I1
sg7
Nsg8
I2215
sg9
I01
sg10
S'SEILAND'
p1574
sbaa(lp1575
I2216
a(igetkdvelements
KDVelement
p1576
(dp1577
g5
Nsg6
I1
sg7
Nsg8
I2216
sg9
I01
sg10
S'SOEROEYA'
p1578
sbaa(lp1579
I2217
a(igetkdvelements
KDVelement
p1580
(dp1581
g5
Nsg6
I1
sg7
Nsg8
I2217
sg9
I01
sg10
S'KVALOEYA'
p1582
sbaa(lp1583
I2218
a(igetkdvelements
KDVelement
p1584
(dp1585
g5
Nsg6
I1
sg7
Nsg8
I2218
sg9
I01
sg10
S'RUSSELVVASSDRAGET'
p1586
sbaa(lp1587
I2219
a(igetkdvelements
KDVelement
p1588
(dp1589
g5
Nsg6
I1
sg7
Nsg8
I2219
sg9
I01
sg10
S'INGOEYA OG ROLVSOEYA'
p1590
sbaa(lp1591
I2220
a(igetkdvelements
KDVelement
p1592
(dp1593
g5
Nsg6
I1
sg7
Nsg8
I2220
sg9
I01
sg10
S'NORDRE PORSANGERHALVOEYA, MAASOEYA OG HJELMSOEYA'
p1594
sbaa(lp1595
I2221
a(igetkdvelements
KDVelement
p1596
(dp1597
g5
Nsg6
I1
sg7
Nsg8
I2221
sg9
I01
sg10
S'MAGEROEYA'
p1598
sbaa(lp1599
I2222
a(igetkdvelements
KDVelement
p1600
(dp1601
g5
Nsg6
I1
sg7
Nsg8
I2222
sg9
I01
sg10
S'VESTRE PORSANGEN'
p1602
sbaa(lp1603
I2223
a(igetkdvelements
KDVelement
p1604
(dp1605
g5
Nsg6
I1
sg7
Nsg8
I2223
sg9
I01
sg10
S'STABBURSELVA'
p1606
sbaa(lp1607
I2224
a(igetkdvelements
KDVelement
p1608
(dp1609
g5
Nsg6
I1
sg7
Nsg8
I2224
sg9
I01
sg10
S'LAKSELVVASSDRAGET'
p1610
sbaa(lp1611
I2225
a(igetkdvelements
KDVelement
p1612
(dp1613
g5
Nsg6
I1
sg7
Nsg8
I2225
sg9
I01
sg10
S'BOERSELVVASSDRAGET'
p1614
sbaa(lp1615
I2226
a(igetkdvelements
KDVelement
p1616
(dp1617
g5
Nsg6
I1
sg7
Nsg8
I2226
sg9
I01
sg10
S'OESTRE PORSANGEN'
p1618
sbaa(lp1619
I2227
a(igetkdvelements
KDVelement
p1620
(dp1621
g5
Nsg6
I1
sg7
Nsg8
I2227
sg9
I01
sg10
S'YTRE LAKSEFJORDEN VEST'
p1622
sbaa(lp1623
I2228
a(igetkdvelements
KDVelement
p1624
(dp1625
g5
Nsg6
I1
sg7
Nsg8
I2228
sg9
I01
sg10
S'STORELVA'
p1626
sbaa(lp1627
I2229
a(igetkdvelements
KDVelement
p1628
(dp1629
g5
Nsg6
I1
sg7
Nsg8
I2229
sg9
I01
sg10
S'ADAMSELVVASSDRAGET'
p1630
sbaa(lp1631
I2230
a(igetkdvelements
KDVelement
p1632
(dp1633
g5
Nsg6
I1
sg7
Nsg8
I2230
sg9
I01
sg10
S'YTRE LAKSEFJORDEN OEST'
p1634
sbaa(lp1635
I2231
a(igetkdvelements
KDVelement
p1636
(dp1637
g5
Nsg6
I1
sg7
Nsg8
I2231
sg9
I01
sg10
S'NORDKINNHALVOEYA NORD'
p1638
sbaa(lp1639
I2232
a(igetkdvelements
KDVelement
p1640
(dp1641
g5
Nsg6
I1
sg7
Nsg8
I2232
sg9
I01
sg10
S'HOPSFJORDEN'
p1642
sbaa(lp1643
I2233
a(igetkdvelements
KDVelement
p1644
(dp1645
g5
Nsg6
I1
sg7
Nsg8
I2233
sg9
I01
sg10
S'LANGFJORDVASSDRAGET'
p1646
sbaa(lp1647
I2234
a(igetkdvelements
KDVelement
p1648
(dp1649
g5
Nsg6
I1
sg7
Nsg8
I2234
sg9
I01
sg10
S'TANA'
p1650
sbaa(lp1651
I2235
a(igetkdvelements
KDVelement
p1652
(dp1653
g5
Nsg6
I1
sg7
Nsg8
I2235
sg9
I01
sg10
S'STORDALSELVVASSDRAGET'
p1654
sbaa(lp1655
I2236
a(igetkdvelements
KDVelement
p1656
(dp1657
g5
Nsg6
I1
sg7
Nsg8
I2236
sg9
I01
sg10
S'KONGSFJORDVASSDRAGET'
p1658
sbaa(lp1659
I2237
a(igetkdvelements
KDVelement
p1660
(dp1661
g5
Nsg6
I1
sg7
Nsg8
I2237
sg9
I01
sg10
S'VESTERELVVASSDRAGET'
p1662
sbaa(lp1663
I2238
a(igetkdvelements
KDVelement
p1664
(dp1665
g5
Nsg6
I1
sg7
Nsg8
I2238
sg9
I01
sg10
S'SANDFJORDELVA'
p1666
sbaa(lp1667
I2239
a(igetkdvelements
KDVelement
p1668
(dp1669
g5
Nsg6
I1
sg7
Nsg8
I2239
sg9
I01
sg10
S'KOMAGELVA OG SKALLELVVASSDRAGET'
p1670
sbaa(lp1671
I2240
a(igetkdvelements
KDVelement
p1672
(dp1673
g5
Nsg6
I1
sg7
Nsg8
I2240
sg9
I01
sg10
S'VESTRE JAKOBSELVA'
p1674
sbaa(lp1675
I2241
a(igetkdvelements
KDVelement
p1676
(dp1677
g5
Nsg6
I1
sg7
Nsg8
I2241
sg9
I01
sg10
S'BERGEBYELVA OG VESTERELVA'
p1678
sbaa(lp1679
I2242
a(igetkdvelements
KDVelement
p1680
(dp1681
g5
Nsg6
I1
sg7
Nsg8
I2242
sg9
I01
sg10
S'REPPENELVA OG NYELVVASSDRAGET'
p1682
sbaa(lp1683
I2243
a(igetkdvelements
KDVelement
p1684
(dp1685
g5
Nsg6
I1
sg7
Nsg8
I2243
sg9
I01
sg10
S'KLOKKERELVVASSDRAGET'
p1686
sbaa(lp1687
I2244
a(igetkdvelements
KDVelement
p1688
(dp1689
g5
Nsg6
I1
sg7
Nsg8
I2244
sg9
I01
sg10
S'NEIDENVASSDRAGET'
p1690
sbaa(lp1691
I2245
a(igetkdvelements
KDVelement
p1692
(dp1693
g5
Nsg6
I1
sg7
Nsg8
I2245
sg9
I01
sg10
S'SKOGEROEYA'
p1694
sbaa(lp1695
I2246
a(igetkdvelements
KDVelement
p1696
(dp1697
g5
Nsg6
I1
sg7
Nsg8
I2246
sg9
I01
sg10
S'PASVIKELVA'
p1698
sbaa(lp1699
I2247
a(igetkdvelements
KDVelement
p1700
(dp1701
g5
Nsg6
I1
sg7
Nsg8
I2247
sg9
I01
sg10
S'GRENSE JAKOBSELV'
p1702
sbaa(lp1703
I2301
a(igetkdvelements
KDVelement
p1704
(dp1705
g5
Nsg6
I1
sg7
Nsg8
I2301
sg9
I01
sg10
S'KEMIJOKI'
p1706
sbaa(lp1707
I2302
a(igetkdvelements
KDVelement
p1708
(dp1709
g5
Nsg6
I1
sg7
Nsg8
I2302
sg9
I01
sg10
S'TORNEELVEN'
p1710
sbaa(lp1711
I2303
a(igetkdvelements
KDVelement
p1712
(dp1713
g5
Nsg6
I1
sg7
Nsg8
I2303
sg9
I01
sg10
S'LULEELVEN'
p1714
sbaa(lp1715
I2304
a(igetkdvelements
KDVelement
p1716
(dp1717
g5
Nsg6
I1
sg7
Nsg8
I2304
sg9
I01
sg10
S'PITEELVEN'
p1718
sbaa(lp1719
I2305
a(igetkdvelements
KDVelement
p1720
(dp1721
g5
Nsg6
I1
sg7
Nsg8
I2305
sg9
I01
sg10
S'SKELLEFTEELVEN'
p1722
sbaa(lp1723
I2306
a(igetkdvelements
KDVelement
p1724
(dp1725
g5
Nsg6
I1
sg7
Nsg8
I2306
sg9
I01
sg10
S'UMEELVEN'
p1726
sbaa(lp1727
I2307
a(igetkdvelements
KDVelement
p1728
(dp1729
g5
Nsg6
I1
sg7
Nsg8
I2307
sg9
I01
sg10
S'AANGERMANELVEN'
p1730
sbaa(lp1731
I2308
a(igetkdvelements
KDVelement
p1732
(dp1733
g5
Nsg6
I1
sg7
Nsg8
I2308
sg9
I01
sg10
S'INDALSELVEN'
p1734
sbaa(lp1735
I2309
a(igetkdvelements
KDVelement
p1736
(dp1737
g5
Nsg6
I1
sg7
Nsg8
I2309
sg9
I01
sg10
S'LJUSNAN'
p1738
sbaa(lp1739
I2310
a(igetkdvelements
KDVelement
p1740
(dp1741
g5
Nsg6
I1
sg7
Nsg8
I2310
sg9
I01
sg10
S'DALELVEN'
p1742
sbaa(lp1743
I2311
a(igetkdvelements
KDVelement
p1744
(dp1745
g5
Nsg6
I1
sg7
Nsg8
I2311
sg9
I01
sg10
S"VANERN-GOETA ELV'S SIDENEDBOERFELT KLARAELVEN"
p1746
sbaa(lp1747
I2312
a(igetkdvelements
KDVelement
p1748
(dp1749
g5
Nsg6
I1
sg7
Nsg8
I2312
sg9
I01
sg10
S"VANERN-GOETA ELV'S SIDENEDBOERFELT NORSELVEN"
p1750
sbaa(lp1751
I2313
a(igetkdvelements
KDVelement
p1752
(dp1753
g5
Nsg6
I1
sg7
Nsg8
I2313
sg9
I01
sg10
S"VANERN-GOETA ELV'S SIDENEDBOERFELT BYELVEN"
p1754
sbaa(lp1755
I2314
a(igetkdvelements
KDVelement
p1756
(dp1757
g5
Nsg6
I1
sg7
Nsg8
I2314
sg9
I01
sg10
S"VANERN-GOETA ELV'S SIDENEDBOERFELT UPPERUDSELVEN"
p1758
sbaa(lp1759
I2315
a(igetkdvelements
KDVelement
p1760
(dp1761
g5
Nsg6
I1
sg7
Nsg8
I2315
sg9
I01
sg10
S'STROEMSAAN'
p1762
sbaa(lp1763
I2999
a(igetkdvelements
KDVelement
p1764
(dp1765
g5
Nsg6
I1
sg7
Nsg8
I2999
sg9
I01
sg10
S'Ukjent'
p1766
sbaatp1767
Rp1768
.