ccollections
OrderedDict
p0
((lp1
(lp2
I0
a(igetkdvelements
KDVelement
p3
(dp4
S'Description'
p5
NsS'Langkey'
p6
I1
sS'SortOrder'
p7
I0
sS'ID'
p8
I0
sS'IsActive'
p9
I01
sS'Name'
p10
S'Ikke spesifisert'
p11
sbaa(lp12
I10
a(igetkdvelements
KDVelement
p13
(dp14
g5
S'Snoeskred'
p15
sg6
I1
sg7
I10
sg8
I10
sg9
I01
sg10
S'Snoe'
p16
sbaa(lp17
I20
a(igetkdvelements
KDVelement
p18
(dp19
g5
S'Jordskred'
p20
sg6
I1
sg7
I20
sg8
I20
sg9
I01
sg10
S'Jord'
p21
sbaa(lp22
I30
a(igetkdvelements
KDVelement
p23
(dp24
g5
S'Flomskred'
p25
sg6
I1
sg7
I30
sg8
I30
sg9
I01
sg10
S'Vaat jord'
p26
sbaa(lp27
I33
a(igetkdvelements
KDVelement
p28
(dp29
g5
Nsg6
I1
sg7
I40
sg8
I33
sg9
I01
sg10
S'Leire'
p30
sbaa(lp31
I36
a(igetkdvelements
KDVelement
p32
(dp33
g5
Nsg6
I1
sg7
I50
sg8
I36
sg9
I01
sg10
S'Soerpe'
p34
sbaa(lp35
I40
a(igetkdvelements
KDVelement
p36
(dp37
g5
S'Steinsprang'
p38
sg6
I1
sg7
I60
sg8
I40
sg9
I01
sg10
S'Stein'
p39
sbaa(lp40
I50
a(igetkdvelements
KDVelement
p41
(dp42
g5
Nsg6
I1
sg7
I70
sg8
I50
sg9
I01
sg10
S'Isras'
p43
sbaa(lp44
I60
a(igetkdvelements
KDVelement
p45
(dp46
g5
S'Flom'
p47
sg6
I1
sg7
I80
sg8
I60
sg9
I01
sg10
S'Vann'
p48
sbaa(lp49
I70
a(igetkdvelements
KDVelement
p50
(dp51
g5
S'Svekket is'
p52
sg6
I1
sg7
I90
sg8
I70
sg9
I01
sg10
S'Is'
p53
sbaa(lp54
I100
a(igetkdvelements
KDVelement
p55
(dp56
g5
Nsg6
I1
sg7
I100
sg8
I100
sg9
I01
sg10
S'Hendelse paa bre'
p57
sbaa(lp58
I110
a(igetkdvelements
KDVelement
p59
(dp60
g5
Nsg6
I1
sg7
I110
sg8
I110
sg9
I01
sg10
S'Joekulhlaup'
p61
sbaa(lp62
I200
a(igetkdvelements
KDVelement
p63
(dp64
g5
Nsg6
I1
sg7
I120
sg8
I200
sg9
I01
sg10
S'Vannmangel'
p65
sbaa(lp66
I999
a(igetkdvelements
KDVelement
p67
(dp68
g5
Nsg6
I1
sg7
I130
sg8
I999
sg9
I01
sg10
S'Ukjent'
p69
sbaatp70
Rp71
.