ccollections
OrderedDict
p0
((lp1
(lp2
I0
a(i__main__
KDVelement
p3
(dp4
S'Description'
p5
NsS'Langkey'
p6
I1
sS'SortOrder'
p7
I0
sS'ID'
p8
I0
sS'IsActive'
p9
I01
sS'Name'
p10
S'Ikke gitt'
p11
sbaa(lp12
I10
a(i__main__
KDVelement
p13
(dp14
g5
S'Tabellen brukes av alle naturfarer'
p15
sg6
I1
sg7
I10
sg8
I10
sg9
I01
sg10
S'Fritekstfelt'
p16
sbaa(lp17
I11
a(i__main__
KDVelement
p18
(dp19
g5
S'Tabellen brukes av alle naturfarer'
p20
sg6
I1
sg7
I11
sg8
I11
sg9
I01
sg10
S'Hendelse'
p21
sbaa(lp22
I12
a(i__main__
KDVelement
p23
(dp24
g5
S'Tabellen brukes av alle naturfarer'
p25
sg6
I1
sg7
I12
sg8
I12
sg9
I01
sg10
S'Bilde'
p26
sbaa(lp27
I13
a(i__main__
KDVelement
p28
(dp29
g5
S'Tabellen brukes av alle naturfarer'
p30
sg6
I1
sg7
I13
sg8
I13
sg9
I01
sg10
S'Faretegn'
p31
sbaa(lp32
I21
a(i__main__
KDVelement
p33
(dp34
g5
S'Tabellen brukes av snoe (GeohazardTID = 10)'
p35
sg6
I1
sg7
I21
sg8
I21
sg9
I01
sg10
S'Observert vaer'
p36
sbaa(lp37
I22
a(i__main__
KDVelement
p38
(dp39
g5
S'Tabellen brukes av snoe (GeohazardTID = 10)'
p40
sg6
I1
sg7
I22
sg8
I22
sg9
I01
sg10
S'Snoedekke'
p41
sbaa(lp42
I23
a(i__main__
KDVelement
p43
(dp44
g5
S'Tabellen brukes av snoe (GeohazardTID = 10)'
p45
sg6
I1
sg7
I23
sg8
I23
sg9
I01
sg10
S'Snoeprofil'
p46
sbaa(lp47
I24
a(i__main__
KDVelement
p48
(dp49
g5
S'Tabellen brukes av snoe (GeohazardTID = 10)'
p50
sg6
I1
sg7
I24
sg8
I24
sg9
I01
sg10
S'Skredfaretegn'
p51
sbaa(lp52
I25
a(i__main__
KDVelement
p53
(dp54
g5
S'Tabellen brukes av snoe (GeohazardTID = 10)'
p55
sg6
I1
sg7
I25
sg8
I25
sg9
I01
sg10
S'Kompresjonstest'
p56
sbaa(lp57
I26
a(i__main__
KDVelement
p58
(dp59
g5
S'Tabellen brukes av snoe (GeohazardTID = 10)'
p60
sg6
I1
sg7
I26
sg8
I26
sg9
I01
sg10
S'Observert skred'
p61
sbaa(lp62
I27
a(i__main__
KDVelement
p63
(dp64
g5
S'Tabellen brukes av snoe (GeohazardTID = 10)'
p65
sg6
I1
sg7
I27
sg8
I27
sg9
I01
sg10
S'Observert skredaktivitet(2011)'
p66
sbaa(lp67
I28
a(i__main__
KDVelement
p68
(dp69
g5
S'Tabellen brukes av snoe (GeohazardTID = 10)'
p70
sg6
I1
sg7
I28
sg8
I28
sg9
I01
sg10
S'Skredfarevurdering (2012)'
p71
sbaa(lp72
I29
a(i__main__
KDVelement
p73
(dp74
g5
S'Tabellen brukes av snoe (GeohazardTID = 10)'
p75
sg6
I1
sg7
I29
sg8
I29
sg9
I00
sg10
S'Svakt lag'
p76
sbaa(lp77
I30
a(i__main__
KDVelement
p78
(dp79
g5
S'Tabellen brukes av snoe (GeohazardTID = 10)'
p80
sg6
I1
sg7
I30
sg8
I30
sg9
I01
sg10
S'Skredfarevurdering (2013)'
p81
sbaa(lp82
I31
a(i__main__
KDVelement
p83
(dp84
g5
S'Tabellen brukes av snoe (GeohazardTID = 10)'
p85
sg6
I1
sg7
I31
sg8
I31
sg9
I01
sg10
S'Skredfarevurdering'
p86
sbaa(lp87
I32
a(i__main__
KDVelement
p88
(dp89
g5
S'Tabellen brukes av snoe (GeohazardTID = 10)'
p90
sg6
I1
sg7
I32
sg8
I32
sg9
I01
sg10
S'Skredproblem'
p91
sbaa(lp92
I33
a(i__main__
KDVelement
p93
(dp94
g5
S'Tabellen brukes av snoe (GeohazardTID = 10)'
p95
sg6
I1
sg7
I33
sg8
I33
sg9
I01
sg10
S'Observert skredaktivitet'
p96
sbaa(lp97
I40
a(i__main__
KDVelement
p98
(dp99
g5
S'Tabellen brukes av snoe (GeohazardTID = 10)'
p100
sg6
I1
sg7
I40
sg8
I40
sg9
I01
sg10
S'Snoeskredvarsel'
p101
sbaa(lp102
I50
a(i__main__
KDVelement
p103
(dp104
g5
S'Tabellen brukes av is (GeohazardTID = 70)'
p105
sg6
I1
sg7
I50
sg8
I50
sg9
I01
sg10
S'Observert istykkelse'
p106
sbaa(lp107
I51
a(i__main__
KDVelement
p108
(dp109
g5
S'Tabellen brukes av is (GeohazardTID = 70)'
p110
sg6
I1
sg7
I51
sg8
I51
sg9
I01
sg10
S'Isdekningsgrad'
p111
sbaa(lp112
I61
a(i__main__
KDVelement
p113
(dp114
g5
S'Tabellen brukes av vann (GeohazardTID = 60)'
p115
sg6
I1
sg7
I61
sg8
I61
sg9
I01
sg10
S'Vannstand'
p116
sbaa(lp117
I71
a(i__main__
KDVelement
p118
(dp119
g5
S'Tabellen brukes av jord (GeohazardTID = 20,30og40)'
p120
sg6
I1
sg7
I71
sg8
I71
sg9
I01
sg10
S'Jordskred'
p121
sbaa(lp122
I99
a(i__main__
KDVelement
p123
(dp124
g5
Nsg6
I1
sg7
I99
sg8
I99
sg9
I01
sg10
S'Ukjent'
p125
sbaatp126
Rp127
.