(dp0
S'trigger'
p1
(dp2
S'keys'
p3
(lp4
S'Stor tilleggsbelastning'
p5
aS'Liten tilleggsbelastning'
p6
aS'Naturlig utloest'
p7
asS'colors'
p8
(lp9
S'0.7'
p10
asS'values'
p11
(lp12
S'Stor tilleggsbelastning'
p13
aS'Stor tilleggsbelastning'
p14
aS'Liten tilleggsbelastning'
p15
aS'Liten tilleggsbelastning'
p16
aS'Liten tilleggsbelastning'
p17
aS'Liten tilleggsbelastning'
p18
aS'Stor tilleggsbelastning'
p19
aS'Stor tilleggsbelastning'
p20
aS'Stor tilleggsbelastning'
p21
aS'Stor tilleggsbelastning'
p22
aS'Liten tilleggsbelastning'
p23
aS'Liten tilleggsbelastning'
p24
aS'Naturlig utloest'
p25
aS'Naturlig utloest'
p26
aS'Liten tilleggsbelastning'
p27
aS'Liten tilleggsbelastning'
p28
aS'Naturlig utloest'
p29
aS'Liten tilleggsbelastning'
p30
aS'Liten tilleggsbelastning'
p31
aS'Liten tilleggsbelastning'
p32
aS'Liten tilleggsbelastning'
p33
aS'Liten tilleggsbelastning'
p34
aS'Liten tilleggsbelastning'
p35
aS'Liten tilleggsbelastning'
p36
aS'Liten tilleggsbelastning'
p37
aS'Stor tilleggsbelastning'
p38
aS'Liten tilleggsbelastning'
p39
aS'Liten tilleggsbelastning'
p40
aS'Liten tilleggsbelastning'
p41
aS'Liten tilleggsbelastning'
p42
aS'Stor tilleggsbelastning'
p43
aS'Liten tilleggsbelastning'
p44
aS'Stor tilleggsbelastning'
p45
aS'Stor tilleggsbelastning'
p46
aS'Liten tilleggsbelastning'
p47
aS'Liten tilleggsbelastning'
p48
aS'Liten tilleggsbelastning'
p49
aS'Liten tilleggsbelastning'
p50
aS'Liten tilleggsbelastning'
p51
aS'Liten tilleggsbelastning'
p52
aS'Liten tilleggsbelastning'
p53
aS'Liten tilleggsbelastning'
p54
aS'Liten tilleggsbelastning'
p55
aS'Liten tilleggsbelastning'
p56
aS'Liten tilleggsbelastning'
p57
aS'Liten tilleggsbelastning'
p58
aS'Liten tilleggsbelastning'
p59
aS'Liten tilleggsbelastning'
p60
aS'Liten tilleggsbelastning'
p61
aS'Liten tilleggsbelastning'
p62
aS'Liten tilleggsbelastning'
p63
aS'Liten tilleggsbelastning'
p64
aS'Liten tilleggsbelastning'
p65
aS'Naturlig utloest'
p66
aS'Naturlig utloest'
p67
aS'Naturlig utloest'
p68
aS'Liten tilleggsbelastning'
p69
aS'Liten tilleggsbelastning'
p70
aS'Liten tilleggsbelastning'
p71
aS'Liten tilleggsbelastning'
p72
aS'Liten tilleggsbelastning'
p73
aS'Liten tilleggsbelastning'
p74
aS'Naturlig utloest'
p75
aS'Stor tilleggsbelastning'
p76
aS'Liten tilleggsbelastning'
p77
aS'Stor tilleggsbelastning'
p78
aS'Liten tilleggsbelastning'
p79
aS'Liten tilleggsbelastning'
p80
aS'Stor tilleggsbelastning'
p81
aS'Liten tilleggsbelastning'
p82
aS'Stor tilleggsbelastning'
p83
aS'Liten tilleggsbelastning'
p84
aS'Stor tilleggsbelastning'
p85
aS'Stor tilleggsbelastning'
p86
aS'Liten tilleggsbelastning'
p87
aS'Liten tilleggsbelastning'
p88
aS'Liten tilleggsbelastning'
p89
aS'Stor tilleggsbelastning'
p90
aS'Stor tilleggsbelastning'
p91
aS'Liten tilleggsbelastning'
p92
aS'Liten tilleggsbelastning'
p93
aS'Naturlig utloest'
p94
aS'Stor tilleggsbelastning'
p95
aS'Liten tilleggsbelastning'
p96
aS'Stor tilleggsbelastning'
p97
aS'Naturlig utloest'
p98
aS'Stor tilleggsbelastning'
p99
aS'Stor tilleggsbelastning'
p100
aS'Stor tilleggsbelastning'
p101
aS'Liten tilleggsbelastning'
p102
aS'Stor tilleggsbelastning'
p103
aS'Stor tilleggsbelastning'
p104
aS'Stor tilleggsbelastning'
p105
aS'Naturlig utloest'
p106
aS'Naturlig utloest'
p107
aS'Liten tilleggsbelastning'
p108
aS'Stor tilleggsbelastning'
p109
aS'Naturlig utloest'
p110
aS'Liten tilleggsbelastning'
p111
aS'Liten tilleggsbelastning'
p112
aS'Liten tilleggsbelastning'
p113
aS'Liten tilleggsbelastning'
p114
aS'Liten tilleggsbelastning'
p115
aS'Liten tilleggsbelastning'
p116
aS'Liten tilleggsbelastning'
p117
aS'Naturlig utloest'
p118
aS'Liten tilleggsbelastning'
p119
aS'Stor tilleggsbelastning'
p120
aS'Liten tilleggsbelastning'
p121
aS'Liten tilleggsbelastning'
p122
aS'Naturlig utloest'
p123
aS'Liten tilleggsbelastning'
p124
aS'Liten tilleggsbelastning'
p125
aS'Liten tilleggsbelastning'
p126
aS'Liten tilleggsbelastning'
p127
aS'Naturlig utloest'
p128
aS'Liten tilleggsbelastning'
p129
aS'Liten tilleggsbelastning'
p130
aS'Liten tilleggsbelastning'
p131
aS'Naturlig utloest'
p132
aS'Liten tilleggsbelastning'
p133
aS'Liten tilleggsbelastning'
p134
aS'Stor tilleggsbelastning'
p135
aS'Stor tilleggsbelastning'
p136
aS'Stor tilleggsbelastning'
p137
aS'Naturlig utloest'
p138
aS'Liten tilleggsbelastning'
p139
aS'Liten tilleggsbelastning'
p140
aS'Naturlig utloest'
p141
aS'Naturlig utloest'
p142
aS'Naturlig utloest'
p143
aS'Liten tilleggsbelastning'
p144
aS'Naturlig utloest'
p145
aS'Naturlig utloest'
p146
aS'Naturlig utloest'
p147
aS'Liten tilleggsbelastning'
p148
aS'Liten tilleggsbelastning'
p149
aS'Liten tilleggsbelastning'
p150
aS'Liten tilleggsbelastning'
p151
aS'Liten tilleggsbelastning'
p152
aS'Liten tilleggsbelastning'
p153
aS'Liten tilleggsbelastning'
p154
aS'Naturlig utloest'
p155
aS'Naturlig utloest'
p156
aS'Naturlig utloest'
p157
aS'Naturlig utloest'
p158
aS'Naturlig utloest'
p159
aS'Naturlig utloest'
p160
aS'Naturlig utloest'
p161
aS'Naturlig utloest'
p162
aS'Naturlig utloest'
p163
aS'Naturlig utloest'
p164
assS'distribution'
p165
(dp166
g3
(lp167
S'Isolerte faresoner'
p168
aS'Noen bratte heng'
p169
aS'Mange bratte heng'
p170
aS'De fleste bratte heng'
p171
aS'Ogsaa i mindre bratt terreng'
p172
asg8
(lp173
g10
asg11
(lp174
S'Noen bratte heng'
p175
aS'Noen bratte heng'
p176
aS'Noen bratte heng'
p177
aS'Noen bratte heng'
p178
aS'Noen bratte heng'
p179
aS'Noen bratte heng'
p180
aS'Isolerte faresoner'
p181
aS'Isolerte faresoner'
p182
aS'Isolerte faresoner'
p183
aS'Noen bratte heng'
p184
aS'Noen bratte heng'
p185
aS'Noen bratte heng'
p186
aS'Mange bratte heng'
p187
aS'Mange bratte heng'
p188
aS'Isolerte faresoner'
p189
aS'Noen bratte heng'
p190
aS'Noen bratte heng'
p191
aS'Noen bratte heng'
p192
aS'Noen bratte heng'
p193
aS'Isolerte faresoner'
p194
aS'Isolerte faresoner'
p195
aS'Isolerte faresoner'
p196
aS'Isolerte faresoner'
p197
aS'Noen bratte heng'
p198
aS'Isolerte faresoner'
p199
aS'Isolerte faresoner'
p200
aS'Isolerte faresoner'
p201
aS'Noen bratte heng'
p202
aS'Noen bratte heng'
p203
aS'Noen bratte heng'
p204
aS'Noen bratte heng'
p205
aS'Noen bratte heng'
p206
aS'Isolerte faresoner'
p207
aS'Isolerte faresoner'
p208
aS'Noen bratte heng'
p209
aS'Noen bratte heng'
p210
aS'Noen bratte heng'
p211
aS'Noen bratte heng'
p212
aS'Noen bratte heng'
p213
aS'Noen bratte heng'
p214
aS'Noen bratte heng'
p215
aS'Noen bratte heng'
p216
aS'Noen bratte heng'
p217
aS'Noen bratte heng'
p218
aS'Noen bratte heng'
p219
aS'Noen bratte heng'
p220
aS'Noen bratte heng'
p221
aS'Noen bratte heng'
p222
aS'Noen bratte heng'
p223
aS'Noen bratte heng'
p224
aS'Noen bratte heng'
p225
aS'Noen bratte heng'
p226
aS'Noen bratte heng'
p227
aS'Noen bratte heng'
p228
aS'Mange bratte heng'
p229
aS'Mange bratte heng'
p230
aS'Noen bratte heng'
p231
aS'Noen bratte heng'
p232
aS'Noen bratte heng'
p233
aS'Mange bratte heng'
p234
aS'Mange bratte heng'
p235
aS'Mange bratte heng'
p236
aS'Noen bratte heng'
p237
aS'Noen bratte heng'
p238
aS'Mange bratte heng'
p239
aS'Mange bratte heng'
p240
aS'Mange bratte heng'
p241
aS'Noen bratte heng'
p242
aS'Noen bratte heng'
p243
aS'Noen bratte heng'
p244
aS'Mange bratte heng'
p245
aS'Noen bratte heng'
p246
aS'Noen bratte heng'
p247
aS'Noen bratte heng'
p248
aS'Noen bratte heng'
p249
aS'Noen bratte heng'
p250
aS'Noen bratte heng'
p251
aS'Noen bratte heng'
p252
aS'Noen bratte heng'
p253
aS'Noen bratte heng'
p254
aS'Noen bratte heng'
p255
aS'Noen bratte heng'
p256
aS'Noen bratte heng'
p257
aS'Noen bratte heng'
p258
aS'Noen bratte heng'
p259
aS'Noen bratte heng'
p260
aS'Noen bratte heng'
p261
aS'Noen bratte heng'
p262
aS'Noen bratte heng'
p263
aS'Noen bratte heng'
p264
aS'Noen bratte heng'
p265
aS'Noen bratte heng'
p266
aS'Noen bratte heng'
p267
aS'Noen bratte heng'
p268
aS'Noen bratte heng'
p269
aS'Noen bratte heng'
p270
aS'Noen bratte heng'
p271
aS'Noen bratte heng'
p272
aS'Noen bratte heng'
p273
aS'Noen bratte heng'
p274
aS'Noen bratte heng'
p275
aS'Noen bratte heng'
p276
aS'Noen bratte heng'
p277
aS'Noen bratte heng'
p278
aS'Noen bratte heng'
p279
aS'Isolerte faresoner'
p280
aS'Noen bratte heng'
p281
aS'Noen bratte heng'
p282
aS'Isolerte faresoner'
p283
aS'Isolerte faresoner'
p284
aS'Isolerte faresoner'
p285
aS'Noen bratte heng'
p286
aS'Noen bratte heng'
p287
aS'Noen bratte heng'
p288
aS'Noen bratte heng'
p289
aS'Isolerte faresoner'
p290
aS'Noen bratte heng'
p291
aS'Noen bratte heng'
p292
aS'Isolerte faresoner'
p293
aS'Noen bratte heng'
p294
aS'Isolerte faresoner'
p295
aS'Isolerte faresoner'
p296
aS'Noen bratte heng'
p297
aS'Noen bratte heng'
p298
aS'Noen bratte heng'
p299
aS'Isolerte faresoner'
p300
aS'Isolerte faresoner'
p301
aS'Noen bratte heng'
p302
aS'Isolerte faresoner'
p303
aS'Isolerte faresoner'
p304
aS'Isolerte faresoner'
p305
aS'Isolerte faresoner'
p306
aS'Isolerte faresoner'
p307
aS'Noen bratte heng'
p308
aS'Noen bratte heng'
p309
aS'Isolerte faresoner'
p310
aS'Isolerte faresoner'
p311
aS'Isolerte faresoner'
p312
aS'Noen bratte heng'
p313
aS'Isolerte faresoner'
p314
aS'Isolerte faresoner'
p315
aS'Isolerte faresoner'
p316
aS'Noen bratte heng'
p317
aS'Noen bratte heng'
p318
aS'Noen bratte heng'
p319
aS'Isolerte faresoner'
p320
aS'Noen bratte heng'
p321
aS'Noen bratte heng'
p322
aS'Noen bratte heng'
p323
aS'Noen bratte heng'
p324
aS'Isolerte faresoner'
p325
aS'Noen bratte heng'
p326
assS'size'
p327
(dp328
g3
(lp329
S'1 - Harmloest'
p330
aS'2 - Smaa'
p331
aS'3 - Middels'
p332
aS'4 - Store'
p333
aS'5 - Svaert store'
p334
aS'Ukjent'
p335
asg8
(lp336
g10
asg11
(lp337
S'2 - Smaa'
p338
aS'3 - Middels'
p339
aS'3 - Middels'
p340
aS'3 - Middels'
p341
aS'3 - Middels'
p342
aS'3 - Middels'
p343
aS'2 - Smaa'
p344
aS'2 - Smaa'
p345
aS'2 - Smaa'
p346
aS'2 - Smaa'
p347
aS'2 - Smaa'
p348
aS'3 - Middels'
p349
aS'3 - Middels'
p350
aS'3 - Middels'
p351
aS'2 - Smaa'
p352
aS'3 - Middels'
p353
aS'3 - Middels'
p354
aS'2 - Smaa'
p355
aS'3 - Middels'
p356
aS'1 - Harmloest'
p357
aS'1 - Harmloest'
p358
aS'2 - Smaa'
p359
aS'2 - Smaa'
p360
aS'2 - Smaa'
p361
aS'2 - Smaa'
p362
aS'2 - Smaa'
p363
aS'1 - Harmloest'
p364
aS'2 - Smaa'
p365
aS'2 - Smaa'
p366
aS'2 - Smaa'
p367
aS'2 - Smaa'
p368
aS'2 - Smaa'
p369
aS'2 - Smaa'
p370
aS'2 - Smaa'
p371
aS'2 - Smaa'
p372
aS'2 - Smaa'
p373
aS'2 - Smaa'
p374
aS'2 - Smaa'
p375
aS'2 - Smaa'
p376
aS'2 - Smaa'
p377
aS'2 - Smaa'
p378
aS'2 - Smaa'
p379
aS'2 - Smaa'
p380
aS'2 - Smaa'
p381
aS'3 - Middels'
p382
aS'2 - Smaa'
p383
aS'2 - Smaa'
p384
aS'3 - Middels'
p385
aS'3 - Middels'
p386
aS'3 - Middels'
p387
aS'3 - Middels'
p388
aS'3 - Middels'
p389
aS'2 - Smaa'
p390
aS'3 - Middels'
p391
aS'3 - Middels'
p392
aS'3 - Middels'
p393
aS'3 - Middels'
p394
aS'3 - Middels'
p395
aS'3 - Middels'
p396
aS'3 - Middels'
p397
aS'3 - Middels'
p398
aS'3 - Middels'
p399
aS'2 - Smaa'
p400
aS'3 - Middels'
p401
aS'3 - Middels'
p402
aS'3 - Middels'
p403
aS'3 - Middels'
p404
aS'3 - Middels'
p405
aS'3 - Middels'
p406
aS'3 - Middels'
p407
aS'3 - Middels'
p408
aS'3 - Middels'
p409
aS'3 - Middels'
p410
aS'3 - Middels'
p411
aS'3 - Middels'
p412
aS'3 - Middels'
p413
aS'3 - Middels'
p414
aS'3 - Middels'
p415
aS'3 - Middels'
p416
aS'2 - Smaa'
p417
aS'3 - Middels'
p418
aS'1 - Harmloest'
p419
aS'2 - Smaa'
p420
aS'3 - Middels'
p421
aS'3 - Middels'
p422
aS'2 - Smaa'
p423
aS'3 - Middels'
p424
aS'3 - Middels'
p425
aS'3 - Middels'
p426
aS'3 - Middels'
p427
aS'3 - Middels'
p428
aS'3 - Middels'
p429
aS'3 - Middels'
p430
aS'3 - Middels'
p431
aS'2 - Smaa'
p432
aS'3 - Middels'
p433
aS'3 - Middels'
p434
aS'2 - Smaa'
p435
aS'3 - Middels'
p436
aS'3 - Middels'
p437
aS'3 - Middels'
p438
aS'3 - Middels'
p439
aS'2 - Smaa'
p440
aS'2 - Smaa'
p441
aS'2 - Smaa'
p442
aS'2 - Smaa'
p443
aS'2 - Smaa'
p444
aS'2 - Smaa'
p445
aS'2 - Smaa'
p446
aS'2 - Smaa'
p447
aS'2 - Smaa'
p448
aS'1 - Harmloest'
p449
aS'2 - Smaa'
p450
aS'2 - Smaa'
p451
aS'2 - Smaa'
p452
aS'2 - Smaa'
p453
aS'1 - Harmloest'
p454
aS'1 - Harmloest'
p455
aS'2 - Smaa'
p456
aS'1 - Harmloest'
p457
aS'2 - Smaa'
p458
aS'1 - Harmloest'
p459
aS'2 - Smaa'
p460
aS'2 - Smaa'
p461
aS'2 - Smaa'
p462
aS'2 - Smaa'
p463
aS'2 - Smaa'
p464
aS'2 - Smaa'
p465
aS'2 - Smaa'
p466
aS'2 - Smaa'
p467
aS'2 - Smaa'
p468
aS'2 - Smaa'
p469
aS'2 - Smaa'
p470
aS'2 - Smaa'
p471
aS'2 - Smaa'
p472
aS'1 - Harmloest'
p473
aS'1 - Harmloest'
p474
aS'2 - Smaa'
p475
aS'1 - Harmloest'
p476
aS'1 - Harmloest'
p477
aS'2 - Smaa'
p478
aS'2 - Smaa'
p479
aS'2 - Smaa'
p480
aS'2 - Smaa'
p481
aS'2 - Smaa'
p482
aS'2 - Smaa'
p483
aS'2 - Smaa'
p484
aS'2 - Smaa'
p485
aS'2 - Smaa'
p486
aS'2 - Smaa'
p487
aS'2 - Smaa'
p488
aS'2 - Smaa'
p489
assS'probability'
p490
(dp491
g3
(lp492
S'Lite sannsynlig'
p493
aS'Mulig'
p494
aS'Sannsynlig'
p495
aS'Meget sannsynlig'
p496
asg8
(lp497
g10
asg11
(lp498
S'Mulig'
p499
aS'Mulig'
p500
aS'Mulig'
p501
aS'Mulig'
p502
aS'Mulig'
p503
aS'Mulig'
p504
aS'Mulig'
p505
aS'Mulig'
p506
aS'Mulig'
p507
aS'Mulig'
p508
aS'Mulig'
p509
aS'Mulig'
p510
aS'Mulig'
p511
aS'Mulig'
p512
aS'Mulig'
p513
aS'Mulig'
p514
aS'Mulig'
p515
aS'Mulig'
p516
aS'Mulig'
p517
aS'Mulig'
p518
aS'Mulig'
p519
aS'Mulig'
p520
aS'Mulig'
p521
aS'Mulig'
p522
aS'Mulig'
p523
aS'Lite sannsynlig'
p524
aS'Mulig'
p525
aS'Mulig'
p526
aS'Mulig'
p527
aS'Mulig'
p528
aS'Mulig'
p529
aS'Mulig'
p530
aS'Lite sannsynlig'
p531
aS'Lite sannsynlig'
p532
aS'Mulig'
p533
aS'Sannsynlig'
p534
aS'Mulig'
p535
aS'Mulig'
p536
aS'Mulig'
p537
aS'Mulig'
p538
aS'Mulig'
p539
aS'Mulig'
p540
aS'Mulig'
p541
aS'Mulig'
p542
aS'Mulig'
p543
aS'Mulig'
p544
aS'Mulig'
p545
aS'Mulig'
p546
aS'Mulig'
p547
aS'Mulig'
p548
aS'Mulig'
p549
aS'Mulig'
p550
aS'Mulig'
p551
aS'Mulig'
p552
aS'Mulig'
p553
aS'Mulig'
p554
aS'Mulig'
p555
aS'Mulig'
p556
aS'Mulig'
p557
aS'Mulig'
p558
aS'Mulig'
p559
aS'Mulig'
p560
aS'Mulig'
p561
aS'Mulig'
p562
aS'Mulig'
p563
aS'Mulig'
p564
aS'Mulig'
p565
aS'Mulig'
p566
aS'Mulig'
p567
aS'Mulig'
p568
aS'Mulig'
p569
aS'Mulig'
p570
aS'Mulig'
p571
aS'Mulig'
p572
aS'Mulig'
p573
aS'Mulig'
p574
aS'Mulig'
p575
aS'Mulig'
p576
aS'Mulig'
p577
aS'Mulig'
p578
aS'Mulig'
p579
aS'Mulig'
p580
aS'Mulig'
p581
aS'Mulig'
p582
aS'Mulig'
p583
aS'Mulig'
p584
aS'Mulig'
p585
aS'Mulig'
p586
aS'Mulig'
p587
aS'Mulig'
p588
aS'Mulig'
p589
aS'Mulig'
p590
aS'Mulig'
p591
aS'Mulig'
p592
aS'Mulig'
p593
aS'Mulig'
p594
aS'Mulig'
p595
aS'Mulig'
p596
aS'Mulig'
p597
aS'Mulig'
p598
aS'Mulig'
p599
aS'Mulig'
p600
aS'Mulig'
p601
aS'Mulig'
p602
aS'Mulig'
p603
aS'Mulig'
p604
aS'Mulig'
p605
aS'Mulig'
p606
aS'Mulig'
p607
aS'Mulig'
p608
aS'Mulig'
p609
aS'Mulig'
p610
aS'Mulig'
p611
aS'Mulig'
p612
aS'Mulig'
p613
aS'Mulig'
p614
aS'Mulig'
p615
aS'Mulig'
p616
aS'Mulig'
p617
aS'Mulig'
p618
aS'Mulig'
p619
aS'Mulig'
p620
aS'Mulig'
p621
aS'Mulig'
p622
aS'Mulig'
p623
aS'Mulig'
p624
aS'Mulig'
p625
aS'Mulig'
p626
aS'Mulig'
p627
aS'Mulig'
p628
aS'Mulig'
p629
aS'Mulig'
p630
aS'Mulig'
p631
aS'Mulig'
p632
aS'Mulig'
p633
aS'Mulig'
p634
aS'Mulig'
p635
aS'Mulig'
p636
aS'Mulig'
p637
aS'Mulig'
p638
aS'Mulig'
p639
aS'Mulig'
p640
aS'Mulig'
p641
aS'Mulig'
p642
aS'Mulig'
p643
aS'Mulig'
p644
aS'Mulig'
p645
aS'Mulig'
p646
aS'Mulig'
p647
aS'Mulig'
p648
aS'Mulig'
p649
aS'Mulig'
p650
assS'level'
p651
(dp652
g3
(lp653
I1
aI2
aI3
aI4
aI5
asg8
(lp654
S'#ccff66'
p655
aS'#ffff00'
p656
aS'#ff9900'
p657
aS'#ff0000'
p658
aS'k'
p659
asg11
(lp660
I2
aI2
aI3
aI3
aI3
aI3
aI2
aI2
aI2
aI2
aI3
aI3
aI3
aI4
aI2
aI3
aI3
aI3
aI3
aI1
aI1
aI1
aI1
aI2
aI2
aI1
aI1
aI2
aI2
aI2
aI2
aI2
aI1
aI1
aI2
aI3
aI2
aI2
aI2
aI2
aI2
aI2
aI2
aI2
aI3
aI2
aI2
aI3
aI3
aI3
aI3
aI3
aI2
aI3
aI4
aI4
aI3
aI3
aI3
aI3
aI3
aI3
aI3
aI2
aI3
aI3
aI3
aI3
aI2
aI3
aI3
aI3
aI2
aI2
aI3
aI3
aI3
aI2
aI2
aI2
aI3
aI2
aI2
aI3
aI2
aI2
aI2
aI2
aI2
aI3
aI2
aI2
aI2
aI2
aI2
aI3
aI2
aI3
aI3
aI3
aI3
aI3
aI2
aI2
aI2
aI1
aI2
aI2
aI1
aI1
aI1
aI1
aI2
aI2
aI2
aI1
aI1
aI1
aI1
aI1
aI1
aI1
aI2
aI2
aI2
aI1
aI1
aI2
aI1
aI1
aI1
aI1
aI2
aI2
aI2
aI1
aI1
aI1
aI1
aI1
aI1
aI1
aI2
aI2
aI2
aI1
aI2
aI2
aI2
aI2
aI1
aI2
ass.