(dp0
S'trigger'
p1
(dp2
S'keys'
p3
(lp4
S'Stor tilleggsbelastning'
p5
aS'Liten tilleggsbelastning'
p6
aS'Naturlig utloest'
p7
asS'colors'
p8
(lp9
S'0.7'
p10
asS'values'
p11
(lp12
S'Liten tilleggsbelastning'
p13
aS'Liten tilleggsbelastning'
p14
aS'Liten tilleggsbelastning'
p15
aS'Liten tilleggsbelastning'
p16
aS'Liten tilleggsbelastning'
p17
aS'Liten tilleggsbelastning'
p18
aS'Liten tilleggsbelastning'
p19
aS'Liten tilleggsbelastning'
p20
aS'Stor tilleggsbelastning'
p21
aS'Stor tilleggsbelastning'
p22
aS'Stor tilleggsbelastning'
p23
aS'Stor tilleggsbelastning'
p24
aS'Stor tilleggsbelastning'
p25
aS'Stor tilleggsbelastning'
p26
aS'Stor tilleggsbelastning'
p27
aS'Stor tilleggsbelastning'
p28
aS'Stor tilleggsbelastning'
p29
aS'Stor tilleggsbelastning'
p30
aS'Stor tilleggsbelastning'
p31
aS'Stor tilleggsbelastning'
p32
assS'distribution'
p33
(dp34
g3
(lp35
S'Isolerte faresoner'
p36
aS'Noen bratte heng'
p37
aS'Mange bratte heng'
p38
aS'De fleste bratte heng'
p39
aS'Ogsaa i mindre bratt terreng'
p40
asg8
(lp41
g10
asg11
(lp42
S'Noen bratte heng'
p43
aS'Noen bratte heng'
p44
aS'Noen bratte heng'
p45
aS'Noen bratte heng'
p46
aS'Noen bratte heng'
p47
aS'Noen bratte heng'
p48
aS'Noen bratte heng'
p49
aS'Noen bratte heng'
p50
aS'Noen bratte heng'
p51
aS'Noen bratte heng'
p52
aS'Noen bratte heng'
p53
aS'Noen bratte heng'
p54
aS'Noen bratte heng'
p55
aS'Noen bratte heng'
p56
aS'Noen bratte heng'
p57
aS'Noen bratte heng'
p58
aS'Noen bratte heng'
p59
aS'Noen bratte heng'
p60
aS'Noen bratte heng'
p61
aS'Noen bratte heng'
p62
assS'size'
p63
(dp64
g3
(lp65
S'1 - Harmloest'
p66
aS'2 - Smaa'
p67
aS'3 - Middels'
p68
aS'4 - Store'
p69
aS'5 - Svaert store'
p70
aS'Ukjent'
p71
asg8
(lp72
g10
asg11
(lp73
S'2 - Smaa'
p74
aS'2 - Smaa'
p75
aS'2 - Smaa'
p76
aS'3 - Middels'
p77
aS'2 - Smaa'
p78
aS'3 - Middels'
p79
aS'3 - Middels'
p80
aS'2 - Smaa'
p81
aS'3 - Middels'
p82
aS'3 - Middels'
p83
aS'3 - Middels'
p84
aS'2 - Smaa'
p85
aS'3 - Middels'
p86
aS'3 - Middels'
p87
aS'2 - Smaa'
p88
aS'2 - Smaa'
p89
aS'3 - Middels'
p90
aS'3 - Middels'
p91
aS'2 - Smaa'
p92
aS'2 - Smaa'
p93
assS'probability'
p94
(dp95
g3
(lp96
S'Lite sannsynlig'
p97
aS'Mulig'
p98
aS'Sannsynlig'
p99
aS'Meget sannsynlig'
p100
asg8
(lp101
g10
asg11
(lp102
S'Mulig'
p103
aS'Mulig'
p104
aS'Mulig'
p105
aS'Mulig'
p106
aS'Mulig'
p107
aS'Mulig'
p108
aS'Mulig'
p109
aS'Mulig'
p110
aS'Mulig'
p111
aS'Mulig'
p112
aS'Mulig'
p113
aS'Mulig'
p114
aS'Mulig'
p115
aS'Mulig'
p116
aS'Mulig'
p117
aS'Mulig'
p118
aS'Mulig'
p119
aS'Mulig'
p120
aS'Mulig'
p121
aS'Mulig'
p122
assS'level'
p123
(dp124
g3
(lp125
I1
aI2
aI3
aI4
aI5
asg8
(lp126
S'#ccff66'
p127
aS'#ffff00'
p128
aS'#ff9900'
p129
aS'#ff0000'
p130
aS'k'
p131
asg11
(lp132
I2
aI2
aI2
aI3
aI2
aI3
aI3
aI2
aI2
aI2
aI2
aI2
aI2
aI2
aI2
aI2
aI2
aI2
aI2
aI2
ass.