(dp0
S'trigger'
p1
(dp2
S'keys'
p3
(lp4
S'Stor tilleggsbelastning'
p5
aS'Liten tilleggsbelastning'
p6
aS'Naturlig utloest'
p7
asS'colors'
p8
(lp9
S'0.7'
p10
asS'values'
p11
(lp12
S'Naturlig utloest'
p13
aS'Liten tilleggsbelastning'
p14
aS'Liten tilleggsbelastning'
p15
aS'Stor tilleggsbelastning'
p16
aS'Liten tilleggsbelastning'
p17
aS'Liten tilleggsbelastning'
p18
aS'Liten tilleggsbelastning'
p19
aS'Stor tilleggsbelastning'
p20
aS'Liten tilleggsbelastning'
p21
aS'Liten tilleggsbelastning'
p22
aS'Liten tilleggsbelastning'
p23
aS'Liten tilleggsbelastning'
p24
aS'Liten tilleggsbelastning'
p25
aS'Liten tilleggsbelastning'
p26
aS'Liten tilleggsbelastning'
p27
aS'Liten tilleggsbelastning'
p28
aS'Liten tilleggsbelastning'
p29
aS'Liten tilleggsbelastning'
p30
aS'Liten tilleggsbelastning'
p31
aS'Liten tilleggsbelastning'
p32
aS'Liten tilleggsbelastning'
p33
aS'Liten tilleggsbelastning'
p34
aS'Liten tilleggsbelastning'
p35
aS'Liten tilleggsbelastning'
p36
aS'Liten tilleggsbelastning'
p37
aS'Liten tilleggsbelastning'
p38
aS'Liten tilleggsbelastning'
p39
aS'Liten tilleggsbelastning'
p40
aS'Liten tilleggsbelastning'
p41
aS'Liten tilleggsbelastning'
p42
aS'Liten tilleggsbelastning'
p43
aS'Liten tilleggsbelastning'
p44
aS'Liten tilleggsbelastning'
p45
aS'Liten tilleggsbelastning'
p46
aS'Liten tilleggsbelastning'
p47
aS'Liten tilleggsbelastning'
p48
aS'Liten tilleggsbelastning'
p49
aS'Liten tilleggsbelastning'
p50
aS'Naturlig utloest'
p51
aS'Liten tilleggsbelastning'
p52
aS'Liten tilleggsbelastning'
p53
aS'Liten tilleggsbelastning'
p54
aS'Liten tilleggsbelastning'
p55
aS'Naturlig utloest'
p56
aS'Naturlig utloest'
p57
aS'Liten tilleggsbelastning'
p58
aS'Naturlig utloest'
p59
aS'Naturlig utloest'
p60
assS'distribution'
p61
(dp62
g3
(lp63
S'Isolerte faresoner'
p64
aS'Noen bratte heng'
p65
aS'Mange bratte heng'
p66
aS'De fleste bratte heng'
p67
aS'Ogsaa i mindre bratt terreng'
p68
asg8
(lp69
g10
asg11
(lp70
S'Noen bratte heng'
p71
aS'Noen bratte heng'
p72
aS'Noen bratte heng'
p73
aS'Noen bratte heng'
p74
aS'Noen bratte heng'
p75
aS'Noen bratte heng'
p76
aS'Noen bratte heng'
p77
aS'Noen bratte heng'
p78
aS'Noen bratte heng'
p79
aS'Noen bratte heng'
p80
aS'Noen bratte heng'
p81
aS'Noen bratte heng'
p82
aS'Noen bratte heng'
p83
aS'Noen bratte heng'
p84
aS'Noen bratte heng'
p85
aS'Noen bratte heng'
p86
aS'Noen bratte heng'
p87
aS'Noen bratte heng'
p88
aS'Noen bratte heng'
p89
aS'Noen bratte heng'
p90
aS'Noen bratte heng'
p91
aS'Noen bratte heng'
p92
aS'Noen bratte heng'
p93
aS'Noen bratte heng'
p94
aS'Noen bratte heng'
p95
aS'Noen bratte heng'
p96
aS'Noen bratte heng'
p97
aS'Noen bratte heng'
p98
aS'Noen bratte heng'
p99
aS'Noen bratte heng'
p100
aS'Noen bratte heng'
p101
aS'Noen bratte heng'
p102
aS'Noen bratte heng'
p103
aS'Noen bratte heng'
p104
aS'Noen bratte heng'
p105
aS'Noen bratte heng'
p106
aS'Noen bratte heng'
p107
aS'Noen bratte heng'
p108
aS'Noen bratte heng'
p109
aS'Noen bratte heng'
p110
aS'Noen bratte heng'
p111
aS'Noen bratte heng'
p112
aS'Noen bratte heng'
p113
aS'Noen bratte heng'
p114
aS'Noen bratte heng'
p115
aS'Noen bratte heng'
p116
aS'Noen bratte heng'
p117
aS'Noen bratte heng'
p118
assS'size'
p119
(dp120
g3
(lp121
S'1 - Harmloest'
p122
aS'2 - Smaa'
p123
aS'3 - Middels'
p124
aS'4 - Store'
p125
aS'5 - Svaert store'
p126
aS'Ukjent'
p127
asg8
(lp128
g10
asg11
(lp129
S'2 - Smaa'
p130
aS'2 - Smaa'
p131
aS'2 - Smaa'
p132
aS'1 - Harmloest'
p133
aS'2 - Smaa'
p134
aS'3 - Middels'
p135
aS'3 - Middels'
p136
aS'1 - Harmloest'
p137
aS'3 - Middels'
p138
aS'2 - Smaa'
p139
aS'3 - Middels'
p140
aS'3 - Middels'
p141
aS'2 - Smaa'
p142
aS'2 - Smaa'
p143
aS'3 - Middels'
p144
aS'2 - Smaa'
p145
aS'2 - Smaa'
p146
aS'2 - Smaa'
p147
aS'2 - Smaa'
p148
aS'2 - Smaa'
p149
aS'2 - Smaa'
p150
aS'2 - Smaa'
p151
aS'2 - Smaa'
p152
aS'2 - Smaa'
p153
aS'2 - Smaa'
p154
aS'2 - Smaa'
p155
aS'2 - Smaa'
p156
aS'2 - Smaa'
p157
aS'2 - Smaa'
p158
aS'2 - Smaa'
p159
aS'2 - Smaa'
p160
aS'2 - Smaa'
p161
aS'2 - Smaa'
p162
aS'2 - Smaa'
p163
aS'2 - Smaa'
p164
aS'2 - Smaa'
p165
aS'2 - Smaa'
p166
aS'2 - Smaa'
p167
aS'1 - Harmloest'
p168
aS'2 - Smaa'
p169
aS'2 - Smaa'
p170
aS'2 - Smaa'
p171
aS'2 - Smaa'
p172
aS'2 - Smaa'
p173
aS'2 - Smaa'
p174
aS'2 - Smaa'
p175
aS'2 - Smaa'
p176
aS'2 - Smaa'
p177
assS'probability'
p178
(dp179
g3
(lp180
S'Lite sannsynlig'
p181
aS'Mulig'
p182
aS'Sannsynlig'
p183
aS'Meget sannsynlig'
p184
asg8
(lp185
g10
asg11
(lp186
S'Sannsynlig'
p187
aS'Mulig'
p188
aS'Mulig'
p189
aS'Lite sannsynlig'
p190
aS'Mulig'
p191
aS'Mulig'
p192
aS'Mulig'
p193
aS'Lite sannsynlig'
p194
aS'Mulig'
p195
aS'Mulig'
p196
aS'Mulig'
p197
aS'Mulig'
p198
aS'Mulig'
p199
aS'Mulig'
p200
aS'Mulig'
p201
aS'Mulig'
p202
aS'Mulig'
p203
aS'Mulig'
p204
aS'Mulig'
p205
aS'Mulig'
p206
aS'Mulig'
p207
aS'Mulig'
p208
aS'Mulig'
p209
aS'Mulig'
p210
aS'Mulig'
p211
aS'Mulig'
p212
aS'Mulig'
p213
aS'Mulig'
p214
aS'Mulig'
p215
aS'Mulig'
p216
aS'Mulig'
p217
aS'Mulig'
p218
aS'Mulig'
p219
aS'Mulig'
p220
aS'Mulig'
p221
aS'Mulig'
p222
aS'Mulig'
p223
aS'Mulig'
p224
aS'Mulig'
p225
aS'Mulig'
p226
aS'Mulig'
p227
aS'Mulig'
p228
aS'Mulig'
p229
aS'Sannsynlig'
p230
aS'Sannsynlig'
p231
aS'Mulig'
p232
aS'Sannsynlig'
p233
aS'Sannsynlig'
p234
assS'level'
p235
(dp236
g3
(lp237
I1
aI2
aI3
aI4
aI5
asg8
(lp238
S'#ccff66'
p239
aS'#ffff00'
p240
aS'#ff9900'
p241
aS'#ff0000'
p242
aS'k'
p243
asg11
(lp244
I3
aI2
aI2
aI1
aI2
aI3
aI3
aI1
aI3
aI2
aI3
aI3
aI2
aI2
aI3
aI2
aI2
aI2
aI2
aI2
aI2
aI2
aI2
aI2
aI2
aI2
aI2
aI2
aI2
aI2
aI2
aI2
aI2
aI2
aI2
aI2
aI2
aI2
aI2
aI2
aI2
aI2
aI2
aI3
aI3
aI2
aI3
aI3
ass.