(lp0
(irunmatrix
M3Element
p1
(dp2
S'danger_level_average'
p3
NsS'probability'
p4
S'Lite sannsynlig, Mulig'
p5
sS'colour'
p6
S'white'
p7
sS'danger_level_list'
p8
(lp9
sS'label_probalility'
p10
S'Possible'
p11
sS'label_distribution'
p12
S'Isolated'
p13
sS'recomended_colour'
p14
S'#ccff66'
p15
sS'recomended_danger_level'
p16
I1
sS'label_trigger'
p17
S'High'
p18
sS'trigger'
p19
S'Stor tilleggsbelastning'
p20
sS'occurrences'
p21
NsS'y'
p22
S'100'
p23
sS'x'
p24
S'100'
p25
sS'distribution'
p26
S'Isolerte faresoner'
p27
sS'danger_level_standard_dev'
p28
NsS'label_size'
p29
S'1'
p30
sS'avalanche_size'
p31
S'1 - Harmloest'
p32
sba(irunmatrix
M3Element
p33
(dp34
g3
Nsg4
S'Lite sannsynlig, Mulig'
p35
sg6
S'white'
p36
sg8
(lp37
sg10
S'Possible'
p38
sg12
S'Isolated'
p39
sg14
g15
sg16
I1
sg17
S'Low'
p40
sg19
S'Liten tilleggsbelastning'
p41
sg21
Nsg22
S'100'
p42
sg24
S'200'
p43
sg26
S'Isolerte faresoner'
p44
sg28
Nsg29
g30
sg31
S'1 - Harmloest'
p45
sba(irunmatrix
M3Element
p46
(dp47
g3
Nsg4
S'Lite sannsynlig, Mulig'
p48
sg6
S'white'
p49
sg8
(lp50
sg10
S'Possible'
p51
sg12
S'Isolated'
p52
sg14
g15
sg16
I1
sg17
S'Nat'
p53
sg19
S'Naturlig utloest'
p54
sg21
Nsg22
S'100'
p55
sg24
S'300'
p56
sg26
S'Isolerte faresoner'
p57
sg28
Nsg29
g30
sg31
S'1 - Harmloest'
p58
sba(irunmatrix
M3Element
p59
(dp60
g3
Nsg4
S'Sannsynlig, Meget sannsynlig'
p61
sg6
S'gray'
p62
sg8
(lp63
sg10
S'Likely'
p64
sg12
S'Isolated'
p65
sg14
S'gray'
p66
sg16
I0
sg17
S'High'
p67
sg19
S'Stor tilleggsbelastning'
p68
sg21
Nsg22
S'100'
p69
sg24
S'400'
p70
sg26
S'Isolerte faresoner'
p71
sg28
Nsg29
g30
sg31
S'1 - Harmloest'
p72
sba(irunmatrix
M3Element
p73
(dp74
g3
Nsg4
S'Sannsynlig, Meget sannsynlig'
p75
sg6
S'gray'
p76
sg8
(lp77
sg10
S'Likely'
p78
sg12
S'Isolated'
p79
sg14
g66
sg16
I0
sg17
S'Low'
p80
sg19
S'Liten tilleggsbelastning'
p81
sg21
Nsg22
S'100'
p82
sg24
S'500'
p83
sg26
S'Isolerte faresoner'
p84
sg28
Nsg29
g30
sg31
S'1 - Harmloest'
p85
sba(irunmatrix
M3Element
p86
(dp87
g3
Nsg4
S'Sannsynlig, Meget sannsynlig'
p88
sg6
S'gray'
p89
sg8
(lp90
sg10
S'Likely'
p91
sg12
S'Isolated'
p92
sg14
g66
sg16
I0
sg17
S'Nat'
p93
sg19
S'Naturlig utloest'
p94
sg21
Nsg22
S'100'
p95
sg24
S'600'
p96
sg26
S'Isolerte faresoner'
p97
sg28
Nsg29
g30
sg31
S'1 - Harmloest'
p98
sba(irunmatrix
M3Element
p99
(dp100
g3
Nsg4
S'Lite sannsynlig, Mulig'
p101
sg6
S'white'
p102
sg8
(lp103
sg10
S'Possible'
p104
sg12
S'Some'
p105
sg14
g15
sg16
I1
sg17
S'High'
p106
sg19
S'Stor tilleggsbelastning'
p107
sg21
Nsg22
S'100'
p108
sg24
S'700'
p109
sg26
S'Noen bratte heng'
p110
sg28
Nsg29
g30
sg31
S'1 - Harmloest'
p111
sba(irunmatrix
M3Element
p112
(dp113
g3
F2.0
sg4
S'Lite sannsynlig, Mulig'
p114
sg6
S'#ffff00'
p115
sg8
(lp116
I2
aI2
asg10
S'Possible'
p117
sg12
S'Some'
p118
sg14
g15
sg16
I1
sg17
S'Low'
p119
sg19
S'Liten tilleggsbelastning'
p120
sg21
I2
sg22
S'100'
p121
sg24
S'800'
p122
sg26
S'Noen bratte heng'
p123
sg28
cnumpy.core.multiarray
scalar
p124
(cnumpy
dtype
p125
(S'f8'
p126
I0
I1
tp127
Rp128
(I3
S'<'
p129
NNNI-1
I-1
I0
tp130
bS'\x00\x00\x00\x00\x00\x00\x00\x00'
p131
tp132
Rp133
sg29
g30
sg31
S'1 - Harmloest'
p134
sba(irunmatrix
M3Element
p135
(dp136
g3
Nsg4
S'Lite sannsynlig, Mulig'
p137
sg6
S'white'
p138
sg8
(lp139
sg10
S'Possible'
p140
sg12
S'Some'
p141
sg14
g15
sg16
I1
sg17
S'Nat'
p142
sg19
S'Naturlig utloest'
p143
sg21
Nsg22
S'100'
p144
sg24
S'900'
p145
sg26
S'Noen bratte heng'
p146
sg28
Nsg29
g30
sg31
S'1 - Harmloest'
p147
sba(irunmatrix
M3Element
p148
(dp149
g3
Nsg4
S'Sannsynlig, Meget sannsynlig'
p150
sg6
S'gray'
p151
sg8
(lp152
sg10
S'Likely'
p153
sg12
S'Some'
p154
sg14
g66
sg16
I0
sg17
S'High'
p155
sg19
S'Stor tilleggsbelastning'
p156
sg21
Nsg22
S'100'
p157
sg24
S'1000'
p158
sg26
S'Noen bratte heng'
p159
sg28
Nsg29
g30
sg31
S'1 - Harmloest'
p160
sba(irunmatrix
M3Element
p161
(dp162
g3
Nsg4
S'Sannsynlig, Meget sannsynlig'
p163
sg6
S'gray'
p164
sg8
(lp165
sg10
S'Likely'
p166
sg12
S'Some'
p167
sg14
g66
sg16
I0
sg17
S'Low'
p168
sg19
S'Liten tilleggsbelastning'
p169
sg21
Nsg22
S'100'
p170
sg24
S'1100'
p171
sg26
S'Noen bratte heng'
p172
sg28
Nsg29
g30
sg31
S'1 - Harmloest'
p173
sba(irunmatrix
M3Element
p174
(dp175
g3
Nsg4
S'Sannsynlig, Meget sannsynlig'
p176
sg6
S'white'
p177
sg8
(lp178
sg10
S'Likely'
p179
sg12
S'Some'
p180
sg14
g15
sg16
I1
sg17
S'Nat'
p181
sg19
S'Naturlig utloest'
p182
sg21
Nsg22
S'100'
p183
sg24
S'1200'
p184
sg26
S'Noen bratte heng'
p185
sg28
Nsg29
g30
sg31
S'1 - Harmloest'
p186
sba(irunmatrix
M3Element
p187
(dp188
g3
Nsg4
S'Lite sannsynlig, Mulig'
p189
sg6
S'gray'
p190
sg8
(lp191
sg10
S'Possible'
p192
sg12
S'Many'
p193
sg14
g66
sg16
I0
sg17
S'High'
p194
sg19
S'Stor tilleggsbelastning'
p195
sg21
Nsg22
S'100'
p196
sg24
S'1300'
p197
sg26
S'Mange bratte heng'
p198
sg28
Nsg29
g30
sg31
S'1 - Harmloest'
p199
sba(irunmatrix
M3Element
p200
(dp201
g3
Nsg4
S'Lite sannsynlig, Mulig'
p202
sg6
S'white'
p203
sg8
(lp204
sg10
S'Possible'
p205
sg12
S'Many'
p206
sg14
g15
sg16
I1
sg17
S'Low'
p207
sg19
S'Liten tilleggsbelastning'
p208
sg21
Nsg22
S'100'
p209
sg24
S'1400'
p210
sg26
S'Mange bratte heng'
p211
sg28
Nsg29
g30
sg31
S'1 - Harmloest'
p212
sba(irunmatrix
M3Element
p213
(dp214
g3
Nsg4
S'Lite sannsynlig, Mulig'
p215
sg6
S'gray'
p216
sg8
(lp217
sg10
S'Possible'
p218
sg12
S'Many'
p219
sg14
g66
sg16
I0
sg17
S'Nat'
p220
sg19
S'Naturlig utloest'
p221
sg21
Nsg22
S'100'
p222
sg24
S'1500'
p223
sg26
S'Mange bratte heng'
p224
sg28
Nsg29
g30
sg31
S'1 - Harmloest'
p225
sba(irunmatrix
M3Element
p226
(dp227
g3
Nsg4
S'Sannsynlig, Meget sannsynlig'
p228
sg6
S'gray'
p229
sg8
(lp230
sg10
S'Likely'
p231
sg12
S'Many'
p232
sg14
g66
sg16
I0
sg17
S'High'
p233
sg19
S'Stor tilleggsbelastning'
p234
sg21
Nsg22
S'100'
p235
sg24
S'1600'
p236
sg26
S'Mange bratte heng'
p237
sg28
Nsg29
g30
sg31
S'1 - Harmloest'
p238
sba(irunmatrix
M3Element
p239
(dp240
g3
Nsg4
S'Sannsynlig, Meget sannsynlig'
p241
sg6
S'white'
p242
sg8
(lp243
sg10
S'Likely'
p244
sg12
S'Many'
p245
sg14
S'#ffff00'
p246
sg16
I2
sg17
S'Low'
p247
sg19
S'Liten tilleggsbelastning'
p248
sg21
Nsg22
S'100'
p249
sg24
S'1700'
p250
sg26
S'Mange bratte heng'
p251
sg28
Nsg29
g30
sg31
S'1 - Harmloest'
p252
sba(irunmatrix
M3Element
p253
(dp254
g3
Nsg4
S'Sannsynlig, Meget sannsynlig'
p255
sg6
S'white'
p256
sg8
(lp257
sg10
S'Likely'
p258
sg12
S'Many'
p259
sg14
g246
sg16
I2
sg17
S'Nat'
p260
sg19
S'Naturlig utloest'
p261
sg21
Nsg22
S'100'
p262
sg24
S'1800'
p263
sg26
S'Mange bratte heng'
p264
sg28
Nsg29
g30
sg31
S'1 - Harmloest'
p265
sba(irunmatrix
M3Element
p266
(dp267
g3
Nsg4
S'Lite sannsynlig, Mulig'
p268
sg6
S'gray'
p269
sg8
(lp270
sg10
S'Possible'
p271
sg12
S'Most'
p272
sg14
g66
sg16
I0
sg17
S'High'
p273
sg19
S'Stor tilleggsbelastning'
p274
sg21
Nsg22
S'100'
p275
sg24
S'1900'
p276
sg26
S'De fleste bratte heng, Ogsaa i mindre bratt terreng'
p277
sg28
Nsg29
g30
sg31
S'1 - Harmloest'
p278
sba(irunmatrix
M3Element
p279
(dp280
g3
Nsg4
S'Lite sannsynlig, Mulig'
p281
sg6
S'gray'
p282
sg8
(lp283
sg10
S'Possible'
p284
sg12
S'Most'
p285
sg14
g66
sg16
I0
sg17
S'Low'
p286
sg19
S'Liten tilleggsbelastning'
p287
sg21
Nsg22
S'100'
p288
sg24
S'2000'
p289
sg26
S'De fleste bratte heng, Ogsaa i mindre bratt terreng'
p290
sg28
Nsg29
g30
sg31
S'1 - Harmloest'
p291
sba(irunmatrix
M3Element
p292
(dp293
g3
Nsg4
S'Lite sannsynlig, Mulig'
p294
sg6
S'gray'
p295
sg8
(lp296
sg10
S'Possible'
p297
sg12
S'Most'
p298
sg14
g66
sg16
I0
sg17
S'Nat'
p299
sg19
S'Naturlig utloest'
p300
sg21
Nsg22
S'100'
p301
sg24
S'2100'
p302
sg26
S'De fleste bratte heng, Ogsaa i mindre bratt terreng'
p303
sg28
Nsg29
g30
sg31
S'1 - Harmloest'
p304
sba(irunmatrix
M3Element
p305
(dp306
g3
Nsg4
S'Sannsynlig, Meget sannsynlig'
p307
sg6
S'gray'
p308
sg8
(lp309
sg10
S'Likely'
p310
sg12
S'Most'
p311
sg14
g66
sg16
I0
sg17
S'High'
p312
sg19
S'Stor tilleggsbelastning'
p313
sg21
Nsg22
S'100'
p314
sg24
S'2200'
p315
sg26
S'De fleste bratte heng, Ogsaa i mindre bratt terreng'
p316
sg28
Nsg29
g30
sg31
S'1 - Harmloest'
p317
sba(irunmatrix
M3Element
p318
(dp319
g3
Nsg4
S'Sannsynlig, Meget sannsynlig'
p320
sg6
S'gray'
p321
sg8
(lp322
sg10
S'Likely'
p323
sg12
S'Most'
p324
sg14
g66
sg16
I0
sg17
S'Low'
p325
sg19
S'Liten tilleggsbelastning'
p326
sg21
Nsg22
S'100'
p327
sg24
S'2300'
p328
sg26
S'De fleste bratte heng, Ogsaa i mindre bratt terreng'
p329
sg28
Nsg29
g30
sg31
S'1 - Harmloest'
p330
sba(irunmatrix
M3Element
p331
(dp332
g3
Nsg4
S'Sannsynlig, Meget sannsynlig'
p333
sg6
S'white'
p334
sg8
(lp335
sg10
S'Likely'
p336
sg12
S'Most'
p337
sg14
g66
sg16
I0
sg17
S'Nat'
p338
sg19
S'Naturlig utloest'
p339
sg21
Nsg22
S'100'
p340
sg24
S'2400'
p341
sg26
S'De fleste bratte heng, Ogsaa i mindre bratt terreng'
p342
sg28
Nsg29
S'2'
p343
sg31
S'1 - Harmloest'
p344
sba(irunmatrix
M3Element
p345
(dp346
g3
F1.0
sg4
S'Lite sannsynlig, Mulig'
p347
sg6
S'#ccff66'
p348
sg8
(lp349
I1
asg10
S'Possible'
p350
sg12
S'Isolated'
p351
sg14
g15
sg16
I1
sg17
S'High'
p352
sg19
S'Stor tilleggsbelastning'
p353
sg21
I1
sg22
S'200'
p354
sg24
S'100'
p355
sg26
S'Isolerte faresoner'
p356
sg28
g124
(g128
S'\x00\x00\x00\x00\x00\x00\x00\x00'
p357
tp358
Rp359
sg29
g343
sg31
S'2 - Smaa'
p360
sba(irunmatrix
M3Element
p361
(dp362
g3
F1.6
sg4
S'Lite sannsynlig, Mulig'
p363
sg6
g115
sg8
(lp364
I2
aI2
aI2
aI2
aI2
aI2
aI1
aI1
aI1
aI1
asg10
S'Possible'
p365
sg12
S'Isolated'
p366
sg14
g15
sg16
I1
sg17
S'Low'
p367
sg19
S'Liten tilleggsbelastning'
p368
sg21
I10
sg22
S'200'
p369
sg24
S'200'
p370
sg26
S'Isolerte faresoner'
p371
sg28
g124
(g128
S'Kh\xdb\xec|Z\xdf?'
p372
tp373
Rp374
sg29
g343
sg31
S'2 - Smaa'
p375
sba(irunmatrix
M3Element
p376
(dp377
g3
Nsg4
S'Lite sannsynlig, Mulig'
p378
sg6
S'white'
p379
sg8
(lp380
sg10
S'Possible'
p381
sg12
S'Isolated'
p382
sg14
g15
sg16
I1
sg17
S'Nat'
p383
sg19
S'Naturlig utloest'
p384
sg21
Nsg22
S'200'
p385
sg24
S'300'
p386
sg26
S'Isolerte faresoner'
p387
sg28
Nsg29
g343
sg31
S'2 - Smaa'
p388
sba(irunmatrix
M3Element
p389
(dp390
g3
Nsg4
S'Sannsynlig, Meget sannsynlig'
p391
sg6
S'gray'
p392
sg8
(lp393
sg10
S'Likely'
p394
sg12
S'Isolated'
p395
sg14
g66
sg16
I0
sg17
S'High'
p396
sg19
S'Stor tilleggsbelastning'
p397
sg21
Nsg22
S'200'
p398
sg24
S'400'
p399
sg26
S'Isolerte faresoner'
p400
sg28
Nsg29
g343
sg31
S'2 - Smaa'
p401
sba(irunmatrix
M3Element
p402
(dp403
g3
Nsg4
S'Sannsynlig, Meget sannsynlig'
p404
sg6
S'gray'
p405
sg8
(lp406
sg10
S'Likely'
p407
sg12
S'Isolated'
p408
sg14
g66
sg16
I0
sg17
S'Low'
p409
sg19
S'Liten tilleggsbelastning'
p410
sg21
Nsg22
S'200'
p411
sg24
S'500'
p412
sg26
S'Isolerte faresoner'
p413
sg28
Nsg29
g343
sg31
S'2 - Smaa'
p414
sba(irunmatrix
M3Element
p415
(dp416
g3
Nsg4
S'Sannsynlig, Meget sannsynlig'
p417
sg6
S'gray'
p418
sg8
(lp419
sg10
S'Likely'
p420
sg12
S'Isolated'
p421
sg14
g66
sg16
I0
sg17
S'Nat'
p422
sg19
S'Naturlig utloest'
p423
sg21
Nsg22
S'200'
p424
sg24
S'600'
p425
sg26
S'Isolerte faresoner'
p426
sg28
Nsg29
g343
sg31
S'2 - Smaa'
p427
sba(irunmatrix
M3Element
p428
(dp429
g3
F2.0
sg4
S'Lite sannsynlig, Mulig'
p430
sg6
g115
sg8
(lp431
I2
aI2
aI2
aI2
aI2
aI2
aI2
aI2
aI2
aI2
aI2
asg10
S'Possible'
p432
sg12
S'Some'
p433
sg14
g246
sg16
I2
sg17
S'High'
p434
sg19
S'Stor tilleggsbelastning'
p435
sg21
I11
sg22
S'200'
p436
sg24
S'700'
p437
sg26
S'Noen bratte heng'
p438
sg28
g124
(g128
S'\x00\x00\x00\x00\x00\x00\x00\x00'
p439
tp440
Rp441
sg29
g343
sg31
S'2 - Smaa'
p442
sba(irunmatrix
M3Element
p443
(dp444
g3
F2.05
sg4
S'Lite sannsynlig, Mulig'
p445
sg6
g115
sg8
(lp446
I2
aI2
aI2
aI3
aI3
aI2
aI2
aI2
aI2
aI2
aI2
aI2
aI2
aI2
aI2
aI2
aI2
aI2
aI2
aI2
aI2
aI2
aI2
aI2
aI2
aI2
aI2
aI2
aI2
aI2
aI2
aI2
aI2
aI2
aI2
aI2
aI2
aI2
aI2
aI2
asg10
S'Possible'
p447
sg12
S'Some'
p448
sg14
g246
sg16
I2
sg17
S'Low'
p449
sg19
S'Liten tilleggsbelastning'
p450
sg21
I40
sg22
S'200'
p451
sg24
S'800'
p452
sg26
S'Noen bratte heng'
p453
sg28
g124
(g128
S'Z\x16:\xba\x9e\xe5\xcb?'
p454
tp455
Rp456
sg29
g343
sg31
S'2 - Smaa'
p457
sba(irunmatrix
M3Element
p458
(dp459
g3
F2.0
sg4
S'Lite sannsynlig, Mulig'
p460
sg6
g115
sg8
(lp461
I2
aI2
asg10
S'Possible'
p462
sg12
S'Some'
p463
sg14
g246
sg16
I2
sg17
S'Nat'
p464
sg19
S'Naturlig utloest'
p465
sg21
I2
sg22
S'200'
p466
sg24
S'900'
p467
sg26
S'Noen bratte heng'
p468
sg28
g124
(g128
S'\x00\x00\x00\x00\x00\x00\x00\x00'
p469
tp470
Rp471
sg29
g343
sg31
S'2 - Smaa'
p472
sba(irunmatrix
M3Element
p473
(dp474
g3
Nsg4
S'Sannsynlig, Meget sannsynlig'
p475
sg6
S'gray'
p476
sg8
(lp477
sg10
S'Likely'
p478
sg12
S'Some'
p479
sg14
g66
sg16
I0
sg17
S'High'
p480
sg19
S'Stor tilleggsbelastning'
p481
sg21
Nsg22
S'200'
p482
sg24
S'1000'
p483
sg26
S'Noen bratte heng'
p484
sg28
Nsg29
g343
sg31
S'2 - Smaa'
p485
sba(irunmatrix
M3Element
p486
(dp487
g3
Nsg4
S'Sannsynlig, Meget sannsynlig'
p488
sg6
S'gray'
p489
sg8
(lp490
sg10
S'Likely'
p491
sg12
S'Some'
p492
sg14
g66
sg16
I0
sg17
S'Low'
p493
sg19
S'Liten tilleggsbelastning'
p494
sg21
Nsg22
S'200'
p495
sg24
S'1100'
p496
sg26
S'Noen bratte heng'
p497
sg28
Nsg29
g343
sg31
S'2 - Smaa'
p498
sba(irunmatrix
M3Element
p499
(dp500
g3
Nsg4
S'Sannsynlig, Meget sannsynlig'
p501
sg6
S'white'
p502
sg8
(lp503
sg10
S'Likely'
p504
sg12
S'Some'
p505
sg14
S'#ff9900'
p506
sg16
I3
sg17
S'Nat'
p507
sg19
S'Naturlig utloest'
p508
sg21
Nsg22
S'200'
p509
sg24
S'1200'
p510
sg26
S'Noen bratte heng'
p511
sg28
Nsg29
g343
sg31
S'2 - Smaa'
p512
sba(irunmatrix
M3Element
p513
(dp514
g3
Nsg4
S'Lite sannsynlig, Mulig'
p515
sg6
S'gray'
p516
sg8
(lp517
sg10
S'Possible'
p518
sg12
S'Many'
p519
sg14
g66
sg16
I0
sg17
S'High'
p520
sg19
S'Stor tilleggsbelastning'
p521
sg21
Nsg22
S'200'
p522
sg24
S'1300'
p523
sg26
S'Mange bratte heng'
p524
sg28
Nsg29
g343
sg31
S'2 - Smaa'
p525
sba(irunmatrix
M3Element
p526
(dp527
g3
F3.0
sg4
S'Lite sannsynlig, Mulig'
p528
sg6
S'#ff9900'
p529
sg8
(lp530
I3
asg10
S'Possible'
p531
sg12
S'Many'
p532
sg14
g506
sg16
I3
sg17
S'Low'
p533
sg19
S'Liten tilleggsbelastning'
p534
sg21
I1
sg22
S'200'
p535
sg24
S'1400'
p536
sg26
S'Mange bratte heng'
p537
sg28
g124
(g128
S'\x00\x00\x00\x00\x00\x00\x00\x00'
p538
tp539
Rp540
sg29
g343
sg31
S'2 - Smaa'
p541
sba(irunmatrix
M3Element
p542
(dp543
g3
Nsg4
S'Lite sannsynlig, Mulig'
p544
sg6
S'gray'
p545
sg8
(lp546
sg10
S'Possible'
p547
sg12
S'Many'
p548
sg14
g66
sg16
I0
sg17
S'Nat'
p549
sg19
S'Naturlig utloest'
p550
sg21
Nsg22
S'200'
p551
sg24
S'1500'
p552
sg26
S'Mange bratte heng'
p553
sg28
Nsg29
g343
sg31
S'2 - Smaa'
p554
sba(irunmatrix
M3Element
p555
(dp556
g3
Nsg4
S'Sannsynlig, Meget sannsynlig'
p557
sg6
S'gray'
p558
sg8
(lp559
sg10
S'Likely'
p560
sg12
S'Many'
p561
sg14
g66
sg16
I0
sg17
S'High'
p562
sg19
S'Stor tilleggsbelastning'
p563
sg21
Nsg22
S'200'
p564
sg24
S'1600'
p565
sg26
S'Mange bratte heng'
p566
sg28
Nsg29
g343
sg31
S'2 - Smaa'
p567
sba(irunmatrix
M3Element
p568
(dp569
g3
Nsg4
S'Sannsynlig, Meget sannsynlig'
p570
sg6
S'white'
p571
sg8
(lp572
sg10
S'Likely'
p573
sg12
S'Many'
p574
sg14
S'#ff0000'
p575
sg16
I4
sg17
S'Low'
p576
sg19
S'Liten tilleggsbelastning'
p577
sg21
Nsg22
S'200'
p578
sg24
S'1700'
p579
sg26
S'Mange bratte heng'
p580
sg28
Nsg29
g343
sg31
S'2 - Smaa'
p581
sba(irunmatrix
M3Element
p582
(dp583
g3
Nsg4
S'Sannsynlig, Meget sannsynlig'
p584
sg6
S'white'
p585
sg8
(lp586
sg10
S'Likely'
p587
sg12
S'Many'
p588
sg14
g575
sg16
I4
sg17
S'Nat'
p589
sg19
S'Naturlig utloest'
p590
sg21
Nsg22
S'200'
p591
sg24
S'1800'
p592
sg26
S'Mange bratte heng'
p593
sg28
Nsg29
g343
sg31
S'2 - Smaa'
p594
sba(irunmatrix
M3Element
p595
(dp596
g3
Nsg4
S'Lite sannsynlig, Mulig'
p597
sg6
S'gray'
p598
sg8
(lp599
sg10
S'Possible'
p600
sg12
S'Most'
p601
sg14
g66
sg16
I0
sg17
S'High'
p602
sg19
S'Stor tilleggsbelastning'
p603
sg21
Nsg22
S'200'
p604
sg24
S'1900'
p605
sg26
S'De fleste bratte heng, Ogsaa i mindre bratt terreng'
p606
sg28
Nsg29
g343
sg31
S'2 - Smaa'
p607
sba(irunmatrix
M3Element
p608
(dp609
g3
Nsg4
S'Lite sannsynlig, Mulig'
p610
sg6
S'gray'
p611
sg8
(lp612
sg10
S'Possible'
p613
sg12
S'Most'
p614
sg14
g66
sg16
I0
sg17
S'Low'
p615
sg19
S'Liten tilleggsbelastning'
p616
sg21
Nsg22
S'200'
p617
sg24
S'2000'
p618
sg26
S'De fleste bratte heng, Ogsaa i mindre bratt terreng'
p619
sg28
Nsg29
g343
sg31
S'2 - Smaa'
p620
sba(irunmatrix
M3Element
p621
(dp622
g3
Nsg4
S'Lite sannsynlig, Mulig'
p623
sg6
S'gray'
p624
sg8
(lp625
sg10
S'Possible'
p626
sg12
S'Most'
p627
sg14
g66
sg16
I0
sg17
S'Nat'
p628
sg19
S'Naturlig utloest'
p629
sg21
Nsg22
S'200'
p630
sg24
S'2100'
p631
sg26
S'De fleste bratte heng, Ogsaa i mindre bratt terreng'
p632
sg28
Nsg29
g343
sg31
S'2 - Smaa'
p633
sba(irunmatrix
M3Element
p634
(dp635
g3
Nsg4
S'Sannsynlig, Meget sannsynlig'
p636
sg6
S'gray'
p637
sg8
(lp638
sg10
S'Likely'
p639
sg12
S'Most'
p640
sg14
g66
sg16
I0
sg17
S'High'
p641
sg19
S'Stor tilleggsbelastning'
p642
sg21
Nsg22
S'200'
p643
sg24
S'2200'
p644
sg26
S'De fleste bratte heng, Ogsaa i mindre bratt terreng'
p645
sg28
Nsg29
g343
sg31
S'2 - Smaa'
p646
sba(irunmatrix
M3Element
p647
(dp648
g3
Nsg4
S'Sannsynlig, Meget sannsynlig'
p649
sg6
S'gray'
p650
sg8
(lp651
sg10
S'Likely'
p652
sg12
S'Most'
p653
sg14
g66
sg16
I0
sg17
S'Low'
p654
sg19
S'Liten tilleggsbelastning'
p655
sg21
Nsg22
S'200'
p656
sg24
S'2300'
p657
sg26
S'De fleste bratte heng, Ogsaa i mindre bratt terreng'
p658
sg28
Nsg29
g343
sg31
S'2 - Smaa'
p659
sba(irunmatrix
M3Element
p660
(dp661
g3
Nsg4
S'Sannsynlig, Meget sannsynlig'
p662
sg6
S'white'
p663
sg8
(lp664
sg10
S'Likely'
p665
sg12
S'Most'
p666
sg14
g66
sg16
I0
sg17
S'Nat'
p667
sg19
S'Naturlig utloest'
p668
sg21
Nsg22
S'200'
p669
sg24
S'2400'
p670
sg26
S'De fleste bratte heng, Ogsaa i mindre bratt terreng'
p671
sg28
Nsg29
g343
sg31
S'2 - Smaa'
p672
sba(irunmatrix
M3Element
p673
(dp674
g3
Nsg4
S'Lite sannsynlig, Mulig'
p675
sg6
S'white'
p676
sg8
(lp677
sg10
S'Possible'
p678
sg12
S'Isolated'
p679
sg14
g15
sg16
I1
sg17
S'High'
p680
sg19
S'Stor tilleggsbelastning'
p681
sg21
Nsg22
S'300'
p682
sg24
S'100'
p683
sg26
S'Isolerte faresoner'
p684
sg28
Nsg29
S'3'
p685
sg31
S'3 - Middels'
p686
sba(irunmatrix
M3Element
p687
(dp688
g3
F2.0
sg4
S'Lite sannsynlig, Mulig'
p689
sg6
g115
sg8
(lp690
I2
asg10
S'Possible'
p691
sg12
S'Isolated'
p692
sg14
g246
sg16
I2
sg17
S'Low'
p693
sg19
S'Liten tilleggsbelastning'
p694
sg21
I1
sg22
S'300'
p695
sg24
S'200'
p696
sg26
S'Isolerte faresoner'
p697
sg28
g124
(g128
S'\x00\x00\x00\x00\x00\x00\x00\x00'
p698
tp699
Rp700
sg29
g685
sg31
S'3 - Middels'
p701
sba(irunmatrix
M3Element
p702
(dp703
g3
Nsg4
S'Lite sannsynlig, Mulig'
p704
sg6
S'white'
p705
sg8
(lp706
sg10
S'Possible'
p707
sg12
S'Isolated'
p708
sg14
g246
sg16
I2
sg17
S'Nat'
p709
sg19
S'Naturlig utloest'
p710
sg21
Nsg22
S'300'
p711
sg24
S'300'
p712
sg26
S'Isolerte faresoner'
p713
sg28
Nsg29
g685
sg31
S'3 - Middels'
p714
sba(irunmatrix
M3Element
p715
(dp716
g3
Nsg4
S'Sannsynlig, Meget sannsynlig'
p717
sg6
S'gray'
p718
sg8
(lp719
sg10
S'Likely'
p720
sg12
S'Isolated'
p721
sg14
g66
sg16
I0
sg17
S'High'
p722
sg19
S'Stor tilleggsbelastning'
p723
sg21
Nsg22
S'300'
p724
sg24
S'400'
p725
sg26
S'Isolerte faresoner'
p726
sg28
Nsg29
g685
sg31
S'3 - Middels'
p727
sba(irunmatrix
M3Element
p728
(dp729
g3
Nsg4
S'Sannsynlig, Meget sannsynlig'
p730
sg6
S'gray'
p731
sg8
(lp732
sg10
S'Likely'
p733
sg12
S'Isolated'
p734
sg14
g66
sg16
I0
sg17
S'Low'
p735
sg19
S'Liten tilleggsbelastning'
p736
sg21
Nsg22
S'300'
p737
sg24
S'500'
p738
sg26
S'Isolerte faresoner'
p739
sg28
Nsg29
g685
sg31
S'3 - Middels'
p740
sba(irunmatrix
M3Element
p741
(dp742
g3
Nsg4
S'Sannsynlig, Meget sannsynlig'
p743
sg6
S'gray'
p744
sg8
(lp745
sg10
S'Likely'
p746
sg12
S'Isolated'
p747
sg14
g66
sg16
I0
sg17
S'Nat'
p748
sg19
S'Naturlig utloest'
p749
sg21
Nsg22
S'300'
p750
sg24
S'600'
p751
sg26
S'Isolerte faresoner'
p752
sg28
Nsg29
g685
sg31
S'3 - Middels'
p753
sba(irunmatrix
M3Element
p754
(dp755
g3
F2.0
sg4
S'Lite sannsynlig, Mulig'
p756
sg6
g115
sg8
(lp757
I2
aI2
aI2
asg10
S'Possible'
p758
sg12
S'Some'
p759
sg14
g246
sg16
I2
sg17
S'High'
p760
sg19
S'Stor tilleggsbelastning'
p761
sg21
I3
sg22
S'300'
p762
sg24
S'700'
p763
sg26
S'Noen bratte heng'
p764
sg28
g124
(g128
S'\x00\x00\x00\x00\x00\x00\x00\x00'
p765
tp766
Rp767
sg29
g685
sg31
S'3 - Middels'
p768
sba(irunmatrix
M3Element
p769
(dp770
g3
F3.0
sg4
S'Lite sannsynlig, Mulig'
p771
sg6
g529
sg8
(lp772
I3
aI3
aI3
aI3
aI3
asg10
S'Possible'
p773
sg12
S'Some'
p774
sg14
g506
sg16
I3
sg17
S'Low'
p775
sg19
S'Liten tilleggsbelastning'
p776
sg21
I5
sg22
S'300'
p777
sg24
S'800'
p778
sg26
S'Noen bratte heng'
p779
sg28
g124
(g128
S'\x00\x00\x00\x00\x00\x00\x00\x00'
p780
tp781
Rp782
sg29
g685
sg31
S'3 - Middels'
p783
sba(irunmatrix
M3Element
p784
(dp785
g3
F3.0
sg4
S'Lite sannsynlig, Mulig'
p786
sg6
g529
sg8
(lp787
I3
asg10
S'Possible'
p788
sg12
S'Some'
p789
sg14
g506
sg16
I3
sg17
S'Nat'
p790
sg19
S'Naturlig utloest'
p791
sg21
I1
sg22
S'300'
p792
sg24
S'900'
p793
sg26
S'Noen bratte heng'
p794
sg28
g124
(g128
S'\x00\x00\x00\x00\x00\x00\x00\x00'
p795
tp796
Rp797
sg29
g685
sg31
S'3 - Middels'
p798
sba(irunmatrix
M3Element
p799
(dp800
g3
Nsg4
S'Sannsynlig, Meget sannsynlig'
p801
sg6
S'gray'
p802
sg8
(lp803
sg10
S'Likely'
p804
sg12
S'Some'
p805
sg14
g66
sg16
I0
sg17
S'High'
p806
sg19
S'Stor tilleggsbelastning'
p807
sg21
Nsg22
S'300'
p808
sg24
S'1000'
p809
sg26
S'Noen bratte heng'
p810
sg28
Nsg29
g685
sg31
S'3 - Middels'
p811
sba(irunmatrix
M3Element
p812
(dp813
g3
Nsg4
S'Sannsynlig, Meget sannsynlig'
p814
sg6
S'gray'
p815
sg8
(lp816
sg10
S'Likely'
p817
sg12
S'Some'
p818
sg14
g66
sg16
I0
sg17
S'Low'
p819
sg19
S'Liten tilleggsbelastning'
p820
sg21
Nsg22
S'300'
p821
sg24
S'1100'
p822
sg26
S'Noen bratte heng'
p823
sg28
Nsg29
g685
sg31
S'3 - Middels'
p824
sba(irunmatrix
M3Element
p825
(dp826
g3
F4.0
sg4
S'Sannsynlig, Meget sannsynlig'
p827
sg6
S'#ff0000'
p828
sg8
(lp829
I4
asg10
S'Likely'
p830
sg12
S'Some'
p831
sg14
g575
sg16
I4
sg17
S'Nat'
p832
sg19
S'Naturlig utloest'
p833
sg21
I1
sg22
S'300'
p834
sg24
S'1200'
p835
sg26
S'Noen bratte heng'
p836
sg28
g124
(g128
S'\x00\x00\x00\x00\x00\x00\x00\x00'
p837
tp838
Rp839
sg29
g685
sg31
S'3 - Middels'
p840
sba(irunmatrix
M3Element
p841
(dp842
g3
Nsg4
S'Lite sannsynlig, Mulig'
p843
sg6
S'gray'
p844
sg8
(lp845
sg10
S'Possible'
p846
sg12
S'Many'
p847
sg14
g66
sg16
I0
sg17
S'High'
p848
sg19
S'Stor tilleggsbelastning'
p849
sg21
Nsg22
S'300'
p850
sg24
S'1300'
p851
sg26
S'Mange bratte heng'
p852
sg28
Nsg29
g685
sg31
S'3 - Middels'
p853
sba(irunmatrix
M3Element
p854
(dp855
g3
Nsg4
S'Lite sannsynlig, Mulig'
p856
sg6
S'white'
p857
sg8
(lp858
sg10
S'Possible'
p859
sg12
S'Many'
p860
sg14
g575
sg16
I4
sg17
S'Low'
p861
sg19
S'Liten tilleggsbelastning'
p862
sg21
Nsg22
S'300'
p863
sg24
S'1400'
p864
sg26
S'Mange bratte heng'
p865
sg28
Nsg29
g685
sg31
S'3 - Middels'
p866
sba(irunmatrix
M3Element
p867
(dp868
g3
Nsg4
S'Lite sannsynlig, Mulig'
p869
sg6
S'gray'
p870
sg8
(lp871
sg10
S'Possible'
p872
sg12
S'Many'
p873
sg14
g66
sg16
I0
sg17
S'Nat'
p874
sg19
S'Naturlig utloest'
p875
sg21
Nsg22
S'300'
p876
sg24
S'1500'
p877
sg26
S'Mange bratte heng'
p878
sg28
Nsg29
g685
sg31
S'3 - Middels'
p879
sba(irunmatrix
M3Element
p880
(dp881
g3
Nsg4
S'Sannsynlig, Meget sannsynlig'
p882
sg6
S'gray'
p883
sg8
(lp884
sg10
S'Likely'
p885
sg12
S'Many'
p886
sg14
g66
sg16
I0
sg17
S'High'
p887
sg19
S'Stor tilleggsbelastning'
p888
sg21
Nsg22
S'300'
p889
sg24
S'1600'
p890
sg26
S'Mange bratte heng'
p891
sg28
Nsg29
g685
sg31
S'3 - Middels'
p892
sba(irunmatrix
M3Element
p893
(dp894
g3
Nsg4
S'Sannsynlig, Meget sannsynlig'
p895
sg6
S'white'
p896
sg8
(lp897
sg10
S'Likely'
p898
sg12
S'Many'
p899
sg14
g575
sg16
I4
sg17
S'Low'
p900
sg19
S'Liten tilleggsbelastning'
p901
sg21
Nsg22
S'300'
p902
sg24
S'1700'
p903
sg26
S'Mange bratte heng'
p904
sg28
Nsg29
g685
sg31
S'3 - Middels'
p905
sba(irunmatrix
M3Element
p906
(dp907
g3
Nsg4
S'Sannsynlig, Meget sannsynlig'
p908
sg6
S'white'
p909
sg8
(lp910
sg10
S'Likely'
p911
sg12
S'Many'
p912
sg14
g575
sg16
I4
sg17
S'Nat'
p913
sg19
S'Naturlig utloest'
p914
sg21
Nsg22
S'300'
p915
sg24
S'1800'
p916
sg26
S'Mange bratte heng'
p917
sg28
Nsg29
g685
sg31
S'3 - Middels'
p918
sba(irunmatrix
M3Element
p919
(dp920
g3
Nsg4
S'Lite sannsynlig, Mulig'
p921
sg6
S'gray'
p922
sg8
(lp923
sg10
S'Possible'
p924
sg12
S'Most'
p925
sg14
g66
sg16
I0
sg17
S'High'
p926
sg19
S'Stor tilleggsbelastning'
p927
sg21
Nsg22
S'300'
p928
sg24
S'1900'
p929
sg26
S'De fleste bratte heng, Ogsaa i mindre bratt terreng'
p930
sg28
Nsg29
g685
sg31
S'3 - Middels'
p931
sba(irunmatrix
M3Element
p932
(dp933
g3
Nsg4
S'Lite sannsynlig, Mulig'
p934
sg6
S'gray'
p935
sg8
(lp936
sg10
S'Possible'
p937
sg12
S'Most'
p938
sg14
g66
sg16
I0
sg17
S'Low'
p939
sg19
S'Liten tilleggsbelastning'
p940
sg21
Nsg22
S'300'
p941
sg24
S'2000'
p942
sg26
S'De fleste bratte heng, Ogsaa i mindre bratt terreng'
p943
sg28
Nsg29
g685
sg31
S'3 - Middels'
p944
sba(irunmatrix
M3Element
p945
(dp946
g3
Nsg4
S'Lite sannsynlig, Mulig'
p947
sg6
S'gray'
p948
sg8
(lp949
sg10
S'Possible'
p950
sg12
S'Most'
p951
sg14
g66
sg16
I0
sg17
S'Nat'
p952
sg19
S'Naturlig utloest'
p953
sg21
Nsg22
S'300'
p954
sg24
S'2100'
p955
sg26
S'De fleste bratte heng, Ogsaa i mindre bratt terreng'
p956
sg28
Nsg29
g685
sg31
S'3 - Middels'
p957
sba(irunmatrix
M3Element
p958
(dp959
g3
Nsg4
S'Sannsynlig, Meget sannsynlig'
p960
sg6
S'gray'
p961
sg8
(lp962
sg10
S'Likely'
p963
sg12
S'Most'
p964
sg14
g66
sg16
I0
sg17
S'High'
p965
sg19
S'Stor tilleggsbelastning'
p966
sg21
Nsg22
S'300'
p967
sg24
S'2200'
p968
sg26
S'De fleste bratte heng, Ogsaa i mindre bratt terreng'
p969
sg28
Nsg29
g685
sg31
S'3 - Middels'
p970
sba(irunmatrix
M3Element
p971
(dp972
g3
Nsg4
S'Sannsynlig, Meget sannsynlig'
p973
sg6
S'gray'
p974
sg8
(lp975
sg10
S'Likely'
p976
sg12
S'Most'
p977
sg14
g66
sg16
I0
sg17
S'Low'
p978
sg19
S'Liten tilleggsbelastning'
p979
sg21
Nsg22
S'300'
p980
sg24
S'2300'
p981
sg26
S'De fleste bratte heng, Ogsaa i mindre bratt terreng'
p982
sg28
Nsg29
g685
sg31
S'3 - Middels'
p983
sba(irunmatrix
M3Element
p984
(dp985
g3
Nsg4
S'Sannsynlig, Meget sannsynlig'
p986
sg6
S'white'
p987
sg8
(lp988
sg10
S'Likely'
p989
sg12
S'Most'
p990
sg14
g66
sg16
I0
sg17
S'Nat'
p991
sg19
S'Naturlig utloest'
p992
sg21
Nsg22
S'300'
p993
sg24
S'2400'
p994
sg26
S'De fleste bratte heng, Ogsaa i mindre bratt terreng'
p995
sg28
Nsg29
g685
sg31
S'3 - Middels'
p996
sba(irunmatrix
M3Element
p997
(dp998
g3
Nsg4
S'Lite sannsynlig, Mulig'
p999
sg6
S'white'
p1000
sg8
(lp1001
sg10
S'Possible'
p1002
sg12
S'Isolated'
p1003
sg14
g246
sg16
I2
sg17
S'High'
p1004
sg19
S'Stor tilleggsbelastning'
p1005
sg21
Nsg22
S'400'
p1006
sg24
S'100'
p1007
sg26
S'Isolerte faresoner'
p1008
sg28
Nsg29
S'4'
p1009
sg31
S'4 - Store'
p1010
sba(irunmatrix
M3Element
p1011
(dp1012
g3
Nsg4
S'Lite sannsynlig, Mulig'
p1013
sg6
S'white'
p1014
sg8
(lp1015
sg10
S'Possible'
p1016
sg12
S'Isolated'
p1017
sg14
g506
sg16
I3
sg17
S'Low'
p1018
sg19
S'Liten tilleggsbelastning'
p1019
sg21
Nsg22
S'400'
p1020
sg24
S'200'
p1021
sg26
S'Isolerte faresoner'
p1022
sg28
Nsg29
g1009
sg31
S'4 - Store'
p1023
sba(irunmatrix
M3Element
p1024
(dp1025
g3
Nsg4
S'Lite sannsynlig, Mulig'
p1026
sg6
S'white'
p1027
sg8
(lp1028
sg10
S'Possible'
p1029
sg12
S'Isolated'
p1030
sg14
g506
sg16
I3
sg17
S'Nat'
p1031
sg19
S'Naturlig utloest'
p1032
sg21
Nsg22
S'400'
p1033
sg24
S'300'
p1034
sg26
S'Isolerte faresoner'
p1035
sg28
Nsg29
g1009
sg31
S'4 - Store'
p1036
sba(irunmatrix
M3Element
p1037
(dp1038
g3
Nsg4
S'Sannsynlig, Meget sannsynlig'
p1039
sg6
S'gray'
p1040
sg8
(lp1041
sg10
S'Likely'
p1042
sg12
S'Isolated'
p1043
sg14
g66
sg16
I0
sg17
S'High'
p1044
sg19
S'Stor tilleggsbelastning'
p1045
sg21
Nsg22
S'400'
p1046
sg24
S'400'
p1047
sg26
S'Isolerte faresoner'
p1048
sg28
Nsg29
g1009
sg31
S'4 - Store'
p1049
sba(irunmatrix
M3Element
p1050
(dp1051
g3
Nsg4
S'Sannsynlig, Meget sannsynlig'
p1052
sg6
S'gray'
p1053
sg8
(lp1054
sg10
S'Likely'
p1055
sg12
S'Isolated'
p1056
sg14
g66
sg16
I0
sg17
S'Low'
p1057
sg19
S'Liten tilleggsbelastning'
p1058
sg21
Nsg22
S'400'
p1059
sg24
S'500'
p1060
sg26
S'Isolerte faresoner'
p1061
sg28
Nsg29
g1009
sg31
S'4 - Store'
p1062
sba(irunmatrix
M3Element
p1063
(dp1064
g3
Nsg4
S'Sannsynlig, Meget sannsynlig'
p1065
sg6
S'gray'
p1066
sg8
(lp1067
sg10
S'Likely'
p1068
sg12
S'Isolated'
p1069
sg14
g66
sg16
I0
sg17
S'Nat'
p1070
sg19
S'Naturlig utloest'
p1071
sg21
Nsg22
S'400'
p1072
sg24
S'600'
p1073
sg26
S'Isolerte faresoner'
p1074
sg28
Nsg29
g1009
sg31
S'4 - Store'
p1075
sba(irunmatrix
M3Element
p1076
(dp1077
g3
Nsg4
S'Lite sannsynlig, Mulig'
p1078
sg6
S'white'
p1079
sg8
(lp1080
sg10
S'Possible'
p1081
sg12
S'Some'
p1082
sg14
g506
sg16
I3
sg17
S'High'
p1083
sg19
S'Stor tilleggsbelastning'
p1084
sg21
Nsg22
S'400'
p1085
sg24
S'700'
p1086
sg26
S'Noen bratte heng'
p1087
sg28
Nsg29
g1009
sg31
S'4 - Store'
p1088
sba(irunmatrix
M3Element
p1089
(dp1090
g3
Nsg4
S'Lite sannsynlig, Mulig'
p1091
sg6
S'white'
p1092
sg8
(lp1093
sg10
S'Possible'
p1094
sg12
S'Some'
p1095
sg14
g575
sg16
I4
sg17
S'Low'
p1096
sg19
S'Liten tilleggsbelastning'
p1097
sg21
Nsg22
S'400'
p1098
sg24
S'800'
p1099
sg26
S'Noen bratte heng'
p1100
sg28
Nsg29
g1009
sg31
S'4 - Store'
p1101
sba(irunmatrix
M3Element
p1102
(dp1103
g3
Nsg4
S'Lite sannsynlig, Mulig'
p1104
sg6
S'white'
p1105
sg8
(lp1106
sg10
S'Possible'
p1107
sg12
S'Some'
p1108
sg14
g575
sg16
I4
sg17
S'Nat'
p1109
sg19
S'Naturlig utloest'
p1110
sg21
Nsg22
S'400'
p1111
sg24
S'900'
p1112
sg26
S'Noen bratte heng'
p1113
sg28
Nsg29
g1009
sg31
S'4 - Store'
p1114
sba(irunmatrix
M3Element
p1115
(dp1116
g3
Nsg4
S'Sannsynlig, Meget sannsynlig'
p1117
sg6
S'gray'
p1118
sg8
(lp1119
sg10
S'Likely'
p1120
sg12
S'Some'
p1121
sg14
g66
sg16
I0
sg17
S'High'
p1122
sg19
S'Stor tilleggsbelastning'
p1123
sg21
Nsg22
S'400'
p1124
sg24
S'1000'
p1125
sg26
S'Noen bratte heng'
p1126
sg28
Nsg29
g1009
sg31
S'4 - Store'
p1127
sba(irunmatrix
M3Element
p1128
(dp1129
g3
Nsg4
S'Sannsynlig, Meget sannsynlig'
p1130
sg6
S'gray'
p1131
sg8
(lp1132
sg10
S'Likely'
p1133
sg12
S'Some'
p1134
sg14
g66
sg16
I0
sg17
S'Low'
p1135
sg19
S'Liten tilleggsbelastning'
p1136
sg21
Nsg22
S'400'
p1137
sg24
S'1100'
p1138
sg26
S'Noen bratte heng'
p1139
sg28
Nsg29
g1009
sg31
S'4 - Store'
p1140
sba(irunmatrix
M3Element
p1141
(dp1142
g3
Nsg4
S'Sannsynlig, Meget sannsynlig'
p1143
sg6
S'white'
p1144
sg8
(lp1145
sg10
S'Likely'
p1146
sg12
S'Some'
p1147
sg14
g575
sg16
I4
sg17
S'Nat'
p1148
sg19
S'Naturlig utloest'
p1149
sg21
Nsg22
S'400'
p1150
sg24
S'1200'
p1151
sg26
S'Noen bratte heng'
p1152
sg28
Nsg29
g1009
sg31
S'4 - Store'
p1153
sba(irunmatrix
M3Element
p1154
(dp1155
g3
Nsg4
S'Lite sannsynlig, Mulig'
p1156
sg6
S'gray'
p1157
sg8
(lp1158
sg10
S'Possible'
p1159
sg12
S'Many'
p1160
sg14
g66
sg16
I0
sg17
S'High'
p1161
sg19
S'Stor tilleggsbelastning'
p1162
sg21
Nsg22
S'400'
p1163
sg24
S'1300'
p1164
sg26
S'Mange bratte heng'
p1165
sg28
Nsg29
g1009
sg31
S'4 - Store'
p1166
sba(irunmatrix
M3Element
p1167
(dp1168
g3
Nsg4
S'Lite sannsynlig, Mulig'
p1169
sg6
S'white'
p1170
sg8
(lp1171
sg10
S'Possible'
p1172
sg12
S'Many'
p1173
sg14
g66
sg16
I0
sg17
S'Low'
p1174
sg19
S'Liten tilleggsbelastning'
p1175
sg21
Nsg22
S'400'
p1176
sg24
S'1400'
p1177
sg26
S'Mange bratte heng'
p1178
sg28
Nsg29
g1009
sg31
S'4 - Store'
p1179
sba(irunmatrix
M3Element
p1180
(dp1181
g3
Nsg4
S'Lite sannsynlig, Mulig'
p1182
sg6
S'gray'
p1183
sg8
(lp1184
sg10
S'Possible'
p1185
sg12
S'Many'
p1186
sg14
g66
sg16
I0
sg17
S'Nat'
p1187
sg19
S'Naturlig utloest'
p1188
sg21
Nsg22
S'400'
p1189
sg24
S'1500'
p1190
sg26
S'Mange bratte heng'
p1191
sg28
Nsg29
g1009
sg31
S'4 - Store'
p1192
sba(irunmatrix
M3Element
p1193
(dp1194
g3
Nsg4
S'Sannsynlig, Meget sannsynlig'
p1195
sg6
S'gray'
p1196
sg8
(lp1197
sg10
S'Likely'
p1198
sg12
S'Many'
p1199
sg14
g66
sg16
I0
sg17
S'High'
p1200
sg19
S'Stor tilleggsbelastning'
p1201
sg21
Nsg22
S'400'
p1202
sg24
S'1600'
p1203
sg26
S'Mange bratte heng'
p1204
sg28
Nsg29
g1009
sg31
S'4 - Store'
p1205
sba(irunmatrix
M3Element
p1206
(dp1207
g3
Nsg4
S'Sannsynlig, Meget sannsynlig'
p1208
sg6
S'white'
p1209
sg8
(lp1210
sg10
S'Likely'
p1211
sg12
S'Many'
p1212
sg14
g66
sg16
I0
sg17
S'Low'
p1213
sg19
S'Liten tilleggsbelastning'
p1214
sg21
Nsg22
S'400'
p1215
sg24
S'1700'
p1216
sg26
S'Mange bratte heng'
p1217
sg28
Nsg29
g1009
sg31
S'4 - Store'
p1218
sba(irunmatrix
M3Element
p1219
(dp1220
g3
Nsg4
S'Sannsynlig, Meget sannsynlig'
p1221
sg6
S'white'
p1222
sg8
(lp1223
sg10
S'Likely'
p1224
sg12
S'Many'
p1225
sg14
S'k'
p1226
sg16
I5
sg17
S'Nat'
p1227
sg19
S'Naturlig utloest'
p1228
sg21
Nsg22
S'400'
p1229
sg24
S'1800'
p1230
sg26
S'Mange bratte heng'
p1231
sg28
Nsg29
g1009
sg31
S'4 - Store'
p1232
sba(irunmatrix
M3Element
p1233
(dp1234
g3
Nsg4
S'Lite sannsynlig, Mulig'
p1235
sg6
S'gray'
p1236
sg8
(lp1237
sg10
S'Possible'
p1238
sg12
S'Most'
p1239
sg14
g66
sg16
I0
sg17
S'High'
p1240
sg19
S'Stor tilleggsbelastning'
p1241
sg21
Nsg22
S'400'
p1242
sg24
S'1900'
p1243
sg26
S'De fleste bratte heng, Ogsaa i mindre bratt terreng'
p1244
sg28
Nsg29
g1009
sg31
S'4 - Store'
p1245
sba(irunmatrix
M3Element
p1246
(dp1247
g3
Nsg4
S'Lite sannsynlig, Mulig'
p1248
sg6
S'gray'
p1249
sg8
(lp1250
sg10
S'Possible'
p1251
sg12
S'Most'
p1252
sg14
g66
sg16
I0
sg17
S'Low'
p1253
sg19
S'Liten tilleggsbelastning'
p1254
sg21
Nsg22
S'400'
p1255
sg24
S'2000'
p1256
sg26
S'De fleste bratte heng, Ogsaa i mindre bratt terreng'
p1257
sg28
Nsg29
g1009
sg31
S'4 - Store'
p1258
sba(irunmatrix
M3Element
p1259
(dp1260
g3
Nsg4
S'Lite sannsynlig, Mulig'
p1261
sg6
S'gray'
p1262
sg8
(lp1263
sg10
S'Possible'
p1264
sg12
S'Most'
p1265
sg14
g66
sg16
I0
sg17
S'Nat'
p1266
sg19
S'Naturlig utloest'
p1267
sg21
Nsg22
S'400'
p1268
sg24
S'2100'
p1269
sg26
S'De fleste bratte heng, Ogsaa i mindre bratt terreng'
p1270
sg28
Nsg29
g1009
sg31
S'4 - Store'
p1271
sba(irunmatrix
M3Element
p1272
(dp1273
g3
Nsg4
S'Sannsynlig, Meget sannsynlig'
p1274
sg6
S'gray'
p1275
sg8
(lp1276
sg10
S'Likely'
p1277
sg12
S'Most'
p1278
sg14
g66
sg16
I0
sg17
S'High'
p1279
sg19
S'Stor tilleggsbelastning'
p1280
sg21
Nsg22
S'400'
p1281
sg24
S'2200'
p1282
sg26
S'De fleste bratte heng, Ogsaa i mindre bratt terreng'
p1283
sg28
Nsg29
g1009
sg31
S'4 - Store'
p1284
sba(irunmatrix
M3Element
p1285
(dp1286
g3
Nsg4
S'Sannsynlig, Meget sannsynlig'
p1287
sg6
S'gray'
p1288
sg8
(lp1289
sg10
S'Likely'
p1290
sg12
S'Most'
p1291
sg14
g66
sg16
I0
sg17
S'Low'
p1292
sg19
S'Liten tilleggsbelastning'
p1293
sg21
Nsg22
S'400'
p1294
sg24
S'2300'
p1295
sg26
S'De fleste bratte heng, Ogsaa i mindre bratt terreng'
p1296
sg28
Nsg29
g1009
sg31
S'4 - Store'
p1297
sba(irunmatrix
M3Element
p1298
(dp1299
g3
Nsg4
S'Sannsynlig, Meget sannsynlig'
p1300
sg6
S'white'
p1301
sg8
(lp1302
sg10
S'Likely'
p1303
sg12
S'Most'
p1304
sg14
g66
sg16
I0
sg17
S'Nat'
p1305
sg19
S'Naturlig utloest'
p1306
sg21
Nsg22
S'400'
p1307
sg24
S'2400'
p1308
sg26
S'De fleste bratte heng, Ogsaa i mindre bratt terreng'
p1309
sg28
Nsg29
g1009
sg31
S'4 - Store'
p1310
sba(irunmatrix
M3Element
p1311
(dp1312
g3
Nsg4
S'Lite sannsynlig, Mulig'
p1313
sg6
S'white'
p1314
sg8
(lp1315
sg10
S'Possible'
p1316
sg12
S'Isolated'
p1317
sg14
g66
sg16
I0
sg17
S'High'
p1318
sg19
S'Stor tilleggsbelastning'
p1319
sg21
Nsg22
S'500'
p1320
sg24
S'100'
p1321
sg26
S'Isolerte faresoner'
p1322
sg28
Nsg29
S'5'
p1323
sg31
S'5 - Svaert store'
p1324
sba(irunmatrix
M3Element
p1325
(dp1326
g3
Nsg4
S'Lite sannsynlig, Mulig'
p1327
sg6
S'white'
p1328
sg8
(lp1329
sg10
S'Possible'
p1330
sg12
S'Isolated'
p1331
sg14
g66
sg16
I0
sg17
S'Low'
p1332
sg19
S'Liten tilleggsbelastning'
p1333
sg21
Nsg22
S'500'
p1334
sg24
S'200'
p1335
sg26
S'Isolerte faresoner'
p1336
sg28
Nsg29
g1323
sg31
S'5 - Svaert store'
p1337
sba(irunmatrix
M3Element
p1338
(dp1339
g3
Nsg4
S'Lite sannsynlig, Mulig'
p1340
sg6
S'white'
p1341
sg8
(lp1342
sg10
S'Possible'
p1343
sg12
S'Isolated'
p1344
sg14
g66
sg16
I0
sg17
S'Nat'
p1345
sg19
S'Naturlig utloest'
p1346
sg21
Nsg22
S'500'
p1347
sg24
S'300'
p1348
sg26
S'Isolerte faresoner'
p1349
sg28
Nsg29
g1323
sg31
S'5 - Svaert store'
p1350
sba(irunmatrix
M3Element
p1351
(dp1352
g3
Nsg4
S'Sannsynlig, Meget sannsynlig'
p1353
sg6
S'gray'
p1354
sg8
(lp1355
sg10
S'Likely'
p1356
sg12
S'Isolated'
p1357
sg14
g66
sg16
I0
sg17
S'High'
p1358
sg19
S'Stor tilleggsbelastning'
p1359
sg21
Nsg22
S'500'
p1360
sg24
S'400'
p1361
sg26
S'Isolerte faresoner'
p1362
sg28
Nsg29
g1323
sg31
S'5 - Svaert store'
p1363
sba(irunmatrix
M3Element
p1364
(dp1365
g3
Nsg4
S'Sannsynlig, Meget sannsynlig'
p1366
sg6
S'gray'
p1367
sg8
(lp1368
sg10
S'Likely'
p1369
sg12
S'Isolated'
p1370
sg14
g66
sg16
I0
sg17
S'Low'
p1371
sg19
S'Liten tilleggsbelastning'
p1372
sg21
Nsg22
S'500'
p1373
sg24
S'500'
p1374
sg26
S'Isolerte faresoner'
p1375
sg28
Nsg29
g1323
sg31
S'5 - Svaert store'
p1376
sba(irunmatrix
M3Element
p1377
(dp1378
g3
Nsg4
S'Sannsynlig, Meget sannsynlig'
p1379
sg6
S'gray'
p1380
sg8
(lp1381
sg10
S'Likely'
p1382
sg12
S'Isolated'
p1383
sg14
g66
sg16
I0
sg17
S'Nat'
p1384
sg19
S'Naturlig utloest'
p1385
sg21
Nsg22
S'500'
p1386
sg24
S'600'
p1387
sg26
S'Isolerte faresoner'
p1388
sg28
Nsg29
g1323
sg31
S'5 - Svaert store'
p1389
sba(irunmatrix
M3Element
p1390
(dp1391
g3
Nsg4
S'Lite sannsynlig, Mulig'
p1392
sg6
S'white'
p1393
sg8
(lp1394
sg10
S'Possible'
p1395
sg12
S'Some'
p1396
sg14
g66
sg16
I0
sg17
S'High'
p1397
sg19
S'Stor tilleggsbelastning'
p1398
sg21
Nsg22
S'500'
p1399
sg24
S'700'
p1400
sg26
S'Noen bratte heng'
p1401
sg28
Nsg29
g1323
sg31
S'5 - Svaert store'
p1402
sba(irunmatrix
M3Element
p1403
(dp1404
g3
Nsg4
S'Lite sannsynlig, Mulig'
p1405
sg6
S'white'
p1406
sg8
(lp1407
sg10
S'Possible'
p1408
sg12
S'Some'
p1409
sg14
g66
sg16
I0
sg17
S'Low'
p1410
sg19
S'Liten tilleggsbelastning'
p1411
sg21
Nsg22
S'500'
p1412
sg24
S'800'
p1413
sg26
S'Noen bratte heng'
p1414
sg28
Nsg29
g1323
sg31
S'5 - Svaert store'
p1415
sba(irunmatrix
M3Element
p1416
(dp1417
g3
Nsg4
S'Lite sannsynlig, Mulig'
p1418
sg6
S'white'
p1419
sg8
(lp1420
sg10
S'Possible'
p1421
sg12
S'Some'
p1422
sg14
g66
sg16
I0
sg17
S'Nat'
p1423
sg19
S'Naturlig utloest'
p1424
sg21
Nsg22
S'500'
p1425
sg24
S'900'
p1426
sg26
S'Noen bratte heng'
p1427
sg28
Nsg29
g1323
sg31
S'5 - Svaert store'
p1428
sba(irunmatrix
M3Element
p1429
(dp1430
g3
Nsg4
S'Sannsynlig, Meget sannsynlig'
p1431
sg6
S'gray'
p1432
sg8
(lp1433
sg10
S'Likely'
p1434
sg12
S'Some'
p1435
sg14
g66
sg16
I0
sg17
S'High'
p1436
sg19
S'Stor tilleggsbelastning'
p1437
sg21
Nsg22
S'500'
p1438
sg24
S'1000'
p1439
sg26
S'Noen bratte heng'
p1440
sg28
Nsg29
g1323
sg31
S'5 - Svaert store'
p1441
sba(irunmatrix
M3Element
p1442
(dp1443
g3
Nsg4
S'Sannsynlig, Meget sannsynlig'
p1444
sg6
S'gray'
p1445
sg8
(lp1446
sg10
S'Likely'
p1447
sg12
S'Some'
p1448
sg14
g66
sg16
I0
sg17
S'Low'
p1449
sg19
S'Liten tilleggsbelastning'
p1450
sg21
Nsg22
S'500'
p1451
sg24
S'1100'
p1452
sg26
S'Noen bratte heng'
p1453
sg28
Nsg29
g1323
sg31
S'5 - Svaert store'
p1454
sba(irunmatrix
M3Element
p1455
(dp1456
g3
Nsg4
S'Sannsynlig, Meget sannsynlig'
p1457
sg6
S'white'
p1458
sg8
(lp1459
sg10
S'Likely'
p1460
sg12
S'Some'
p1461
sg14
g66
sg16
I0
sg17
S'Nat'
p1462
sg19
S'Naturlig utloest'
p1463
sg21
Nsg22
S'500'
p1464
sg24
S'1200'
p1465
sg26
S'Noen bratte heng'
p1466
sg28
Nsg29
g1323
sg31
S'5 - Svaert store'
p1467
sba(irunmatrix
M3Element
p1468
(dp1469
g3
Nsg4
S'Lite sannsynlig, Mulig'
p1470
sg6
S'gray'
p1471
sg8
(lp1472
sg10
S'Possible'
p1473
sg12
S'Many'
p1474
sg14
g66
sg16
I0
sg17
S'High'
p1475
sg19
S'Stor tilleggsbelastning'
p1476
sg21
Nsg22
S'500'
p1477
sg24
S'1300'
p1478
sg26
S'Mange bratte heng'
p1479
sg28
Nsg29
g1323
sg31
S'5 - Svaert store'
p1480
sba(irunmatrix
M3Element
p1481
(dp1482
g3
Nsg4
S'Lite sannsynlig, Mulig'
p1483
sg6
S'white'
p1484
sg8
(lp1485
sg10
S'Possible'
p1486
sg12
S'Many'
p1487
sg14
g66
sg16
I0
sg17
S'Low'
p1488
sg19
S'Liten tilleggsbelastning'
p1489
sg21
Nsg22
S'500'
p1490
sg24
S'1400'
p1491
sg26
S'Mange bratte heng'
p1492
sg28
Nsg29
g1323
sg31
S'5 - Svaert store'
p1493
sba(irunmatrix
M3Element
p1494
(dp1495
g3
Nsg4
S'Lite sannsynlig, Mulig'
p1496
sg6
S'gray'
p1497
sg8
(lp1498
sg10
S'Possible'
p1499
sg12
S'Many'
p1500
sg14
g66
sg16
I0
sg17
S'Nat'
p1501
sg19
S'Naturlig utloest'
p1502
sg21
Nsg22
S'500'
p1503
sg24
S'1500'
p1504
sg26
S'Mange bratte heng'
p1505
sg28
Nsg29
g1323
sg31
S'5 - Svaert store'
p1506
sba(irunmatrix
M3Element
p1507
(dp1508
g3
Nsg4
S'Sannsynlig, Meget sannsynlig'
p1509
sg6
S'gray'
p1510
sg8
(lp1511
sg10
S'Likely'
p1512
sg12
S'Many'
p1513
sg14
g66
sg16
I0
sg17
S'High'
p1514
sg19
S'Stor tilleggsbelastning'
p1515
sg21
Nsg22
S'500'
p1516
sg24
S'1600'
p1517
sg26
S'Mange bratte heng'
p1518
sg28
Nsg29
g1323
sg31
S'5 - Svaert store'
p1519
sba(irunmatrix
M3Element
p1520
(dp1521
g3
Nsg4
S'Sannsynlig, Meget sannsynlig'
p1522
sg6
S'white'
p1523
sg8
(lp1524
sg10
S'Likely'
p1525
sg12
S'Many'
p1526
sg14
g66
sg16
I0
sg17
S'Low'
p1527
sg19
S'Liten tilleggsbelastning'
p1528
sg21
Nsg22
S'500'
p1529
sg24
S'1700'
p1530
sg26
S'Mange bratte heng'
p1531
sg28
Nsg29
g1323
sg31
S'5 - Svaert store'
p1532
sba(irunmatrix
M3Element
p1533
(dp1534
g3
Nsg4
S'Sannsynlig, Meget sannsynlig'
p1535
sg6
S'white'
p1536
sg8
(lp1537
sg10
S'Likely'
p1538
sg12
S'Many'
p1539
sg14
g1226
sg16
I5
sg17
S'Nat'
p1540
sg19
S'Naturlig utloest'
p1541
sg21
Nsg22
S'500'
p1542
sg24
S'1800'
p1543
sg26
S'Mange bratte heng'
p1544
sg28
Nsg29
g1323
sg31
S'5 - Svaert store'
p1545
sba(irunmatrix
M3Element
p1546
(dp1547
g3
Nsg4
S'Lite sannsynlig, Mulig'
p1548
sg6
S'gray'
p1549
sg8
(lp1550
sg10
S'Possible'
p1551
sg12
S'Most'
p1552
sg14
g66
sg16
I0
sg17
S'High'
p1553
sg19
S'Stor tilleggsbelastning'
p1554
sg21
Nsg22
S'500'
p1555
sg24
S'1900'
p1556
sg26
S'De fleste bratte heng, Ogsaa i mindre bratt terreng'
p1557
sg28
Nsg29
g1323
sg31
S'5 - Svaert store'
p1558
sba(irunmatrix
M3Element
p1559
(dp1560
g3
Nsg4
S'Lite sannsynlig, Mulig'
p1561
sg6
S'gray'
p1562
sg8
(lp1563
sg10
S'Possible'
p1564
sg12
S'Most'
p1565
sg14
g66
sg16
I0
sg17
S'Low'
p1566
sg19
S'Liten tilleggsbelastning'
p1567
sg21
Nsg22
S'500'
p1568
sg24
S'2000'
p1569
sg26
S'De fleste bratte heng, Ogsaa i mindre bratt terreng'
p1570
sg28
Nsg29
g1323
sg31
S'5 - Svaert store'
p1571
sba(irunmatrix
M3Element
p1572
(dp1573
g3
Nsg4
S'Lite sannsynlig, Mulig'
p1574
sg6
S'gray'
p1575
sg8
(lp1576
sg10
S'Possible'
p1577
sg12
S'Most'
p1578
sg14
g66
sg16
I0
sg17
S'Nat'
p1579
sg19
S'Naturlig utloest'
p1580
sg21
Nsg22
S'500'
p1581
sg24
S'2100'
p1582
sg26
S'De fleste bratte heng, Ogsaa i mindre bratt terreng'
p1583
sg28
Nsg29
g1323
sg31
S'5 - Svaert store'
p1584
sba(irunmatrix
M3Element
p1585
(dp1586
g3
Nsg4
S'Sannsynlig, Meget sannsynlig'
p1587
sg6
S'gray'
p1588
sg8
(lp1589
sg10
S'Likely'
p1590
sg12
S'Most'
p1591
sg14
g66
sg16
I0
sg17
S'High'
p1592
sg19
S'Stor tilleggsbelastning'
p1593
sg21
Nsg22
S'500'
p1594
sg24
S'2200'
p1595
sg26
S'De fleste bratte heng, Ogsaa i mindre bratt terreng'
p1596
sg28
Nsg29
g1323
sg31
S'5 - Svaert store'
p1597
sba(irunmatrix
M3Element
p1598
(dp1599
g3
Nsg4
S'Sannsynlig, Meget sannsynlig'
p1600
sg6
S'gray'
p1601
sg8
(lp1602
sg10
S'Likely'
p1603
sg12
S'Most'
p1604
sg14
g66
sg16
I0
sg17
S'Low'
p1605
sg19
S'Liten tilleggsbelastning'
p1606
sg21
Nsg22
S'500'
p1607
sg24
S'2300'
p1608
sg26
S'De fleste bratte heng, Ogsaa i mindre bratt terreng'
p1609
sg28
Nsg29
g1323
sg31
S'5 - Svaert store'
p1610
sba(irunmatrix
M3Element
p1611
(dp1612
g3
Nsg4
S'Sannsynlig, Meget sannsynlig'
p1613
sg6
S'white'
p1614
sg8
(lp1615
sg10
S'Likely'
p1616
sg12
S'Most'
p1617
sg14
g66
sg16
I0
sg17
S'Nat'
p1618
sg19
S'Naturlig utloest'
p1619
sg21
Nsg22
S'500'
p1620
sg24
S'2400'
p1621
sg26
S'De fleste bratte heng, Ogsaa i mindre bratt terreng'
p1622
sg28
Nsg29
g1323
sg31
S'5 - Svaert store'
p1623
sba.