(dp0
S'trigger'
p1
(dp2
S'keys'
p3
(lp4
S'Stor tilleggsbelastning'
p5
aS'Liten tilleggsbelastning'
p6
aS'Naturlig utloest'
p7
asS'colors'
p8
(lp9
S'0.7'
p10
asS'values'
p11
(lp12
S'Liten tilleggsbelastning'
p13
aS'Stor tilleggsbelastning'
p14
aS'Liten tilleggsbelastning'
p15
aS'Liten tilleggsbelastning'
p16
aS'Liten tilleggsbelastning'
p17
aS'Liten tilleggsbelastning'
p18
aS'Liten tilleggsbelastning'
p19
aS'Liten tilleggsbelastning'
p20
aS'Naturlig utloest'
p21
aS'Liten tilleggsbelastning'
p22
aS'Ikke gitt'
p23
aS'Liten tilleggsbelastning'
p24
aS'Liten tilleggsbelastning'
p25
aS'Liten tilleggsbelastning'
p26
aS'Naturlig utloest'
p27
aS'Liten tilleggsbelastning'
p28
aS'Liten tilleggsbelastning'
p29
aS'Liten tilleggsbelastning'
p30
aS'Naturlig utloest'
p31
aS'Stor tilleggsbelastning'
p32
aS'Naturlig utloest'
p33
aS'Liten tilleggsbelastning'
p34
aS'Liten tilleggsbelastning'
p35
aS'Stor tilleggsbelastning'
p36
aS'Liten tilleggsbelastning'
p37
aS'Liten tilleggsbelastning'
p38
aS'Liten tilleggsbelastning'
p39
aS'Liten tilleggsbelastning'
p40
aS'Liten tilleggsbelastning'
p41
aS'Liten tilleggsbelastning'
p42
aS'Liten tilleggsbelastning'
p43
aS'Liten tilleggsbelastning'
p44
aS'Liten tilleggsbelastning'
p45
aS'Liten tilleggsbelastning'
p46
aS'Liten tilleggsbelastning'
p47
aS'Liten tilleggsbelastning'
p48
aS'Stor tilleggsbelastning'
p49
aS'Liten tilleggsbelastning'
p50
aS'Liten tilleggsbelastning'
p51
aS'Liten tilleggsbelastning'
p52
aS'Liten tilleggsbelastning'
p53
aS'Liten tilleggsbelastning'
p54
aS'Stor tilleggsbelastning'
p55
aS'Liten tilleggsbelastning'
p56
aS'Liten tilleggsbelastning'
p57
aS'Liten tilleggsbelastning'
p58
aS'Liten tilleggsbelastning'
p59
aS'Liten tilleggsbelastning'
p60
aS'Stor tilleggsbelastning'
p61
aS'Liten tilleggsbelastning'
p62
aS'Liten tilleggsbelastning'
p63
aS'Liten tilleggsbelastning'
p64
aS'Liten tilleggsbelastning'
p65
aS'Liten tilleggsbelastning'
p66
aS'Liten tilleggsbelastning'
p67
aS'Liten tilleggsbelastning'
p68
aS'Liten tilleggsbelastning'
p69
aS'Liten tilleggsbelastning'
p70
aS'Liten tilleggsbelastning'
p71
aS'Liten tilleggsbelastning'
p72
aS'Liten tilleggsbelastning'
p73
aS'Liten tilleggsbelastning'
p74
aS'Liten tilleggsbelastning'
p75
aS'Liten tilleggsbelastning'
p76
aS'Liten tilleggsbelastning'
p77
aS'Liten tilleggsbelastning'
p78
aS'Liten tilleggsbelastning'
p79
aS'Liten tilleggsbelastning'
p80
aS'Liten tilleggsbelastning'
p81
aS'Liten tilleggsbelastning'
p82
aS'Liten tilleggsbelastning'
p83
aS'Liten tilleggsbelastning'
p84
aS'Liten tilleggsbelastning'
p85
aS'Liten tilleggsbelastning'
p86
aS'Naturlig utloest'
p87
aS'Naturlig utloest'
p88
aS'Naturlig utloest'
p89
aS'Naturlig utloest'
p90
aS'Liten tilleggsbelastning'
p91
aS'Naturlig utloest'
p92
aS'Naturlig utloest'
p93
aS'Naturlig utloest'
p94
aS'Naturlig utloest'
p95
aS'Naturlig utloest'
p96
aS'Liten tilleggsbelastning'
p97
aS'Naturlig utloest'
p98
aS'Naturlig utloest'
p99
aS'Naturlig utloest'
p100
aS'Naturlig utloest'
p101
aS'Liten tilleggsbelastning'
p102
aS'Naturlig utloest'
p103
aS'Naturlig utloest'
p104
aS'Naturlig utloest'
p105
aS'Naturlig utloest'
p106
aS'Liten tilleggsbelastning'
p107
aS'Naturlig utloest'
p108
aS'Liten tilleggsbelastning'
p109
aS'Stor tilleggsbelastning'
p110
aS'Stor tilleggsbelastning'
p111
aS'Stor tilleggsbelastning'
p112
aS'Stor tilleggsbelastning'
p113
aS'Stor tilleggsbelastning'
p114
aS'Liten tilleggsbelastning'
p115
aS'Stor tilleggsbelastning'
p116
aS'Stor tilleggsbelastning'
p117
assS'distribution'
p118
(dp119
g3
(lp120
S'Isolerte faresoner'
p121
aS'Noen bratte heng'
p122
aS'Mange bratte heng'
p123
aS'De fleste bratte heng'
p124
aS'Ogsaa i mindre bratt terreng'
p125
asg8
(lp126
g10
asg11
(lp127
S'Noen bratte heng'
p128
aS'Noen bratte heng'
p129
aS'Noen bratte heng'
p130
aS'Noen bratte heng'
p131
aS'Noen bratte heng'
p132
aS'Noen bratte heng'
p133
aS'Noen bratte heng'
p134
aS'Isolerte faresoner'
p135
aS'Noen bratte heng'
p136
aS'Noen bratte heng'
p137
aS'Ikke gitt'
p138
aS'Noen bratte heng'
p139
aS'Noen bratte heng'
p140
aS'Noen bratte heng'
p141
aS'Noen bratte heng'
p142
aS'Noen bratte heng'
p143
aS'Noen bratte heng'
p144
aS'Noen bratte heng'
p145
aS'Isolerte faresoner'
p146
aS'Isolerte faresoner'
p147
aS'Isolerte faresoner'
p148
aS'Mange bratte heng'
p149
aS'Noen bratte heng'
p150
aS'Noen bratte heng'
p151
aS'Noen bratte heng'
p152
aS'Noen bratte heng'
p153
aS'Noen bratte heng'
p154
aS'Mange bratte heng'
p155
aS'Noen bratte heng'
p156
aS'Noen bratte heng'
p157
aS'Mange bratte heng'
p158
aS'Mange bratte heng'
p159
aS'Mange bratte heng'
p160
aS'Isolerte faresoner'
p161
aS'Mange bratte heng'
p162
aS'Isolerte faresoner'
p163
aS'Isolerte faresoner'
p164
aS'Isolerte faresoner'
p165
aS'Noen bratte heng'
p166
aS'Isolerte faresoner'
p167
aS'Mange bratte heng'
p168
aS'Noen bratte heng'
p169
aS'Isolerte faresoner'
p170
aS'Noen bratte heng'
p171
aS'Noen bratte heng'
p172
aS'Isolerte faresoner'
p173
aS'Mange bratte heng'
p174
aS'Noen bratte heng'
p175
aS'Isolerte faresoner'
p176
aS'Noen bratte heng'
p177
aS'Noen bratte heng'
p178
aS'Isolerte faresoner'
p179
aS'Mange bratte heng'
p180
aS'Noen bratte heng'
p181
aS'Noen bratte heng'
p182
aS'Noen bratte heng'
p183
aS'Noen bratte heng'
p184
aS'Isolerte faresoner'
p185
aS'Mange bratte heng'
p186
aS'Noen bratte heng'
p187
aS'Noen bratte heng'
p188
aS'Noen bratte heng'
p189
aS'Noen bratte heng'
p190
aS'Noen bratte heng'
p191
aS'Noen bratte heng'
p192
aS'Noen bratte heng'
p193
aS'Noen bratte heng'
p194
aS'Noen bratte heng'
p195
aS'Noen bratte heng'
p196
aS'Noen bratte heng'
p197
aS'Noen bratte heng'
p198
aS'Noen bratte heng'
p199
aS'Noen bratte heng'
p200
aS'Isolerte faresoner'
p201
aS'Noen bratte heng'
p202
aS'Noen bratte heng'
p203
aS'Noen bratte heng'
p204
aS'Noen bratte heng'
p205
aS'Noen bratte heng'
p206
aS'Noen bratte heng'
p207
aS'Noen bratte heng'
p208
aS'Noen bratte heng'
p209
aS'Noen bratte heng'
p210
aS'Noen bratte heng'
p211
aS'Noen bratte heng'
p212
aS'Noen bratte heng'
p213
aS'Noen bratte heng'
p214
aS'Noen bratte heng'
p215
aS'Noen bratte heng'
p216
aS'Noen bratte heng'
p217
aS'Noen bratte heng'
p218
aS'Isolerte faresoner'
p219
aS'Isolerte faresoner'
p220
aS'Isolerte faresoner'
p221
aS'Noen bratte heng'
p222
aS'Isolerte faresoner'
p223
aS'Noen bratte heng'
p224
aS'Noen bratte heng'
p225
aS'Noen bratte heng'
p226
aS'Noen bratte heng'
p227
aS'Noen bratte heng'
p228
aS'Noen bratte heng'
p229
aS'Noen bratte heng'
p230
aS'Noen bratte heng'
p231
aS'Noen bratte heng'
p232
assS'size'
p233
(dp234
g3
(lp235
S'1 - Harmloest'
p236
aS'2 - Smaa'
p237
aS'3 - Middels'
p238
aS'4 - Store'
p239
aS'5 - Svaert store'
p240
aS'Ukjent'
p241
asg8
(lp242
g10
asg11
(lp243
S'2 - Smaa'
p244
aS'2 - Smaa'
p245
aS'3 - Middels'
p246
aS'2 - Smaa'
p247
aS'2 - Smaa'
p248
aS'2 - Smaa'
p249
aS'2 - Smaa'
p250
aS'3 - Middels'
p251
aS'3 - Middels'
p252
aS'2 - Smaa'
p253
aS'2 - Smaa'
p254
aS'2 - Smaa'
p255
aS'2 - Smaa'
p256
aS'3 - Middels'
p257
aS'3 - Middels'
p258
aS'3 - Middels'
p259
aS'2 - Smaa'
p260
aS'2 - Smaa'
p261
aS'3 - Middels'
p262
aS'3 - Middels'
p263
aS'3 - Middels'
p264
aS'3 - Middels'
p265
aS'2 - Smaa'
p266
aS'3 - Middels'
p267
aS'2 - Smaa'
p268
aS'2 - Smaa'
p269
aS'3 - Middels'
p270
aS'3 - Middels'
p271
aS'2 - Smaa'
p272
aS'2 - Smaa'
p273
aS'3 - Middels'
p274
aS'3 - Middels'
p275
aS'3 - Middels'
p276
aS'3 - Middels'
p277
aS'3 - Middels'
p278
aS'3 - Middels'
p279
aS'2 - Smaa'
p280
aS'3 - Middels'
p281
aS'3 - Middels'
p282
aS'3 - Middels'
p283
aS'3 - Middels'
p284
aS'3 - Middels'
p285
aS'2 - Smaa'
p286
aS'2 - Smaa'
p287
aS'3 - Middels'
p288
aS'3 - Middels'
p289
aS'3 - Middels'
p290
aS'3 - Middels'
p291
aS'2 - Smaa'
p292
aS'2 - Smaa'
p293
aS'3 - Middels'
p294
aS'3 - Middels'
p295
aS'3 - Middels'
p296
aS'3 - Middels'
p297
aS'2 - Smaa'
p298
aS'2 - Smaa'
p299
aS'3 - Middels'
p300
aS'3 - Middels'
p301
aS'3 - Middels'
p302
aS'2 - Smaa'
p303
aS'3 - Middels'
p304
aS'2 - Smaa'
p305
aS'2 - Smaa'
p306
aS'2 - Smaa'
p307
aS'2 - Smaa'
p308
aS'2 - Smaa'
p309
aS'2 - Smaa'
p310
aS'2 - Smaa'
p311
aS'2 - Smaa'
p312
aS'2 - Smaa'
p313
aS'2 - Smaa'
p314
aS'2 - Smaa'
p315
aS'2 - Smaa'
p316
aS'3 - Middels'
p317
aS'2 - Smaa'
p318
aS'2 - Smaa'
p319
aS'2 - Smaa'
p320
aS'2 - Smaa'
p321
aS'3 - Middels'
p322
aS'2 - Smaa'
p323
aS'2 - Smaa'
p324
aS'2 - Smaa'
p325
aS'2 - Smaa'
p326
aS'2 - Smaa'
p327
aS'3 - Middels'
p328
aS'2 - Smaa'
p329
aS'2 - Smaa'
p330
aS'2 - Smaa'
p331
aS'2 - Smaa'
p332
aS'3 - Middels'
p333
aS'2 - Smaa'
p334
aS'2 - Smaa'
p335
aS'2 - Smaa'
p336
aS'2 - Smaa'
p337
aS'3 - Middels'
p338
aS'2 - Smaa'
p339
aS'2 - Smaa'
p340
aS'2 - Smaa'
p341
aS'2 - Smaa'
p342
aS'2 - Smaa'
p343
aS'2 - Smaa'
p344
aS'2 - Smaa'
p345
aS'2 - Smaa'
p346
aS'2 - Smaa'
p347
aS'2 - Smaa'
p348
assS'probability'
p349
(dp350
g3
(lp351
S'Lite sannsynlig'
p352
aS'Mulig'
p353
aS'Sannsynlig'
p354
aS'Meget sannsynlig'
p355
asg8
(lp356
g10
asg11
(lp357
S'Mulig'
p358
aS'Mulig'
p359
aS'Mulig'
p360
aS'Mulig'
p361
aS'Mulig'
p362
aS'Mulig'
p363
aS'Mulig'
p364
aS'Mulig'
p365
aS'Mulig'
p366
aS'Mulig'
p367
aS'Ikke gitt'
p368
aS'Mulig'
p369
aS'Mulig'
p370
aS'Mulig'
p371
aS'Mulig'
p372
aS'Mulig'
p373
aS'Mulig'
p374
aS'Mulig'
p375
aS'Mulig'
p376
aS'Mulig'
p377
aS'Mulig'
p378
aS'Mulig'
p379
aS'Mulig'
p380
aS'Mulig'
p381
aS'Mulig'
p382
aS'Mulig'
p383
aS'Mulig'
p384
aS'Mulig'
p385
aS'Mulig'
p386
aS'Mulig'
p387
aS'Mulig'
p388
aS'Mulig'
p389
aS'Mulig'
p390
aS'Mulig'
p391
aS'Mulig'
p392
aS'Mulig'
p393
aS'Mulig'
p394
aS'Mulig'
p395
aS'Mulig'
p396
aS'Mulig'
p397
aS'Mulig'
p398
aS'Mulig'
p399
aS'Mulig'
p400
aS'Mulig'
p401
aS'Mulig'
p402
aS'Mulig'
p403
aS'Mulig'
p404
aS'Mulig'
p405
aS'Mulig'
p406
aS'Mulig'
p407
aS'Mulig'
p408
aS'Mulig'
p409
aS'Mulig'
p410
aS'Mulig'
p411
aS'Mulig'
p412
aS'Mulig'
p413
aS'Mulig'
p414
aS'Mulig'
p415
aS'Mulig'
p416
aS'Mulig'
p417
aS'Mulig'
p418
aS'Mulig'
p419
aS'Mulig'
p420
aS'Mulig'
p421
aS'Mulig'
p422
aS'Mulig'
p423
aS'Mulig'
p424
aS'Mulig'
p425
aS'Mulig'
p426
aS'Mulig'
p427
aS'Mulig'
p428
aS'Mulig'
p429
aS'Mulig'
p430
aS'Mulig'
p431
aS'Mulig'
p432
aS'Mulig'
p433
aS'Mulig'
p434
aS'Mulig'
p435
aS'Mulig'
p436
aS'Mulig'
p437
aS'Mulig'
p438
aS'Mulig'
p439
aS'Mulig'
p440
aS'Mulig'
p441
aS'Mulig'
p442
aS'Mulig'
p443
aS'Mulig'
p444
aS'Mulig'
p445
aS'Mulig'
p446
aS'Mulig'
p447
aS'Mulig'
p448
aS'Mulig'
p449
aS'Mulig'
p450
aS'Mulig'
p451
aS'Mulig'
p452
aS'Mulig'
p453
aS'Sannsynlig'
p454
aS'Mulig'
p455
aS'Mulig'
p456
aS'Mulig'
p457
aS'Mulig'
p458
aS'Mulig'
p459
aS'Sannsynlig'
p460
aS'Mulig'
p461
aS'Mulig'
p462
assS'level'
p463
(dp464
g3
(lp465
I1
aI2
aI3
aI4
aI5
asg8
(lp466
S'#ccff66'
p467
aS'#ffff00'
p468
aS'#ff9900'
p469
aS'#ff0000'
p470
aS'k'
p471
asg11
(lp472
I3
aI2
aI3
aI2
aI2
aI2
aI3
aI2
aI3
aI2
aI2
aI2
aI3
aI3
aI3
aI3
aI2
aI3
aI3
aI2
aI3
aI3
aI2
aI2
aI3
aI2
aI3
aI3
aI2
aI2
aI3
aI3
aI3
aI2
aI3
aI2
aI2
aI2
aI3
aI2
aI3
aI3
aI2
aI2
aI3
aI2
aI3
aI3
aI2
aI2
aI3
aI2
aI3
aI3
aI3
aI2
aI3
aI2
aI3
aI2
aI3
aI2
aI2
aI2
aI2
aI2
aI2
aI2
aI2
aI2
aI2
aI2
aI2
aI2
aI2
aI2
aI2
aI2
aI3
aI2
aI2
aI2
aI2
aI2
aI3
aI2
aI2
aI2
aI2
aI3
aI2
aI2
aI1
aI1
aI3
aI1
aI3
aI2
aI2
aI2
aI2
aI2
aI3
aI2
aI2
ass.