(lp0
(irunmatrix
M3Element
p1
(dp2
S'danger_level_average'
p3
F2.0
sS'probability'
p4
S'Lite sannsynlig, Mulig'
p5
sS'colour'
p6
S'#ffff00'
p7
sS'danger_level_list'
p8
(lp9
I2
asS'label_probalility'
p10
S'Possible'
p11
sS'label_distribution'
p12
S'Isolated'
p13
sS'recomended_colour'
p14
S'#ccff66'
p15
sS'recomended_danger_level'
p16
I1
sS'label_trigger'
p17
S'High'
p18
sS'trigger'
p19
S'Stor tilleggsbelastning'
p20
sS'occurrences'
p21
I1
sS'y'
p22
S'100'
p23
sS'x'
p24
S'100'
p25
sS'distribution'
p26
S'Isolerte faresoner'
p27
sS'danger_level_standard_dev'
p28
cnumpy.core.multiarray
scalar
p29
(cnumpy
dtype
p30
(S'f8'
p31
I0
I1
tp32
Rp33
(I3
S'<'
p34
NNNI-1
I-1
I0
tp35
bS'\x00\x00\x00\x00\x00\x00\x00\x00'
p36
tp37
Rp38
sS'label_size'
p39
S'1'
p40
sS'avalanche_size'
p41
S'1 - Harmloest'
p42
sba(irunmatrix
M3Element
p43
(dp44
g3
Nsg4
S'Lite sannsynlig, Mulig'
p45
sg6
S'white'
p46
sg8
(lp47
sg10
S'Possible'
p48
sg12
S'Isolated'
p49
sg14
g15
sg16
I1
sg17
S'Low'
p50
sg19
S'Liten tilleggsbelastning'
p51
sg21
Nsg22
S'100'
p52
sg24
S'200'
p53
sg26
S'Isolerte faresoner'
p54
sg28
Nsg39
g40
sg41
S'1 - Harmloest'
p55
sba(irunmatrix
M3Element
p56
(dp57
g3
Nsg4
S'Lite sannsynlig, Mulig'
p58
sg6
S'white'
p59
sg8
(lp60
sg10
S'Possible'
p61
sg12
S'Isolated'
p62
sg14
g15
sg16
I1
sg17
S'Nat'
p63
sg19
S'Naturlig utloest'
p64
sg21
Nsg22
S'100'
p65
sg24
S'300'
p66
sg26
S'Isolerte faresoner'
p67
sg28
Nsg39
g40
sg41
S'1 - Harmloest'
p68
sba(irunmatrix
M3Element
p69
(dp70
g3
Nsg4
S'Sannsynlig, Meget sannsynlig'
p71
sg6
S'gray'
p72
sg8
(lp73
sg10
S'Likely'
p74
sg12
S'Isolated'
p75
sg14
S'gray'
p76
sg16
I0
sg17
S'High'
p77
sg19
S'Stor tilleggsbelastning'
p78
sg21
Nsg22
S'100'
p79
sg24
S'400'
p80
sg26
S'Isolerte faresoner'
p81
sg28
Nsg39
g40
sg41
S'1 - Harmloest'
p82
sba(irunmatrix
M3Element
p83
(dp84
g3
Nsg4
S'Sannsynlig, Meget sannsynlig'
p85
sg6
S'gray'
p86
sg8
(lp87
sg10
S'Likely'
p88
sg12
S'Isolated'
p89
sg14
g76
sg16
I0
sg17
S'Low'
p90
sg19
S'Liten tilleggsbelastning'
p91
sg21
Nsg22
S'100'
p92
sg24
S'500'
p93
sg26
S'Isolerte faresoner'
p94
sg28
Nsg39
g40
sg41
S'1 - Harmloest'
p95
sba(irunmatrix
M3Element
p96
(dp97
g3
Nsg4
S'Sannsynlig, Meget sannsynlig'
p98
sg6
S'gray'
p99
sg8
(lp100
sg10
S'Likely'
p101
sg12
S'Isolated'
p102
sg14
g76
sg16
I0
sg17
S'Nat'
p103
sg19
S'Naturlig utloest'
p104
sg21
Nsg22
S'100'
p105
sg24
S'600'
p106
sg26
S'Isolerte faresoner'
p107
sg28
Nsg39
g40
sg41
S'1 - Harmloest'
p108
sba(irunmatrix
M3Element
p109
(dp110
g3
F1.0
sg4
S'Lite sannsynlig, Mulig'
p111
sg6
S'#ccff66'
p112
sg8
(lp113
I1
asg10
S'Possible'
p114
sg12
S'Some'
p115
sg14
g15
sg16
I1
sg17
S'High'
p116
sg19
S'Stor tilleggsbelastning'
p117
sg21
I1
sg22
S'100'
p118
sg24
S'700'
p119
sg26
S'Noen bratte heng'
p120
sg28
g29
(g33
S'\x00\x00\x00\x00\x00\x00\x00\x00'
p121
tp122
Rp123
sg39
g40
sg41
S'1 - Harmloest'
p124
sba(irunmatrix
M3Element
p125
(dp126
g3
Nsg4
S'Lite sannsynlig, Mulig'
p127
sg6
S'white'
p128
sg8
(lp129
sg10
S'Possible'
p130
sg12
S'Some'
p131
sg14
g15
sg16
I1
sg17
S'Low'
p132
sg19
S'Liten tilleggsbelastning'
p133
sg21
Nsg22
S'100'
p134
sg24
S'800'
p135
sg26
S'Noen bratte heng'
p136
sg28
Nsg39
g40
sg41
S'1 - Harmloest'
p137
sba(irunmatrix
M3Element
p138
(dp139
g3
F2.0
sg4
S'Lite sannsynlig, Mulig'
p140
sg6
g7
sg8
(lp141
I2
asg10
S'Possible'
p142
sg12
S'Some'
p143
sg14
g15
sg16
I1
sg17
S'Nat'
p144
sg19
S'Naturlig utloest'
p145
sg21
I1
sg22
S'100'
p146
sg24
S'900'
p147
sg26
S'Noen bratte heng'
p148
sg28
g29
(g33
S'\x00\x00\x00\x00\x00\x00\x00\x00'
p149
tp150
Rp151
sg39
g40
sg41
S'1 - Harmloest'
p152
sba(irunmatrix
M3Element
p153
(dp154
g3
Nsg4
S'Sannsynlig, Meget sannsynlig'
p155
sg6
S'gray'
p156
sg8
(lp157
sg10
S'Likely'
p158
sg12
S'Some'
p159
sg14
g76
sg16
I0
sg17
S'High'
p160
sg19
S'Stor tilleggsbelastning'
p161
sg21
Nsg22
S'100'
p162
sg24
S'1000'
p163
sg26
S'Noen bratte heng'
p164
sg28
Nsg39
g40
sg41
S'1 - Harmloest'
p165
sba(irunmatrix
M3Element
p166
(dp167
g3
Nsg4
S'Sannsynlig, Meget sannsynlig'
p168
sg6
S'gray'
p169
sg8
(lp170
sg10
S'Likely'
p171
sg12
S'Some'
p172
sg14
g76
sg16
I0
sg17
S'Low'
p173
sg19
S'Liten tilleggsbelastning'
p174
sg21
Nsg22
S'100'
p175
sg24
S'1100'
p176
sg26
S'Noen bratte heng'
p177
sg28
Nsg39
g40
sg41
S'1 - Harmloest'
p178
sba(irunmatrix
M3Element
p179
(dp180
g3
Nsg4
S'Sannsynlig, Meget sannsynlig'
p181
sg6
S'white'
p182
sg8
(lp183
sg10
S'Likely'
p184
sg12
S'Some'
p185
sg14
g15
sg16
I1
sg17
S'Nat'
p186
sg19
S'Naturlig utloest'
p187
sg21
Nsg22
S'100'
p188
sg24
S'1200'
p189
sg26
S'Noen bratte heng'
p190
sg28
Nsg39
g40
sg41
S'1 - Harmloest'
p191
sba(irunmatrix
M3Element
p192
(dp193
g3
Nsg4
S'Lite sannsynlig, Mulig'
p194
sg6
S'gray'
p195
sg8
(lp196
sg10
S'Possible'
p197
sg12
S'Many'
p198
sg14
g76
sg16
I0
sg17
S'High'
p199
sg19
S'Stor tilleggsbelastning'
p200
sg21
Nsg22
S'100'
p201
sg24
S'1300'
p202
sg26
S'Mange bratte heng'
p203
sg28
Nsg39
g40
sg41
S'1 - Harmloest'
p204
sba(irunmatrix
M3Element
p205
(dp206
g3
Nsg4
S'Lite sannsynlig, Mulig'
p207
sg6
S'white'
p208
sg8
(lp209
sg10
S'Possible'
p210
sg12
S'Many'
p211
sg14
g15
sg16
I1
sg17
S'Low'
p212
sg19
S'Liten tilleggsbelastning'
p213
sg21
Nsg22
S'100'
p214
sg24
S'1400'
p215
sg26
S'Mange bratte heng'
p216
sg28
Nsg39
g40
sg41
S'1 - Harmloest'
p217
sba(irunmatrix
M3Element
p218
(dp219
g3
F2.0
sg4
S'Lite sannsynlig, Mulig'
p220
sg6
g7
sg8
(lp221
I2
aI2
aI2
asg10
S'Possible'
p222
sg12
S'Many'
p223
sg14
g76
sg16
I0
sg17
S'Nat'
p224
sg19
S'Naturlig utloest'
p225
sg21
I3
sg22
S'100'
p226
sg24
S'1500'
p227
sg26
S'Mange bratte heng'
p228
sg28
g29
(g33
S'\x00\x00\x00\x00\x00\x00\x00\x00'
p229
tp230
Rp231
sg39
g40
sg41
S'1 - Harmloest'
p232
sba(irunmatrix
M3Element
p233
(dp234
g3
Nsg4
S'Sannsynlig, Meget sannsynlig'
p235
sg6
S'gray'
p236
sg8
(lp237
sg10
S'Likely'
p238
sg12
S'Many'
p239
sg14
g76
sg16
I0
sg17
S'High'
p240
sg19
S'Stor tilleggsbelastning'
p241
sg21
Nsg22
S'100'
p242
sg24
S'1600'
p243
sg26
S'Mange bratte heng'
p244
sg28
Nsg39
g40
sg41
S'1 - Harmloest'
p245
sba(irunmatrix
M3Element
p246
(dp247
g3
Nsg4
S'Sannsynlig, Meget sannsynlig'
p248
sg6
S'white'
p249
sg8
(lp250
sg10
S'Likely'
p251
sg12
S'Many'
p252
sg14
S'#ffff00'
p253
sg16
I2
sg17
S'Low'
p254
sg19
S'Liten tilleggsbelastning'
p255
sg21
Nsg22
S'100'
p256
sg24
S'1700'
p257
sg26
S'Mange bratte heng'
p258
sg28
Nsg39
g40
sg41
S'1 - Harmloest'
p259
sba(irunmatrix
M3Element
p260
(dp261
g3
Nsg4
S'Sannsynlig, Meget sannsynlig'
p262
sg6
S'white'
p263
sg8
(lp264
sg10
S'Likely'
p265
sg12
S'Many'
p266
sg14
g253
sg16
I2
sg17
S'Nat'
p267
sg19
S'Naturlig utloest'
p268
sg21
Nsg22
S'100'
p269
sg24
S'1800'
p270
sg26
S'Mange bratte heng'
p271
sg28
Nsg39
g40
sg41
S'1 - Harmloest'
p272
sba(irunmatrix
M3Element
p273
(dp274
g3
Nsg4
S'Lite sannsynlig, Mulig'
p275
sg6
S'gray'
p276
sg8
(lp277
sg10
S'Possible'
p278
sg12
S'Most'
p279
sg14
g76
sg16
I0
sg17
S'High'
p280
sg19
S'Stor tilleggsbelastning'
p281
sg21
Nsg22
S'100'
p282
sg24
S'1900'
p283
sg26
S'De fleste bratte heng, Ogsaa i mindre bratt terreng'
p284
sg28
Nsg39
g40
sg41
S'1 - Harmloest'
p285
sba(irunmatrix
M3Element
p286
(dp287
g3
Nsg4
S'Lite sannsynlig, Mulig'
p288
sg6
S'gray'
p289
sg8
(lp290
sg10
S'Possible'
p291
sg12
S'Most'
p292
sg14
g76
sg16
I0
sg17
S'Low'
p293
sg19
S'Liten tilleggsbelastning'
p294
sg21
Nsg22
S'100'
p295
sg24
S'2000'
p296
sg26
S'De fleste bratte heng, Ogsaa i mindre bratt terreng'
p297
sg28
Nsg39
g40
sg41
S'1 - Harmloest'
p298
sba(irunmatrix
M3Element
p299
(dp300
g3
Nsg4
S'Lite sannsynlig, Mulig'
p301
sg6
S'gray'
p302
sg8
(lp303
sg10
S'Possible'
p304
sg12
S'Most'
p305
sg14
g76
sg16
I0
sg17
S'Nat'
p306
sg19
S'Naturlig utloest'
p307
sg21
Nsg22
S'100'
p308
sg24
S'2100'
p309
sg26
S'De fleste bratte heng, Ogsaa i mindre bratt terreng'
p310
sg28
Nsg39
g40
sg41
S'1 - Harmloest'
p311
sba(irunmatrix
M3Element
p312
(dp313
g3
Nsg4
S'Sannsynlig, Meget sannsynlig'
p314
sg6
S'gray'
p315
sg8
(lp316
sg10
S'Likely'
p317
sg12
S'Most'
p318
sg14
g76
sg16
I0
sg17
S'High'
p319
sg19
S'Stor tilleggsbelastning'
p320
sg21
Nsg22
S'100'
p321
sg24
S'2200'
p322
sg26
S'De fleste bratte heng, Ogsaa i mindre bratt terreng'
p323
sg28
Nsg39
g40
sg41
S'1 - Harmloest'
p324
sba(irunmatrix
M3Element
p325
(dp326
g3
Nsg4
S'Sannsynlig, Meget sannsynlig'
p327
sg6
S'gray'
p328
sg8
(lp329
sg10
S'Likely'
p330
sg12
S'Most'
p331
sg14
g76
sg16
I0
sg17
S'Low'
p332
sg19
S'Liten tilleggsbelastning'
p333
sg21
Nsg22
S'100'
p334
sg24
S'2300'
p335
sg26
S'De fleste bratte heng, Ogsaa i mindre bratt terreng'
p336
sg28
Nsg39
g40
sg41
S'1 - Harmloest'
p337
sba(irunmatrix
M3Element
p338
(dp339
g3
Nsg4
S'Sannsynlig, Meget sannsynlig'
p340
sg6
S'white'
p341
sg8
(lp342
sg10
S'Likely'
p343
sg12
S'Most'
p344
sg14
g76
sg16
I0
sg17
S'Nat'
p345
sg19
S'Naturlig utloest'
p346
sg21
Nsg22
S'100'
p347
sg24
S'2400'
p348
sg26
S'De fleste bratte heng, Ogsaa i mindre bratt terreng'
p349
sg28
Nsg39
S'2'
p350
sg41
S'1 - Harmloest'
p351
sba(irunmatrix
M3Element
p352
(dp353
g3
F1.2352941176470589
sg4
S'Lite sannsynlig, Mulig'
p354
sg6
g112
sg8
(lp355
I2
aI1
aI2
aI1
aI1
aI1
aI1
aI1
aI1
aI1
aI1
aI1
aI1
aI1
aI1
aI2
aI2
asg10
S'Possible'
p356
sg12
S'Isolated'
p357
sg14
g15
sg16
I1
sg17
S'High'
p358
sg19
S'Stor tilleggsbelastning'
p359
sg21
I17
sg22
S'200'
p360
sg24
S'100'
p361
sg26
S'Isolerte faresoner'
p362
sg28
g29
(g33
S'\x12\xbey^\xce%\xdb?'
p363
tp364
Rp365
sg39
g350
sg41
S'2 - Smaa'
p366
sba(irunmatrix
M3Element
p367
(dp368
g3
F1.5
sg4
S'Lite sannsynlig, Mulig'
p369
sg6
g7
sg8
(lp370
I2
aI2
aI1
aI1
asg10
S'Possible'
p371
sg12
S'Isolated'
p372
sg14
g15
sg16
I1
sg17
S'Low'
p373
sg19
S'Liten tilleggsbelastning'
p374
sg21
I4
sg22
S'200'
p375
sg24
S'200'
p376
sg26
S'Isolerte faresoner'
p377
sg28
g29
(g33
S'\x00\x00\x00\x00\x00\x00\xe0?'
p378
tp379
Rp380
sg39
g350
sg41
S'2 - Smaa'
p381
sba(irunmatrix
M3Element
p382
(dp383
g3
F2.0
sg4
S'Lite sannsynlig, Mulig'
p384
sg6
g7
sg8
(lp385
I2
aI2
asg10
S'Possible'
p386
sg12
S'Isolated'
p387
sg14
g15
sg16
I1
sg17
S'Nat'
p388
sg19
S'Naturlig utloest'
p389
sg21
I2
sg22
S'200'
p390
sg24
S'300'
p391
sg26
S'Isolerte faresoner'
p392
sg28
g29
(g33
S'\x00\x00\x00\x00\x00\x00\x00\x00'
p393
tp394
Rp395
sg39
g350
sg41
S'2 - Smaa'
p396
sba(irunmatrix
M3Element
p397
(dp398
g3
Nsg4
S'Sannsynlig, Meget sannsynlig'
p399
sg6
S'gray'
p400
sg8
(lp401
sg10
S'Likely'
p402
sg12
S'Isolated'
p403
sg14
g76
sg16
I0
sg17
S'High'
p404
sg19
S'Stor tilleggsbelastning'
p405
sg21
Nsg22
S'200'
p406
sg24
S'400'
p407
sg26
S'Isolerte faresoner'
p408
sg28
Nsg39
g350
sg41
S'2 - Smaa'
p409
sba(irunmatrix
M3Element
p410
(dp411
g3
Nsg4
S'Sannsynlig, Meget sannsynlig'
p412
sg6
S'gray'
p413
sg8
(lp414
sg10
S'Likely'
p415
sg12
S'Isolated'
p416
sg14
g76
sg16
I0
sg17
S'Low'
p417
sg19
S'Liten tilleggsbelastning'
p418
sg21
Nsg22
S'200'
p419
sg24
S'500'
p420
sg26
S'Isolerte faresoner'
p421
sg28
Nsg39
g350
sg41
S'2 - Smaa'
p422
sba(irunmatrix
M3Element
p423
(dp424
g3
Nsg4
S'Sannsynlig, Meget sannsynlig'
p425
sg6
S'gray'
p426
sg8
(lp427
sg10
S'Likely'
p428
sg12
S'Isolated'
p429
sg14
g76
sg16
I0
sg17
S'Nat'
p430
sg19
S'Naturlig utloest'
p431
sg21
Nsg22
S'200'
p432
sg24
S'600'
p433
sg26
S'Isolerte faresoner'
p434
sg28
Nsg39
g350
sg41
S'2 - Smaa'
p435
sba(irunmatrix
M3Element
p436
(dp437
g3
F2.1666666666666665
sg4
S'Lite sannsynlig, Mulig'
p438
sg6
g7
sg8
(lp439
I3
aI3
aI2
aI2
aI2
aI2
aI2
aI2
aI2
aI2
aI2
aI2
asg10
S'Possible'
p440
sg12
S'Some'
p441
sg14
g253
sg16
I2
sg17
S'High'
p442
sg19
S'Stor tilleggsbelastning'
p443
sg21
I12
sg22
S'200'
p444
sg24
S'700'
p445
sg26
S'Noen bratte heng'
p446
sg28
g29
(g33
S'4Fu\xcf\xf4\xd9\xd7?'
p447
tp448
Rp449
sg39
g350
sg41
S'2 - Smaa'
p450
sba(irunmatrix
M3Element
p451
(dp452
g3
F2.1538461538461537
sg4
S'Lite sannsynlig, Mulig'
p453
sg6
g7
sg8
(lp454
I2
aI2
aI2
aI2
aI2
aI2
aI3
aI3
aI2
aI2
aI2
aI2
aI3
aI2
aI2
aI2
aI3
aI2
aI2
aI2
aI2
aI3
aI2
aI3
aI2
aI2
aI2
aI2
aI2
aI2
aI2
aI2
aI2
aI2
aI2
aI2
aI2
aI2
aI2
asg10
S'Possible'
p455
sg12
S'Some'
p456
sg14
g253
sg16
I2
sg17
S'Low'
p457
sg19
S'Liten tilleggsbelastning'
p458
sg21
I39
sg22
S'200'
p459
sg24
S'800'
p460
sg26
S'Noen bratte heng'
p461
sg28
g29
(g33
S'EC\xca\xf7]\x17\xd7?'
p462
tp463
Rp464
sg39
g350
sg41
S'2 - Smaa'
p465
sba(irunmatrix
M3Element
p466
(dp467
g3
F1.5263157894736843
sg4
S'Lite sannsynlig, Mulig'
p468
sg6
g7
sg8
(lp469
I3
aI3
aI3
aI3
aI3
aI1
aI1
aI1
aI1
aI1
aI1
aI1
aI1
aI2
aI1
aI2
aI1
aI1
aI1
aI1
aI1
aI1
aI1
aI1
aI1
aI1
aI1
aI1
aI1
aI1
aI2
aI2
aI2
aI2
aI2
aI2
aI2
aI2
asg10
S'Possible'
p470
sg12
S'Some'
p471
sg14
g253
sg16
I2
sg17
S'Nat'
p472
sg19
S'Naturlig utloest'
p473
sg21
I38
sg22
S'200'
p474
sg24
S'900'
p475
sg26
S'Noen bratte heng'
p476
sg28
g29
(g33
S'\x9fA\xc4\xa2a\xe8\xe6?'
p477
tp478
Rp479
sg39
g350
sg41
S'2 - Smaa'
p480
sba(irunmatrix
M3Element
p481
(dp482
g3
Nsg4
S'Sannsynlig, Meget sannsynlig'
p483
sg6
S'gray'
p484
sg8
(lp485
sg10
S'Likely'
p486
sg12
S'Some'
p487
sg14
g76
sg16
I0
sg17
S'High'
p488
sg19
S'Stor tilleggsbelastning'
p489
sg21
Nsg22
S'200'
p490
sg24
S'1000'
p491
sg26
S'Noen bratte heng'
p492
sg28
Nsg39
g350
sg41
S'2 - Smaa'
p493
sba(irunmatrix
M3Element
p494
(dp495
g3
Nsg4
S'Sannsynlig, Meget sannsynlig'
p496
sg6
S'gray'
p497
sg8
(lp498
sg10
S'Likely'
p499
sg12
S'Some'
p500
sg14
g76
sg16
I0
sg17
S'Low'
p501
sg19
S'Liten tilleggsbelastning'
p502
sg21
Nsg22
S'200'
p503
sg24
S'1100'
p504
sg26
S'Noen bratte heng'
p505
sg28
Nsg39
g350
sg41
S'2 - Smaa'
p506
sba(irunmatrix
M3Element
p507
(dp508
g3
F3.0
sg4
S'Sannsynlig, Meget sannsynlig'
p509
sg6
S'#ff9900'
p510
sg8
(lp511
I3
aI3
aI3
aI3
aI3
asg10
S'Likely'
p512
sg12
S'Some'
p513
sg14
S'#ff9900'
p514
sg16
I3
sg17
S'Nat'
p515
sg19
S'Naturlig utloest'
p516
sg21
I5
sg22
S'200'
p517
sg24
S'1200'
p518
sg26
S'Noen bratte heng'
p519
sg28
g29
(g33
S'\x00\x00\x00\x00\x00\x00\x00\x00'
p520
tp521
Rp522
sg39
g350
sg41
S'2 - Smaa'
p523
sba(irunmatrix
M3Element
p524
(dp525
g3
Nsg4
S'Lite sannsynlig, Mulig'
p526
sg6
S'gray'
p527
sg8
(lp528
sg10
S'Possible'
p529
sg12
S'Many'
p530
sg14
g76
sg16
I0
sg17
S'High'
p531
sg19
S'Stor tilleggsbelastning'
p532
sg21
Nsg22
S'200'
p533
sg24
S'1300'
p534
sg26
S'Mange bratte heng'
p535
sg28
Nsg39
g350
sg41
S'2 - Smaa'
p536
sba(irunmatrix
M3Element
p537
(dp538
g3
F2.6666666666666665
sg4
S'Lite sannsynlig, Mulig'
p539
sg6
g510
sg8
(lp540
I3
aI3
aI2
asg10
S'Possible'
p541
sg12
S'Many'
p542
sg14
g514
sg16
I3
sg17
S'Low'
p543
sg19
S'Liten tilleggsbelastning'
p544
sg21
I3
sg22
S'200'
p545
sg24
S'1400'
p546
sg26
S'Mange bratte heng'
p547
sg28
g29
(g33
S'f\xfa\xfe\xdd}+\xde?'
p548
tp549
Rp550
sg39
g350
sg41
S'2 - Smaa'
p551
sba(irunmatrix
M3Element
p552
(dp553
g3
F2.0
sg4
S'Lite sannsynlig, Mulig'
p554
sg6
g7
sg8
(lp555
I2
asg10
S'Possible'
p556
sg12
S'Many'
p557
sg14
g76
sg16
I0
sg17
S'Nat'
p558
sg19
S'Naturlig utloest'
p559
sg21
I1
sg22
S'200'
p560
sg24
S'1500'
p561
sg26
S'Mange bratte heng'
p562
sg28
g29
(g33
S'\x00\x00\x00\x00\x00\x00\x00\x00'
p563
tp564
Rp565
sg39
g350
sg41
S'2 - Smaa'
p566
sba(irunmatrix
M3Element
p567
(dp568
g3
Nsg4
S'Sannsynlig, Meget sannsynlig'
p569
sg6
S'gray'
p570
sg8
(lp571
sg10
S'Likely'
p572
sg12
S'Many'
p573
sg14
g76
sg16
I0
sg17
S'High'
p574
sg19
S'Stor tilleggsbelastning'
p575
sg21
Nsg22
S'200'
p576
sg24
S'1600'
p577
sg26
S'Mange bratte heng'
p578
sg28
Nsg39
g350
sg41
S'2 - Smaa'
p579
sba(irunmatrix
M3Element
p580
(dp581
g3
Nsg4
S'Sannsynlig, Meget sannsynlig'
p582
sg6
S'white'
p583
sg8
(lp584
sg10
S'Likely'
p585
sg12
S'Many'
p586
sg14
S'#ff0000'
p587
sg16
I4
sg17
S'Low'
p588
sg19
S'Liten tilleggsbelastning'
p589
sg21
Nsg22
S'200'
p590
sg24
S'1700'
p591
sg26
S'Mange bratte heng'
p592
sg28
Nsg39
g350
sg41
S'2 - Smaa'
p593
sba(irunmatrix
M3Element
p594
(dp595
g3
Nsg4
S'Sannsynlig, Meget sannsynlig'
p596
sg6
S'white'
p597
sg8
(lp598
sg10
S'Likely'
p599
sg12
S'Many'
p600
sg14
g587
sg16
I4
sg17
S'Nat'
p601
sg19
S'Naturlig utloest'
p602
sg21
Nsg22
S'200'
p603
sg24
S'1800'
p604
sg26
S'Mange bratte heng'
p605
sg28
Nsg39
g350
sg41
S'2 - Smaa'
p606
sba(irunmatrix
M3Element
p607
(dp608
g3
Nsg4
S'Lite sannsynlig, Mulig'
p609
sg6
S'gray'
p610
sg8
(lp611
sg10
S'Possible'
p612
sg12
S'Most'
p613
sg14
g76
sg16
I0
sg17
S'High'
p614
sg19
S'Stor tilleggsbelastning'
p615
sg21
Nsg22
S'200'
p616
sg24
S'1900'
p617
sg26
S'De fleste bratte heng, Ogsaa i mindre bratt terreng'
p618
sg28
Nsg39
g350
sg41
S'2 - Smaa'
p619
sba(irunmatrix
M3Element
p620
(dp621
g3
Nsg4
S'Lite sannsynlig, Mulig'
p622
sg6
S'gray'
p623
sg8
(lp624
sg10
S'Possible'
p625
sg12
S'Most'
p626
sg14
g76
sg16
I0
sg17
S'Low'
p627
sg19
S'Liten tilleggsbelastning'
p628
sg21
Nsg22
S'200'
p629
sg24
S'2000'
p630
sg26
S'De fleste bratte heng, Ogsaa i mindre bratt terreng'
p631
sg28
Nsg39
g350
sg41
S'2 - Smaa'
p632
sba(irunmatrix
M3Element
p633
(dp634
g3
Nsg4
S'Lite sannsynlig, Mulig'
p635
sg6
S'gray'
p636
sg8
(lp637
sg10
S'Possible'
p638
sg12
S'Most'
p639
sg14
g76
sg16
I0
sg17
S'Nat'
p640
sg19
S'Naturlig utloest'
p641
sg21
Nsg22
S'200'
p642
sg24
S'2100'
p643
sg26
S'De fleste bratte heng, Ogsaa i mindre bratt terreng'
p644
sg28
Nsg39
g350
sg41
S'2 - Smaa'
p645
sba(irunmatrix
M3Element
p646
(dp647
g3
Nsg4
S'Sannsynlig, Meget sannsynlig'
p648
sg6
S'gray'
p649
sg8
(lp650
sg10
S'Likely'
p651
sg12
S'Most'
p652
sg14
g76
sg16
I0
sg17
S'High'
p653
sg19
S'Stor tilleggsbelastning'
p654
sg21
Nsg22
S'200'
p655
sg24
S'2200'
p656
sg26
S'De fleste bratte heng, Ogsaa i mindre bratt terreng'
p657
sg28
Nsg39
g350
sg41
S'2 - Smaa'
p658
sba(irunmatrix
M3Element
p659
(dp660
g3
Nsg4
S'Sannsynlig, Meget sannsynlig'
p661
sg6
S'gray'
p662
sg8
(lp663
sg10
S'Likely'
p664
sg12
S'Most'
p665
sg14
g76
sg16
I0
sg17
S'Low'
p666
sg19
S'Liten tilleggsbelastning'
p667
sg21
Nsg22
S'200'
p668
sg24
S'2300'
p669
sg26
S'De fleste bratte heng, Ogsaa i mindre bratt terreng'
p670
sg28
Nsg39
g350
sg41
S'2 - Smaa'
p671
sba(irunmatrix
M3Element
p672
(dp673
g3
Nsg4
S'Sannsynlig, Meget sannsynlig'
p674
sg6
S'white'
p675
sg8
(lp676
sg10
S'Likely'
p677
sg12
S'Most'
p678
sg14
g76
sg16
I0
sg17
S'Nat'
p679
sg19
S'Naturlig utloest'
p680
sg21
Nsg22
S'200'
p681
sg24
S'2400'
p682
sg26
S'De fleste bratte heng, Ogsaa i mindre bratt terreng'
p683
sg28
Nsg39
g350
sg41
S'2 - Smaa'
p684
sba(irunmatrix
M3Element
p685
(dp686
g3
F2.0
sg4
S'Lite sannsynlig, Mulig'
p687
sg6
g7
sg8
(lp688
I2
aI2
asg10
S'Possible'
p689
sg12
S'Isolated'
p690
sg14
g15
sg16
I1
sg17
S'High'
p691
sg19
S'Stor tilleggsbelastning'
p692
sg21
I2
sg22
S'300'
p693
sg24
S'100'
p694
sg26
S'Isolerte faresoner'
p695
sg28
g29
(g33
S'\x00\x00\x00\x00\x00\x00\x00\x00'
p696
tp697
Rp698
sg39
S'3'
p699
sg41
S'3 - Middels'
p700
sba(irunmatrix
M3Element
p701
(dp702
g3
Nsg4
S'Lite sannsynlig, Mulig'
p703
sg6
S'white'
p704
sg8
(lp705
sg10
S'Possible'
p706
sg12
S'Isolated'
p707
sg14
g253
sg16
I2
sg17
S'Low'
p708
sg19
S'Liten tilleggsbelastning'
p709
sg21
Nsg22
S'300'
p710
sg24
S'200'
p711
sg26
S'Isolerte faresoner'
p712
sg28
Nsg39
g699
sg41
S'3 - Middels'
p713
sba(irunmatrix
M3Element
p714
(dp715
g3
Nsg4
S'Lite sannsynlig, Mulig'
p716
sg6
S'white'
p717
sg8
(lp718
sg10
S'Possible'
p719
sg12
S'Isolated'
p720
sg14
g253
sg16
I2
sg17
S'Nat'
p721
sg19
S'Naturlig utloest'
p722
sg21
Nsg22
S'300'
p723
sg24
S'300'
p724
sg26
S'Isolerte faresoner'
p725
sg28
Nsg39
g699
sg41
S'3 - Middels'
p726
sba(irunmatrix
M3Element
p727
(dp728
g3
Nsg4
S'Sannsynlig, Meget sannsynlig'
p729
sg6
S'gray'
p730
sg8
(lp731
sg10
S'Likely'
p732
sg12
S'Isolated'
p733
sg14
g76
sg16
I0
sg17
S'High'
p734
sg19
S'Stor tilleggsbelastning'
p735
sg21
Nsg22
S'300'
p736
sg24
S'400'
p737
sg26
S'Isolerte faresoner'
p738
sg28
Nsg39
g699
sg41
S'3 - Middels'
p739
sba(irunmatrix
M3Element
p740
(dp741
g3
Nsg4
S'Sannsynlig, Meget sannsynlig'
p742
sg6
S'gray'
p743
sg8
(lp744
sg10
S'Likely'
p745
sg12
S'Isolated'
p746
sg14
g76
sg16
I0
sg17
S'Low'
p747
sg19
S'Liten tilleggsbelastning'
p748
sg21
Nsg22
S'300'
p749
sg24
S'500'
p750
sg26
S'Isolerte faresoner'
p751
sg28
Nsg39
g699
sg41
S'3 - Middels'
p752
sba(irunmatrix
M3Element
p753
(dp754
g3
Nsg4
S'Sannsynlig, Meget sannsynlig'
p755
sg6
S'gray'
p756
sg8
(lp757
sg10
S'Likely'
p758
sg12
S'Isolated'
p759
sg14
g76
sg16
I0
sg17
S'Nat'
p760
sg19
S'Naturlig utloest'
p761
sg21
Nsg22
S'300'
p762
sg24
S'600'
p763
sg26
S'Isolerte faresoner'
p764
sg28
Nsg39
g699
sg41
S'3 - Middels'
p765
sba(irunmatrix
M3Element
p766
(dp767
g3
F2.5
sg4
S'Lite sannsynlig, Mulig'
p768
sg6
g510
sg8
(lp769
I3
aI2
asg10
S'Possible'
p770
sg12
S'Some'
p771
sg14
g253
sg16
I2
sg17
S'High'
p772
sg19
S'Stor tilleggsbelastning'
p773
sg21
I2
sg22
S'300'
p774
sg24
S'700'
p775
sg26
S'Noen bratte heng'
p776
sg28
g29
(g33
S'\x00\x00\x00\x00\x00\x00\xe0?'
p777
tp778
Rp779
sg39
g699
sg41
S'3 - Middels'
p780
sba(irunmatrix
M3Element
p781
(dp782
g3
F3.0
sg4
S'Lite sannsynlig, Mulig'
p783
sg6
g510
sg8
(lp784
I3
aI3
aI3
aI3
asg10
S'Possible'
p785
sg12
S'Some'
p786
sg14
g514
sg16
I3
sg17
S'Low'
p787
sg19
S'Liten tilleggsbelastning'
p788
sg21
I4
sg22
S'300'
p789
sg24
S'800'
p790
sg26
S'Noen bratte heng'
p791
sg28
g29
(g33
S'\x00\x00\x00\x00\x00\x00\x00\x00'
p792
tp793
Rp794
sg39
g699
sg41
S'3 - Middels'
p795
sba(irunmatrix
M3Element
p796
(dp797
g3
F3.0
sg4
S'Lite sannsynlig, Mulig'
p798
sg6
g510
sg8
(lp799
I3
aI3
asg10
S'Possible'
p800
sg12
S'Some'
p801
sg14
g514
sg16
I3
sg17
S'Nat'
p802
sg19
S'Naturlig utloest'
p803
sg21
I2
sg22
S'300'
p804
sg24
S'900'
p805
sg26
S'Noen bratte heng'
p806
sg28
g29
(g33
S'\x00\x00\x00\x00\x00\x00\x00\x00'
p807
tp808
Rp809
sg39
g699
sg41
S'3 - Middels'
p810
sba(irunmatrix
M3Element
p811
(dp812
g3
Nsg4
S'Sannsynlig, Meget sannsynlig'
p813
sg6
S'gray'
p814
sg8
(lp815
sg10
S'Likely'
p816
sg12
S'Some'
p817
sg14
g76
sg16
I0
sg17
S'High'
p818
sg19
S'Stor tilleggsbelastning'
p819
sg21
Nsg22
S'300'
p820
sg24
S'1000'
p821
sg26
S'Noen bratte heng'
p822
sg28
Nsg39
g699
sg41
S'3 - Middels'
p823
sba(irunmatrix
M3Element
p824
(dp825
g3
Nsg4
S'Sannsynlig, Meget sannsynlig'
p826
sg6
S'gray'
p827
sg8
(lp828
sg10
S'Likely'
p829
sg12
S'Some'
p830
sg14
g76
sg16
I0
sg17
S'Low'
p831
sg19
S'Liten tilleggsbelastning'
p832
sg21
Nsg22
S'300'
p833
sg24
S'1100'
p834
sg26
S'Noen bratte heng'
p835
sg28
Nsg39
g699
sg41
S'3 - Middels'
p836
sba(irunmatrix
M3Element
p837
(dp838
g3
Nsg4
S'Sannsynlig, Meget sannsynlig'
p839
sg6
S'white'
p840
sg8
(lp841
sg10
S'Likely'
p842
sg12
S'Some'
p843
sg14
g587
sg16
I4
sg17
S'Nat'
p844
sg19
S'Naturlig utloest'
p845
sg21
Nsg22
S'300'
p846
sg24
S'1200'
p847
sg26
S'Noen bratte heng'
p848
sg28
Nsg39
g699
sg41
S'3 - Middels'
p849
sba(irunmatrix
M3Element
p850
(dp851
g3
Nsg4
S'Lite sannsynlig, Mulig'
p852
sg6
S'gray'
p853
sg8
(lp854
sg10
S'Possible'
p855
sg12
S'Many'
p856
sg14
g76
sg16
I0
sg17
S'High'
p857
sg19
S'Stor tilleggsbelastning'
p858
sg21
Nsg22
S'300'
p859
sg24
S'1300'
p860
sg26
S'Mange bratte heng'
p861
sg28
Nsg39
g699
sg41
S'3 - Middels'
p862
sba(irunmatrix
M3Element
p863
(dp864
g3
Nsg4
S'Lite sannsynlig, Mulig'
p865
sg6
S'white'
p866
sg8
(lp867
sg10
S'Possible'
p868
sg12
S'Many'
p869
sg14
g587
sg16
I4
sg17
S'Low'
p870
sg19
S'Liten tilleggsbelastning'
p871
sg21
Nsg22
S'300'
p872
sg24
S'1400'
p873
sg26
S'Mange bratte heng'
p874
sg28
Nsg39
g699
sg41
S'3 - Middels'
p875
sba(irunmatrix
M3Element
p876
(dp877
g3
Nsg4
S'Lite sannsynlig, Mulig'
p878
sg6
S'gray'
p879
sg8
(lp880
sg10
S'Possible'
p881
sg12
S'Many'
p882
sg14
g76
sg16
I0
sg17
S'Nat'
p883
sg19
S'Naturlig utloest'
p884
sg21
Nsg22
S'300'
p885
sg24
S'1500'
p886
sg26
S'Mange bratte heng'
p887
sg28
Nsg39
g699
sg41
S'3 - Middels'
p888
sba(irunmatrix
M3Element
p889
(dp890
g3
Nsg4
S'Sannsynlig, Meget sannsynlig'
p891
sg6
S'gray'
p892
sg8
(lp893
sg10
S'Likely'
p894
sg12
S'Many'
p895
sg14
g76
sg16
I0
sg17
S'High'
p896
sg19
S'Stor tilleggsbelastning'
p897
sg21
Nsg22
S'300'
p898
sg24
S'1600'
p899
sg26
S'Mange bratte heng'
p900
sg28
Nsg39
g699
sg41
S'3 - Middels'
p901
sba(irunmatrix
M3Element
p902
(dp903
g3
Nsg4
S'Sannsynlig, Meget sannsynlig'
p904
sg6
S'white'
p905
sg8
(lp906
sg10
S'Likely'
p907
sg12
S'Many'
p908
sg14
g587
sg16
I4
sg17
S'Low'
p909
sg19
S'Liten tilleggsbelastning'
p910
sg21
Nsg22
S'300'
p911
sg24
S'1700'
p912
sg26
S'Mange bratte heng'
p913
sg28
Nsg39
g699
sg41
S'3 - Middels'
p914
sba(irunmatrix
M3Element
p915
(dp916
g3
Nsg4
S'Sannsynlig, Meget sannsynlig'
p917
sg6
S'white'
p918
sg8
(lp919
sg10
S'Likely'
p920
sg12
S'Many'
p921
sg14
g587
sg16
I4
sg17
S'Nat'
p922
sg19
S'Naturlig utloest'
p923
sg21
Nsg22
S'300'
p924
sg24
S'1800'
p925
sg26
S'Mange bratte heng'
p926
sg28
Nsg39
g699
sg41
S'3 - Middels'
p927
sba(irunmatrix
M3Element
p928
(dp929
g3
Nsg4
S'Lite sannsynlig, Mulig'
p930
sg6
S'gray'
p931
sg8
(lp932
sg10
S'Possible'
p933
sg12
S'Most'
p934
sg14
g76
sg16
I0
sg17
S'High'
p935
sg19
S'Stor tilleggsbelastning'
p936
sg21
Nsg22
S'300'
p937
sg24
S'1900'
p938
sg26
S'De fleste bratte heng, Ogsaa i mindre bratt terreng'
p939
sg28
Nsg39
g699
sg41
S'3 - Middels'
p940
sba(irunmatrix
M3Element
p941
(dp942
g3
Nsg4
S'Lite sannsynlig, Mulig'
p943
sg6
S'gray'
p944
sg8
(lp945
sg10
S'Possible'
p946
sg12
S'Most'
p947
sg14
g76
sg16
I0
sg17
S'Low'
p948
sg19
S'Liten tilleggsbelastning'
p949
sg21
Nsg22
S'300'
p950
sg24
S'2000'
p951
sg26
S'De fleste bratte heng, Ogsaa i mindre bratt terreng'
p952
sg28
Nsg39
g699
sg41
S'3 - Middels'
p953
sba(irunmatrix
M3Element
p954
(dp955
g3
Nsg4
S'Lite sannsynlig, Mulig'
p956
sg6
S'gray'
p957
sg8
(lp958
sg10
S'Possible'
p959
sg12
S'Most'
p960
sg14
g76
sg16
I0
sg17
S'Nat'
p961
sg19
S'Naturlig utloest'
p962
sg21
Nsg22
S'300'
p963
sg24
S'2100'
p964
sg26
S'De fleste bratte heng, Ogsaa i mindre bratt terreng'
p965
sg28
Nsg39
g699
sg41
S'3 - Middels'
p966
sba(irunmatrix
M3Element
p967
(dp968
g3
Nsg4
S'Sannsynlig, Meget sannsynlig'
p969
sg6
S'gray'
p970
sg8
(lp971
sg10
S'Likely'
p972
sg12
S'Most'
p973
sg14
g76
sg16
I0
sg17
S'High'
p974
sg19
S'Stor tilleggsbelastning'
p975
sg21
Nsg22
S'300'
p976
sg24
S'2200'
p977
sg26
S'De fleste bratte heng, Ogsaa i mindre bratt terreng'
p978
sg28
Nsg39
g699
sg41
S'3 - Middels'
p979
sba(irunmatrix
M3Element
p980
(dp981
g3
Nsg4
S'Sannsynlig, Meget sannsynlig'
p982
sg6
S'gray'
p983
sg8
(lp984
sg10
S'Likely'
p985
sg12
S'Most'
p986
sg14
g76
sg16
I0
sg17
S'Low'
p987
sg19
S'Liten tilleggsbelastning'
p988
sg21
Nsg22
S'300'
p989
sg24
S'2300'
p990
sg26
S'De fleste bratte heng, Ogsaa i mindre bratt terreng'
p991
sg28
Nsg39
g699
sg41
S'3 - Middels'
p992
sba(irunmatrix
M3Element
p993
(dp994
g3
Nsg4
S'Sannsynlig, Meget sannsynlig'
p995
sg6
S'white'
p996
sg8
(lp997
sg10
S'Likely'
p998
sg12
S'Most'
p999
sg14
g76
sg16
I0
sg17
S'Nat'
p1000
sg19
S'Naturlig utloest'
p1001
sg21
Nsg22
S'300'
p1002
sg24
S'2400'
p1003
sg26
S'De fleste bratte heng, Ogsaa i mindre bratt terreng'
p1004
sg28
Nsg39
g699
sg41
S'3 - Middels'
p1005
sba(irunmatrix
M3Element
p1006
(dp1007
g3
Nsg4
S'Lite sannsynlig, Mulig'
p1008
sg6
S'white'
p1009
sg8
(lp1010
sg10
S'Possible'
p1011
sg12
S'Isolated'
p1012
sg14
g253
sg16
I2
sg17
S'High'
p1013
sg19
S'Stor tilleggsbelastning'
p1014
sg21
Nsg22
S'400'
p1015
sg24
S'100'
p1016
sg26
S'Isolerte faresoner'
p1017
sg28
Nsg39
S'4'
p1018
sg41
S'4 - Store'
p1019
sba(irunmatrix
M3Element
p1020
(dp1021
g3
Nsg4
S'Lite sannsynlig, Mulig'
p1022
sg6
S'white'
p1023
sg8
(lp1024
sg10
S'Possible'
p1025
sg12
S'Isolated'
p1026
sg14
g514
sg16
I3
sg17
S'Low'
p1027
sg19
S'Liten tilleggsbelastning'
p1028
sg21
Nsg22
S'400'
p1029
sg24
S'200'
p1030
sg26
S'Isolerte faresoner'
p1031
sg28
Nsg39
g1018
sg41
S'4 - Store'
p1032
sba(irunmatrix
M3Element
p1033
(dp1034
g3
Nsg4
S'Lite sannsynlig, Mulig'
p1035
sg6
S'white'
p1036
sg8
(lp1037
sg10
S'Possible'
p1038
sg12
S'Isolated'
p1039
sg14
g514
sg16
I3
sg17
S'Nat'
p1040
sg19
S'Naturlig utloest'
p1041
sg21
Nsg22
S'400'
p1042
sg24
S'300'
p1043
sg26
S'Isolerte faresoner'
p1044
sg28
Nsg39
g1018
sg41
S'4 - Store'
p1045
sba(irunmatrix
M3Element
p1046
(dp1047
g3
Nsg4
S'Sannsynlig, Meget sannsynlig'
p1048
sg6
S'gray'
p1049
sg8
(lp1050
sg10
S'Likely'
p1051
sg12
S'Isolated'
p1052
sg14
g76
sg16
I0
sg17
S'High'
p1053
sg19
S'Stor tilleggsbelastning'
p1054
sg21
Nsg22
S'400'
p1055
sg24
S'400'
p1056
sg26
S'Isolerte faresoner'
p1057
sg28
Nsg39
g1018
sg41
S'4 - Store'
p1058
sba(irunmatrix
M3Element
p1059
(dp1060
g3
Nsg4
S'Sannsynlig, Meget sannsynlig'
p1061
sg6
S'gray'
p1062
sg8
(lp1063
sg10
S'Likely'
p1064
sg12
S'Isolated'
p1065
sg14
g76
sg16
I0
sg17
S'Low'
p1066
sg19
S'Liten tilleggsbelastning'
p1067
sg21
Nsg22
S'400'
p1068
sg24
S'500'
p1069
sg26
S'Isolerte faresoner'
p1070
sg28
Nsg39
g1018
sg41
S'4 - Store'
p1071
sba(irunmatrix
M3Element
p1072
(dp1073
g3
Nsg4
S'Sannsynlig, Meget sannsynlig'
p1074
sg6
S'gray'
p1075
sg8
(lp1076
sg10
S'Likely'
p1077
sg12
S'Isolated'
p1078
sg14
g76
sg16
I0
sg17
S'Nat'
p1079
sg19
S'Naturlig utloest'
p1080
sg21
Nsg22
S'400'
p1081
sg24
S'600'
p1082
sg26
S'Isolerte faresoner'
p1083
sg28
Nsg39
g1018
sg41
S'4 - Store'
p1084
sba(irunmatrix
M3Element
p1085
(dp1086
g3
Nsg4
S'Lite sannsynlig, Mulig'
p1087
sg6
S'white'
p1088
sg8
(lp1089
sg10
S'Possible'
p1090
sg12
S'Some'
p1091
sg14
g514
sg16
I3
sg17
S'High'
p1092
sg19
S'Stor tilleggsbelastning'
p1093
sg21
Nsg22
S'400'
p1094
sg24
S'700'
p1095
sg26
S'Noen bratte heng'
p1096
sg28
Nsg39
g1018
sg41
S'4 - Store'
p1097
sba(irunmatrix
M3Element
p1098
(dp1099
g3
Nsg4
S'Lite sannsynlig, Mulig'
p1100
sg6
S'white'
p1101
sg8
(lp1102
sg10
S'Possible'
p1103
sg12
S'Some'
p1104
sg14
g587
sg16
I4
sg17
S'Low'
p1105
sg19
S'Liten tilleggsbelastning'
p1106
sg21
Nsg22
S'400'
p1107
sg24
S'800'
p1108
sg26
S'Noen bratte heng'
p1109
sg28
Nsg39
g1018
sg41
S'4 - Store'
p1110
sba(irunmatrix
M3Element
p1111
(dp1112
g3
Nsg4
S'Lite sannsynlig, Mulig'
p1113
sg6
S'white'
p1114
sg8
(lp1115
sg10
S'Possible'
p1116
sg12
S'Some'
p1117
sg14
g587
sg16
I4
sg17
S'Nat'
p1118
sg19
S'Naturlig utloest'
p1119
sg21
Nsg22
S'400'
p1120
sg24
S'900'
p1121
sg26
S'Noen bratte heng'
p1122
sg28
Nsg39
g1018
sg41
S'4 - Store'
p1123
sba(irunmatrix
M3Element
p1124
(dp1125
g3
Nsg4
S'Sannsynlig, Meget sannsynlig'
p1126
sg6
S'gray'
p1127
sg8
(lp1128
sg10
S'Likely'
p1129
sg12
S'Some'
p1130
sg14
g76
sg16
I0
sg17
S'High'
p1131
sg19
S'Stor tilleggsbelastning'
p1132
sg21
Nsg22
S'400'
p1133
sg24
S'1000'
p1134
sg26
S'Noen bratte heng'
p1135
sg28
Nsg39
g1018
sg41
S'4 - Store'
p1136
sba(irunmatrix
M3Element
p1137
(dp1138
g3
Nsg4
S'Sannsynlig, Meget sannsynlig'
p1139
sg6
S'gray'
p1140
sg8
(lp1141
sg10
S'Likely'
p1142
sg12
S'Some'
p1143
sg14
g76
sg16
I0
sg17
S'Low'
p1144
sg19
S'Liten tilleggsbelastning'
p1145
sg21
Nsg22
S'400'
p1146
sg24
S'1100'
p1147
sg26
S'Noen bratte heng'
p1148
sg28
Nsg39
g1018
sg41
S'4 - Store'
p1149
sba(irunmatrix
M3Element
p1150
(dp1151
g3
Nsg4
S'Sannsynlig, Meget sannsynlig'
p1152
sg6
S'white'
p1153
sg8
(lp1154
sg10
S'Likely'
p1155
sg12
S'Some'
p1156
sg14
g587
sg16
I4
sg17
S'Nat'
p1157
sg19
S'Naturlig utloest'
p1158
sg21
Nsg22
S'400'
p1159
sg24
S'1200'
p1160
sg26
S'Noen bratte heng'
p1161
sg28
Nsg39
g1018
sg41
S'4 - Store'
p1162
sba(irunmatrix
M3Element
p1163
(dp1164
g3
Nsg4
S'Lite sannsynlig, Mulig'
p1165
sg6
S'gray'
p1166
sg8
(lp1167
sg10
S'Possible'
p1168
sg12
S'Many'
p1169
sg14
g76
sg16
I0
sg17
S'High'
p1170
sg19
S'Stor tilleggsbelastning'
p1171
sg21
Nsg22
S'400'
p1172
sg24
S'1300'
p1173
sg26
S'Mange bratte heng'
p1174
sg28
Nsg39
g1018
sg41
S'4 - Store'
p1175
sba(irunmatrix
M3Element
p1176
(dp1177
g3
Nsg4
S'Lite sannsynlig, Mulig'
p1178
sg6
S'white'
p1179
sg8
(lp1180
sg10
S'Possible'
p1181
sg12
S'Many'
p1182
sg14
g76
sg16
I0
sg17
S'Low'
p1183
sg19
S'Liten tilleggsbelastning'
p1184
sg21
Nsg22
S'400'
p1185
sg24
S'1400'
p1186
sg26
S'Mange bratte heng'
p1187
sg28
Nsg39
g1018
sg41
S'4 - Store'
p1188
sba(irunmatrix
M3Element
p1189
(dp1190
g3
Nsg4
S'Lite sannsynlig, Mulig'
p1191
sg6
S'gray'
p1192
sg8
(lp1193
sg10
S'Possible'
p1194
sg12
S'Many'
p1195
sg14
g76
sg16
I0
sg17
S'Nat'
p1196
sg19
S'Naturlig utloest'
p1197
sg21
Nsg22
S'400'
p1198
sg24
S'1500'
p1199
sg26
S'Mange bratte heng'
p1200
sg28
Nsg39
g1018
sg41
S'4 - Store'
p1201
sba(irunmatrix
M3Element
p1202
(dp1203
g3
Nsg4
S'Sannsynlig, Meget sannsynlig'
p1204
sg6
S'gray'
p1205
sg8
(lp1206
sg10
S'Likely'
p1207
sg12
S'Many'
p1208
sg14
g76
sg16
I0
sg17
S'High'
p1209
sg19
S'Stor tilleggsbelastning'
p1210
sg21
Nsg22
S'400'
p1211
sg24
S'1600'
p1212
sg26
S'Mange bratte heng'
p1213
sg28
Nsg39
g1018
sg41
S'4 - Store'
p1214
sba(irunmatrix
M3Element
p1215
(dp1216
g3
Nsg4
S'Sannsynlig, Meget sannsynlig'
p1217
sg6
S'white'
p1218
sg8
(lp1219
sg10
S'Likely'
p1220
sg12
S'Many'
p1221
sg14
g76
sg16
I0
sg17
S'Low'
p1222
sg19
S'Liten tilleggsbelastning'
p1223
sg21
Nsg22
S'400'
p1224
sg24
S'1700'
p1225
sg26
S'Mange bratte heng'
p1226
sg28
Nsg39
g1018
sg41
S'4 - Store'
p1227
sba(irunmatrix
M3Element
p1228
(dp1229
g3
Nsg4
S'Sannsynlig, Meget sannsynlig'
p1230
sg6
S'white'
p1231
sg8
(lp1232
sg10
S'Likely'
p1233
sg12
S'Many'
p1234
sg14
S'k'
p1235
sg16
I5
sg17
S'Nat'
p1236
sg19
S'Naturlig utloest'
p1237
sg21
Nsg22
S'400'
p1238
sg24
S'1800'
p1239
sg26
S'Mange bratte heng'
p1240
sg28
Nsg39
g1018
sg41
S'4 - Store'
p1241
sba(irunmatrix
M3Element
p1242
(dp1243
g3
Nsg4
S'Lite sannsynlig, Mulig'
p1244
sg6
S'gray'
p1245
sg8
(lp1246
sg10
S'Possible'
p1247
sg12
S'Most'
p1248
sg14
g76
sg16
I0
sg17
S'High'
p1249
sg19
S'Stor tilleggsbelastning'
p1250
sg21
Nsg22
S'400'
p1251
sg24
S'1900'
p1252
sg26
S'De fleste bratte heng, Ogsaa i mindre bratt terreng'
p1253
sg28
Nsg39
g1018
sg41
S'4 - Store'
p1254
sba(irunmatrix
M3Element
p1255
(dp1256
g3
Nsg4
S'Lite sannsynlig, Mulig'
p1257
sg6
S'gray'
p1258
sg8
(lp1259
sg10
S'Possible'
p1260
sg12
S'Most'
p1261
sg14
g76
sg16
I0
sg17
S'Low'
p1262
sg19
S'Liten tilleggsbelastning'
p1263
sg21
Nsg22
S'400'
p1264
sg24
S'2000'
p1265
sg26
S'De fleste bratte heng, Ogsaa i mindre bratt terreng'
p1266
sg28
Nsg39
g1018
sg41
S'4 - Store'
p1267
sba(irunmatrix
M3Element
p1268
(dp1269
g3
Nsg4
S'Lite sannsynlig, Mulig'
p1270
sg6
S'gray'
p1271
sg8
(lp1272
sg10
S'Possible'
p1273
sg12
S'Most'
p1274
sg14
g76
sg16
I0
sg17
S'Nat'
p1275
sg19
S'Naturlig utloest'
p1276
sg21
Nsg22
S'400'
p1277
sg24
S'2100'
p1278
sg26
S'De fleste bratte heng, Ogsaa i mindre bratt terreng'
p1279
sg28
Nsg39
g1018
sg41
S'4 - Store'
p1280
sba(irunmatrix
M3Element
p1281
(dp1282
g3
Nsg4
S'Sannsynlig, Meget sannsynlig'
p1283
sg6
S'gray'
p1284
sg8
(lp1285
sg10
S'Likely'
p1286
sg12
S'Most'
p1287
sg14
g76
sg16
I0
sg17
S'High'
p1288
sg19
S'Stor tilleggsbelastning'
p1289
sg21
Nsg22
S'400'
p1290
sg24
S'2200'
p1291
sg26
S'De fleste bratte heng, Ogsaa i mindre bratt terreng'
p1292
sg28
Nsg39
g1018
sg41
S'4 - Store'
p1293
sba(irunmatrix
M3Element
p1294
(dp1295
g3
Nsg4
S'Sannsynlig, Meget sannsynlig'
p1296
sg6
S'gray'
p1297
sg8
(lp1298
sg10
S'Likely'
p1299
sg12
S'Most'
p1300
sg14
g76
sg16
I0
sg17
S'Low'
p1301
sg19
S'Liten tilleggsbelastning'
p1302
sg21
Nsg22
S'400'
p1303
sg24
S'2300'
p1304
sg26
S'De fleste bratte heng, Ogsaa i mindre bratt terreng'
p1305
sg28
Nsg39
g1018
sg41
S'4 - Store'
p1306
sba(irunmatrix
M3Element
p1307
(dp1308
g3
Nsg4
S'Sannsynlig, Meget sannsynlig'
p1309
sg6
S'white'
p1310
sg8
(lp1311
sg10
S'Likely'
p1312
sg12
S'Most'
p1313
sg14
g76
sg16
I0
sg17
S'Nat'
p1314
sg19
S'Naturlig utloest'
p1315
sg21
Nsg22
S'400'
p1316
sg24
S'2400'
p1317
sg26
S'De fleste bratte heng, Ogsaa i mindre bratt terreng'
p1318
sg28
Nsg39
g1018
sg41
S'4 - Store'
p1319
sba(irunmatrix
M3Element
p1320
(dp1321
g3
Nsg4
S'Lite sannsynlig, Mulig'
p1322
sg6
S'white'
p1323
sg8
(lp1324
sg10
S'Possible'
p1325
sg12
S'Isolated'
p1326
sg14
g76
sg16
I0
sg17
S'High'
p1327
sg19
S'Stor tilleggsbelastning'
p1328
sg21
Nsg22
S'500'
p1329
sg24
S'100'
p1330
sg26
S'Isolerte faresoner'
p1331
sg28
Nsg39
S'5'
p1332
sg41
S'5 - Svaert store'
p1333
sba(irunmatrix
M3Element
p1334
(dp1335
g3
Nsg4
S'Lite sannsynlig, Mulig'
p1336
sg6
S'white'
p1337
sg8
(lp1338
sg10
S'Possible'
p1339
sg12
S'Isolated'
p1340
sg14
g76
sg16
I0
sg17
S'Low'
p1341
sg19
S'Liten tilleggsbelastning'
p1342
sg21
Nsg22
S'500'
p1343
sg24
S'200'
p1344
sg26
S'Isolerte faresoner'
p1345
sg28
Nsg39
g1332
sg41
S'5 - Svaert store'
p1346
sba(irunmatrix
M3Element
p1347
(dp1348
g3
Nsg4
S'Lite sannsynlig, Mulig'
p1349
sg6
S'white'
p1350
sg8
(lp1351
sg10
S'Possible'
p1352
sg12
S'Isolated'
p1353
sg14
g76
sg16
I0
sg17
S'Nat'
p1354
sg19
S'Naturlig utloest'
p1355
sg21
Nsg22
S'500'
p1356
sg24
S'300'
p1357
sg26
S'Isolerte faresoner'
p1358
sg28
Nsg39
g1332
sg41
S'5 - Svaert store'
p1359
sba(irunmatrix
M3Element
p1360
(dp1361
g3
Nsg4
S'Sannsynlig, Meget sannsynlig'
p1362
sg6
S'gray'
p1363
sg8
(lp1364
sg10
S'Likely'
p1365
sg12
S'Isolated'
p1366
sg14
g76
sg16
I0
sg17
S'High'
p1367
sg19
S'Stor tilleggsbelastning'
p1368
sg21
Nsg22
S'500'
p1369
sg24
S'400'
p1370
sg26
S'Isolerte faresoner'
p1371
sg28
Nsg39
g1332
sg41
S'5 - Svaert store'
p1372
sba(irunmatrix
M3Element
p1373
(dp1374
g3
Nsg4
S'Sannsynlig, Meget sannsynlig'
p1375
sg6
S'gray'
p1376
sg8
(lp1377
sg10
S'Likely'
p1378
sg12
S'Isolated'
p1379
sg14
g76
sg16
I0
sg17
S'Low'
p1380
sg19
S'Liten tilleggsbelastning'
p1381
sg21
Nsg22
S'500'
p1382
sg24
S'500'
p1383
sg26
S'Isolerte faresoner'
p1384
sg28
Nsg39
g1332
sg41
S'5 - Svaert store'
p1385
sba(irunmatrix
M3Element
p1386
(dp1387
g3
Nsg4
S'Sannsynlig, Meget sannsynlig'
p1388
sg6
S'gray'
p1389
sg8
(lp1390
sg10
S'Likely'
p1391
sg12
S'Isolated'
p1392
sg14
g76
sg16
I0
sg17
S'Nat'
p1393
sg19
S'Naturlig utloest'
p1394
sg21
Nsg22
S'500'
p1395
sg24
S'600'
p1396
sg26
S'Isolerte faresoner'
p1397
sg28
Nsg39
g1332
sg41
S'5 - Svaert store'
p1398
sba(irunmatrix
M3Element
p1399
(dp1400
g3
Nsg4
S'Lite sannsynlig, Mulig'
p1401
sg6
S'white'
p1402
sg8
(lp1403
sg10
S'Possible'
p1404
sg12
S'Some'
p1405
sg14
g76
sg16
I0
sg17
S'High'
p1406
sg19
S'Stor tilleggsbelastning'
p1407
sg21
Nsg22
S'500'
p1408
sg24
S'700'
p1409
sg26
S'Noen bratte heng'
p1410
sg28
Nsg39
g1332
sg41
S'5 - Svaert store'
p1411
sba(irunmatrix
M3Element
p1412
(dp1413
g3
Nsg4
S'Lite sannsynlig, Mulig'
p1414
sg6
S'white'
p1415
sg8
(lp1416
sg10
S'Possible'
p1417
sg12
S'Some'
p1418
sg14
g76
sg16
I0
sg17
S'Low'
p1419
sg19
S'Liten tilleggsbelastning'
p1420
sg21
Nsg22
S'500'
p1421
sg24
S'800'
p1422
sg26
S'Noen bratte heng'
p1423
sg28
Nsg39
g1332
sg41
S'5 - Svaert store'
p1424
sba(irunmatrix
M3Element
p1425
(dp1426
g3
Nsg4
S'Lite sannsynlig, Mulig'
p1427
sg6
S'white'
p1428
sg8
(lp1429
sg10
S'Possible'
p1430
sg12
S'Some'
p1431
sg14
g76
sg16
I0
sg17
S'Nat'
p1432
sg19
S'Naturlig utloest'
p1433
sg21
Nsg22
S'500'
p1434
sg24
S'900'
p1435
sg26
S'Noen bratte heng'
p1436
sg28
Nsg39
g1332
sg41
S'5 - Svaert store'
p1437
sba(irunmatrix
M3Element
p1438
(dp1439
g3
Nsg4
S'Sannsynlig, Meget sannsynlig'
p1440
sg6
S'gray'
p1441
sg8
(lp1442
sg10
S'Likely'
p1443
sg12
S'Some'
p1444
sg14
g76
sg16
I0
sg17
S'High'
p1445
sg19
S'Stor tilleggsbelastning'
p1446
sg21
Nsg22
S'500'
p1447
sg24
S'1000'
p1448
sg26
S'Noen bratte heng'
p1449
sg28
Nsg39
g1332
sg41
S'5 - Svaert store'
p1450
sba(irunmatrix
M3Element
p1451
(dp1452
g3
Nsg4
S'Sannsynlig, Meget sannsynlig'
p1453
sg6
S'gray'
p1454
sg8
(lp1455
sg10
S'Likely'
p1456
sg12
S'Some'
p1457
sg14
g76
sg16
I0
sg17
S'Low'
p1458
sg19
S'Liten tilleggsbelastning'
p1459
sg21
Nsg22
S'500'
p1460
sg24
S'1100'
p1461
sg26
S'Noen bratte heng'
p1462
sg28
Nsg39
g1332
sg41
S'5 - Svaert store'
p1463
sba(irunmatrix
M3Element
p1464
(dp1465
g3
Nsg4
S'Sannsynlig, Meget sannsynlig'
p1466
sg6
S'white'
p1467
sg8
(lp1468
sg10
S'Likely'
p1469
sg12
S'Some'
p1470
sg14
g76
sg16
I0
sg17
S'Nat'
p1471
sg19
S'Naturlig utloest'
p1472
sg21
Nsg22
S'500'
p1473
sg24
S'1200'
p1474
sg26
S'Noen bratte heng'
p1475
sg28
Nsg39
g1332
sg41
S'5 - Svaert store'
p1476
sba(irunmatrix
M3Element
p1477
(dp1478
g3
Nsg4
S'Lite sannsynlig, Mulig'
p1479
sg6
S'gray'
p1480
sg8
(lp1481
sg10
S'Possible'
p1482
sg12
S'Many'
p1483
sg14
g76
sg16
I0
sg17
S'High'
p1484
sg19
S'Stor tilleggsbelastning'
p1485
sg21
Nsg22
S'500'
p1486
sg24
S'1300'
p1487
sg26
S'Mange bratte heng'
p1488
sg28
Nsg39
g1332
sg41
S'5 - Svaert store'
p1489
sba(irunmatrix
M3Element
p1490
(dp1491
g3
Nsg4
S'Lite sannsynlig, Mulig'
p1492
sg6
S'white'
p1493
sg8
(lp1494
sg10
S'Possible'
p1495
sg12
S'Many'
p1496
sg14
g76
sg16
I0
sg17
S'Low'
p1497
sg19
S'Liten tilleggsbelastning'
p1498
sg21
Nsg22
S'500'
p1499
sg24
S'1400'
p1500
sg26
S'Mange bratte heng'
p1501
sg28
Nsg39
g1332
sg41
S'5 - Svaert store'
p1502
sba(irunmatrix
M3Element
p1503
(dp1504
g3
Nsg4
S'Lite sannsynlig, Mulig'
p1505
sg6
S'gray'
p1506
sg8
(lp1507
sg10
S'Possible'
p1508
sg12
S'Many'
p1509
sg14
g76
sg16
I0
sg17
S'Nat'
p1510
sg19
S'Naturlig utloest'
p1511
sg21
Nsg22
S'500'
p1512
sg24
S'1500'
p1513
sg26
S'Mange bratte heng'
p1514
sg28
Nsg39
g1332
sg41
S'5 - Svaert store'
p1515
sba(irunmatrix
M3Element
p1516
(dp1517
g3
Nsg4
S'Sannsynlig, Meget sannsynlig'
p1518
sg6
S'gray'
p1519
sg8
(lp1520
sg10
S'Likely'
p1521
sg12
S'Many'
p1522
sg14
g76
sg16
I0
sg17
S'High'
p1523
sg19
S'Stor tilleggsbelastning'
p1524
sg21
Nsg22
S'500'
p1525
sg24
S'1600'
p1526
sg26
S'Mange bratte heng'
p1527
sg28
Nsg39
g1332
sg41
S'5 - Svaert store'
p1528
sba(irunmatrix
M3Element
p1529
(dp1530
g3
Nsg4
S'Sannsynlig, Meget sannsynlig'
p1531
sg6
S'white'
p1532
sg8
(lp1533
sg10
S'Likely'
p1534
sg12
S'Many'
p1535
sg14
g76
sg16
I0
sg17
S'Low'
p1536
sg19
S'Liten tilleggsbelastning'
p1537
sg21
Nsg22
S'500'
p1538
sg24
S'1700'
p1539
sg26
S'Mange bratte heng'
p1540
sg28
Nsg39
g1332
sg41
S'5 - Svaert store'
p1541
sba(irunmatrix
M3Element
p1542
(dp1543
g3
Nsg4
S'Sannsynlig, Meget sannsynlig'
p1544
sg6
S'white'
p1545
sg8
(lp1546
sg10
S'Likely'
p1547
sg12
S'Many'
p1548
sg14
g1235
sg16
I5
sg17
S'Nat'
p1549
sg19
S'Naturlig utloest'
p1550
sg21
Nsg22
S'500'
p1551
sg24
S'1800'
p1552
sg26
S'Mange bratte heng'
p1553
sg28
Nsg39
g1332
sg41
S'5 - Svaert store'
p1554
sba(irunmatrix
M3Element
p1555
(dp1556
g3
Nsg4
S'Lite sannsynlig, Mulig'
p1557
sg6
S'gray'
p1558
sg8
(lp1559
sg10
S'Possible'
p1560
sg12
S'Most'
p1561
sg14
g76
sg16
I0
sg17
S'High'
p1562
sg19
S'Stor tilleggsbelastning'
p1563
sg21
Nsg22
S'500'
p1564
sg24
S'1900'
p1565
sg26
S'De fleste bratte heng, Ogsaa i mindre bratt terreng'
p1566
sg28
Nsg39
g1332
sg41
S'5 - Svaert store'
p1567
sba(irunmatrix
M3Element
p1568
(dp1569
g3
Nsg4
S'Lite sannsynlig, Mulig'
p1570
sg6
S'gray'
p1571
sg8
(lp1572
sg10
S'Possible'
p1573
sg12
S'Most'
p1574
sg14
g76
sg16
I0
sg17
S'Low'
p1575
sg19
S'Liten tilleggsbelastning'
p1576
sg21
Nsg22
S'500'
p1577
sg24
S'2000'
p1578
sg26
S'De fleste bratte heng, Ogsaa i mindre bratt terreng'
p1579
sg28
Nsg39
g1332
sg41
S'5 - Svaert store'
p1580
sba(irunmatrix
M3Element
p1581
(dp1582
g3
Nsg4
S'Lite sannsynlig, Mulig'
p1583
sg6
S'gray'
p1584
sg8
(lp1585
sg10
S'Possible'
p1586
sg12
S'Most'
p1587
sg14
g76
sg16
I0
sg17
S'Nat'
p1588
sg19
S'Naturlig utloest'
p1589
sg21
Nsg22
S'500'
p1590
sg24
S'2100'
p1591
sg26
S'De fleste bratte heng, Ogsaa i mindre bratt terreng'
p1592
sg28
Nsg39
g1332
sg41
S'5 - Svaert store'
p1593
sba(irunmatrix
M3Element
p1594
(dp1595
g3
Nsg4
S'Sannsynlig, Meget sannsynlig'
p1596
sg6
S'gray'
p1597
sg8
(lp1598
sg10
S'Likely'
p1599
sg12
S'Most'
p1600
sg14
g76
sg16
I0
sg17
S'High'
p1601
sg19
S'Stor tilleggsbelastning'
p1602
sg21
Nsg22
S'500'
p1603
sg24
S'2200'
p1604
sg26
S'De fleste bratte heng, Ogsaa i mindre bratt terreng'
p1605
sg28
Nsg39
g1332
sg41
S'5 - Svaert store'
p1606
sba(irunmatrix
M3Element
p1607
(dp1608
g3
Nsg4
S'Sannsynlig, Meget sannsynlig'
p1609
sg6
S'gray'
p1610
sg8
(lp1611
sg10
S'Likely'
p1612
sg12
S'Most'
p1613
sg14
g76
sg16
I0
sg17
S'Low'
p1614
sg19
S'Liten tilleggsbelastning'
p1615
sg21
Nsg22
S'500'
p1616
sg24
S'2300'
p1617
sg26
S'De fleste bratte heng, Ogsaa i mindre bratt terreng'
p1618
sg28
Nsg39
g1332
sg41
S'5 - Svaert store'
p1619
sba(irunmatrix
M3Element
p1620
(dp1621
g3
Nsg4
S'Sannsynlig, Meget sannsynlig'
p1622
sg6
S'white'
p1623
sg8
(lp1624
sg10
S'Likely'
p1625
sg12
S'Most'
p1626
sg14
g76
sg16
I0
sg17
S'Nat'
p1627
sg19
S'Naturlig utloest'
p1628
sg21
Nsg22
S'500'
p1629
sg24
S'2400'
p1630
sg26
S'De fleste bratte heng, Ogsaa i mindre bratt terreng'
p1631
sg28
Nsg39
g1332
sg41
S'5 - Svaert store'
p1632
sba.