(dp0
S'trigger'
p1
(dp2
S'keys'
p3
(lp4
S'Stor tilleggsbelastning'
p5
aS'Liten tilleggsbelastning'
p6
aS'Naturlig utloest'
p7
asS'colors'
p8
(lp9
S'0.7'
p10
asS'values'
p11
(lp12
S'Liten tilleggsbelastning'
p13
aS'Liten tilleggsbelastning'
p14
aS'Liten tilleggsbelastning'
p15
aS'Liten tilleggsbelastning'
p16
aS'Liten tilleggsbelastning'
p17
aS'Liten tilleggsbelastning'
p18
aS'Liten tilleggsbelastning'
p19
aS'Liten tilleggsbelastning'
p20
aS'Liten tilleggsbelastning'
p21
aS'Liten tilleggsbelastning'
p22
aS'Liten tilleggsbelastning'
p23
aS'Liten tilleggsbelastning'
p24
aS'Liten tilleggsbelastning'
p25
aS'Liten tilleggsbelastning'
p26
aS'Liten tilleggsbelastning'
p27
aS'Liten tilleggsbelastning'
p28
aS'Liten tilleggsbelastning'
p29
aS'Liten tilleggsbelastning'
p30
aS'Liten tilleggsbelastning'
p31
aS'Liten tilleggsbelastning'
p32
aS'Stor tilleggsbelastning'
p33
aS'Stor tilleggsbelastning'
p34
aS'Liten tilleggsbelastning'
p35
aS'Liten tilleggsbelastning'
p36
aS'Liten tilleggsbelastning'
p37
aS'Liten tilleggsbelastning'
p38
aS'Liten tilleggsbelastning'
p39
aS'Liten tilleggsbelastning'
p40
aS'Liten tilleggsbelastning'
p41
aS'Naturlig utloest'
p42
aS'Naturlig utloest'
p43
aS'Naturlig utloest'
p44
aS'Naturlig utloest'
p45
aS'Naturlig utloest'
p46
aS'Stor tilleggsbelastning'
p47
aS'Naturlig utloest'
p48
aS'Naturlig utloest'
p49
aS'Naturlig utloest'
p50
aS'Naturlig utloest'
p51
aS'Naturlig utloest'
p52
aS'Naturlig utloest'
p53
aS'Naturlig utloest'
p54
aS'Naturlig utloest'
p55
aS'Naturlig utloest'
p56
aS'Naturlig utloest'
p57
aS'Naturlig utloest'
p58
aS'Naturlig utloest'
p59
aS'Naturlig utloest'
p60
aS'Naturlig utloest'
p61
aS'Naturlig utloest'
p62
aS'Liten tilleggsbelastning'
p63
aS'Naturlig utloest'
p64
aS'Naturlig utloest'
p65
aS'Naturlig utloest'
p66
aS'Naturlig utloest'
p67
aS'Naturlig utloest'
p68
aS'Naturlig utloest'
p69
aS'Naturlig utloest'
p70
aS'Liten tilleggsbelastning'
p71
aS'Liten tilleggsbelastning'
p72
aS'Liten tilleggsbelastning'
p73
aS'Liten tilleggsbelastning'
p74
aS'Naturlig utloest'
p75
aS'Naturlig utloest'
p76
aS'Naturlig utloest'
p77
aS'Naturlig utloest'
p78
aS'Naturlig utloest'
p79
aS'Naturlig utloest'
p80
aS'Naturlig utloest'
p81
aS'Naturlig utloest'
p82
aS'Naturlig utloest'
p83
aS'Naturlig utloest'
p84
aS'Naturlig utloest'
p85
aS'Naturlig utloest'
p86
aS'Naturlig utloest'
p87
aS'Naturlig utloest'
p88
aS'Naturlig utloest'
p89
aS'Naturlig utloest'
p90
aS'Naturlig utloest'
p91
aS'Naturlig utloest'
p92
aS'Naturlig utloest'
p93
aS'Naturlig utloest'
p94
aS'Naturlig utloest'
p95
aS'Naturlig utloest'
p96
aS'Naturlig utloest'
p97
aS'Naturlig utloest'
p98
aS'Naturlig utloest'
p99
aS'Naturlig utloest'
p100
aS'Naturlig utloest'
p101
assS'distribution'
p102
(dp103
g3
(lp104
S'Isolerte faresoner'
p105
aS'Noen bratte heng'
p106
aS'Mange bratte heng'
p107
aS'De fleste bratte heng'
p108
aS'Ogsaa i mindre bratt terreng'
p109
asg8
(lp110
g10
asg11
(lp111
S'Noen bratte heng'
p112
aS'Noen bratte heng'
p113
aS'Noen bratte heng'
p114
aS'Noen bratte heng'
p115
aS'Noen bratte heng'
p116
aS'Noen bratte heng'
p117
aS'Noen bratte heng'
p118
aS'Noen bratte heng'
p119
aS'Noen bratte heng'
p120
aS'Noen bratte heng'
p121
aS'Noen bratte heng'
p122
aS'Noen bratte heng'
p123
aS'Noen bratte heng'
p124
aS'Noen bratte heng'
p125
aS'Noen bratte heng'
p126
aS'Noen bratte heng'
p127
aS'Noen bratte heng'
p128
aS'Noen bratte heng'
p129
aS'Noen bratte heng'
p130
aS'Noen bratte heng'
p131
aS'Isolerte faresoner'
p132
aS'Isolerte faresoner'
p133
aS'Noen bratte heng'
p134
aS'Noen bratte heng'
p135
aS'Noen bratte heng'
p136
aS'Noen bratte heng'
p137
aS'Noen bratte heng'
p138
aS'Noen bratte heng'
p139
aS'Noen bratte heng'
p140
aS'Noen bratte heng'
p141
aS'Noen bratte heng'
p142
aS'Noen bratte heng'
p143
aS'Noen bratte heng'
p144
aS'Noen bratte heng'
p145
aS'Noen bratte heng'
p146
aS'Noen bratte heng'
p147
aS'Noen bratte heng'
p148
aS'Noen bratte heng'
p149
aS'Noen bratte heng'
p150
aS'Noen bratte heng'
p151
aS'Noen bratte heng'
p152
aS'Noen bratte heng'
p153
aS'Noen bratte heng'
p154
aS'Noen bratte heng'
p155
aS'Noen bratte heng'
p156
aS'Noen bratte heng'
p157
aS'Noen bratte heng'
p158
aS'Noen bratte heng'
p159
aS'Noen bratte heng'
p160
aS'Noen bratte heng'
p161
aS'Isolerte faresoner'
p162
aS'Noen bratte heng'
p163
aS'Noen bratte heng'
p164
aS'Noen bratte heng'
p165
aS'Noen bratte heng'
p166
aS'Noen bratte heng'
p167
aS'Noen bratte heng'
p168
aS'Noen bratte heng'
p169
aS'Noen bratte heng'
p170
aS'Noen bratte heng'
p171
aS'Noen bratte heng'
p172
aS'Noen bratte heng'
p173
aS'Noen bratte heng'
p174
aS'Noen bratte heng'
p175
aS'Isolerte faresoner'
p176
aS'Isolerte faresoner'
p177
aS'Isolerte faresoner'
p178
aS'Noen bratte heng'
p179
aS'Noen bratte heng'
p180
aS'Noen bratte heng'
p181
aS'Noen bratte heng'
p182
aS'Noen bratte heng'
p183
aS'Noen bratte heng'
p184
aS'Noen bratte heng'
p185
aS'Noen bratte heng'
p186
aS'Noen bratte heng'
p187
aS'Noen bratte heng'
p188
aS'Noen bratte heng'
p189
aS'Noen bratte heng'
p190
aS'Noen bratte heng'
p191
aS'Noen bratte heng'
p192
aS'Isolerte faresoner'
p193
aS'Isolerte faresoner'
p194
aS'Isolerte faresoner'
p195
aS'Noen bratte heng'
p196
aS'Noen bratte heng'
p197
aS'Isolerte faresoner'
p198
aS'Noen bratte heng'
p199
aS'Noen bratte heng'
p200
assS'size'
p201
(dp202
g3
(lp203
S'1 - Harmloest'
p204
aS'2 - Smaa'
p205
aS'3 - Middels'
p206
aS'4 - Store'
p207
aS'5 - Svaert store'
p208
aS'Ukjent'
p209
asg8
(lp210
g10
asg11
(lp211
S'2 - Smaa'
p212
aS'2 - Smaa'
p213
aS'2 - Smaa'
p214
aS'3 - Middels'
p215
aS'3 - Middels'
p216
aS'3 - Middels'
p217
aS'2 - Smaa'
p218
aS'2 - Smaa'
p219
aS'2 - Smaa'
p220
aS'2 - Smaa'
p221
aS'2 - Smaa'
p222
aS'2 - Smaa'
p223
aS'2 - Smaa'
p224
aS'2 - Smaa'
p225
aS'2 - Smaa'
p226
aS'2 - Smaa'
p227
aS'2 - Smaa'
p228
aS'2 - Smaa'
p229
aS'2 - Smaa'
p230
aS'2 - Smaa'
p231
aS'2 - Smaa'
p232
aS'2 - Smaa'
p233
aS'2 - Smaa'
p234
aS'2 - Smaa'
p235
aS'2 - Smaa'
p236
aS'2 - Smaa'
p237
aS'3 - Middels'
p238
aS'3 - Middels'
p239
aS'3 - Middels'
p240
aS'2 - Smaa'
p241
aS'2 - Smaa'
p242
aS'2 - Smaa'
p243
aS'2 - Smaa'
p244
aS'2 - Smaa'
p245
aS'3 - Middels'
p246
aS'2 - Smaa'
p247
aS'2 - Smaa'
p248
aS'2 - Smaa'
p249
aS'2 - Smaa'
p250
aS'2 - Smaa'
p251
aS'2 - Smaa'
p252
aS'2 - Smaa'
p253
aS'2 - Smaa'
p254
aS'2 - Smaa'
p255
aS'2 - Smaa'
p256
aS'2 - Smaa'
p257
aS'2 - Smaa'
p258
aS'2 - Smaa'
p259
aS'2 - Smaa'
p260
aS'2 - Smaa'
p261
aS'2 - Smaa'
p262
aS'2 - Smaa'
p263
aS'2 - Smaa'
p264
aS'2 - Smaa'
p265
aS'2 - Smaa'
p266
aS'2 - Smaa'
p267
aS'2 - Smaa'
p268
aS'2 - Smaa'
p269
aS'2 - Smaa'
p270
aS'2 - Smaa'
p271
aS'2 - Smaa'
p272
aS'2 - Smaa'
p273
aS'1 - Harmloest'
p274
aS'1 - Harmloest'
p275
aS'2 - Smaa'
p276
aS'2 - Smaa'
p277
aS'2 - Smaa'
p278
aS'2 - Smaa'
p279
aS'2 - Smaa'
p280
aS'2 - Smaa'
p281
aS'2 - Smaa'
p282
aS'1 - Harmloest'
p283
aS'1 - Harmloest'
p284
aS'2 - Smaa'
p285
aS'2 - Smaa'
p286
aS'2 - Smaa'
p287
aS'1 - Harmloest'
p288
aS'1 - Harmloest'
p289
aS'1 - Harmloest'
p290
aS'2 - Smaa'
p291
aS'2 - Smaa'
p292
aS'2 - Smaa'
p293
aS'1 - Harmloest'
p294
aS'2 - Smaa'
p295
aS'2 - Smaa'
p296
aS'1 - Harmloest'
p297
aS'2 - Smaa'
p298
aS'2 - Smaa'
p299
aS'2 - Smaa'
p300
assS'probability'
p301
(dp302
g3
(lp303
S'Lite sannsynlig'
p304
aS'Mulig'
p305
aS'Sannsynlig'
p306
aS'Meget sannsynlig'
p307
asg8
(lp308
g10
asg11
(lp309
S'Mulig'
p310
aS'Mulig'
p311
aS'Mulig'
p312
aS'Mulig'
p313
aS'Mulig'
p314
aS'Mulig'
p315
aS'Mulig'
p316
aS'Mulig'
p317
aS'Mulig'
p318
aS'Mulig'
p319
aS'Mulig'
p320
aS'Mulig'
p321
aS'Mulig'
p322
aS'Mulig'
p323
aS'Mulig'
p324
aS'Mulig'
p325
aS'Mulig'
p326
aS'Mulig'
p327
aS'Mulig'
p328
aS'Mulig'
p329
aS'Mulig'
p330
aS'Mulig'
p331
aS'Mulig'
p332
aS'Mulig'
p333
aS'Mulig'
p334
aS'Mulig'
p335
aS'Mulig'
p336
aS'Mulig'
p337
aS'Mulig'
p338
aS'Mulig'
p339
aS'Mulig'
p340
aS'Mulig'
p341
aS'Mulig'
p342
aS'Mulig'
p343
aS'Mulig'
p344
aS'Mulig'
p345
aS'Mulig'
p346
aS'Mulig'
p347
aS'Mulig'
p348
aS'Mulig'
p349
aS'Mulig'
p350
aS'Mulig'
p351
aS'Sannsynlig'
p352
aS'Sannsynlig'
p353
aS'Mulig'
p354
aS'Mulig'
p355
aS'Mulig'
p356
aS'Mulig'
p357
aS'Mulig'
p358
aS'Mulig'
p359
aS'Mulig'
p360
aS'Mulig'
p361
aS'Mulig'
p362
aS'Mulig'
p363
aS'Mulig'
p364
aS'Mulig'
p365
aS'Mulig'
p366
aS'Mulig'
p367
aS'Mulig'
p368
aS'Mulig'
p369
aS'Mulig'
p370
aS'Mulig'
p371
aS'Mulig'
p372
aS'Mulig'
p373
aS'Mulig'
p374
aS'Mulig'
p375
aS'Mulig'
p376
aS'Mulig'
p377
aS'Mulig'
p378
aS'Mulig'
p379
aS'Mulig'
p380
aS'Mulig'
p381
aS'Mulig'
p382
aS'Mulig'
p383
aS'Mulig'
p384
aS'Mulig'
p385
aS'Ikke gitt'
p386
aS'Mulig'
p387
aS'Mulig'
p388
aS'Mulig'
p389
aS'Mulig'
p390
aS'Mulig'
p391
aS'Mulig'
p392
aS'Mulig'
p393
aS'Mulig'
p394
aS'Mulig'
p395
aS'Mulig'
p396
aS'Mulig'
p397
aS'Mulig'
p398
assS'level'
p399
(dp400
g3
(lp401
I1
aI2
aI3
aI4
aI5
asg8
(lp402
S'#ccff66'
p403
aS'#ffff00'
p404
aS'#ff9900'
p405
aS'#ff0000'
p406
aS'k'
p407
asg11
(lp408
I2
aI2
aI2
aI3
aI3
aI3
aI2
aI2
aI2
aI2
aI2
aI2
aI2
aI2
aI2
aI2
aI2
aI2
aI2
aI2
aI1
aI1
aI2
aI2
aI2
aI2
aI3
aI3
aI3
aI2
aI2
aI2
aI2
aI2
aI2
aI2
aI2
aI2
aI2
aI2
aI2
aI2
aI2
aI2
aI2
aI2
aI2
aI2
aI2
aI2
aI2
aI2
aI2
aI2
aI2
aI2
aI2
aI2
aI2
aI2
aI2
aI2
aI1
aI1
aI1
aI1
aI1
aI2
aI2
aI2
aI2
aI1
aI1
aI2
aI2
aI2
aI1
aI1
aI1
aI2
aI2
aI1
aI1
aI1
aI2
aI2
aI1
aI2
aI2
ass.