(dp0
S'trigger'
p1
(dp2
S'keys'
p3
(lp4
S'Stor tilleggsbelastning'
p5
aS'Liten tilleggsbelastning'
p6
aS'Naturlig utloest'
p7
asS'colors'
p8
(lp9
S'0.7'
p10
asS'values'
p11
(lp12
S'Liten tilleggsbelastning'
p13
aS'Liten tilleggsbelastning'
p14
aS'Liten tilleggsbelastning'
p15
aS'Liten tilleggsbelastning'
p16
aS'Liten tilleggsbelastning'
p17
aS'Liten tilleggsbelastning'
p18
aS'Liten tilleggsbelastning'
p19
aS'Liten tilleggsbelastning'
p20
aS'Stor tilleggsbelastning'
p21
aS'Stor tilleggsbelastning'
p22
aS'Stor tilleggsbelastning'
p23
aS'Liten tilleggsbelastning'
p24
aS'Liten tilleggsbelastning'
p25
aS'Liten tilleggsbelastning'
p26
aS'Liten tilleggsbelastning'
p27
aS'Liten tilleggsbelastning'
p28
aS'Liten tilleggsbelastning'
p29
aS'Liten tilleggsbelastning'
p30
aS'Liten tilleggsbelastning'
p31
aS'Stor tilleggsbelastning'
p32
aS'Liten tilleggsbelastning'
p33
aS'Liten tilleggsbelastning'
p34
aS'Liten tilleggsbelastning'
p35
aS'Stor tilleggsbelastning'
p36
aS'Stor tilleggsbelastning'
p37
aS'Stor tilleggsbelastning'
p38
aS'Liten tilleggsbelastning'
p39
aS'Naturlig utloest'
p40
aS'Naturlig utloest'
p41
aS'Naturlig utloest'
p42
aS'Liten tilleggsbelastning'
p43
aS'Liten tilleggsbelastning'
p44
aS'Liten tilleggsbelastning'
p45
aS'Liten tilleggsbelastning'
p46
aS'Liten tilleggsbelastning'
p47
aS'Liten tilleggsbelastning'
p48
aS'Liten tilleggsbelastning'
p49
aS'Liten tilleggsbelastning'
p50
aS'Liten tilleggsbelastning'
p51
aS'Liten tilleggsbelastning'
p52
aS'Liten tilleggsbelastning'
p53
aS'Liten tilleggsbelastning'
p54
aS'Liten tilleggsbelastning'
p55
aS'Liten tilleggsbelastning'
p56
aS'Liten tilleggsbelastning'
p57
aS'Stor tilleggsbelastning'
p58
aS'Liten tilleggsbelastning'
p59
aS'Liten tilleggsbelastning'
p60
aS'Liten tilleggsbelastning'
p61
aS'Liten tilleggsbelastning'
p62
aS'Liten tilleggsbelastning'
p63
aS'Liten tilleggsbelastning'
p64
aS'Liten tilleggsbelastning'
p65
aS'Liten tilleggsbelastning'
p66
aS'Liten tilleggsbelastning'
p67
aS'Liten tilleggsbelastning'
p68
aS'Liten tilleggsbelastning'
p69
aS'Liten tilleggsbelastning'
p70
aS'Liten tilleggsbelastning'
p71
aS'Liten tilleggsbelastning'
p72
aS'Liten tilleggsbelastning'
p73
aS'Liten tilleggsbelastning'
p74
aS'Liten tilleggsbelastning'
p75
aS'Liten tilleggsbelastning'
p76
aS'Stor tilleggsbelastning'
p77
aS'Stor tilleggsbelastning'
p78
aS'Liten tilleggsbelastning'
p79
aS'Liten tilleggsbelastning'
p80
aS'Liten tilleggsbelastning'
p81
aS'Naturlig utloest'
p82
aS'Stor tilleggsbelastning'
p83
aS'Liten tilleggsbelastning'
p84
aS'Liten tilleggsbelastning'
p85
aS'Liten tilleggsbelastning'
p86
aS'Liten tilleggsbelastning'
p87
aS'Naturlig utloest'
p88
aS'Stor tilleggsbelastning'
p89
aS'Naturlig utloest'
p90
aS'Liten tilleggsbelastning'
p91
aS'Liten tilleggsbelastning'
p92
aS'Liten tilleggsbelastning'
p93
aS'Stor tilleggsbelastning'
p94
aS'Stor tilleggsbelastning'
p95
aS'Liten tilleggsbelastning'
p96
aS'Liten tilleggsbelastning'
p97
aS'Liten tilleggsbelastning'
p98
aS'Stor tilleggsbelastning'
p99
aS'Stor tilleggsbelastning'
p100
aS'Liten tilleggsbelastning'
p101
aS'Liten tilleggsbelastning'
p102
aS'Liten tilleggsbelastning'
p103
aS'Liten tilleggsbelastning'
p104
aS'Liten tilleggsbelastning'
p105
aS'Liten tilleggsbelastning'
p106
aS'Liten tilleggsbelastning'
p107
aS'Liten tilleggsbelastning'
p108
aS'Liten tilleggsbelastning'
p109
aS'Liten tilleggsbelastning'
p110
aS'Liten tilleggsbelastning'
p111
aS'Liten tilleggsbelastning'
p112
aS'Liten tilleggsbelastning'
p113
aS'Liten tilleggsbelastning'
p114
aS'Naturlig utloest'
p115
aS'Liten tilleggsbelastning'
p116
aS'Naturlig utloest'
p117
aS'Stor tilleggsbelastning'
p118
aS'Naturlig utloest'
p119
aS'Naturlig utloest'
p120
aS'Naturlig utloest'
p121
aS'Naturlig utloest'
p122
aS'Naturlig utloest'
p123
aS'Naturlig utloest'
p124
aS'Naturlig utloest'
p125
aS'Naturlig utloest'
p126
aS'Naturlig utloest'
p127
aS'Naturlig utloest'
p128
aS'Naturlig utloest'
p129
aS'Naturlig utloest'
p130
aS'Naturlig utloest'
p131
aS'Naturlig utloest'
p132
aS'Naturlig utloest'
p133
aS'Naturlig utloest'
p134
aS'Naturlig utloest'
p135
aS'Naturlig utloest'
p136
aS'Naturlig utloest'
p137
aS'Naturlig utloest'
p138
aS'Naturlig utloest'
p139
aS'Naturlig utloest'
p140
aS'Liten tilleggsbelastning'
p141
aS'Naturlig utloest'
p142
aS'Naturlig utloest'
p143
aS'Naturlig utloest'
p144
aS'Naturlig utloest'
p145
aS'Naturlig utloest'
p146
aS'Naturlig utloest'
p147
aS'Liten tilleggsbelastning'
p148
aS'Liten tilleggsbelastning'
p149
aS'Naturlig utloest'
p150
aS'Naturlig utloest'
p151
aS'Naturlig utloest'
p152
aS'Naturlig utloest'
p153
aS'Naturlig utloest'
p154
aS'Naturlig utloest'
p155
aS'Naturlig utloest'
p156
aS'Naturlig utloest'
p157
aS'Liten tilleggsbelastning'
p158
aS'Liten tilleggsbelastning'
p159
aS'Liten tilleggsbelastning'
p160
aS'Naturlig utloest'
p161
aS'Liten tilleggsbelastning'
p162
aS'Liten tilleggsbelastning'
p163
aS'Liten tilleggsbelastning'
p164
aS'Naturlig utloest'
p165
aS'Naturlig utloest'
p166
aS'Naturlig utloest'
p167
aS'Naturlig utloest'
p168
aS'Naturlig utloest'
p169
aS'Naturlig utloest'
p170
aS'Naturlig utloest'
p171
aS'Liten tilleggsbelastning'
p172
aS'Liten tilleggsbelastning'
p173
aS'Naturlig utloest'
p174
aS'Naturlig utloest'
p175
aS'Naturlig utloest'
p176
assS'distribution'
p177
(dp178
g3
(lp179
S'Isolerte faresoner'
p180
aS'Noen bratte heng'
p181
aS'Mange bratte heng'
p182
aS'De fleste bratte heng'
p183
aS'Ogsaa i mindre bratt terreng'
p184
asg8
(lp185
g10
asg11
(lp186
S'Mange bratte heng'
p187
aS'Mange bratte heng'
p188
aS'Noen bratte heng'
p189
aS'Noen bratte heng'
p190
aS'Noen bratte heng'
p191
aS'Noen bratte heng'
p192
aS'Noen bratte heng'
p193
aS'Noen bratte heng'
p194
aS'Noen bratte heng'
p195
aS'Noen bratte heng'
p196
aS'Isolerte faresoner'
p197
aS'Isolerte faresoner'
p198
aS'Isolerte faresoner'
p199
aS'Isolerte faresoner'
p200
aS'Noen bratte heng'
p201
aS'Noen bratte heng'
p202
aS'Noen bratte heng'
p203
aS'Noen bratte heng'
p204
aS'Mange bratte heng'
p205
aS'Isolerte faresoner'
p206
aS'Mange bratte heng'
p207
aS'Noen bratte heng'
p208
aS'Noen bratte heng'
p209
aS'Noen bratte heng'
p210
aS'Isolerte faresoner'
p211
aS'Noen bratte heng'
p212
aS'Mange bratte heng'
p213
aS'Isolerte faresoner'
p214
aS'Isolerte faresoner'
p215
aS'Isolerte faresoner'
p216
aS'Noen bratte heng'
p217
aS'Noen bratte heng'
p218
aS'Noen bratte heng'
p219
aS'Noen bratte heng'
p220
aS'Noen bratte heng'
p221
aS'Noen bratte heng'
p222
aS'Noen bratte heng'
p223
aS'Mange bratte heng'
p224
aS'Noen bratte heng'
p225
aS'Mange bratte heng'
p226
aS'Noen bratte heng'
p227
aS'Mange bratte heng'
p228
aS'Noen bratte heng'
p229
aS'Mange bratte heng'
p230
aS'Noen bratte heng'
p231
aS'Noen bratte heng'
p232
aS'Mange bratte heng'
p233
aS'Noen bratte heng'
p234
aS'Mange bratte heng'
p235
aS'Noen bratte heng'
p236
aS'Mange bratte heng'
p237
aS'Noen bratte heng'
p238
aS'Noen bratte heng'
p239
aS'Mange bratte heng'
p240
aS'Noen bratte heng'
p241
aS'Mange bratte heng'
p242
aS'Noen bratte heng'
p243
aS'Mange bratte heng'
p244
aS'Noen bratte heng'
p245
aS'Noen bratte heng'
p246
aS'Noen bratte heng'
p247
aS'Mange bratte heng'
p248
aS'Mange bratte heng'
p249
aS'Noen bratte heng'
p250
aS'Noen bratte heng'
p251
aS'Noen bratte heng'
p252
aS'Mange bratte heng'
p253
aS'Mange bratte heng'
p254
aS'Noen bratte heng'
p255
aS'Isolerte faresoner'
p256
aS'Noen bratte heng'
p257
aS'Noen bratte heng'
p258
aS'Noen bratte heng'
p259
aS'Noen bratte heng'
p260
aS'Noen bratte heng'
p261
aS'Isolerte faresoner'
p262
aS'Noen bratte heng'
p263
aS'Noen bratte heng'
p264
aS'Noen bratte heng'
p265
aS'Noen bratte heng'
p266
aS'Noen bratte heng'
p267
aS'Noen bratte heng'
p268
aS'Noen bratte heng'
p269
aS'Noen bratte heng'
p270
aS'Noen bratte heng'
p271
aS'Noen bratte heng'
p272
aS'Isolerte faresoner'
p273
aS'Noen bratte heng'
p274
aS'Noen bratte heng'
p275
aS'Noen bratte heng'
p276
aS'Isolerte faresoner'
p277
aS'Noen bratte heng'
p278
aS'Noen bratte heng'
p279
aS'Noen bratte heng'
p280
aS'Noen bratte heng'
p281
aS'Noen bratte heng'
p282
aS'Noen bratte heng'
p283
aS'Isolerte faresoner'
p284
aS'Isolerte faresoner'
p285
aS'Isolerte faresoner'
p286
aS'Isolerte faresoner'
p287
aS'Isolerte faresoner'
p288
aS'Noen bratte heng'
p289
aS'Noen bratte heng'
p290
aS'Noen bratte heng'
p291
aS'Noen bratte heng'
p292
aS'Noen bratte heng'
p293
aS'Noen bratte heng'
p294
aS'Mange bratte heng'
p295
aS'Mange bratte heng'
p296
aS'Mange bratte heng'
p297
aS'Mange bratte heng'
p298
aS'Mange bratte heng'
p299
aS'Mange bratte heng'
p300
aS'Mange bratte heng'
p301
aS'Noen bratte heng'
p302
aS'Noen bratte heng'
p303
aS'Noen bratte heng'
p304
aS'Noen bratte heng'
p305
aS'Noen bratte heng'
p306
aS'Noen bratte heng'
p307
aS'Noen bratte heng'
p308
aS'Noen bratte heng'
p309
aS'Noen bratte heng'
p310
aS'Noen bratte heng'
p311
aS'Noen bratte heng'
p312
aS'Noen bratte heng'
p313
aS'Noen bratte heng'
p314
aS'Noen bratte heng'
p315
aS'Noen bratte heng'
p316
aS'Noen bratte heng'
p317
aS'Noen bratte heng'
p318
aS'Noen bratte heng'
p319
aS'Noen bratte heng'
p320
aS'Noen bratte heng'
p321
aS'Noen bratte heng'
p322
aS'Noen bratte heng'
p323
aS'Noen bratte heng'
p324
aS'Noen bratte heng'
p325
aS'Noen bratte heng'
p326
aS'Noen bratte heng'
p327
aS'Noen bratte heng'
p328
aS'Noen bratte heng'
p329
aS'Noen bratte heng'
p330
aS'Isolerte faresoner'
p331
aS'Noen bratte heng'
p332
aS'Noen bratte heng'
p333
aS'Noen bratte heng'
p334
aS'Noen bratte heng'
p335
aS'Noen bratte heng'
p336
aS'Noen bratte heng'
p337
aS'Noen bratte heng'
p338
aS'Isolerte faresoner'
p339
aS'Noen bratte heng'
p340
aS'Noen bratte heng'
p341
aS'Noen bratte heng'
p342
aS'Noen bratte heng'
p343
aS'Noen bratte heng'
p344
aS'Noen bratte heng'
p345
aS'Isolerte faresoner'
p346
aS'Isolerte faresoner'
p347
aS'Noen bratte heng'
p348
aS'Noen bratte heng'
p349
aS'Isolerte faresoner'
p350
assS'size'
p351
(dp352
g3
(lp353
S'1 - Harmloest'
p354
aS'2 - Smaa'
p355
aS'3 - Middels'
p356
aS'4 - Store'
p357
aS'5 - Svaert store'
p358
aS'Ukjent'
p359
asg8
(lp360
g10
asg11
(lp361
S'2 - Smaa'
p362
aS'2 - Smaa'
p363
aS'2 - Smaa'
p364
aS'2 - Smaa'
p365
aS'2 - Smaa'
p366
aS'2 - Smaa'
p367
aS'2 - Smaa'
p368
aS'2 - Smaa'
p369
aS'3 - Middels'
p370
aS'3 - Middels'
p371
aS'2 - Smaa'
p372
aS'2 - Smaa'
p373
aS'2 - Smaa'
p374
aS'2 - Smaa'
p375
aS'2 - Smaa'
p376
aS'2 - Smaa'
p377
aS'2 - Smaa'
p378
aS'3 - Middels'
p379
aS'3 - Middels'
p380
aS'1 - Harmloest'
p381
aS'3 - Middels'
p382
aS'3 - Middels'
p383
aS'3 - Middels'
p384
aS'3 - Middels'
p385
aS'1 - Harmloest'
p386
aS'2 - Smaa'
p387
aS'2 - Smaa'
p388
aS'3 - Middels'
p389
aS'3 - Middels'
p390
aS'2 - Smaa'
p391
aS'3 - Middels'
p392
aS'3 - Middels'
p393
aS'3 - Middels'
p394
aS'3 - Middels'
p395
aS'3 - Middels'
p396
aS'3 - Middels'
p397
aS'2 - Smaa'
p398
aS'2 - Smaa'
p399
aS'2 - Smaa'
p400
aS'2 - Smaa'
p401
aS'2 - Smaa'
p402
aS'2 - Smaa'
p403
aS'2 - Smaa'
p404
aS'2 - Smaa'
p405
aS'2 - Smaa'
p406
aS'2 - Smaa'
p407
aS'2 - Smaa'
p408
aS'2 - Smaa'
p409
aS'2 - Smaa'
p410
aS'2 - Smaa'
p411
aS'2 - Smaa'
p412
aS'2 - Smaa'
p413
aS'2 - Smaa'
p414
aS'2 - Smaa'
p415
aS'2 - Smaa'
p416
aS'2 - Smaa'
p417
aS'2 - Smaa'
p418
aS'2 - Smaa'
p419
aS'2 - Smaa'
p420
aS'2 - Smaa'
p421
aS'3 - Middels'
p422
aS'2 - Smaa'
p423
aS'2 - Smaa'
p424
aS'2 - Smaa'
p425
aS'3 - Middels'
p426
aS'3 - Middels'
p427
aS'2 - Smaa'
p428
aS'2 - Smaa'
p429
aS'2 - Smaa'
p430
aS'2 - Smaa'
p431
aS'3 - Middels'
p432
aS'1 - Harmloest'
p433
aS'2 - Smaa'
p434
aS'2 - Smaa'
p435
aS'2 - Smaa'
p436
aS'2 - Smaa'
p437
aS'3 - Middels'
p438
aS'1 - Harmloest'
p439
aS'2 - Smaa'
p440
aS'2 - Smaa'
p441
aS'2 - Smaa'
p442
aS'3 - Middels'
p443
aS'3 - Middels'
p444
aS'2 - Smaa'
p445
aS'2 - Smaa'
p446
aS'2 - Smaa'
p447
aS'3 - Middels'
p448
aS'3 - Middels'
p449
aS'2 - Smaa'
p450
aS'2 - Smaa'
p451
aS'2 - Smaa'
p452
aS'2 - Smaa'
p453
aS'2 - Smaa'
p454
aS'2 - Smaa'
p455
aS'2 - Smaa'
p456
aS'2 - Smaa'
p457
aS'2 - Smaa'
p458
aS'2 - Smaa'
p459
aS'2 - Smaa'
p460
aS'2 - Smaa'
p461
aS'2 - Smaa'
p462
aS'2 - Smaa'
p463
aS'2 - Smaa'
p464
aS'2 - Smaa'
p465
aS'1 - Harmloest'
p466
aS'3 - Middels'
p467
aS'1 - Harmloest'
p468
aS'2 - Smaa'
p469
aS'2 - Smaa'
p470
aS'2 - Smaa'
p471
aS'2 - Smaa'
p472
aS'2 - Smaa'
p473
aS'2 - Smaa'
p474
aS'2 - Smaa'
p475
aS'2 - Smaa'
p476
aS'2 - Smaa'
p477
aS'2 - Smaa'
p478
aS'2 - Smaa'
p479
aS'2 - Smaa'
p480
aS'2 - Smaa'
p481
aS'2 - Smaa'
p482
aS'2 - Smaa'
p483
aS'2 - Smaa'
p484
aS'2 - Smaa'
p485
aS'2 - Smaa'
p486
aS'2 - Smaa'
p487
aS'2 - Smaa'
p488
aS'2 - Smaa'
p489
aS'3 - Middels'
p490
aS'2 - Smaa'
p491
aS'2 - Smaa'
p492
aS'2 - Smaa'
p493
aS'2 - Smaa'
p494
aS'2 - Smaa'
p495
aS'2 - Smaa'
p496
aS'3 - Middels'
p497
aS'2 - Smaa'
p498
aS'2 - Smaa'
p499
aS'2 - Smaa'
p500
aS'2 - Smaa'
p501
aS'2 - Smaa'
p502
aS'2 - Smaa'
p503
aS'2 - Smaa'
p504
aS'2 - Smaa'
p505
aS'2 - Smaa'
p506
aS'2 - Smaa'
p507
aS'2 - Smaa'
p508
aS'2 - Smaa'
p509
aS'2 - Smaa'
p510
aS'2 - Smaa'
p511
aS'2 - Smaa'
p512
aS'2 - Smaa'
p513
aS'2 - Smaa'
p514
aS'2 - Smaa'
p515
aS'2 - Smaa'
p516
aS'2 - Smaa'
p517
aS'2 - Smaa'
p518
aS'2 - Smaa'
p519
aS'1 - Harmloest'
p520
aS'2 - Smaa'
p521
aS'2 - Smaa'
p522
aS'1 - Harmloest'
p523
aS'1 - Harmloest'
p524
aS'2 - Smaa'
p525
assS'probability'
p526
(dp527
g3
(lp528
S'Lite sannsynlig'
p529
aS'Mulig'
p530
aS'Sannsynlig'
p531
aS'Meget sannsynlig'
p532
asg8
(lp533
g10
asg11
(lp534
S'Mulig'
p535
aS'Mulig'
p536
aS'Mulig'
p537
aS'Mulig'
p538
aS'Mulig'
p539
aS'Mulig'
p540
aS'Mulig'
p541
aS'Mulig'
p542
aS'Mulig'
p543
aS'Mulig'
p544
aS'Lite sannsynlig'
p545
aS'Mulig'
p546
aS'Mulig'
p547
aS'Mulig'
p548
aS'Mulig'
p549
aS'Mulig'
p550
aS'Mulig'
p551
aS'Mulig'
p552
aS'Mulig'
p553
aS'Mulig'
p554
aS'Mulig'
p555
aS'Mulig'
p556
aS'Mulig'
p557
aS'Mulig'
p558
aS'Mulig'
p559
aS'Mulig'
p560
aS'Mulig'
p561
aS'Mulig'
p562
aS'Mulig'
p563
aS'Mulig'
p564
aS'Mulig'
p565
aS'Mulig'
p566
aS'Mulig'
p567
aS'Mulig'
p568
aS'Mulig'
p569
aS'Mulig'
p570
aS'Mulig'
p571
aS'Mulig'
p572
aS'Mulig'
p573
aS'Mulig'
p574
aS'Mulig'
p575
aS'Mulig'
p576
aS'Mulig'
p577
aS'Mulig'
p578
aS'Mulig'
p579
aS'Mulig'
p580
aS'Mulig'
p581
aS'Mulig'
p582
aS'Mulig'
p583
aS'Mulig'
p584
aS'Mulig'
p585
aS'Mulig'
p586
aS'Mulig'
p587
aS'Mulig'
p588
aS'Mulig'
p589
aS'Mulig'
p590
aS'Mulig'
p591
aS'Mulig'
p592
aS'Mulig'
p593
aS'Mulig'
p594
aS'Mulig'
p595
aS'Mulig'
p596
aS'Mulig'
p597
aS'Mulig'
p598
aS'Lite sannsynlig'
p599
aS'Mulig'
p600
aS'Mulig'
p601
aS'Mulig'
p602
aS'Mulig'
p603
aS'Mulig'
p604
aS'Mulig'
p605
aS'Mulig'
p606
aS'Mulig'
p607
aS'Mulig'
p608
aS'Mulig'
p609
aS'Mulig'
p610
aS'Mulig'
p611
aS'Mulig'
p612
aS'Mulig'
p613
aS'Mulig'
p614
aS'Mulig'
p615
aS'Lite sannsynlig'
p616
aS'Mulig'
p617
aS'Mulig'
p618
aS'Mulig'
p619
aS'Mulig'
p620
aS'Lite sannsynlig'
p621
aS'Mulig'
p622
aS'Mulig'
p623
aS'Mulig'
p624
aS'Mulig'
p625
aS'Mulig'
p626
aS'Mulig'
p627
aS'Mulig'
p628
aS'Mulig'
p629
aS'Mulig'
p630
aS'Mulig'
p631
aS'Mulig'
p632
aS'Mulig'
p633
aS'Mulig'
p634
aS'Mulig'
p635
aS'Mulig'
p636
aS'Mulig'
p637
aS'Mulig'
p638
aS'Mulig'
p639
aS'Mulig'
p640
aS'Mulig'
p641
aS'Sannsynlig'
p642
aS'Mulig'
p643
aS'Mulig'
p644
aS'Mulig'
p645
aS'Mulig'
p646
aS'Mulig'
p647
aS'Mulig'
p648
aS'Mulig'
p649
aS'Sannsynlig'
p650
aS'Mulig'
p651
aS'Mulig'
p652
aS'Mulig'
p653
aS'Mulig'
p654
aS'Mulig'
p655
aS'Mulig'
p656
aS'Mulig'
p657
aS'Mulig'
p658
aS'Mulig'
p659
aS'Mulig'
p660
aS'Mulig'
p661
aS'Mulig'
p662
aS'Mulig'
p663
aS'Mulig'
p664
aS'Mulig'
p665
aS'Mulig'
p666
aS'Mulig'
p667
aS'Mulig'
p668
aS'Mulig'
p669
aS'Mulig'
p670
aS'Mulig'
p671
aS'Mulig'
p672
aS'Mulig'
p673
aS'Mulig'
p674
aS'Mulig'
p675
aS'Mulig'
p676
aS'Mulig'
p677
aS'Mulig'
p678
aS'Mulig'
p679
aS'Mulig'
p680
aS'Mulig'
p681
aS'Mulig'
p682
aS'Mulig'
p683
aS'Mulig'
p684
aS'Mulig'
p685
aS'Mulig'
p686
aS'Mulig'
p687
aS'Mulig'
p688
aS'Mulig'
p689
aS'Mulig'
p690
aS'Mulig'
p691
aS'Mulig'
p692
aS'Mulig'
p693
aS'Mulig'
p694
aS'Mulig'
p695
aS'Mulig'
p696
aS'Mulig'
p697
aS'Mulig'
p698
assS'level'
p699
(dp700
g3
(lp701
I1
aI2
aI3
aI4
aI5
asg8
(lp702
S'#ccff66'
p703
aS'#ffff00'
p704
aS'#ff9900'
p705
aS'#ff0000'
p706
aS'k'
p707
asg11
(lp708
I3
aI3
aI2
aI2
aI2
aI2
aI2
aI2
aI2
aI2
aI1
aI1
aI1
aI1
aI2
aI2
aI2
aI3
aI3
aI1
aI3
aI3
aI3
aI2
aI1
aI2
aI3
aI3
aI3
aI3
aI3
aI3
aI3
aI3
aI3
aI3
aI2
aI3
aI2
aI3
aI3
aI3
aI3
aI3
aI2
aI2
aI3
aI3
aI3
aI3
aI3
aI2
aI2
aI3
aI3
aI3
aI3
aI3
aI3
aI2
aI3
aI3
aI3
aI2
aI2
aI2
aI3
aI3
aI2
aI1
aI2
aI1
aI2
aI2
aI2
aI1
aI2
aI1
aI2
aI2
aI2
aI1
aI2
aI2
aI2
aI2
aI1
aI2
aI2
aI2
aI1
aI2
aI1
aI2
aI2
aI2
aI2
aI1
aI1
aI1
aI1
aI1
aI2
aI2
aI1
aI3
aI1
aI3
aI3
aI3
aI3
aI3
aI3
aI3
aI3
aI3
aI3
aI2
aI3
aI2
aI3
aI3
aI2
aI3
aI2
aI3
aI2
aI3
aI3
aI2
aI2
aI2
aI2
aI2
aI2
aI3
aI2
aI2
aI2
aI2
aI2
aI2
aI2
aI2
aI1
aI2
aI2
aI2
aI2
aI2
aI2
aI2
aI1
aI2
aI2
aI2
aI2
aI2
aI1
aI1
aI1
aI1
aI1
aI1
ass.