(lp0
(irunmatrix
M3Element
p1
(dp2
S'danger_level_average'
p3
NsS'probability'
p4
S'Lite sannsynlig, Mulig'
p5
sS'colour'
p6
S'white'
p7
sS'danger_level_list'
p8
(lp9
sS'label_probalility'
p10
S'Possible'
p11
sS'label_distribution'
p12
S'Isolated'
p13
sS'recomended_colour'
p14
S'#ccff66'
p15
sS'recomended_danger_level'
p16
I1
sS'label_trigger'
p17
S'High'
p18
sS'trigger'
p19
S'Stor tilleggsbelastning'
p20
sS'occurrences'
p21
NsS'y'
p22
S'100'
p23
sS'x'
p24
S'100'
p25
sS'distribution'
p26
S'Isolerte faresoner'
p27
sS'danger_level_standard_dev'
p28
NsS'label_size'
p29
S'1'
p30
sS'avalanche_size'
p31
S'1 - Harmloest'
p32
sba(irunmatrix
M3Element
p33
(dp34
g3
Nsg4
S'Lite sannsynlig, Mulig'
p35
sg6
S'white'
p36
sg8
(lp37
sg10
S'Possible'
p38
sg12
S'Isolated'
p39
sg14
g15
sg16
I1
sg17
S'Low'
p40
sg19
S'Liten tilleggsbelastning'
p41
sg21
Nsg22
S'100'
p42
sg24
S'200'
p43
sg26
S'Isolerte faresoner'
p44
sg28
Nsg29
g30
sg31
S'1 - Harmloest'
p45
sba(irunmatrix
M3Element
p46
(dp47
g3
Nsg4
S'Lite sannsynlig, Mulig'
p48
sg6
S'white'
p49
sg8
(lp50
sg10
S'Possible'
p51
sg12
S'Isolated'
p52
sg14
g15
sg16
I1
sg17
S'Nat'
p53
sg19
S'Naturlig utloest'
p54
sg21
Nsg22
S'100'
p55
sg24
S'300'
p56
sg26
S'Isolerte faresoner'
p57
sg28
Nsg29
g30
sg31
S'1 - Harmloest'
p58
sba(irunmatrix
M3Element
p59
(dp60
g3
Nsg4
S'Sannsynlig, Meget sannsynlig'
p61
sg6
S'gray'
p62
sg8
(lp63
sg10
S'Likely'
p64
sg12
S'Isolated'
p65
sg14
S'gray'
p66
sg16
I0
sg17
S'High'
p67
sg19
S'Stor tilleggsbelastning'
p68
sg21
Nsg22
S'100'
p69
sg24
S'400'
p70
sg26
S'Isolerte faresoner'
p71
sg28
Nsg29
g30
sg31
S'1 - Harmloest'
p72
sba(irunmatrix
M3Element
p73
(dp74
g3
Nsg4
S'Sannsynlig, Meget sannsynlig'
p75
sg6
S'gray'
p76
sg8
(lp77
sg10
S'Likely'
p78
sg12
S'Isolated'
p79
sg14
g66
sg16
I0
sg17
S'Low'
p80
sg19
S'Liten tilleggsbelastning'
p81
sg21
Nsg22
S'100'
p82
sg24
S'500'
p83
sg26
S'Isolerte faresoner'
p84
sg28
Nsg29
g30
sg31
S'1 - Harmloest'
p85
sba(irunmatrix
M3Element
p86
(dp87
g3
Nsg4
S'Sannsynlig, Meget sannsynlig'
p88
sg6
S'gray'
p89
sg8
(lp90
sg10
S'Likely'
p91
sg12
S'Isolated'
p92
sg14
g66
sg16
I0
sg17
S'Nat'
p93
sg19
S'Naturlig utloest'
p94
sg21
Nsg22
S'100'
p95
sg24
S'600'
p96
sg26
S'Isolerte faresoner'
p97
sg28
Nsg29
g30
sg31
S'1 - Harmloest'
p98
sba(irunmatrix
M3Element
p99
(dp100
g3
Nsg4
S'Lite sannsynlig, Mulig'
p101
sg6
S'white'
p102
sg8
(lp103
sg10
S'Possible'
p104
sg12
S'Some'
p105
sg14
g15
sg16
I1
sg17
S'High'
p106
sg19
S'Stor tilleggsbelastning'
p107
sg21
Nsg22
S'100'
p108
sg24
S'700'
p109
sg26
S'Noen bratte heng'
p110
sg28
Nsg29
g30
sg31
S'1 - Harmloest'
p111
sba(irunmatrix
M3Element
p112
(dp113
g3
F1.0
sg4
S'Lite sannsynlig, Mulig'
p114
sg6
S'#ccff66'
p115
sg8
(lp116
I1
aI1
aI1
aI1
aI1
aI1
aI1
aI1
aI1
asg10
S'Possible'
p117
sg12
S'Some'
p118
sg14
g15
sg16
I1
sg17
S'Low'
p119
sg19
S'Liten tilleggsbelastning'
p120
sg21
I9
sg22
S'100'
p121
sg24
S'800'
p122
sg26
S'Noen bratte heng'
p123
sg28
cnumpy.core.multiarray
scalar
p124
(cnumpy
dtype
p125
(S'f8'
p126
I0
I1
tp127
Rp128
(I3
S'<'
p129
NNNI-1
I-1
I0
tp130
bS'\x00\x00\x00\x00\x00\x00\x00\x00'
p131
tp132
Rp133
sg29
g30
sg31
S'1 - Harmloest'
p134
sba(irunmatrix
M3Element
p135
(dp136
g3
F1.6666666666666667
sg4
S'Lite sannsynlig, Mulig'
p137
sg6
S'#ffff00'
p138
sg8
(lp139
I2
aI1
aI2
asg10
S'Possible'
p140
sg12
S'Some'
p141
sg14
g15
sg16
I1
sg17
S'Nat'
p142
sg19
S'Naturlig utloest'
p143
sg21
I3
sg22
S'100'
p144
sg24
S'900'
p145
sg26
S'Noen bratte heng'
p146
sg28
g124
(g128
S'f\xfa\xfe\xdd}+\xde?'
p147
tp148
Rp149
sg29
g30
sg31
S'1 - Harmloest'
p150
sba(irunmatrix
M3Element
p151
(dp152
g3
Nsg4
S'Sannsynlig, Meget sannsynlig'
p153
sg6
S'gray'
p154
sg8
(lp155
sg10
S'Likely'
p156
sg12
S'Some'
p157
sg14
g66
sg16
I0
sg17
S'High'
p158
sg19
S'Stor tilleggsbelastning'
p159
sg21
Nsg22
S'100'
p160
sg24
S'1000'
p161
sg26
S'Noen bratte heng'
p162
sg28
Nsg29
g30
sg31
S'1 - Harmloest'
p163
sba(irunmatrix
M3Element
p164
(dp165
g3
Nsg4
S'Sannsynlig, Meget sannsynlig'
p166
sg6
S'gray'
p167
sg8
(lp168
sg10
S'Likely'
p169
sg12
S'Some'
p170
sg14
g66
sg16
I0
sg17
S'Low'
p171
sg19
S'Liten tilleggsbelastning'
p172
sg21
Nsg22
S'100'
p173
sg24
S'1100'
p174
sg26
S'Noen bratte heng'
p175
sg28
Nsg29
g30
sg31
S'1 - Harmloest'
p176
sba(irunmatrix
M3Element
p177
(dp178
g3
Nsg4
S'Sannsynlig, Meget sannsynlig'
p179
sg6
S'white'
p180
sg8
(lp181
sg10
S'Likely'
p182
sg12
S'Some'
p183
sg14
g15
sg16
I1
sg17
S'Nat'
p184
sg19
S'Naturlig utloest'
p185
sg21
Nsg22
S'100'
p186
sg24
S'1200'
p187
sg26
S'Noen bratte heng'
p188
sg28
Nsg29
g30
sg31
S'1 - Harmloest'
p189
sba(irunmatrix
M3Element
p190
(dp191
g3
Nsg4
S'Lite sannsynlig, Mulig'
p192
sg6
S'gray'
p193
sg8
(lp194
sg10
S'Possible'
p195
sg12
S'Many'
p196
sg14
g66
sg16
I0
sg17
S'High'
p197
sg19
S'Stor tilleggsbelastning'
p198
sg21
Nsg22
S'100'
p199
sg24
S'1300'
p200
sg26
S'Mange bratte heng'
p201
sg28
Nsg29
g30
sg31
S'1 - Harmloest'
p202
sba(irunmatrix
M3Element
p203
(dp204
g3
Nsg4
S'Lite sannsynlig, Mulig'
p205
sg6
S'white'
p206
sg8
(lp207
sg10
S'Possible'
p208
sg12
S'Many'
p209
sg14
g15
sg16
I1
sg17
S'Low'
p210
sg19
S'Liten tilleggsbelastning'
p211
sg21
Nsg22
S'100'
p212
sg24
S'1400'
p213
sg26
S'Mange bratte heng'
p214
sg28
Nsg29
g30
sg31
S'1 - Harmloest'
p215
sba(irunmatrix
M3Element
p216
(dp217
g3
Nsg4
S'Lite sannsynlig, Mulig'
p218
sg6
S'gray'
p219
sg8
(lp220
sg10
S'Possible'
p221
sg12
S'Many'
p222
sg14
g66
sg16
I0
sg17
S'Nat'
p223
sg19
S'Naturlig utloest'
p224
sg21
Nsg22
S'100'
p225
sg24
S'1500'
p226
sg26
S'Mange bratte heng'
p227
sg28
Nsg29
g30
sg31
S'1 - Harmloest'
p228
sba(irunmatrix
M3Element
p229
(dp230
g3
Nsg4
S'Sannsynlig, Meget sannsynlig'
p231
sg6
S'gray'
p232
sg8
(lp233
sg10
S'Likely'
p234
sg12
S'Many'
p235
sg14
g66
sg16
I0
sg17
S'High'
p236
sg19
S'Stor tilleggsbelastning'
p237
sg21
Nsg22
S'100'
p238
sg24
S'1600'
p239
sg26
S'Mange bratte heng'
p240
sg28
Nsg29
g30
sg31
S'1 - Harmloest'
p241
sba(irunmatrix
M3Element
p242
(dp243
g3
Nsg4
S'Sannsynlig, Meget sannsynlig'
p244
sg6
S'white'
p245
sg8
(lp246
sg10
S'Likely'
p247
sg12
S'Many'
p248
sg14
S'#ffff00'
p249
sg16
I2
sg17
S'Low'
p250
sg19
S'Liten tilleggsbelastning'
p251
sg21
Nsg22
S'100'
p252
sg24
S'1700'
p253
sg26
S'Mange bratte heng'
p254
sg28
Nsg29
g30
sg31
S'1 - Harmloest'
p255
sba(irunmatrix
M3Element
p256
(dp257
g3
Nsg4
S'Sannsynlig, Meget sannsynlig'
p258
sg6
S'white'
p259
sg8
(lp260
sg10
S'Likely'
p261
sg12
S'Many'
p262
sg14
g249
sg16
I2
sg17
S'Nat'
p263
sg19
S'Naturlig utloest'
p264
sg21
Nsg22
S'100'
p265
sg24
S'1800'
p266
sg26
S'Mange bratte heng'
p267
sg28
Nsg29
g30
sg31
S'1 - Harmloest'
p268
sba(irunmatrix
M3Element
p269
(dp270
g3
Nsg4
S'Lite sannsynlig, Mulig'
p271
sg6
S'gray'
p272
sg8
(lp273
sg10
S'Possible'
p274
sg12
S'Most'
p275
sg14
g66
sg16
I0
sg17
S'High'
p276
sg19
S'Stor tilleggsbelastning'
p277
sg21
Nsg22
S'100'
p278
sg24
S'1900'
p279
sg26
S'De fleste bratte heng, Ogsaa i mindre bratt terreng'
p280
sg28
Nsg29
g30
sg31
S'1 - Harmloest'
p281
sba(irunmatrix
M3Element
p282
(dp283
g3
Nsg4
S'Lite sannsynlig, Mulig'
p284
sg6
S'gray'
p285
sg8
(lp286
sg10
S'Possible'
p287
sg12
S'Most'
p288
sg14
g66
sg16
I0
sg17
S'Low'
p289
sg19
S'Liten tilleggsbelastning'
p290
sg21
Nsg22
S'100'
p291
sg24
S'2000'
p292
sg26
S'De fleste bratte heng, Ogsaa i mindre bratt terreng'
p293
sg28
Nsg29
g30
sg31
S'1 - Harmloest'
p294
sba(irunmatrix
M3Element
p295
(dp296
g3
Nsg4
S'Lite sannsynlig, Mulig'
p297
sg6
S'gray'
p298
sg8
(lp299
sg10
S'Possible'
p300
sg12
S'Most'
p301
sg14
g66
sg16
I0
sg17
S'Nat'
p302
sg19
S'Naturlig utloest'
p303
sg21
Nsg22
S'100'
p304
sg24
S'2100'
p305
sg26
S'De fleste bratte heng, Ogsaa i mindre bratt terreng'
p306
sg28
Nsg29
g30
sg31
S'1 - Harmloest'
p307
sba(irunmatrix
M3Element
p308
(dp309
g3
Nsg4
S'Sannsynlig, Meget sannsynlig'
p310
sg6
S'gray'
p311
sg8
(lp312
sg10
S'Likely'
p313
sg12
S'Most'
p314
sg14
g66
sg16
I0
sg17
S'High'
p315
sg19
S'Stor tilleggsbelastning'
p316
sg21
Nsg22
S'100'
p317
sg24
S'2200'
p318
sg26
S'De fleste bratte heng, Ogsaa i mindre bratt terreng'
p319
sg28
Nsg29
g30
sg31
S'1 - Harmloest'
p320
sba(irunmatrix
M3Element
p321
(dp322
g3
Nsg4
S'Sannsynlig, Meget sannsynlig'
p323
sg6
S'gray'
p324
sg8
(lp325
sg10
S'Likely'
p326
sg12
S'Most'
p327
sg14
g66
sg16
I0
sg17
S'Low'
p328
sg19
S'Liten tilleggsbelastning'
p329
sg21
Nsg22
S'100'
p330
sg24
S'2300'
p331
sg26
S'De fleste bratte heng, Ogsaa i mindre bratt terreng'
p332
sg28
Nsg29
g30
sg31
S'1 - Harmloest'
p333
sba(irunmatrix
M3Element
p334
(dp335
g3
Nsg4
S'Sannsynlig, Meget sannsynlig'
p336
sg6
S'white'
p337
sg8
(lp338
sg10
S'Likely'
p339
sg12
S'Most'
p340
sg14
g66
sg16
I0
sg17
S'Nat'
p341
sg19
S'Naturlig utloest'
p342
sg21
Nsg22
S'100'
p343
sg24
S'2400'
p344
sg26
S'De fleste bratte heng, Ogsaa i mindre bratt terreng'
p345
sg28
Nsg29
S'2'
p346
sg31
S'1 - Harmloest'
p347
sba(irunmatrix
M3Element
p348
(dp349
g3
F1.5
sg4
S'Lite sannsynlig, Mulig'
p350
sg6
g138
sg8
(lp351
I1
aI2
asg10
S'Possible'
p352
sg12
S'Isolated'
p353
sg14
g15
sg16
I1
sg17
S'High'
p354
sg19
S'Stor tilleggsbelastning'
p355
sg21
I2
sg22
S'200'
p356
sg24
S'100'
p357
sg26
S'Isolerte faresoner'
p358
sg28
g124
(g128
S'\x00\x00\x00\x00\x00\x00\xe0?'
p359
tp360
Rp361
sg29
g346
sg31
S'2 - Smaa'
p362
sba(irunmatrix
M3Element
p363
(dp364
g3
F2.0
sg4
S'Lite sannsynlig, Mulig'
p365
sg6
g138
sg8
(lp366
I2
asg10
S'Possible'
p367
sg12
S'Isolated'
p368
sg14
g15
sg16
I1
sg17
S'Low'
p369
sg19
S'Liten tilleggsbelastning'
p370
sg21
I1
sg22
S'200'
p371
sg24
S'200'
p372
sg26
S'Isolerte faresoner'
p373
sg28
g124
(g128
S'\x00\x00\x00\x00\x00\x00\x00\x00'
p374
tp375
Rp376
sg29
g346
sg31
S'2 - Smaa'
p377
sba(irunmatrix
M3Element
p378
(dp379
g3
Nsg4
S'Lite sannsynlig, Mulig'
p380
sg6
S'white'
p381
sg8
(lp382
sg10
S'Possible'
p383
sg12
S'Isolated'
p384
sg14
g15
sg16
I1
sg17
S'Nat'
p385
sg19
S'Naturlig utloest'
p386
sg21
Nsg22
S'200'
p387
sg24
S'300'
p388
sg26
S'Isolerte faresoner'
p389
sg28
Nsg29
g346
sg31
S'2 - Smaa'
p390
sba(irunmatrix
M3Element
p391
(dp392
g3
Nsg4
S'Sannsynlig, Meget sannsynlig'
p393
sg6
S'gray'
p394
sg8
(lp395
sg10
S'Likely'
p396
sg12
S'Isolated'
p397
sg14
g66
sg16
I0
sg17
S'High'
p398
sg19
S'Stor tilleggsbelastning'
p399
sg21
Nsg22
S'200'
p400
sg24
S'400'
p401
sg26
S'Isolerte faresoner'
p402
sg28
Nsg29
g346
sg31
S'2 - Smaa'
p403
sba(irunmatrix
M3Element
p404
(dp405
g3
Nsg4
S'Sannsynlig, Meget sannsynlig'
p406
sg6
S'gray'
p407
sg8
(lp408
sg10
S'Likely'
p409
sg12
S'Isolated'
p410
sg14
g66
sg16
I0
sg17
S'Low'
p411
sg19
S'Liten tilleggsbelastning'
p412
sg21
Nsg22
S'200'
p413
sg24
S'500'
p414
sg26
S'Isolerte faresoner'
p415
sg28
Nsg29
g346
sg31
S'2 - Smaa'
p416
sba(irunmatrix
M3Element
p417
(dp418
g3
Nsg4
S'Sannsynlig, Meget sannsynlig'
p419
sg6
S'gray'
p420
sg8
(lp421
sg10
S'Likely'
p422
sg12
S'Isolated'
p423
sg14
g66
sg16
I0
sg17
S'Nat'
p424
sg19
S'Naturlig utloest'
p425
sg21
Nsg22
S'200'
p426
sg24
S'600'
p427
sg26
S'Isolerte faresoner'
p428
sg28
Nsg29
g346
sg31
S'2 - Smaa'
p429
sba(irunmatrix
M3Element
p430
(dp431
g3
F2.0
sg4
S'Lite sannsynlig, Mulig'
p432
sg6
g138
sg8
(lp433
I2
aI2
aI2
aI2
aI2
aI2
aI2
aI2
aI2
aI2
aI2
aI2
aI2
aI2
aI2
aI2
aI2
aI2
aI2
aI2
aI2
aI2
aI2
aI2
aI2
aI2
aI2
aI2
aI2
aI2
aI2
aI2
aI2
asg10
S'Possible'
p434
sg12
S'Some'
p435
sg14
g249
sg16
I2
sg17
S'High'
p436
sg19
S'Stor tilleggsbelastning'
p437
sg21
I33
sg22
S'200'
p438
sg24
S'700'
p439
sg26
S'Noen bratte heng'
p440
sg28
g124
(g128
S'\x00\x00\x00\x00\x00\x00\x00\x00'
p441
tp442
Rp443
sg29
g346
sg31
S'2 - Smaa'
p444
sba(irunmatrix
M3Element
p445
(dp446
g3
F2.0
sg4
S'Lite sannsynlig, Mulig'
p447
sg6
g138
sg8
(lp448
I2
aI2
aI2
aI2
aI2
aI2
aI2
aI2
aI2
aI2
aI2
aI2
aI2
aI2
aI2
aI2
aI2
aI2
aI2
aI2
aI2
aI2
aI2
aI2
aI2
aI2
aI2
aI2
aI2
aI2
aI2
aI2
aI2
aI2
aI2
aI2
aI2
aI2
aI2
aI2
aI2
aI2
aI2
aI2
asg10
S'Possible'
p449
sg12
S'Some'
p450
sg14
g249
sg16
I2
sg17
S'Low'
p451
sg19
S'Liten tilleggsbelastning'
p452
sg21
I44
sg22
S'200'
p453
sg24
S'800'
p454
sg26
S'Noen bratte heng'
p455
sg28
g124
(g128
S'\x00\x00\x00\x00\x00\x00\x00\x00'
p456
tp457
Rp458
sg29
g346
sg31
S'2 - Smaa'
p459
sba(irunmatrix
M3Element
p460
(dp461
g3
F2.2222222222222223
sg4
S'Lite sannsynlig, Mulig'
p462
sg6
g138
sg8
(lp463
I2
aI2
aI2
aI2
aI2
aI2
aI3
aI3
aI2
asg10
S'Possible'
p464
sg12
S'Some'
p465
sg14
g249
sg16
I2
sg17
S'Nat'
p466
sg19
S'Naturlig utloest'
p467
sg21
I9
sg22
S'200'
p468
sg24
S'900'
p469
sg26
S'Noen bratte heng'
p470
sg28
g124
(g128
S'z\xc6#\xbaz\x9b\xda?'
p471
tp472
Rp473
sg29
g346
sg31
S'2 - Smaa'
p474
sba(irunmatrix
M3Element
p475
(dp476
g3
Nsg4
S'Sannsynlig, Meget sannsynlig'
p477
sg6
S'gray'
p478
sg8
(lp479
sg10
S'Likely'
p480
sg12
S'Some'
p481
sg14
g66
sg16
I0
sg17
S'High'
p482
sg19
S'Stor tilleggsbelastning'
p483
sg21
Nsg22
S'200'
p484
sg24
S'1000'
p485
sg26
S'Noen bratte heng'
p486
sg28
Nsg29
g346
sg31
S'2 - Smaa'
p487
sba(irunmatrix
M3Element
p488
(dp489
g3
Nsg4
S'Sannsynlig, Meget sannsynlig'
p490
sg6
S'gray'
p491
sg8
(lp492
sg10
S'Likely'
p493
sg12
S'Some'
p494
sg14
g66
sg16
I0
sg17
S'Low'
p495
sg19
S'Liten tilleggsbelastning'
p496
sg21
Nsg22
S'200'
p497
sg24
S'1100'
p498
sg26
S'Noen bratte heng'
p499
sg28
Nsg29
g346
sg31
S'2 - Smaa'
p500
sba(irunmatrix
M3Element
p501
(dp502
g3
Nsg4
S'Sannsynlig, Meget sannsynlig'
p503
sg6
S'white'
p504
sg8
(lp505
sg10
S'Likely'
p506
sg12
S'Some'
p507
sg14
S'#ff9900'
p508
sg16
I3
sg17
S'Nat'
p509
sg19
S'Naturlig utloest'
p510
sg21
Nsg22
S'200'
p511
sg24
S'1200'
p512
sg26
S'Noen bratte heng'
p513
sg28
Nsg29
g346
sg31
S'2 - Smaa'
p514
sba(irunmatrix
M3Element
p515
(dp516
g3
Nsg4
S'Lite sannsynlig, Mulig'
p517
sg6
S'gray'
p518
sg8
(lp519
sg10
S'Possible'
p520
sg12
S'Many'
p521
sg14
g66
sg16
I0
sg17
S'High'
p522
sg19
S'Stor tilleggsbelastning'
p523
sg21
Nsg22
S'200'
p524
sg24
S'1300'
p525
sg26
S'Mange bratte heng'
p526
sg28
Nsg29
g346
sg31
S'2 - Smaa'
p527
sba(irunmatrix
M3Element
p528
(dp529
g3
Nsg4
S'Lite sannsynlig, Mulig'
p530
sg6
S'white'
p531
sg8
(lp532
sg10
S'Possible'
p533
sg12
S'Many'
p534
sg14
g508
sg16
I3
sg17
S'Low'
p535
sg19
S'Liten tilleggsbelastning'
p536
sg21
Nsg22
S'200'
p537
sg24
S'1400'
p538
sg26
S'Mange bratte heng'
p539
sg28
Nsg29
g346
sg31
S'2 - Smaa'
p540
sba(irunmatrix
M3Element
p541
(dp542
g3
Nsg4
S'Lite sannsynlig, Mulig'
p543
sg6
S'gray'
p544
sg8
(lp545
sg10
S'Possible'
p546
sg12
S'Many'
p547
sg14
g66
sg16
I0
sg17
S'Nat'
p548
sg19
S'Naturlig utloest'
p549
sg21
Nsg22
S'200'
p550
sg24
S'1500'
p551
sg26
S'Mange bratte heng'
p552
sg28
Nsg29
g346
sg31
S'2 - Smaa'
p553
sba(irunmatrix
M3Element
p554
(dp555
g3
Nsg4
S'Sannsynlig, Meget sannsynlig'
p556
sg6
S'gray'
p557
sg8
(lp558
sg10
S'Likely'
p559
sg12
S'Many'
p560
sg14
g66
sg16
I0
sg17
S'High'
p561
sg19
S'Stor tilleggsbelastning'
p562
sg21
Nsg22
S'200'
p563
sg24
S'1600'
p564
sg26
S'Mange bratte heng'
p565
sg28
Nsg29
g346
sg31
S'2 - Smaa'
p566
sba(irunmatrix
M3Element
p567
(dp568
g3
Nsg4
S'Sannsynlig, Meget sannsynlig'
p569
sg6
S'white'
p570
sg8
(lp571
sg10
S'Likely'
p572
sg12
S'Many'
p573
sg14
S'#ff0000'
p574
sg16
I4
sg17
S'Low'
p575
sg19
S'Liten tilleggsbelastning'
p576
sg21
Nsg22
S'200'
p577
sg24
S'1700'
p578
sg26
S'Mange bratte heng'
p579
sg28
Nsg29
g346
sg31
S'2 - Smaa'
p580
sba(irunmatrix
M3Element
p581
(dp582
g3
Nsg4
S'Sannsynlig, Meget sannsynlig'
p583
sg6
S'white'
p584
sg8
(lp585
sg10
S'Likely'
p586
sg12
S'Many'
p587
sg14
g574
sg16
I4
sg17
S'Nat'
p588
sg19
S'Naturlig utloest'
p589
sg21
Nsg22
S'200'
p590
sg24
S'1800'
p591
sg26
S'Mange bratte heng'
p592
sg28
Nsg29
g346
sg31
S'2 - Smaa'
p593
sba(irunmatrix
M3Element
p594
(dp595
g3
Nsg4
S'Lite sannsynlig, Mulig'
p596
sg6
S'gray'
p597
sg8
(lp598
sg10
S'Possible'
p599
sg12
S'Most'
p600
sg14
g66
sg16
I0
sg17
S'High'
p601
sg19
S'Stor tilleggsbelastning'
p602
sg21
Nsg22
S'200'
p603
sg24
S'1900'
p604
sg26
S'De fleste bratte heng, Ogsaa i mindre bratt terreng'
p605
sg28
Nsg29
g346
sg31
S'2 - Smaa'
p606
sba(irunmatrix
M3Element
p607
(dp608
g3
Nsg4
S'Lite sannsynlig, Mulig'
p609
sg6
S'gray'
p610
sg8
(lp611
sg10
S'Possible'
p612
sg12
S'Most'
p613
sg14
g66
sg16
I0
sg17
S'Low'
p614
sg19
S'Liten tilleggsbelastning'
p615
sg21
Nsg22
S'200'
p616
sg24
S'2000'
p617
sg26
S'De fleste bratte heng, Ogsaa i mindre bratt terreng'
p618
sg28
Nsg29
g346
sg31
S'2 - Smaa'
p619
sba(irunmatrix
M3Element
p620
(dp621
g3
Nsg4
S'Lite sannsynlig, Mulig'
p622
sg6
S'gray'
p623
sg8
(lp624
sg10
S'Possible'
p625
sg12
S'Most'
p626
sg14
g66
sg16
I0
sg17
S'Nat'
p627
sg19
S'Naturlig utloest'
p628
sg21
Nsg22
S'200'
p629
sg24
S'2100'
p630
sg26
S'De fleste bratte heng, Ogsaa i mindre bratt terreng'
p631
sg28
Nsg29
g346
sg31
S'2 - Smaa'
p632
sba(irunmatrix
M3Element
p633
(dp634
g3
Nsg4
S'Sannsynlig, Meget sannsynlig'
p635
sg6
S'gray'
p636
sg8
(lp637
sg10
S'Likely'
p638
sg12
S'Most'
p639
sg14
g66
sg16
I0
sg17
S'High'
p640
sg19
S'Stor tilleggsbelastning'
p641
sg21
Nsg22
S'200'
p642
sg24
S'2200'
p643
sg26
S'De fleste bratte heng, Ogsaa i mindre bratt terreng'
p644
sg28
Nsg29
g346
sg31
S'2 - Smaa'
p645
sba(irunmatrix
M3Element
p646
(dp647
g3
Nsg4
S'Sannsynlig, Meget sannsynlig'
p648
sg6
S'gray'
p649
sg8
(lp650
sg10
S'Likely'
p651
sg12
S'Most'
p652
sg14
g66
sg16
I0
sg17
S'Low'
p653
sg19
S'Liten tilleggsbelastning'
p654
sg21
Nsg22
S'200'
p655
sg24
S'2300'
p656
sg26
S'De fleste bratte heng, Ogsaa i mindre bratt terreng'
p657
sg28
Nsg29
g346
sg31
S'2 - Smaa'
p658
sba(irunmatrix
M3Element
p659
(dp660
g3
Nsg4
S'Sannsynlig, Meget sannsynlig'
p661
sg6
S'white'
p662
sg8
(lp663
sg10
S'Likely'
p664
sg12
S'Most'
p665
sg14
g66
sg16
I0
sg17
S'Nat'
p666
sg19
S'Naturlig utloest'
p667
sg21
Nsg22
S'200'
p668
sg24
S'2400'
p669
sg26
S'De fleste bratte heng, Ogsaa i mindre bratt terreng'
p670
sg28
Nsg29
g346
sg31
S'2 - Smaa'
p671
sba(irunmatrix
M3Element
p672
(dp673
g3
Nsg4
S'Lite sannsynlig, Mulig'
p674
sg6
S'white'
p675
sg8
(lp676
sg10
S'Possible'
p677
sg12
S'Isolated'
p678
sg14
g15
sg16
I1
sg17
S'High'
p679
sg19
S'Stor tilleggsbelastning'
p680
sg21
Nsg22
S'300'
p681
sg24
S'100'
p682
sg26
S'Isolerte faresoner'
p683
sg28
Nsg29
S'3'
p684
sg31
S'3 - Middels'
p685
sba(irunmatrix
M3Element
p686
(dp687
g3
F2.0
sg4
S'Lite sannsynlig, Mulig'
p688
sg6
g138
sg8
(lp689
I2
aI2
asg10
S'Possible'
p690
sg12
S'Isolated'
p691
sg14
g249
sg16
I2
sg17
S'Low'
p692
sg19
S'Liten tilleggsbelastning'
p693
sg21
I2
sg22
S'300'
p694
sg24
S'200'
p695
sg26
S'Isolerte faresoner'
p696
sg28
g124
(g128
S'\x00\x00\x00\x00\x00\x00\x00\x00'
p697
tp698
Rp699
sg29
g684
sg31
S'3 - Middels'
p700
sba(irunmatrix
M3Element
p701
(dp702
g3
Nsg4
S'Lite sannsynlig, Mulig'
p703
sg6
S'white'
p704
sg8
(lp705
sg10
S'Possible'
p706
sg12
S'Isolated'
p707
sg14
g249
sg16
I2
sg17
S'Nat'
p708
sg19
S'Naturlig utloest'
p709
sg21
Nsg22
S'300'
p710
sg24
S'300'
p711
sg26
S'Isolerte faresoner'
p712
sg28
Nsg29
g684
sg31
S'3 - Middels'
p713
sba(irunmatrix
M3Element
p714
(dp715
g3
Nsg4
S'Sannsynlig, Meget sannsynlig'
p716
sg6
S'gray'
p717
sg8
(lp718
sg10
S'Likely'
p719
sg12
S'Isolated'
p720
sg14
g66
sg16
I0
sg17
S'High'
p721
sg19
S'Stor tilleggsbelastning'
p722
sg21
Nsg22
S'300'
p723
sg24
S'400'
p724
sg26
S'Isolerte faresoner'
p725
sg28
Nsg29
g684
sg31
S'3 - Middels'
p726
sba(irunmatrix
M3Element
p727
(dp728
g3
Nsg4
S'Sannsynlig, Meget sannsynlig'
p729
sg6
S'gray'
p730
sg8
(lp731
sg10
S'Likely'
p732
sg12
S'Isolated'
p733
sg14
g66
sg16
I0
sg17
S'Low'
p734
sg19
S'Liten tilleggsbelastning'
p735
sg21
Nsg22
S'300'
p736
sg24
S'500'
p737
sg26
S'Isolerte faresoner'
p738
sg28
Nsg29
g684
sg31
S'3 - Middels'
p739
sba(irunmatrix
M3Element
p740
(dp741
g3
Nsg4
S'Sannsynlig, Meget sannsynlig'
p742
sg6
S'gray'
p743
sg8
(lp744
sg10
S'Likely'
p745
sg12
S'Isolated'
p746
sg14
g66
sg16
I0
sg17
S'Nat'
p747
sg19
S'Naturlig utloest'
p748
sg21
Nsg22
S'300'
p749
sg24
S'600'
p750
sg26
S'Isolerte faresoner'
p751
sg28
Nsg29
g684
sg31
S'3 - Middels'
p752
sba(irunmatrix
M3Element
p753
(dp754
g3
F2.0
sg4
S'Lite sannsynlig, Mulig'
p755
sg6
g138
sg8
(lp756
I2
aI2
aI2
aI2
aI2
asg10
S'Possible'
p757
sg12
S'Some'
p758
sg14
g249
sg16
I2
sg17
S'High'
p759
sg19
S'Stor tilleggsbelastning'
p760
sg21
I5
sg22
S'300'
p761
sg24
S'700'
p762
sg26
S'Noen bratte heng'
p763
sg28
g124
(g128
S'\x00\x00\x00\x00\x00\x00\x00\x00'
p764
tp765
Rp766
sg29
g684
sg31
S'3 - Middels'
p767
sba(irunmatrix
M3Element
p768
(dp769
g3
F3.0
sg4
S'Lite sannsynlig, Mulig'
p770
sg6
S'#ff9900'
p771
sg8
(lp772
I3
aI3
aI3
aI3
aI3
aI3
aI3
asg10
S'Possible'
p773
sg12
S'Some'
p774
sg14
g508
sg16
I3
sg17
S'Low'
p775
sg19
S'Liten tilleggsbelastning'
p776
sg21
I7
sg22
S'300'
p777
sg24
S'800'
p778
sg26
S'Noen bratte heng'
p779
sg28
g124
(g128
S'\x00\x00\x00\x00\x00\x00\x00\x00'
p780
tp781
Rp782
sg29
g684
sg31
S'3 - Middels'
p783
sba(irunmatrix
M3Element
p784
(dp785
g3
Nsg4
S'Lite sannsynlig, Mulig'
p786
sg6
S'white'
p787
sg8
(lp788
sg10
S'Possible'
p789
sg12
S'Some'
p790
sg14
g508
sg16
I3
sg17
S'Nat'
p791
sg19
S'Naturlig utloest'
p792
sg21
Nsg22
S'300'
p793
sg24
S'900'
p794
sg26
S'Noen bratte heng'
p795
sg28
Nsg29
g684
sg31
S'3 - Middels'
p796
sba(irunmatrix
M3Element
p797
(dp798
g3
Nsg4
S'Sannsynlig, Meget sannsynlig'
p799
sg6
S'gray'
p800
sg8
(lp801
sg10
S'Likely'
p802
sg12
S'Some'
p803
sg14
g66
sg16
I0
sg17
S'High'
p804
sg19
S'Stor tilleggsbelastning'
p805
sg21
Nsg22
S'300'
p806
sg24
S'1000'
p807
sg26
S'Noen bratte heng'
p808
sg28
Nsg29
g684
sg31
S'3 - Middels'
p809
sba(irunmatrix
M3Element
p810
(dp811
g3
Nsg4
S'Sannsynlig, Meget sannsynlig'
p812
sg6
S'gray'
p813
sg8
(lp814
sg10
S'Likely'
p815
sg12
S'Some'
p816
sg14
g66
sg16
I0
sg17
S'Low'
p817
sg19
S'Liten tilleggsbelastning'
p818
sg21
Nsg22
S'300'
p819
sg24
S'1100'
p820
sg26
S'Noen bratte heng'
p821
sg28
Nsg29
g684
sg31
S'3 - Middels'
p822
sba(irunmatrix
M3Element
p823
(dp824
g3
Nsg4
S'Sannsynlig, Meget sannsynlig'
p825
sg6
S'white'
p826
sg8
(lp827
sg10
S'Likely'
p828
sg12
S'Some'
p829
sg14
g574
sg16
I4
sg17
S'Nat'
p830
sg19
S'Naturlig utloest'
p831
sg21
Nsg22
S'300'
p832
sg24
S'1200'
p833
sg26
S'Noen bratte heng'
p834
sg28
Nsg29
g684
sg31
S'3 - Middels'
p835
sba(irunmatrix
M3Element
p836
(dp837
g3
Nsg4
S'Lite sannsynlig, Mulig'
p838
sg6
S'gray'
p839
sg8
(lp840
sg10
S'Possible'
p841
sg12
S'Many'
p842
sg14
g66
sg16
I0
sg17
S'High'
p843
sg19
S'Stor tilleggsbelastning'
p844
sg21
Nsg22
S'300'
p845
sg24
S'1300'
p846
sg26
S'Mange bratte heng'
p847
sg28
Nsg29
g684
sg31
S'3 - Middels'
p848
sba(irunmatrix
M3Element
p849
(dp850
g3
Nsg4
S'Lite sannsynlig, Mulig'
p851
sg6
S'white'
p852
sg8
(lp853
sg10
S'Possible'
p854
sg12
S'Many'
p855
sg14
g574
sg16
I4
sg17
S'Low'
p856
sg19
S'Liten tilleggsbelastning'
p857
sg21
Nsg22
S'300'
p858
sg24
S'1400'
p859
sg26
S'Mange bratte heng'
p860
sg28
Nsg29
g684
sg31
S'3 - Middels'
p861
sba(irunmatrix
M3Element
p862
(dp863
g3
Nsg4
S'Lite sannsynlig, Mulig'
p864
sg6
S'gray'
p865
sg8
(lp866
sg10
S'Possible'
p867
sg12
S'Many'
p868
sg14
g66
sg16
I0
sg17
S'Nat'
p869
sg19
S'Naturlig utloest'
p870
sg21
Nsg22
S'300'
p871
sg24
S'1500'
p872
sg26
S'Mange bratte heng'
p873
sg28
Nsg29
g684
sg31
S'3 - Middels'
p874
sba(irunmatrix
M3Element
p875
(dp876
g3
Nsg4
S'Sannsynlig, Meget sannsynlig'
p877
sg6
S'gray'
p878
sg8
(lp879
sg10
S'Likely'
p880
sg12
S'Many'
p881
sg14
g66
sg16
I0
sg17
S'High'
p882
sg19
S'Stor tilleggsbelastning'
p883
sg21
Nsg22
S'300'
p884
sg24
S'1600'
p885
sg26
S'Mange bratte heng'
p886
sg28
Nsg29
g684
sg31
S'3 - Middels'
p887
sba(irunmatrix
M3Element
p888
(dp889
g3
Nsg4
S'Sannsynlig, Meget sannsynlig'
p890
sg6
S'white'
p891
sg8
(lp892
sg10
S'Likely'
p893
sg12
S'Many'
p894
sg14
g574
sg16
I4
sg17
S'Low'
p895
sg19
S'Liten tilleggsbelastning'
p896
sg21
Nsg22
S'300'
p897
sg24
S'1700'
p898
sg26
S'Mange bratte heng'
p899
sg28
Nsg29
g684
sg31
S'3 - Middels'
p900
sba(irunmatrix
M3Element
p901
(dp902
g3
Nsg4
S'Sannsynlig, Meget sannsynlig'
p903
sg6
S'white'
p904
sg8
(lp905
sg10
S'Likely'
p906
sg12
S'Many'
p907
sg14
g574
sg16
I4
sg17
S'Nat'
p908
sg19
S'Naturlig utloest'
p909
sg21
Nsg22
S'300'
p910
sg24
S'1800'
p911
sg26
S'Mange bratte heng'
p912
sg28
Nsg29
g684
sg31
S'3 - Middels'
p913
sba(irunmatrix
M3Element
p914
(dp915
g3
Nsg4
S'Lite sannsynlig, Mulig'
p916
sg6
S'gray'
p917
sg8
(lp918
sg10
S'Possible'
p919
sg12
S'Most'
p920
sg14
g66
sg16
I0
sg17
S'High'
p921
sg19
S'Stor tilleggsbelastning'
p922
sg21
Nsg22
S'300'
p923
sg24
S'1900'
p924
sg26
S'De fleste bratte heng, Ogsaa i mindre bratt terreng'
p925
sg28
Nsg29
g684
sg31
S'3 - Middels'
p926
sba(irunmatrix
M3Element
p927
(dp928
g3
Nsg4
S'Lite sannsynlig, Mulig'
p929
sg6
S'gray'
p930
sg8
(lp931
sg10
S'Possible'
p932
sg12
S'Most'
p933
sg14
g66
sg16
I0
sg17
S'Low'
p934
sg19
S'Liten tilleggsbelastning'
p935
sg21
Nsg22
S'300'
p936
sg24
S'2000'
p937
sg26
S'De fleste bratte heng, Ogsaa i mindre bratt terreng'
p938
sg28
Nsg29
g684
sg31
S'3 - Middels'
p939
sba(irunmatrix
M3Element
p940
(dp941
g3
Nsg4
S'Lite sannsynlig, Mulig'
p942
sg6
S'gray'
p943
sg8
(lp944
sg10
S'Possible'
p945
sg12
S'Most'
p946
sg14
g66
sg16
I0
sg17
S'Nat'
p947
sg19
S'Naturlig utloest'
p948
sg21
Nsg22
S'300'
p949
sg24
S'2100'
p950
sg26
S'De fleste bratte heng, Ogsaa i mindre bratt terreng'
p951
sg28
Nsg29
g684
sg31
S'3 - Middels'
p952
sba(irunmatrix
M3Element
p953
(dp954
g3
Nsg4
S'Sannsynlig, Meget sannsynlig'
p955
sg6
S'gray'
p956
sg8
(lp957
sg10
S'Likely'
p958
sg12
S'Most'
p959
sg14
g66
sg16
I0
sg17
S'High'
p960
sg19
S'Stor tilleggsbelastning'
p961
sg21
Nsg22
S'300'
p962
sg24
S'2200'
p963
sg26
S'De fleste bratte heng, Ogsaa i mindre bratt terreng'
p964
sg28
Nsg29
g684
sg31
S'3 - Middels'
p965
sba(irunmatrix
M3Element
p966
(dp967
g3
Nsg4
S'Sannsynlig, Meget sannsynlig'
p968
sg6
S'gray'
p969
sg8
(lp970
sg10
S'Likely'
p971
sg12
S'Most'
p972
sg14
g66
sg16
I0
sg17
S'Low'
p973
sg19
S'Liten tilleggsbelastning'
p974
sg21
Nsg22
S'300'
p975
sg24
S'2300'
p976
sg26
S'De fleste bratte heng, Ogsaa i mindre bratt terreng'
p977
sg28
Nsg29
g684
sg31
S'3 - Middels'
p978
sba(irunmatrix
M3Element
p979
(dp980
g3
Nsg4
S'Sannsynlig, Meget sannsynlig'
p981
sg6
S'white'
p982
sg8
(lp983
sg10
S'Likely'
p984
sg12
S'Most'
p985
sg14
g66
sg16
I0
sg17
S'Nat'
p986
sg19
S'Naturlig utloest'
p987
sg21
Nsg22
S'300'
p988
sg24
S'2400'
p989
sg26
S'De fleste bratte heng, Ogsaa i mindre bratt terreng'
p990
sg28
Nsg29
g684
sg31
S'3 - Middels'
p991
sba(irunmatrix
M3Element
p992
(dp993
g3
Nsg4
S'Lite sannsynlig, Mulig'
p994
sg6
S'white'
p995
sg8
(lp996
sg10
S'Possible'
p997
sg12
S'Isolated'
p998
sg14
g249
sg16
I2
sg17
S'High'
p999
sg19
S'Stor tilleggsbelastning'
p1000
sg21
Nsg22
S'400'
p1001
sg24
S'100'
p1002
sg26
S'Isolerte faresoner'
p1003
sg28
Nsg29
S'4'
p1004
sg31
S'4 - Store'
p1005
sba(irunmatrix
M3Element
p1006
(dp1007
g3
Nsg4
S'Lite sannsynlig, Mulig'
p1008
sg6
S'white'
p1009
sg8
(lp1010
sg10
S'Possible'
p1011
sg12
S'Isolated'
p1012
sg14
g508
sg16
I3
sg17
S'Low'
p1013
sg19
S'Liten tilleggsbelastning'
p1014
sg21
Nsg22
S'400'
p1015
sg24
S'200'
p1016
sg26
S'Isolerte faresoner'
p1017
sg28
Nsg29
g1004
sg31
S'4 - Store'
p1018
sba(irunmatrix
M3Element
p1019
(dp1020
g3
Nsg4
S'Lite sannsynlig, Mulig'
p1021
sg6
S'white'
p1022
sg8
(lp1023
sg10
S'Possible'
p1024
sg12
S'Isolated'
p1025
sg14
g508
sg16
I3
sg17
S'Nat'
p1026
sg19
S'Naturlig utloest'
p1027
sg21
Nsg22
S'400'
p1028
sg24
S'300'
p1029
sg26
S'Isolerte faresoner'
p1030
sg28
Nsg29
g1004
sg31
S'4 - Store'
p1031
sba(irunmatrix
M3Element
p1032
(dp1033
g3
Nsg4
S'Sannsynlig, Meget sannsynlig'
p1034
sg6
S'gray'
p1035
sg8
(lp1036
sg10
S'Likely'
p1037
sg12
S'Isolated'
p1038
sg14
g66
sg16
I0
sg17
S'High'
p1039
sg19
S'Stor tilleggsbelastning'
p1040
sg21
Nsg22
S'400'
p1041
sg24
S'400'
p1042
sg26
S'Isolerte faresoner'
p1043
sg28
Nsg29
g1004
sg31
S'4 - Store'
p1044
sba(irunmatrix
M3Element
p1045
(dp1046
g3
Nsg4
S'Sannsynlig, Meget sannsynlig'
p1047
sg6
S'gray'
p1048
sg8
(lp1049
sg10
S'Likely'
p1050
sg12
S'Isolated'
p1051
sg14
g66
sg16
I0
sg17
S'Low'
p1052
sg19
S'Liten tilleggsbelastning'
p1053
sg21
Nsg22
S'400'
p1054
sg24
S'500'
p1055
sg26
S'Isolerte faresoner'
p1056
sg28
Nsg29
g1004
sg31
S'4 - Store'
p1057
sba(irunmatrix
M3Element
p1058
(dp1059
g3
Nsg4
S'Sannsynlig, Meget sannsynlig'
p1060
sg6
S'gray'
p1061
sg8
(lp1062
sg10
S'Likely'
p1063
sg12
S'Isolated'
p1064
sg14
g66
sg16
I0
sg17
S'Nat'
p1065
sg19
S'Naturlig utloest'
p1066
sg21
Nsg22
S'400'
p1067
sg24
S'600'
p1068
sg26
S'Isolerte faresoner'
p1069
sg28
Nsg29
g1004
sg31
S'4 - Store'
p1070
sba(irunmatrix
M3Element
p1071
(dp1072
g3
Nsg4
S'Lite sannsynlig, Mulig'
p1073
sg6
S'white'
p1074
sg8
(lp1075
sg10
S'Possible'
p1076
sg12
S'Some'
p1077
sg14
g508
sg16
I3
sg17
S'High'
p1078
sg19
S'Stor tilleggsbelastning'
p1079
sg21
Nsg22
S'400'
p1080
sg24
S'700'
p1081
sg26
S'Noen bratte heng'
p1082
sg28
Nsg29
g1004
sg31
S'4 - Store'
p1083
sba(irunmatrix
M3Element
p1084
(dp1085
g3
Nsg4
S'Lite sannsynlig, Mulig'
p1086
sg6
S'white'
p1087
sg8
(lp1088
sg10
S'Possible'
p1089
sg12
S'Some'
p1090
sg14
g574
sg16
I4
sg17
S'Low'
p1091
sg19
S'Liten tilleggsbelastning'
p1092
sg21
Nsg22
S'400'
p1093
sg24
S'800'
p1094
sg26
S'Noen bratte heng'
p1095
sg28
Nsg29
g1004
sg31
S'4 - Store'
p1096
sba(irunmatrix
M3Element
p1097
(dp1098
g3
Nsg4
S'Lite sannsynlig, Mulig'
p1099
sg6
S'white'
p1100
sg8
(lp1101
sg10
S'Possible'
p1102
sg12
S'Some'
p1103
sg14
g574
sg16
I4
sg17
S'Nat'
p1104
sg19
S'Naturlig utloest'
p1105
sg21
Nsg22
S'400'
p1106
sg24
S'900'
p1107
sg26
S'Noen bratte heng'
p1108
sg28
Nsg29
g1004
sg31
S'4 - Store'
p1109
sba(irunmatrix
M3Element
p1110
(dp1111
g3
Nsg4
S'Sannsynlig, Meget sannsynlig'
p1112
sg6
S'gray'
p1113
sg8
(lp1114
sg10
S'Likely'
p1115
sg12
S'Some'
p1116
sg14
g66
sg16
I0
sg17
S'High'
p1117
sg19
S'Stor tilleggsbelastning'
p1118
sg21
Nsg22
S'400'
p1119
sg24
S'1000'
p1120
sg26
S'Noen bratte heng'
p1121
sg28
Nsg29
g1004
sg31
S'4 - Store'
p1122
sba(irunmatrix
M3Element
p1123
(dp1124
g3
Nsg4
S'Sannsynlig, Meget sannsynlig'
p1125
sg6
S'gray'
p1126
sg8
(lp1127
sg10
S'Likely'
p1128
sg12
S'Some'
p1129
sg14
g66
sg16
I0
sg17
S'Low'
p1130
sg19
S'Liten tilleggsbelastning'
p1131
sg21
Nsg22
S'400'
p1132
sg24
S'1100'
p1133
sg26
S'Noen bratte heng'
p1134
sg28
Nsg29
g1004
sg31
S'4 - Store'
p1135
sba(irunmatrix
M3Element
p1136
(dp1137
g3
Nsg4
S'Sannsynlig, Meget sannsynlig'
p1138
sg6
S'white'
p1139
sg8
(lp1140
sg10
S'Likely'
p1141
sg12
S'Some'
p1142
sg14
g574
sg16
I4
sg17
S'Nat'
p1143
sg19
S'Naturlig utloest'
p1144
sg21
Nsg22
S'400'
p1145
sg24
S'1200'
p1146
sg26
S'Noen bratte heng'
p1147
sg28
Nsg29
g1004
sg31
S'4 - Store'
p1148
sba(irunmatrix
M3Element
p1149
(dp1150
g3
Nsg4
S'Lite sannsynlig, Mulig'
p1151
sg6
S'gray'
p1152
sg8
(lp1153
sg10
S'Possible'
p1154
sg12
S'Many'
p1155
sg14
g66
sg16
I0
sg17
S'High'
p1156
sg19
S'Stor tilleggsbelastning'
p1157
sg21
Nsg22
S'400'
p1158
sg24
S'1300'
p1159
sg26
S'Mange bratte heng'
p1160
sg28
Nsg29
g1004
sg31
S'4 - Store'
p1161
sba(irunmatrix
M3Element
p1162
(dp1163
g3
Nsg4
S'Lite sannsynlig, Mulig'
p1164
sg6
S'white'
p1165
sg8
(lp1166
sg10
S'Possible'
p1167
sg12
S'Many'
p1168
sg14
g66
sg16
I0
sg17
S'Low'
p1169
sg19
S'Liten tilleggsbelastning'
p1170
sg21
Nsg22
S'400'
p1171
sg24
S'1400'
p1172
sg26
S'Mange bratte heng'
p1173
sg28
Nsg29
g1004
sg31
S'4 - Store'
p1174
sba(irunmatrix
M3Element
p1175
(dp1176
g3
Nsg4
S'Lite sannsynlig, Mulig'
p1177
sg6
S'gray'
p1178
sg8
(lp1179
sg10
S'Possible'
p1180
sg12
S'Many'
p1181
sg14
g66
sg16
I0
sg17
S'Nat'
p1182
sg19
S'Naturlig utloest'
p1183
sg21
Nsg22
S'400'
p1184
sg24
S'1500'
p1185
sg26
S'Mange bratte heng'
p1186
sg28
Nsg29
g1004
sg31
S'4 - Store'
p1187
sba(irunmatrix
M3Element
p1188
(dp1189
g3
Nsg4
S'Sannsynlig, Meget sannsynlig'
p1190
sg6
S'gray'
p1191
sg8
(lp1192
sg10
S'Likely'
p1193
sg12
S'Many'
p1194
sg14
g66
sg16
I0
sg17
S'High'
p1195
sg19
S'Stor tilleggsbelastning'
p1196
sg21
Nsg22
S'400'
p1197
sg24
S'1600'
p1198
sg26
S'Mange bratte heng'
p1199
sg28
Nsg29
g1004
sg31
S'4 - Store'
p1200
sba(irunmatrix
M3Element
p1201
(dp1202
g3
Nsg4
S'Sannsynlig, Meget sannsynlig'
p1203
sg6
S'white'
p1204
sg8
(lp1205
sg10
S'Likely'
p1206
sg12
S'Many'
p1207
sg14
g66
sg16
I0
sg17
S'Low'
p1208
sg19
S'Liten tilleggsbelastning'
p1209
sg21
Nsg22
S'400'
p1210
sg24
S'1700'
p1211
sg26
S'Mange bratte heng'
p1212
sg28
Nsg29
g1004
sg31
S'4 - Store'
p1213
sba(irunmatrix
M3Element
p1214
(dp1215
g3
Nsg4
S'Sannsynlig, Meget sannsynlig'
p1216
sg6
S'white'
p1217
sg8
(lp1218
sg10
S'Likely'
p1219
sg12
S'Many'
p1220
sg14
S'k'
p1221
sg16
I5
sg17
S'Nat'
p1222
sg19
S'Naturlig utloest'
p1223
sg21
Nsg22
S'400'
p1224
sg24
S'1800'
p1225
sg26
S'Mange bratte heng'
p1226
sg28
Nsg29
g1004
sg31
S'4 - Store'
p1227
sba(irunmatrix
M3Element
p1228
(dp1229
g3
Nsg4
S'Lite sannsynlig, Mulig'
p1230
sg6
S'gray'
p1231
sg8
(lp1232
sg10
S'Possible'
p1233
sg12
S'Most'
p1234
sg14
g66
sg16
I0
sg17
S'High'
p1235
sg19
S'Stor tilleggsbelastning'
p1236
sg21
Nsg22
S'400'
p1237
sg24
S'1900'
p1238
sg26
S'De fleste bratte heng, Ogsaa i mindre bratt terreng'
p1239
sg28
Nsg29
g1004
sg31
S'4 - Store'
p1240
sba(irunmatrix
M3Element
p1241
(dp1242
g3
Nsg4
S'Lite sannsynlig, Mulig'
p1243
sg6
S'gray'
p1244
sg8
(lp1245
sg10
S'Possible'
p1246
sg12
S'Most'
p1247
sg14
g66
sg16
I0
sg17
S'Low'
p1248
sg19
S'Liten tilleggsbelastning'
p1249
sg21
Nsg22
S'400'
p1250
sg24
S'2000'
p1251
sg26
S'De fleste bratte heng, Ogsaa i mindre bratt terreng'
p1252
sg28
Nsg29
g1004
sg31
S'4 - Store'
p1253
sba(irunmatrix
M3Element
p1254
(dp1255
g3
Nsg4
S'Lite sannsynlig, Mulig'
p1256
sg6
S'gray'
p1257
sg8
(lp1258
sg10
S'Possible'
p1259
sg12
S'Most'
p1260
sg14
g66
sg16
I0
sg17
S'Nat'
p1261
sg19
S'Naturlig utloest'
p1262
sg21
Nsg22
S'400'
p1263
sg24
S'2100'
p1264
sg26
S'De fleste bratte heng, Ogsaa i mindre bratt terreng'
p1265
sg28
Nsg29
g1004
sg31
S'4 - Store'
p1266
sba(irunmatrix
M3Element
p1267
(dp1268
g3
Nsg4
S'Sannsynlig, Meget sannsynlig'
p1269
sg6
S'gray'
p1270
sg8
(lp1271
sg10
S'Likely'
p1272
sg12
S'Most'
p1273
sg14
g66
sg16
I0
sg17
S'High'
p1274
sg19
S'Stor tilleggsbelastning'
p1275
sg21
Nsg22
S'400'
p1276
sg24
S'2200'
p1277
sg26
S'De fleste bratte heng, Ogsaa i mindre bratt terreng'
p1278
sg28
Nsg29
g1004
sg31
S'4 - Store'
p1279
sba(irunmatrix
M3Element
p1280
(dp1281
g3
Nsg4
S'Sannsynlig, Meget sannsynlig'
p1282
sg6
S'gray'
p1283
sg8
(lp1284
sg10
S'Likely'
p1285
sg12
S'Most'
p1286
sg14
g66
sg16
I0
sg17
S'Low'
p1287
sg19
S'Liten tilleggsbelastning'
p1288
sg21
Nsg22
S'400'
p1289
sg24
S'2300'
p1290
sg26
S'De fleste bratte heng, Ogsaa i mindre bratt terreng'
p1291
sg28
Nsg29
g1004
sg31
S'4 - Store'
p1292
sba(irunmatrix
M3Element
p1293
(dp1294
g3
Nsg4
S'Sannsynlig, Meget sannsynlig'
p1295
sg6
S'white'
p1296
sg8
(lp1297
sg10
S'Likely'
p1298
sg12
S'Most'
p1299
sg14
g66
sg16
I0
sg17
S'Nat'
p1300
sg19
S'Naturlig utloest'
p1301
sg21
Nsg22
S'400'
p1302
sg24
S'2400'
p1303
sg26
S'De fleste bratte heng, Ogsaa i mindre bratt terreng'
p1304
sg28
Nsg29
g1004
sg31
S'4 - Store'
p1305
sba(irunmatrix
M3Element
p1306
(dp1307
g3
Nsg4
S'Lite sannsynlig, Mulig'
p1308
sg6
S'white'
p1309
sg8
(lp1310
sg10
S'Possible'
p1311
sg12
S'Isolated'
p1312
sg14
g66
sg16
I0
sg17
S'High'
p1313
sg19
S'Stor tilleggsbelastning'
p1314
sg21
Nsg22
S'500'
p1315
sg24
S'100'
p1316
sg26
S'Isolerte faresoner'
p1317
sg28
Nsg29
S'5'
p1318
sg31
S'5 - Svaert store'
p1319
sba(irunmatrix
M3Element
p1320
(dp1321
g3
Nsg4
S'Lite sannsynlig, Mulig'
p1322
sg6
S'white'
p1323
sg8
(lp1324
sg10
S'Possible'
p1325
sg12
S'Isolated'
p1326
sg14
g66
sg16
I0
sg17
S'Low'
p1327
sg19
S'Liten tilleggsbelastning'
p1328
sg21
Nsg22
S'500'
p1329
sg24
S'200'
p1330
sg26
S'Isolerte faresoner'
p1331
sg28
Nsg29
g1318
sg31
S'5 - Svaert store'
p1332
sba(irunmatrix
M3Element
p1333
(dp1334
g3
Nsg4
S'Lite sannsynlig, Mulig'
p1335
sg6
S'white'
p1336
sg8
(lp1337
sg10
S'Possible'
p1338
sg12
S'Isolated'
p1339
sg14
g66
sg16
I0
sg17
S'Nat'
p1340
sg19
S'Naturlig utloest'
p1341
sg21
Nsg22
S'500'
p1342
sg24
S'300'
p1343
sg26
S'Isolerte faresoner'
p1344
sg28
Nsg29
g1318
sg31
S'5 - Svaert store'
p1345
sba(irunmatrix
M3Element
p1346
(dp1347
g3
Nsg4
S'Sannsynlig, Meget sannsynlig'
p1348
sg6
S'gray'
p1349
sg8
(lp1350
sg10
S'Likely'
p1351
sg12
S'Isolated'
p1352
sg14
g66
sg16
I0
sg17
S'High'
p1353
sg19
S'Stor tilleggsbelastning'
p1354
sg21
Nsg22
S'500'
p1355
sg24
S'400'
p1356
sg26
S'Isolerte faresoner'
p1357
sg28
Nsg29
g1318
sg31
S'5 - Svaert store'
p1358
sba(irunmatrix
M3Element
p1359
(dp1360
g3
Nsg4
S'Sannsynlig, Meget sannsynlig'
p1361
sg6
S'gray'
p1362
sg8
(lp1363
sg10
S'Likely'
p1364
sg12
S'Isolated'
p1365
sg14
g66
sg16
I0
sg17
S'Low'
p1366
sg19
S'Liten tilleggsbelastning'
p1367
sg21
Nsg22
S'500'
p1368
sg24
S'500'
p1369
sg26
S'Isolerte faresoner'
p1370
sg28
Nsg29
g1318
sg31
S'5 - Svaert store'
p1371
sba(irunmatrix
M3Element
p1372
(dp1373
g3
Nsg4
S'Sannsynlig, Meget sannsynlig'
p1374
sg6
S'gray'
p1375
sg8
(lp1376
sg10
S'Likely'
p1377
sg12
S'Isolated'
p1378
sg14
g66
sg16
I0
sg17
S'Nat'
p1379
sg19
S'Naturlig utloest'
p1380
sg21
Nsg22
S'500'
p1381
sg24
S'600'
p1382
sg26
S'Isolerte faresoner'
p1383
sg28
Nsg29
g1318
sg31
S'5 - Svaert store'
p1384
sba(irunmatrix
M3Element
p1385
(dp1386
g3
Nsg4
S'Lite sannsynlig, Mulig'
p1387
sg6
S'white'
p1388
sg8
(lp1389
sg10
S'Possible'
p1390
sg12
S'Some'
p1391
sg14
g66
sg16
I0
sg17
S'High'
p1392
sg19
S'Stor tilleggsbelastning'
p1393
sg21
Nsg22
S'500'
p1394
sg24
S'700'
p1395
sg26
S'Noen bratte heng'
p1396
sg28
Nsg29
g1318
sg31
S'5 - Svaert store'
p1397
sba(irunmatrix
M3Element
p1398
(dp1399
g3
Nsg4
S'Lite sannsynlig, Mulig'
p1400
sg6
S'white'
p1401
sg8
(lp1402
sg10
S'Possible'
p1403
sg12
S'Some'
p1404
sg14
g66
sg16
I0
sg17
S'Low'
p1405
sg19
S'Liten tilleggsbelastning'
p1406
sg21
Nsg22
S'500'
p1407
sg24
S'800'
p1408
sg26
S'Noen bratte heng'
p1409
sg28
Nsg29
g1318
sg31
S'5 - Svaert store'
p1410
sba(irunmatrix
M3Element
p1411
(dp1412
g3
Nsg4
S'Lite sannsynlig, Mulig'
p1413
sg6
S'white'
p1414
sg8
(lp1415
sg10
S'Possible'
p1416
sg12
S'Some'
p1417
sg14
g66
sg16
I0
sg17
S'Nat'
p1418
sg19
S'Naturlig utloest'
p1419
sg21
Nsg22
S'500'
p1420
sg24
S'900'
p1421
sg26
S'Noen bratte heng'
p1422
sg28
Nsg29
g1318
sg31
S'5 - Svaert store'
p1423
sba(irunmatrix
M3Element
p1424
(dp1425
g3
Nsg4
S'Sannsynlig, Meget sannsynlig'
p1426
sg6
S'gray'
p1427
sg8
(lp1428
sg10
S'Likely'
p1429
sg12
S'Some'
p1430
sg14
g66
sg16
I0
sg17
S'High'
p1431
sg19
S'Stor tilleggsbelastning'
p1432
sg21
Nsg22
S'500'
p1433
sg24
S'1000'
p1434
sg26
S'Noen bratte heng'
p1435
sg28
Nsg29
g1318
sg31
S'5 - Svaert store'
p1436
sba(irunmatrix
M3Element
p1437
(dp1438
g3
Nsg4
S'Sannsynlig, Meget sannsynlig'
p1439
sg6
S'gray'
p1440
sg8
(lp1441
sg10
S'Likely'
p1442
sg12
S'Some'
p1443
sg14
g66
sg16
I0
sg17
S'Low'
p1444
sg19
S'Liten tilleggsbelastning'
p1445
sg21
Nsg22
S'500'
p1446
sg24
S'1100'
p1447
sg26
S'Noen bratte heng'
p1448
sg28
Nsg29
g1318
sg31
S'5 - Svaert store'
p1449
sba(irunmatrix
M3Element
p1450
(dp1451
g3
Nsg4
S'Sannsynlig, Meget sannsynlig'
p1452
sg6
S'white'
p1453
sg8
(lp1454
sg10
S'Likely'
p1455
sg12
S'Some'
p1456
sg14
g66
sg16
I0
sg17
S'Nat'
p1457
sg19
S'Naturlig utloest'
p1458
sg21
Nsg22
S'500'
p1459
sg24
S'1200'
p1460
sg26
S'Noen bratte heng'
p1461
sg28
Nsg29
g1318
sg31
S'5 - Svaert store'
p1462
sba(irunmatrix
M3Element
p1463
(dp1464
g3
Nsg4
S'Lite sannsynlig, Mulig'
p1465
sg6
S'gray'
p1466
sg8
(lp1467
sg10
S'Possible'
p1468
sg12
S'Many'
p1469
sg14
g66
sg16
I0
sg17
S'High'
p1470
sg19
S'Stor tilleggsbelastning'
p1471
sg21
Nsg22
S'500'
p1472
sg24
S'1300'
p1473
sg26
S'Mange bratte heng'
p1474
sg28
Nsg29
g1318
sg31
S'5 - Svaert store'
p1475
sba(irunmatrix
M3Element
p1476
(dp1477
g3
Nsg4
S'Lite sannsynlig, Mulig'
p1478
sg6
S'white'
p1479
sg8
(lp1480
sg10
S'Possible'
p1481
sg12
S'Many'
p1482
sg14
g66
sg16
I0
sg17
S'Low'
p1483
sg19
S'Liten tilleggsbelastning'
p1484
sg21
Nsg22
S'500'
p1485
sg24
S'1400'
p1486
sg26
S'Mange bratte heng'
p1487
sg28
Nsg29
g1318
sg31
S'5 - Svaert store'
p1488
sba(irunmatrix
M3Element
p1489
(dp1490
g3
Nsg4
S'Lite sannsynlig, Mulig'
p1491
sg6
S'gray'
p1492
sg8
(lp1493
sg10
S'Possible'
p1494
sg12
S'Many'
p1495
sg14
g66
sg16
I0
sg17
S'Nat'
p1496
sg19
S'Naturlig utloest'
p1497
sg21
Nsg22
S'500'
p1498
sg24
S'1500'
p1499
sg26
S'Mange bratte heng'
p1500
sg28
Nsg29
g1318
sg31
S'5 - Svaert store'
p1501
sba(irunmatrix
M3Element
p1502
(dp1503
g3
Nsg4
S'Sannsynlig, Meget sannsynlig'
p1504
sg6
S'gray'
p1505
sg8
(lp1506
sg10
S'Likely'
p1507
sg12
S'Many'
p1508
sg14
g66
sg16
I0
sg17
S'High'
p1509
sg19
S'Stor tilleggsbelastning'
p1510
sg21
Nsg22
S'500'
p1511
sg24
S'1600'
p1512
sg26
S'Mange bratte heng'
p1513
sg28
Nsg29
g1318
sg31
S'5 - Svaert store'
p1514
sba(irunmatrix
M3Element
p1515
(dp1516
g3
Nsg4
S'Sannsynlig, Meget sannsynlig'
p1517
sg6
S'white'
p1518
sg8
(lp1519
sg10
S'Likely'
p1520
sg12
S'Many'
p1521
sg14
g66
sg16
I0
sg17
S'Low'
p1522
sg19
S'Liten tilleggsbelastning'
p1523
sg21
Nsg22
S'500'
p1524
sg24
S'1700'
p1525
sg26
S'Mange bratte heng'
p1526
sg28
Nsg29
g1318
sg31
S'5 - Svaert store'
p1527
sba(irunmatrix
M3Element
p1528
(dp1529
g3
Nsg4
S'Sannsynlig, Meget sannsynlig'
p1530
sg6
S'white'
p1531
sg8
(lp1532
sg10
S'Likely'
p1533
sg12
S'Many'
p1534
sg14
g1221
sg16
I5
sg17
S'Nat'
p1535
sg19
S'Naturlig utloest'
p1536
sg21
Nsg22
S'500'
p1537
sg24
S'1800'
p1538
sg26
S'Mange bratte heng'
p1539
sg28
Nsg29
g1318
sg31
S'5 - Svaert store'
p1540
sba(irunmatrix
M3Element
p1541
(dp1542
g3
Nsg4
S'Lite sannsynlig, Mulig'
p1543
sg6
S'gray'
p1544
sg8
(lp1545
sg10
S'Possible'
p1546
sg12
S'Most'
p1547
sg14
g66
sg16
I0
sg17
S'High'
p1548
sg19
S'Stor tilleggsbelastning'
p1549
sg21
Nsg22
S'500'
p1550
sg24
S'1900'
p1551
sg26
S'De fleste bratte heng, Ogsaa i mindre bratt terreng'
p1552
sg28
Nsg29
g1318
sg31
S'5 - Svaert store'
p1553
sba(irunmatrix
M3Element
p1554
(dp1555
g3
Nsg4
S'Lite sannsynlig, Mulig'
p1556
sg6
S'gray'
p1557
sg8
(lp1558
sg10
S'Possible'
p1559
sg12
S'Most'
p1560
sg14
g66
sg16
I0
sg17
S'Low'
p1561
sg19
S'Liten tilleggsbelastning'
p1562
sg21
Nsg22
S'500'
p1563
sg24
S'2000'
p1564
sg26
S'De fleste bratte heng, Ogsaa i mindre bratt terreng'
p1565
sg28
Nsg29
g1318
sg31
S'5 - Svaert store'
p1566
sba(irunmatrix
M3Element
p1567
(dp1568
g3
Nsg4
S'Lite sannsynlig, Mulig'
p1569
sg6
S'gray'
p1570
sg8
(lp1571
sg10
S'Possible'
p1572
sg12
S'Most'
p1573
sg14
g66
sg16
I0
sg17
S'Nat'
p1574
sg19
S'Naturlig utloest'
p1575
sg21
Nsg22
S'500'
p1576
sg24
S'2100'
p1577
sg26
S'De fleste bratte heng, Ogsaa i mindre bratt terreng'
p1578
sg28
Nsg29
g1318
sg31
S'5 - Svaert store'
p1579
sba(irunmatrix
M3Element
p1580
(dp1581
g3
Nsg4
S'Sannsynlig, Meget sannsynlig'
p1582
sg6
S'gray'
p1583
sg8
(lp1584
sg10
S'Likely'
p1585
sg12
S'Most'
p1586
sg14
g66
sg16
I0
sg17
S'High'
p1587
sg19
S'Stor tilleggsbelastning'
p1588
sg21
Nsg22
S'500'
p1589
sg24
S'2200'
p1590
sg26
S'De fleste bratte heng, Ogsaa i mindre bratt terreng'
p1591
sg28
Nsg29
g1318
sg31
S'5 - Svaert store'
p1592
sba(irunmatrix
M3Element
p1593
(dp1594
g3
Nsg4
S'Sannsynlig, Meget sannsynlig'
p1595
sg6
S'gray'
p1596
sg8
(lp1597
sg10
S'Likely'
p1598
sg12
S'Most'
p1599
sg14
g66
sg16
I0
sg17
S'Low'
p1600
sg19
S'Liten tilleggsbelastning'
p1601
sg21
Nsg22
S'500'
p1602
sg24
S'2300'
p1603
sg26
S'De fleste bratte heng, Ogsaa i mindre bratt terreng'
p1604
sg28
Nsg29
g1318
sg31
S'5 - Svaert store'
p1605
sba(irunmatrix
M3Element
p1606
(dp1607
g3
Nsg4
S'Sannsynlig, Meget sannsynlig'
p1608
sg6
S'white'
p1609
sg8
(lp1610
sg10
S'Likely'
p1611
sg12
S'Most'
p1612
sg14
g66
sg16
I0
sg17
S'Nat'
p1613
sg19
S'Naturlig utloest'
p1614
sg21
Nsg22
S'500'
p1615
sg24
S'2400'
p1616
sg26
S'De fleste bratte heng, Ogsaa i mindre bratt terreng'
p1617
sg28
Nsg29
g1318
sg31
S'5 - Svaert store'
p1618
sba.