(dp0
S'trigger'
p1
(dp2
S'keys'
p3
(lp4
S'Stor tilleggsbelastning'
p5
aS'Liten tilleggsbelastning'
p6
aS'Naturlig utloest'
p7
asS'colors'
p8
(lp9
S'0.7'
p10
asS'values'
p11
(lp12
S'Liten tilleggsbelastning'
p13
aS'Liten tilleggsbelastning'
p14
aS'Liten tilleggsbelastning'
p15
aS'Liten tilleggsbelastning'
p16
aS'Liten tilleggsbelastning'
p17
aS'Liten tilleggsbelastning'
p18
aS'Liten tilleggsbelastning'
p19
aS'Liten tilleggsbelastning'
p20
aS'Stor tilleggsbelastning'
p21
aS'Stor tilleggsbelastning'
p22
aS'Stor tilleggsbelastning'
p23
aS'Stor tilleggsbelastning'
p24
aS'Stor tilleggsbelastning'
p25
aS'Stor tilleggsbelastning'
p26
aS'Stor tilleggsbelastning'
p27
aS'Stor tilleggsbelastning'
p28
aS'Stor tilleggsbelastning'
p29
aS'Stor tilleggsbelastning'
p30
aS'Stor tilleggsbelastning'
p31
aS'Stor tilleggsbelastning'
p32
aS'Liten tilleggsbelastning'
p33
aS'Liten tilleggsbelastning'
p34
aS'Naturlig utloest'
p35
aS'Liten tilleggsbelastning'
p36
aS'Stor tilleggsbelastning'
p37
aS'Liten tilleggsbelastning'
p38
aS'Liten tilleggsbelastning'
p39
aS'Liten tilleggsbelastning'
p40
aS'Stor tilleggsbelastning'
p41
aS'Naturlig utloest'
p42
aS'Naturlig utloest'
p43
aS'Naturlig utloest'
p44
aS'Naturlig utloest'
p45
aS'Liten tilleggsbelastning'
p46
aS'Naturlig utloest'
p47
aS'Naturlig utloest'
p48
aS'Naturlig utloest'
p49
aS'Naturlig utloest'
p50
aS'Naturlig utloest'
p51
aS'Naturlig utloest'
p52
aS'Naturlig utloest'
p53
aS'Naturlig utloest'
p54
aS'Naturlig utloest'
p55
aS'Naturlig utloest'
p56
aS'Naturlig utloest'
p57
aS'Naturlig utloest'
p58
aS'Naturlig utloest'
p59
aS'Naturlig utloest'
p60
aS'Naturlig utloest'
p61
aS'Naturlig utloest'
p62
aS'Naturlig utloest'
p63
aS'Naturlig utloest'
p64
aS'Naturlig utloest'
p65
assS'distribution'
p66
(dp67
g3
(lp68
S'Isolerte faresoner'
p69
aS'Noen bratte heng'
p70
aS'Mange bratte heng'
p71
aS'De fleste bratte heng'
p72
aS'Ogsaa i mindre bratt terreng'
p73
asg8
(lp74
g10
asg11
(lp75
S'Noen bratte heng'
p76
aS'Noen bratte heng'
p77
aS'Noen bratte heng'
p78
aS'Noen bratte heng'
p79
aS'Noen bratte heng'
p80
aS'Noen bratte heng'
p81
aS'Noen bratte heng'
p82
aS'Noen bratte heng'
p83
aS'Noen bratte heng'
p84
aS'Noen bratte heng'
p85
aS'Noen bratte heng'
p86
aS'Noen bratte heng'
p87
aS'Noen bratte heng'
p88
aS'Noen bratte heng'
p89
aS'Noen bratte heng'
p90
aS'Noen bratte heng'
p91
aS'Noen bratte heng'
p92
aS'Noen bratte heng'
p93
aS'Noen bratte heng'
p94
aS'Noen bratte heng'
p95
aS'Noen bratte heng'
p96
aS'Noen bratte heng'
p97
aS'Isolerte faresoner'
p98
aS'Noen bratte heng'
p99
aS'Isolerte faresoner'
p100
aS'Noen bratte heng'
p101
aS'Noen bratte heng'
p102
aS'Isolerte faresoner'
p103
aS'Noen bratte heng'
p104
aS'Noen bratte heng'
p105
aS'Noen bratte heng'
p106
aS'Noen bratte heng'
p107
aS'Noen bratte heng'
p108
aS'Noen bratte heng'
p109
aS'Noen bratte heng'
p110
aS'Noen bratte heng'
p111
aS'Noen bratte heng'
p112
aS'Noen bratte heng'
p113
aS'Noen bratte heng'
p114
aS'Noen bratte heng'
p115
aS'Noen bratte heng'
p116
aS'Mange bratte heng'
p117
aS'Mange bratte heng'
p118
aS'Noen bratte heng'
p119
aS'Mange bratte heng'
p120
aS'Mange bratte heng'
p121
aS'Mange bratte heng'
p122
aS'Noen bratte heng'
p123
aS'Noen bratte heng'
p124
aS'Isolerte faresoner'
p125
aS'Isolerte faresoner'
p126
aS'Noen bratte heng'
p127
aS'Isolerte faresoner'
p128
assS'size'
p129
(dp130
g3
(lp131
S'1 - Harmloest'
p132
aS'2 - Smaa'
p133
aS'3 - Middels'
p134
aS'4 - Store'
p135
aS'5 - Svaert store'
p136
aS'Ukjent'
p137
asg8
(lp138
g10
asg11
(lp139
S'2 - Smaa'
p140
aS'2 - Smaa'
p141
aS'2 - Smaa'
p142
aS'3 - Middels'
p143
aS'2 - Smaa'
p144
aS'3 - Middels'
p145
aS'3 - Middels'
p146
aS'2 - Smaa'
p147
aS'3 - Middels'
p148
aS'3 - Middels'
p149
aS'3 - Middels'
p150
aS'2 - Smaa'
p151
aS'3 - Middels'
p152
aS'3 - Middels'
p153
aS'2 - Smaa'
p154
aS'2 - Smaa'
p155
aS'3 - Middels'
p156
aS'3 - Middels'
p157
aS'2 - Smaa'
p158
aS'2 - Smaa'
p159
aS'3 - Middels'
p160
aS'3 - Middels'
p161
aS'3 - Middels'
p162
aS'3 - Middels'
p163
aS'2 - Smaa'
p164
aS'3 - Middels'
p165
aS'3 - Middels'
p166
aS'2 - Smaa'
p167
aS'3 - Middels'
p168
aS'2 - Smaa'
p169
aS'2 - Smaa'
p170
aS'2 - Smaa'
p171
aS'2 - Smaa'
p172
aS'2 - Smaa'
p173
aS'2 - Smaa'
p174
aS'2 - Smaa'
p175
aS'2 - Smaa'
p176
aS'2 - Smaa'
p177
aS'2 - Smaa'
p178
aS'2 - Smaa'
p179
aS'2 - Smaa'
p180
aS'1 - Harmloest'
p181
aS'1 - Harmloest'
p182
aS'1 - Harmloest'
p183
aS'1 - Harmloest'
p184
aS'1 - Harmloest'
p185
aS'1 - Harmloest'
p186
aS'2 - Smaa'
p187
aS'2 - Smaa'
p188
aS'2 - Smaa'
p189
aS'2 - Smaa'
p190
aS'1 - Harmloest'
p191
aS'2 - Smaa'
p192
assS'probability'
p193
(dp194
g3
(lp195
S'Lite sannsynlig'
p196
aS'Mulig'
p197
aS'Sannsynlig'
p198
aS'Meget sannsynlig'
p199
asg8
(lp200
g10
asg11
(lp201
S'Mulig'
p202
aS'Mulig'
p203
aS'Mulig'
p204
aS'Mulig'
p205
aS'Mulig'
p206
aS'Mulig'
p207
aS'Mulig'
p208
aS'Mulig'
p209
aS'Mulig'
p210
aS'Mulig'
p211
aS'Mulig'
p212
aS'Mulig'
p213
aS'Mulig'
p214
aS'Mulig'
p215
aS'Mulig'
p216
aS'Mulig'
p217
aS'Mulig'
p218
aS'Mulig'
p219
aS'Mulig'
p220
aS'Mulig'
p221
aS'Mulig'
p222
aS'Mulig'
p223
aS'Mulig'
p224
aS'Mulig'
p225
aS'Mulig'
p226
aS'Mulig'
p227
aS'Mulig'
p228
aS'Mulig'
p229
aS'Mulig'
p230
aS'Mulig'
p231
aS'Mulig'
p232
aS'Mulig'
p233
aS'Mulig'
p234
aS'Mulig'
p235
aS'Mulig'
p236
aS'Mulig'
p237
aS'Mulig'
p238
aS'Mulig'
p239
aS'Mulig'
p240
aS'Mulig'
p241
aS'Mulig'
p242
aS'Mulig'
p243
aS'Sannsynlig'
p244
aS'Mulig'
p245
aS'Sannsynlig'
p246
aS'Sannsynlig'
p247
aS'Sannsynlig'
p248
aS'Mulig'
p249
aS'Mulig'
p250
aS'Mulig'
p251
aS'Mulig'
p252
aS'Mulig'
p253
aS'Mulig'
p254
assS'level'
p255
(dp256
g3
(lp257
I1
aI2
aI3
aI4
aI5
asg8
(lp258
S'#ccff66'
p259
aS'#ffff00'
p260
aS'#ff9900'
p261
aS'#ff0000'
p262
aS'k'
p263
asg11
(lp264
I2
aI2
aI2
aI3
aI2
aI3
aI3
aI2
aI2
aI2
aI2
aI2
aI2
aI2
aI2
aI2
aI2
aI2
aI2
aI2
aI3
aI3
aI3
aI3
aI2
aI3
aI3
aI2
aI2
aI2
aI2
aI2
aI2
aI2
aI2
aI2
aI2
aI2
aI2
aI2
aI2
aI2
aI2
aI1
aI2
aI2
aI2
aI2
aI2
aI1
aI1
aI1
aI1
ass.