(lp0
(irunmatrix
M3Element
p1
(dp2
S'danger_level_average'
p3
NsS'probability'
p4
S'Lite sannsynlig, Mulig'
p5
sS'colour'
p6
S'white'
p7
sS'danger_level_list'
p8
(lp9
sS'label_probalility'
p10
S'Possible'
p11
sS'label_distribution'
p12
S'Isolated'
p13
sS'recomended_colour'
p14
S'#ccff66'
p15
sS'recomended_danger_level'
p16
I1
sS'label_trigger'
p17
S'High'
p18
sS'trigger'
p19
S'Stor tilleggsbelastning'
p20
sS'occurrences'
p21
NsS'y'
p22
S'100'
p23
sS'x'
p24
S'100'
p25
sS'distribution'
p26
S'Isolerte faresoner'
p27
sS'danger_level_standard_dev'
p28
NsS'label_size'
p29
S'1'
p30
sS'avalanche_size'
p31
S'1 - Harmloest'
p32
sba(irunmatrix
M3Element
p33
(dp34
g3
Nsg4
S'Lite sannsynlig, Mulig'
p35
sg6
S'white'
p36
sg8
(lp37
sg10
S'Possible'
p38
sg12
S'Isolated'
p39
sg14
g15
sg16
I1
sg17
S'Low'
p40
sg19
S'Liten tilleggsbelastning'
p41
sg21
Nsg22
S'100'
p42
sg24
S'200'
p43
sg26
S'Isolerte faresoner'
p44
sg28
Nsg29
g30
sg31
S'1 - Harmloest'
p45
sba(irunmatrix
M3Element
p46
(dp47
g3
Nsg4
S'Lite sannsynlig, Mulig'
p48
sg6
S'white'
p49
sg8
(lp50
sg10
S'Possible'
p51
sg12
S'Isolated'
p52
sg14
g15
sg16
I1
sg17
S'Nat'
p53
sg19
S'Naturlig utloest'
p54
sg21
Nsg22
S'100'
p55
sg24
S'300'
p56
sg26
S'Isolerte faresoner'
p57
sg28
Nsg29
g30
sg31
S'1 - Harmloest'
p58
sba(irunmatrix
M3Element
p59
(dp60
g3
Nsg4
S'Sannsynlig, Meget sannsynlig'
p61
sg6
S'gray'
p62
sg8
(lp63
sg10
S'Likely'
p64
sg12
S'Isolated'
p65
sg14
S'gray'
p66
sg16
I0
sg17
S'High'
p67
sg19
S'Stor tilleggsbelastning'
p68
sg21
Nsg22
S'100'
p69
sg24
S'400'
p70
sg26
S'Isolerte faresoner'
p71
sg28
Nsg29
g30
sg31
S'1 - Harmloest'
p72
sba(irunmatrix
M3Element
p73
(dp74
g3
Nsg4
S'Sannsynlig, Meget sannsynlig'
p75
sg6
S'gray'
p76
sg8
(lp77
sg10
S'Likely'
p78
sg12
S'Isolated'
p79
sg14
g66
sg16
I0
sg17
S'Low'
p80
sg19
S'Liten tilleggsbelastning'
p81
sg21
Nsg22
S'100'
p82
sg24
S'500'
p83
sg26
S'Isolerte faresoner'
p84
sg28
Nsg29
g30
sg31
S'1 - Harmloest'
p85
sba(irunmatrix
M3Element
p86
(dp87
g3
Nsg4
S'Sannsynlig, Meget sannsynlig'
p88
sg6
S'gray'
p89
sg8
(lp90
sg10
S'Likely'
p91
sg12
S'Isolated'
p92
sg14
g66
sg16
I0
sg17
S'Nat'
p93
sg19
S'Naturlig utloest'
p94
sg21
Nsg22
S'100'
p95
sg24
S'600'
p96
sg26
S'Isolerte faresoner'
p97
sg28
Nsg29
g30
sg31
S'1 - Harmloest'
p98
sba(irunmatrix
M3Element
p99
(dp100
g3
Nsg4
S'Lite sannsynlig, Mulig'
p101
sg6
S'white'
p102
sg8
(lp103
sg10
S'Possible'
p104
sg12
S'Some'
p105
sg14
g15
sg16
I1
sg17
S'High'
p106
sg19
S'Stor tilleggsbelastning'
p107
sg21
Nsg22
S'100'
p108
sg24
S'700'
p109
sg26
S'Noen bratte heng'
p110
sg28
Nsg29
g30
sg31
S'1 - Harmloest'
p111
sba(irunmatrix
M3Element
p112
(dp113
g3
Nsg4
S'Lite sannsynlig, Mulig'
p114
sg6
S'white'
p115
sg8
(lp116
sg10
S'Possible'
p117
sg12
S'Some'
p118
sg14
g15
sg16
I1
sg17
S'Low'
p119
sg19
S'Liten tilleggsbelastning'
p120
sg21
Nsg22
S'100'
p121
sg24
S'800'
p122
sg26
S'Noen bratte heng'
p123
sg28
Nsg29
g30
sg31
S'1 - Harmloest'
p124
sba(irunmatrix
M3Element
p125
(dp126
g3
Nsg4
S'Lite sannsynlig, Mulig'
p127
sg6
S'white'
p128
sg8
(lp129
sg10
S'Possible'
p130
sg12
S'Some'
p131
sg14
g15
sg16
I1
sg17
S'Nat'
p132
sg19
S'Naturlig utloest'
p133
sg21
Nsg22
S'100'
p134
sg24
S'900'
p135
sg26
S'Noen bratte heng'
p136
sg28
Nsg29
g30
sg31
S'1 - Harmloest'
p137
sba(irunmatrix
M3Element
p138
(dp139
g3
Nsg4
S'Sannsynlig, Meget sannsynlig'
p140
sg6
S'gray'
p141
sg8
(lp142
sg10
S'Likely'
p143
sg12
S'Some'
p144
sg14
g66
sg16
I0
sg17
S'High'
p145
sg19
S'Stor tilleggsbelastning'
p146
sg21
Nsg22
S'100'
p147
sg24
S'1000'
p148
sg26
S'Noen bratte heng'
p149
sg28
Nsg29
g30
sg31
S'1 - Harmloest'
p150
sba(irunmatrix
M3Element
p151
(dp152
g3
Nsg4
S'Sannsynlig, Meget sannsynlig'
p153
sg6
S'gray'
p154
sg8
(lp155
sg10
S'Likely'
p156
sg12
S'Some'
p157
sg14
g66
sg16
I0
sg17
S'Low'
p158
sg19
S'Liten tilleggsbelastning'
p159
sg21
Nsg22
S'100'
p160
sg24
S'1100'
p161
sg26
S'Noen bratte heng'
p162
sg28
Nsg29
g30
sg31
S'1 - Harmloest'
p163
sba(irunmatrix
M3Element
p164
(dp165
g3
Nsg4
S'Sannsynlig, Meget sannsynlig'
p166
sg6
S'white'
p167
sg8
(lp168
sg10
S'Likely'
p169
sg12
S'Some'
p170
sg14
g15
sg16
I1
sg17
S'Nat'
p171
sg19
S'Naturlig utloest'
p172
sg21
Nsg22
S'100'
p173
sg24
S'1200'
p174
sg26
S'Noen bratte heng'
p175
sg28
Nsg29
g30
sg31
S'1 - Harmloest'
p176
sba(irunmatrix
M3Element
p177
(dp178
g3
Nsg4
S'Lite sannsynlig, Mulig'
p179
sg6
S'gray'
p180
sg8
(lp181
sg10
S'Possible'
p182
sg12
S'Many'
p183
sg14
g66
sg16
I0
sg17
S'High'
p184
sg19
S'Stor tilleggsbelastning'
p185
sg21
Nsg22
S'100'
p186
sg24
S'1300'
p187
sg26
S'Mange bratte heng'
p188
sg28
Nsg29
g30
sg31
S'1 - Harmloest'
p189
sba(irunmatrix
M3Element
p190
(dp191
g3
Nsg4
S'Lite sannsynlig, Mulig'
p192
sg6
S'white'
p193
sg8
(lp194
sg10
S'Possible'
p195
sg12
S'Many'
p196
sg14
g15
sg16
I1
sg17
S'Low'
p197
sg19
S'Liten tilleggsbelastning'
p198
sg21
Nsg22
S'100'
p199
sg24
S'1400'
p200
sg26
S'Mange bratte heng'
p201
sg28
Nsg29
g30
sg31
S'1 - Harmloest'
p202
sba(irunmatrix
M3Element
p203
(dp204
g3
Nsg4
S'Lite sannsynlig, Mulig'
p205
sg6
S'gray'
p206
sg8
(lp207
sg10
S'Possible'
p208
sg12
S'Many'
p209
sg14
g66
sg16
I0
sg17
S'Nat'
p210
sg19
S'Naturlig utloest'
p211
sg21
Nsg22
S'100'
p212
sg24
S'1500'
p213
sg26
S'Mange bratte heng'
p214
sg28
Nsg29
g30
sg31
S'1 - Harmloest'
p215
sba(irunmatrix
M3Element
p216
(dp217
g3
Nsg4
S'Sannsynlig, Meget sannsynlig'
p218
sg6
S'gray'
p219
sg8
(lp220
sg10
S'Likely'
p221
sg12
S'Many'
p222
sg14
g66
sg16
I0
sg17
S'High'
p223
sg19
S'Stor tilleggsbelastning'
p224
sg21
Nsg22
S'100'
p225
sg24
S'1600'
p226
sg26
S'Mange bratte heng'
p227
sg28
Nsg29
g30
sg31
S'1 - Harmloest'
p228
sba(irunmatrix
M3Element
p229
(dp230
g3
Nsg4
S'Sannsynlig, Meget sannsynlig'
p231
sg6
S'white'
p232
sg8
(lp233
sg10
S'Likely'
p234
sg12
S'Many'
p235
sg14
S'#ffff00'
p236
sg16
I2
sg17
S'Low'
p237
sg19
S'Liten tilleggsbelastning'
p238
sg21
Nsg22
S'100'
p239
sg24
S'1700'
p240
sg26
S'Mange bratte heng'
p241
sg28
Nsg29
g30
sg31
S'1 - Harmloest'
p242
sba(irunmatrix
M3Element
p243
(dp244
g3
Nsg4
S'Sannsynlig, Meget sannsynlig'
p245
sg6
S'white'
p246
sg8
(lp247
sg10
S'Likely'
p248
sg12
S'Many'
p249
sg14
g236
sg16
I2
sg17
S'Nat'
p250
sg19
S'Naturlig utloest'
p251
sg21
Nsg22
S'100'
p252
sg24
S'1800'
p253
sg26
S'Mange bratte heng'
p254
sg28
Nsg29
g30
sg31
S'1 - Harmloest'
p255
sba(irunmatrix
M3Element
p256
(dp257
g3
Nsg4
S'Lite sannsynlig, Mulig'
p258
sg6
S'gray'
p259
sg8
(lp260
sg10
S'Possible'
p261
sg12
S'Most'
p262
sg14
g66
sg16
I0
sg17
S'High'
p263
sg19
S'Stor tilleggsbelastning'
p264
sg21
Nsg22
S'100'
p265
sg24
S'1900'
p266
sg26
S'De fleste bratte heng, Ogsaa i mindre bratt terreng'
p267
sg28
Nsg29
g30
sg31
S'1 - Harmloest'
p268
sba(irunmatrix
M3Element
p269
(dp270
g3
Nsg4
S'Lite sannsynlig, Mulig'
p271
sg6
S'gray'
p272
sg8
(lp273
sg10
S'Possible'
p274
sg12
S'Most'
p275
sg14
g66
sg16
I0
sg17
S'Low'
p276
sg19
S'Liten tilleggsbelastning'
p277
sg21
Nsg22
S'100'
p278
sg24
S'2000'
p279
sg26
S'De fleste bratte heng, Ogsaa i mindre bratt terreng'
p280
sg28
Nsg29
g30
sg31
S'1 - Harmloest'
p281
sba(irunmatrix
M3Element
p282
(dp283
g3
Nsg4
S'Lite sannsynlig, Mulig'
p284
sg6
S'gray'
p285
sg8
(lp286
sg10
S'Possible'
p287
sg12
S'Most'
p288
sg14
g66
sg16
I0
sg17
S'Nat'
p289
sg19
S'Naturlig utloest'
p290
sg21
Nsg22
S'100'
p291
sg24
S'2100'
p292
sg26
S'De fleste bratte heng, Ogsaa i mindre bratt terreng'
p293
sg28
Nsg29
g30
sg31
S'1 - Harmloest'
p294
sba(irunmatrix
M3Element
p295
(dp296
g3
Nsg4
S'Sannsynlig, Meget sannsynlig'
p297
sg6
S'gray'
p298
sg8
(lp299
sg10
S'Likely'
p300
sg12
S'Most'
p301
sg14
g66
sg16
I0
sg17
S'High'
p302
sg19
S'Stor tilleggsbelastning'
p303
sg21
Nsg22
S'100'
p304
sg24
S'2200'
p305
sg26
S'De fleste bratte heng, Ogsaa i mindre bratt terreng'
p306
sg28
Nsg29
g30
sg31
S'1 - Harmloest'
p307
sba(irunmatrix
M3Element
p308
(dp309
g3
Nsg4
S'Sannsynlig, Meget sannsynlig'
p310
sg6
S'gray'
p311
sg8
(lp312
sg10
S'Likely'
p313
sg12
S'Most'
p314
sg14
g66
sg16
I0
sg17
S'Low'
p315
sg19
S'Liten tilleggsbelastning'
p316
sg21
Nsg22
S'100'
p317
sg24
S'2300'
p318
sg26
S'De fleste bratte heng, Ogsaa i mindre bratt terreng'
p319
sg28
Nsg29
g30
sg31
S'1 - Harmloest'
p320
sba(irunmatrix
M3Element
p321
(dp322
g3
Nsg4
S'Sannsynlig, Meget sannsynlig'
p323
sg6
S'white'
p324
sg8
(lp325
sg10
S'Likely'
p326
sg12
S'Most'
p327
sg14
g66
sg16
I0
sg17
S'Nat'
p328
sg19
S'Naturlig utloest'
p329
sg21
Nsg22
S'100'
p330
sg24
S'2400'
p331
sg26
S'De fleste bratte heng, Ogsaa i mindre bratt terreng'
p332
sg28
Nsg29
S'2'
p333
sg31
S'1 - Harmloest'
p334
sba(irunmatrix
M3Element
p335
(dp336
g3
F2.0
sg4
S'Lite sannsynlig, Mulig'
p337
sg6
S'#ffff00'
p338
sg8
(lp339
I2
aI2
aI2
asg10
S'Possible'
p340
sg12
S'Isolated'
p341
sg14
g15
sg16
I1
sg17
S'High'
p342
sg19
S'Stor tilleggsbelastning'
p343
sg21
I3
sg22
S'200'
p344
sg24
S'100'
p345
sg26
S'Isolerte faresoner'
p346
sg28
cnumpy.core.multiarray
scalar
p347
(cnumpy
dtype
p348
(S'f8'
p349
I0
I1
tp350
Rp351
(I3
S'<'
p352
NNNI-1
I-1
I0
tp353
bS'\x00\x00\x00\x00\x00\x00\x00\x00'
p354
tp355
Rp356
sg29
g333
sg31
S'2 - Smaa'
p357
sba(irunmatrix
M3Element
p358
(dp359
g3
Nsg4
S'Lite sannsynlig, Mulig'
p360
sg6
S'white'
p361
sg8
(lp362
sg10
S'Possible'
p363
sg12
S'Isolated'
p364
sg14
g15
sg16
I1
sg17
S'Low'
p365
sg19
S'Liten tilleggsbelastning'
p366
sg21
Nsg22
S'200'
p367
sg24
S'200'
p368
sg26
S'Isolerte faresoner'
p369
sg28
Nsg29
g333
sg31
S'2 - Smaa'
p370
sba(irunmatrix
M3Element
p371
(dp372
g3
F1.25
sg4
S'Lite sannsynlig, Mulig'
p373
sg6
S'#ccff66'
p374
sg8
(lp375
I2
aI1
aI1
aI1
asg10
S'Possible'
p376
sg12
S'Isolated'
p377
sg14
g15
sg16
I1
sg17
S'Nat'
p378
sg19
S'Naturlig utloest'
p379
sg21
I4
sg22
S'200'
p380
sg24
S'300'
p381
sg26
S'Isolerte faresoner'
p382
sg28
g347
(g351
S'\xaaLX\xe8z\xb6\xdb?'
p383
tp384
Rp385
sg29
g333
sg31
S'2 - Smaa'
p386
sba(irunmatrix
M3Element
p387
(dp388
g3
Nsg4
S'Sannsynlig, Meget sannsynlig'
p389
sg6
S'gray'
p390
sg8
(lp391
sg10
S'Likely'
p392
sg12
S'Isolated'
p393
sg14
g66
sg16
I0
sg17
S'High'
p394
sg19
S'Stor tilleggsbelastning'
p395
sg21
Nsg22
S'200'
p396
sg24
S'400'
p397
sg26
S'Isolerte faresoner'
p398
sg28
Nsg29
g333
sg31
S'2 - Smaa'
p399
sba(irunmatrix
M3Element
p400
(dp401
g3
Nsg4
S'Sannsynlig, Meget sannsynlig'
p402
sg6
S'gray'
p403
sg8
(lp404
sg10
S'Likely'
p405
sg12
S'Isolated'
p406
sg14
g66
sg16
I0
sg17
S'Low'
p407
sg19
S'Liten tilleggsbelastning'
p408
sg21
Nsg22
S'200'
p409
sg24
S'500'
p410
sg26
S'Isolerte faresoner'
p411
sg28
Nsg29
g333
sg31
S'2 - Smaa'
p412
sba(irunmatrix
M3Element
p413
(dp414
g3
Nsg4
S'Sannsynlig, Meget sannsynlig'
p415
sg6
S'gray'
p416
sg8
(lp417
sg10
S'Likely'
p418
sg12
S'Isolated'
p419
sg14
g66
sg16
I0
sg17
S'Nat'
p420
sg19
S'Naturlig utloest'
p421
sg21
Nsg22
S'200'
p422
sg24
S'600'
p423
sg26
S'Isolerte faresoner'
p424
sg28
Nsg29
g333
sg31
S'2 - Smaa'
p425
sba(irunmatrix
M3Element
p426
(dp427
g3
F2.0
sg4
S'Lite sannsynlig, Mulig'
p428
sg6
g338
sg8
(lp429
I2
aI2
aI2
aI2
aI2
aI2
aI2
aI2
asg10
S'Possible'
p430
sg12
S'Some'
p431
sg14
g236
sg16
I2
sg17
S'High'
p432
sg19
S'Stor tilleggsbelastning'
p433
sg21
I8
sg22
S'200'
p434
sg24
S'700'
p435
sg26
S'Noen bratte heng'
p436
sg28
g347
(g351
S'\x00\x00\x00\x00\x00\x00\x00\x00'
p437
tp438
Rp439
sg29
g333
sg31
S'2 - Smaa'
p440
sba(irunmatrix
M3Element
p441
(dp442
g3
F2.1875
sg4
S'Lite sannsynlig, Mulig'
p443
sg6
g338
sg8
(lp444
I3
aI2
aI2
aI2
aI3
aI2
aI2
aI3
aI2
aI3
aI2
aI3
aI2
aI2
aI2
aI2
aI2
aI3
aI2
aI2
aI2
aI2
aI2
aI2
aI2
aI2
aI2
aI2
aI2
aI2
aI2
aI2
asg10
S'Possible'
p445
sg12
S'Some'
p446
sg14
g236
sg16
I2
sg17
S'Low'
p447
sg19
S'Liten tilleggsbelastning'
p448
sg21
I32
sg22
S'200'
p449
sg24
S'800'
p450
sg26
S'Noen bratte heng'
p451
sg28
g347
(g351
S'\x8a\xd3Z\xc1\xe0\xfa\xd8?'
p452
tp453
Rp454
sg29
g333
sg31
S'2 - Smaa'
p455
sba(irunmatrix
M3Element
p456
(dp457
g3
F2.0
sg4
S'Lite sannsynlig, Mulig'
p458
sg6
g338
sg8
(lp459
I2
aI2
aI2
aI2
aI2
aI2
aI2
aI2
aI2
aI2
aI2
aI2
aI2
aI2
asg10
S'Possible'
p460
sg12
S'Some'
p461
sg14
g236
sg16
I2
sg17
S'Nat'
p462
sg19
S'Naturlig utloest'
p463
sg21
I14
sg22
S'200'
p464
sg24
S'900'
p465
sg26
S'Noen bratte heng'
p466
sg28
g347
(g351
S'\x00\x00\x00\x00\x00\x00\x00\x00'
p467
tp468
Rp469
sg29
g333
sg31
S'2 - Smaa'
p470
sba(irunmatrix
M3Element
p471
(dp472
g3
Nsg4
S'Sannsynlig, Meget sannsynlig'
p473
sg6
S'gray'
p474
sg8
(lp475
sg10
S'Likely'
p476
sg12
S'Some'
p477
sg14
g66
sg16
I0
sg17
S'High'
p478
sg19
S'Stor tilleggsbelastning'
p479
sg21
Nsg22
S'200'
p480
sg24
S'1000'
p481
sg26
S'Noen bratte heng'
p482
sg28
Nsg29
g333
sg31
S'2 - Smaa'
p483
sba(irunmatrix
M3Element
p484
(dp485
g3
F3.0
sg4
S'Sannsynlig, Meget sannsynlig'
p486
sg6
S'#ff9900'
p487
sg8
(lp488
I3
aI3
asg10
S'Likely'
p489
sg12
S'Some'
p490
sg14
g66
sg16
I0
sg17
S'Low'
p491
sg19
S'Liten tilleggsbelastning'
p492
sg21
I2
sg22
S'200'
p493
sg24
S'1100'
p494
sg26
S'Noen bratte heng'
p495
sg28
g347
(g351
S'\x00\x00\x00\x00\x00\x00\x00\x00'
p496
tp497
Rp498
sg29
g333
sg31
S'2 - Smaa'
p499
sba(irunmatrix
M3Element
p500
(dp501
g3
Nsg4
S'Sannsynlig, Meget sannsynlig'
p502
sg6
S'white'
p503
sg8
(lp504
sg10
S'Likely'
p505
sg12
S'Some'
p506
sg14
S'#ff9900'
p507
sg16
I3
sg17
S'Nat'
p508
sg19
S'Naturlig utloest'
p509
sg21
Nsg22
S'200'
p510
sg24
S'1200'
p511
sg26
S'Noen bratte heng'
p512
sg28
Nsg29
g333
sg31
S'2 - Smaa'
p513
sba(irunmatrix
M3Element
p514
(dp515
g3
Nsg4
S'Lite sannsynlig, Mulig'
p516
sg6
S'gray'
p517
sg8
(lp518
sg10
S'Possible'
p519
sg12
S'Many'
p520
sg14
g66
sg16
I0
sg17
S'High'
p521
sg19
S'Stor tilleggsbelastning'
p522
sg21
Nsg22
S'200'
p523
sg24
S'1300'
p524
sg26
S'Mange bratte heng'
p525
sg28
Nsg29
g333
sg31
S'2 - Smaa'
p526
sba(irunmatrix
M3Element
p527
(dp528
g3
Nsg4
S'Lite sannsynlig, Mulig'
p529
sg6
S'white'
p530
sg8
(lp531
sg10
S'Possible'
p532
sg12
S'Many'
p533
sg14
g507
sg16
I3
sg17
S'Low'
p534
sg19
S'Liten tilleggsbelastning'
p535
sg21
Nsg22
S'200'
p536
sg24
S'1400'
p537
sg26
S'Mange bratte heng'
p538
sg28
Nsg29
g333
sg31
S'2 - Smaa'
p539
sba(irunmatrix
M3Element
p540
(dp541
g3
Nsg4
S'Lite sannsynlig, Mulig'
p542
sg6
S'gray'
p543
sg8
(lp544
sg10
S'Possible'
p545
sg12
S'Many'
p546
sg14
g66
sg16
I0
sg17
S'Nat'
p547
sg19
S'Naturlig utloest'
p548
sg21
Nsg22
S'200'
p549
sg24
S'1500'
p550
sg26
S'Mange bratte heng'
p551
sg28
Nsg29
g333
sg31
S'2 - Smaa'
p552
sba(irunmatrix
M3Element
p553
(dp554
g3
Nsg4
S'Sannsynlig, Meget sannsynlig'
p555
sg6
S'gray'
p556
sg8
(lp557
sg10
S'Likely'
p558
sg12
S'Many'
p559
sg14
g66
sg16
I0
sg17
S'High'
p560
sg19
S'Stor tilleggsbelastning'
p561
sg21
Nsg22
S'200'
p562
sg24
S'1600'
p563
sg26
S'Mange bratte heng'
p564
sg28
Nsg29
g333
sg31
S'2 - Smaa'
p565
sba(irunmatrix
M3Element
p566
(dp567
g3
Nsg4
S'Sannsynlig, Meget sannsynlig'
p568
sg6
S'white'
p569
sg8
(lp570
sg10
S'Likely'
p571
sg12
S'Many'
p572
sg14
S'#ff0000'
p573
sg16
I4
sg17
S'Low'
p574
sg19
S'Liten tilleggsbelastning'
p575
sg21
Nsg22
S'200'
p576
sg24
S'1700'
p577
sg26
S'Mange bratte heng'
p578
sg28
Nsg29
g333
sg31
S'2 - Smaa'
p579
sba(irunmatrix
M3Element
p580
(dp581
g3
Nsg4
S'Sannsynlig, Meget sannsynlig'
p582
sg6
S'white'
p583
sg8
(lp584
sg10
S'Likely'
p585
sg12
S'Many'
p586
sg14
g573
sg16
I4
sg17
S'Nat'
p587
sg19
S'Naturlig utloest'
p588
sg21
Nsg22
S'200'
p589
sg24
S'1800'
p590
sg26
S'Mange bratte heng'
p591
sg28
Nsg29
g333
sg31
S'2 - Smaa'
p592
sba(irunmatrix
M3Element
p593
(dp594
g3
Nsg4
S'Lite sannsynlig, Mulig'
p595
sg6
S'gray'
p596
sg8
(lp597
sg10
S'Possible'
p598
sg12
S'Most'
p599
sg14
g66
sg16
I0
sg17
S'High'
p600
sg19
S'Stor tilleggsbelastning'
p601
sg21
Nsg22
S'200'
p602
sg24
S'1900'
p603
sg26
S'De fleste bratte heng, Ogsaa i mindre bratt terreng'
p604
sg28
Nsg29
g333
sg31
S'2 - Smaa'
p605
sba(irunmatrix
M3Element
p606
(dp607
g3
Nsg4
S'Lite sannsynlig, Mulig'
p608
sg6
S'gray'
p609
sg8
(lp610
sg10
S'Possible'
p611
sg12
S'Most'
p612
sg14
g66
sg16
I0
sg17
S'Low'
p613
sg19
S'Liten tilleggsbelastning'
p614
sg21
Nsg22
S'200'
p615
sg24
S'2000'
p616
sg26
S'De fleste bratte heng, Ogsaa i mindre bratt terreng'
p617
sg28
Nsg29
g333
sg31
S'2 - Smaa'
p618
sba(irunmatrix
M3Element
p619
(dp620
g3
Nsg4
S'Lite sannsynlig, Mulig'
p621
sg6
S'gray'
p622
sg8
(lp623
sg10
S'Possible'
p624
sg12
S'Most'
p625
sg14
g66
sg16
I0
sg17
S'Nat'
p626
sg19
S'Naturlig utloest'
p627
sg21
Nsg22
S'200'
p628
sg24
S'2100'
p629
sg26
S'De fleste bratte heng, Ogsaa i mindre bratt terreng'
p630
sg28
Nsg29
g333
sg31
S'2 - Smaa'
p631
sba(irunmatrix
M3Element
p632
(dp633
g3
Nsg4
S'Sannsynlig, Meget sannsynlig'
p634
sg6
S'gray'
p635
sg8
(lp636
sg10
S'Likely'
p637
sg12
S'Most'
p638
sg14
g66
sg16
I0
sg17
S'High'
p639
sg19
S'Stor tilleggsbelastning'
p640
sg21
Nsg22
S'200'
p641
sg24
S'2200'
p642
sg26
S'De fleste bratte heng, Ogsaa i mindre bratt terreng'
p643
sg28
Nsg29
g333
sg31
S'2 - Smaa'
p644
sba(irunmatrix
M3Element
p645
(dp646
g3
Nsg4
S'Sannsynlig, Meget sannsynlig'
p647
sg6
S'gray'
p648
sg8
(lp649
sg10
S'Likely'
p650
sg12
S'Most'
p651
sg14
g66
sg16
I0
sg17
S'Low'
p652
sg19
S'Liten tilleggsbelastning'
p653
sg21
Nsg22
S'200'
p654
sg24
S'2300'
p655
sg26
S'De fleste bratte heng, Ogsaa i mindre bratt terreng'
p656
sg28
Nsg29
g333
sg31
S'2 - Smaa'
p657
sba(irunmatrix
M3Element
p658
(dp659
g3
Nsg4
S'Sannsynlig, Meget sannsynlig'
p660
sg6
S'white'
p661
sg8
(lp662
sg10
S'Likely'
p663
sg12
S'Most'
p664
sg14
g66
sg16
I0
sg17
S'Nat'
p665
sg19
S'Naturlig utloest'
p666
sg21
Nsg22
S'200'
p667
sg24
S'2400'
p668
sg26
S'De fleste bratte heng, Ogsaa i mindre bratt terreng'
p669
sg28
Nsg29
g333
sg31
S'2 - Smaa'
p670
sba(irunmatrix
M3Element
p671
(dp672
g3
F2.0
sg4
S'Lite sannsynlig, Mulig'
p673
sg6
g338
sg8
(lp674
I2
asg10
S'Possible'
p675
sg12
S'Isolated'
p676
sg14
g15
sg16
I1
sg17
S'High'
p677
sg19
S'Stor tilleggsbelastning'
p678
sg21
I1
sg22
S'300'
p679
sg24
S'100'
p680
sg26
S'Isolerte faresoner'
p681
sg28
g347
(g351
S'\x00\x00\x00\x00\x00\x00\x00\x00'
p682
tp683
Rp684
sg29
S'3'
p685
sg31
S'3 - Middels'
p686
sba(irunmatrix
M3Element
p687
(dp688
g3
F2.0
sg4
S'Lite sannsynlig, Mulig'
p689
sg6
g338
sg8
(lp690
I2
aI2
aI2
aI2
aI2
aI2
aI2
aI2
aI2
asg10
S'Possible'
p691
sg12
S'Isolated'
p692
sg14
g236
sg16
I2
sg17
S'Low'
p693
sg19
S'Liten tilleggsbelastning'
p694
sg21
I9
sg22
S'300'
p695
sg24
S'200'
p696
sg26
S'Isolerte faresoner'
p697
sg28
g347
(g351
S'\x00\x00\x00\x00\x00\x00\x00\x00'
p698
tp699
Rp700
sg29
g685
sg31
S'3 - Middels'
p701
sba(irunmatrix
M3Element
p702
(dp703
g3
F3.0
sg4
S'Lite sannsynlig, Mulig'
p704
sg6
g487
sg8
(lp705
I3
aI3
asg10
S'Possible'
p706
sg12
S'Isolated'
p707
sg14
g236
sg16
I2
sg17
S'Nat'
p708
sg19
S'Naturlig utloest'
p709
sg21
I2
sg22
S'300'
p710
sg24
S'300'
p711
sg26
S'Isolerte faresoner'
p712
sg28
g347
(g351
S'\x00\x00\x00\x00\x00\x00\x00\x00'
p713
tp714
Rp715
sg29
g685
sg31
S'3 - Middels'
p716
sba(irunmatrix
M3Element
p717
(dp718
g3
Nsg4
S'Sannsynlig, Meget sannsynlig'
p719
sg6
S'gray'
p720
sg8
(lp721
sg10
S'Likely'
p722
sg12
S'Isolated'
p723
sg14
g66
sg16
I0
sg17
S'High'
p724
sg19
S'Stor tilleggsbelastning'
p725
sg21
Nsg22
S'300'
p726
sg24
S'400'
p727
sg26
S'Isolerte faresoner'
p728
sg28
Nsg29
g685
sg31
S'3 - Middels'
p729
sba(irunmatrix
M3Element
p730
(dp731
g3
Nsg4
S'Sannsynlig, Meget sannsynlig'
p732
sg6
S'gray'
p733
sg8
(lp734
sg10
S'Likely'
p735
sg12
S'Isolated'
p736
sg14
g66
sg16
I0
sg17
S'Low'
p737
sg19
S'Liten tilleggsbelastning'
p738
sg21
Nsg22
S'300'
p739
sg24
S'500'
p740
sg26
S'Isolerte faresoner'
p741
sg28
Nsg29
g685
sg31
S'3 - Middels'
p742
sba(irunmatrix
M3Element
p743
(dp744
g3
Nsg4
S'Sannsynlig, Meget sannsynlig'
p745
sg6
S'gray'
p746
sg8
(lp747
sg10
S'Likely'
p748
sg12
S'Isolated'
p749
sg14
g66
sg16
I0
sg17
S'Nat'
p750
sg19
S'Naturlig utloest'
p751
sg21
Nsg22
S'300'
p752
sg24
S'600'
p753
sg26
S'Isolerte faresoner'
p754
sg28
Nsg29
g685
sg31
S'3 - Middels'
p755
sba(irunmatrix
M3Element
p756
(dp757
g3
F2.0
sg4
S'Lite sannsynlig, Mulig'
p758
sg6
g338
sg8
(lp759
I2
asg10
S'Possible'
p760
sg12
S'Some'
p761
sg14
g236
sg16
I2
sg17
S'High'
p762
sg19
S'Stor tilleggsbelastning'
p763
sg21
I1
sg22
S'300'
p764
sg24
S'700'
p765
sg26
S'Noen bratte heng'
p766
sg28
g347
(g351
S'\x00\x00\x00\x00\x00\x00\x00\x00'
p767
tp768
Rp769
sg29
g685
sg31
S'3 - Middels'
p770
sba(irunmatrix
M3Element
p771
(dp772
g3
F3.0
sg4
S'Lite sannsynlig, Mulig'
p773
sg6
g487
sg8
(lp774
I3
aI3
aI3
aI3
aI3
aI3
aI3
aI3
aI3
aI3
aI3
aI3
aI3
aI3
aI3
aI3
asg10
S'Possible'
p775
sg12
S'Some'
p776
sg14
g507
sg16
I3
sg17
S'Low'
p777
sg19
S'Liten tilleggsbelastning'
p778
sg21
I16
sg22
S'300'
p779
sg24
S'800'
p780
sg26
S'Noen bratte heng'
p781
sg28
g347
(g351
S'\x00\x00\x00\x00\x00\x00\x00\x00'
p782
tp783
Rp784
sg29
g685
sg31
S'3 - Middels'
p785
sba(irunmatrix
M3Element
p786
(dp787
g3
F3.0
sg4
S'Lite sannsynlig, Mulig'
p788
sg6
g487
sg8
(lp789
I3
aI3
asg10
S'Possible'
p790
sg12
S'Some'
p791
sg14
g507
sg16
I3
sg17
S'Nat'
p792
sg19
S'Naturlig utloest'
p793
sg21
I2
sg22
S'300'
p794
sg24
S'900'
p795
sg26
S'Noen bratte heng'
p796
sg28
g347
(g351
S'\x00\x00\x00\x00\x00\x00\x00\x00'
p797
tp798
Rp799
sg29
g685
sg31
S'3 - Middels'
p800
sba(irunmatrix
M3Element
p801
(dp802
g3
Nsg4
S'Sannsynlig, Meget sannsynlig'
p803
sg6
S'gray'
p804
sg8
(lp805
sg10
S'Likely'
p806
sg12
S'Some'
p807
sg14
g66
sg16
I0
sg17
S'High'
p808
sg19
S'Stor tilleggsbelastning'
p809
sg21
Nsg22
S'300'
p810
sg24
S'1000'
p811
sg26
S'Noen bratte heng'
p812
sg28
Nsg29
g685
sg31
S'3 - Middels'
p813
sba(irunmatrix
M3Element
p814
(dp815
g3
Nsg4
S'Sannsynlig, Meget sannsynlig'
p816
sg6
S'gray'
p817
sg8
(lp818
sg10
S'Likely'
p819
sg12
S'Some'
p820
sg14
g66
sg16
I0
sg17
S'Low'
p821
sg19
S'Liten tilleggsbelastning'
p822
sg21
Nsg22
S'300'
p823
sg24
S'1100'
p824
sg26
S'Noen bratte heng'
p825
sg28
Nsg29
g685
sg31
S'3 - Middels'
p826
sba(irunmatrix
M3Element
p827
(dp828
g3
Nsg4
S'Sannsynlig, Meget sannsynlig'
p829
sg6
S'white'
p830
sg8
(lp831
sg10
S'Likely'
p832
sg12
S'Some'
p833
sg14
g573
sg16
I4
sg17
S'Nat'
p834
sg19
S'Naturlig utloest'
p835
sg21
Nsg22
S'300'
p836
sg24
S'1200'
p837
sg26
S'Noen bratte heng'
p838
sg28
Nsg29
g685
sg31
S'3 - Middels'
p839
sba(irunmatrix
M3Element
p840
(dp841
g3
Nsg4
S'Lite sannsynlig, Mulig'
p842
sg6
S'gray'
p843
sg8
(lp844
sg10
S'Possible'
p845
sg12
S'Many'
p846
sg14
g66
sg16
I0
sg17
S'High'
p847
sg19
S'Stor tilleggsbelastning'
p848
sg21
Nsg22
S'300'
p849
sg24
S'1300'
p850
sg26
S'Mange bratte heng'
p851
sg28
Nsg29
g685
sg31
S'3 - Middels'
p852
sba(irunmatrix
M3Element
p853
(dp854
g3
F3.0
sg4
S'Lite sannsynlig, Mulig'
p855
sg6
g487
sg8
(lp856
I3
aI3
aI3
aI3
aI3
aI3
aI3
aI3
aI3
aI3
asg10
S'Possible'
p857
sg12
S'Many'
p858
sg14
g573
sg16
I4
sg17
S'Low'
p859
sg19
S'Liten tilleggsbelastning'
p860
sg21
I10
sg22
S'300'
p861
sg24
S'1400'
p862
sg26
S'Mange bratte heng'
p863
sg28
g347
(g351
S'\x00\x00\x00\x00\x00\x00\x00\x00'
p864
tp865
Rp866
sg29
g685
sg31
S'3 - Middels'
p867
sba(irunmatrix
M3Element
p868
(dp869
g3
Nsg4
S'Lite sannsynlig, Mulig'
p870
sg6
S'gray'
p871
sg8
(lp872
sg10
S'Possible'
p873
sg12
S'Many'
p874
sg14
g66
sg16
I0
sg17
S'Nat'
p875
sg19
S'Naturlig utloest'
p876
sg21
Nsg22
S'300'
p877
sg24
S'1500'
p878
sg26
S'Mange bratte heng'
p879
sg28
Nsg29
g685
sg31
S'3 - Middels'
p880
sba(irunmatrix
M3Element
p881
(dp882
g3
Nsg4
S'Sannsynlig, Meget sannsynlig'
p883
sg6
S'gray'
p884
sg8
(lp885
sg10
S'Likely'
p886
sg12
S'Many'
p887
sg14
g66
sg16
I0
sg17
S'High'
p888
sg19
S'Stor tilleggsbelastning'
p889
sg21
Nsg22
S'300'
p890
sg24
S'1600'
p891
sg26
S'Mange bratte heng'
p892
sg28
Nsg29
g685
sg31
S'3 - Middels'
p893
sba(irunmatrix
M3Element
p894
(dp895
g3
Nsg4
S'Sannsynlig, Meget sannsynlig'
p896
sg6
S'white'
p897
sg8
(lp898
sg10
S'Likely'
p899
sg12
S'Many'
p900
sg14
g573
sg16
I4
sg17
S'Low'
p901
sg19
S'Liten tilleggsbelastning'
p902
sg21
Nsg22
S'300'
p903
sg24
S'1700'
p904
sg26
S'Mange bratte heng'
p905
sg28
Nsg29
g685
sg31
S'3 - Middels'
p906
sba(irunmatrix
M3Element
p907
(dp908
g3
Nsg4
S'Sannsynlig, Meget sannsynlig'
p909
sg6
S'white'
p910
sg8
(lp911
sg10
S'Likely'
p912
sg12
S'Many'
p913
sg14
g573
sg16
I4
sg17
S'Nat'
p914
sg19
S'Naturlig utloest'
p915
sg21
Nsg22
S'300'
p916
sg24
S'1800'
p917
sg26
S'Mange bratte heng'
p918
sg28
Nsg29
g685
sg31
S'3 - Middels'
p919
sba(irunmatrix
M3Element
p920
(dp921
g3
Nsg4
S'Lite sannsynlig, Mulig'
p922
sg6
S'gray'
p923
sg8
(lp924
sg10
S'Possible'
p925
sg12
S'Most'
p926
sg14
g66
sg16
I0
sg17
S'High'
p927
sg19
S'Stor tilleggsbelastning'
p928
sg21
Nsg22
S'300'
p929
sg24
S'1900'
p930
sg26
S'De fleste bratte heng, Ogsaa i mindre bratt terreng'
p931
sg28
Nsg29
g685
sg31
S'3 - Middels'
p932
sba(irunmatrix
M3Element
p933
(dp934
g3
Nsg4
S'Lite sannsynlig, Mulig'
p935
sg6
S'gray'
p936
sg8
(lp937
sg10
S'Possible'
p938
sg12
S'Most'
p939
sg14
g66
sg16
I0
sg17
S'Low'
p940
sg19
S'Liten tilleggsbelastning'
p941
sg21
Nsg22
S'300'
p942
sg24
S'2000'
p943
sg26
S'De fleste bratte heng, Ogsaa i mindre bratt terreng'
p944
sg28
Nsg29
g685
sg31
S'3 - Middels'
p945
sba(irunmatrix
M3Element
p946
(dp947
g3
Nsg4
S'Lite sannsynlig, Mulig'
p948
sg6
S'gray'
p949
sg8
(lp950
sg10
S'Possible'
p951
sg12
S'Most'
p952
sg14
g66
sg16
I0
sg17
S'Nat'
p953
sg19
S'Naturlig utloest'
p954
sg21
Nsg22
S'300'
p955
sg24
S'2100'
p956
sg26
S'De fleste bratte heng, Ogsaa i mindre bratt terreng'
p957
sg28
Nsg29
g685
sg31
S'3 - Middels'
p958
sba(irunmatrix
M3Element
p959
(dp960
g3
Nsg4
S'Sannsynlig, Meget sannsynlig'
p961
sg6
S'gray'
p962
sg8
(lp963
sg10
S'Likely'
p964
sg12
S'Most'
p965
sg14
g66
sg16
I0
sg17
S'High'
p966
sg19
S'Stor tilleggsbelastning'
p967
sg21
Nsg22
S'300'
p968
sg24
S'2200'
p969
sg26
S'De fleste bratte heng, Ogsaa i mindre bratt terreng'
p970
sg28
Nsg29
g685
sg31
S'3 - Middels'
p971
sba(irunmatrix
M3Element
p972
(dp973
g3
Nsg4
S'Sannsynlig, Meget sannsynlig'
p974
sg6
S'gray'
p975
sg8
(lp976
sg10
S'Likely'
p977
sg12
S'Most'
p978
sg14
g66
sg16
I0
sg17
S'Low'
p979
sg19
S'Liten tilleggsbelastning'
p980
sg21
Nsg22
S'300'
p981
sg24
S'2300'
p982
sg26
S'De fleste bratte heng, Ogsaa i mindre bratt terreng'
p983
sg28
Nsg29
g685
sg31
S'3 - Middels'
p984
sba(irunmatrix
M3Element
p985
(dp986
g3
Nsg4
S'Sannsynlig, Meget sannsynlig'
p987
sg6
S'white'
p988
sg8
(lp989
sg10
S'Likely'
p990
sg12
S'Most'
p991
sg14
g66
sg16
I0
sg17
S'Nat'
p992
sg19
S'Naturlig utloest'
p993
sg21
Nsg22
S'300'
p994
sg24
S'2400'
p995
sg26
S'De fleste bratte heng, Ogsaa i mindre bratt terreng'
p996
sg28
Nsg29
g685
sg31
S'3 - Middels'
p997
sba(irunmatrix
M3Element
p998
(dp999
g3
Nsg4
S'Lite sannsynlig, Mulig'
p1000
sg6
S'white'
p1001
sg8
(lp1002
sg10
S'Possible'
p1003
sg12
S'Isolated'
p1004
sg14
g236
sg16
I2
sg17
S'High'
p1005
sg19
S'Stor tilleggsbelastning'
p1006
sg21
Nsg22
S'400'
p1007
sg24
S'100'
p1008
sg26
S'Isolerte faresoner'
p1009
sg28
Nsg29
S'4'
p1010
sg31
S'4 - Store'
p1011
sba(irunmatrix
M3Element
p1012
(dp1013
g3
Nsg4
S'Lite sannsynlig, Mulig'
p1014
sg6
S'white'
p1015
sg8
(lp1016
sg10
S'Possible'
p1017
sg12
S'Isolated'
p1018
sg14
g507
sg16
I3
sg17
S'Low'
p1019
sg19
S'Liten tilleggsbelastning'
p1020
sg21
Nsg22
S'400'
p1021
sg24
S'200'
p1022
sg26
S'Isolerte faresoner'
p1023
sg28
Nsg29
g1010
sg31
S'4 - Store'
p1024
sba(irunmatrix
M3Element
p1025
(dp1026
g3
Nsg4
S'Lite sannsynlig, Mulig'
p1027
sg6
S'white'
p1028
sg8
(lp1029
sg10
S'Possible'
p1030
sg12
S'Isolated'
p1031
sg14
g507
sg16
I3
sg17
S'Nat'
p1032
sg19
S'Naturlig utloest'
p1033
sg21
Nsg22
S'400'
p1034
sg24
S'300'
p1035
sg26
S'Isolerte faresoner'
p1036
sg28
Nsg29
g1010
sg31
S'4 - Store'
p1037
sba(irunmatrix
M3Element
p1038
(dp1039
g3
Nsg4
S'Sannsynlig, Meget sannsynlig'
p1040
sg6
S'gray'
p1041
sg8
(lp1042
sg10
S'Likely'
p1043
sg12
S'Isolated'
p1044
sg14
g66
sg16
I0
sg17
S'High'
p1045
sg19
S'Stor tilleggsbelastning'
p1046
sg21
Nsg22
S'400'
p1047
sg24
S'400'
p1048
sg26
S'Isolerte faresoner'
p1049
sg28
Nsg29
g1010
sg31
S'4 - Store'
p1050
sba(irunmatrix
M3Element
p1051
(dp1052
g3
Nsg4
S'Sannsynlig, Meget sannsynlig'
p1053
sg6
S'gray'
p1054
sg8
(lp1055
sg10
S'Likely'
p1056
sg12
S'Isolated'
p1057
sg14
g66
sg16
I0
sg17
S'Low'
p1058
sg19
S'Liten tilleggsbelastning'
p1059
sg21
Nsg22
S'400'
p1060
sg24
S'500'
p1061
sg26
S'Isolerte faresoner'
p1062
sg28
Nsg29
g1010
sg31
S'4 - Store'
p1063
sba(irunmatrix
M3Element
p1064
(dp1065
g3
Nsg4
S'Sannsynlig, Meget sannsynlig'
p1066
sg6
S'gray'
p1067
sg8
(lp1068
sg10
S'Likely'
p1069
sg12
S'Isolated'
p1070
sg14
g66
sg16
I0
sg17
S'Nat'
p1071
sg19
S'Naturlig utloest'
p1072
sg21
Nsg22
S'400'
p1073
sg24
S'600'
p1074
sg26
S'Isolerte faresoner'
p1075
sg28
Nsg29
g1010
sg31
S'4 - Store'
p1076
sba(irunmatrix
M3Element
p1077
(dp1078
g3
Nsg4
S'Lite sannsynlig, Mulig'
p1079
sg6
S'white'
p1080
sg8
(lp1081
sg10
S'Possible'
p1082
sg12
S'Some'
p1083
sg14
g507
sg16
I3
sg17
S'High'
p1084
sg19
S'Stor tilleggsbelastning'
p1085
sg21
Nsg22
S'400'
p1086
sg24
S'700'
p1087
sg26
S'Noen bratte heng'
p1088
sg28
Nsg29
g1010
sg31
S'4 - Store'
p1089
sba(irunmatrix
M3Element
p1090
(dp1091
g3
Nsg4
S'Lite sannsynlig, Mulig'
p1092
sg6
S'white'
p1093
sg8
(lp1094
sg10
S'Possible'
p1095
sg12
S'Some'
p1096
sg14
g573
sg16
I4
sg17
S'Low'
p1097
sg19
S'Liten tilleggsbelastning'
p1098
sg21
Nsg22
S'400'
p1099
sg24
S'800'
p1100
sg26
S'Noen bratte heng'
p1101
sg28
Nsg29
g1010
sg31
S'4 - Store'
p1102
sba(irunmatrix
M3Element
p1103
(dp1104
g3
Nsg4
S'Lite sannsynlig, Mulig'
p1105
sg6
S'white'
p1106
sg8
(lp1107
sg10
S'Possible'
p1108
sg12
S'Some'
p1109
sg14
g573
sg16
I4
sg17
S'Nat'
p1110
sg19
S'Naturlig utloest'
p1111
sg21
Nsg22
S'400'
p1112
sg24
S'900'
p1113
sg26
S'Noen bratte heng'
p1114
sg28
Nsg29
g1010
sg31
S'4 - Store'
p1115
sba(irunmatrix
M3Element
p1116
(dp1117
g3
Nsg4
S'Sannsynlig, Meget sannsynlig'
p1118
sg6
S'gray'
p1119
sg8
(lp1120
sg10
S'Likely'
p1121
sg12
S'Some'
p1122
sg14
g66
sg16
I0
sg17
S'High'
p1123
sg19
S'Stor tilleggsbelastning'
p1124
sg21
Nsg22
S'400'
p1125
sg24
S'1000'
p1126
sg26
S'Noen bratte heng'
p1127
sg28
Nsg29
g1010
sg31
S'4 - Store'
p1128
sba(irunmatrix
M3Element
p1129
(dp1130
g3
Nsg4
S'Sannsynlig, Meget sannsynlig'
p1131
sg6
S'gray'
p1132
sg8
(lp1133
sg10
S'Likely'
p1134
sg12
S'Some'
p1135
sg14
g66
sg16
I0
sg17
S'Low'
p1136
sg19
S'Liten tilleggsbelastning'
p1137
sg21
Nsg22
S'400'
p1138
sg24
S'1100'
p1139
sg26
S'Noen bratte heng'
p1140
sg28
Nsg29
g1010
sg31
S'4 - Store'
p1141
sba(irunmatrix
M3Element
p1142
(dp1143
g3
Nsg4
S'Sannsynlig, Meget sannsynlig'
p1144
sg6
S'white'
p1145
sg8
(lp1146
sg10
S'Likely'
p1147
sg12
S'Some'
p1148
sg14
g573
sg16
I4
sg17
S'Nat'
p1149
sg19
S'Naturlig utloest'
p1150
sg21
Nsg22
S'400'
p1151
sg24
S'1200'
p1152
sg26
S'Noen bratte heng'
p1153
sg28
Nsg29
g1010
sg31
S'4 - Store'
p1154
sba(irunmatrix
M3Element
p1155
(dp1156
g3
Nsg4
S'Lite sannsynlig, Mulig'
p1157
sg6
S'gray'
p1158
sg8
(lp1159
sg10
S'Possible'
p1160
sg12
S'Many'
p1161
sg14
g66
sg16
I0
sg17
S'High'
p1162
sg19
S'Stor tilleggsbelastning'
p1163
sg21
Nsg22
S'400'
p1164
sg24
S'1300'
p1165
sg26
S'Mange bratte heng'
p1166
sg28
Nsg29
g1010
sg31
S'4 - Store'
p1167
sba(irunmatrix
M3Element
p1168
(dp1169
g3
Nsg4
S'Lite sannsynlig, Mulig'
p1170
sg6
S'white'
p1171
sg8
(lp1172
sg10
S'Possible'
p1173
sg12
S'Many'
p1174
sg14
g66
sg16
I0
sg17
S'Low'
p1175
sg19
S'Liten tilleggsbelastning'
p1176
sg21
Nsg22
S'400'
p1177
sg24
S'1400'
p1178
sg26
S'Mange bratte heng'
p1179
sg28
Nsg29
g1010
sg31
S'4 - Store'
p1180
sba(irunmatrix
M3Element
p1181
(dp1182
g3
Nsg4
S'Lite sannsynlig, Mulig'
p1183
sg6
S'gray'
p1184
sg8
(lp1185
sg10
S'Possible'
p1186
sg12
S'Many'
p1187
sg14
g66
sg16
I0
sg17
S'Nat'
p1188
sg19
S'Naturlig utloest'
p1189
sg21
Nsg22
S'400'
p1190
sg24
S'1500'
p1191
sg26
S'Mange bratte heng'
p1192
sg28
Nsg29
g1010
sg31
S'4 - Store'
p1193
sba(irunmatrix
M3Element
p1194
(dp1195
g3
Nsg4
S'Sannsynlig, Meget sannsynlig'
p1196
sg6
S'gray'
p1197
sg8
(lp1198
sg10
S'Likely'
p1199
sg12
S'Many'
p1200
sg14
g66
sg16
I0
sg17
S'High'
p1201
sg19
S'Stor tilleggsbelastning'
p1202
sg21
Nsg22
S'400'
p1203
sg24
S'1600'
p1204
sg26
S'Mange bratte heng'
p1205
sg28
Nsg29
g1010
sg31
S'4 - Store'
p1206
sba(irunmatrix
M3Element
p1207
(dp1208
g3
Nsg4
S'Sannsynlig, Meget sannsynlig'
p1209
sg6
S'white'
p1210
sg8
(lp1211
sg10
S'Likely'
p1212
sg12
S'Many'
p1213
sg14
g66
sg16
I0
sg17
S'Low'
p1214
sg19
S'Liten tilleggsbelastning'
p1215
sg21
Nsg22
S'400'
p1216
sg24
S'1700'
p1217
sg26
S'Mange bratte heng'
p1218
sg28
Nsg29
g1010
sg31
S'4 - Store'
p1219
sba(irunmatrix
M3Element
p1220
(dp1221
g3
Nsg4
S'Sannsynlig, Meget sannsynlig'
p1222
sg6
S'white'
p1223
sg8
(lp1224
sg10
S'Likely'
p1225
sg12
S'Many'
p1226
sg14
S'k'
p1227
sg16
I5
sg17
S'Nat'
p1228
sg19
S'Naturlig utloest'
p1229
sg21
Nsg22
S'400'
p1230
sg24
S'1800'
p1231
sg26
S'Mange bratte heng'
p1232
sg28
Nsg29
g1010
sg31
S'4 - Store'
p1233
sba(irunmatrix
M3Element
p1234
(dp1235
g3
Nsg4
S'Lite sannsynlig, Mulig'
p1236
sg6
S'gray'
p1237
sg8
(lp1238
sg10
S'Possible'
p1239
sg12
S'Most'
p1240
sg14
g66
sg16
I0
sg17
S'High'
p1241
sg19
S'Stor tilleggsbelastning'
p1242
sg21
Nsg22
S'400'
p1243
sg24
S'1900'
p1244
sg26
S'De fleste bratte heng, Ogsaa i mindre bratt terreng'
p1245
sg28
Nsg29
g1010
sg31
S'4 - Store'
p1246
sba(irunmatrix
M3Element
p1247
(dp1248
g3
Nsg4
S'Lite sannsynlig, Mulig'
p1249
sg6
S'gray'
p1250
sg8
(lp1251
sg10
S'Possible'
p1252
sg12
S'Most'
p1253
sg14
g66
sg16
I0
sg17
S'Low'
p1254
sg19
S'Liten tilleggsbelastning'
p1255
sg21
Nsg22
S'400'
p1256
sg24
S'2000'
p1257
sg26
S'De fleste bratte heng, Ogsaa i mindre bratt terreng'
p1258
sg28
Nsg29
g1010
sg31
S'4 - Store'
p1259
sba(irunmatrix
M3Element
p1260
(dp1261
g3
Nsg4
S'Lite sannsynlig, Mulig'
p1262
sg6
S'gray'
p1263
sg8
(lp1264
sg10
S'Possible'
p1265
sg12
S'Most'
p1266
sg14
g66
sg16
I0
sg17
S'Nat'
p1267
sg19
S'Naturlig utloest'
p1268
sg21
Nsg22
S'400'
p1269
sg24
S'2100'
p1270
sg26
S'De fleste bratte heng, Ogsaa i mindre bratt terreng'
p1271
sg28
Nsg29
g1010
sg31
S'4 - Store'
p1272
sba(irunmatrix
M3Element
p1273
(dp1274
g3
Nsg4
S'Sannsynlig, Meget sannsynlig'
p1275
sg6
S'gray'
p1276
sg8
(lp1277
sg10
S'Likely'
p1278
sg12
S'Most'
p1279
sg14
g66
sg16
I0
sg17
S'High'
p1280
sg19
S'Stor tilleggsbelastning'
p1281
sg21
Nsg22
S'400'
p1282
sg24
S'2200'
p1283
sg26
S'De fleste bratte heng, Ogsaa i mindre bratt terreng'
p1284
sg28
Nsg29
g1010
sg31
S'4 - Store'
p1285
sba(irunmatrix
M3Element
p1286
(dp1287
g3
Nsg4
S'Sannsynlig, Meget sannsynlig'
p1288
sg6
S'gray'
p1289
sg8
(lp1290
sg10
S'Likely'
p1291
sg12
S'Most'
p1292
sg14
g66
sg16
I0
sg17
S'Low'
p1293
sg19
S'Liten tilleggsbelastning'
p1294
sg21
Nsg22
S'400'
p1295
sg24
S'2300'
p1296
sg26
S'De fleste bratte heng, Ogsaa i mindre bratt terreng'
p1297
sg28
Nsg29
g1010
sg31
S'4 - Store'
p1298
sba(irunmatrix
M3Element
p1299
(dp1300
g3
Nsg4
S'Sannsynlig, Meget sannsynlig'
p1301
sg6
S'white'
p1302
sg8
(lp1303
sg10
S'Likely'
p1304
sg12
S'Most'
p1305
sg14
g66
sg16
I0
sg17
S'Nat'
p1306
sg19
S'Naturlig utloest'
p1307
sg21
Nsg22
S'400'
p1308
sg24
S'2400'
p1309
sg26
S'De fleste bratte heng, Ogsaa i mindre bratt terreng'
p1310
sg28
Nsg29
g1010
sg31
S'4 - Store'
p1311
sba(irunmatrix
M3Element
p1312
(dp1313
g3
Nsg4
S'Lite sannsynlig, Mulig'
p1314
sg6
S'white'
p1315
sg8
(lp1316
sg10
S'Possible'
p1317
sg12
S'Isolated'
p1318
sg14
g66
sg16
I0
sg17
S'High'
p1319
sg19
S'Stor tilleggsbelastning'
p1320
sg21
Nsg22
S'500'
p1321
sg24
S'100'
p1322
sg26
S'Isolerte faresoner'
p1323
sg28
Nsg29
S'5'
p1324
sg31
S'5 - Svaert store'
p1325
sba(irunmatrix
M3Element
p1326
(dp1327
g3
Nsg4
S'Lite sannsynlig, Mulig'
p1328
sg6
S'white'
p1329
sg8
(lp1330
sg10
S'Possible'
p1331
sg12
S'Isolated'
p1332
sg14
g66
sg16
I0
sg17
S'Low'
p1333
sg19
S'Liten tilleggsbelastning'
p1334
sg21
Nsg22
S'500'
p1335
sg24
S'200'
p1336
sg26
S'Isolerte faresoner'
p1337
sg28
Nsg29
g1324
sg31
S'5 - Svaert store'
p1338
sba(irunmatrix
M3Element
p1339
(dp1340
g3
Nsg4
S'Lite sannsynlig, Mulig'
p1341
sg6
S'white'
p1342
sg8
(lp1343
sg10
S'Possible'
p1344
sg12
S'Isolated'
p1345
sg14
g66
sg16
I0
sg17
S'Nat'
p1346
sg19
S'Naturlig utloest'
p1347
sg21
Nsg22
S'500'
p1348
sg24
S'300'
p1349
sg26
S'Isolerte faresoner'
p1350
sg28
Nsg29
g1324
sg31
S'5 - Svaert store'
p1351
sba(irunmatrix
M3Element
p1352
(dp1353
g3
Nsg4
S'Sannsynlig, Meget sannsynlig'
p1354
sg6
S'gray'
p1355
sg8
(lp1356
sg10
S'Likely'
p1357
sg12
S'Isolated'
p1358
sg14
g66
sg16
I0
sg17
S'High'
p1359
sg19
S'Stor tilleggsbelastning'
p1360
sg21
Nsg22
S'500'
p1361
sg24
S'400'
p1362
sg26
S'Isolerte faresoner'
p1363
sg28
Nsg29
g1324
sg31
S'5 - Svaert store'
p1364
sba(irunmatrix
M3Element
p1365
(dp1366
g3
Nsg4
S'Sannsynlig, Meget sannsynlig'
p1367
sg6
S'gray'
p1368
sg8
(lp1369
sg10
S'Likely'
p1370
sg12
S'Isolated'
p1371
sg14
g66
sg16
I0
sg17
S'Low'
p1372
sg19
S'Liten tilleggsbelastning'
p1373
sg21
Nsg22
S'500'
p1374
sg24
S'500'
p1375
sg26
S'Isolerte faresoner'
p1376
sg28
Nsg29
g1324
sg31
S'5 - Svaert store'
p1377
sba(irunmatrix
M3Element
p1378
(dp1379
g3
Nsg4
S'Sannsynlig, Meget sannsynlig'
p1380
sg6
S'gray'
p1381
sg8
(lp1382
sg10
S'Likely'
p1383
sg12
S'Isolated'
p1384
sg14
g66
sg16
I0
sg17
S'Nat'
p1385
sg19
S'Naturlig utloest'
p1386
sg21
Nsg22
S'500'
p1387
sg24
S'600'
p1388
sg26
S'Isolerte faresoner'
p1389
sg28
Nsg29
g1324
sg31
S'5 - Svaert store'
p1390
sba(irunmatrix
M3Element
p1391
(dp1392
g3
Nsg4
S'Lite sannsynlig, Mulig'
p1393
sg6
S'white'
p1394
sg8
(lp1395
sg10
S'Possible'
p1396
sg12
S'Some'
p1397
sg14
g66
sg16
I0
sg17
S'High'
p1398
sg19
S'Stor tilleggsbelastning'
p1399
sg21
Nsg22
S'500'
p1400
sg24
S'700'
p1401
sg26
S'Noen bratte heng'
p1402
sg28
Nsg29
g1324
sg31
S'5 - Svaert store'
p1403
sba(irunmatrix
M3Element
p1404
(dp1405
g3
Nsg4
S'Lite sannsynlig, Mulig'
p1406
sg6
S'white'
p1407
sg8
(lp1408
sg10
S'Possible'
p1409
sg12
S'Some'
p1410
sg14
g66
sg16
I0
sg17
S'Low'
p1411
sg19
S'Liten tilleggsbelastning'
p1412
sg21
Nsg22
S'500'
p1413
sg24
S'800'
p1414
sg26
S'Noen bratte heng'
p1415
sg28
Nsg29
g1324
sg31
S'5 - Svaert store'
p1416
sba(irunmatrix
M3Element
p1417
(dp1418
g3
Nsg4
S'Lite sannsynlig, Mulig'
p1419
sg6
S'white'
p1420
sg8
(lp1421
sg10
S'Possible'
p1422
sg12
S'Some'
p1423
sg14
g66
sg16
I0
sg17
S'Nat'
p1424
sg19
S'Naturlig utloest'
p1425
sg21
Nsg22
S'500'
p1426
sg24
S'900'
p1427
sg26
S'Noen bratte heng'
p1428
sg28
Nsg29
g1324
sg31
S'5 - Svaert store'
p1429
sba(irunmatrix
M3Element
p1430
(dp1431
g3
Nsg4
S'Sannsynlig, Meget sannsynlig'
p1432
sg6
S'gray'
p1433
sg8
(lp1434
sg10
S'Likely'
p1435
sg12
S'Some'
p1436
sg14
g66
sg16
I0
sg17
S'High'
p1437
sg19
S'Stor tilleggsbelastning'
p1438
sg21
Nsg22
S'500'
p1439
sg24
S'1000'
p1440
sg26
S'Noen bratte heng'
p1441
sg28
Nsg29
g1324
sg31
S'5 - Svaert store'
p1442
sba(irunmatrix
M3Element
p1443
(dp1444
g3
Nsg4
S'Sannsynlig, Meget sannsynlig'
p1445
sg6
S'gray'
p1446
sg8
(lp1447
sg10
S'Likely'
p1448
sg12
S'Some'
p1449
sg14
g66
sg16
I0
sg17
S'Low'
p1450
sg19
S'Liten tilleggsbelastning'
p1451
sg21
Nsg22
S'500'
p1452
sg24
S'1100'
p1453
sg26
S'Noen bratte heng'
p1454
sg28
Nsg29
g1324
sg31
S'5 - Svaert store'
p1455
sba(irunmatrix
M3Element
p1456
(dp1457
g3
Nsg4
S'Sannsynlig, Meget sannsynlig'
p1458
sg6
S'white'
p1459
sg8
(lp1460
sg10
S'Likely'
p1461
sg12
S'Some'
p1462
sg14
g66
sg16
I0
sg17
S'Nat'
p1463
sg19
S'Naturlig utloest'
p1464
sg21
Nsg22
S'500'
p1465
sg24
S'1200'
p1466
sg26
S'Noen bratte heng'
p1467
sg28
Nsg29
g1324
sg31
S'5 - Svaert store'
p1468
sba(irunmatrix
M3Element
p1469
(dp1470
g3
Nsg4
S'Lite sannsynlig, Mulig'
p1471
sg6
S'gray'
p1472
sg8
(lp1473
sg10
S'Possible'
p1474
sg12
S'Many'
p1475
sg14
g66
sg16
I0
sg17
S'High'
p1476
sg19
S'Stor tilleggsbelastning'
p1477
sg21
Nsg22
S'500'
p1478
sg24
S'1300'
p1479
sg26
S'Mange bratte heng'
p1480
sg28
Nsg29
g1324
sg31
S'5 - Svaert store'
p1481
sba(irunmatrix
M3Element
p1482
(dp1483
g3
Nsg4
S'Lite sannsynlig, Mulig'
p1484
sg6
S'white'
p1485
sg8
(lp1486
sg10
S'Possible'
p1487
sg12
S'Many'
p1488
sg14
g66
sg16
I0
sg17
S'Low'
p1489
sg19
S'Liten tilleggsbelastning'
p1490
sg21
Nsg22
S'500'
p1491
sg24
S'1400'
p1492
sg26
S'Mange bratte heng'
p1493
sg28
Nsg29
g1324
sg31
S'5 - Svaert store'
p1494
sba(irunmatrix
M3Element
p1495
(dp1496
g3
Nsg4
S'Lite sannsynlig, Mulig'
p1497
sg6
S'gray'
p1498
sg8
(lp1499
sg10
S'Possible'
p1500
sg12
S'Many'
p1501
sg14
g66
sg16
I0
sg17
S'Nat'
p1502
sg19
S'Naturlig utloest'
p1503
sg21
Nsg22
S'500'
p1504
sg24
S'1500'
p1505
sg26
S'Mange bratte heng'
p1506
sg28
Nsg29
g1324
sg31
S'5 - Svaert store'
p1507
sba(irunmatrix
M3Element
p1508
(dp1509
g3
Nsg4
S'Sannsynlig, Meget sannsynlig'
p1510
sg6
S'gray'
p1511
sg8
(lp1512
sg10
S'Likely'
p1513
sg12
S'Many'
p1514
sg14
g66
sg16
I0
sg17
S'High'
p1515
sg19
S'Stor tilleggsbelastning'
p1516
sg21
Nsg22
S'500'
p1517
sg24
S'1600'
p1518
sg26
S'Mange bratte heng'
p1519
sg28
Nsg29
g1324
sg31
S'5 - Svaert store'
p1520
sba(irunmatrix
M3Element
p1521
(dp1522
g3
Nsg4
S'Sannsynlig, Meget sannsynlig'
p1523
sg6
S'white'
p1524
sg8
(lp1525
sg10
S'Likely'
p1526
sg12
S'Many'
p1527
sg14
g66
sg16
I0
sg17
S'Low'
p1528
sg19
S'Liten tilleggsbelastning'
p1529
sg21
Nsg22
S'500'
p1530
sg24
S'1700'
p1531
sg26
S'Mange bratte heng'
p1532
sg28
Nsg29
g1324
sg31
S'5 - Svaert store'
p1533
sba(irunmatrix
M3Element
p1534
(dp1535
g3
Nsg4
S'Sannsynlig, Meget sannsynlig'
p1536
sg6
S'white'
p1537
sg8
(lp1538
sg10
S'Likely'
p1539
sg12
S'Many'
p1540
sg14
g1227
sg16
I5
sg17
S'Nat'
p1541
sg19
S'Naturlig utloest'
p1542
sg21
Nsg22
S'500'
p1543
sg24
S'1800'
p1544
sg26
S'Mange bratte heng'
p1545
sg28
Nsg29
g1324
sg31
S'5 - Svaert store'
p1546
sba(irunmatrix
M3Element
p1547
(dp1548
g3
Nsg4
S'Lite sannsynlig, Mulig'
p1549
sg6
S'gray'
p1550
sg8
(lp1551
sg10
S'Possible'
p1552
sg12
S'Most'
p1553
sg14
g66
sg16
I0
sg17
S'High'
p1554
sg19
S'Stor tilleggsbelastning'
p1555
sg21
Nsg22
S'500'
p1556
sg24
S'1900'
p1557
sg26
S'De fleste bratte heng, Ogsaa i mindre bratt terreng'
p1558
sg28
Nsg29
g1324
sg31
S'5 - Svaert store'
p1559
sba(irunmatrix
M3Element
p1560
(dp1561
g3
Nsg4
S'Lite sannsynlig, Mulig'
p1562
sg6
S'gray'
p1563
sg8
(lp1564
sg10
S'Possible'
p1565
sg12
S'Most'
p1566
sg14
g66
sg16
I0
sg17
S'Low'
p1567
sg19
S'Liten tilleggsbelastning'
p1568
sg21
Nsg22
S'500'
p1569
sg24
S'2000'
p1570
sg26
S'De fleste bratte heng, Ogsaa i mindre bratt terreng'
p1571
sg28
Nsg29
g1324
sg31
S'5 - Svaert store'
p1572
sba(irunmatrix
M3Element
p1573
(dp1574
g3
Nsg4
S'Lite sannsynlig, Mulig'
p1575
sg6
S'gray'
p1576
sg8
(lp1577
sg10
S'Possible'
p1578
sg12
S'Most'
p1579
sg14
g66
sg16
I0
sg17
S'Nat'
p1580
sg19
S'Naturlig utloest'
p1581
sg21
Nsg22
S'500'
p1582
sg24
S'2100'
p1583
sg26
S'De fleste bratte heng, Ogsaa i mindre bratt terreng'
p1584
sg28
Nsg29
g1324
sg31
S'5 - Svaert store'
p1585
sba(irunmatrix
M3Element
p1586
(dp1587
g3
Nsg4
S'Sannsynlig, Meget sannsynlig'
p1588
sg6
S'gray'
p1589
sg8
(lp1590
sg10
S'Likely'
p1591
sg12
S'Most'
p1592
sg14
g66
sg16
I0
sg17
S'High'
p1593
sg19
S'Stor tilleggsbelastning'
p1594
sg21
Nsg22
S'500'
p1595
sg24
S'2200'
p1596
sg26
S'De fleste bratte heng, Ogsaa i mindre bratt terreng'
p1597
sg28
Nsg29
g1324
sg31
S'5 - Svaert store'
p1598
sba(irunmatrix
M3Element
p1599
(dp1600
g3
Nsg4
S'Sannsynlig, Meget sannsynlig'
p1601
sg6
S'gray'
p1602
sg8
(lp1603
sg10
S'Likely'
p1604
sg12
S'Most'
p1605
sg14
g66
sg16
I0
sg17
S'Low'
p1606
sg19
S'Liten tilleggsbelastning'
p1607
sg21
Nsg22
S'500'
p1608
sg24
S'2300'
p1609
sg26
S'De fleste bratte heng, Ogsaa i mindre bratt terreng'
p1610
sg28
Nsg29
g1324
sg31
S'5 - Svaert store'
p1611
sba(irunmatrix
M3Element
p1612
(dp1613
g3
Nsg4
S'Sannsynlig, Meget sannsynlig'
p1614
sg6
S'white'
p1615
sg8
(lp1616
sg10
S'Likely'
p1617
sg12
S'Most'
p1618
sg14
g66
sg16
I0
sg17
S'Nat'
p1619
sg19
S'Naturlig utloest'
p1620
sg21
Nsg22
S'500'
p1621
sg24
S'2400'
p1622
sg26
S'De fleste bratte heng, Ogsaa i mindre bratt terreng'
p1623
sg28
Nsg29
g1324
sg31
S'5 - Svaert store'
p1624
sba.