(lp0
(irunmatrix
M3Element
p1
(dp2
S'danger_level_average'
p3
NsS'probability'
p4
S'Lite sannsynlig, Mulig'
p5
sS'colour'
p6
S'white'
p7
sS'danger_level_list'
p8
(lp9
sS'label_probalility'
p10
S'Possible'
p11
sS'label_distribution'
p12
S'Isolated'
p13
sS'recomended_colour'
p14
S'#ccff66'
p15
sS'recomended_danger_level'
p16
I1
sS'label_trigger'
p17
S'High'
p18
sS'trigger'
p19
S'Stor tilleggsbelastning'
p20
sS'occurrences'
p21
NsS'y'
p22
S'100'
p23
sS'x'
p24
S'100'
p25
sS'distribution'
p26
S'Isolerte faresoner'
p27
sS'danger_level_standard_dev'
p28
NsS'label_size'
p29
S'1'
p30
sS'avalanche_size'
p31
S'1 - Harmloest'
p32
sba(irunmatrix
M3Element
p33
(dp34
g3
Nsg4
S'Lite sannsynlig, Mulig'
p35
sg6
S'white'
p36
sg8
(lp37
sg10
S'Possible'
p38
sg12
S'Isolated'
p39
sg14
g15
sg16
I1
sg17
S'Low'
p40
sg19
S'Liten tilleggsbelastning'
p41
sg21
Nsg22
S'100'
p42
sg24
S'200'
p43
sg26
S'Isolerte faresoner'
p44
sg28
Nsg29
g30
sg31
S'1 - Harmloest'
p45
sba(irunmatrix
M3Element
p46
(dp47
g3
Nsg4
S'Lite sannsynlig, Mulig'
p48
sg6
S'white'
p49
sg8
(lp50
sg10
S'Possible'
p51
sg12
S'Isolated'
p52
sg14
g15
sg16
I1
sg17
S'Nat'
p53
sg19
S'Naturlig utloest'
p54
sg21
Nsg22
S'100'
p55
sg24
S'300'
p56
sg26
S'Isolerte faresoner'
p57
sg28
Nsg29
g30
sg31
S'1 - Harmloest'
p58
sba(irunmatrix
M3Element
p59
(dp60
g3
Nsg4
S'Sannsynlig, Meget sannsynlig'
p61
sg6
S'gray'
p62
sg8
(lp63
sg10
S'Likely'
p64
sg12
S'Isolated'
p65
sg14
S'gray'
p66
sg16
I0
sg17
S'High'
p67
sg19
S'Stor tilleggsbelastning'
p68
sg21
Nsg22
S'100'
p69
sg24
S'400'
p70
sg26
S'Isolerte faresoner'
p71
sg28
Nsg29
g30
sg31
S'1 - Harmloest'
p72
sba(irunmatrix
M3Element
p73
(dp74
g3
Nsg4
S'Sannsynlig, Meget sannsynlig'
p75
sg6
S'gray'
p76
sg8
(lp77
sg10
S'Likely'
p78
sg12
S'Isolated'
p79
sg14
g66
sg16
I0
sg17
S'Low'
p80
sg19
S'Liten tilleggsbelastning'
p81
sg21
Nsg22
S'100'
p82
sg24
S'500'
p83
sg26
S'Isolerte faresoner'
p84
sg28
Nsg29
g30
sg31
S'1 - Harmloest'
p85
sba(irunmatrix
M3Element
p86
(dp87
g3
Nsg4
S'Sannsynlig, Meget sannsynlig'
p88
sg6
S'gray'
p89
sg8
(lp90
sg10
S'Likely'
p91
sg12
S'Isolated'
p92
sg14
g66
sg16
I0
sg17
S'Nat'
p93
sg19
S'Naturlig utloest'
p94
sg21
Nsg22
S'100'
p95
sg24
S'600'
p96
sg26
S'Isolerte faresoner'
p97
sg28
Nsg29
g30
sg31
S'1 - Harmloest'
p98
sba(irunmatrix
M3Element
p99
(dp100
g3
Nsg4
S'Lite sannsynlig, Mulig'
p101
sg6
S'white'
p102
sg8
(lp103
sg10
S'Possible'
p104
sg12
S'Some'
p105
sg14
g15
sg16
I1
sg17
S'High'
p106
sg19
S'Stor tilleggsbelastning'
p107
sg21
Nsg22
S'100'
p108
sg24
S'700'
p109
sg26
S'Noen bratte heng'
p110
sg28
Nsg29
g30
sg31
S'1 - Harmloest'
p111
sba(irunmatrix
M3Element
p112
(dp113
g3
F1.5
sg4
S'Lite sannsynlig, Mulig'
p114
sg6
S'#ffff00'
p115
sg8
(lp116
I1
aI1
aI2
aI2
aI2
aI1
asg10
S'Possible'
p117
sg12
S'Some'
p118
sg14
g15
sg16
I1
sg17
S'Low'
p119
sg19
S'Liten tilleggsbelastning'
p120
sg21
I6
sg22
S'100'
p121
sg24
S'800'
p122
sg26
S'Noen bratte heng'
p123
sg28
cnumpy.core.multiarray
scalar
p124
(cnumpy
dtype
p125
(S'f8'
p126
I0
I1
tp127
Rp128
(I3
S'<'
p129
NNNI-1
I-1
I0
tp130
bS'\x00\x00\x00\x00\x00\x00\xe0?'
p131
tp132
Rp133
sg29
g30
sg31
S'1 - Harmloest'
p134
sba(irunmatrix
M3Element
p135
(dp136
g3
F1.0
sg4
S'Lite sannsynlig, Mulig'
p137
sg6
S'#ccff66'
p138
sg8
(lp139
I1
aI1
aI1
aI1
aI1
asg10
S'Possible'
p140
sg12
S'Some'
p141
sg14
g15
sg16
I1
sg17
S'Nat'
p142
sg19
S'Naturlig utloest'
p143
sg21
I5
sg22
S'100'
p144
sg24
S'900'
p145
sg26
S'Noen bratte heng'
p146
sg28
g124
(g128
S'\x00\x00\x00\x00\x00\x00\x00\x00'
p147
tp148
Rp149
sg29
g30
sg31
S'1 - Harmloest'
p150
sba(irunmatrix
M3Element
p151
(dp152
g3
Nsg4
S'Sannsynlig, Meget sannsynlig'
p153
sg6
S'gray'
p154
sg8
(lp155
sg10
S'Likely'
p156
sg12
S'Some'
p157
sg14
g66
sg16
I0
sg17
S'High'
p158
sg19
S'Stor tilleggsbelastning'
p159
sg21
Nsg22
S'100'
p160
sg24
S'1000'
p161
sg26
S'Noen bratte heng'
p162
sg28
Nsg29
g30
sg31
S'1 - Harmloest'
p163
sba(irunmatrix
M3Element
p164
(dp165
g3
Nsg4
S'Sannsynlig, Meget sannsynlig'
p166
sg6
S'gray'
p167
sg8
(lp168
sg10
S'Likely'
p169
sg12
S'Some'
p170
sg14
g66
sg16
I0
sg17
S'Low'
p171
sg19
S'Liten tilleggsbelastning'
p172
sg21
Nsg22
S'100'
p173
sg24
S'1100'
p174
sg26
S'Noen bratte heng'
p175
sg28
Nsg29
g30
sg31
S'1 - Harmloest'
p176
sba(irunmatrix
M3Element
p177
(dp178
g3
F1.0
sg4
S'Sannsynlig, Meget sannsynlig'
p179
sg6
g138
sg8
(lp180
I1
aI1
asg10
S'Likely'
p181
sg12
S'Some'
p182
sg14
g15
sg16
I1
sg17
S'Nat'
p183
sg19
S'Naturlig utloest'
p184
sg21
I2
sg22
S'100'
p185
sg24
S'1200'
p186
sg26
S'Noen bratte heng'
p187
sg28
g124
(g128
S'\x00\x00\x00\x00\x00\x00\x00\x00'
p188
tp189
Rp190
sg29
g30
sg31
S'1 - Harmloest'
p191
sba(irunmatrix
M3Element
p192
(dp193
g3
Nsg4
S'Lite sannsynlig, Mulig'
p194
sg6
S'gray'
p195
sg8
(lp196
sg10
S'Possible'
p197
sg12
S'Many'
p198
sg14
g66
sg16
I0
sg17
S'High'
p199
sg19
S'Stor tilleggsbelastning'
p200
sg21
Nsg22
S'100'
p201
sg24
S'1300'
p202
sg26
S'Mange bratte heng'
p203
sg28
Nsg29
g30
sg31
S'1 - Harmloest'
p204
sba(irunmatrix
M3Element
p205
(dp206
g3
Nsg4
S'Lite sannsynlig, Mulig'
p207
sg6
S'white'
p208
sg8
(lp209
sg10
S'Possible'
p210
sg12
S'Many'
p211
sg14
g15
sg16
I1
sg17
S'Low'
p212
sg19
S'Liten tilleggsbelastning'
p213
sg21
Nsg22
S'100'
p214
sg24
S'1400'
p215
sg26
S'Mange bratte heng'
p216
sg28
Nsg29
g30
sg31
S'1 - Harmloest'
p217
sba(irunmatrix
M3Element
p218
(dp219
g3
Nsg4
S'Lite sannsynlig, Mulig'
p220
sg6
S'gray'
p221
sg8
(lp222
sg10
S'Possible'
p223
sg12
S'Many'
p224
sg14
g66
sg16
I0
sg17
S'Nat'
p225
sg19
S'Naturlig utloest'
p226
sg21
Nsg22
S'100'
p227
sg24
S'1500'
p228
sg26
S'Mange bratte heng'
p229
sg28
Nsg29
g30
sg31
S'1 - Harmloest'
p230
sba(irunmatrix
M3Element
p231
(dp232
g3
Nsg4
S'Sannsynlig, Meget sannsynlig'
p233
sg6
S'gray'
p234
sg8
(lp235
sg10
S'Likely'
p236
sg12
S'Many'
p237
sg14
g66
sg16
I0
sg17
S'High'
p238
sg19
S'Stor tilleggsbelastning'
p239
sg21
Nsg22
S'100'
p240
sg24
S'1600'
p241
sg26
S'Mange bratte heng'
p242
sg28
Nsg29
g30
sg31
S'1 - Harmloest'
p243
sba(irunmatrix
M3Element
p244
(dp245
g3
Nsg4
S'Sannsynlig, Meget sannsynlig'
p246
sg6
S'white'
p247
sg8
(lp248
sg10
S'Likely'
p249
sg12
S'Many'
p250
sg14
S'#ffff00'
p251
sg16
I2
sg17
S'Low'
p252
sg19
S'Liten tilleggsbelastning'
p253
sg21
Nsg22
S'100'
p254
sg24
S'1700'
p255
sg26
S'Mange bratte heng'
p256
sg28
Nsg29
g30
sg31
S'1 - Harmloest'
p257
sba(irunmatrix
M3Element
p258
(dp259
g3
Nsg4
S'Sannsynlig, Meget sannsynlig'
p260
sg6
S'white'
p261
sg8
(lp262
sg10
S'Likely'
p263
sg12
S'Many'
p264
sg14
g251
sg16
I2
sg17
S'Nat'
p265
sg19
S'Naturlig utloest'
p266
sg21
Nsg22
S'100'
p267
sg24
S'1800'
p268
sg26
S'Mange bratte heng'
p269
sg28
Nsg29
g30
sg31
S'1 - Harmloest'
p270
sba(irunmatrix
M3Element
p271
(dp272
g3
Nsg4
S'Lite sannsynlig, Mulig'
p273
sg6
S'gray'
p274
sg8
(lp275
sg10
S'Possible'
p276
sg12
S'Most'
p277
sg14
g66
sg16
I0
sg17
S'High'
p278
sg19
S'Stor tilleggsbelastning'
p279
sg21
Nsg22
S'100'
p280
sg24
S'1900'
p281
sg26
S'De fleste bratte heng, Ogsaa i mindre bratt terreng'
p282
sg28
Nsg29
g30
sg31
S'1 - Harmloest'
p283
sba(irunmatrix
M3Element
p284
(dp285
g3
Nsg4
S'Lite sannsynlig, Mulig'
p286
sg6
S'gray'
p287
sg8
(lp288
sg10
S'Possible'
p289
sg12
S'Most'
p290
sg14
g66
sg16
I0
sg17
S'Low'
p291
sg19
S'Liten tilleggsbelastning'
p292
sg21
Nsg22
S'100'
p293
sg24
S'2000'
p294
sg26
S'De fleste bratte heng, Ogsaa i mindre bratt terreng'
p295
sg28
Nsg29
g30
sg31
S'1 - Harmloest'
p296
sba(irunmatrix
M3Element
p297
(dp298
g3
Nsg4
S'Lite sannsynlig, Mulig'
p299
sg6
S'gray'
p300
sg8
(lp301
sg10
S'Possible'
p302
sg12
S'Most'
p303
sg14
g66
sg16
I0
sg17
S'Nat'
p304
sg19
S'Naturlig utloest'
p305
sg21
Nsg22
S'100'
p306
sg24
S'2100'
p307
sg26
S'De fleste bratte heng, Ogsaa i mindre bratt terreng'
p308
sg28
Nsg29
g30
sg31
S'1 - Harmloest'
p309
sba(irunmatrix
M3Element
p310
(dp311
g3
Nsg4
S'Sannsynlig, Meget sannsynlig'
p312
sg6
S'gray'
p313
sg8
(lp314
sg10
S'Likely'
p315
sg12
S'Most'
p316
sg14
g66
sg16
I0
sg17
S'High'
p317
sg19
S'Stor tilleggsbelastning'
p318
sg21
Nsg22
S'100'
p319
sg24
S'2200'
p320
sg26
S'De fleste bratte heng, Ogsaa i mindre bratt terreng'
p321
sg28
Nsg29
g30
sg31
S'1 - Harmloest'
p322
sba(irunmatrix
M3Element
p323
(dp324
g3
Nsg4
S'Sannsynlig, Meget sannsynlig'
p325
sg6
S'gray'
p326
sg8
(lp327
sg10
S'Likely'
p328
sg12
S'Most'
p329
sg14
g66
sg16
I0
sg17
S'Low'
p330
sg19
S'Liten tilleggsbelastning'
p331
sg21
Nsg22
S'100'
p332
sg24
S'2300'
p333
sg26
S'De fleste bratte heng, Ogsaa i mindre bratt terreng'
p334
sg28
Nsg29
g30
sg31
S'1 - Harmloest'
p335
sba(irunmatrix
M3Element
p336
(dp337
g3
Nsg4
S'Sannsynlig, Meget sannsynlig'
p338
sg6
S'white'
p339
sg8
(lp340
sg10
S'Likely'
p341
sg12
S'Most'
p342
sg14
g66
sg16
I0
sg17
S'Nat'
p343
sg19
S'Naturlig utloest'
p344
sg21
Nsg22
S'100'
p345
sg24
S'2400'
p346
sg26
S'De fleste bratte heng, Ogsaa i mindre bratt terreng'
p347
sg28
Nsg29
S'2'
p348
sg31
S'1 - Harmloest'
p349
sba(irunmatrix
M3Element
p350
(dp351
g3
F1.0
sg4
S'Lite sannsynlig, Mulig'
p352
sg6
g138
sg8
(lp353
I1
asg10
S'Possible'
p354
sg12
S'Isolated'
p355
sg14
g15
sg16
I1
sg17
S'High'
p356
sg19
S'Stor tilleggsbelastning'
p357
sg21
I1
sg22
S'200'
p358
sg24
S'100'
p359
sg26
S'Isolerte faresoner'
p360
sg28
g124
(g128
S'\x00\x00\x00\x00\x00\x00\x00\x00'
p361
tp362
Rp363
sg29
g348
sg31
S'2 - Smaa'
p364
sba(irunmatrix
M3Element
p365
(dp366
g3
F1.4583333333333333
sg4
S'Lite sannsynlig, Mulig'
p367
sg6
g138
sg8
(lp368
I2
aI2
aI2
aI2
aI2
aI2
aI2
aI2
aI2
aI2
aI2
aI1
aI1
aI1
aI1
aI1
aI1
aI1
aI1
aI1
aI1
aI1
aI1
aI1
asg10
S'Possible'
p369
sg12
S'Isolated'
p370
sg14
g15
sg16
I1
sg17
S'Low'
p371
sg19
S'Liten tilleggsbelastning'
p372
sg21
I24
sg22
S'200'
p373
sg24
S'200'
p374
sg26
S'Isolerte faresoner'
p375
sg28
g124
(g128
S'Z\xc3A\x89\x81\xe3\xdf?'
p376
tp377
Rp378
sg29
g348
sg31
S'2 - Smaa'
p379
sba(irunmatrix
M3Element
p380
(dp381
g3
Nsg4
S'Lite sannsynlig, Mulig'
p382
sg6
S'white'
p383
sg8
(lp384
sg10
S'Possible'
p385
sg12
S'Isolated'
p386
sg14
g15
sg16
I1
sg17
S'Nat'
p387
sg19
S'Naturlig utloest'
p388
sg21
Nsg22
S'200'
p389
sg24
S'300'
p390
sg26
S'Isolerte faresoner'
p391
sg28
Nsg29
g348
sg31
S'2 - Smaa'
p392
sba(irunmatrix
M3Element
p393
(dp394
g3
Nsg4
S'Sannsynlig, Meget sannsynlig'
p395
sg6
S'gray'
p396
sg8
(lp397
sg10
S'Likely'
p398
sg12
S'Isolated'
p399
sg14
g66
sg16
I0
sg17
S'High'
p400
sg19
S'Stor tilleggsbelastning'
p401
sg21
Nsg22
S'200'
p402
sg24
S'400'
p403
sg26
S'Isolerte faresoner'
p404
sg28
Nsg29
g348
sg31
S'2 - Smaa'
p405
sba(irunmatrix
M3Element
p406
(dp407
g3
Nsg4
S'Sannsynlig, Meget sannsynlig'
p408
sg6
S'gray'
p409
sg8
(lp410
sg10
S'Likely'
p411
sg12
S'Isolated'
p412
sg14
g66
sg16
I0
sg17
S'Low'
p413
sg19
S'Liten tilleggsbelastning'
p414
sg21
Nsg22
S'200'
p415
sg24
S'500'
p416
sg26
S'Isolerte faresoner'
p417
sg28
Nsg29
g348
sg31
S'2 - Smaa'
p418
sba(irunmatrix
M3Element
p419
(dp420
g3
Nsg4
S'Sannsynlig, Meget sannsynlig'
p421
sg6
S'gray'
p422
sg8
(lp423
sg10
S'Likely'
p424
sg12
S'Isolated'
p425
sg14
g66
sg16
I0
sg17
S'Nat'
p426
sg19
S'Naturlig utloest'
p427
sg21
Nsg22
S'200'
p428
sg24
S'600'
p429
sg26
S'Isolerte faresoner'
p430
sg28
Nsg29
g348
sg31
S'2 - Smaa'
p431
sba(irunmatrix
M3Element
p432
(dp433
g3
F2.0
sg4
S'Lite sannsynlig, Mulig'
p434
sg6
g115
sg8
(lp435
I2
aI2
aI2
aI2
aI2
aI2
aI2
aI2
aI2
aI2
aI2
aI2
aI2
aI2
aI2
aI2
aI2
aI2
aI2
aI2
aI2
aI2
aI2
asg10
S'Possible'
p436
sg12
S'Some'
p437
sg14
g251
sg16
I2
sg17
S'High'
p438
sg19
S'Stor tilleggsbelastning'
p439
sg21
I23
sg22
S'200'
p440
sg24
S'700'
p441
sg26
S'Noen bratte heng'
p442
sg28
g124
(g128
S'\x00\x00\x00\x00\x00\x00\x00\x00'
p443
tp444
Rp445
sg29
g348
sg31
S'2 - Smaa'
p446
sba(irunmatrix
M3Element
p447
(dp448
g3
F2.0
sg4
S'Lite sannsynlig, Mulig'
p449
sg6
g115
sg8
(lp450
I2
aI2
aI2
aI2
aI2
aI2
aI2
aI2
aI2
aI2
aI2
aI2
aI2
aI2
aI2
aI2
aI2
aI2
aI2
aI2
aI2
aI2
aI2
aI2
aI2
aI2
aI2
aI2
aI2
aI2
aI2
aI2
aI2
aI2
aI2
aI2
aI2
aI2
aI2
aI2
aI2
aI2
aI2
aI2
aI2
aI2
aI2
asg10
S'Possible'
p451
sg12
S'Some'
p452
sg14
g251
sg16
I2
sg17
S'Low'
p453
sg19
S'Liten tilleggsbelastning'
p454
sg21
I47
sg22
S'200'
p455
sg24
S'800'
p456
sg26
S'Noen bratte heng'
p457
sg28
g124
(g128
S'\x00\x00\x00\x00\x00\x00\x00\x00'
p458
tp459
Rp460
sg29
g348
sg31
S'2 - Smaa'
p461
sba(irunmatrix
M3Element
p462
(dp463
g3
Nsg4
S'Lite sannsynlig, Mulig'
p464
sg6
S'white'
p465
sg8
(lp466
sg10
S'Possible'
p467
sg12
S'Some'
p468
sg14
g251
sg16
I2
sg17
S'Nat'
p469
sg19
S'Naturlig utloest'
p470
sg21
Nsg22
S'200'
p471
sg24
S'900'
p472
sg26
S'Noen bratte heng'
p473
sg28
Nsg29
g348
sg31
S'2 - Smaa'
p474
sba(irunmatrix
M3Element
p475
(dp476
g3
Nsg4
S'Sannsynlig, Meget sannsynlig'
p477
sg6
S'gray'
p478
sg8
(lp479
sg10
S'Likely'
p480
sg12
S'Some'
p481
sg14
g66
sg16
I0
sg17
S'High'
p482
sg19
S'Stor tilleggsbelastning'
p483
sg21
Nsg22
S'200'
p484
sg24
S'1000'
p485
sg26
S'Noen bratte heng'
p486
sg28
Nsg29
g348
sg31
S'2 - Smaa'
p487
sba(irunmatrix
M3Element
p488
(dp489
g3
Nsg4
S'Sannsynlig, Meget sannsynlig'
p490
sg6
S'gray'
p491
sg8
(lp492
sg10
S'Likely'
p493
sg12
S'Some'
p494
sg14
g66
sg16
I0
sg17
S'Low'
p495
sg19
S'Liten tilleggsbelastning'
p496
sg21
Nsg22
S'200'
p497
sg24
S'1100'
p498
sg26
S'Noen bratte heng'
p499
sg28
Nsg29
g348
sg31
S'2 - Smaa'
p500
sba(irunmatrix
M3Element
p501
(dp502
g3
Nsg4
S'Sannsynlig, Meget sannsynlig'
p503
sg6
S'white'
p504
sg8
(lp505
sg10
S'Likely'
p506
sg12
S'Some'
p507
sg14
S'#ff9900'
p508
sg16
I3
sg17
S'Nat'
p509
sg19
S'Naturlig utloest'
p510
sg21
Nsg22
S'200'
p511
sg24
S'1200'
p512
sg26
S'Noen bratte heng'
p513
sg28
Nsg29
g348
sg31
S'2 - Smaa'
p514
sba(irunmatrix
M3Element
p515
(dp516
g3
Nsg4
S'Lite sannsynlig, Mulig'
p517
sg6
S'gray'
p518
sg8
(lp519
sg10
S'Possible'
p520
sg12
S'Many'
p521
sg14
g66
sg16
I0
sg17
S'High'
p522
sg19
S'Stor tilleggsbelastning'
p523
sg21
Nsg22
S'200'
p524
sg24
S'1300'
p525
sg26
S'Mange bratte heng'
p526
sg28
Nsg29
g348
sg31
S'2 - Smaa'
p527
sba(irunmatrix
M3Element
p528
(dp529
g3
F3.0
sg4
S'Lite sannsynlig, Mulig'
p530
sg6
S'#ff9900'
p531
sg8
(lp532
I3
aI3
aI3
asg10
S'Possible'
p533
sg12
S'Many'
p534
sg14
g508
sg16
I3
sg17
S'Low'
p535
sg19
S'Liten tilleggsbelastning'
p536
sg21
I3
sg22
S'200'
p537
sg24
S'1400'
p538
sg26
S'Mange bratte heng'
p539
sg28
g124
(g128
S'\x00\x00\x00\x00\x00\x00\x00\x00'
p540
tp541
Rp542
sg29
g348
sg31
S'2 - Smaa'
p543
sba(irunmatrix
M3Element
p544
(dp545
g3
Nsg4
S'Lite sannsynlig, Mulig'
p546
sg6
S'gray'
p547
sg8
(lp548
sg10
S'Possible'
p549
sg12
S'Many'
p550
sg14
g66
sg16
I0
sg17
S'Nat'
p551
sg19
S'Naturlig utloest'
p552
sg21
Nsg22
S'200'
p553
sg24
S'1500'
p554
sg26
S'Mange bratte heng'
p555
sg28
Nsg29
g348
sg31
S'2 - Smaa'
p556
sba(irunmatrix
M3Element
p557
(dp558
g3
Nsg4
S'Sannsynlig, Meget sannsynlig'
p559
sg6
S'gray'
p560
sg8
(lp561
sg10
S'Likely'
p562
sg12
S'Many'
p563
sg14
g66
sg16
I0
sg17
S'High'
p564
sg19
S'Stor tilleggsbelastning'
p565
sg21
Nsg22
S'200'
p566
sg24
S'1600'
p567
sg26
S'Mange bratte heng'
p568
sg28
Nsg29
g348
sg31
S'2 - Smaa'
p569
sba(irunmatrix
M3Element
p570
(dp571
g3
Nsg4
S'Sannsynlig, Meget sannsynlig'
p572
sg6
S'white'
p573
sg8
(lp574
sg10
S'Likely'
p575
sg12
S'Many'
p576
sg14
S'#ff0000'
p577
sg16
I4
sg17
S'Low'
p578
sg19
S'Liten tilleggsbelastning'
p579
sg21
Nsg22
S'200'
p580
sg24
S'1700'
p581
sg26
S'Mange bratte heng'
p582
sg28
Nsg29
g348
sg31
S'2 - Smaa'
p583
sba(irunmatrix
M3Element
p584
(dp585
g3
Nsg4
S'Sannsynlig, Meget sannsynlig'
p586
sg6
S'white'
p587
sg8
(lp588
sg10
S'Likely'
p589
sg12
S'Many'
p590
sg14
g577
sg16
I4
sg17
S'Nat'
p591
sg19
S'Naturlig utloest'
p592
sg21
Nsg22
S'200'
p593
sg24
S'1800'
p594
sg26
S'Mange bratte heng'
p595
sg28
Nsg29
g348
sg31
S'2 - Smaa'
p596
sba(irunmatrix
M3Element
p597
(dp598
g3
Nsg4
S'Lite sannsynlig, Mulig'
p599
sg6
S'gray'
p600
sg8
(lp601
sg10
S'Possible'
p602
sg12
S'Most'
p603
sg14
g66
sg16
I0
sg17
S'High'
p604
sg19
S'Stor tilleggsbelastning'
p605
sg21
Nsg22
S'200'
p606
sg24
S'1900'
p607
sg26
S'De fleste bratte heng, Ogsaa i mindre bratt terreng'
p608
sg28
Nsg29
g348
sg31
S'2 - Smaa'
p609
sba(irunmatrix
M3Element
p610
(dp611
g3
Nsg4
S'Lite sannsynlig, Mulig'
p612
sg6
S'gray'
p613
sg8
(lp614
sg10
S'Possible'
p615
sg12
S'Most'
p616
sg14
g66
sg16
I0
sg17
S'Low'
p617
sg19
S'Liten tilleggsbelastning'
p618
sg21
Nsg22
S'200'
p619
sg24
S'2000'
p620
sg26
S'De fleste bratte heng, Ogsaa i mindre bratt terreng'
p621
sg28
Nsg29
g348
sg31
S'2 - Smaa'
p622
sba(irunmatrix
M3Element
p623
(dp624
g3
Nsg4
S'Lite sannsynlig, Mulig'
p625
sg6
S'gray'
p626
sg8
(lp627
sg10
S'Possible'
p628
sg12
S'Most'
p629
sg14
g66
sg16
I0
sg17
S'Nat'
p630
sg19
S'Naturlig utloest'
p631
sg21
Nsg22
S'200'
p632
sg24
S'2100'
p633
sg26
S'De fleste bratte heng, Ogsaa i mindre bratt terreng'
p634
sg28
Nsg29
g348
sg31
S'2 - Smaa'
p635
sba(irunmatrix
M3Element
p636
(dp637
g3
Nsg4
S'Sannsynlig, Meget sannsynlig'
p638
sg6
S'gray'
p639
sg8
(lp640
sg10
S'Likely'
p641
sg12
S'Most'
p642
sg14
g66
sg16
I0
sg17
S'High'
p643
sg19
S'Stor tilleggsbelastning'
p644
sg21
Nsg22
S'200'
p645
sg24
S'2200'
p646
sg26
S'De fleste bratte heng, Ogsaa i mindre bratt terreng'
p647
sg28
Nsg29
g348
sg31
S'2 - Smaa'
p648
sba(irunmatrix
M3Element
p649
(dp650
g3
Nsg4
S'Sannsynlig, Meget sannsynlig'
p651
sg6
S'gray'
p652
sg8
(lp653
sg10
S'Likely'
p654
sg12
S'Most'
p655
sg14
g66
sg16
I0
sg17
S'Low'
p656
sg19
S'Liten tilleggsbelastning'
p657
sg21
Nsg22
S'200'
p658
sg24
S'2300'
p659
sg26
S'De fleste bratte heng, Ogsaa i mindre bratt terreng'
p660
sg28
Nsg29
g348
sg31
S'2 - Smaa'
p661
sba(irunmatrix
M3Element
p662
(dp663
g3
Nsg4
S'Sannsynlig, Meget sannsynlig'
p664
sg6
S'white'
p665
sg8
(lp666
sg10
S'Likely'
p667
sg12
S'Most'
p668
sg14
g66
sg16
I0
sg17
S'Nat'
p669
sg19
S'Naturlig utloest'
p670
sg21
Nsg22
S'200'
p671
sg24
S'2400'
p672
sg26
S'De fleste bratte heng, Ogsaa i mindre bratt terreng'
p673
sg28
Nsg29
g348
sg31
S'2 - Smaa'
p674
sba(irunmatrix
M3Element
p675
(dp676
g3
Nsg4
S'Lite sannsynlig, Mulig'
p677
sg6
S'white'
p678
sg8
(lp679
sg10
S'Possible'
p680
sg12
S'Isolated'
p681
sg14
g15
sg16
I1
sg17
S'High'
p682
sg19
S'Stor tilleggsbelastning'
p683
sg21
Nsg22
S'300'
p684
sg24
S'100'
p685
sg26
S'Isolerte faresoner'
p686
sg28
Nsg29
S'3'
p687
sg31
S'3 - Middels'
p688
sba(irunmatrix
M3Element
p689
(dp690
g3
Nsg4
S'Lite sannsynlig, Mulig'
p691
sg6
S'white'
p692
sg8
(lp693
sg10
S'Possible'
p694
sg12
S'Isolated'
p695
sg14
g251
sg16
I2
sg17
S'Low'
p696
sg19
S'Liten tilleggsbelastning'
p697
sg21
Nsg22
S'300'
p698
sg24
S'200'
p699
sg26
S'Isolerte faresoner'
p700
sg28
Nsg29
g687
sg31
S'3 - Middels'
p701
sba(irunmatrix
M3Element
p702
(dp703
g3
Nsg4
S'Lite sannsynlig, Mulig'
p704
sg6
S'white'
p705
sg8
(lp706
sg10
S'Possible'
p707
sg12
S'Isolated'
p708
sg14
g251
sg16
I2
sg17
S'Nat'
p709
sg19
S'Naturlig utloest'
p710
sg21
Nsg22
S'300'
p711
sg24
S'300'
p712
sg26
S'Isolerte faresoner'
p713
sg28
Nsg29
g687
sg31
S'3 - Middels'
p714
sba(irunmatrix
M3Element
p715
(dp716
g3
Nsg4
S'Sannsynlig, Meget sannsynlig'
p717
sg6
S'gray'
p718
sg8
(lp719
sg10
S'Likely'
p720
sg12
S'Isolated'
p721
sg14
g66
sg16
I0
sg17
S'High'
p722
sg19
S'Stor tilleggsbelastning'
p723
sg21
Nsg22
S'300'
p724
sg24
S'400'
p725
sg26
S'Isolerte faresoner'
p726
sg28
Nsg29
g687
sg31
S'3 - Middels'
p727
sba(irunmatrix
M3Element
p728
(dp729
g3
Nsg4
S'Sannsynlig, Meget sannsynlig'
p730
sg6
S'gray'
p731
sg8
(lp732
sg10
S'Likely'
p733
sg12
S'Isolated'
p734
sg14
g66
sg16
I0
sg17
S'Low'
p735
sg19
S'Liten tilleggsbelastning'
p736
sg21
Nsg22
S'300'
p737
sg24
S'500'
p738
sg26
S'Isolerte faresoner'
p739
sg28
Nsg29
g687
sg31
S'3 - Middels'
p740
sba(irunmatrix
M3Element
p741
(dp742
g3
Nsg4
S'Sannsynlig, Meget sannsynlig'
p743
sg6
S'gray'
p744
sg8
(lp745
sg10
S'Likely'
p746
sg12
S'Isolated'
p747
sg14
g66
sg16
I0
sg17
S'Nat'
p748
sg19
S'Naturlig utloest'
p749
sg21
Nsg22
S'300'
p750
sg24
S'600'
p751
sg26
S'Isolerte faresoner'
p752
sg28
Nsg29
g687
sg31
S'3 - Middels'
p753
sba(irunmatrix
M3Element
p754
(dp755
g3
Nsg4
S'Lite sannsynlig, Mulig'
p756
sg6
S'white'
p757
sg8
(lp758
sg10
S'Possible'
p759
sg12
S'Some'
p760
sg14
g251
sg16
I2
sg17
S'High'
p761
sg19
S'Stor tilleggsbelastning'
p762
sg21
Nsg22
S'300'
p763
sg24
S'700'
p764
sg26
S'Noen bratte heng'
p765
sg28
Nsg29
g687
sg31
S'3 - Middels'
p766
sba(irunmatrix
M3Element
p767
(dp768
g3
F3.0
sg4
S'Lite sannsynlig, Mulig'
p769
sg6
g531
sg8
(lp770
I3
aI3
aI3
aI3
aI3
aI3
asg10
S'Possible'
p771
sg12
S'Some'
p772
sg14
g508
sg16
I3
sg17
S'Low'
p773
sg19
S'Liten tilleggsbelastning'
p774
sg21
I6
sg22
S'300'
p775
sg24
S'800'
p776
sg26
S'Noen bratte heng'
p777
sg28
g124
(g128
S'\x00\x00\x00\x00\x00\x00\x00\x00'
p778
tp779
Rp780
sg29
g687
sg31
S'3 - Middels'
p781
sba(irunmatrix
M3Element
p782
(dp783
g3
Nsg4
S'Lite sannsynlig, Mulig'
p784
sg6
S'white'
p785
sg8
(lp786
sg10
S'Possible'
p787
sg12
S'Some'
p788
sg14
g508
sg16
I3
sg17
S'Nat'
p789
sg19
S'Naturlig utloest'
p790
sg21
Nsg22
S'300'
p791
sg24
S'900'
p792
sg26
S'Noen bratte heng'
p793
sg28
Nsg29
g687
sg31
S'3 - Middels'
p794
sba(irunmatrix
M3Element
p795
(dp796
g3
Nsg4
S'Sannsynlig, Meget sannsynlig'
p797
sg6
S'gray'
p798
sg8
(lp799
sg10
S'Likely'
p800
sg12
S'Some'
p801
sg14
g66
sg16
I0
sg17
S'High'
p802
sg19
S'Stor tilleggsbelastning'
p803
sg21
Nsg22
S'300'
p804
sg24
S'1000'
p805
sg26
S'Noen bratte heng'
p806
sg28
Nsg29
g687
sg31
S'3 - Middels'
p807
sba(irunmatrix
M3Element
p808
(dp809
g3
Nsg4
S'Sannsynlig, Meget sannsynlig'
p810
sg6
S'gray'
p811
sg8
(lp812
sg10
S'Likely'
p813
sg12
S'Some'
p814
sg14
g66
sg16
I0
sg17
S'Low'
p815
sg19
S'Liten tilleggsbelastning'
p816
sg21
Nsg22
S'300'
p817
sg24
S'1100'
p818
sg26
S'Noen bratte heng'
p819
sg28
Nsg29
g687
sg31
S'3 - Middels'
p820
sba(irunmatrix
M3Element
p821
(dp822
g3
Nsg4
S'Sannsynlig, Meget sannsynlig'
p823
sg6
S'white'
p824
sg8
(lp825
sg10
S'Likely'
p826
sg12
S'Some'
p827
sg14
g577
sg16
I4
sg17
S'Nat'
p828
sg19
S'Naturlig utloest'
p829
sg21
Nsg22
S'300'
p830
sg24
S'1200'
p831
sg26
S'Noen bratte heng'
p832
sg28
Nsg29
g687
sg31
S'3 - Middels'
p833
sba(irunmatrix
M3Element
p834
(dp835
g3
Nsg4
S'Lite sannsynlig, Mulig'
p836
sg6
S'gray'
p837
sg8
(lp838
sg10
S'Possible'
p839
sg12
S'Many'
p840
sg14
g66
sg16
I0
sg17
S'High'
p841
sg19
S'Stor tilleggsbelastning'
p842
sg21
Nsg22
S'300'
p843
sg24
S'1300'
p844
sg26
S'Mange bratte heng'
p845
sg28
Nsg29
g687
sg31
S'3 - Middels'
p846
sba(irunmatrix
M3Element
p847
(dp848
g3
Nsg4
S'Lite sannsynlig, Mulig'
p849
sg6
S'white'
p850
sg8
(lp851
sg10
S'Possible'
p852
sg12
S'Many'
p853
sg14
g577
sg16
I4
sg17
S'Low'
p854
sg19
S'Liten tilleggsbelastning'
p855
sg21
Nsg22
S'300'
p856
sg24
S'1400'
p857
sg26
S'Mange bratte heng'
p858
sg28
Nsg29
g687
sg31
S'3 - Middels'
p859
sba(irunmatrix
M3Element
p860
(dp861
g3
Nsg4
S'Lite sannsynlig, Mulig'
p862
sg6
S'gray'
p863
sg8
(lp864
sg10
S'Possible'
p865
sg12
S'Many'
p866
sg14
g66
sg16
I0
sg17
S'Nat'
p867
sg19
S'Naturlig utloest'
p868
sg21
Nsg22
S'300'
p869
sg24
S'1500'
p870
sg26
S'Mange bratte heng'
p871
sg28
Nsg29
g687
sg31
S'3 - Middels'
p872
sba(irunmatrix
M3Element
p873
(dp874
g3
Nsg4
S'Sannsynlig, Meget sannsynlig'
p875
sg6
S'gray'
p876
sg8
(lp877
sg10
S'Likely'
p878
sg12
S'Many'
p879
sg14
g66
sg16
I0
sg17
S'High'
p880
sg19
S'Stor tilleggsbelastning'
p881
sg21
Nsg22
S'300'
p882
sg24
S'1600'
p883
sg26
S'Mange bratte heng'
p884
sg28
Nsg29
g687
sg31
S'3 - Middels'
p885
sba(irunmatrix
M3Element
p886
(dp887
g3
Nsg4
S'Sannsynlig, Meget sannsynlig'
p888
sg6
S'white'
p889
sg8
(lp890
sg10
S'Likely'
p891
sg12
S'Many'
p892
sg14
g577
sg16
I4
sg17
S'Low'
p893
sg19
S'Liten tilleggsbelastning'
p894
sg21
Nsg22
S'300'
p895
sg24
S'1700'
p896
sg26
S'Mange bratte heng'
p897
sg28
Nsg29
g687
sg31
S'3 - Middels'
p898
sba(irunmatrix
M3Element
p899
(dp900
g3
Nsg4
S'Sannsynlig, Meget sannsynlig'
p901
sg6
S'white'
p902
sg8
(lp903
sg10
S'Likely'
p904
sg12
S'Many'
p905
sg14
g577
sg16
I4
sg17
S'Nat'
p906
sg19
S'Naturlig utloest'
p907
sg21
Nsg22
S'300'
p908
sg24
S'1800'
p909
sg26
S'Mange bratte heng'
p910
sg28
Nsg29
g687
sg31
S'3 - Middels'
p911
sba(irunmatrix
M3Element
p912
(dp913
g3
Nsg4
S'Lite sannsynlig, Mulig'
p914
sg6
S'gray'
p915
sg8
(lp916
sg10
S'Possible'
p917
sg12
S'Most'
p918
sg14
g66
sg16
I0
sg17
S'High'
p919
sg19
S'Stor tilleggsbelastning'
p920
sg21
Nsg22
S'300'
p921
sg24
S'1900'
p922
sg26
S'De fleste bratte heng, Ogsaa i mindre bratt terreng'
p923
sg28
Nsg29
g687
sg31
S'3 - Middels'
p924
sba(irunmatrix
M3Element
p925
(dp926
g3
Nsg4
S'Lite sannsynlig, Mulig'
p927
sg6
S'gray'
p928
sg8
(lp929
sg10
S'Possible'
p930
sg12
S'Most'
p931
sg14
g66
sg16
I0
sg17
S'Low'
p932
sg19
S'Liten tilleggsbelastning'
p933
sg21
Nsg22
S'300'
p934
sg24
S'2000'
p935
sg26
S'De fleste bratte heng, Ogsaa i mindre bratt terreng'
p936
sg28
Nsg29
g687
sg31
S'3 - Middels'
p937
sba(irunmatrix
M3Element
p938
(dp939
g3
Nsg4
S'Lite sannsynlig, Mulig'
p940
sg6
S'gray'
p941
sg8
(lp942
sg10
S'Possible'
p943
sg12
S'Most'
p944
sg14
g66
sg16
I0
sg17
S'Nat'
p945
sg19
S'Naturlig utloest'
p946
sg21
Nsg22
S'300'
p947
sg24
S'2100'
p948
sg26
S'De fleste bratte heng, Ogsaa i mindre bratt terreng'
p949
sg28
Nsg29
g687
sg31
S'3 - Middels'
p950
sba(irunmatrix
M3Element
p951
(dp952
g3
Nsg4
S'Sannsynlig, Meget sannsynlig'
p953
sg6
S'gray'
p954
sg8
(lp955
sg10
S'Likely'
p956
sg12
S'Most'
p957
sg14
g66
sg16
I0
sg17
S'High'
p958
sg19
S'Stor tilleggsbelastning'
p959
sg21
Nsg22
S'300'
p960
sg24
S'2200'
p961
sg26
S'De fleste bratte heng, Ogsaa i mindre bratt terreng'
p962
sg28
Nsg29
g687
sg31
S'3 - Middels'
p963
sba(irunmatrix
M3Element
p964
(dp965
g3
Nsg4
S'Sannsynlig, Meget sannsynlig'
p966
sg6
S'gray'
p967
sg8
(lp968
sg10
S'Likely'
p969
sg12
S'Most'
p970
sg14
g66
sg16
I0
sg17
S'Low'
p971
sg19
S'Liten tilleggsbelastning'
p972
sg21
Nsg22
S'300'
p973
sg24
S'2300'
p974
sg26
S'De fleste bratte heng, Ogsaa i mindre bratt terreng'
p975
sg28
Nsg29
g687
sg31
S'3 - Middels'
p976
sba(irunmatrix
M3Element
p977
(dp978
g3
Nsg4
S'Sannsynlig, Meget sannsynlig'
p979
sg6
S'white'
p980
sg8
(lp981
sg10
S'Likely'
p982
sg12
S'Most'
p983
sg14
g66
sg16
I0
sg17
S'Nat'
p984
sg19
S'Naturlig utloest'
p985
sg21
Nsg22
S'300'
p986
sg24
S'2400'
p987
sg26
S'De fleste bratte heng, Ogsaa i mindre bratt terreng'
p988
sg28
Nsg29
g687
sg31
S'3 - Middels'
p989
sba(irunmatrix
M3Element
p990
(dp991
g3
Nsg4
S'Lite sannsynlig, Mulig'
p992
sg6
S'white'
p993
sg8
(lp994
sg10
S'Possible'
p995
sg12
S'Isolated'
p996
sg14
g251
sg16
I2
sg17
S'High'
p997
sg19
S'Stor tilleggsbelastning'
p998
sg21
Nsg22
S'400'
p999
sg24
S'100'
p1000
sg26
S'Isolerte faresoner'
p1001
sg28
Nsg29
S'4'
p1002
sg31
S'4 - Store'
p1003
sba(irunmatrix
M3Element
p1004
(dp1005
g3
Nsg4
S'Lite sannsynlig, Mulig'
p1006
sg6
S'white'
p1007
sg8
(lp1008
sg10
S'Possible'
p1009
sg12
S'Isolated'
p1010
sg14
g508
sg16
I3
sg17
S'Low'
p1011
sg19
S'Liten tilleggsbelastning'
p1012
sg21
Nsg22
S'400'
p1013
sg24
S'200'
p1014
sg26
S'Isolerte faresoner'
p1015
sg28
Nsg29
g1002
sg31
S'4 - Store'
p1016
sba(irunmatrix
M3Element
p1017
(dp1018
g3
Nsg4
S'Lite sannsynlig, Mulig'
p1019
sg6
S'white'
p1020
sg8
(lp1021
sg10
S'Possible'
p1022
sg12
S'Isolated'
p1023
sg14
g508
sg16
I3
sg17
S'Nat'
p1024
sg19
S'Naturlig utloest'
p1025
sg21
Nsg22
S'400'
p1026
sg24
S'300'
p1027
sg26
S'Isolerte faresoner'
p1028
sg28
Nsg29
g1002
sg31
S'4 - Store'
p1029
sba(irunmatrix
M3Element
p1030
(dp1031
g3
Nsg4
S'Sannsynlig, Meget sannsynlig'
p1032
sg6
S'gray'
p1033
sg8
(lp1034
sg10
S'Likely'
p1035
sg12
S'Isolated'
p1036
sg14
g66
sg16
I0
sg17
S'High'
p1037
sg19
S'Stor tilleggsbelastning'
p1038
sg21
Nsg22
S'400'
p1039
sg24
S'400'
p1040
sg26
S'Isolerte faresoner'
p1041
sg28
Nsg29
g1002
sg31
S'4 - Store'
p1042
sba(irunmatrix
M3Element
p1043
(dp1044
g3
Nsg4
S'Sannsynlig, Meget sannsynlig'
p1045
sg6
S'gray'
p1046
sg8
(lp1047
sg10
S'Likely'
p1048
sg12
S'Isolated'
p1049
sg14
g66
sg16
I0
sg17
S'Low'
p1050
sg19
S'Liten tilleggsbelastning'
p1051
sg21
Nsg22
S'400'
p1052
sg24
S'500'
p1053
sg26
S'Isolerte faresoner'
p1054
sg28
Nsg29
g1002
sg31
S'4 - Store'
p1055
sba(irunmatrix
M3Element
p1056
(dp1057
g3
Nsg4
S'Sannsynlig, Meget sannsynlig'
p1058
sg6
S'gray'
p1059
sg8
(lp1060
sg10
S'Likely'
p1061
sg12
S'Isolated'
p1062
sg14
g66
sg16
I0
sg17
S'Nat'
p1063
sg19
S'Naturlig utloest'
p1064
sg21
Nsg22
S'400'
p1065
sg24
S'600'
p1066
sg26
S'Isolerte faresoner'
p1067
sg28
Nsg29
g1002
sg31
S'4 - Store'
p1068
sba(irunmatrix
M3Element
p1069
(dp1070
g3
Nsg4
S'Lite sannsynlig, Mulig'
p1071
sg6
S'white'
p1072
sg8
(lp1073
sg10
S'Possible'
p1074
sg12
S'Some'
p1075
sg14
g508
sg16
I3
sg17
S'High'
p1076
sg19
S'Stor tilleggsbelastning'
p1077
sg21
Nsg22
S'400'
p1078
sg24
S'700'
p1079
sg26
S'Noen bratte heng'
p1080
sg28
Nsg29
g1002
sg31
S'4 - Store'
p1081
sba(irunmatrix
M3Element
p1082
(dp1083
g3
Nsg4
S'Lite sannsynlig, Mulig'
p1084
sg6
S'white'
p1085
sg8
(lp1086
sg10
S'Possible'
p1087
sg12
S'Some'
p1088
sg14
g577
sg16
I4
sg17
S'Low'
p1089
sg19
S'Liten tilleggsbelastning'
p1090
sg21
Nsg22
S'400'
p1091
sg24
S'800'
p1092
sg26
S'Noen bratte heng'
p1093
sg28
Nsg29
g1002
sg31
S'4 - Store'
p1094
sba(irunmatrix
M3Element
p1095
(dp1096
g3
Nsg4
S'Lite sannsynlig, Mulig'
p1097
sg6
S'white'
p1098
sg8
(lp1099
sg10
S'Possible'
p1100
sg12
S'Some'
p1101
sg14
g577
sg16
I4
sg17
S'Nat'
p1102
sg19
S'Naturlig utloest'
p1103
sg21
Nsg22
S'400'
p1104
sg24
S'900'
p1105
sg26
S'Noen bratte heng'
p1106
sg28
Nsg29
g1002
sg31
S'4 - Store'
p1107
sba(irunmatrix
M3Element
p1108
(dp1109
g3
Nsg4
S'Sannsynlig, Meget sannsynlig'
p1110
sg6
S'gray'
p1111
sg8
(lp1112
sg10
S'Likely'
p1113
sg12
S'Some'
p1114
sg14
g66
sg16
I0
sg17
S'High'
p1115
sg19
S'Stor tilleggsbelastning'
p1116
sg21
Nsg22
S'400'
p1117
sg24
S'1000'
p1118
sg26
S'Noen bratte heng'
p1119
sg28
Nsg29
g1002
sg31
S'4 - Store'
p1120
sba(irunmatrix
M3Element
p1121
(dp1122
g3
Nsg4
S'Sannsynlig, Meget sannsynlig'
p1123
sg6
S'gray'
p1124
sg8
(lp1125
sg10
S'Likely'
p1126
sg12
S'Some'
p1127
sg14
g66
sg16
I0
sg17
S'Low'
p1128
sg19
S'Liten tilleggsbelastning'
p1129
sg21
Nsg22
S'400'
p1130
sg24
S'1100'
p1131
sg26
S'Noen bratte heng'
p1132
sg28
Nsg29
g1002
sg31
S'4 - Store'
p1133
sba(irunmatrix
M3Element
p1134
(dp1135
g3
Nsg4
S'Sannsynlig, Meget sannsynlig'
p1136
sg6
S'white'
p1137
sg8
(lp1138
sg10
S'Likely'
p1139
sg12
S'Some'
p1140
sg14
g577
sg16
I4
sg17
S'Nat'
p1141
sg19
S'Naturlig utloest'
p1142
sg21
Nsg22
S'400'
p1143
sg24
S'1200'
p1144
sg26
S'Noen bratte heng'
p1145
sg28
Nsg29
g1002
sg31
S'4 - Store'
p1146
sba(irunmatrix
M3Element
p1147
(dp1148
g3
Nsg4
S'Lite sannsynlig, Mulig'
p1149
sg6
S'gray'
p1150
sg8
(lp1151
sg10
S'Possible'
p1152
sg12
S'Many'
p1153
sg14
g66
sg16
I0
sg17
S'High'
p1154
sg19
S'Stor tilleggsbelastning'
p1155
sg21
Nsg22
S'400'
p1156
sg24
S'1300'
p1157
sg26
S'Mange bratte heng'
p1158
sg28
Nsg29
g1002
sg31
S'4 - Store'
p1159
sba(irunmatrix
M3Element
p1160
(dp1161
g3
Nsg4
S'Lite sannsynlig, Mulig'
p1162
sg6
S'white'
p1163
sg8
(lp1164
sg10
S'Possible'
p1165
sg12
S'Many'
p1166
sg14
g66
sg16
I0
sg17
S'Low'
p1167
sg19
S'Liten tilleggsbelastning'
p1168
sg21
Nsg22
S'400'
p1169
sg24
S'1400'
p1170
sg26
S'Mange bratte heng'
p1171
sg28
Nsg29
g1002
sg31
S'4 - Store'
p1172
sba(irunmatrix
M3Element
p1173
(dp1174
g3
Nsg4
S'Lite sannsynlig, Mulig'
p1175
sg6
S'gray'
p1176
sg8
(lp1177
sg10
S'Possible'
p1178
sg12
S'Many'
p1179
sg14
g66
sg16
I0
sg17
S'Nat'
p1180
sg19
S'Naturlig utloest'
p1181
sg21
Nsg22
S'400'
p1182
sg24
S'1500'
p1183
sg26
S'Mange bratte heng'
p1184
sg28
Nsg29
g1002
sg31
S'4 - Store'
p1185
sba(irunmatrix
M3Element
p1186
(dp1187
g3
Nsg4
S'Sannsynlig, Meget sannsynlig'
p1188
sg6
S'gray'
p1189
sg8
(lp1190
sg10
S'Likely'
p1191
sg12
S'Many'
p1192
sg14
g66
sg16
I0
sg17
S'High'
p1193
sg19
S'Stor tilleggsbelastning'
p1194
sg21
Nsg22
S'400'
p1195
sg24
S'1600'
p1196
sg26
S'Mange bratte heng'
p1197
sg28
Nsg29
g1002
sg31
S'4 - Store'
p1198
sba(irunmatrix
M3Element
p1199
(dp1200
g3
Nsg4
S'Sannsynlig, Meget sannsynlig'
p1201
sg6
S'white'
p1202
sg8
(lp1203
sg10
S'Likely'
p1204
sg12
S'Many'
p1205
sg14
g66
sg16
I0
sg17
S'Low'
p1206
sg19
S'Liten tilleggsbelastning'
p1207
sg21
Nsg22
S'400'
p1208
sg24
S'1700'
p1209
sg26
S'Mange bratte heng'
p1210
sg28
Nsg29
g1002
sg31
S'4 - Store'
p1211
sba(irunmatrix
M3Element
p1212
(dp1213
g3
Nsg4
S'Sannsynlig, Meget sannsynlig'
p1214
sg6
S'white'
p1215
sg8
(lp1216
sg10
S'Likely'
p1217
sg12
S'Many'
p1218
sg14
S'k'
p1219
sg16
I5
sg17
S'Nat'
p1220
sg19
S'Naturlig utloest'
p1221
sg21
Nsg22
S'400'
p1222
sg24
S'1800'
p1223
sg26
S'Mange bratte heng'
p1224
sg28
Nsg29
g1002
sg31
S'4 - Store'
p1225
sba(irunmatrix
M3Element
p1226
(dp1227
g3
Nsg4
S'Lite sannsynlig, Mulig'
p1228
sg6
S'gray'
p1229
sg8
(lp1230
sg10
S'Possible'
p1231
sg12
S'Most'
p1232
sg14
g66
sg16
I0
sg17
S'High'
p1233
sg19
S'Stor tilleggsbelastning'
p1234
sg21
Nsg22
S'400'
p1235
sg24
S'1900'
p1236
sg26
S'De fleste bratte heng, Ogsaa i mindre bratt terreng'
p1237
sg28
Nsg29
g1002
sg31
S'4 - Store'
p1238
sba(irunmatrix
M3Element
p1239
(dp1240
g3
Nsg4
S'Lite sannsynlig, Mulig'
p1241
sg6
S'gray'
p1242
sg8
(lp1243
sg10
S'Possible'
p1244
sg12
S'Most'
p1245
sg14
g66
sg16
I0
sg17
S'Low'
p1246
sg19
S'Liten tilleggsbelastning'
p1247
sg21
Nsg22
S'400'
p1248
sg24
S'2000'
p1249
sg26
S'De fleste bratte heng, Ogsaa i mindre bratt terreng'
p1250
sg28
Nsg29
g1002
sg31
S'4 - Store'
p1251
sba(irunmatrix
M3Element
p1252
(dp1253
g3
Nsg4
S'Lite sannsynlig, Mulig'
p1254
sg6
S'gray'
p1255
sg8
(lp1256
sg10
S'Possible'
p1257
sg12
S'Most'
p1258
sg14
g66
sg16
I0
sg17
S'Nat'
p1259
sg19
S'Naturlig utloest'
p1260
sg21
Nsg22
S'400'
p1261
sg24
S'2100'
p1262
sg26
S'De fleste bratte heng, Ogsaa i mindre bratt terreng'
p1263
sg28
Nsg29
g1002
sg31
S'4 - Store'
p1264
sba(irunmatrix
M3Element
p1265
(dp1266
g3
Nsg4
S'Sannsynlig, Meget sannsynlig'
p1267
sg6
S'gray'
p1268
sg8
(lp1269
sg10
S'Likely'
p1270
sg12
S'Most'
p1271
sg14
g66
sg16
I0
sg17
S'High'
p1272
sg19
S'Stor tilleggsbelastning'
p1273
sg21
Nsg22
S'400'
p1274
sg24
S'2200'
p1275
sg26
S'De fleste bratte heng, Ogsaa i mindre bratt terreng'
p1276
sg28
Nsg29
g1002
sg31
S'4 - Store'
p1277
sba(irunmatrix
M3Element
p1278
(dp1279
g3
Nsg4
S'Sannsynlig, Meget sannsynlig'
p1280
sg6
S'gray'
p1281
sg8
(lp1282
sg10
S'Likely'
p1283
sg12
S'Most'
p1284
sg14
g66
sg16
I0
sg17
S'Low'
p1285
sg19
S'Liten tilleggsbelastning'
p1286
sg21
Nsg22
S'400'
p1287
sg24
S'2300'
p1288
sg26
S'De fleste bratte heng, Ogsaa i mindre bratt terreng'
p1289
sg28
Nsg29
g1002
sg31
S'4 - Store'
p1290
sba(irunmatrix
M3Element
p1291
(dp1292
g3
Nsg4
S'Sannsynlig, Meget sannsynlig'
p1293
sg6
S'white'
p1294
sg8
(lp1295
sg10
S'Likely'
p1296
sg12
S'Most'
p1297
sg14
g66
sg16
I0
sg17
S'Nat'
p1298
sg19
S'Naturlig utloest'
p1299
sg21
Nsg22
S'400'
p1300
sg24
S'2400'
p1301
sg26
S'De fleste bratte heng, Ogsaa i mindre bratt terreng'
p1302
sg28
Nsg29
g1002
sg31
S'4 - Store'
p1303
sba(irunmatrix
M3Element
p1304
(dp1305
g3
Nsg4
S'Lite sannsynlig, Mulig'
p1306
sg6
S'white'
p1307
sg8
(lp1308
sg10
S'Possible'
p1309
sg12
S'Isolated'
p1310
sg14
g66
sg16
I0
sg17
S'High'
p1311
sg19
S'Stor tilleggsbelastning'
p1312
sg21
Nsg22
S'500'
p1313
sg24
S'100'
p1314
sg26
S'Isolerte faresoner'
p1315
sg28
Nsg29
S'5'
p1316
sg31
S'5 - Svaert store'
p1317
sba(irunmatrix
M3Element
p1318
(dp1319
g3
Nsg4
S'Lite sannsynlig, Mulig'
p1320
sg6
S'white'
p1321
sg8
(lp1322
sg10
S'Possible'
p1323
sg12
S'Isolated'
p1324
sg14
g66
sg16
I0
sg17
S'Low'
p1325
sg19
S'Liten tilleggsbelastning'
p1326
sg21
Nsg22
S'500'
p1327
sg24
S'200'
p1328
sg26
S'Isolerte faresoner'
p1329
sg28
Nsg29
g1316
sg31
S'5 - Svaert store'
p1330
sba(irunmatrix
M3Element
p1331
(dp1332
g3
Nsg4
S'Lite sannsynlig, Mulig'
p1333
sg6
S'white'
p1334
sg8
(lp1335
sg10
S'Possible'
p1336
sg12
S'Isolated'
p1337
sg14
g66
sg16
I0
sg17
S'Nat'
p1338
sg19
S'Naturlig utloest'
p1339
sg21
Nsg22
S'500'
p1340
sg24
S'300'
p1341
sg26
S'Isolerte faresoner'
p1342
sg28
Nsg29
g1316
sg31
S'5 - Svaert store'
p1343
sba(irunmatrix
M3Element
p1344
(dp1345
g3
Nsg4
S'Sannsynlig, Meget sannsynlig'
p1346
sg6
S'gray'
p1347
sg8
(lp1348
sg10
S'Likely'
p1349
sg12
S'Isolated'
p1350
sg14
g66
sg16
I0
sg17
S'High'
p1351
sg19
S'Stor tilleggsbelastning'
p1352
sg21
Nsg22
S'500'
p1353
sg24
S'400'
p1354
sg26
S'Isolerte faresoner'
p1355
sg28
Nsg29
g1316
sg31
S'5 - Svaert store'
p1356
sba(irunmatrix
M3Element
p1357
(dp1358
g3
Nsg4
S'Sannsynlig, Meget sannsynlig'
p1359
sg6
S'gray'
p1360
sg8
(lp1361
sg10
S'Likely'
p1362
sg12
S'Isolated'
p1363
sg14
g66
sg16
I0
sg17
S'Low'
p1364
sg19
S'Liten tilleggsbelastning'
p1365
sg21
Nsg22
S'500'
p1366
sg24
S'500'
p1367
sg26
S'Isolerte faresoner'
p1368
sg28
Nsg29
g1316
sg31
S'5 - Svaert store'
p1369
sba(irunmatrix
M3Element
p1370
(dp1371
g3
Nsg4
S'Sannsynlig, Meget sannsynlig'
p1372
sg6
S'gray'
p1373
sg8
(lp1374
sg10
S'Likely'
p1375
sg12
S'Isolated'
p1376
sg14
g66
sg16
I0
sg17
S'Nat'
p1377
sg19
S'Naturlig utloest'
p1378
sg21
Nsg22
S'500'
p1379
sg24
S'600'
p1380
sg26
S'Isolerte faresoner'
p1381
sg28
Nsg29
g1316
sg31
S'5 - Svaert store'
p1382
sba(irunmatrix
M3Element
p1383
(dp1384
g3
Nsg4
S'Lite sannsynlig, Mulig'
p1385
sg6
S'white'
p1386
sg8
(lp1387
sg10
S'Possible'
p1388
sg12
S'Some'
p1389
sg14
g66
sg16
I0
sg17
S'High'
p1390
sg19
S'Stor tilleggsbelastning'
p1391
sg21
Nsg22
S'500'
p1392
sg24
S'700'
p1393
sg26
S'Noen bratte heng'
p1394
sg28
Nsg29
g1316
sg31
S'5 - Svaert store'
p1395
sba(irunmatrix
M3Element
p1396
(dp1397
g3
Nsg4
S'Lite sannsynlig, Mulig'
p1398
sg6
S'white'
p1399
sg8
(lp1400
sg10
S'Possible'
p1401
sg12
S'Some'
p1402
sg14
g66
sg16
I0
sg17
S'Low'
p1403
sg19
S'Liten tilleggsbelastning'
p1404
sg21
Nsg22
S'500'
p1405
sg24
S'800'
p1406
sg26
S'Noen bratte heng'
p1407
sg28
Nsg29
g1316
sg31
S'5 - Svaert store'
p1408
sba(irunmatrix
M3Element
p1409
(dp1410
g3
Nsg4
S'Lite sannsynlig, Mulig'
p1411
sg6
S'white'
p1412
sg8
(lp1413
sg10
S'Possible'
p1414
sg12
S'Some'
p1415
sg14
g66
sg16
I0
sg17
S'Nat'
p1416
sg19
S'Naturlig utloest'
p1417
sg21
Nsg22
S'500'
p1418
sg24
S'900'
p1419
sg26
S'Noen bratte heng'
p1420
sg28
Nsg29
g1316
sg31
S'5 - Svaert store'
p1421
sba(irunmatrix
M3Element
p1422
(dp1423
g3
Nsg4
S'Sannsynlig, Meget sannsynlig'
p1424
sg6
S'gray'
p1425
sg8
(lp1426
sg10
S'Likely'
p1427
sg12
S'Some'
p1428
sg14
g66
sg16
I0
sg17
S'High'
p1429
sg19
S'Stor tilleggsbelastning'
p1430
sg21
Nsg22
S'500'
p1431
sg24
S'1000'
p1432
sg26
S'Noen bratte heng'
p1433
sg28
Nsg29
g1316
sg31
S'5 - Svaert store'
p1434
sba(irunmatrix
M3Element
p1435
(dp1436
g3
Nsg4
S'Sannsynlig, Meget sannsynlig'
p1437
sg6
S'gray'
p1438
sg8
(lp1439
sg10
S'Likely'
p1440
sg12
S'Some'
p1441
sg14
g66
sg16
I0
sg17
S'Low'
p1442
sg19
S'Liten tilleggsbelastning'
p1443
sg21
Nsg22
S'500'
p1444
sg24
S'1100'
p1445
sg26
S'Noen bratte heng'
p1446
sg28
Nsg29
g1316
sg31
S'5 - Svaert store'
p1447
sba(irunmatrix
M3Element
p1448
(dp1449
g3
Nsg4
S'Sannsynlig, Meget sannsynlig'
p1450
sg6
S'white'
p1451
sg8
(lp1452
sg10
S'Likely'
p1453
sg12
S'Some'
p1454
sg14
g66
sg16
I0
sg17
S'Nat'
p1455
sg19
S'Naturlig utloest'
p1456
sg21
Nsg22
S'500'
p1457
sg24
S'1200'
p1458
sg26
S'Noen bratte heng'
p1459
sg28
Nsg29
g1316
sg31
S'5 - Svaert store'
p1460
sba(irunmatrix
M3Element
p1461
(dp1462
g3
Nsg4
S'Lite sannsynlig, Mulig'
p1463
sg6
S'gray'
p1464
sg8
(lp1465
sg10
S'Possible'
p1466
sg12
S'Many'
p1467
sg14
g66
sg16
I0
sg17
S'High'
p1468
sg19
S'Stor tilleggsbelastning'
p1469
sg21
Nsg22
S'500'
p1470
sg24
S'1300'
p1471
sg26
S'Mange bratte heng'
p1472
sg28
Nsg29
g1316
sg31
S'5 - Svaert store'
p1473
sba(irunmatrix
M3Element
p1474
(dp1475
g3
Nsg4
S'Lite sannsynlig, Mulig'
p1476
sg6
S'white'
p1477
sg8
(lp1478
sg10
S'Possible'
p1479
sg12
S'Many'
p1480
sg14
g66
sg16
I0
sg17
S'Low'
p1481
sg19
S'Liten tilleggsbelastning'
p1482
sg21
Nsg22
S'500'
p1483
sg24
S'1400'
p1484
sg26
S'Mange bratte heng'
p1485
sg28
Nsg29
g1316
sg31
S'5 - Svaert store'
p1486
sba(irunmatrix
M3Element
p1487
(dp1488
g3
Nsg4
S'Lite sannsynlig, Mulig'
p1489
sg6
S'gray'
p1490
sg8
(lp1491
sg10
S'Possible'
p1492
sg12
S'Many'
p1493
sg14
g66
sg16
I0
sg17
S'Nat'
p1494
sg19
S'Naturlig utloest'
p1495
sg21
Nsg22
S'500'
p1496
sg24
S'1500'
p1497
sg26
S'Mange bratte heng'
p1498
sg28
Nsg29
g1316
sg31
S'5 - Svaert store'
p1499
sba(irunmatrix
M3Element
p1500
(dp1501
g3
Nsg4
S'Sannsynlig, Meget sannsynlig'
p1502
sg6
S'gray'
p1503
sg8
(lp1504
sg10
S'Likely'
p1505
sg12
S'Many'
p1506
sg14
g66
sg16
I0
sg17
S'High'
p1507
sg19
S'Stor tilleggsbelastning'
p1508
sg21
Nsg22
S'500'
p1509
sg24
S'1600'
p1510
sg26
S'Mange bratte heng'
p1511
sg28
Nsg29
g1316
sg31
S'5 - Svaert store'
p1512
sba(irunmatrix
M3Element
p1513
(dp1514
g3
Nsg4
S'Sannsynlig, Meget sannsynlig'
p1515
sg6
S'white'
p1516
sg8
(lp1517
sg10
S'Likely'
p1518
sg12
S'Many'
p1519
sg14
g66
sg16
I0
sg17
S'Low'
p1520
sg19
S'Liten tilleggsbelastning'
p1521
sg21
Nsg22
S'500'
p1522
sg24
S'1700'
p1523
sg26
S'Mange bratte heng'
p1524
sg28
Nsg29
g1316
sg31
S'5 - Svaert store'
p1525
sba(irunmatrix
M3Element
p1526
(dp1527
g3
Nsg4
S'Sannsynlig, Meget sannsynlig'
p1528
sg6
S'white'
p1529
sg8
(lp1530
sg10
S'Likely'
p1531
sg12
S'Many'
p1532
sg14
g1219
sg16
I5
sg17
S'Nat'
p1533
sg19
S'Naturlig utloest'
p1534
sg21
Nsg22
S'500'
p1535
sg24
S'1800'
p1536
sg26
S'Mange bratte heng'
p1537
sg28
Nsg29
g1316
sg31
S'5 - Svaert store'
p1538
sba(irunmatrix
M3Element
p1539
(dp1540
g3
Nsg4
S'Lite sannsynlig, Mulig'
p1541
sg6
S'gray'
p1542
sg8
(lp1543
sg10
S'Possible'
p1544
sg12
S'Most'
p1545
sg14
g66
sg16
I0
sg17
S'High'
p1546
sg19
S'Stor tilleggsbelastning'
p1547
sg21
Nsg22
S'500'
p1548
sg24
S'1900'
p1549
sg26
S'De fleste bratte heng, Ogsaa i mindre bratt terreng'
p1550
sg28
Nsg29
g1316
sg31
S'5 - Svaert store'
p1551
sba(irunmatrix
M3Element
p1552
(dp1553
g3
Nsg4
S'Lite sannsynlig, Mulig'
p1554
sg6
S'gray'
p1555
sg8
(lp1556
sg10
S'Possible'
p1557
sg12
S'Most'
p1558
sg14
g66
sg16
I0
sg17
S'Low'
p1559
sg19
S'Liten tilleggsbelastning'
p1560
sg21
Nsg22
S'500'
p1561
sg24
S'2000'
p1562
sg26
S'De fleste bratte heng, Ogsaa i mindre bratt terreng'
p1563
sg28
Nsg29
g1316
sg31
S'5 - Svaert store'
p1564
sba(irunmatrix
M3Element
p1565
(dp1566
g3
Nsg4
S'Lite sannsynlig, Mulig'
p1567
sg6
S'gray'
p1568
sg8
(lp1569
sg10
S'Possible'
p1570
sg12
S'Most'
p1571
sg14
g66
sg16
I0
sg17
S'Nat'
p1572
sg19
S'Naturlig utloest'
p1573
sg21
Nsg22
S'500'
p1574
sg24
S'2100'
p1575
sg26
S'De fleste bratte heng, Ogsaa i mindre bratt terreng'
p1576
sg28
Nsg29
g1316
sg31
S'5 - Svaert store'
p1577
sba(irunmatrix
M3Element
p1578
(dp1579
g3
Nsg4
S'Sannsynlig, Meget sannsynlig'
p1580
sg6
S'gray'
p1581
sg8
(lp1582
sg10
S'Likely'
p1583
sg12
S'Most'
p1584
sg14
g66
sg16
I0
sg17
S'High'
p1585
sg19
S'Stor tilleggsbelastning'
p1586
sg21
Nsg22
S'500'
p1587
sg24
S'2200'
p1588
sg26
S'De fleste bratte heng, Ogsaa i mindre bratt terreng'
p1589
sg28
Nsg29
g1316
sg31
S'5 - Svaert store'
p1590
sba(irunmatrix
M3Element
p1591
(dp1592
g3
Nsg4
S'Sannsynlig, Meget sannsynlig'
p1593
sg6
S'gray'
p1594
sg8
(lp1595
sg10
S'Likely'
p1596
sg12
S'Most'
p1597
sg14
g66
sg16
I0
sg17
S'Low'
p1598
sg19
S'Liten tilleggsbelastning'
p1599
sg21
Nsg22
S'500'
p1600
sg24
S'2300'
p1601
sg26
S'De fleste bratte heng, Ogsaa i mindre bratt terreng'
p1602
sg28
Nsg29
g1316
sg31
S'5 - Svaert store'
p1603
sba(irunmatrix
M3Element
p1604
(dp1605
g3
Nsg4
S'Sannsynlig, Meget sannsynlig'
p1606
sg6
S'white'
p1607
sg8
(lp1608
sg10
S'Likely'
p1609
sg12
S'Most'
p1610
sg14
g66
sg16
I0
sg17
S'Nat'
p1611
sg19
S'Naturlig utloest'
p1612
sg21
Nsg22
S'500'
p1613
sg24
S'2400'
p1614
sg26
S'De fleste bratte heng, Ogsaa i mindre bratt terreng'
p1615
sg28
Nsg29
g1316
sg31
S'5 - Svaert store'
p1616
sba.