(lp0
(irunmatrix
M3Element
p1
(dp2
S'danger_level_average'
p3
NsS'probability'
p4
S'Lite sannsynlig, Mulig'
p5
sS'colour'
p6
S'white'
p7
sS'danger_level_list'
p8
(lp9
sS'label_probalility'
p10
S'Possible'
p11
sS'label_distribution'
p12
S'Isolated'
p13
sS'recomended_colour'
p14
S'#ccff66'
p15
sS'recomended_danger_level'
p16
I1
sS'label_trigger'
p17
S'High'
p18
sS'trigger'
p19
S'Stor tilleggsbelastning'
p20
sS'occurrences'
p21
NsS'y'
p22
S'100'
p23
sS'x'
p24
S'100'
p25
sS'distribution'
p26
S'Isolerte faresoner'
p27
sS'danger_level_standard_dev'
p28
NsS'label_size'
p29
S'1'
p30
sS'avalanche_size'
p31
S'1 - Harmloest'
p32
sba(irunmatrix
M3Element
p33
(dp34
g3
Nsg4
S'Lite sannsynlig, Mulig'
p35
sg6
S'white'
p36
sg8
(lp37
sg10
S'Possible'
p38
sg12
S'Isolated'
p39
sg14
g15
sg16
I1
sg17
S'Low'
p40
sg19
S'Liten tilleggsbelastning'
p41
sg21
Nsg22
S'100'
p42
sg24
S'200'
p43
sg26
S'Isolerte faresoner'
p44
sg28
Nsg29
g30
sg31
S'1 - Harmloest'
p45
sba(irunmatrix
M3Element
p46
(dp47
g3
Nsg4
S'Lite sannsynlig, Mulig'
p48
sg6
S'white'
p49
sg8
(lp50
sg10
S'Possible'
p51
sg12
S'Isolated'
p52
sg14
g15
sg16
I1
sg17
S'Nat'
p53
sg19
S'Naturlig utloest'
p54
sg21
Nsg22
S'100'
p55
sg24
S'300'
p56
sg26
S'Isolerte faresoner'
p57
sg28
Nsg29
g30
sg31
S'1 - Harmloest'
p58
sba(irunmatrix
M3Element
p59
(dp60
g3
Nsg4
S'Sannsynlig, Meget sannsynlig'
p61
sg6
S'gray'
p62
sg8
(lp63
sg10
S'Likely'
p64
sg12
S'Isolated'
p65
sg14
S'gray'
p66
sg16
I0
sg17
S'High'
p67
sg19
S'Stor tilleggsbelastning'
p68
sg21
Nsg22
S'100'
p69
sg24
S'400'
p70
sg26
S'Isolerte faresoner'
p71
sg28
Nsg29
g30
sg31
S'1 - Harmloest'
p72
sba(irunmatrix
M3Element
p73
(dp74
g3
Nsg4
S'Sannsynlig, Meget sannsynlig'
p75
sg6
S'gray'
p76
sg8
(lp77
sg10
S'Likely'
p78
sg12
S'Isolated'
p79
sg14
g66
sg16
I0
sg17
S'Low'
p80
sg19
S'Liten tilleggsbelastning'
p81
sg21
Nsg22
S'100'
p82
sg24
S'500'
p83
sg26
S'Isolerte faresoner'
p84
sg28
Nsg29
g30
sg31
S'1 - Harmloest'
p85
sba(irunmatrix
M3Element
p86
(dp87
g3
Nsg4
S'Sannsynlig, Meget sannsynlig'
p88
sg6
S'gray'
p89
sg8
(lp90
sg10
S'Likely'
p91
sg12
S'Isolated'
p92
sg14
g66
sg16
I0
sg17
S'Nat'
p93
sg19
S'Naturlig utloest'
p94
sg21
Nsg22
S'100'
p95
sg24
S'600'
p96
sg26
S'Isolerte faresoner'
p97
sg28
Nsg29
g30
sg31
S'1 - Harmloest'
p98
sba(irunmatrix
M3Element
p99
(dp100
g3
Nsg4
S'Lite sannsynlig, Mulig'
p101
sg6
S'white'
p102
sg8
(lp103
sg10
S'Possible'
p104
sg12
S'Some'
p105
sg14
g15
sg16
I1
sg17
S'High'
p106
sg19
S'Stor tilleggsbelastning'
p107
sg21
Nsg22
S'100'
p108
sg24
S'700'
p109
sg26
S'Noen bratte heng'
p110
sg28
Nsg29
g30
sg31
S'1 - Harmloest'
p111
sba(irunmatrix
M3Element
p112
(dp113
g3
Nsg4
S'Lite sannsynlig, Mulig'
p114
sg6
S'white'
p115
sg8
(lp116
sg10
S'Possible'
p117
sg12
S'Some'
p118
sg14
g15
sg16
I1
sg17
S'Low'
p119
sg19
S'Liten tilleggsbelastning'
p120
sg21
Nsg22
S'100'
p121
sg24
S'800'
p122
sg26
S'Noen bratte heng'
p123
sg28
Nsg29
g30
sg31
S'1 - Harmloest'
p124
sba(irunmatrix
M3Element
p125
(dp126
g3
F1.2857142857142858
sg4
S'Lite sannsynlig, Mulig'
p127
sg6
S'#ccff66'
p128
sg8
(lp129
I1
aI1
aI1
aI1
aI1
aI2
aI2
asg10
S'Possible'
p130
sg12
S'Some'
p131
sg14
g15
sg16
I1
sg17
S'Nat'
p132
sg19
S'Naturlig utloest'
p133
sg21
I7
sg22
S'100'
p134
sg24
S'900'
p135
sg26
S'Noen bratte heng'
p136
sg28
cnumpy.core.multiarray
scalar
p137
(cnumpy
dtype
p138
(S'f8'
p139
I0
I1
tp140
Rp141
(I3
S'<'
p142
NNNI-1
I-1
I0
tp143
bS'\xa8\xfa\xd4g\x89\xe9\xdc?'
p144
tp145
Rp146
sg29
g30
sg31
S'1 - Harmloest'
p147
sba(irunmatrix
M3Element
p148
(dp149
g3
Nsg4
S'Sannsynlig, Meget sannsynlig'
p150
sg6
S'gray'
p151
sg8
(lp152
sg10
S'Likely'
p153
sg12
S'Some'
p154
sg14
g66
sg16
I0
sg17
S'High'
p155
sg19
S'Stor tilleggsbelastning'
p156
sg21
Nsg22
S'100'
p157
sg24
S'1000'
p158
sg26
S'Noen bratte heng'
p159
sg28
Nsg29
g30
sg31
S'1 - Harmloest'
p160
sba(irunmatrix
M3Element
p161
(dp162
g3
Nsg4
S'Sannsynlig, Meget sannsynlig'
p163
sg6
S'gray'
p164
sg8
(lp165
sg10
S'Likely'
p166
sg12
S'Some'
p167
sg14
g66
sg16
I0
sg17
S'Low'
p168
sg19
S'Liten tilleggsbelastning'
p169
sg21
Nsg22
S'100'
p170
sg24
S'1100'
p171
sg26
S'Noen bratte heng'
p172
sg28
Nsg29
g30
sg31
S'1 - Harmloest'
p173
sba(irunmatrix
M3Element
p174
(dp175
g3
Nsg4
S'Sannsynlig, Meget sannsynlig'
p176
sg6
S'white'
p177
sg8
(lp178
sg10
S'Likely'
p179
sg12
S'Some'
p180
sg14
g15
sg16
I1
sg17
S'Nat'
p181
sg19
S'Naturlig utloest'
p182
sg21
Nsg22
S'100'
p183
sg24
S'1200'
p184
sg26
S'Noen bratte heng'
p185
sg28
Nsg29
g30
sg31
S'1 - Harmloest'
p186
sba(irunmatrix
M3Element
p187
(dp188
g3
Nsg4
S'Lite sannsynlig, Mulig'
p189
sg6
S'gray'
p190
sg8
(lp191
sg10
S'Possible'
p192
sg12
S'Many'
p193
sg14
g66
sg16
I0
sg17
S'High'
p194
sg19
S'Stor tilleggsbelastning'
p195
sg21
Nsg22
S'100'
p196
sg24
S'1300'
p197
sg26
S'Mange bratte heng'
p198
sg28
Nsg29
g30
sg31
S'1 - Harmloest'
p199
sba(irunmatrix
M3Element
p200
(dp201
g3
Nsg4
S'Lite sannsynlig, Mulig'
p202
sg6
S'white'
p203
sg8
(lp204
sg10
S'Possible'
p205
sg12
S'Many'
p206
sg14
g15
sg16
I1
sg17
S'Low'
p207
sg19
S'Liten tilleggsbelastning'
p208
sg21
Nsg22
S'100'
p209
sg24
S'1400'
p210
sg26
S'Mange bratte heng'
p211
sg28
Nsg29
g30
sg31
S'1 - Harmloest'
p212
sba(irunmatrix
M3Element
p213
(dp214
g3
Nsg4
S'Lite sannsynlig, Mulig'
p215
sg6
S'gray'
p216
sg8
(lp217
sg10
S'Possible'
p218
sg12
S'Many'
p219
sg14
g66
sg16
I0
sg17
S'Nat'
p220
sg19
S'Naturlig utloest'
p221
sg21
Nsg22
S'100'
p222
sg24
S'1500'
p223
sg26
S'Mange bratte heng'
p224
sg28
Nsg29
g30
sg31
S'1 - Harmloest'
p225
sba(irunmatrix
M3Element
p226
(dp227
g3
Nsg4
S'Sannsynlig, Meget sannsynlig'
p228
sg6
S'gray'
p229
sg8
(lp230
sg10
S'Likely'
p231
sg12
S'Many'
p232
sg14
g66
sg16
I0
sg17
S'High'
p233
sg19
S'Stor tilleggsbelastning'
p234
sg21
Nsg22
S'100'
p235
sg24
S'1600'
p236
sg26
S'Mange bratte heng'
p237
sg28
Nsg29
g30
sg31
S'1 - Harmloest'
p238
sba(irunmatrix
M3Element
p239
(dp240
g3
Nsg4
S'Sannsynlig, Meget sannsynlig'
p241
sg6
S'white'
p242
sg8
(lp243
sg10
S'Likely'
p244
sg12
S'Many'
p245
sg14
S'#ffff00'
p246
sg16
I2
sg17
S'Low'
p247
sg19
S'Liten tilleggsbelastning'
p248
sg21
Nsg22
S'100'
p249
sg24
S'1700'
p250
sg26
S'Mange bratte heng'
p251
sg28
Nsg29
g30
sg31
S'1 - Harmloest'
p252
sba(irunmatrix
M3Element
p253
(dp254
g3
Nsg4
S'Sannsynlig, Meget sannsynlig'
p255
sg6
S'white'
p256
sg8
(lp257
sg10
S'Likely'
p258
sg12
S'Many'
p259
sg14
g246
sg16
I2
sg17
S'Nat'
p260
sg19
S'Naturlig utloest'
p261
sg21
Nsg22
S'100'
p262
sg24
S'1800'
p263
sg26
S'Mange bratte heng'
p264
sg28
Nsg29
g30
sg31
S'1 - Harmloest'
p265
sba(irunmatrix
M3Element
p266
(dp267
g3
Nsg4
S'Lite sannsynlig, Mulig'
p268
sg6
S'gray'
p269
sg8
(lp270
sg10
S'Possible'
p271
sg12
S'Most'
p272
sg14
g66
sg16
I0
sg17
S'High'
p273
sg19
S'Stor tilleggsbelastning'
p274
sg21
Nsg22
S'100'
p275
sg24
S'1900'
p276
sg26
S'De fleste bratte heng, Ogsaa i mindre bratt terreng'
p277
sg28
Nsg29
g30
sg31
S'1 - Harmloest'
p278
sba(irunmatrix
M3Element
p279
(dp280
g3
Nsg4
S'Lite sannsynlig, Mulig'
p281
sg6
S'gray'
p282
sg8
(lp283
sg10
S'Possible'
p284
sg12
S'Most'
p285
sg14
g66
sg16
I0
sg17
S'Low'
p286
sg19
S'Liten tilleggsbelastning'
p287
sg21
Nsg22
S'100'
p288
sg24
S'2000'
p289
sg26
S'De fleste bratte heng, Ogsaa i mindre bratt terreng'
p290
sg28
Nsg29
g30
sg31
S'1 - Harmloest'
p291
sba(irunmatrix
M3Element
p292
(dp293
g3
Nsg4
S'Lite sannsynlig, Mulig'
p294
sg6
S'gray'
p295
sg8
(lp296
sg10
S'Possible'
p297
sg12
S'Most'
p298
sg14
g66
sg16
I0
sg17
S'Nat'
p299
sg19
S'Naturlig utloest'
p300
sg21
Nsg22
S'100'
p301
sg24
S'2100'
p302
sg26
S'De fleste bratte heng, Ogsaa i mindre bratt terreng'
p303
sg28
Nsg29
g30
sg31
S'1 - Harmloest'
p304
sba(irunmatrix
M3Element
p305
(dp306
g3
Nsg4
S'Sannsynlig, Meget sannsynlig'
p307
sg6
S'gray'
p308
sg8
(lp309
sg10
S'Likely'
p310
sg12
S'Most'
p311
sg14
g66
sg16
I0
sg17
S'High'
p312
sg19
S'Stor tilleggsbelastning'
p313
sg21
Nsg22
S'100'
p314
sg24
S'2200'
p315
sg26
S'De fleste bratte heng, Ogsaa i mindre bratt terreng'
p316
sg28
Nsg29
g30
sg31
S'1 - Harmloest'
p317
sba(irunmatrix
M3Element
p318
(dp319
g3
Nsg4
S'Sannsynlig, Meget sannsynlig'
p320
sg6
S'gray'
p321
sg8
(lp322
sg10
S'Likely'
p323
sg12
S'Most'
p324
sg14
g66
sg16
I0
sg17
S'Low'
p325
sg19
S'Liten tilleggsbelastning'
p326
sg21
Nsg22
S'100'
p327
sg24
S'2300'
p328
sg26
S'De fleste bratte heng, Ogsaa i mindre bratt terreng'
p329
sg28
Nsg29
g30
sg31
S'1 - Harmloest'
p330
sba(irunmatrix
M3Element
p331
(dp332
g3
Nsg4
S'Sannsynlig, Meget sannsynlig'
p333
sg6
S'white'
p334
sg8
(lp335
sg10
S'Likely'
p336
sg12
S'Most'
p337
sg14
g66
sg16
I0
sg17
S'Nat'
p338
sg19
S'Naturlig utloest'
p339
sg21
Nsg22
S'100'
p340
sg24
S'2400'
p341
sg26
S'De fleste bratte heng, Ogsaa i mindre bratt terreng'
p342
sg28
Nsg29
S'2'
p343
sg31
S'1 - Harmloest'
p344
sba(irunmatrix
M3Element
p345
(dp346
g3
Nsg4
S'Lite sannsynlig, Mulig'
p347
sg6
S'white'
p348
sg8
(lp349
sg10
S'Possible'
p350
sg12
S'Isolated'
p351
sg14
g15
sg16
I1
sg17
S'High'
p352
sg19
S'Stor tilleggsbelastning'
p353
sg21
Nsg22
S'200'
p354
sg24
S'100'
p355
sg26
S'Isolerte faresoner'
p356
sg28
Nsg29
g343
sg31
S'2 - Smaa'
p357
sba(irunmatrix
M3Element
p358
(dp359
g3
F1.8
sg4
S'Lite sannsynlig, Mulig'
p360
sg6
S'#ffff00'
p361
sg8
(lp362
I3
aI3
aI1
aI1
aI1
asg10
S'Possible'
p363
sg12
S'Isolated'
p364
sg14
g15
sg16
I1
sg17
S'Low'
p365
sg19
S'Liten tilleggsbelastning'
p366
sg21
I5
sg22
S'200'
p367
sg24
S'200'
p368
sg26
S'Isolerte faresoner'
p369
sg28
g137
(g141
S'Kh\xdb\xec|Z\xef?'
p370
tp371
Rp372
sg29
g343
sg31
S'2 - Smaa'
p373
sba(irunmatrix
M3Element
p374
(dp375
g3
Nsg4
S'Lite sannsynlig, Mulig'
p376
sg6
S'white'
p377
sg8
(lp378
sg10
S'Possible'
p379
sg12
S'Isolated'
p380
sg14
g15
sg16
I1
sg17
S'Nat'
p381
sg19
S'Naturlig utloest'
p382
sg21
Nsg22
S'200'
p383
sg24
S'300'
p384
sg26
S'Isolerte faresoner'
p385
sg28
Nsg29
g343
sg31
S'2 - Smaa'
p386
sba(irunmatrix
M3Element
p387
(dp388
g3
Nsg4
S'Sannsynlig, Meget sannsynlig'
p389
sg6
S'gray'
p390
sg8
(lp391
sg10
S'Likely'
p392
sg12
S'Isolated'
p393
sg14
g66
sg16
I0
sg17
S'High'
p394
sg19
S'Stor tilleggsbelastning'
p395
sg21
Nsg22
S'200'
p396
sg24
S'400'
p397
sg26
S'Isolerte faresoner'
p398
sg28
Nsg29
g343
sg31
S'2 - Smaa'
p399
sba(irunmatrix
M3Element
p400
(dp401
g3
Nsg4
S'Sannsynlig, Meget sannsynlig'
p402
sg6
S'gray'
p403
sg8
(lp404
sg10
S'Likely'
p405
sg12
S'Isolated'
p406
sg14
g66
sg16
I0
sg17
S'Low'
p407
sg19
S'Liten tilleggsbelastning'
p408
sg21
Nsg22
S'200'
p409
sg24
S'500'
p410
sg26
S'Isolerte faresoner'
p411
sg28
Nsg29
g343
sg31
S'2 - Smaa'
p412
sba(irunmatrix
M3Element
p413
(dp414
g3
Nsg4
S'Sannsynlig, Meget sannsynlig'
p415
sg6
S'gray'
p416
sg8
(lp417
sg10
S'Likely'
p418
sg12
S'Isolated'
p419
sg14
g66
sg16
I0
sg17
S'Nat'
p420
sg19
S'Naturlig utloest'
p421
sg21
Nsg22
S'200'
p422
sg24
S'600'
p423
sg26
S'Isolerte faresoner'
p424
sg28
Nsg29
g343
sg31
S'2 - Smaa'
p425
sba(irunmatrix
M3Element
p426
(dp427
g3
F2.0
sg4
S'Lite sannsynlig, Mulig'
p428
sg6
g361
sg8
(lp429
I2
aI2
aI2
aI2
aI2
aI2
aI2
aI2
aI2
aI2
aI2
aI2
aI2
aI2
aI2
aI2
asg10
S'Possible'
p430
sg12
S'Some'
p431
sg14
g246
sg16
I2
sg17
S'High'
p432
sg19
S'Stor tilleggsbelastning'
p433
sg21
I16
sg22
S'200'
p434
sg24
S'700'
p435
sg26
S'Noen bratte heng'
p436
sg28
g137
(g141
S'\x00\x00\x00\x00\x00\x00\x00\x00'
p437
tp438
Rp439
sg29
g343
sg31
S'2 - Smaa'
p440
sba(irunmatrix
M3Element
p441
(dp442
g3
F2.086206896551724
sg4
S'Lite sannsynlig, Mulig'
p443
sg6
g361
sg8
(lp444
I2
aI2
aI2
aI2
aI2
aI2
aI2
aI2
aI2
aI2
aI2
aI3
aI3
aI3
aI2
aI2
aI3
aI3
aI2
aI2
aI1
aI2
aI2
aI3
aI2
aI2
aI2
aI2
aI2
aI2
aI2
aI2
aI2
aI2
aI2
aI2
aI2
aI2
aI2
aI2
aI2
aI2
aI2
aI2
aI2
aI2
aI2
aI2
aI2
aI2
aI2
aI2
aI2
aI2
aI2
aI2
aI2
aI2
asg10
S'Possible'
p445
sg12
S'Some'
p446
sg14
g246
sg16
I2
sg17
S'Low'
p447
sg19
S'Liten tilleggsbelastning'
p448
sg21
I58
sg22
S'200'
p449
sg24
S'800'
p450
sg26
S'Noen bratte heng'
p451
sg28
g137
(g141
S'\x83V)\xee\xd7\x89\xd5?'
p452
tp453
Rp454
sg29
g343
sg31
S'2 - Smaa'
p455
sba(irunmatrix
M3Element
p456
(dp457
g3
F2.0
sg4
S'Lite sannsynlig, Mulig'
p458
sg6
g361
sg8
(lp459
I2
aI2
aI2
aI2
aI2
aI2
asg10
S'Possible'
p460
sg12
S'Some'
p461
sg14
g246
sg16
I2
sg17
S'Nat'
p462
sg19
S'Naturlig utloest'
p463
sg21
I6
sg22
S'200'
p464
sg24
S'900'
p465
sg26
S'Noen bratte heng'
p466
sg28
g137
(g141
S'\x00\x00\x00\x00\x00\x00\x00\x00'
p467
tp468
Rp469
sg29
g343
sg31
S'2 - Smaa'
p470
sba(irunmatrix
M3Element
p471
(dp472
g3
Nsg4
S'Sannsynlig, Meget sannsynlig'
p473
sg6
S'gray'
p474
sg8
(lp475
sg10
S'Likely'
p476
sg12
S'Some'
p477
sg14
g66
sg16
I0
sg17
S'High'
p478
sg19
S'Stor tilleggsbelastning'
p479
sg21
Nsg22
S'200'
p480
sg24
S'1000'
p481
sg26
S'Noen bratte heng'
p482
sg28
Nsg29
g343
sg31
S'2 - Smaa'
p483
sba(irunmatrix
M3Element
p484
(dp485
g3
Nsg4
S'Sannsynlig, Meget sannsynlig'
p486
sg6
S'gray'
p487
sg8
(lp488
sg10
S'Likely'
p489
sg12
S'Some'
p490
sg14
g66
sg16
I0
sg17
S'Low'
p491
sg19
S'Liten tilleggsbelastning'
p492
sg21
Nsg22
S'200'
p493
sg24
S'1100'
p494
sg26
S'Noen bratte heng'
p495
sg28
Nsg29
g343
sg31
S'2 - Smaa'
p496
sba(irunmatrix
M3Element
p497
(dp498
g3
Nsg4
S'Sannsynlig, Meget sannsynlig'
p499
sg6
S'white'
p500
sg8
(lp501
sg10
S'Likely'
p502
sg12
S'Some'
p503
sg14
S'#ff9900'
p504
sg16
I3
sg17
S'Nat'
p505
sg19
S'Naturlig utloest'
p506
sg21
Nsg22
S'200'
p507
sg24
S'1200'
p508
sg26
S'Noen bratte heng'
p509
sg28
Nsg29
g343
sg31
S'2 - Smaa'
p510
sba(irunmatrix
M3Element
p511
(dp512
g3
F2.0
sg4
S'Lite sannsynlig, Mulig'
p513
sg6
g361
sg8
(lp514
I2
aI2
asg10
S'Possible'
p515
sg12
S'Many'
p516
sg14
g66
sg16
I0
sg17
S'High'
p517
sg19
S'Stor tilleggsbelastning'
p518
sg21
I2
sg22
S'200'
p519
sg24
S'1300'
p520
sg26
S'Mange bratte heng'
p521
sg28
g137
(g141
S'\x00\x00\x00\x00\x00\x00\x00\x00'
p522
tp523
Rp524
sg29
g343
sg31
S'2 - Smaa'
p525
sba(irunmatrix
M3Element
p526
(dp527
g3
F3.0
sg4
S'Lite sannsynlig, Mulig'
p528
sg6
S'#ff9900'
p529
sg8
(lp530
I3
aI3
aI3
aI3
aI3
aI3
aI3
aI3
aI3
aI3
aI3
aI3
aI3
aI3
aI3
asg10
S'Possible'
p531
sg12
S'Many'
p532
sg14
g504
sg16
I3
sg17
S'Low'
p533
sg19
S'Liten tilleggsbelastning'
p534
sg21
I15
sg22
S'200'
p535
sg24
S'1400'
p536
sg26
S'Mange bratte heng'
p537
sg28
g137
(g141
S'\x00\x00\x00\x00\x00\x00\x00\x00'
p538
tp539
Rp540
sg29
g343
sg31
S'2 - Smaa'
p541
sba(irunmatrix
M3Element
p542
(dp543
g3
Nsg4
S'Lite sannsynlig, Mulig'
p544
sg6
S'gray'
p545
sg8
(lp546
sg10
S'Possible'
p547
sg12
S'Many'
p548
sg14
g66
sg16
I0
sg17
S'Nat'
p549
sg19
S'Naturlig utloest'
p550
sg21
Nsg22
S'200'
p551
sg24
S'1500'
p552
sg26
S'Mange bratte heng'
p553
sg28
Nsg29
g343
sg31
S'2 - Smaa'
p554
sba(irunmatrix
M3Element
p555
(dp556
g3
Nsg4
S'Sannsynlig, Meget sannsynlig'
p557
sg6
S'gray'
p558
sg8
(lp559
sg10
S'Likely'
p560
sg12
S'Many'
p561
sg14
g66
sg16
I0
sg17
S'High'
p562
sg19
S'Stor tilleggsbelastning'
p563
sg21
Nsg22
S'200'
p564
sg24
S'1600'
p565
sg26
S'Mange bratte heng'
p566
sg28
Nsg29
g343
sg31
S'2 - Smaa'
p567
sba(irunmatrix
M3Element
p568
(dp569
g3
Nsg4
S'Sannsynlig, Meget sannsynlig'
p570
sg6
S'white'
p571
sg8
(lp572
sg10
S'Likely'
p573
sg12
S'Many'
p574
sg14
S'#ff0000'
p575
sg16
I4
sg17
S'Low'
p576
sg19
S'Liten tilleggsbelastning'
p577
sg21
Nsg22
S'200'
p578
sg24
S'1700'
p579
sg26
S'Mange bratte heng'
p580
sg28
Nsg29
g343
sg31
S'2 - Smaa'
p581
sba(irunmatrix
M3Element
p582
(dp583
g3
F3.0
sg4
S'Sannsynlig, Meget sannsynlig'
p584
sg6
g529
sg8
(lp585
I3
aI3
aI3
aI3
aI3
aI3
aI3
aI3
aI3
aI3
asg10
S'Likely'
p586
sg12
S'Many'
p587
sg14
g575
sg16
I4
sg17
S'Nat'
p588
sg19
S'Naturlig utloest'
p589
sg21
I10
sg22
S'200'
p590
sg24
S'1800'
p591
sg26
S'Mange bratte heng'
p592
sg28
g137
(g141
S'\x00\x00\x00\x00\x00\x00\x00\x00'
p593
tp594
Rp595
sg29
g343
sg31
S'2 - Smaa'
p596
sba(irunmatrix
M3Element
p597
(dp598
g3
Nsg4
S'Lite sannsynlig, Mulig'
p599
sg6
S'gray'
p600
sg8
(lp601
sg10
S'Possible'
p602
sg12
S'Most'
p603
sg14
g66
sg16
I0
sg17
S'High'
p604
sg19
S'Stor tilleggsbelastning'
p605
sg21
Nsg22
S'200'
p606
sg24
S'1900'
p607
sg26
S'De fleste bratte heng, Ogsaa i mindre bratt terreng'
p608
sg28
Nsg29
g343
sg31
S'2 - Smaa'
p609
sba(irunmatrix
M3Element
p610
(dp611
g3
Nsg4
S'Lite sannsynlig, Mulig'
p612
sg6
S'gray'
p613
sg8
(lp614
sg10
S'Possible'
p615
sg12
S'Most'
p616
sg14
g66
sg16
I0
sg17
S'Low'
p617
sg19
S'Liten tilleggsbelastning'
p618
sg21
Nsg22
S'200'
p619
sg24
S'2000'
p620
sg26
S'De fleste bratte heng, Ogsaa i mindre bratt terreng'
p621
sg28
Nsg29
g343
sg31
S'2 - Smaa'
p622
sba(irunmatrix
M3Element
p623
(dp624
g3
Nsg4
S'Lite sannsynlig, Mulig'
p625
sg6
S'gray'
p626
sg8
(lp627
sg10
S'Possible'
p628
sg12
S'Most'
p629
sg14
g66
sg16
I0
sg17
S'Nat'
p630
sg19
S'Naturlig utloest'
p631
sg21
Nsg22
S'200'
p632
sg24
S'2100'
p633
sg26
S'De fleste bratte heng, Ogsaa i mindre bratt terreng'
p634
sg28
Nsg29
g343
sg31
S'2 - Smaa'
p635
sba(irunmatrix
M3Element
p636
(dp637
g3
Nsg4
S'Sannsynlig, Meget sannsynlig'
p638
sg6
S'gray'
p639
sg8
(lp640
sg10
S'Likely'
p641
sg12
S'Most'
p642
sg14
g66
sg16
I0
sg17
S'High'
p643
sg19
S'Stor tilleggsbelastning'
p644
sg21
Nsg22
S'200'
p645
sg24
S'2200'
p646
sg26
S'De fleste bratte heng, Ogsaa i mindre bratt terreng'
p647
sg28
Nsg29
g343
sg31
S'2 - Smaa'
p648
sba(irunmatrix
M3Element
p649
(dp650
g3
Nsg4
S'Sannsynlig, Meget sannsynlig'
p651
sg6
S'gray'
p652
sg8
(lp653
sg10
S'Likely'
p654
sg12
S'Most'
p655
sg14
g66
sg16
I0
sg17
S'Low'
p656
sg19
S'Liten tilleggsbelastning'
p657
sg21
Nsg22
S'200'
p658
sg24
S'2300'
p659
sg26
S'De fleste bratte heng, Ogsaa i mindre bratt terreng'
p660
sg28
Nsg29
g343
sg31
S'2 - Smaa'
p661
sba(irunmatrix
M3Element
p662
(dp663
g3
Nsg4
S'Sannsynlig, Meget sannsynlig'
p664
sg6
S'white'
p665
sg8
(lp666
sg10
S'Likely'
p667
sg12
S'Most'
p668
sg14
g66
sg16
I0
sg17
S'Nat'
p669
sg19
S'Naturlig utloest'
p670
sg21
Nsg22
S'200'
p671
sg24
S'2400'
p672
sg26
S'De fleste bratte heng, Ogsaa i mindre bratt terreng'
p673
sg28
Nsg29
g343
sg31
S'2 - Smaa'
p674
sba(irunmatrix
M3Element
p675
(dp676
g3
Nsg4
S'Lite sannsynlig, Mulig'
p677
sg6
S'white'
p678
sg8
(lp679
sg10
S'Possible'
p680
sg12
S'Isolated'
p681
sg14
g15
sg16
I1
sg17
S'High'
p682
sg19
S'Stor tilleggsbelastning'
p683
sg21
Nsg22
S'300'
p684
sg24
S'100'
p685
sg26
S'Isolerte faresoner'
p686
sg28
Nsg29
S'3'
p687
sg31
S'3 - Middels'
p688
sba(irunmatrix
M3Element
p689
(dp690
g3
Nsg4
S'Lite sannsynlig, Mulig'
p691
sg6
S'white'
p692
sg8
(lp693
sg10
S'Possible'
p694
sg12
S'Isolated'
p695
sg14
g246
sg16
I2
sg17
S'Low'
p696
sg19
S'Liten tilleggsbelastning'
p697
sg21
Nsg22
S'300'
p698
sg24
S'200'
p699
sg26
S'Isolerte faresoner'
p700
sg28
Nsg29
g687
sg31
S'3 - Middels'
p701
sba(irunmatrix
M3Element
p702
(dp703
g3
Nsg4
S'Lite sannsynlig, Mulig'
p704
sg6
S'white'
p705
sg8
(lp706
sg10
S'Possible'
p707
sg12
S'Isolated'
p708
sg14
g246
sg16
I2
sg17
S'Nat'
p709
sg19
S'Naturlig utloest'
p710
sg21
Nsg22
S'300'
p711
sg24
S'300'
p712
sg26
S'Isolerte faresoner'
p713
sg28
Nsg29
g687
sg31
S'3 - Middels'
p714
sba(irunmatrix
M3Element
p715
(dp716
g3
Nsg4
S'Sannsynlig, Meget sannsynlig'
p717
sg6
S'gray'
p718
sg8
(lp719
sg10
S'Likely'
p720
sg12
S'Isolated'
p721
sg14
g66
sg16
I0
sg17
S'High'
p722
sg19
S'Stor tilleggsbelastning'
p723
sg21
Nsg22
S'300'
p724
sg24
S'400'
p725
sg26
S'Isolerte faresoner'
p726
sg28
Nsg29
g687
sg31
S'3 - Middels'
p727
sba(irunmatrix
M3Element
p728
(dp729
g3
Nsg4
S'Sannsynlig, Meget sannsynlig'
p730
sg6
S'gray'
p731
sg8
(lp732
sg10
S'Likely'
p733
sg12
S'Isolated'
p734
sg14
g66
sg16
I0
sg17
S'Low'
p735
sg19
S'Liten tilleggsbelastning'
p736
sg21
Nsg22
S'300'
p737
sg24
S'500'
p738
sg26
S'Isolerte faresoner'
p739
sg28
Nsg29
g687
sg31
S'3 - Middels'
p740
sba(irunmatrix
M3Element
p741
(dp742
g3
Nsg4
S'Sannsynlig, Meget sannsynlig'
p743
sg6
S'gray'
p744
sg8
(lp745
sg10
S'Likely'
p746
sg12
S'Isolated'
p747
sg14
g66
sg16
I0
sg17
S'Nat'
p748
sg19
S'Naturlig utloest'
p749
sg21
Nsg22
S'300'
p750
sg24
S'600'
p751
sg26
S'Isolerte faresoner'
p752
sg28
Nsg29
g687
sg31
S'3 - Middels'
p753
sba(irunmatrix
M3Element
p754
(dp755
g3
F2.0
sg4
S'Lite sannsynlig, Mulig'
p756
sg6
g361
sg8
(lp757
I2
aI2
asg10
S'Possible'
p758
sg12
S'Some'
p759
sg14
g246
sg16
I2
sg17
S'High'
p760
sg19
S'Stor tilleggsbelastning'
p761
sg21
I2
sg22
S'300'
p762
sg24
S'700'
p763
sg26
S'Noen bratte heng'
p764
sg28
g137
(g141
S'\x00\x00\x00\x00\x00\x00\x00\x00'
p765
tp766
Rp767
sg29
g687
sg31
S'3 - Middels'
p768
sba(irunmatrix
M3Element
p769
(dp770
g3
F2.888888888888889
sg4
S'Lite sannsynlig, Mulig'
p771
sg6
g529
sg8
(lp772
I3
aI3
aI3
aI3
aI2
aI3
aI3
aI3
aI3
asg10
S'Possible'
p773
sg12
S'Some'
p774
sg14
g504
sg16
I3
sg17
S'Low'
p775
sg19
S'Liten tilleggsbelastning'
p776
sg21
I9
sg22
S'300'
p777
sg24
S'800'
p778
sg26
S'Noen bratte heng'
p779
sg28
g137
(g141
S'\x9aQ\xff\x93\xfe\x1c\xd4?'
p780
tp781
Rp782
sg29
g687
sg31
S'3 - Middels'
p783
sba(irunmatrix
M3Element
p784
(dp785
g3
F3.0
sg4
S'Lite sannsynlig, Mulig'
p786
sg6
g529
sg8
(lp787
I3
asg10
S'Possible'
p788
sg12
S'Some'
p789
sg14
g504
sg16
I3
sg17
S'Nat'
p790
sg19
S'Naturlig utloest'
p791
sg21
I1
sg22
S'300'
p792
sg24
S'900'
p793
sg26
S'Noen bratte heng'
p794
sg28
g137
(g141
S'\x00\x00\x00\x00\x00\x00\x00\x00'
p795
tp796
Rp797
sg29
g687
sg31
S'3 - Middels'
p798
sba(irunmatrix
M3Element
p799
(dp800
g3
Nsg4
S'Sannsynlig, Meget sannsynlig'
p801
sg6
S'gray'
p802
sg8
(lp803
sg10
S'Likely'
p804
sg12
S'Some'
p805
sg14
g66
sg16
I0
sg17
S'High'
p806
sg19
S'Stor tilleggsbelastning'
p807
sg21
Nsg22
S'300'
p808
sg24
S'1000'
p809
sg26
S'Noen bratte heng'
p810
sg28
Nsg29
g687
sg31
S'3 - Middels'
p811
sba(irunmatrix
M3Element
p812
(dp813
g3
Nsg4
S'Sannsynlig, Meget sannsynlig'
p814
sg6
S'gray'
p815
sg8
(lp816
sg10
S'Likely'
p817
sg12
S'Some'
p818
sg14
g66
sg16
I0
sg17
S'Low'
p819
sg19
S'Liten tilleggsbelastning'
p820
sg21
Nsg22
S'300'
p821
sg24
S'1100'
p822
sg26
S'Noen bratte heng'
p823
sg28
Nsg29
g687
sg31
S'3 - Middels'
p824
sba(irunmatrix
M3Element
p825
(dp826
g3
Nsg4
S'Sannsynlig, Meget sannsynlig'
p827
sg6
S'white'
p828
sg8
(lp829
sg10
S'Likely'
p830
sg12
S'Some'
p831
sg14
g575
sg16
I4
sg17
S'Nat'
p832
sg19
S'Naturlig utloest'
p833
sg21
Nsg22
S'300'
p834
sg24
S'1200'
p835
sg26
S'Noen bratte heng'
p836
sg28
Nsg29
g687
sg31
S'3 - Middels'
p837
sba(irunmatrix
M3Element
p838
(dp839
g3
Nsg4
S'Lite sannsynlig, Mulig'
p840
sg6
S'gray'
p841
sg8
(lp842
sg10
S'Possible'
p843
sg12
S'Many'
p844
sg14
g66
sg16
I0
sg17
S'High'
p845
sg19
S'Stor tilleggsbelastning'
p846
sg21
Nsg22
S'300'
p847
sg24
S'1300'
p848
sg26
S'Mange bratte heng'
p849
sg28
Nsg29
g687
sg31
S'3 - Middels'
p850
sba(irunmatrix
M3Element
p851
(dp852
g3
Nsg4
S'Lite sannsynlig, Mulig'
p853
sg6
S'white'
p854
sg8
(lp855
sg10
S'Possible'
p856
sg12
S'Many'
p857
sg14
g575
sg16
I4
sg17
S'Low'
p858
sg19
S'Liten tilleggsbelastning'
p859
sg21
Nsg22
S'300'
p860
sg24
S'1400'
p861
sg26
S'Mange bratte heng'
p862
sg28
Nsg29
g687
sg31
S'3 - Middels'
p863
sba(irunmatrix
M3Element
p864
(dp865
g3
Nsg4
S'Lite sannsynlig, Mulig'
p866
sg6
S'gray'
p867
sg8
(lp868
sg10
S'Possible'
p869
sg12
S'Many'
p870
sg14
g66
sg16
I0
sg17
S'Nat'
p871
sg19
S'Naturlig utloest'
p872
sg21
Nsg22
S'300'
p873
sg24
S'1500'
p874
sg26
S'Mange bratte heng'
p875
sg28
Nsg29
g687
sg31
S'3 - Middels'
p876
sba(irunmatrix
M3Element
p877
(dp878
g3
Nsg4
S'Sannsynlig, Meget sannsynlig'
p879
sg6
S'gray'
p880
sg8
(lp881
sg10
S'Likely'
p882
sg12
S'Many'
p883
sg14
g66
sg16
I0
sg17
S'High'
p884
sg19
S'Stor tilleggsbelastning'
p885
sg21
Nsg22
S'300'
p886
sg24
S'1600'
p887
sg26
S'Mange bratte heng'
p888
sg28
Nsg29
g687
sg31
S'3 - Middels'
p889
sba(irunmatrix
M3Element
p890
(dp891
g3
Nsg4
S'Sannsynlig, Meget sannsynlig'
p892
sg6
S'white'
p893
sg8
(lp894
sg10
S'Likely'
p895
sg12
S'Many'
p896
sg14
g575
sg16
I4
sg17
S'Low'
p897
sg19
S'Liten tilleggsbelastning'
p898
sg21
Nsg22
S'300'
p899
sg24
S'1700'
p900
sg26
S'Mange bratte heng'
p901
sg28
Nsg29
g687
sg31
S'3 - Middels'
p902
sba(irunmatrix
M3Element
p903
(dp904
g3
Nsg4
S'Sannsynlig, Meget sannsynlig'
p905
sg6
S'white'
p906
sg8
(lp907
sg10
S'Likely'
p908
sg12
S'Many'
p909
sg14
g575
sg16
I4
sg17
S'Nat'
p910
sg19
S'Naturlig utloest'
p911
sg21
Nsg22
S'300'
p912
sg24
S'1800'
p913
sg26
S'Mange bratte heng'
p914
sg28
Nsg29
g687
sg31
S'3 - Middels'
p915
sba(irunmatrix
M3Element
p916
(dp917
g3
Nsg4
S'Lite sannsynlig, Mulig'
p918
sg6
S'gray'
p919
sg8
(lp920
sg10
S'Possible'
p921
sg12
S'Most'
p922
sg14
g66
sg16
I0
sg17
S'High'
p923
sg19
S'Stor tilleggsbelastning'
p924
sg21
Nsg22
S'300'
p925
sg24
S'1900'
p926
sg26
S'De fleste bratte heng, Ogsaa i mindre bratt terreng'
p927
sg28
Nsg29
g687
sg31
S'3 - Middels'
p928
sba(irunmatrix
M3Element
p929
(dp930
g3
Nsg4
S'Lite sannsynlig, Mulig'
p931
sg6
S'gray'
p932
sg8
(lp933
sg10
S'Possible'
p934
sg12
S'Most'
p935
sg14
g66
sg16
I0
sg17
S'Low'
p936
sg19
S'Liten tilleggsbelastning'
p937
sg21
Nsg22
S'300'
p938
sg24
S'2000'
p939
sg26
S'De fleste bratte heng, Ogsaa i mindre bratt terreng'
p940
sg28
Nsg29
g687
sg31
S'3 - Middels'
p941
sba(irunmatrix
M3Element
p942
(dp943
g3
Nsg4
S'Lite sannsynlig, Mulig'
p944
sg6
S'gray'
p945
sg8
(lp946
sg10
S'Possible'
p947
sg12
S'Most'
p948
sg14
g66
sg16
I0
sg17
S'Nat'
p949
sg19
S'Naturlig utloest'
p950
sg21
Nsg22
S'300'
p951
sg24
S'2100'
p952
sg26
S'De fleste bratte heng, Ogsaa i mindre bratt terreng'
p953
sg28
Nsg29
g687
sg31
S'3 - Middels'
p954
sba(irunmatrix
M3Element
p955
(dp956
g3
Nsg4
S'Sannsynlig, Meget sannsynlig'
p957
sg6
S'gray'
p958
sg8
(lp959
sg10
S'Likely'
p960
sg12
S'Most'
p961
sg14
g66
sg16
I0
sg17
S'High'
p962
sg19
S'Stor tilleggsbelastning'
p963
sg21
Nsg22
S'300'
p964
sg24
S'2200'
p965
sg26
S'De fleste bratte heng, Ogsaa i mindre bratt terreng'
p966
sg28
Nsg29
g687
sg31
S'3 - Middels'
p967
sba(irunmatrix
M3Element
p968
(dp969
g3
Nsg4
S'Sannsynlig, Meget sannsynlig'
p970
sg6
S'gray'
p971
sg8
(lp972
sg10
S'Likely'
p973
sg12
S'Most'
p974
sg14
g66
sg16
I0
sg17
S'Low'
p975
sg19
S'Liten tilleggsbelastning'
p976
sg21
Nsg22
S'300'
p977
sg24
S'2300'
p978
sg26
S'De fleste bratte heng, Ogsaa i mindre bratt terreng'
p979
sg28
Nsg29
g687
sg31
S'3 - Middels'
p980
sba(irunmatrix
M3Element
p981
(dp982
g3
Nsg4
S'Sannsynlig, Meget sannsynlig'
p983
sg6
S'white'
p984
sg8
(lp985
sg10
S'Likely'
p986
sg12
S'Most'
p987
sg14
g66
sg16
I0
sg17
S'Nat'
p988
sg19
S'Naturlig utloest'
p989
sg21
Nsg22
S'300'
p990
sg24
S'2400'
p991
sg26
S'De fleste bratte heng, Ogsaa i mindre bratt terreng'
p992
sg28
Nsg29
g687
sg31
S'3 - Middels'
p993
sba(irunmatrix
M3Element
p994
(dp995
g3
Nsg4
S'Lite sannsynlig, Mulig'
p996
sg6
S'white'
p997
sg8
(lp998
sg10
S'Possible'
p999
sg12
S'Isolated'
p1000
sg14
g246
sg16
I2
sg17
S'High'
p1001
sg19
S'Stor tilleggsbelastning'
p1002
sg21
Nsg22
S'400'
p1003
sg24
S'100'
p1004
sg26
S'Isolerte faresoner'
p1005
sg28
Nsg29
S'4'
p1006
sg31
S'4 - Store'
p1007
sba(irunmatrix
M3Element
p1008
(dp1009
g3
Nsg4
S'Lite sannsynlig, Mulig'
p1010
sg6
S'white'
p1011
sg8
(lp1012
sg10
S'Possible'
p1013
sg12
S'Isolated'
p1014
sg14
g504
sg16
I3
sg17
S'Low'
p1015
sg19
S'Liten tilleggsbelastning'
p1016
sg21
Nsg22
S'400'
p1017
sg24
S'200'
p1018
sg26
S'Isolerte faresoner'
p1019
sg28
Nsg29
g1006
sg31
S'4 - Store'
p1020
sba(irunmatrix
M3Element
p1021
(dp1022
g3
Nsg4
S'Lite sannsynlig, Mulig'
p1023
sg6
S'white'
p1024
sg8
(lp1025
sg10
S'Possible'
p1026
sg12
S'Isolated'
p1027
sg14
g504
sg16
I3
sg17
S'Nat'
p1028
sg19
S'Naturlig utloest'
p1029
sg21
Nsg22
S'400'
p1030
sg24
S'300'
p1031
sg26
S'Isolerte faresoner'
p1032
sg28
Nsg29
g1006
sg31
S'4 - Store'
p1033
sba(irunmatrix
M3Element
p1034
(dp1035
g3
Nsg4
S'Sannsynlig, Meget sannsynlig'
p1036
sg6
S'gray'
p1037
sg8
(lp1038
sg10
S'Likely'
p1039
sg12
S'Isolated'
p1040
sg14
g66
sg16
I0
sg17
S'High'
p1041
sg19
S'Stor tilleggsbelastning'
p1042
sg21
Nsg22
S'400'
p1043
sg24
S'400'
p1044
sg26
S'Isolerte faresoner'
p1045
sg28
Nsg29
g1006
sg31
S'4 - Store'
p1046
sba(irunmatrix
M3Element
p1047
(dp1048
g3
Nsg4
S'Sannsynlig, Meget sannsynlig'
p1049
sg6
S'gray'
p1050
sg8
(lp1051
sg10
S'Likely'
p1052
sg12
S'Isolated'
p1053
sg14
g66
sg16
I0
sg17
S'Low'
p1054
sg19
S'Liten tilleggsbelastning'
p1055
sg21
Nsg22
S'400'
p1056
sg24
S'500'
p1057
sg26
S'Isolerte faresoner'
p1058
sg28
Nsg29
g1006
sg31
S'4 - Store'
p1059
sba(irunmatrix
M3Element
p1060
(dp1061
g3
Nsg4
S'Sannsynlig, Meget sannsynlig'
p1062
sg6
S'gray'
p1063
sg8
(lp1064
sg10
S'Likely'
p1065
sg12
S'Isolated'
p1066
sg14
g66
sg16
I0
sg17
S'Nat'
p1067
sg19
S'Naturlig utloest'
p1068
sg21
Nsg22
S'400'
p1069
sg24
S'600'
p1070
sg26
S'Isolerte faresoner'
p1071
sg28
Nsg29
g1006
sg31
S'4 - Store'
p1072
sba(irunmatrix
M3Element
p1073
(dp1074
g3
Nsg4
S'Lite sannsynlig, Mulig'
p1075
sg6
S'white'
p1076
sg8
(lp1077
sg10
S'Possible'
p1078
sg12
S'Some'
p1079
sg14
g504
sg16
I3
sg17
S'High'
p1080
sg19
S'Stor tilleggsbelastning'
p1081
sg21
Nsg22
S'400'
p1082
sg24
S'700'
p1083
sg26
S'Noen bratte heng'
p1084
sg28
Nsg29
g1006
sg31
S'4 - Store'
p1085
sba(irunmatrix
M3Element
p1086
(dp1087
g3
Nsg4
S'Lite sannsynlig, Mulig'
p1088
sg6
S'white'
p1089
sg8
(lp1090
sg10
S'Possible'
p1091
sg12
S'Some'
p1092
sg14
g575
sg16
I4
sg17
S'Low'
p1093
sg19
S'Liten tilleggsbelastning'
p1094
sg21
Nsg22
S'400'
p1095
sg24
S'800'
p1096
sg26
S'Noen bratte heng'
p1097
sg28
Nsg29
g1006
sg31
S'4 - Store'
p1098
sba(irunmatrix
M3Element
p1099
(dp1100
g3
Nsg4
S'Lite sannsynlig, Mulig'
p1101
sg6
S'white'
p1102
sg8
(lp1103
sg10
S'Possible'
p1104
sg12
S'Some'
p1105
sg14
g575
sg16
I4
sg17
S'Nat'
p1106
sg19
S'Naturlig utloest'
p1107
sg21
Nsg22
S'400'
p1108
sg24
S'900'
p1109
sg26
S'Noen bratte heng'
p1110
sg28
Nsg29
g1006
sg31
S'4 - Store'
p1111
sba(irunmatrix
M3Element
p1112
(dp1113
g3
Nsg4
S'Sannsynlig, Meget sannsynlig'
p1114
sg6
S'gray'
p1115
sg8
(lp1116
sg10
S'Likely'
p1117
sg12
S'Some'
p1118
sg14
g66
sg16
I0
sg17
S'High'
p1119
sg19
S'Stor tilleggsbelastning'
p1120
sg21
Nsg22
S'400'
p1121
sg24
S'1000'
p1122
sg26
S'Noen bratte heng'
p1123
sg28
Nsg29
g1006
sg31
S'4 - Store'
p1124
sba(irunmatrix
M3Element
p1125
(dp1126
g3
Nsg4
S'Sannsynlig, Meget sannsynlig'
p1127
sg6
S'gray'
p1128
sg8
(lp1129
sg10
S'Likely'
p1130
sg12
S'Some'
p1131
sg14
g66
sg16
I0
sg17
S'Low'
p1132
sg19
S'Liten tilleggsbelastning'
p1133
sg21
Nsg22
S'400'
p1134
sg24
S'1100'
p1135
sg26
S'Noen bratte heng'
p1136
sg28
Nsg29
g1006
sg31
S'4 - Store'
p1137
sba(irunmatrix
M3Element
p1138
(dp1139
g3
Nsg4
S'Sannsynlig, Meget sannsynlig'
p1140
sg6
S'white'
p1141
sg8
(lp1142
sg10
S'Likely'
p1143
sg12
S'Some'
p1144
sg14
g575
sg16
I4
sg17
S'Nat'
p1145
sg19
S'Naturlig utloest'
p1146
sg21
Nsg22
S'400'
p1147
sg24
S'1200'
p1148
sg26
S'Noen bratte heng'
p1149
sg28
Nsg29
g1006
sg31
S'4 - Store'
p1150
sba(irunmatrix
M3Element
p1151
(dp1152
g3
Nsg4
S'Lite sannsynlig, Mulig'
p1153
sg6
S'gray'
p1154
sg8
(lp1155
sg10
S'Possible'
p1156
sg12
S'Many'
p1157
sg14
g66
sg16
I0
sg17
S'High'
p1158
sg19
S'Stor tilleggsbelastning'
p1159
sg21
Nsg22
S'400'
p1160
sg24
S'1300'
p1161
sg26
S'Mange bratte heng'
p1162
sg28
Nsg29
g1006
sg31
S'4 - Store'
p1163
sba(irunmatrix
M3Element
p1164
(dp1165
g3
Nsg4
S'Lite sannsynlig, Mulig'
p1166
sg6
S'white'
p1167
sg8
(lp1168
sg10
S'Possible'
p1169
sg12
S'Many'
p1170
sg14
g66
sg16
I0
sg17
S'Low'
p1171
sg19
S'Liten tilleggsbelastning'
p1172
sg21
Nsg22
S'400'
p1173
sg24
S'1400'
p1174
sg26
S'Mange bratte heng'
p1175
sg28
Nsg29
g1006
sg31
S'4 - Store'
p1176
sba(irunmatrix
M3Element
p1177
(dp1178
g3
Nsg4
S'Lite sannsynlig, Mulig'
p1179
sg6
S'gray'
p1180
sg8
(lp1181
sg10
S'Possible'
p1182
sg12
S'Many'
p1183
sg14
g66
sg16
I0
sg17
S'Nat'
p1184
sg19
S'Naturlig utloest'
p1185
sg21
Nsg22
S'400'
p1186
sg24
S'1500'
p1187
sg26
S'Mange bratte heng'
p1188
sg28
Nsg29
g1006
sg31
S'4 - Store'
p1189
sba(irunmatrix
M3Element
p1190
(dp1191
g3
Nsg4
S'Sannsynlig, Meget sannsynlig'
p1192
sg6
S'gray'
p1193
sg8
(lp1194
sg10
S'Likely'
p1195
sg12
S'Many'
p1196
sg14
g66
sg16
I0
sg17
S'High'
p1197
sg19
S'Stor tilleggsbelastning'
p1198
sg21
Nsg22
S'400'
p1199
sg24
S'1600'
p1200
sg26
S'Mange bratte heng'
p1201
sg28
Nsg29
g1006
sg31
S'4 - Store'
p1202
sba(irunmatrix
M3Element
p1203
(dp1204
g3
Nsg4
S'Sannsynlig, Meget sannsynlig'
p1205
sg6
S'white'
p1206
sg8
(lp1207
sg10
S'Likely'
p1208
sg12
S'Many'
p1209
sg14
g66
sg16
I0
sg17
S'Low'
p1210
sg19
S'Liten tilleggsbelastning'
p1211
sg21
Nsg22
S'400'
p1212
sg24
S'1700'
p1213
sg26
S'Mange bratte heng'
p1214
sg28
Nsg29
g1006
sg31
S'4 - Store'
p1215
sba(irunmatrix
M3Element
p1216
(dp1217
g3
Nsg4
S'Sannsynlig, Meget sannsynlig'
p1218
sg6
S'white'
p1219
sg8
(lp1220
sg10
S'Likely'
p1221
sg12
S'Many'
p1222
sg14
S'k'
p1223
sg16
I5
sg17
S'Nat'
p1224
sg19
S'Naturlig utloest'
p1225
sg21
Nsg22
S'400'
p1226
sg24
S'1800'
p1227
sg26
S'Mange bratte heng'
p1228
sg28
Nsg29
g1006
sg31
S'4 - Store'
p1229
sba(irunmatrix
M3Element
p1230
(dp1231
g3
Nsg4
S'Lite sannsynlig, Mulig'
p1232
sg6
S'gray'
p1233
sg8
(lp1234
sg10
S'Possible'
p1235
sg12
S'Most'
p1236
sg14
g66
sg16
I0
sg17
S'High'
p1237
sg19
S'Stor tilleggsbelastning'
p1238
sg21
Nsg22
S'400'
p1239
sg24
S'1900'
p1240
sg26
S'De fleste bratte heng, Ogsaa i mindre bratt terreng'
p1241
sg28
Nsg29
g1006
sg31
S'4 - Store'
p1242
sba(irunmatrix
M3Element
p1243
(dp1244
g3
Nsg4
S'Lite sannsynlig, Mulig'
p1245
sg6
S'gray'
p1246
sg8
(lp1247
sg10
S'Possible'
p1248
sg12
S'Most'
p1249
sg14
g66
sg16
I0
sg17
S'Low'
p1250
sg19
S'Liten tilleggsbelastning'
p1251
sg21
Nsg22
S'400'
p1252
sg24
S'2000'
p1253
sg26
S'De fleste bratte heng, Ogsaa i mindre bratt terreng'
p1254
sg28
Nsg29
g1006
sg31
S'4 - Store'
p1255
sba(irunmatrix
M3Element
p1256
(dp1257
g3
Nsg4
S'Lite sannsynlig, Mulig'
p1258
sg6
S'gray'
p1259
sg8
(lp1260
sg10
S'Possible'
p1261
sg12
S'Most'
p1262
sg14
g66
sg16
I0
sg17
S'Nat'
p1263
sg19
S'Naturlig utloest'
p1264
sg21
Nsg22
S'400'
p1265
sg24
S'2100'
p1266
sg26
S'De fleste bratte heng, Ogsaa i mindre bratt terreng'
p1267
sg28
Nsg29
g1006
sg31
S'4 - Store'
p1268
sba(irunmatrix
M3Element
p1269
(dp1270
g3
Nsg4
S'Sannsynlig, Meget sannsynlig'
p1271
sg6
S'gray'
p1272
sg8
(lp1273
sg10
S'Likely'
p1274
sg12
S'Most'
p1275
sg14
g66
sg16
I0
sg17
S'High'
p1276
sg19
S'Stor tilleggsbelastning'
p1277
sg21
Nsg22
S'400'
p1278
sg24
S'2200'
p1279
sg26
S'De fleste bratte heng, Ogsaa i mindre bratt terreng'
p1280
sg28
Nsg29
g1006
sg31
S'4 - Store'
p1281
sba(irunmatrix
M3Element
p1282
(dp1283
g3
Nsg4
S'Sannsynlig, Meget sannsynlig'
p1284
sg6
S'gray'
p1285
sg8
(lp1286
sg10
S'Likely'
p1287
sg12
S'Most'
p1288
sg14
g66
sg16
I0
sg17
S'Low'
p1289
sg19
S'Liten tilleggsbelastning'
p1290
sg21
Nsg22
S'400'
p1291
sg24
S'2300'
p1292
sg26
S'De fleste bratte heng, Ogsaa i mindre bratt terreng'
p1293
sg28
Nsg29
g1006
sg31
S'4 - Store'
p1294
sba(irunmatrix
M3Element
p1295
(dp1296
g3
Nsg4
S'Sannsynlig, Meget sannsynlig'
p1297
sg6
S'white'
p1298
sg8
(lp1299
sg10
S'Likely'
p1300
sg12
S'Most'
p1301
sg14
g66
sg16
I0
sg17
S'Nat'
p1302
sg19
S'Naturlig utloest'
p1303
sg21
Nsg22
S'400'
p1304
sg24
S'2400'
p1305
sg26
S'De fleste bratte heng, Ogsaa i mindre bratt terreng'
p1306
sg28
Nsg29
g1006
sg31
S'4 - Store'
p1307
sba(irunmatrix
M3Element
p1308
(dp1309
g3
Nsg4
S'Lite sannsynlig, Mulig'
p1310
sg6
S'white'
p1311
sg8
(lp1312
sg10
S'Possible'
p1313
sg12
S'Isolated'
p1314
sg14
g66
sg16
I0
sg17
S'High'
p1315
sg19
S'Stor tilleggsbelastning'
p1316
sg21
Nsg22
S'500'
p1317
sg24
S'100'
p1318
sg26
S'Isolerte faresoner'
p1319
sg28
Nsg29
S'5'
p1320
sg31
S'5 - Svaert store'
p1321
sba(irunmatrix
M3Element
p1322
(dp1323
g3
Nsg4
S'Lite sannsynlig, Mulig'
p1324
sg6
S'white'
p1325
sg8
(lp1326
sg10
S'Possible'
p1327
sg12
S'Isolated'
p1328
sg14
g66
sg16
I0
sg17
S'Low'
p1329
sg19
S'Liten tilleggsbelastning'
p1330
sg21
Nsg22
S'500'
p1331
sg24
S'200'
p1332
sg26
S'Isolerte faresoner'
p1333
sg28
Nsg29
g1320
sg31
S'5 - Svaert store'
p1334
sba(irunmatrix
M3Element
p1335
(dp1336
g3
Nsg4
S'Lite sannsynlig, Mulig'
p1337
sg6
S'white'
p1338
sg8
(lp1339
sg10
S'Possible'
p1340
sg12
S'Isolated'
p1341
sg14
g66
sg16
I0
sg17
S'Nat'
p1342
sg19
S'Naturlig utloest'
p1343
sg21
Nsg22
S'500'
p1344
sg24
S'300'
p1345
sg26
S'Isolerte faresoner'
p1346
sg28
Nsg29
g1320
sg31
S'5 - Svaert store'
p1347
sba(irunmatrix
M3Element
p1348
(dp1349
g3
Nsg4
S'Sannsynlig, Meget sannsynlig'
p1350
sg6
S'gray'
p1351
sg8
(lp1352
sg10
S'Likely'
p1353
sg12
S'Isolated'
p1354
sg14
g66
sg16
I0
sg17
S'High'
p1355
sg19
S'Stor tilleggsbelastning'
p1356
sg21
Nsg22
S'500'
p1357
sg24
S'400'
p1358
sg26
S'Isolerte faresoner'
p1359
sg28
Nsg29
g1320
sg31
S'5 - Svaert store'
p1360
sba(irunmatrix
M3Element
p1361
(dp1362
g3
Nsg4
S'Sannsynlig, Meget sannsynlig'
p1363
sg6
S'gray'
p1364
sg8
(lp1365
sg10
S'Likely'
p1366
sg12
S'Isolated'
p1367
sg14
g66
sg16
I0
sg17
S'Low'
p1368
sg19
S'Liten tilleggsbelastning'
p1369
sg21
Nsg22
S'500'
p1370
sg24
S'500'
p1371
sg26
S'Isolerte faresoner'
p1372
sg28
Nsg29
g1320
sg31
S'5 - Svaert store'
p1373
sba(irunmatrix
M3Element
p1374
(dp1375
g3
Nsg4
S'Sannsynlig, Meget sannsynlig'
p1376
sg6
S'gray'
p1377
sg8
(lp1378
sg10
S'Likely'
p1379
sg12
S'Isolated'
p1380
sg14
g66
sg16
I0
sg17
S'Nat'
p1381
sg19
S'Naturlig utloest'
p1382
sg21
Nsg22
S'500'
p1383
sg24
S'600'
p1384
sg26
S'Isolerte faresoner'
p1385
sg28
Nsg29
g1320
sg31
S'5 - Svaert store'
p1386
sba(irunmatrix
M3Element
p1387
(dp1388
g3
Nsg4
S'Lite sannsynlig, Mulig'
p1389
sg6
S'white'
p1390
sg8
(lp1391
sg10
S'Possible'
p1392
sg12
S'Some'
p1393
sg14
g66
sg16
I0
sg17
S'High'
p1394
sg19
S'Stor tilleggsbelastning'
p1395
sg21
Nsg22
S'500'
p1396
sg24
S'700'
p1397
sg26
S'Noen bratte heng'
p1398
sg28
Nsg29
g1320
sg31
S'5 - Svaert store'
p1399
sba(irunmatrix
M3Element
p1400
(dp1401
g3
Nsg4
S'Lite sannsynlig, Mulig'
p1402
sg6
S'white'
p1403
sg8
(lp1404
sg10
S'Possible'
p1405
sg12
S'Some'
p1406
sg14
g66
sg16
I0
sg17
S'Low'
p1407
sg19
S'Liten tilleggsbelastning'
p1408
sg21
Nsg22
S'500'
p1409
sg24
S'800'
p1410
sg26
S'Noen bratte heng'
p1411
sg28
Nsg29
g1320
sg31
S'5 - Svaert store'
p1412
sba(irunmatrix
M3Element
p1413
(dp1414
g3
Nsg4
S'Lite sannsynlig, Mulig'
p1415
sg6
S'white'
p1416
sg8
(lp1417
sg10
S'Possible'
p1418
sg12
S'Some'
p1419
sg14
g66
sg16
I0
sg17
S'Nat'
p1420
sg19
S'Naturlig utloest'
p1421
sg21
Nsg22
S'500'
p1422
sg24
S'900'
p1423
sg26
S'Noen bratte heng'
p1424
sg28
Nsg29
g1320
sg31
S'5 - Svaert store'
p1425
sba(irunmatrix
M3Element
p1426
(dp1427
g3
Nsg4
S'Sannsynlig, Meget sannsynlig'
p1428
sg6
S'gray'
p1429
sg8
(lp1430
sg10
S'Likely'
p1431
sg12
S'Some'
p1432
sg14
g66
sg16
I0
sg17
S'High'
p1433
sg19
S'Stor tilleggsbelastning'
p1434
sg21
Nsg22
S'500'
p1435
sg24
S'1000'
p1436
sg26
S'Noen bratte heng'
p1437
sg28
Nsg29
g1320
sg31
S'5 - Svaert store'
p1438
sba(irunmatrix
M3Element
p1439
(dp1440
g3
Nsg4
S'Sannsynlig, Meget sannsynlig'
p1441
sg6
S'gray'
p1442
sg8
(lp1443
sg10
S'Likely'
p1444
sg12
S'Some'
p1445
sg14
g66
sg16
I0
sg17
S'Low'
p1446
sg19
S'Liten tilleggsbelastning'
p1447
sg21
Nsg22
S'500'
p1448
sg24
S'1100'
p1449
sg26
S'Noen bratte heng'
p1450
sg28
Nsg29
g1320
sg31
S'5 - Svaert store'
p1451
sba(irunmatrix
M3Element
p1452
(dp1453
g3
Nsg4
S'Sannsynlig, Meget sannsynlig'
p1454
sg6
S'white'
p1455
sg8
(lp1456
sg10
S'Likely'
p1457
sg12
S'Some'
p1458
sg14
g66
sg16
I0
sg17
S'Nat'
p1459
sg19
S'Naturlig utloest'
p1460
sg21
Nsg22
S'500'
p1461
sg24
S'1200'
p1462
sg26
S'Noen bratte heng'
p1463
sg28
Nsg29
g1320
sg31
S'5 - Svaert store'
p1464
sba(irunmatrix
M3Element
p1465
(dp1466
g3
Nsg4
S'Lite sannsynlig, Mulig'
p1467
sg6
S'gray'
p1468
sg8
(lp1469
sg10
S'Possible'
p1470
sg12
S'Many'
p1471
sg14
g66
sg16
I0
sg17
S'High'
p1472
sg19
S'Stor tilleggsbelastning'
p1473
sg21
Nsg22
S'500'
p1474
sg24
S'1300'
p1475
sg26
S'Mange bratte heng'
p1476
sg28
Nsg29
g1320
sg31
S'5 - Svaert store'
p1477
sba(irunmatrix
M3Element
p1478
(dp1479
g3
Nsg4
S'Lite sannsynlig, Mulig'
p1480
sg6
S'white'
p1481
sg8
(lp1482
sg10
S'Possible'
p1483
sg12
S'Many'
p1484
sg14
g66
sg16
I0
sg17
S'Low'
p1485
sg19
S'Liten tilleggsbelastning'
p1486
sg21
Nsg22
S'500'
p1487
sg24
S'1400'
p1488
sg26
S'Mange bratte heng'
p1489
sg28
Nsg29
g1320
sg31
S'5 - Svaert store'
p1490
sba(irunmatrix
M3Element
p1491
(dp1492
g3
Nsg4
S'Lite sannsynlig, Mulig'
p1493
sg6
S'gray'
p1494
sg8
(lp1495
sg10
S'Possible'
p1496
sg12
S'Many'
p1497
sg14
g66
sg16
I0
sg17
S'Nat'
p1498
sg19
S'Naturlig utloest'
p1499
sg21
Nsg22
S'500'
p1500
sg24
S'1500'
p1501
sg26
S'Mange bratte heng'
p1502
sg28
Nsg29
g1320
sg31
S'5 - Svaert store'
p1503
sba(irunmatrix
M3Element
p1504
(dp1505
g3
Nsg4
S'Sannsynlig, Meget sannsynlig'
p1506
sg6
S'gray'
p1507
sg8
(lp1508
sg10
S'Likely'
p1509
sg12
S'Many'
p1510
sg14
g66
sg16
I0
sg17
S'High'
p1511
sg19
S'Stor tilleggsbelastning'
p1512
sg21
Nsg22
S'500'
p1513
sg24
S'1600'
p1514
sg26
S'Mange bratte heng'
p1515
sg28
Nsg29
g1320
sg31
S'5 - Svaert store'
p1516
sba(irunmatrix
M3Element
p1517
(dp1518
g3
Nsg4
S'Sannsynlig, Meget sannsynlig'
p1519
sg6
S'white'
p1520
sg8
(lp1521
sg10
S'Likely'
p1522
sg12
S'Many'
p1523
sg14
g66
sg16
I0
sg17
S'Low'
p1524
sg19
S'Liten tilleggsbelastning'
p1525
sg21
Nsg22
S'500'
p1526
sg24
S'1700'
p1527
sg26
S'Mange bratte heng'
p1528
sg28
Nsg29
g1320
sg31
S'5 - Svaert store'
p1529
sba(irunmatrix
M3Element
p1530
(dp1531
g3
Nsg4
S'Sannsynlig, Meget sannsynlig'
p1532
sg6
S'white'
p1533
sg8
(lp1534
sg10
S'Likely'
p1535
sg12
S'Many'
p1536
sg14
g1223
sg16
I5
sg17
S'Nat'
p1537
sg19
S'Naturlig utloest'
p1538
sg21
Nsg22
S'500'
p1539
sg24
S'1800'
p1540
sg26
S'Mange bratte heng'
p1541
sg28
Nsg29
g1320
sg31
S'5 - Svaert store'
p1542
sba(irunmatrix
M3Element
p1543
(dp1544
g3
Nsg4
S'Lite sannsynlig, Mulig'
p1545
sg6
S'gray'
p1546
sg8
(lp1547
sg10
S'Possible'
p1548
sg12
S'Most'
p1549
sg14
g66
sg16
I0
sg17
S'High'
p1550
sg19
S'Stor tilleggsbelastning'
p1551
sg21
Nsg22
S'500'
p1552
sg24
S'1900'
p1553
sg26
S'De fleste bratte heng, Ogsaa i mindre bratt terreng'
p1554
sg28
Nsg29
g1320
sg31
S'5 - Svaert store'
p1555
sba(irunmatrix
M3Element
p1556
(dp1557
g3
Nsg4
S'Lite sannsynlig, Mulig'
p1558
sg6
S'gray'
p1559
sg8
(lp1560
sg10
S'Possible'
p1561
sg12
S'Most'
p1562
sg14
g66
sg16
I0
sg17
S'Low'
p1563
sg19
S'Liten tilleggsbelastning'
p1564
sg21
Nsg22
S'500'
p1565
sg24
S'2000'
p1566
sg26
S'De fleste bratte heng, Ogsaa i mindre bratt terreng'
p1567
sg28
Nsg29
g1320
sg31
S'5 - Svaert store'
p1568
sba(irunmatrix
M3Element
p1569
(dp1570
g3
Nsg4
S'Lite sannsynlig, Mulig'
p1571
sg6
S'gray'
p1572
sg8
(lp1573
sg10
S'Possible'
p1574
sg12
S'Most'
p1575
sg14
g66
sg16
I0
sg17
S'Nat'
p1576
sg19
S'Naturlig utloest'
p1577
sg21
Nsg22
S'500'
p1578
sg24
S'2100'
p1579
sg26
S'De fleste bratte heng, Ogsaa i mindre bratt terreng'
p1580
sg28
Nsg29
g1320
sg31
S'5 - Svaert store'
p1581
sba(irunmatrix
M3Element
p1582
(dp1583
g3
Nsg4
S'Sannsynlig, Meget sannsynlig'
p1584
sg6
S'gray'
p1585
sg8
(lp1586
sg10
S'Likely'
p1587
sg12
S'Most'
p1588
sg14
g66
sg16
I0
sg17
S'High'
p1589
sg19
S'Stor tilleggsbelastning'
p1590
sg21
Nsg22
S'500'
p1591
sg24
S'2200'
p1592
sg26
S'De fleste bratte heng, Ogsaa i mindre bratt terreng'
p1593
sg28
Nsg29
g1320
sg31
S'5 - Svaert store'
p1594
sba(irunmatrix
M3Element
p1595
(dp1596
g3
Nsg4
S'Sannsynlig, Meget sannsynlig'
p1597
sg6
S'gray'
p1598
sg8
(lp1599
sg10
S'Likely'
p1600
sg12
S'Most'
p1601
sg14
g66
sg16
I0
sg17
S'Low'
p1602
sg19
S'Liten tilleggsbelastning'
p1603
sg21
Nsg22
S'500'
p1604
sg24
S'2300'
p1605
sg26
S'De fleste bratte heng, Ogsaa i mindre bratt terreng'
p1606
sg28
Nsg29
g1320
sg31
S'5 - Svaert store'
p1607
sba(irunmatrix
M3Element
p1608
(dp1609
g3
Nsg4
S'Sannsynlig, Meget sannsynlig'
p1610
sg6
S'white'
p1611
sg8
(lp1612
sg10
S'Likely'
p1613
sg12
S'Most'
p1614
sg14
g66
sg16
I0
sg17
S'Nat'
p1615
sg19
S'Naturlig utloest'
p1616
sg21
Nsg22
S'500'
p1617
sg24
S'2400'
p1618
sg26
S'De fleste bratte heng, Ogsaa i mindre bratt terreng'
p1619
sg28
Nsg29
g1320
sg31
S'5 - Svaert store'
p1620
sba.