(dp0
S'trigger'
p1
(dp2
S'keys'
p3
(lp4
S'Stor tilleggsbelastning'
p5
aS'Liten tilleggsbelastning'
p6
aS'Naturlig utloest'
p7
asS'colors'
p8
(lp9
S'0.7'
p10
asS'values'
p11
(lp12
S'Liten tilleggsbelastning'
p13
aS'Liten tilleggsbelastning'
p14
aS'Liten tilleggsbelastning'
p15
aS'Liten tilleggsbelastning'
p16
aS'Liten tilleggsbelastning'
p17
aS'Liten tilleggsbelastning'
p18
aS'Liten tilleggsbelastning'
p19
aS'Liten tilleggsbelastning'
p20
aS'Liten tilleggsbelastning'
p21
aS'Liten tilleggsbelastning'
p22
aS'Liten tilleggsbelastning'
p23
aS'Liten tilleggsbelastning'
p24
aS'Liten tilleggsbelastning'
p25
aS'Liten tilleggsbelastning'
p26
aS'Liten tilleggsbelastning'
p27
aS'Liten tilleggsbelastning'
p28
aS'Liten tilleggsbelastning'
p29
aS'Liten tilleggsbelastning'
p30
aS'Liten tilleggsbelastning'
p31
aS'Liten tilleggsbelastning'
p32
aS'Liten tilleggsbelastning'
p33
aS'Liten tilleggsbelastning'
p34
aS'Liten tilleggsbelastning'
p35
aS'Liten tilleggsbelastning'
p36
aS'Liten tilleggsbelastning'
p37
aS'Liten tilleggsbelastning'
p38
aS'Liten tilleggsbelastning'
p39
aS'Liten tilleggsbelastning'
p40
aS'Stor tilleggsbelastning'
p41
aS'Liten tilleggsbelastning'
p42
aS'Stor tilleggsbelastning'
p43
aS'Liten tilleggsbelastning'
p44
aS'Stor tilleggsbelastning'
p45
aS'Stor tilleggsbelastning'
p46
aS'Stor tilleggsbelastning'
p47
aS'Stor tilleggsbelastning'
p48
aS'Stor tilleggsbelastning'
p49
aS'Stor tilleggsbelastning'
p50
aS'Stor tilleggsbelastning'
p51
aS'Stor tilleggsbelastning'
p52
aS'Stor tilleggsbelastning'
p53
aS'Stor tilleggsbelastning'
p54
aS'Naturlig utloest'
p55
aS'Naturlig utloest'
p56
aS'Naturlig utloest'
p57
aS'Naturlig utloest'
p58
aS'Naturlig utloest'
p59
aS'Naturlig utloest'
p60
aS'Liten tilleggsbelastning'
p61
aS'Liten tilleggsbelastning'
p62
aS'Liten tilleggsbelastning'
p63
aS'Liten tilleggsbelastning'
p64
aS'Liten tilleggsbelastning'
p65
aS'Liten tilleggsbelastning'
p66
aS'Liten tilleggsbelastning'
p67
aS'Liten tilleggsbelastning'
p68
aS'Liten tilleggsbelastning'
p69
aS'Liten tilleggsbelastning'
p70
aS'Liten tilleggsbelastning'
p71
aS'Liten tilleggsbelastning'
p72
aS'Liten tilleggsbelastning'
p73
aS'Liten tilleggsbelastning'
p74
aS'Liten tilleggsbelastning'
p75
aS'Liten tilleggsbelastning'
p76
aS'Liten tilleggsbelastning'
p77
aS'Naturlig utloest'
p78
aS'Liten tilleggsbelastning'
p79
aS'Liten tilleggsbelastning'
p80
aS'Liten tilleggsbelastning'
p81
aS'Liten tilleggsbelastning'
p82
aS'Stor tilleggsbelastning'
p83
aS'Stor tilleggsbelastning'
p84
aS'Liten tilleggsbelastning'
p85
aS'Naturlig utloest'
p86
aS'Naturlig utloest'
p87
aS'Liten tilleggsbelastning'
p88
aS'Naturlig utloest'
p89
aS'Naturlig utloest'
p90
aS'Liten tilleggsbelastning'
p91
aS'Stor tilleggsbelastning'
p92
aS'Liten tilleggsbelastning'
p93
aS'Liten tilleggsbelastning'
p94
aS'Liten tilleggsbelastning'
p95
aS'Naturlig utloest'
p96
aS'Stor tilleggsbelastning'
p97
aS'Stor tilleggsbelastning'
p98
aS'Liten tilleggsbelastning'
p99
aS'Stor tilleggsbelastning'
p100
aS'Stor tilleggsbelastning'
p101
aS'Stor tilleggsbelastning'
p102
assS'distribution'
p103
(dp104
g3
(lp105
S'Isolerte faresoner'
p106
aS'Noen bratte heng'
p107
aS'Mange bratte heng'
p108
aS'De fleste bratte heng'
p109
aS'Ogsaa i mindre bratt terreng'
p110
asg8
(lp111
g10
asg11
(lp112
S'Noen bratte heng'
p113
aS'Noen bratte heng'
p114
aS'Noen bratte heng'
p115
aS'Noen bratte heng'
p116
aS'Noen bratte heng'
p117
aS'Noen bratte heng'
p118
aS'Noen bratte heng'
p119
aS'Noen bratte heng'
p120
aS'Noen bratte heng'
p121
aS'Noen bratte heng'
p122
aS'Noen bratte heng'
p123
aS'Noen bratte heng'
p124
aS'Noen bratte heng'
p125
aS'Noen bratte heng'
p126
aS'Isolerte faresoner'
p127
aS'Noen bratte heng'
p128
aS'Noen bratte heng'
p129
aS'Noen bratte heng'
p130
aS'Noen bratte heng'
p131
aS'Noen bratte heng'
p132
aS'Noen bratte heng'
p133
aS'Isolerte faresoner'
p134
aS'Noen bratte heng'
p135
aS'Noen bratte heng'
p136
aS'Noen bratte heng'
p137
aS'Noen bratte heng'
p138
aS'Noen bratte heng'
p139
aS'Noen bratte heng'
p140
aS'Noen bratte heng'
p141
aS'Noen bratte heng'
p142
aS'Noen bratte heng'
p143
aS'Noen bratte heng'
p144
aS'Noen bratte heng'
p145
aS'Noen bratte heng'
p146
aS'Noen bratte heng'
p147
aS'Isolerte faresoner'
p148
aS'Noen bratte heng'
p149
aS'Noen bratte heng'
p150
aS'Isolerte faresoner'
p151
aS'Isolerte faresoner'
p152
aS'Noen bratte heng'
p153
aS'Noen bratte heng'
p154
aS'Noen bratte heng'
p155
aS'Noen bratte heng'
p156
aS'Mange bratte heng'
p157
aS'Mange bratte heng'
p158
aS'Mange bratte heng'
p159
aS'Mange bratte heng'
p160
aS'Noen bratte heng'
p161
aS'Isolerte faresoner'
p162
aS'Isolerte faresoner'
p163
aS'Isolerte faresoner'
p164
aS'Noen bratte heng'
p165
aS'Noen bratte heng'
p166
aS'Noen bratte heng'
p167
aS'Noen bratte heng'
p168
aS'Noen bratte heng'
p169
aS'Noen bratte heng'
p170
aS'Noen bratte heng'
p171
aS'Noen bratte heng'
p172
aS'Noen bratte heng'
p173
aS'Noen bratte heng'
p174
aS'Noen bratte heng'
p175
aS'Noen bratte heng'
p176
aS'Noen bratte heng'
p177
aS'Noen bratte heng'
p178
aS'Noen bratte heng'
p179
aS'Noen bratte heng'
p180
aS'Isolerte faresoner'
p181
aS'Isolerte faresoner'
p182
aS'Isolerte faresoner'
p183
aS'Isolerte faresoner'
p184
aS'Noen bratte heng'
p185
aS'Noen bratte heng'
p186
aS'Noen bratte heng'
p187
aS'Noen bratte heng'
p188
aS'Noen bratte heng'
p189
aS'Noen bratte heng'
p190
aS'Noen bratte heng'
p191
aS'Noen bratte heng'
p192
aS'Noen bratte heng'
p193
aS'Noen bratte heng'
p194
aS'Noen bratte heng'
p195
aS'Noen bratte heng'
p196
aS'Isolerte faresoner'
p197
aS'Noen bratte heng'
p198
aS'Noen bratte heng'
p199
aS'Isolerte faresoner'
p200
aS'Isolerte faresoner'
p201
aS'Noen bratte heng'
p202
assS'size'
p203
(dp204
g3
(lp205
S'1 - Harmloest'
p206
aS'2 - Smaa'
p207
aS'3 - Middels'
p208
aS'4 - Store'
p209
aS'5 - Svaert store'
p210
aS'Ukjent'
p211
asg8
(lp212
g10
asg11
(lp213
S'2 - Smaa'
p214
aS'2 - Smaa'
p215
aS'2 - Smaa'
p216
aS'2 - Smaa'
p217
aS'2 - Smaa'
p218
aS'3 - Middels'
p219
aS'3 - Middels'
p220
aS'3 - Middels'
p221
aS'2 - Smaa'
p222
aS'3 - Middels'
p223
aS'2 - Smaa'
p224
aS'2 - Smaa'
p225
aS'2 - Smaa'
p226
aS'2 - Smaa'
p227
aS'2 - Smaa'
p228
aS'2 - Smaa'
p229
aS'3 - Middels'
p230
aS'2 - Smaa'
p231
aS'3 - Middels'
p232
aS'3 - Middels'
p233
aS'3 - Middels'
p234
aS'2 - Smaa'
p235
aS'3 - Middels'
p236
aS'3 - Middels'
p237
aS'3 - Middels'
p238
aS'3 - Middels'
p239
aS'3 - Middels'
p240
aS'3 - Middels'
p241
aS'3 - Middels'
p242
aS'3 - Middels'
p243
aS'3 - Middels'
p244
aS'3 - Middels'
p245
aS'3 - Middels'
p246
aS'3 - Middels'
p247
aS'2 - Smaa'
p248
aS'2 - Smaa'
p249
aS'3 - Middels'
p250
aS'3 - Middels'
p251
aS'2 - Smaa'
p252
aS'2 - Smaa'
p253
aS'3 - Middels'
p254
aS'3 - Middels'
p255
aS'2 - Smaa'
p256
aS'2 - Smaa'
p257
aS'2 - Smaa'
p258
aS'2 - Smaa'
p259
aS'2 - Smaa'
p260
aS'2 - Smaa'
p261
aS'2 - Smaa'
p262
aS'2 - Smaa'
p263
aS'2 - Smaa'
p264
aS'2 - Smaa'
p265
aS'2 - Smaa'
p266
aS'2 - Smaa'
p267
aS'2 - Smaa'
p268
aS'2 - Smaa'
p269
aS'2 - Smaa'
p270
aS'2 - Smaa'
p271
aS'2 - Smaa'
p272
aS'2 - Smaa'
p273
aS'3 - Middels'
p274
aS'2 - Smaa'
p275
aS'2 - Smaa'
p276
aS'2 - Smaa'
p277
aS'3 - Middels'
p278
aS'3 - Middels'
p279
aS'3 - Middels'
p280
aS'2 - Smaa'
p281
aS'2 - Smaa'
p282
aS'2 - Smaa'
p283
aS'2 - Smaa'
p284
aS'2 - Smaa'
p285
aS'2 - Smaa'
p286
aS'1 - Harmloest'
p287
aS'2 - Smaa'
p288
aS'2 - Smaa'
p289
aS'1 - Harmloest'
p290
aS'1 - Harmloest'
p291
aS'3 - Middels'
p292
aS'2 - Smaa'
p293
aS'2 - Smaa'
p294
aS'3 - Middels'
p295
aS'3 - Middels'
p296
aS'1 - Harmloest'
p297
aS'2 - Smaa'
p298
aS'3 - Middels'
p299
aS'3 - Middels'
p300
aS'2 - Smaa'
p301
aS'2 - Smaa'
p302
aS'3 - Middels'
p303
assS'probability'
p304
(dp305
g3
(lp306
S'Lite sannsynlig'
p307
aS'Mulig'
p308
aS'Sannsynlig'
p309
aS'Meget sannsynlig'
p310
asg8
(lp311
g10
asg11
(lp312
S'Mulig'
p313
aS'Mulig'
p314
aS'Mulig'
p315
aS'Mulig'
p316
aS'Mulig'
p317
aS'Mulig'
p318
aS'Mulig'
p319
aS'Mulig'
p320
aS'Mulig'
p321
aS'Mulig'
p322
aS'Mulig'
p323
aS'Mulig'
p324
aS'Mulig'
p325
aS'Mulig'
p326
aS'Mulig'
p327
aS'Mulig'
p328
aS'Mulig'
p329
aS'Mulig'
p330
aS'Mulig'
p331
aS'Mulig'
p332
aS'Mulig'
p333
aS'Mulig'
p334
aS'Mulig'
p335
aS'Mulig'
p336
aS'Mulig'
p337
aS'Mulig'
p338
aS'Mulig'
p339
aS'Mulig'
p340
aS'Mulig'
p341
aS'Mulig'
p342
aS'Mulig'
p343
aS'Mulig'
p344
aS'Mulig'
p345
aS'Mulig'
p346
aS'Mulig'
p347
aS'Mulig'
p348
aS'Mulig'
p349
aS'Lite sannsynlig'
p350
aS'Mulig'
p351
aS'Mulig'
p352
aS'Lite sannsynlig'
p353
aS'Lite sannsynlig'
p354
aS'Mulig'
p355
aS'Mulig'
p356
aS'Sannsynlig'
p357
aS'Sannsynlig'
p358
aS'Sannsynlig'
p359
aS'Sannsynlig'
p360
aS'Mulig'
p361
aS'Mulig'
p362
aS'Mulig'
p363
aS'Mulig'
p364
aS'Mulig'
p365
aS'Mulig'
p366
aS'Mulig'
p367
aS'Mulig'
p368
aS'Mulig'
p369
aS'Mulig'
p370
aS'Mulig'
p371
aS'Mulig'
p372
aS'Mulig'
p373
aS'Mulig'
p374
aS'Mulig'
p375
aS'Mulig'
p376
aS'Mulig'
p377
aS'Mulig'
p378
aS'Mulig'
p379
aS'Mulig'
p380
aS'Mulig'
p381
aS'Mulig'
p382
aS'Mulig'
p383
aS'Mulig'
p384
aS'Mulig'
p385
aS'Mulig'
p386
aS'Mulig'
p387
aS'Mulig'
p388
aS'Mulig'
p389
aS'Mulig'
p390
aS'Mulig'
p391
aS'Lite sannsynlig'
p392
aS'Mulig'
p393
aS'Mulig'
p394
aS'Mulig'
p395
aS'Mulig'
p396
aS'Mulig'
p397
aS'Mulig'
p398
aS'Mulig'
p399
aS'Lite sannsynlig'
p400
aS'Mulig'
p401
aS'Mulig'
p402
assS'level'
p403
(dp404
g3
(lp405
I1
aI2
aI3
aI4
aI5
asg8
(lp406
S'#ccff66'
p407
aS'#ffff00'
p408
aS'#ff9900'
p409
aS'#ff0000'
p410
aS'k'
p411
asg11
(lp412
I2
aI2
aI2
aI2
aI2
aI3
aI3
aI3
aI2
aI3
aI2
aI2
aI2
aI2
aI2
aI2
aI3
aI2
aI3
aI3
aI3
aI2
aI3
aI3
aI3
aI3
aI3
aI3
aI2
aI3
aI2
aI3
aI2
aI2
aI2
aI2
aI2
aI2
aI2
aI2
aI2
aI2
aI2
aI2
aI3
aI3
aI3
aI3
aI2
aI1
aI1
aI1
aI2
aI2
aI2
aI2
aI2
aI2
aI2
aI2
aI3
aI2
aI2
aI2
aI3
aI3
aI3
aI2
aI1
aI1
aI1
aI2
aI2
aI1
aI2
aI2
aI1
aI1
aI3
aI1
aI2
aI3
aI3
aI1
aI1
aI2
aI3
aI1
aI1
aI2
ass.