(lp0
(irunmatrix
M3Element
p1
(dp2
S'danger_level_average'
p3
NsS'probability'
p4
S'Lite sannsynlig, Mulig'
p5
sS'colour'
p6
S'white'
p7
sS'danger_level_list'
p8
(lp9
sS'label_probalility'
p10
S'Possible'
p11
sS'label_distribution'
p12
S'Isolated'
p13
sS'recomended_colour'
p14
S'#ccff66'
p15
sS'recomended_danger_level'
p16
I1
sS'label_trigger'
p17
S'High'
p18
sS'trigger'
p19
S'Stor tilleggsbelastning'
p20
sS'occurrences'
p21
NsS'y'
p22
S'100'
p23
sS'x'
p24
S'100'
p25
sS'distribution'
p26
S'Isolerte faresoner'
p27
sS'danger_level_standard_dev'
p28
NsS'label_size'
p29
S'1'
p30
sS'avalanche_size'
p31
S'1 - Harmloest'
p32
sba(irunmatrix
M3Element
p33
(dp34
g3
Nsg4
S'Lite sannsynlig, Mulig'
p35
sg6
S'white'
p36
sg8
(lp37
sg10
S'Possible'
p38
sg12
S'Isolated'
p39
sg14
g15
sg16
I1
sg17
S'Low'
p40
sg19
S'Liten tilleggsbelastning'
p41
sg21
Nsg22
S'100'
p42
sg24
S'200'
p43
sg26
S'Isolerte faresoner'
p44
sg28
Nsg29
g30
sg31
S'1 - Harmloest'
p45
sba(irunmatrix
M3Element
p46
(dp47
g3
Nsg4
S'Lite sannsynlig, Mulig'
p48
sg6
S'white'
p49
sg8
(lp50
sg10
S'Possible'
p51
sg12
S'Isolated'
p52
sg14
g15
sg16
I1
sg17
S'Nat'
p53
sg19
S'Naturlig utloest'
p54
sg21
Nsg22
S'100'
p55
sg24
S'300'
p56
sg26
S'Isolerte faresoner'
p57
sg28
Nsg29
g30
sg31
S'1 - Harmloest'
p58
sba(irunmatrix
M3Element
p59
(dp60
g3
Nsg4
S'Sannsynlig, Meget sannsynlig'
p61
sg6
S'gray'
p62
sg8
(lp63
sg10
S'Likely'
p64
sg12
S'Isolated'
p65
sg14
S'gray'
p66
sg16
I0
sg17
S'High'
p67
sg19
S'Stor tilleggsbelastning'
p68
sg21
Nsg22
S'100'
p69
sg24
S'400'
p70
sg26
S'Isolerte faresoner'
p71
sg28
Nsg29
g30
sg31
S'1 - Harmloest'
p72
sba(irunmatrix
M3Element
p73
(dp74
g3
Nsg4
S'Sannsynlig, Meget sannsynlig'
p75
sg6
S'gray'
p76
sg8
(lp77
sg10
S'Likely'
p78
sg12
S'Isolated'
p79
sg14
g66
sg16
I0
sg17
S'Low'
p80
sg19
S'Liten tilleggsbelastning'
p81
sg21
Nsg22
S'100'
p82
sg24
S'500'
p83
sg26
S'Isolerte faresoner'
p84
sg28
Nsg29
g30
sg31
S'1 - Harmloest'
p85
sba(irunmatrix
M3Element
p86
(dp87
g3
Nsg4
S'Sannsynlig, Meget sannsynlig'
p88
sg6
S'gray'
p89
sg8
(lp90
sg10
S'Likely'
p91
sg12
S'Isolated'
p92
sg14
g66
sg16
I0
sg17
S'Nat'
p93
sg19
S'Naturlig utloest'
p94
sg21
Nsg22
S'100'
p95
sg24
S'600'
p96
sg26
S'Isolerte faresoner'
p97
sg28
Nsg29
g30
sg31
S'1 - Harmloest'
p98
sba(irunmatrix
M3Element
p99
(dp100
g3
Nsg4
S'Lite sannsynlig, Mulig'
p101
sg6
S'white'
p102
sg8
(lp103
sg10
S'Possible'
p104
sg12
S'Some'
p105
sg14
g15
sg16
I1
sg17
S'High'
p106
sg19
S'Stor tilleggsbelastning'
p107
sg21
Nsg22
S'100'
p108
sg24
S'700'
p109
sg26
S'Noen bratte heng'
p110
sg28
Nsg29
g30
sg31
S'1 - Harmloest'
p111
sba(irunmatrix
M3Element
p112
(dp113
g3
Nsg4
S'Lite sannsynlig, Mulig'
p114
sg6
S'white'
p115
sg8
(lp116
sg10
S'Possible'
p117
sg12
S'Some'
p118
sg14
g15
sg16
I1
sg17
S'Low'
p119
sg19
S'Liten tilleggsbelastning'
p120
sg21
Nsg22
S'100'
p121
sg24
S'800'
p122
sg26
S'Noen bratte heng'
p123
sg28
Nsg29
g30
sg31
S'1 - Harmloest'
p124
sba(irunmatrix
M3Element
p125
(dp126
g3
Nsg4
S'Lite sannsynlig, Mulig'
p127
sg6
S'white'
p128
sg8
(lp129
sg10
S'Possible'
p130
sg12
S'Some'
p131
sg14
g15
sg16
I1
sg17
S'Nat'
p132
sg19
S'Naturlig utloest'
p133
sg21
Nsg22
S'100'
p134
sg24
S'900'
p135
sg26
S'Noen bratte heng'
p136
sg28
Nsg29
g30
sg31
S'1 - Harmloest'
p137
sba(irunmatrix
M3Element
p138
(dp139
g3
Nsg4
S'Sannsynlig, Meget sannsynlig'
p140
sg6
S'gray'
p141
sg8
(lp142
sg10
S'Likely'
p143
sg12
S'Some'
p144
sg14
g66
sg16
I0
sg17
S'High'
p145
sg19
S'Stor tilleggsbelastning'
p146
sg21
Nsg22
S'100'
p147
sg24
S'1000'
p148
sg26
S'Noen bratte heng'
p149
sg28
Nsg29
g30
sg31
S'1 - Harmloest'
p150
sba(irunmatrix
M3Element
p151
(dp152
g3
Nsg4
S'Sannsynlig, Meget sannsynlig'
p153
sg6
S'gray'
p154
sg8
(lp155
sg10
S'Likely'
p156
sg12
S'Some'
p157
sg14
g66
sg16
I0
sg17
S'Low'
p158
sg19
S'Liten tilleggsbelastning'
p159
sg21
Nsg22
S'100'
p160
sg24
S'1100'
p161
sg26
S'Noen bratte heng'
p162
sg28
Nsg29
g30
sg31
S'1 - Harmloest'
p163
sba(irunmatrix
M3Element
p164
(dp165
g3
Nsg4
S'Sannsynlig, Meget sannsynlig'
p166
sg6
S'white'
p167
sg8
(lp168
sg10
S'Likely'
p169
sg12
S'Some'
p170
sg14
g15
sg16
I1
sg17
S'Nat'
p171
sg19
S'Naturlig utloest'
p172
sg21
Nsg22
S'100'
p173
sg24
S'1200'
p174
sg26
S'Noen bratte heng'
p175
sg28
Nsg29
g30
sg31
S'1 - Harmloest'
p176
sba(irunmatrix
M3Element
p177
(dp178
g3
Nsg4
S'Lite sannsynlig, Mulig'
p179
sg6
S'gray'
p180
sg8
(lp181
sg10
S'Possible'
p182
sg12
S'Many'
p183
sg14
g66
sg16
I0
sg17
S'High'
p184
sg19
S'Stor tilleggsbelastning'
p185
sg21
Nsg22
S'100'
p186
sg24
S'1300'
p187
sg26
S'Mange bratte heng'
p188
sg28
Nsg29
g30
sg31
S'1 - Harmloest'
p189
sba(irunmatrix
M3Element
p190
(dp191
g3
Nsg4
S'Lite sannsynlig, Mulig'
p192
sg6
S'white'
p193
sg8
(lp194
sg10
S'Possible'
p195
sg12
S'Many'
p196
sg14
g15
sg16
I1
sg17
S'Low'
p197
sg19
S'Liten tilleggsbelastning'
p198
sg21
Nsg22
S'100'
p199
sg24
S'1400'
p200
sg26
S'Mange bratte heng'
p201
sg28
Nsg29
g30
sg31
S'1 - Harmloest'
p202
sba(irunmatrix
M3Element
p203
(dp204
g3
Nsg4
S'Lite sannsynlig, Mulig'
p205
sg6
S'gray'
p206
sg8
(lp207
sg10
S'Possible'
p208
sg12
S'Many'
p209
sg14
g66
sg16
I0
sg17
S'Nat'
p210
sg19
S'Naturlig utloest'
p211
sg21
Nsg22
S'100'
p212
sg24
S'1500'
p213
sg26
S'Mange bratte heng'
p214
sg28
Nsg29
g30
sg31
S'1 - Harmloest'
p215
sba(irunmatrix
M3Element
p216
(dp217
g3
Nsg4
S'Sannsynlig, Meget sannsynlig'
p218
sg6
S'gray'
p219
sg8
(lp220
sg10
S'Likely'
p221
sg12
S'Many'
p222
sg14
g66
sg16
I0
sg17
S'High'
p223
sg19
S'Stor tilleggsbelastning'
p224
sg21
Nsg22
S'100'
p225
sg24
S'1600'
p226
sg26
S'Mange bratte heng'
p227
sg28
Nsg29
g30
sg31
S'1 - Harmloest'
p228
sba(irunmatrix
M3Element
p229
(dp230
g3
Nsg4
S'Sannsynlig, Meget sannsynlig'
p231
sg6
S'white'
p232
sg8
(lp233
sg10
S'Likely'
p234
sg12
S'Many'
p235
sg14
S'#ffff00'
p236
sg16
I2
sg17
S'Low'
p237
sg19
S'Liten tilleggsbelastning'
p238
sg21
Nsg22
S'100'
p239
sg24
S'1700'
p240
sg26
S'Mange bratte heng'
p241
sg28
Nsg29
g30
sg31
S'1 - Harmloest'
p242
sba(irunmatrix
M3Element
p243
(dp244
g3
Nsg4
S'Sannsynlig, Meget sannsynlig'
p245
sg6
S'white'
p246
sg8
(lp247
sg10
S'Likely'
p248
sg12
S'Many'
p249
sg14
g236
sg16
I2
sg17
S'Nat'
p250
sg19
S'Naturlig utloest'
p251
sg21
Nsg22
S'100'
p252
sg24
S'1800'
p253
sg26
S'Mange bratte heng'
p254
sg28
Nsg29
g30
sg31
S'1 - Harmloest'
p255
sba(irunmatrix
M3Element
p256
(dp257
g3
Nsg4
S'Lite sannsynlig, Mulig'
p258
sg6
S'gray'
p259
sg8
(lp260
sg10
S'Possible'
p261
sg12
S'Most'
p262
sg14
g66
sg16
I0
sg17
S'High'
p263
sg19
S'Stor tilleggsbelastning'
p264
sg21
Nsg22
S'100'
p265
sg24
S'1900'
p266
sg26
S'De fleste bratte heng, Ogsaa i mindre bratt terreng'
p267
sg28
Nsg29
g30
sg31
S'1 - Harmloest'
p268
sba(irunmatrix
M3Element
p269
(dp270
g3
Nsg4
S'Lite sannsynlig, Mulig'
p271
sg6
S'gray'
p272
sg8
(lp273
sg10
S'Possible'
p274
sg12
S'Most'
p275
sg14
g66
sg16
I0
sg17
S'Low'
p276
sg19
S'Liten tilleggsbelastning'
p277
sg21
Nsg22
S'100'
p278
sg24
S'2000'
p279
sg26
S'De fleste bratte heng, Ogsaa i mindre bratt terreng'
p280
sg28
Nsg29
g30
sg31
S'1 - Harmloest'
p281
sba(irunmatrix
M3Element
p282
(dp283
g3
Nsg4
S'Lite sannsynlig, Mulig'
p284
sg6
S'gray'
p285
sg8
(lp286
sg10
S'Possible'
p287
sg12
S'Most'
p288
sg14
g66
sg16
I0
sg17
S'Nat'
p289
sg19
S'Naturlig utloest'
p290
sg21
Nsg22
S'100'
p291
sg24
S'2100'
p292
sg26
S'De fleste bratte heng, Ogsaa i mindre bratt terreng'
p293
sg28
Nsg29
g30
sg31
S'1 - Harmloest'
p294
sba(irunmatrix
M3Element
p295
(dp296
g3
Nsg4
S'Sannsynlig, Meget sannsynlig'
p297
sg6
S'gray'
p298
sg8
(lp299
sg10
S'Likely'
p300
sg12
S'Most'
p301
sg14
g66
sg16
I0
sg17
S'High'
p302
sg19
S'Stor tilleggsbelastning'
p303
sg21
Nsg22
S'100'
p304
sg24
S'2200'
p305
sg26
S'De fleste bratte heng, Ogsaa i mindre bratt terreng'
p306
sg28
Nsg29
g30
sg31
S'1 - Harmloest'
p307
sba(irunmatrix
M3Element
p308
(dp309
g3
Nsg4
S'Sannsynlig, Meget sannsynlig'
p310
sg6
S'gray'
p311
sg8
(lp312
sg10
S'Likely'
p313
sg12
S'Most'
p314
sg14
g66
sg16
I0
sg17
S'Low'
p315
sg19
S'Liten tilleggsbelastning'
p316
sg21
Nsg22
S'100'
p317
sg24
S'2300'
p318
sg26
S'De fleste bratte heng, Ogsaa i mindre bratt terreng'
p319
sg28
Nsg29
g30
sg31
S'1 - Harmloest'
p320
sba(irunmatrix
M3Element
p321
(dp322
g3
Nsg4
S'Sannsynlig, Meget sannsynlig'
p323
sg6
S'white'
p324
sg8
(lp325
sg10
S'Likely'
p326
sg12
S'Most'
p327
sg14
g66
sg16
I0
sg17
S'Nat'
p328
sg19
S'Naturlig utloest'
p329
sg21
Nsg22
S'100'
p330
sg24
S'2400'
p331
sg26
S'De fleste bratte heng, Ogsaa i mindre bratt terreng'
p332
sg28
Nsg29
S'2'
p333
sg31
S'1 - Harmloest'
p334
sba(irunmatrix
M3Element
p335
(dp336
g3
Nsg4
S'Lite sannsynlig, Mulig'
p337
sg6
S'white'
p338
sg8
(lp339
sg10
S'Possible'
p340
sg12
S'Isolated'
p341
sg14
g15
sg16
I1
sg17
S'High'
p342
sg19
S'Stor tilleggsbelastning'
p343
sg21
Nsg22
S'200'
p344
sg24
S'100'
p345
sg26
S'Isolerte faresoner'
p346
sg28
Nsg29
g333
sg31
S'2 - Smaa'
p347
sba(irunmatrix
M3Element
p348
(dp349
g3
F2.0
sg4
S'Lite sannsynlig, Mulig'
p350
sg6
S'#ffff00'
p351
sg8
(lp352
I2
aI2
asg10
S'Possible'
p353
sg12
S'Isolated'
p354
sg14
g15
sg16
I1
sg17
S'Low'
p355
sg19
S'Liten tilleggsbelastning'
p356
sg21
I2
sg22
S'200'
p357
sg24
S'200'
p358
sg26
S'Isolerte faresoner'
p359
sg28
cnumpy.core.multiarray
scalar
p360
(cnumpy
dtype
p361
(S'f8'
p362
I0
I1
tp363
Rp364
(I3
S'<'
p365
NNNI-1
I-1
I0
tp366
bS'\x00\x00\x00\x00\x00\x00\x00\x00'
p367
tp368
Rp369
sg29
g333
sg31
S'2 - Smaa'
p370
sba(irunmatrix
M3Element
p371
(dp372
g3
Nsg4
S'Lite sannsynlig, Mulig'
p373
sg6
S'white'
p374
sg8
(lp375
sg10
S'Possible'
p376
sg12
S'Isolated'
p377
sg14
g15
sg16
I1
sg17
S'Nat'
p378
sg19
S'Naturlig utloest'
p379
sg21
Nsg22
S'200'
p380
sg24
S'300'
p381
sg26
S'Isolerte faresoner'
p382
sg28
Nsg29
g333
sg31
S'2 - Smaa'
p383
sba(irunmatrix
M3Element
p384
(dp385
g3
Nsg4
S'Sannsynlig, Meget sannsynlig'
p386
sg6
S'gray'
p387
sg8
(lp388
sg10
S'Likely'
p389
sg12
S'Isolated'
p390
sg14
g66
sg16
I0
sg17
S'High'
p391
sg19
S'Stor tilleggsbelastning'
p392
sg21
Nsg22
S'200'
p393
sg24
S'400'
p394
sg26
S'Isolerte faresoner'
p395
sg28
Nsg29
g333
sg31
S'2 - Smaa'
p396
sba(irunmatrix
M3Element
p397
(dp398
g3
Nsg4
S'Sannsynlig, Meget sannsynlig'
p399
sg6
S'gray'
p400
sg8
(lp401
sg10
S'Likely'
p402
sg12
S'Isolated'
p403
sg14
g66
sg16
I0
sg17
S'Low'
p404
sg19
S'Liten tilleggsbelastning'
p405
sg21
Nsg22
S'200'
p406
sg24
S'500'
p407
sg26
S'Isolerte faresoner'
p408
sg28
Nsg29
g333
sg31
S'2 - Smaa'
p409
sba(irunmatrix
M3Element
p410
(dp411
g3
Nsg4
S'Sannsynlig, Meget sannsynlig'
p412
sg6
S'gray'
p413
sg8
(lp414
sg10
S'Likely'
p415
sg12
S'Isolated'
p416
sg14
g66
sg16
I0
sg17
S'Nat'
p417
sg19
S'Naturlig utloest'
p418
sg21
Nsg22
S'200'
p419
sg24
S'600'
p420
sg26
S'Isolerte faresoner'
p421
sg28
Nsg29
g333
sg31
S'2 - Smaa'
p422
sba(irunmatrix
M3Element
p423
(dp424
g3
F2.0
sg4
S'Lite sannsynlig, Mulig'
p425
sg6
g351
sg8
(lp426
I2
aI2
aI2
aI2
aI2
aI2
aI2
aI2
aI2
aI2
aI2
aI2
aI2
aI2
aI2
aI2
aI2
aI2
asg10
S'Possible'
p427
sg12
S'Some'
p428
sg14
g236
sg16
I2
sg17
S'High'
p429
sg19
S'Stor tilleggsbelastning'
p430
sg21
I18
sg22
S'200'
p431
sg24
S'700'
p432
sg26
S'Noen bratte heng'
p433
sg28
g360
(g364
S'\x00\x00\x00\x00\x00\x00\x00\x00'
p434
tp435
Rp436
sg29
g333
sg31
S'2 - Smaa'
p437
sba(irunmatrix
M3Element
p438
(dp439
g3
F2.064935064935065
sg4
S'Lite sannsynlig, Mulig'
p440
sg6
g351
sg8
(lp441
I2
aI2
aI2
aI2
aI2
aI2
aI2
aI2
aI2
aI2
aI2
aI2
aI2
aI2
aI2
aI3
aI3
aI3
aI2
aI2
aI3
aI3
aI2
aI2
aI2
aI2
aI2
aI2
aI2
aI2
aI2
aI2
aI2
aI2
aI2
aI2
aI2
aI2
aI2
aI2
aI2
aI2
aI2
aI2
aI2
aI2
aI2
aI2
aI2
aI2
aI2
aI2
aI2
aI2
aI2
aI2
aI2
aI2
aI2
aI2
aI2
aI2
aI2
aI2
aI2
aI2
aI2
aI2
aI2
aI2
aI2
aI2
aI2
aI2
aI2
aI2
aI2
asg10
S'Possible'
p442
sg12
S'Some'
p443
sg14
g236
sg16
I2
sg17
S'Low'
p444
sg19
S'Liten tilleggsbelastning'
p445
sg21
I77
sg22
S'200'
p446
sg24
S'800'
p447
sg26
S'Noen bratte heng'
p448
sg28
g360
(g364
S'\x14\x9d\xffYg\x8a\xcf?'
p449
tp450
Rp451
sg29
g333
sg31
S'2 - Smaa'
p452
sba(irunmatrix
M3Element
p453
(dp454
g3
F3.0
sg4
S'Lite sannsynlig, Mulig'
p455
sg6
S'#ff9900'
p456
sg8
(lp457
I3
asg10
S'Possible'
p458
sg12
S'Some'
p459
sg14
g236
sg16
I2
sg17
S'Nat'
p460
sg19
S'Naturlig utloest'
p461
sg21
I1
sg22
S'200'
p462
sg24
S'900'
p463
sg26
S'Noen bratte heng'
p464
sg28
g360
(g364
S'\x00\x00\x00\x00\x00\x00\x00\x00'
p465
tp466
Rp467
sg29
g333
sg31
S'2 - Smaa'
p468
sba(irunmatrix
M3Element
p469
(dp470
g3
Nsg4
S'Sannsynlig, Meget sannsynlig'
p471
sg6
S'gray'
p472
sg8
(lp473
sg10
S'Likely'
p474
sg12
S'Some'
p475
sg14
g66
sg16
I0
sg17
S'High'
p476
sg19
S'Stor tilleggsbelastning'
p477
sg21
Nsg22
S'200'
p478
sg24
S'1000'
p479
sg26
S'Noen bratte heng'
p480
sg28
Nsg29
g333
sg31
S'2 - Smaa'
p481
sba(irunmatrix
M3Element
p482
(dp483
g3
Nsg4
S'Sannsynlig, Meget sannsynlig'
p484
sg6
S'gray'
p485
sg8
(lp486
sg10
S'Likely'
p487
sg12
S'Some'
p488
sg14
g66
sg16
I0
sg17
S'Low'
p489
sg19
S'Liten tilleggsbelastning'
p490
sg21
Nsg22
S'200'
p491
sg24
S'1100'
p492
sg26
S'Noen bratte heng'
p493
sg28
Nsg29
g333
sg31
S'2 - Smaa'
p494
sba(irunmatrix
M3Element
p495
(dp496
g3
Nsg4
S'Sannsynlig, Meget sannsynlig'
p497
sg6
S'white'
p498
sg8
(lp499
sg10
S'Likely'
p500
sg12
S'Some'
p501
sg14
S'#ff9900'
p502
sg16
I3
sg17
S'Nat'
p503
sg19
S'Naturlig utloest'
p504
sg21
Nsg22
S'200'
p505
sg24
S'1200'
p506
sg26
S'Noen bratte heng'
p507
sg28
Nsg29
g333
sg31
S'2 - Smaa'
p508
sba(irunmatrix
M3Element
p509
(dp510
g3
Nsg4
S'Lite sannsynlig, Mulig'
p511
sg6
S'gray'
p512
sg8
(lp513
sg10
S'Possible'
p514
sg12
S'Many'
p515
sg14
g66
sg16
I0
sg17
S'High'
p516
sg19
S'Stor tilleggsbelastning'
p517
sg21
Nsg22
S'200'
p518
sg24
S'1300'
p519
sg26
S'Mange bratte heng'
p520
sg28
Nsg29
g333
sg31
S'2 - Smaa'
p521
sba(irunmatrix
M3Element
p522
(dp523
g3
F3.0
sg4
S'Lite sannsynlig, Mulig'
p524
sg6
g456
sg8
(lp525
I3
aI3
aI3
asg10
S'Possible'
p526
sg12
S'Many'
p527
sg14
g502
sg16
I3
sg17
S'Low'
p528
sg19
S'Liten tilleggsbelastning'
p529
sg21
I3
sg22
S'200'
p530
sg24
S'1400'
p531
sg26
S'Mange bratte heng'
p532
sg28
g360
(g364
S'\x00\x00\x00\x00\x00\x00\x00\x00'
p533
tp534
Rp535
sg29
g333
sg31
S'2 - Smaa'
p536
sba(irunmatrix
M3Element
p537
(dp538
g3
Nsg4
S'Lite sannsynlig, Mulig'
p539
sg6
S'gray'
p540
sg8
(lp541
sg10
S'Possible'
p542
sg12
S'Many'
p543
sg14
g66
sg16
I0
sg17
S'Nat'
p544
sg19
S'Naturlig utloest'
p545
sg21
Nsg22
S'200'
p546
sg24
S'1500'
p547
sg26
S'Mange bratte heng'
p548
sg28
Nsg29
g333
sg31
S'2 - Smaa'
p549
sba(irunmatrix
M3Element
p550
(dp551
g3
Nsg4
S'Sannsynlig, Meget sannsynlig'
p552
sg6
S'gray'
p553
sg8
(lp554
sg10
S'Likely'
p555
sg12
S'Many'
p556
sg14
g66
sg16
I0
sg17
S'High'
p557
sg19
S'Stor tilleggsbelastning'
p558
sg21
Nsg22
S'200'
p559
sg24
S'1600'
p560
sg26
S'Mange bratte heng'
p561
sg28
Nsg29
g333
sg31
S'2 - Smaa'
p562
sba(irunmatrix
M3Element
p563
(dp564
g3
Nsg4
S'Sannsynlig, Meget sannsynlig'
p565
sg6
S'white'
p566
sg8
(lp567
sg10
S'Likely'
p568
sg12
S'Many'
p569
sg14
S'#ff0000'
p570
sg16
I4
sg17
S'Low'
p571
sg19
S'Liten tilleggsbelastning'
p572
sg21
Nsg22
S'200'
p573
sg24
S'1700'
p574
sg26
S'Mange bratte heng'
p575
sg28
Nsg29
g333
sg31
S'2 - Smaa'
p576
sba(irunmatrix
M3Element
p577
(dp578
g3
Nsg4
S'Sannsynlig, Meget sannsynlig'
p579
sg6
S'white'
p580
sg8
(lp581
sg10
S'Likely'
p582
sg12
S'Many'
p583
sg14
g570
sg16
I4
sg17
S'Nat'
p584
sg19
S'Naturlig utloest'
p585
sg21
Nsg22
S'200'
p586
sg24
S'1800'
p587
sg26
S'Mange bratte heng'
p588
sg28
Nsg29
g333
sg31
S'2 - Smaa'
p589
sba(irunmatrix
M3Element
p590
(dp591
g3
Nsg4
S'Lite sannsynlig, Mulig'
p592
sg6
S'gray'
p593
sg8
(lp594
sg10
S'Possible'
p595
sg12
S'Most'
p596
sg14
g66
sg16
I0
sg17
S'High'
p597
sg19
S'Stor tilleggsbelastning'
p598
sg21
Nsg22
S'200'
p599
sg24
S'1900'
p600
sg26
S'De fleste bratte heng, Ogsaa i mindre bratt terreng'
p601
sg28
Nsg29
g333
sg31
S'2 - Smaa'
p602
sba(irunmatrix
M3Element
p603
(dp604
g3
Nsg4
S'Lite sannsynlig, Mulig'
p605
sg6
S'gray'
p606
sg8
(lp607
sg10
S'Possible'
p608
sg12
S'Most'
p609
sg14
g66
sg16
I0
sg17
S'Low'
p610
sg19
S'Liten tilleggsbelastning'
p611
sg21
Nsg22
S'200'
p612
sg24
S'2000'
p613
sg26
S'De fleste bratte heng, Ogsaa i mindre bratt terreng'
p614
sg28
Nsg29
g333
sg31
S'2 - Smaa'
p615
sba(irunmatrix
M3Element
p616
(dp617
g3
Nsg4
S'Lite sannsynlig, Mulig'
p618
sg6
S'gray'
p619
sg8
(lp620
sg10
S'Possible'
p621
sg12
S'Most'
p622
sg14
g66
sg16
I0
sg17
S'Nat'
p623
sg19
S'Naturlig utloest'
p624
sg21
Nsg22
S'200'
p625
sg24
S'2100'
p626
sg26
S'De fleste bratte heng, Ogsaa i mindre bratt terreng'
p627
sg28
Nsg29
g333
sg31
S'2 - Smaa'
p628
sba(irunmatrix
M3Element
p629
(dp630
g3
Nsg4
S'Sannsynlig, Meget sannsynlig'
p631
sg6
S'gray'
p632
sg8
(lp633
sg10
S'Likely'
p634
sg12
S'Most'
p635
sg14
g66
sg16
I0
sg17
S'High'
p636
sg19
S'Stor tilleggsbelastning'
p637
sg21
Nsg22
S'200'
p638
sg24
S'2200'
p639
sg26
S'De fleste bratte heng, Ogsaa i mindre bratt terreng'
p640
sg28
Nsg29
g333
sg31
S'2 - Smaa'
p641
sba(irunmatrix
M3Element
p642
(dp643
g3
Nsg4
S'Sannsynlig, Meget sannsynlig'
p644
sg6
S'gray'
p645
sg8
(lp646
sg10
S'Likely'
p647
sg12
S'Most'
p648
sg14
g66
sg16
I0
sg17
S'Low'
p649
sg19
S'Liten tilleggsbelastning'
p650
sg21
Nsg22
S'200'
p651
sg24
S'2300'
p652
sg26
S'De fleste bratte heng, Ogsaa i mindre bratt terreng'
p653
sg28
Nsg29
g333
sg31
S'2 - Smaa'
p654
sba(irunmatrix
M3Element
p655
(dp656
g3
Nsg4
S'Sannsynlig, Meget sannsynlig'
p657
sg6
S'white'
p658
sg8
(lp659
sg10
S'Likely'
p660
sg12
S'Most'
p661
sg14
g66
sg16
I0
sg17
S'Nat'
p662
sg19
S'Naturlig utloest'
p663
sg21
Nsg22
S'200'
p664
sg24
S'2400'
p665
sg26
S'De fleste bratte heng, Ogsaa i mindre bratt terreng'
p666
sg28
Nsg29
g333
sg31
S'2 - Smaa'
p667
sba(irunmatrix
M3Element
p668
(dp669
g3
Nsg4
S'Lite sannsynlig, Mulig'
p670
sg6
S'white'
p671
sg8
(lp672
sg10
S'Possible'
p673
sg12
S'Isolated'
p674
sg14
g15
sg16
I1
sg17
S'High'
p675
sg19
S'Stor tilleggsbelastning'
p676
sg21
Nsg22
S'300'
p677
sg24
S'100'
p678
sg26
S'Isolerte faresoner'
p679
sg28
Nsg29
S'3'
p680
sg31
S'3 - Middels'
p681
sba(irunmatrix
M3Element
p682
(dp683
g3
Nsg4
S'Lite sannsynlig, Mulig'
p684
sg6
S'white'
p685
sg8
(lp686
sg10
S'Possible'
p687
sg12
S'Isolated'
p688
sg14
g236
sg16
I2
sg17
S'Low'
p689
sg19
S'Liten tilleggsbelastning'
p690
sg21
Nsg22
S'300'
p691
sg24
S'200'
p692
sg26
S'Isolerte faresoner'
p693
sg28
Nsg29
g680
sg31
S'3 - Middels'
p694
sba(irunmatrix
M3Element
p695
(dp696
g3
Nsg4
S'Lite sannsynlig, Mulig'
p697
sg6
S'white'
p698
sg8
(lp699
sg10
S'Possible'
p700
sg12
S'Isolated'
p701
sg14
g236
sg16
I2
sg17
S'Nat'
p702
sg19
S'Naturlig utloest'
p703
sg21
Nsg22
S'300'
p704
sg24
S'300'
p705
sg26
S'Isolerte faresoner'
p706
sg28
Nsg29
g680
sg31
S'3 - Middels'
p707
sba(irunmatrix
M3Element
p708
(dp709
g3
Nsg4
S'Sannsynlig, Meget sannsynlig'
p710
sg6
S'gray'
p711
sg8
(lp712
sg10
S'Likely'
p713
sg12
S'Isolated'
p714
sg14
g66
sg16
I0
sg17
S'High'
p715
sg19
S'Stor tilleggsbelastning'
p716
sg21
Nsg22
S'300'
p717
sg24
S'400'
p718
sg26
S'Isolerte faresoner'
p719
sg28
Nsg29
g680
sg31
S'3 - Middels'
p720
sba(irunmatrix
M3Element
p721
(dp722
g3
Nsg4
S'Sannsynlig, Meget sannsynlig'
p723
sg6
S'gray'
p724
sg8
(lp725
sg10
S'Likely'
p726
sg12
S'Isolated'
p727
sg14
g66
sg16
I0
sg17
S'Low'
p728
sg19
S'Liten tilleggsbelastning'
p729
sg21
Nsg22
S'300'
p730
sg24
S'500'
p731
sg26
S'Isolerte faresoner'
p732
sg28
Nsg29
g680
sg31
S'3 - Middels'
p733
sba(irunmatrix
M3Element
p734
(dp735
g3
Nsg4
S'Sannsynlig, Meget sannsynlig'
p736
sg6
S'gray'
p737
sg8
(lp738
sg10
S'Likely'
p739
sg12
S'Isolated'
p740
sg14
g66
sg16
I0
sg17
S'Nat'
p741
sg19
S'Naturlig utloest'
p742
sg21
Nsg22
S'300'
p743
sg24
S'600'
p744
sg26
S'Isolerte faresoner'
p745
sg28
Nsg29
g680
sg31
S'3 - Middels'
p746
sba(irunmatrix
M3Element
p747
(dp748
g3
Nsg4
S'Lite sannsynlig, Mulig'
p749
sg6
S'white'
p750
sg8
(lp751
sg10
S'Possible'
p752
sg12
S'Some'
p753
sg14
g236
sg16
I2
sg17
S'High'
p754
sg19
S'Stor tilleggsbelastning'
p755
sg21
Nsg22
S'300'
p756
sg24
S'700'
p757
sg26
S'Noen bratte heng'
p758
sg28
Nsg29
g680
sg31
S'3 - Middels'
p759
sba(irunmatrix
M3Element
p760
(dp761
g3
F3.0
sg4
S'Lite sannsynlig, Mulig'
p762
sg6
g456
sg8
(lp763
I3
aI3
aI3
aI3
aI3
aI3
aI3
aI3
aI3
aI3
aI3
aI3
aI3
aI3
aI3
aI3
aI3
aI3
asg10
S'Possible'
p764
sg12
S'Some'
p765
sg14
g502
sg16
I3
sg17
S'Low'
p766
sg19
S'Liten tilleggsbelastning'
p767
sg21
I18
sg22
S'300'
p768
sg24
S'800'
p769
sg26
S'Noen bratte heng'
p770
sg28
g360
(g364
S'\x00\x00\x00\x00\x00\x00\x00\x00'
p771
tp772
Rp773
sg29
g680
sg31
S'3 - Middels'
p774
sba(irunmatrix
M3Element
p775
(dp776
g3
F3.0
sg4
S'Lite sannsynlig, Mulig'
p777
sg6
g456
sg8
(lp778
I3
asg10
S'Possible'
p779
sg12
S'Some'
p780
sg14
g502
sg16
I3
sg17
S'Nat'
p781
sg19
S'Naturlig utloest'
p782
sg21
I1
sg22
S'300'
p783
sg24
S'900'
p784
sg26
S'Noen bratte heng'
p785
sg28
g360
(g364
S'\x00\x00\x00\x00\x00\x00\x00\x00'
p786
tp787
Rp788
sg29
g680
sg31
S'3 - Middels'
p789
sba(irunmatrix
M3Element
p790
(dp791
g3
Nsg4
S'Sannsynlig, Meget sannsynlig'
p792
sg6
S'gray'
p793
sg8
(lp794
sg10
S'Likely'
p795
sg12
S'Some'
p796
sg14
g66
sg16
I0
sg17
S'High'
p797
sg19
S'Stor tilleggsbelastning'
p798
sg21
Nsg22
S'300'
p799
sg24
S'1000'
p800
sg26
S'Noen bratte heng'
p801
sg28
Nsg29
g680
sg31
S'3 - Middels'
p802
sba(irunmatrix
M3Element
p803
(dp804
g3
Nsg4
S'Sannsynlig, Meget sannsynlig'
p805
sg6
S'gray'
p806
sg8
(lp807
sg10
S'Likely'
p808
sg12
S'Some'
p809
sg14
g66
sg16
I0
sg17
S'Low'
p810
sg19
S'Liten tilleggsbelastning'
p811
sg21
Nsg22
S'300'
p812
sg24
S'1100'
p813
sg26
S'Noen bratte heng'
p814
sg28
Nsg29
g680
sg31
S'3 - Middels'
p815
sba(irunmatrix
M3Element
p816
(dp817
g3
Nsg4
S'Sannsynlig, Meget sannsynlig'
p818
sg6
S'white'
p819
sg8
(lp820
sg10
S'Likely'
p821
sg12
S'Some'
p822
sg14
g570
sg16
I4
sg17
S'Nat'
p823
sg19
S'Naturlig utloest'
p824
sg21
Nsg22
S'300'
p825
sg24
S'1200'
p826
sg26
S'Noen bratte heng'
p827
sg28
Nsg29
g680
sg31
S'3 - Middels'
p828
sba(irunmatrix
M3Element
p829
(dp830
g3
Nsg4
S'Lite sannsynlig, Mulig'
p831
sg6
S'gray'
p832
sg8
(lp833
sg10
S'Possible'
p834
sg12
S'Many'
p835
sg14
g66
sg16
I0
sg17
S'High'
p836
sg19
S'Stor tilleggsbelastning'
p837
sg21
Nsg22
S'300'
p838
sg24
S'1300'
p839
sg26
S'Mange bratte heng'
p840
sg28
Nsg29
g680
sg31
S'3 - Middels'
p841
sba(irunmatrix
M3Element
p842
(dp843
g3
Nsg4
S'Lite sannsynlig, Mulig'
p844
sg6
S'white'
p845
sg8
(lp846
sg10
S'Possible'
p847
sg12
S'Many'
p848
sg14
g570
sg16
I4
sg17
S'Low'
p849
sg19
S'Liten tilleggsbelastning'
p850
sg21
Nsg22
S'300'
p851
sg24
S'1400'
p852
sg26
S'Mange bratte heng'
p853
sg28
Nsg29
g680
sg31
S'3 - Middels'
p854
sba(irunmatrix
M3Element
p855
(dp856
g3
Nsg4
S'Lite sannsynlig, Mulig'
p857
sg6
S'gray'
p858
sg8
(lp859
sg10
S'Possible'
p860
sg12
S'Many'
p861
sg14
g66
sg16
I0
sg17
S'Nat'
p862
sg19
S'Naturlig utloest'
p863
sg21
Nsg22
S'300'
p864
sg24
S'1500'
p865
sg26
S'Mange bratte heng'
p866
sg28
Nsg29
g680
sg31
S'3 - Middels'
p867
sba(irunmatrix
M3Element
p868
(dp869
g3
Nsg4
S'Sannsynlig, Meget sannsynlig'
p870
sg6
S'gray'
p871
sg8
(lp872
sg10
S'Likely'
p873
sg12
S'Many'
p874
sg14
g66
sg16
I0
sg17
S'High'
p875
sg19
S'Stor tilleggsbelastning'
p876
sg21
Nsg22
S'300'
p877
sg24
S'1600'
p878
sg26
S'Mange bratte heng'
p879
sg28
Nsg29
g680
sg31
S'3 - Middels'
p880
sba(irunmatrix
M3Element
p881
(dp882
g3
Nsg4
S'Sannsynlig, Meget sannsynlig'
p883
sg6
S'white'
p884
sg8
(lp885
sg10
S'Likely'
p886
sg12
S'Many'
p887
sg14
g570
sg16
I4
sg17
S'Low'
p888
sg19
S'Liten tilleggsbelastning'
p889
sg21
Nsg22
S'300'
p890
sg24
S'1700'
p891
sg26
S'Mange bratte heng'
p892
sg28
Nsg29
g680
sg31
S'3 - Middels'
p893
sba(irunmatrix
M3Element
p894
(dp895
g3
Nsg4
S'Sannsynlig, Meget sannsynlig'
p896
sg6
S'white'
p897
sg8
(lp898
sg10
S'Likely'
p899
sg12
S'Many'
p900
sg14
g570
sg16
I4
sg17
S'Nat'
p901
sg19
S'Naturlig utloest'
p902
sg21
Nsg22
S'300'
p903
sg24
S'1800'
p904
sg26
S'Mange bratte heng'
p905
sg28
Nsg29
g680
sg31
S'3 - Middels'
p906
sba(irunmatrix
M3Element
p907
(dp908
g3
Nsg4
S'Lite sannsynlig, Mulig'
p909
sg6
S'gray'
p910
sg8
(lp911
sg10
S'Possible'
p912
sg12
S'Most'
p913
sg14
g66
sg16
I0
sg17
S'High'
p914
sg19
S'Stor tilleggsbelastning'
p915
sg21
Nsg22
S'300'
p916
sg24
S'1900'
p917
sg26
S'De fleste bratte heng, Ogsaa i mindre bratt terreng'
p918
sg28
Nsg29
g680
sg31
S'3 - Middels'
p919
sba(irunmatrix
M3Element
p920
(dp921
g3
Nsg4
S'Lite sannsynlig, Mulig'
p922
sg6
S'gray'
p923
sg8
(lp924
sg10
S'Possible'
p925
sg12
S'Most'
p926
sg14
g66
sg16
I0
sg17
S'Low'
p927
sg19
S'Liten tilleggsbelastning'
p928
sg21
Nsg22
S'300'
p929
sg24
S'2000'
p930
sg26
S'De fleste bratte heng, Ogsaa i mindre bratt terreng'
p931
sg28
Nsg29
g680
sg31
S'3 - Middels'
p932
sba(irunmatrix
M3Element
p933
(dp934
g3
Nsg4
S'Lite sannsynlig, Mulig'
p935
sg6
S'gray'
p936
sg8
(lp937
sg10
S'Possible'
p938
sg12
S'Most'
p939
sg14
g66
sg16
I0
sg17
S'Nat'
p940
sg19
S'Naturlig utloest'
p941
sg21
Nsg22
S'300'
p942
sg24
S'2100'
p943
sg26
S'De fleste bratte heng, Ogsaa i mindre bratt terreng'
p944
sg28
Nsg29
g680
sg31
S'3 - Middels'
p945
sba(irunmatrix
M3Element
p946
(dp947
g3
Nsg4
S'Sannsynlig, Meget sannsynlig'
p948
sg6
S'gray'
p949
sg8
(lp950
sg10
S'Likely'
p951
sg12
S'Most'
p952
sg14
g66
sg16
I0
sg17
S'High'
p953
sg19
S'Stor tilleggsbelastning'
p954
sg21
Nsg22
S'300'
p955
sg24
S'2200'
p956
sg26
S'De fleste bratte heng, Ogsaa i mindre bratt terreng'
p957
sg28
Nsg29
g680
sg31
S'3 - Middels'
p958
sba(irunmatrix
M3Element
p959
(dp960
g3
Nsg4
S'Sannsynlig, Meget sannsynlig'
p961
sg6
S'gray'
p962
sg8
(lp963
sg10
S'Likely'
p964
sg12
S'Most'
p965
sg14
g66
sg16
I0
sg17
S'Low'
p966
sg19
S'Liten tilleggsbelastning'
p967
sg21
Nsg22
S'300'
p968
sg24
S'2300'
p969
sg26
S'De fleste bratte heng, Ogsaa i mindre bratt terreng'
p970
sg28
Nsg29
g680
sg31
S'3 - Middels'
p971
sba(irunmatrix
M3Element
p972
(dp973
g3
Nsg4
S'Sannsynlig, Meget sannsynlig'
p974
sg6
S'white'
p975
sg8
(lp976
sg10
S'Likely'
p977
sg12
S'Most'
p978
sg14
g66
sg16
I0
sg17
S'Nat'
p979
sg19
S'Naturlig utloest'
p980
sg21
Nsg22
S'300'
p981
sg24
S'2400'
p982
sg26
S'De fleste bratte heng, Ogsaa i mindre bratt terreng'
p983
sg28
Nsg29
g680
sg31
S'3 - Middels'
p984
sba(irunmatrix
M3Element
p985
(dp986
g3
Nsg4
S'Lite sannsynlig, Mulig'
p987
sg6
S'white'
p988
sg8
(lp989
sg10
S'Possible'
p990
sg12
S'Isolated'
p991
sg14
g236
sg16
I2
sg17
S'High'
p992
sg19
S'Stor tilleggsbelastning'
p993
sg21
Nsg22
S'400'
p994
sg24
S'100'
p995
sg26
S'Isolerte faresoner'
p996
sg28
Nsg29
S'4'
p997
sg31
S'4 - Store'
p998
sba(irunmatrix
M3Element
p999
(dp1000
g3
Nsg4
S'Lite sannsynlig, Mulig'
p1001
sg6
S'white'
p1002
sg8
(lp1003
sg10
S'Possible'
p1004
sg12
S'Isolated'
p1005
sg14
g502
sg16
I3
sg17
S'Low'
p1006
sg19
S'Liten tilleggsbelastning'
p1007
sg21
Nsg22
S'400'
p1008
sg24
S'200'
p1009
sg26
S'Isolerte faresoner'
p1010
sg28
Nsg29
g997
sg31
S'4 - Store'
p1011
sba(irunmatrix
M3Element
p1012
(dp1013
g3
Nsg4
S'Lite sannsynlig, Mulig'
p1014
sg6
S'white'
p1015
sg8
(lp1016
sg10
S'Possible'
p1017
sg12
S'Isolated'
p1018
sg14
g502
sg16
I3
sg17
S'Nat'
p1019
sg19
S'Naturlig utloest'
p1020
sg21
Nsg22
S'400'
p1021
sg24
S'300'
p1022
sg26
S'Isolerte faresoner'
p1023
sg28
Nsg29
g997
sg31
S'4 - Store'
p1024
sba(irunmatrix
M3Element
p1025
(dp1026
g3
Nsg4
S'Sannsynlig, Meget sannsynlig'
p1027
sg6
S'gray'
p1028
sg8
(lp1029
sg10
S'Likely'
p1030
sg12
S'Isolated'
p1031
sg14
g66
sg16
I0
sg17
S'High'
p1032
sg19
S'Stor tilleggsbelastning'
p1033
sg21
Nsg22
S'400'
p1034
sg24
S'400'
p1035
sg26
S'Isolerte faresoner'
p1036
sg28
Nsg29
g997
sg31
S'4 - Store'
p1037
sba(irunmatrix
M3Element
p1038
(dp1039
g3
Nsg4
S'Sannsynlig, Meget sannsynlig'
p1040
sg6
S'gray'
p1041
sg8
(lp1042
sg10
S'Likely'
p1043
sg12
S'Isolated'
p1044
sg14
g66
sg16
I0
sg17
S'Low'
p1045
sg19
S'Liten tilleggsbelastning'
p1046
sg21
Nsg22
S'400'
p1047
sg24
S'500'
p1048
sg26
S'Isolerte faresoner'
p1049
sg28
Nsg29
g997
sg31
S'4 - Store'
p1050
sba(irunmatrix
M3Element
p1051
(dp1052
g3
Nsg4
S'Sannsynlig, Meget sannsynlig'
p1053
sg6
S'gray'
p1054
sg8
(lp1055
sg10
S'Likely'
p1056
sg12
S'Isolated'
p1057
sg14
g66
sg16
I0
sg17
S'Nat'
p1058
sg19
S'Naturlig utloest'
p1059
sg21
Nsg22
S'400'
p1060
sg24
S'600'
p1061
sg26
S'Isolerte faresoner'
p1062
sg28
Nsg29
g997
sg31
S'4 - Store'
p1063
sba(irunmatrix
M3Element
p1064
(dp1065
g3
Nsg4
S'Lite sannsynlig, Mulig'
p1066
sg6
S'white'
p1067
sg8
(lp1068
sg10
S'Possible'
p1069
sg12
S'Some'
p1070
sg14
g502
sg16
I3
sg17
S'High'
p1071
sg19
S'Stor tilleggsbelastning'
p1072
sg21
Nsg22
S'400'
p1073
sg24
S'700'
p1074
sg26
S'Noen bratte heng'
p1075
sg28
Nsg29
g997
sg31
S'4 - Store'
p1076
sba(irunmatrix
M3Element
p1077
(dp1078
g3
Nsg4
S'Lite sannsynlig, Mulig'
p1079
sg6
S'white'
p1080
sg8
(lp1081
sg10
S'Possible'
p1082
sg12
S'Some'
p1083
sg14
g570
sg16
I4
sg17
S'Low'
p1084
sg19
S'Liten tilleggsbelastning'
p1085
sg21
Nsg22
S'400'
p1086
sg24
S'800'
p1087
sg26
S'Noen bratte heng'
p1088
sg28
Nsg29
g997
sg31
S'4 - Store'
p1089
sba(irunmatrix
M3Element
p1090
(dp1091
g3
Nsg4
S'Lite sannsynlig, Mulig'
p1092
sg6
S'white'
p1093
sg8
(lp1094
sg10
S'Possible'
p1095
sg12
S'Some'
p1096
sg14
g570
sg16
I4
sg17
S'Nat'
p1097
sg19
S'Naturlig utloest'
p1098
sg21
Nsg22
S'400'
p1099
sg24
S'900'
p1100
sg26
S'Noen bratte heng'
p1101
sg28
Nsg29
g997
sg31
S'4 - Store'
p1102
sba(irunmatrix
M3Element
p1103
(dp1104
g3
Nsg4
S'Sannsynlig, Meget sannsynlig'
p1105
sg6
S'gray'
p1106
sg8
(lp1107
sg10
S'Likely'
p1108
sg12
S'Some'
p1109
sg14
g66
sg16
I0
sg17
S'High'
p1110
sg19
S'Stor tilleggsbelastning'
p1111
sg21
Nsg22
S'400'
p1112
sg24
S'1000'
p1113
sg26
S'Noen bratte heng'
p1114
sg28
Nsg29
g997
sg31
S'4 - Store'
p1115
sba(irunmatrix
M3Element
p1116
(dp1117
g3
Nsg4
S'Sannsynlig, Meget sannsynlig'
p1118
sg6
S'gray'
p1119
sg8
(lp1120
sg10
S'Likely'
p1121
sg12
S'Some'
p1122
sg14
g66
sg16
I0
sg17
S'Low'
p1123
sg19
S'Liten tilleggsbelastning'
p1124
sg21
Nsg22
S'400'
p1125
sg24
S'1100'
p1126
sg26
S'Noen bratte heng'
p1127
sg28
Nsg29
g997
sg31
S'4 - Store'
p1128
sba(irunmatrix
M3Element
p1129
(dp1130
g3
Nsg4
S'Sannsynlig, Meget sannsynlig'
p1131
sg6
S'white'
p1132
sg8
(lp1133
sg10
S'Likely'
p1134
sg12
S'Some'
p1135
sg14
g570
sg16
I4
sg17
S'Nat'
p1136
sg19
S'Naturlig utloest'
p1137
sg21
Nsg22
S'400'
p1138
sg24
S'1200'
p1139
sg26
S'Noen bratte heng'
p1140
sg28
Nsg29
g997
sg31
S'4 - Store'
p1141
sba(irunmatrix
M3Element
p1142
(dp1143
g3
Nsg4
S'Lite sannsynlig, Mulig'
p1144
sg6
S'gray'
p1145
sg8
(lp1146
sg10
S'Possible'
p1147
sg12
S'Many'
p1148
sg14
g66
sg16
I0
sg17
S'High'
p1149
sg19
S'Stor tilleggsbelastning'
p1150
sg21
Nsg22
S'400'
p1151
sg24
S'1300'
p1152
sg26
S'Mange bratte heng'
p1153
sg28
Nsg29
g997
sg31
S'4 - Store'
p1154
sba(irunmatrix
M3Element
p1155
(dp1156
g3
Nsg4
S'Lite sannsynlig, Mulig'
p1157
sg6
S'white'
p1158
sg8
(lp1159
sg10
S'Possible'
p1160
sg12
S'Many'
p1161
sg14
g66
sg16
I0
sg17
S'Low'
p1162
sg19
S'Liten tilleggsbelastning'
p1163
sg21
Nsg22
S'400'
p1164
sg24
S'1400'
p1165
sg26
S'Mange bratte heng'
p1166
sg28
Nsg29
g997
sg31
S'4 - Store'
p1167
sba(irunmatrix
M3Element
p1168
(dp1169
g3
Nsg4
S'Lite sannsynlig, Mulig'
p1170
sg6
S'gray'
p1171
sg8
(lp1172
sg10
S'Possible'
p1173
sg12
S'Many'
p1174
sg14
g66
sg16
I0
sg17
S'Nat'
p1175
sg19
S'Naturlig utloest'
p1176
sg21
Nsg22
S'400'
p1177
sg24
S'1500'
p1178
sg26
S'Mange bratte heng'
p1179
sg28
Nsg29
g997
sg31
S'4 - Store'
p1180
sba(irunmatrix
M3Element
p1181
(dp1182
g3
Nsg4
S'Sannsynlig, Meget sannsynlig'
p1183
sg6
S'gray'
p1184
sg8
(lp1185
sg10
S'Likely'
p1186
sg12
S'Many'
p1187
sg14
g66
sg16
I0
sg17
S'High'
p1188
sg19
S'Stor tilleggsbelastning'
p1189
sg21
Nsg22
S'400'
p1190
sg24
S'1600'
p1191
sg26
S'Mange bratte heng'
p1192
sg28
Nsg29
g997
sg31
S'4 - Store'
p1193
sba(irunmatrix
M3Element
p1194
(dp1195
g3
Nsg4
S'Sannsynlig, Meget sannsynlig'
p1196
sg6
S'white'
p1197
sg8
(lp1198
sg10
S'Likely'
p1199
sg12
S'Many'
p1200
sg14
g66
sg16
I0
sg17
S'Low'
p1201
sg19
S'Liten tilleggsbelastning'
p1202
sg21
Nsg22
S'400'
p1203
sg24
S'1700'
p1204
sg26
S'Mange bratte heng'
p1205
sg28
Nsg29
g997
sg31
S'4 - Store'
p1206
sba(irunmatrix
M3Element
p1207
(dp1208
g3
Nsg4
S'Sannsynlig, Meget sannsynlig'
p1209
sg6
S'white'
p1210
sg8
(lp1211
sg10
S'Likely'
p1212
sg12
S'Many'
p1213
sg14
S'k'
p1214
sg16
I5
sg17
S'Nat'
p1215
sg19
S'Naturlig utloest'
p1216
sg21
Nsg22
S'400'
p1217
sg24
S'1800'
p1218
sg26
S'Mange bratte heng'
p1219
sg28
Nsg29
g997
sg31
S'4 - Store'
p1220
sba(irunmatrix
M3Element
p1221
(dp1222
g3
Nsg4
S'Lite sannsynlig, Mulig'
p1223
sg6
S'gray'
p1224
sg8
(lp1225
sg10
S'Possible'
p1226
sg12
S'Most'
p1227
sg14
g66
sg16
I0
sg17
S'High'
p1228
sg19
S'Stor tilleggsbelastning'
p1229
sg21
Nsg22
S'400'
p1230
sg24
S'1900'
p1231
sg26
S'De fleste bratte heng, Ogsaa i mindre bratt terreng'
p1232
sg28
Nsg29
g997
sg31
S'4 - Store'
p1233
sba(irunmatrix
M3Element
p1234
(dp1235
g3
Nsg4
S'Lite sannsynlig, Mulig'
p1236
sg6
S'gray'
p1237
sg8
(lp1238
sg10
S'Possible'
p1239
sg12
S'Most'
p1240
sg14
g66
sg16
I0
sg17
S'Low'
p1241
sg19
S'Liten tilleggsbelastning'
p1242
sg21
Nsg22
S'400'
p1243
sg24
S'2000'
p1244
sg26
S'De fleste bratte heng, Ogsaa i mindre bratt terreng'
p1245
sg28
Nsg29
g997
sg31
S'4 - Store'
p1246
sba(irunmatrix
M3Element
p1247
(dp1248
g3
Nsg4
S'Lite sannsynlig, Mulig'
p1249
sg6
S'gray'
p1250
sg8
(lp1251
sg10
S'Possible'
p1252
sg12
S'Most'
p1253
sg14
g66
sg16
I0
sg17
S'Nat'
p1254
sg19
S'Naturlig utloest'
p1255
sg21
Nsg22
S'400'
p1256
sg24
S'2100'
p1257
sg26
S'De fleste bratte heng, Ogsaa i mindre bratt terreng'
p1258
sg28
Nsg29
g997
sg31
S'4 - Store'
p1259
sba(irunmatrix
M3Element
p1260
(dp1261
g3
Nsg4
S'Sannsynlig, Meget sannsynlig'
p1262
sg6
S'gray'
p1263
sg8
(lp1264
sg10
S'Likely'
p1265
sg12
S'Most'
p1266
sg14
g66
sg16
I0
sg17
S'High'
p1267
sg19
S'Stor tilleggsbelastning'
p1268
sg21
Nsg22
S'400'
p1269
sg24
S'2200'
p1270
sg26
S'De fleste bratte heng, Ogsaa i mindre bratt terreng'
p1271
sg28
Nsg29
g997
sg31
S'4 - Store'
p1272
sba(irunmatrix
M3Element
p1273
(dp1274
g3
Nsg4
S'Sannsynlig, Meget sannsynlig'
p1275
sg6
S'gray'
p1276
sg8
(lp1277
sg10
S'Likely'
p1278
sg12
S'Most'
p1279
sg14
g66
sg16
I0
sg17
S'Low'
p1280
sg19
S'Liten tilleggsbelastning'
p1281
sg21
Nsg22
S'400'
p1282
sg24
S'2300'
p1283
sg26
S'De fleste bratte heng, Ogsaa i mindre bratt terreng'
p1284
sg28
Nsg29
g997
sg31
S'4 - Store'
p1285
sba(irunmatrix
M3Element
p1286
(dp1287
g3
Nsg4
S'Sannsynlig, Meget sannsynlig'
p1288
sg6
S'white'
p1289
sg8
(lp1290
sg10
S'Likely'
p1291
sg12
S'Most'
p1292
sg14
g66
sg16
I0
sg17
S'Nat'
p1293
sg19
S'Naturlig utloest'
p1294
sg21
Nsg22
S'400'
p1295
sg24
S'2400'
p1296
sg26
S'De fleste bratte heng, Ogsaa i mindre bratt terreng'
p1297
sg28
Nsg29
g997
sg31
S'4 - Store'
p1298
sba(irunmatrix
M3Element
p1299
(dp1300
g3
Nsg4
S'Lite sannsynlig, Mulig'
p1301
sg6
S'white'
p1302
sg8
(lp1303
sg10
S'Possible'
p1304
sg12
S'Isolated'
p1305
sg14
g66
sg16
I0
sg17
S'High'
p1306
sg19
S'Stor tilleggsbelastning'
p1307
sg21
Nsg22
S'500'
p1308
sg24
S'100'
p1309
sg26
S'Isolerte faresoner'
p1310
sg28
Nsg29
S'5'
p1311
sg31
S'5 - Svaert store'
p1312
sba(irunmatrix
M3Element
p1313
(dp1314
g3
Nsg4
S'Lite sannsynlig, Mulig'
p1315
sg6
S'white'
p1316
sg8
(lp1317
sg10
S'Possible'
p1318
sg12
S'Isolated'
p1319
sg14
g66
sg16
I0
sg17
S'Low'
p1320
sg19
S'Liten tilleggsbelastning'
p1321
sg21
Nsg22
S'500'
p1322
sg24
S'200'
p1323
sg26
S'Isolerte faresoner'
p1324
sg28
Nsg29
g1311
sg31
S'5 - Svaert store'
p1325
sba(irunmatrix
M3Element
p1326
(dp1327
g3
Nsg4
S'Lite sannsynlig, Mulig'
p1328
sg6
S'white'
p1329
sg8
(lp1330
sg10
S'Possible'
p1331
sg12
S'Isolated'
p1332
sg14
g66
sg16
I0
sg17
S'Nat'
p1333
sg19
S'Naturlig utloest'
p1334
sg21
Nsg22
S'500'
p1335
sg24
S'300'
p1336
sg26
S'Isolerte faresoner'
p1337
sg28
Nsg29
g1311
sg31
S'5 - Svaert store'
p1338
sba(irunmatrix
M3Element
p1339
(dp1340
g3
Nsg4
S'Sannsynlig, Meget sannsynlig'
p1341
sg6
S'gray'
p1342
sg8
(lp1343
sg10
S'Likely'
p1344
sg12
S'Isolated'
p1345
sg14
g66
sg16
I0
sg17
S'High'
p1346
sg19
S'Stor tilleggsbelastning'
p1347
sg21
Nsg22
S'500'
p1348
sg24
S'400'
p1349
sg26
S'Isolerte faresoner'
p1350
sg28
Nsg29
g1311
sg31
S'5 - Svaert store'
p1351
sba(irunmatrix
M3Element
p1352
(dp1353
g3
Nsg4
S'Sannsynlig, Meget sannsynlig'
p1354
sg6
S'gray'
p1355
sg8
(lp1356
sg10
S'Likely'
p1357
sg12
S'Isolated'
p1358
sg14
g66
sg16
I0
sg17
S'Low'
p1359
sg19
S'Liten tilleggsbelastning'
p1360
sg21
Nsg22
S'500'
p1361
sg24
S'500'
p1362
sg26
S'Isolerte faresoner'
p1363
sg28
Nsg29
g1311
sg31
S'5 - Svaert store'
p1364
sba(irunmatrix
M3Element
p1365
(dp1366
g3
Nsg4
S'Sannsynlig, Meget sannsynlig'
p1367
sg6
S'gray'
p1368
sg8
(lp1369
sg10
S'Likely'
p1370
sg12
S'Isolated'
p1371
sg14
g66
sg16
I0
sg17
S'Nat'
p1372
sg19
S'Naturlig utloest'
p1373
sg21
Nsg22
S'500'
p1374
sg24
S'600'
p1375
sg26
S'Isolerte faresoner'
p1376
sg28
Nsg29
g1311
sg31
S'5 - Svaert store'
p1377
sba(irunmatrix
M3Element
p1378
(dp1379
g3
Nsg4
S'Lite sannsynlig, Mulig'
p1380
sg6
S'white'
p1381
sg8
(lp1382
sg10
S'Possible'
p1383
sg12
S'Some'
p1384
sg14
g66
sg16
I0
sg17
S'High'
p1385
sg19
S'Stor tilleggsbelastning'
p1386
sg21
Nsg22
S'500'
p1387
sg24
S'700'
p1388
sg26
S'Noen bratte heng'
p1389
sg28
Nsg29
g1311
sg31
S'5 - Svaert store'
p1390
sba(irunmatrix
M3Element
p1391
(dp1392
g3
Nsg4
S'Lite sannsynlig, Mulig'
p1393
sg6
S'white'
p1394
sg8
(lp1395
sg10
S'Possible'
p1396
sg12
S'Some'
p1397
sg14
g66
sg16
I0
sg17
S'Low'
p1398
sg19
S'Liten tilleggsbelastning'
p1399
sg21
Nsg22
S'500'
p1400
sg24
S'800'
p1401
sg26
S'Noen bratte heng'
p1402
sg28
Nsg29
g1311
sg31
S'5 - Svaert store'
p1403
sba(irunmatrix
M3Element
p1404
(dp1405
g3
Nsg4
S'Lite sannsynlig, Mulig'
p1406
sg6
S'white'
p1407
sg8
(lp1408
sg10
S'Possible'
p1409
sg12
S'Some'
p1410
sg14
g66
sg16
I0
sg17
S'Nat'
p1411
sg19
S'Naturlig utloest'
p1412
sg21
Nsg22
S'500'
p1413
sg24
S'900'
p1414
sg26
S'Noen bratte heng'
p1415
sg28
Nsg29
g1311
sg31
S'5 - Svaert store'
p1416
sba(irunmatrix
M3Element
p1417
(dp1418
g3
Nsg4
S'Sannsynlig, Meget sannsynlig'
p1419
sg6
S'gray'
p1420
sg8
(lp1421
sg10
S'Likely'
p1422
sg12
S'Some'
p1423
sg14
g66
sg16
I0
sg17
S'High'
p1424
sg19
S'Stor tilleggsbelastning'
p1425
sg21
Nsg22
S'500'
p1426
sg24
S'1000'
p1427
sg26
S'Noen bratte heng'
p1428
sg28
Nsg29
g1311
sg31
S'5 - Svaert store'
p1429
sba(irunmatrix
M3Element
p1430
(dp1431
g3
Nsg4
S'Sannsynlig, Meget sannsynlig'
p1432
sg6
S'gray'
p1433
sg8
(lp1434
sg10
S'Likely'
p1435
sg12
S'Some'
p1436
sg14
g66
sg16
I0
sg17
S'Low'
p1437
sg19
S'Liten tilleggsbelastning'
p1438
sg21
Nsg22
S'500'
p1439
sg24
S'1100'
p1440
sg26
S'Noen bratte heng'
p1441
sg28
Nsg29
g1311
sg31
S'5 - Svaert store'
p1442
sba(irunmatrix
M3Element
p1443
(dp1444
g3
Nsg4
S'Sannsynlig, Meget sannsynlig'
p1445
sg6
S'white'
p1446
sg8
(lp1447
sg10
S'Likely'
p1448
sg12
S'Some'
p1449
sg14
g66
sg16
I0
sg17
S'Nat'
p1450
sg19
S'Naturlig utloest'
p1451
sg21
Nsg22
S'500'
p1452
sg24
S'1200'
p1453
sg26
S'Noen bratte heng'
p1454
sg28
Nsg29
g1311
sg31
S'5 - Svaert store'
p1455
sba(irunmatrix
M3Element
p1456
(dp1457
g3
Nsg4
S'Lite sannsynlig, Mulig'
p1458
sg6
S'gray'
p1459
sg8
(lp1460
sg10
S'Possible'
p1461
sg12
S'Many'
p1462
sg14
g66
sg16
I0
sg17
S'High'
p1463
sg19
S'Stor tilleggsbelastning'
p1464
sg21
Nsg22
S'500'
p1465
sg24
S'1300'
p1466
sg26
S'Mange bratte heng'
p1467
sg28
Nsg29
g1311
sg31
S'5 - Svaert store'
p1468
sba(irunmatrix
M3Element
p1469
(dp1470
g3
Nsg4
S'Lite sannsynlig, Mulig'
p1471
sg6
S'white'
p1472
sg8
(lp1473
sg10
S'Possible'
p1474
sg12
S'Many'
p1475
sg14
g66
sg16
I0
sg17
S'Low'
p1476
sg19
S'Liten tilleggsbelastning'
p1477
sg21
Nsg22
S'500'
p1478
sg24
S'1400'
p1479
sg26
S'Mange bratte heng'
p1480
sg28
Nsg29
g1311
sg31
S'5 - Svaert store'
p1481
sba(irunmatrix
M3Element
p1482
(dp1483
g3
Nsg4
S'Lite sannsynlig, Mulig'
p1484
sg6
S'gray'
p1485
sg8
(lp1486
sg10
S'Possible'
p1487
sg12
S'Many'
p1488
sg14
g66
sg16
I0
sg17
S'Nat'
p1489
sg19
S'Naturlig utloest'
p1490
sg21
Nsg22
S'500'
p1491
sg24
S'1500'
p1492
sg26
S'Mange bratte heng'
p1493
sg28
Nsg29
g1311
sg31
S'5 - Svaert store'
p1494
sba(irunmatrix
M3Element
p1495
(dp1496
g3
Nsg4
S'Sannsynlig, Meget sannsynlig'
p1497
sg6
S'gray'
p1498
sg8
(lp1499
sg10
S'Likely'
p1500
sg12
S'Many'
p1501
sg14
g66
sg16
I0
sg17
S'High'
p1502
sg19
S'Stor tilleggsbelastning'
p1503
sg21
Nsg22
S'500'
p1504
sg24
S'1600'
p1505
sg26
S'Mange bratte heng'
p1506
sg28
Nsg29
g1311
sg31
S'5 - Svaert store'
p1507
sba(irunmatrix
M3Element
p1508
(dp1509
g3
Nsg4
S'Sannsynlig, Meget sannsynlig'
p1510
sg6
S'white'
p1511
sg8
(lp1512
sg10
S'Likely'
p1513
sg12
S'Many'
p1514
sg14
g66
sg16
I0
sg17
S'Low'
p1515
sg19
S'Liten tilleggsbelastning'
p1516
sg21
Nsg22
S'500'
p1517
sg24
S'1700'
p1518
sg26
S'Mange bratte heng'
p1519
sg28
Nsg29
g1311
sg31
S'5 - Svaert store'
p1520
sba(irunmatrix
M3Element
p1521
(dp1522
g3
Nsg4
S'Sannsynlig, Meget sannsynlig'
p1523
sg6
S'white'
p1524
sg8
(lp1525
sg10
S'Likely'
p1526
sg12
S'Many'
p1527
sg14
g1214
sg16
I5
sg17
S'Nat'
p1528
sg19
S'Naturlig utloest'
p1529
sg21
Nsg22
S'500'
p1530
sg24
S'1800'
p1531
sg26
S'Mange bratte heng'
p1532
sg28
Nsg29
g1311
sg31
S'5 - Svaert store'
p1533
sba(irunmatrix
M3Element
p1534
(dp1535
g3
Nsg4
S'Lite sannsynlig, Mulig'
p1536
sg6
S'gray'
p1537
sg8
(lp1538
sg10
S'Possible'
p1539
sg12
S'Most'
p1540
sg14
g66
sg16
I0
sg17
S'High'
p1541
sg19
S'Stor tilleggsbelastning'
p1542
sg21
Nsg22
S'500'
p1543
sg24
S'1900'
p1544
sg26
S'De fleste bratte heng, Ogsaa i mindre bratt terreng'
p1545
sg28
Nsg29
g1311
sg31
S'5 - Svaert store'
p1546
sba(irunmatrix
M3Element
p1547
(dp1548
g3
Nsg4
S'Lite sannsynlig, Mulig'
p1549
sg6
S'gray'
p1550
sg8
(lp1551
sg10
S'Possible'
p1552
sg12
S'Most'
p1553
sg14
g66
sg16
I0
sg17
S'Low'
p1554
sg19
S'Liten tilleggsbelastning'
p1555
sg21
Nsg22
S'500'
p1556
sg24
S'2000'
p1557
sg26
S'De fleste bratte heng, Ogsaa i mindre bratt terreng'
p1558
sg28
Nsg29
g1311
sg31
S'5 - Svaert store'
p1559
sba(irunmatrix
M3Element
p1560
(dp1561
g3
Nsg4
S'Lite sannsynlig, Mulig'
p1562
sg6
S'gray'
p1563
sg8
(lp1564
sg10
S'Possible'
p1565
sg12
S'Most'
p1566
sg14
g66
sg16
I0
sg17
S'Nat'
p1567
sg19
S'Naturlig utloest'
p1568
sg21
Nsg22
S'500'
p1569
sg24
S'2100'
p1570
sg26
S'De fleste bratte heng, Ogsaa i mindre bratt terreng'
p1571
sg28
Nsg29
g1311
sg31
S'5 - Svaert store'
p1572
sba(irunmatrix
M3Element
p1573
(dp1574
g3
Nsg4
S'Sannsynlig, Meget sannsynlig'
p1575
sg6
S'gray'
p1576
sg8
(lp1577
sg10
S'Likely'
p1578
sg12
S'Most'
p1579
sg14
g66
sg16
I0
sg17
S'High'
p1580
sg19
S'Stor tilleggsbelastning'
p1581
sg21
Nsg22
S'500'
p1582
sg24
S'2200'
p1583
sg26
S'De fleste bratte heng, Ogsaa i mindre bratt terreng'
p1584
sg28
Nsg29
g1311
sg31
S'5 - Svaert store'
p1585
sba(irunmatrix
M3Element
p1586
(dp1587
g3
Nsg4
S'Sannsynlig, Meget sannsynlig'
p1588
sg6
S'gray'
p1589
sg8
(lp1590
sg10
S'Likely'
p1591
sg12
S'Most'
p1592
sg14
g66
sg16
I0
sg17
S'Low'
p1593
sg19
S'Liten tilleggsbelastning'
p1594
sg21
Nsg22
S'500'
p1595
sg24
S'2300'
p1596
sg26
S'De fleste bratte heng, Ogsaa i mindre bratt terreng'
p1597
sg28
Nsg29
g1311
sg31
S'5 - Svaert store'
p1598
sba(irunmatrix
M3Element
p1599
(dp1600
g3
Nsg4
S'Sannsynlig, Meget sannsynlig'
p1601
sg6
S'white'
p1602
sg8
(lp1603
sg10
S'Likely'
p1604
sg12
S'Most'
p1605
sg14
g66
sg16
I0
sg17
S'Nat'
p1606
sg19
S'Naturlig utloest'
p1607
sg21
Nsg22
S'500'
p1608
sg24
S'2400'
p1609
sg26
S'De fleste bratte heng, Ogsaa i mindre bratt terreng'
p1610
sg28
Nsg29
g1311
sg31
S'5 - Svaert store'
p1611
sba.