(dp0
S'trigger'
p1
(dp2
S'keys'
p3
(lp4
S'Stor tilleggsbelastning'
p5
aS'Liten tilleggsbelastning'
p6
aS'Naturlig utloest'
p7
asS'colors'
p8
(lp9
S'0.7'
p10
asS'values'
p11
(lp12
S'Liten tilleggsbelastning'
p13
aS'Liten tilleggsbelastning'
p14
aS'Liten tilleggsbelastning'
p15
aS'Liten tilleggsbelastning'
p16
aS'Stor tilleggsbelastning'
p17
aS'Liten tilleggsbelastning'
p18
aS'Liten tilleggsbelastning'
p19
aS'Liten tilleggsbelastning'
p20
aS'Stor tilleggsbelastning'
p21
aS'Liten tilleggsbelastning'
p22
aS'Stor tilleggsbelastning'
p23
aS'Stor tilleggsbelastning'
p24
aS'Liten tilleggsbelastning'
p25
aS'Liten tilleggsbelastning'
p26
aS'Liten tilleggsbelastning'
p27
aS'Liten tilleggsbelastning'
p28
aS'Liten tilleggsbelastning'
p29
aS'Liten tilleggsbelastning'
p30
aS'Liten tilleggsbelastning'
p31
aS'Stor tilleggsbelastning'
p32
aS'Stor tilleggsbelastning'
p33
aS'Stor tilleggsbelastning'
p34
aS'Stor tilleggsbelastning'
p35
aS'Stor tilleggsbelastning'
p36
aS'Stor tilleggsbelastning'
p37
aS'Liten tilleggsbelastning'
p38
aS'Liten tilleggsbelastning'
p39
aS'Naturlig utloest'
p40
aS'Naturlig utloest'
p41
aS'Naturlig utloest'
p42
aS'Naturlig utloest'
p43
aS'Naturlig utloest'
p44
aS'Naturlig utloest'
p45
aS'Naturlig utloest'
p46
aS'Stor tilleggsbelastning'
p47
aS'Stor tilleggsbelastning'
p48
aS'Naturlig utloest'
p49
aS'Naturlig utloest'
p50
aS'Naturlig utloest'
p51
aS'Naturlig utloest'
p52
aS'Naturlig utloest'
p53
aS'Naturlig utloest'
p54
aS'Naturlig utloest'
p55
aS'Naturlig utloest'
p56
aS'Naturlig utloest'
p57
aS'Naturlig utloest'
p58
aS'Naturlig utloest'
p59
aS'Naturlig utloest'
p60
aS'Naturlig utloest'
p61
aS'Naturlig utloest'
p62
aS'Liten tilleggsbelastning'
p63
aS'Liten tilleggsbelastning'
p64
aS'Naturlig utloest'
p65
aS'Naturlig utloest'
p66
aS'Naturlig utloest'
p67
aS'Naturlig utloest'
p68
aS'Naturlig utloest'
p69
aS'Naturlig utloest'
p70
aS'Naturlig utloest'
p71
aS'Naturlig utloest'
p72
aS'Naturlig utloest'
p73
aS'Naturlig utloest'
p74
aS'Naturlig utloest'
p75
aS'Naturlig utloest'
p76
aS'Liten tilleggsbelastning'
p77
aS'Liten tilleggsbelastning'
p78
aS'Naturlig utloest'
p79
aS'Naturlig utloest'
p80
aS'Naturlig utloest'
p81
aS'Naturlig utloest'
p82
aS'Naturlig utloest'
p83
aS'Naturlig utloest'
p84
aS'Liten tilleggsbelastning'
p85
aS'Naturlig utloest'
p86
aS'Naturlig utloest'
p87
aS'Liten tilleggsbelastning'
p88
aS'Liten tilleggsbelastning'
p89
aS'Liten tilleggsbelastning'
p90
aS'Liten tilleggsbelastning'
p91
aS'Liten tilleggsbelastning'
p92
aS'Liten tilleggsbelastning'
p93
aS'Liten tilleggsbelastning'
p94
aS'Liten tilleggsbelastning'
p95
aS'Liten tilleggsbelastning'
p96
aS'Liten tilleggsbelastning'
p97
aS'Liten tilleggsbelastning'
p98
aS'Naturlig utloest'
p99
aS'Naturlig utloest'
p100
aS'Stor tilleggsbelastning'
p101
aS'Liten tilleggsbelastning'
p102
aS'Liten tilleggsbelastning'
p103
aS'Liten tilleggsbelastning'
p104
aS'Liten tilleggsbelastning'
p105
aS'Liten tilleggsbelastning'
p106
aS'Liten tilleggsbelastning'
p107
aS'Naturlig utloest'
p108
aS'Stor tilleggsbelastning'
p109
aS'Liten tilleggsbelastning'
p110
aS'Liten tilleggsbelastning'
p111
assS'distribution'
p112
(dp113
g3
(lp114
S'Isolerte faresoner'
p115
aS'Noen bratte heng'
p116
aS'Mange bratte heng'
p117
aS'De fleste bratte heng'
p118
aS'Ogsaa i mindre bratt terreng'
p119
asg8
(lp120
g10
asg11
(lp121
S'Noen bratte heng'
p122
aS'Noen bratte heng'
p123
aS'Noen bratte heng'
p124
aS'Noen bratte heng'
p125
aS'Noen bratte heng'
p126
aS'Isolerte faresoner'
p127
aS'Noen bratte heng'
p128
aS'Isolerte faresoner'
p129
aS'Noen bratte heng'
p130
aS'Noen bratte heng'
p131
aS'Noen bratte heng'
p132
aS'Isolerte faresoner'
p133
aS'Isolerte faresoner'
p134
aS'Isolerte faresoner'
p135
aS'Isolerte faresoner'
p136
aS'Noen bratte heng'
p137
aS'Noen bratte heng'
p138
aS'Isolerte faresoner'
p139
aS'Isolerte faresoner'
p140
aS'Noen bratte heng'
p141
aS'Noen bratte heng'
p142
aS'Noen bratte heng'
p143
aS'Noen bratte heng'
p144
aS'Noen bratte heng'
p145
aS'Isolerte faresoner'
p146
aS'Noen bratte heng'
p147
aS'Noen bratte heng'
p148
aS'Noen bratte heng'
p149
aS'Noen bratte heng'
p150
aS'Noen bratte heng'
p151
aS'Noen bratte heng'
p152
aS'Noen bratte heng'
p153
aS'Noen bratte heng'
p154
aS'Noen bratte heng'
p155
aS'Noen bratte heng'
p156
aS'Noen bratte heng'
p157
aS'Noen bratte heng'
p158
aS'Noen bratte heng'
p159
aS'Noen bratte heng'
p160
aS'Noen bratte heng'
p161
aS'Noen bratte heng'
p162
aS'Noen bratte heng'
p163
aS'Noen bratte heng'
p164
aS'Noen bratte heng'
p165
aS'Noen bratte heng'
p166
aS'Noen bratte heng'
p167
aS'Noen bratte heng'
p168
aS'Noen bratte heng'
p169
aS'Noen bratte heng'
p170
aS'Noen bratte heng'
p171
aS'Isolerte faresoner'
p172
aS'Isolerte faresoner'
p173
aS'Noen bratte heng'
p174
aS'Noen bratte heng'
p175
aS'Noen bratte heng'
p176
aS'Noen bratte heng'
p177
aS'Noen bratte heng'
p178
aS'Noen bratte heng'
p179
aS'Noen bratte heng'
p180
aS'Noen bratte heng'
p181
aS'Noen bratte heng'
p182
aS'Noen bratte heng'
p183
aS'Noen bratte heng'
p184
aS'Isolerte faresoner'
p185
aS'Noen bratte heng'
p186
aS'Noen bratte heng'
p187
aS'Noen bratte heng'
p188
aS'Noen bratte heng'
p189
aS'Noen bratte heng'
p190
aS'Noen bratte heng'
p191
aS'Isolerte faresoner'
p192
aS'Isolerte faresoner'
p193
aS'Noen bratte heng'
p194
aS'Noen bratte heng'
p195
aS'Noen bratte heng'
p196
aS'Isolerte faresoner'
p197
aS'Isolerte faresoner'
p198
aS'Isolerte faresoner'
p199
aS'Isolerte faresoner'
p200
aS'Noen bratte heng'
p201
aS'Isolerte faresoner'
p202
aS'Isolerte faresoner'
p203
aS'Isolerte faresoner'
p204
aS'Isolerte faresoner'
p205
aS'Isolerte faresoner'
p206
aS'Isolerte faresoner'
p207
aS'Mange bratte heng'
p208
aS'Mange bratte heng'
p209
aS'Mange bratte heng'
p210
aS'Isolerte faresoner'
p211
aS'Isolerte faresoner'
p212
aS'Isolerte faresoner'
p213
aS'Isolerte faresoner'
p214
aS'Isolerte faresoner'
p215
aS'Isolerte faresoner'
p216
aS'Noen bratte heng'
p217
aS'Mange bratte heng'
p218
aS'Isolerte faresoner'
p219
aS'Isolerte faresoner'
p220
assS'size'
p221
(dp222
g3
(lp223
S'1 - Harmloest'
p224
aS'2 - Smaa'
p225
aS'3 - Middels'
p226
aS'4 - Store'
p227
aS'5 - Svaert store'
p228
aS'Ukjent'
p229
asg8
(lp230
g10
asg11
(lp231
S'2 - Smaa'
p232
aS'3 - Middels'
p233
aS'2 - Smaa'
p234
aS'2 - Smaa'
p235
aS'3 - Middels'
p236
aS'1 - Harmloest'
p237
aS'2 - Smaa'
p238
aS'1 - Harmloest'
p239
aS'2 - Smaa'
p240
aS'2 - Smaa'
p241
aS'2 - Smaa'
p242
aS'2 - Smaa'
p243
aS'1 - Harmloest'
p244
aS'1 - Harmloest'
p245
aS'1 - Harmloest'
p246
aS'1 - Harmloest'
p247
aS'2 - Smaa'
p248
aS'2 - Smaa'
p249
aS'2 - Smaa'
p250
aS'2 - Smaa'
p251
aS'2 - Smaa'
p252
aS'2 - Smaa'
p253
aS'2 - Smaa'
p254
aS'2 - Smaa'
p255
aS'2 - Smaa'
p256
aS'2 - Smaa'
p257
aS'2 - Smaa'
p258
aS'1 - Harmloest'
p259
aS'1 - Harmloest'
p260
aS'1 - Harmloest'
p261
aS'1 - Harmloest'
p262
aS'1 - Harmloest'
p263
aS'1 - Harmloest'
p264
aS'1 - Harmloest'
p265
aS'2 - Smaa'
p266
aS'2 - Smaa'
p267
aS'1 - Harmloest'
p268
aS'1 - Harmloest'
p269
aS'1 - Harmloest'
p270
aS'1 - Harmloest'
p271
aS'1 - Harmloest'
p272
aS'1 - Harmloest'
p273
aS'1 - Harmloest'
p274
aS'1 - Harmloest'
p275
aS'1 - Harmloest'
p276
aS'1 - Harmloest'
p277
aS'1 - Harmloest'
p278
aS'1 - Harmloest'
p279
aS'1 - Harmloest'
p280
aS'1 - Harmloest'
p281
aS'2 - Smaa'
p282
aS'2 - Smaa'
p283
aS'1 - Harmloest'
p284
aS'1 - Harmloest'
p285
aS'1 - Harmloest'
p286
aS'2 - Smaa'
p287
aS'2 - Smaa'
p288
aS'1 - Harmloest'
p289
aS'2 - Smaa'
p290
aS'2 - Smaa'
p291
aS'2 - Smaa'
p292
aS'2 - Smaa'
p293
aS'2 - Smaa'
p294
aS'2 - Smaa'
p295
aS'3 - Middels'
p296
aS'2 - Smaa'
p297
aS'2 - Smaa'
p298
aS'2 - Smaa'
p299
aS'2 - Smaa'
p300
aS'2 - Smaa'
p301
aS'2 - Smaa'
p302
aS'2 - Smaa'
p303
aS'2 - Smaa'
p304
aS'2 - Smaa'
p305
aS'2 - Smaa'
p306
aS'2 - Smaa'
p307
aS'2 - Smaa'
p308
aS'2 - Smaa'
p309
aS'2 - Smaa'
p310
aS'2 - Smaa'
p311
aS'2 - Smaa'
p312
aS'2 - Smaa'
p313
aS'2 - Smaa'
p314
aS'2 - Smaa'
p315
aS'2 - Smaa'
p316
aS'2 - Smaa'
p317
aS'2 - Smaa'
p318
aS'2 - Smaa'
p319
aS'3 - Middels'
p320
aS'2 - Smaa'
p321
aS'2 - Smaa'
p322
aS'2 - Smaa'
p323
aS'2 - Smaa'
p324
aS'1 - Harmloest'
p325
aS'1 - Harmloest'
p326
aS'2 - Smaa'
p327
aS'3 - Middels'
p328
aS'2 - Smaa'
p329
aS'2 - Smaa'
p330
assS'probability'
p331
(dp332
g3
(lp333
S'Lite sannsynlig'
p334
aS'Mulig'
p335
aS'Sannsynlig'
p336
aS'Meget sannsynlig'
p337
asg8
(lp338
g10
asg11
(lp339
S'Mulig'
p340
aS'Mulig'
p341
aS'Mulig'
p342
aS'Mulig'
p343
aS'Mulig'
p344
aS'Mulig'
p345
aS'Mulig'
p346
aS'Mulig'
p347
aS'Lite sannsynlig'
p348
aS'Mulig'
p349
aS'Mulig'
p350
aS'Mulig'
p351
aS'Mulig'
p352
aS'Mulig'
p353
aS'Mulig'
p354
aS'Mulig'
p355
aS'Mulig'
p356
aS'Mulig'
p357
aS'Mulig'
p358
aS'Mulig'
p359
aS'Mulig'
p360
aS'Mulig'
p361
aS'Mulig'
p362
aS'Mulig'
p363
aS'Mulig'
p364
aS'Mulig'
p365
aS'Mulig'
p366
aS'Sannsynlig'
p367
aS'Mulig'
p368
aS'Sannsynlig'
p369
aS'Sannsynlig'
p370
aS'Sannsynlig'
p371
aS'Sannsynlig'
p372
aS'Sannsynlig'
p373
aS'Mulig'
p374
aS'Mulig'
p375
aS'Mulig'
p376
aS'Mulig'
p377
aS'Mulig'
p378
aS'Mulig'
p379
aS'Mulig'
p380
aS'Mulig'
p381
aS'Mulig'
p382
aS'Mulig'
p383
aS'Mulig'
p384
aS'Mulig'
p385
aS'Mulig'
p386
aS'Mulig'
p387
aS'Mulig'
p388
aS'Mulig'
p389
aS'Mulig'
p390
aS'Mulig'
p391
aS'Mulig'
p392
aS'Mulig'
p393
aS'Mulig'
p394
aS'Mulig'
p395
aS'Mulig'
p396
aS'Mulig'
p397
aS'Mulig'
p398
aS'Mulig'
p399
aS'Mulig'
p400
aS'Mulig'
p401
aS'Mulig'
p402
aS'Mulig'
p403
aS'Mulig'
p404
aS'Mulig'
p405
aS'Mulig'
p406
aS'Mulig'
p407
aS'Mulig'
p408
aS'Mulig'
p409
aS'Mulig'
p410
aS'Mulig'
p411
aS'Mulig'
p412
aS'Mulig'
p413
aS'Mulig'
p414
aS'Mulig'
p415
aS'Mulig'
p416
aS'Mulig'
p417
aS'Mulig'
p418
aS'Mulig'
p419
aS'Mulig'
p420
aS'Mulig'
p421
aS'Mulig'
p422
aS'Mulig'
p423
aS'Mulig'
p424
aS'Mulig'
p425
aS'Sannsynlig'
p426
aS'Sannsynlig'
p427
aS'Mulig'
p428
aS'Mulig'
p429
aS'Mulig'
p430
aS'Mulig'
p431
aS'Mulig'
p432
aS'Mulig'
p433
aS'Mulig'
p434
aS'Mulig'
p435
aS'Mulig'
p436
aS'Mulig'
p437
aS'Mulig'
p438
assS'level'
p439
(dp440
g3
(lp441
I1
aI2
aI3
aI4
aI5
asg8
(lp442
S'#ccff66'
p443
aS'#ffff00'
p444
aS'#ff9900'
p445
aS'#ff0000'
p446
aS'k'
p447
asg11
(lp448
I2
aI2
aI2
aI3
aI2
aI1
aI2
aI1
aI1
aI2
aI2
aI1
aI1
aI1
aI1
aI1
aI2
aI2
aI2
aI2
aI2
aI2
aI2
aI2
aI2
aI2
aI2
aI1
aI2
aI1
aI1
aI1
aI1
aI1
aI2
aI2
aI1
aI1
aI1
aI1
aI1
aI1
aI1
aI1
aI1
aI1
aI1
aI2
aI2
aI1
aI2
aI2
aI1
aI1
aI1
aI1
aI1
aI1
aI2
aI2
aI2
aI2
aI1
aI1
aI3
aI2
aI2
aI2
aI2
aI2
aI1
aI1
aI2
aI2
aI2
aI2
aI2
aI1
aI1
aI3
aI2
aI2
aI2
aI2
aI1
aI1
aI3
aI3
aI2
aI2
aI2
aI2
aI2
aI1
aI1
aI3
aI2
aI2
aI2
ass.