(lp0
(irunmatrix
M3Element
p1
(dp2
S'danger_level_average'
p3
NsS'probability'
p4
S'Lite sannsynlig, Mulig'
p5
sS'colour'
p6
S'white'
p7
sS'danger_level_list'
p8
(lp9
sS'label_probalility'
p10
S'Possible'
p11
sS'label_distribution'
p12
S'Isolated'
p13
sS'recomended_colour'
p14
S'#ccff66'
p15
sS'recomended_danger_level'
p16
I1
sS'label_trigger'
p17
S'High'
p18
sS'trigger'
p19
S'Stor tilleggsbelastning'
p20
sS'occurrences'
p21
NsS'y'
p22
S'100'
p23
sS'x'
p24
S'100'
p25
sS'distribution'
p26
S'Isolerte faresoner'
p27
sS'danger_level_standard_dev'
p28
NsS'label_size'
p29
S'1'
p30
sS'avalanche_size'
p31
S'1 - Harmloest'
p32
sba(irunmatrix
M3Element
p33
(dp34
g3
Nsg4
S'Lite sannsynlig, Mulig'
p35
sg6
S'white'
p36
sg8
(lp37
sg10
S'Possible'
p38
sg12
S'Isolated'
p39
sg14
g15
sg16
I1
sg17
S'Low'
p40
sg19
S'Liten tilleggsbelastning'
p41
sg21
Nsg22
S'100'
p42
sg24
S'200'
p43
sg26
S'Isolerte faresoner'
p44
sg28
Nsg29
g30
sg31
S'1 - Harmloest'
p45
sba(irunmatrix
M3Element
p46
(dp47
g3
Nsg4
S'Lite sannsynlig, Mulig'
p48
sg6
S'white'
p49
sg8
(lp50
sg10
S'Possible'
p51
sg12
S'Isolated'
p52
sg14
g15
sg16
I1
sg17
S'Nat'
p53
sg19
S'Naturlig utloest'
p54
sg21
Nsg22
S'100'
p55
sg24
S'300'
p56
sg26
S'Isolerte faresoner'
p57
sg28
Nsg29
g30
sg31
S'1 - Harmloest'
p58
sba(irunmatrix
M3Element
p59
(dp60
g3
Nsg4
S'Sannsynlig, Meget sannsynlig'
p61
sg6
S'gray'
p62
sg8
(lp63
sg10
S'Likely'
p64
sg12
S'Isolated'
p65
sg14
S'gray'
p66
sg16
I0
sg17
S'High'
p67
sg19
S'Stor tilleggsbelastning'
p68
sg21
Nsg22
S'100'
p69
sg24
S'400'
p70
sg26
S'Isolerte faresoner'
p71
sg28
Nsg29
g30
sg31
S'1 - Harmloest'
p72
sba(irunmatrix
M3Element
p73
(dp74
g3
Nsg4
S'Sannsynlig, Meget sannsynlig'
p75
sg6
S'gray'
p76
sg8
(lp77
sg10
S'Likely'
p78
sg12
S'Isolated'
p79
sg14
g66
sg16
I0
sg17
S'Low'
p80
sg19
S'Liten tilleggsbelastning'
p81
sg21
Nsg22
S'100'
p82
sg24
S'500'
p83
sg26
S'Isolerte faresoner'
p84
sg28
Nsg29
g30
sg31
S'1 - Harmloest'
p85
sba(irunmatrix
M3Element
p86
(dp87
g3
Nsg4
S'Sannsynlig, Meget sannsynlig'
p88
sg6
S'gray'
p89
sg8
(lp90
sg10
S'Likely'
p91
sg12
S'Isolated'
p92
sg14
g66
sg16
I0
sg17
S'Nat'
p93
sg19
S'Naturlig utloest'
p94
sg21
Nsg22
S'100'
p95
sg24
S'600'
p96
sg26
S'Isolerte faresoner'
p97
sg28
Nsg29
g30
sg31
S'1 - Harmloest'
p98
sba(irunmatrix
M3Element
p99
(dp100
g3
Nsg4
S'Lite sannsynlig, Mulig'
p101
sg6
S'white'
p102
sg8
(lp103
sg10
S'Possible'
p104
sg12
S'Some'
p105
sg14
g15
sg16
I1
sg17
S'High'
p106
sg19
S'Stor tilleggsbelastning'
p107
sg21
Nsg22
S'100'
p108
sg24
S'700'
p109
sg26
S'Noen bratte heng'
p110
sg28
Nsg29
g30
sg31
S'1 - Harmloest'
p111
sba(irunmatrix
M3Element
p112
(dp113
g3
Nsg4
S'Lite sannsynlig, Mulig'
p114
sg6
S'white'
p115
sg8
(lp116
sg10
S'Possible'
p117
sg12
S'Some'
p118
sg14
g15
sg16
I1
sg17
S'Low'
p119
sg19
S'Liten tilleggsbelastning'
p120
sg21
Nsg22
S'100'
p121
sg24
S'800'
p122
sg26
S'Noen bratte heng'
p123
sg28
Nsg29
g30
sg31
S'1 - Harmloest'
p124
sba(irunmatrix
M3Element
p125
(dp126
g3
F1.0
sg4
S'Lite sannsynlig, Mulig'
p127
sg6
S'#ccff66'
p128
sg8
(lp129
I1
aI1
asg10
S'Possible'
p130
sg12
S'Some'
p131
sg14
g15
sg16
I1
sg17
S'Nat'
p132
sg19
S'Naturlig utloest'
p133
sg21
I2
sg22
S'100'
p134
sg24
S'900'
p135
sg26
S'Noen bratte heng'
p136
sg28
cnumpy.core.multiarray
scalar
p137
(cnumpy
dtype
p138
(S'f8'
p139
I0
I1
tp140
Rp141
(I3
S'<'
p142
NNNI-1
I-1
I0
tp143
bS'\x00\x00\x00\x00\x00\x00\x00\x00'
p144
tp145
Rp146
sg29
g30
sg31
S'1 - Harmloest'
p147
sba(irunmatrix
M3Element
p148
(dp149
g3
Nsg4
S'Sannsynlig, Meget sannsynlig'
p150
sg6
S'gray'
p151
sg8
(lp152
sg10
S'Likely'
p153
sg12
S'Some'
p154
sg14
g66
sg16
I0
sg17
S'High'
p155
sg19
S'Stor tilleggsbelastning'
p156
sg21
Nsg22
S'100'
p157
sg24
S'1000'
p158
sg26
S'Noen bratte heng'
p159
sg28
Nsg29
g30
sg31
S'1 - Harmloest'
p160
sba(irunmatrix
M3Element
p161
(dp162
g3
Nsg4
S'Sannsynlig, Meget sannsynlig'
p163
sg6
S'gray'
p164
sg8
(lp165
sg10
S'Likely'
p166
sg12
S'Some'
p167
sg14
g66
sg16
I0
sg17
S'Low'
p168
sg19
S'Liten tilleggsbelastning'
p169
sg21
Nsg22
S'100'
p170
sg24
S'1100'
p171
sg26
S'Noen bratte heng'
p172
sg28
Nsg29
g30
sg31
S'1 - Harmloest'
p173
sba(irunmatrix
M3Element
p174
(dp175
g3
Nsg4
S'Sannsynlig, Meget sannsynlig'
p176
sg6
S'white'
p177
sg8
(lp178
sg10
S'Likely'
p179
sg12
S'Some'
p180
sg14
g15
sg16
I1
sg17
S'Nat'
p181
sg19
S'Naturlig utloest'
p182
sg21
Nsg22
S'100'
p183
sg24
S'1200'
p184
sg26
S'Noen bratte heng'
p185
sg28
Nsg29
g30
sg31
S'1 - Harmloest'
p186
sba(irunmatrix
M3Element
p187
(dp188
g3
Nsg4
S'Lite sannsynlig, Mulig'
p189
sg6
S'gray'
p190
sg8
(lp191
sg10
S'Possible'
p192
sg12
S'Many'
p193
sg14
g66
sg16
I0
sg17
S'High'
p194
sg19
S'Stor tilleggsbelastning'
p195
sg21
Nsg22
S'100'
p196
sg24
S'1300'
p197
sg26
S'Mange bratte heng'
p198
sg28
Nsg29
g30
sg31
S'1 - Harmloest'
p199
sba(irunmatrix
M3Element
p200
(dp201
g3
Nsg4
S'Lite sannsynlig, Mulig'
p202
sg6
S'white'
p203
sg8
(lp204
sg10
S'Possible'
p205
sg12
S'Many'
p206
sg14
g15
sg16
I1
sg17
S'Low'
p207
sg19
S'Liten tilleggsbelastning'
p208
sg21
Nsg22
S'100'
p209
sg24
S'1400'
p210
sg26
S'Mange bratte heng'
p211
sg28
Nsg29
g30
sg31
S'1 - Harmloest'
p212
sba(irunmatrix
M3Element
p213
(dp214
g3
Nsg4
S'Lite sannsynlig, Mulig'
p215
sg6
S'gray'
p216
sg8
(lp217
sg10
S'Possible'
p218
sg12
S'Many'
p219
sg14
g66
sg16
I0
sg17
S'Nat'
p220
sg19
S'Naturlig utloest'
p221
sg21
Nsg22
S'100'
p222
sg24
S'1500'
p223
sg26
S'Mange bratte heng'
p224
sg28
Nsg29
g30
sg31
S'1 - Harmloest'
p225
sba(irunmatrix
M3Element
p226
(dp227
g3
Nsg4
S'Sannsynlig, Meget sannsynlig'
p228
sg6
S'gray'
p229
sg8
(lp230
sg10
S'Likely'
p231
sg12
S'Many'
p232
sg14
g66
sg16
I0
sg17
S'High'
p233
sg19
S'Stor tilleggsbelastning'
p234
sg21
Nsg22
S'100'
p235
sg24
S'1600'
p236
sg26
S'Mange bratte heng'
p237
sg28
Nsg29
g30
sg31
S'1 - Harmloest'
p238
sba(irunmatrix
M3Element
p239
(dp240
g3
Nsg4
S'Sannsynlig, Meget sannsynlig'
p241
sg6
S'white'
p242
sg8
(lp243
sg10
S'Likely'
p244
sg12
S'Many'
p245
sg14
S'#ffff00'
p246
sg16
I2
sg17
S'Low'
p247
sg19
S'Liten tilleggsbelastning'
p248
sg21
Nsg22
S'100'
p249
sg24
S'1700'
p250
sg26
S'Mange bratte heng'
p251
sg28
Nsg29
g30
sg31
S'1 - Harmloest'
p252
sba(irunmatrix
M3Element
p253
(dp254
g3
Nsg4
S'Sannsynlig, Meget sannsynlig'
p255
sg6
S'white'
p256
sg8
(lp257
sg10
S'Likely'
p258
sg12
S'Many'
p259
sg14
g246
sg16
I2
sg17
S'Nat'
p260
sg19
S'Naturlig utloest'
p261
sg21
Nsg22
S'100'
p262
sg24
S'1800'
p263
sg26
S'Mange bratte heng'
p264
sg28
Nsg29
g30
sg31
S'1 - Harmloest'
p265
sba(irunmatrix
M3Element
p266
(dp267
g3
Nsg4
S'Lite sannsynlig, Mulig'
p268
sg6
S'gray'
p269
sg8
(lp270
sg10
S'Possible'
p271
sg12
S'Most'
p272
sg14
g66
sg16
I0
sg17
S'High'
p273
sg19
S'Stor tilleggsbelastning'
p274
sg21
Nsg22
S'100'
p275
sg24
S'1900'
p276
sg26
S'De fleste bratte heng, Ogsaa i mindre bratt terreng'
p277
sg28
Nsg29
g30
sg31
S'1 - Harmloest'
p278
sba(irunmatrix
M3Element
p279
(dp280
g3
Nsg4
S'Lite sannsynlig, Mulig'
p281
sg6
S'gray'
p282
sg8
(lp283
sg10
S'Possible'
p284
sg12
S'Most'
p285
sg14
g66
sg16
I0
sg17
S'Low'
p286
sg19
S'Liten tilleggsbelastning'
p287
sg21
Nsg22
S'100'
p288
sg24
S'2000'
p289
sg26
S'De fleste bratte heng, Ogsaa i mindre bratt terreng'
p290
sg28
Nsg29
g30
sg31
S'1 - Harmloest'
p291
sba(irunmatrix
M3Element
p292
(dp293
g3
Nsg4
S'Lite sannsynlig, Mulig'
p294
sg6
S'gray'
p295
sg8
(lp296
sg10
S'Possible'
p297
sg12
S'Most'
p298
sg14
g66
sg16
I0
sg17
S'Nat'
p299
sg19
S'Naturlig utloest'
p300
sg21
Nsg22
S'100'
p301
sg24
S'2100'
p302
sg26
S'De fleste bratte heng, Ogsaa i mindre bratt terreng'
p303
sg28
Nsg29
g30
sg31
S'1 - Harmloest'
p304
sba(irunmatrix
M3Element
p305
(dp306
g3
Nsg4
S'Sannsynlig, Meget sannsynlig'
p307
sg6
S'gray'
p308
sg8
(lp309
sg10
S'Likely'
p310
sg12
S'Most'
p311
sg14
g66
sg16
I0
sg17
S'High'
p312
sg19
S'Stor tilleggsbelastning'
p313
sg21
Nsg22
S'100'
p314
sg24
S'2200'
p315
sg26
S'De fleste bratte heng, Ogsaa i mindre bratt terreng'
p316
sg28
Nsg29
g30
sg31
S'1 - Harmloest'
p317
sba(irunmatrix
M3Element
p318
(dp319
g3
Nsg4
S'Sannsynlig, Meget sannsynlig'
p320
sg6
S'gray'
p321
sg8
(lp322
sg10
S'Likely'
p323
sg12
S'Most'
p324
sg14
g66
sg16
I0
sg17
S'Low'
p325
sg19
S'Liten tilleggsbelastning'
p326
sg21
Nsg22
S'100'
p327
sg24
S'2300'
p328
sg26
S'De fleste bratte heng, Ogsaa i mindre bratt terreng'
p329
sg28
Nsg29
g30
sg31
S'1 - Harmloest'
p330
sba(irunmatrix
M3Element
p331
(dp332
g3
Nsg4
S'Sannsynlig, Meget sannsynlig'
p333
sg6
S'white'
p334
sg8
(lp335
sg10
S'Likely'
p336
sg12
S'Most'
p337
sg14
g66
sg16
I0
sg17
S'Nat'
p338
sg19
S'Naturlig utloest'
p339
sg21
Nsg22
S'100'
p340
sg24
S'2400'
p341
sg26
S'De fleste bratte heng, Ogsaa i mindre bratt terreng'
p342
sg28
Nsg29
S'2'
p343
sg31
S'1 - Harmloest'
p344
sba(irunmatrix
M3Element
p345
(dp346
g3
F1.3333333333333333
sg4
S'Lite sannsynlig, Mulig'
p347
sg6
g128
sg8
(lp348
I2
aI2
aI1
aI1
aI1
aI1
asg10
S'Possible'
p349
sg12
S'Isolated'
p350
sg14
g15
sg16
I1
sg17
S'High'
p351
sg19
S'Stor tilleggsbelastning'
p352
sg21
I6
sg22
S'200'
p353
sg24
S'100'
p354
sg26
S'Isolerte faresoner'
p355
sg28
g137
(g141
S'g\xfa\xfe\xdd}+\xde?'
p356
tp357
Rp358
sg29
g343
sg31
S'2 - Smaa'
p359
sba(irunmatrix
M3Element
p360
(dp361
g3
F1.5
sg4
S'Lite sannsynlig, Mulig'
p362
sg6
S'#ffff00'
p363
sg8
(lp364
I2
aI2
aI2
aI2
aI2
aI2
aI2
aI1
aI1
aI1
aI1
aI1
aI1
aI1
asg10
S'Possible'
p365
sg12
S'Isolated'
p366
sg14
g15
sg16
I1
sg17
S'Low'
p367
sg19
S'Liten tilleggsbelastning'
p368
sg21
I14
sg22
S'200'
p369
sg24
S'200'
p370
sg26
S'Isolerte faresoner'
p371
sg28
g137
(g141
S'\x00\x00\x00\x00\x00\x00\xe0?'
p372
tp373
Rp374
sg29
g343
sg31
S'2 - Smaa'
p375
sba(irunmatrix
M3Element
p376
(dp377
g3
Nsg4
S'Lite sannsynlig, Mulig'
p378
sg6
S'white'
p379
sg8
(lp380
sg10
S'Possible'
p381
sg12
S'Isolated'
p382
sg14
g15
sg16
I1
sg17
S'Nat'
p383
sg19
S'Naturlig utloest'
p384
sg21
Nsg22
S'200'
p385
sg24
S'300'
p386
sg26
S'Isolerte faresoner'
p387
sg28
Nsg29
g343
sg31
S'2 - Smaa'
p388
sba(irunmatrix
M3Element
p389
(dp390
g3
Nsg4
S'Sannsynlig, Meget sannsynlig'
p391
sg6
S'gray'
p392
sg8
(lp393
sg10
S'Likely'
p394
sg12
S'Isolated'
p395
sg14
g66
sg16
I0
sg17
S'High'
p396
sg19
S'Stor tilleggsbelastning'
p397
sg21
Nsg22
S'200'
p398
sg24
S'400'
p399
sg26
S'Isolerte faresoner'
p400
sg28
Nsg29
g343
sg31
S'2 - Smaa'
p401
sba(irunmatrix
M3Element
p402
(dp403
g3
Nsg4
S'Sannsynlig, Meget sannsynlig'
p404
sg6
S'gray'
p405
sg8
(lp406
sg10
S'Likely'
p407
sg12
S'Isolated'
p408
sg14
g66
sg16
I0
sg17
S'Low'
p409
sg19
S'Liten tilleggsbelastning'
p410
sg21
Nsg22
S'200'
p411
sg24
S'500'
p412
sg26
S'Isolerte faresoner'
p413
sg28
Nsg29
g343
sg31
S'2 - Smaa'
p414
sba(irunmatrix
M3Element
p415
(dp416
g3
Nsg4
S'Sannsynlig, Meget sannsynlig'
p417
sg6
S'gray'
p418
sg8
(lp419
sg10
S'Likely'
p420
sg12
S'Isolated'
p421
sg14
g66
sg16
I0
sg17
S'Nat'
p422
sg19
S'Naturlig utloest'
p423
sg21
Nsg22
S'200'
p424
sg24
S'600'
p425
sg26
S'Isolerte faresoner'
p426
sg28
Nsg29
g343
sg31
S'2 - Smaa'
p427
sba(irunmatrix
M3Element
p428
(dp429
g3
F2.0
sg4
S'Lite sannsynlig, Mulig'
p430
sg6
g363
sg8
(lp431
I2
aI2
aI2
aI2
asg10
S'Possible'
p432
sg12
S'Some'
p433
sg14
g246
sg16
I2
sg17
S'High'
p434
sg19
S'Stor tilleggsbelastning'
p435
sg21
I4
sg22
S'200'
p436
sg24
S'700'
p437
sg26
S'Noen bratte heng'
p438
sg28
g137
(g141
S'\x00\x00\x00\x00\x00\x00\x00\x00'
p439
tp440
Rp441
sg29
g343
sg31
S'2 - Smaa'
p442
sba(irunmatrix
M3Element
p443
(dp444
g3
F2.088888888888889
sg4
S'Lite sannsynlig, Mulig'
p445
sg6
g363
sg8
(lp446
I3
aI3
aI3
aI2
aI2
aI2
aI2
aI2
aI2
aI2
aI2
aI2
aI3
aI2
aI2
aI2
aI2
aI2
aI2
aI2
aI2
aI2
aI2
aI2
aI2
aI2
aI2
aI2
aI2
aI2
aI2
aI2
aI2
aI2
aI2
aI2
aI2
aI2
aI2
aI2
aI2
aI2
aI2
aI2
aI2
asg10
S'Possible'
p447
sg12
S'Some'
p448
sg14
g246
sg16
I2
sg17
S'Low'
p449
sg19
S'Liten tilleggsbelastning'
p450
sg21
I45
sg22
S'200'
p451
sg24
S'800'
p452
sg26
S'Noen bratte heng'
p453
sg28
g137
(g141
S'\xa4\xaf\x05\xdf\x9c6\xd2?'
p454
tp455
Rp456
sg29
g343
sg31
S'2 - Smaa'
p457
sba(irunmatrix
M3Element
p458
(dp459
g3
Nsg4
S'Lite sannsynlig, Mulig'
p460
sg6
S'white'
p461
sg8
(lp462
sg10
S'Possible'
p463
sg12
S'Some'
p464
sg14
g246
sg16
I2
sg17
S'Nat'
p465
sg19
S'Naturlig utloest'
p466
sg21
Nsg22
S'200'
p467
sg24
S'900'
p468
sg26
S'Noen bratte heng'
p469
sg28
Nsg29
g343
sg31
S'2 - Smaa'
p470
sba(irunmatrix
M3Element
p471
(dp472
g3
Nsg4
S'Sannsynlig, Meget sannsynlig'
p473
sg6
S'gray'
p474
sg8
(lp475
sg10
S'Likely'
p476
sg12
S'Some'
p477
sg14
g66
sg16
I0
sg17
S'High'
p478
sg19
S'Stor tilleggsbelastning'
p479
sg21
Nsg22
S'200'
p480
sg24
S'1000'
p481
sg26
S'Noen bratte heng'
p482
sg28
Nsg29
g343
sg31
S'2 - Smaa'
p483
sba(irunmatrix
M3Element
p484
(dp485
g3
F3.0
sg4
S'Sannsynlig, Meget sannsynlig'
p486
sg6
S'#ff9900'
p487
sg8
(lp488
I3
aI3
aI3
aI3
aI3
aI3
asg10
S'Likely'
p489
sg12
S'Some'
p490
sg14
g66
sg16
I0
sg17
S'Low'
p491
sg19
S'Liten tilleggsbelastning'
p492
sg21
I6
sg22
S'200'
p493
sg24
S'1100'
p494
sg26
S'Noen bratte heng'
p495
sg28
g137
(g141
S'\x00\x00\x00\x00\x00\x00\x00\x00'
p496
tp497
Rp498
sg29
g343
sg31
S'2 - Smaa'
p499
sba(irunmatrix
M3Element
p500
(dp501
g3
Nsg4
S'Sannsynlig, Meget sannsynlig'
p502
sg6
S'white'
p503
sg8
(lp504
sg10
S'Likely'
p505
sg12
S'Some'
p506
sg14
S'#ff9900'
p507
sg16
I3
sg17
S'Nat'
p508
sg19
S'Naturlig utloest'
p509
sg21
Nsg22
S'200'
p510
sg24
S'1200'
p511
sg26
S'Noen bratte heng'
p512
sg28
Nsg29
g343
sg31
S'2 - Smaa'
p513
sba(irunmatrix
M3Element
p514
(dp515
g3
Nsg4
S'Lite sannsynlig, Mulig'
p516
sg6
S'gray'
p517
sg8
(lp518
sg10
S'Possible'
p519
sg12
S'Many'
p520
sg14
g66
sg16
I0
sg17
S'High'
p521
sg19
S'Stor tilleggsbelastning'
p522
sg21
Nsg22
S'200'
p523
sg24
S'1300'
p524
sg26
S'Mange bratte heng'
p525
sg28
Nsg29
g343
sg31
S'2 - Smaa'
p526
sba(irunmatrix
M3Element
p527
(dp528
g3
F3.0
sg4
S'Lite sannsynlig, Mulig'
p529
sg6
g487
sg8
(lp530
I3
aI3
aI3
aI3
aI3
aI3
aI3
aI3
aI3
aI3
aI3
aI3
aI3
aI3
aI3
aI3
asg10
S'Possible'
p531
sg12
S'Many'
p532
sg14
g507
sg16
I3
sg17
S'Low'
p533
sg19
S'Liten tilleggsbelastning'
p534
sg21
I16
sg22
S'200'
p535
sg24
S'1400'
p536
sg26
S'Mange bratte heng'
p537
sg28
g137
(g141
S'\x00\x00\x00\x00\x00\x00\x00\x00'
p538
tp539
Rp540
sg29
g343
sg31
S'2 - Smaa'
p541
sba(irunmatrix
M3Element
p542
(dp543
g3
Nsg4
S'Lite sannsynlig, Mulig'
p544
sg6
S'gray'
p545
sg8
(lp546
sg10
S'Possible'
p547
sg12
S'Many'
p548
sg14
g66
sg16
I0
sg17
S'Nat'
p549
sg19
S'Naturlig utloest'
p550
sg21
Nsg22
S'200'
p551
sg24
S'1500'
p552
sg26
S'Mange bratte heng'
p553
sg28
Nsg29
g343
sg31
S'2 - Smaa'
p554
sba(irunmatrix
M3Element
p555
(dp556
g3
Nsg4
S'Sannsynlig, Meget sannsynlig'
p557
sg6
S'gray'
p558
sg8
(lp559
sg10
S'Likely'
p560
sg12
S'Many'
p561
sg14
g66
sg16
I0
sg17
S'High'
p562
sg19
S'Stor tilleggsbelastning'
p563
sg21
Nsg22
S'200'
p564
sg24
S'1600'
p565
sg26
S'Mange bratte heng'
p566
sg28
Nsg29
g343
sg31
S'2 - Smaa'
p567
sba(irunmatrix
M3Element
p568
(dp569
g3
Nsg4
S'Sannsynlig, Meget sannsynlig'
p570
sg6
S'white'
p571
sg8
(lp572
sg10
S'Likely'
p573
sg12
S'Many'
p574
sg14
S'#ff0000'
p575
sg16
I4
sg17
S'Low'
p576
sg19
S'Liten tilleggsbelastning'
p577
sg21
Nsg22
S'200'
p578
sg24
S'1700'
p579
sg26
S'Mange bratte heng'
p580
sg28
Nsg29
g343
sg31
S'2 - Smaa'
p581
sba(irunmatrix
M3Element
p582
(dp583
g3
Nsg4
S'Sannsynlig, Meget sannsynlig'
p584
sg6
S'white'
p585
sg8
(lp586
sg10
S'Likely'
p587
sg12
S'Many'
p588
sg14
g575
sg16
I4
sg17
S'Nat'
p589
sg19
S'Naturlig utloest'
p590
sg21
Nsg22
S'200'
p591
sg24
S'1800'
p592
sg26
S'Mange bratte heng'
p593
sg28
Nsg29
g343
sg31
S'2 - Smaa'
p594
sba(irunmatrix
M3Element
p595
(dp596
g3
Nsg4
S'Lite sannsynlig, Mulig'
p597
sg6
S'gray'
p598
sg8
(lp599
sg10
S'Possible'
p600
sg12
S'Most'
p601
sg14
g66
sg16
I0
sg17
S'High'
p602
sg19
S'Stor tilleggsbelastning'
p603
sg21
Nsg22
S'200'
p604
sg24
S'1900'
p605
sg26
S'De fleste bratte heng, Ogsaa i mindre bratt terreng'
p606
sg28
Nsg29
g343
sg31
S'2 - Smaa'
p607
sba(irunmatrix
M3Element
p608
(dp609
g3
Nsg4
S'Lite sannsynlig, Mulig'
p610
sg6
S'gray'
p611
sg8
(lp612
sg10
S'Possible'
p613
sg12
S'Most'
p614
sg14
g66
sg16
I0
sg17
S'Low'
p615
sg19
S'Liten tilleggsbelastning'
p616
sg21
Nsg22
S'200'
p617
sg24
S'2000'
p618
sg26
S'De fleste bratte heng, Ogsaa i mindre bratt terreng'
p619
sg28
Nsg29
g343
sg31
S'2 - Smaa'
p620
sba(irunmatrix
M3Element
p621
(dp622
g3
Nsg4
S'Lite sannsynlig, Mulig'
p623
sg6
S'gray'
p624
sg8
(lp625
sg10
S'Possible'
p626
sg12
S'Most'
p627
sg14
g66
sg16
I0
sg17
S'Nat'
p628
sg19
S'Naturlig utloest'
p629
sg21
Nsg22
S'200'
p630
sg24
S'2100'
p631
sg26
S'De fleste bratte heng, Ogsaa i mindre bratt terreng'
p632
sg28
Nsg29
g343
sg31
S'2 - Smaa'
p633
sba(irunmatrix
M3Element
p634
(dp635
g3
Nsg4
S'Sannsynlig, Meget sannsynlig'
p636
sg6
S'gray'
p637
sg8
(lp638
sg10
S'Likely'
p639
sg12
S'Most'
p640
sg14
g66
sg16
I0
sg17
S'High'
p641
sg19
S'Stor tilleggsbelastning'
p642
sg21
Nsg22
S'200'
p643
sg24
S'2200'
p644
sg26
S'De fleste bratte heng, Ogsaa i mindre bratt terreng'
p645
sg28
Nsg29
g343
sg31
S'2 - Smaa'
p646
sba(irunmatrix
M3Element
p647
(dp648
g3
Nsg4
S'Sannsynlig, Meget sannsynlig'
p649
sg6
S'gray'
p650
sg8
(lp651
sg10
S'Likely'
p652
sg12
S'Most'
p653
sg14
g66
sg16
I0
sg17
S'Low'
p654
sg19
S'Liten tilleggsbelastning'
p655
sg21
Nsg22
S'200'
p656
sg24
S'2300'
p657
sg26
S'De fleste bratte heng, Ogsaa i mindre bratt terreng'
p658
sg28
Nsg29
g343
sg31
S'2 - Smaa'
p659
sba(irunmatrix
M3Element
p660
(dp661
g3
Nsg4
S'Sannsynlig, Meget sannsynlig'
p662
sg6
S'white'
p663
sg8
(lp664
sg10
S'Likely'
p665
sg12
S'Most'
p666
sg14
g66
sg16
I0
sg17
S'Nat'
p667
sg19
S'Naturlig utloest'
p668
sg21
Nsg22
S'200'
p669
sg24
S'2400'
p670
sg26
S'De fleste bratte heng, Ogsaa i mindre bratt terreng'
p671
sg28
Nsg29
g343
sg31
S'2 - Smaa'
p672
sba(irunmatrix
M3Element
p673
(dp674
g3
Nsg4
S'Lite sannsynlig, Mulig'
p675
sg6
S'white'
p676
sg8
(lp677
sg10
S'Possible'
p678
sg12
S'Isolated'
p679
sg14
g15
sg16
I1
sg17
S'High'
p680
sg19
S'Stor tilleggsbelastning'
p681
sg21
Nsg22
S'300'
p682
sg24
S'100'
p683
sg26
S'Isolerte faresoner'
p684
sg28
Nsg29
S'3'
p685
sg31
S'3 - Middels'
p686
sba(irunmatrix
M3Element
p687
(dp688
g3
Nsg4
S'Lite sannsynlig, Mulig'
p689
sg6
S'white'
p690
sg8
(lp691
sg10
S'Possible'
p692
sg12
S'Isolated'
p693
sg14
g246
sg16
I2
sg17
S'Low'
p694
sg19
S'Liten tilleggsbelastning'
p695
sg21
Nsg22
S'300'
p696
sg24
S'200'
p697
sg26
S'Isolerte faresoner'
p698
sg28
Nsg29
g685
sg31
S'3 - Middels'
p699
sba(irunmatrix
M3Element
p700
(dp701
g3
Nsg4
S'Lite sannsynlig, Mulig'
p702
sg6
S'white'
p703
sg8
(lp704
sg10
S'Possible'
p705
sg12
S'Isolated'
p706
sg14
g246
sg16
I2
sg17
S'Nat'
p707
sg19
S'Naturlig utloest'
p708
sg21
Nsg22
S'300'
p709
sg24
S'300'
p710
sg26
S'Isolerte faresoner'
p711
sg28
Nsg29
g685
sg31
S'3 - Middels'
p712
sba(irunmatrix
M3Element
p713
(dp714
g3
Nsg4
S'Sannsynlig, Meget sannsynlig'
p715
sg6
S'gray'
p716
sg8
(lp717
sg10
S'Likely'
p718
sg12
S'Isolated'
p719
sg14
g66
sg16
I0
sg17
S'High'
p720
sg19
S'Stor tilleggsbelastning'
p721
sg21
Nsg22
S'300'
p722
sg24
S'400'
p723
sg26
S'Isolerte faresoner'
p724
sg28
Nsg29
g685
sg31
S'3 - Middels'
p725
sba(irunmatrix
M3Element
p726
(dp727
g3
Nsg4
S'Sannsynlig, Meget sannsynlig'
p728
sg6
S'gray'
p729
sg8
(lp730
sg10
S'Likely'
p731
sg12
S'Isolated'
p732
sg14
g66
sg16
I0
sg17
S'Low'
p733
sg19
S'Liten tilleggsbelastning'
p734
sg21
Nsg22
S'300'
p735
sg24
S'500'
p736
sg26
S'Isolerte faresoner'
p737
sg28
Nsg29
g685
sg31
S'3 - Middels'
p738
sba(irunmatrix
M3Element
p739
(dp740
g3
Nsg4
S'Sannsynlig, Meget sannsynlig'
p741
sg6
S'gray'
p742
sg8
(lp743
sg10
S'Likely'
p744
sg12
S'Isolated'
p745
sg14
g66
sg16
I0
sg17
S'Nat'
p746
sg19
S'Naturlig utloest'
p747
sg21
Nsg22
S'300'
p748
sg24
S'600'
p749
sg26
S'Isolerte faresoner'
p750
sg28
Nsg29
g685
sg31
S'3 - Middels'
p751
sba(irunmatrix
M3Element
p752
(dp753
g3
Nsg4
S'Lite sannsynlig, Mulig'
p754
sg6
S'white'
p755
sg8
(lp756
sg10
S'Possible'
p757
sg12
S'Some'
p758
sg14
g246
sg16
I2
sg17
S'High'
p759
sg19
S'Stor tilleggsbelastning'
p760
sg21
Nsg22
S'300'
p761
sg24
S'700'
p762
sg26
S'Noen bratte heng'
p763
sg28
Nsg29
g685
sg31
S'3 - Middels'
p764
sba(irunmatrix
M3Element
p765
(dp766
g3
Nsg4
S'Lite sannsynlig, Mulig'
p767
sg6
S'white'
p768
sg8
(lp769
sg10
S'Possible'
p770
sg12
S'Some'
p771
sg14
g507
sg16
I3
sg17
S'Low'
p772
sg19
S'Liten tilleggsbelastning'
p773
sg21
Nsg22
S'300'
p774
sg24
S'800'
p775
sg26
S'Noen bratte heng'
p776
sg28
Nsg29
g685
sg31
S'3 - Middels'
p777
sba(irunmatrix
M3Element
p778
(dp779
g3
Nsg4
S'Lite sannsynlig, Mulig'
p780
sg6
S'white'
p781
sg8
(lp782
sg10
S'Possible'
p783
sg12
S'Some'
p784
sg14
g507
sg16
I3
sg17
S'Nat'
p785
sg19
S'Naturlig utloest'
p786
sg21
Nsg22
S'300'
p787
sg24
S'900'
p788
sg26
S'Noen bratte heng'
p789
sg28
Nsg29
g685
sg31
S'3 - Middels'
p790
sba(irunmatrix
M3Element
p791
(dp792
g3
Nsg4
S'Sannsynlig, Meget sannsynlig'
p793
sg6
S'gray'
p794
sg8
(lp795
sg10
S'Likely'
p796
sg12
S'Some'
p797
sg14
g66
sg16
I0
sg17
S'High'
p798
sg19
S'Stor tilleggsbelastning'
p799
sg21
Nsg22
S'300'
p800
sg24
S'1000'
p801
sg26
S'Noen bratte heng'
p802
sg28
Nsg29
g685
sg31
S'3 - Middels'
p803
sba(irunmatrix
M3Element
p804
(dp805
g3
Nsg4
S'Sannsynlig, Meget sannsynlig'
p806
sg6
S'gray'
p807
sg8
(lp808
sg10
S'Likely'
p809
sg12
S'Some'
p810
sg14
g66
sg16
I0
sg17
S'Low'
p811
sg19
S'Liten tilleggsbelastning'
p812
sg21
Nsg22
S'300'
p813
sg24
S'1100'
p814
sg26
S'Noen bratte heng'
p815
sg28
Nsg29
g685
sg31
S'3 - Middels'
p816
sba(irunmatrix
M3Element
p817
(dp818
g3
Nsg4
S'Sannsynlig, Meget sannsynlig'
p819
sg6
S'white'
p820
sg8
(lp821
sg10
S'Likely'
p822
sg12
S'Some'
p823
sg14
g575
sg16
I4
sg17
S'Nat'
p824
sg19
S'Naturlig utloest'
p825
sg21
Nsg22
S'300'
p826
sg24
S'1200'
p827
sg26
S'Noen bratte heng'
p828
sg28
Nsg29
g685
sg31
S'3 - Middels'
p829
sba(irunmatrix
M3Element
p830
(dp831
g3
Nsg4
S'Lite sannsynlig, Mulig'
p832
sg6
S'gray'
p833
sg8
(lp834
sg10
S'Possible'
p835
sg12
S'Many'
p836
sg14
g66
sg16
I0
sg17
S'High'
p837
sg19
S'Stor tilleggsbelastning'
p838
sg21
Nsg22
S'300'
p839
sg24
S'1300'
p840
sg26
S'Mange bratte heng'
p841
sg28
Nsg29
g685
sg31
S'3 - Middels'
p842
sba(irunmatrix
M3Element
p843
(dp844
g3
Nsg4
S'Lite sannsynlig, Mulig'
p845
sg6
S'white'
p846
sg8
(lp847
sg10
S'Possible'
p848
sg12
S'Many'
p849
sg14
g575
sg16
I4
sg17
S'Low'
p850
sg19
S'Liten tilleggsbelastning'
p851
sg21
Nsg22
S'300'
p852
sg24
S'1400'
p853
sg26
S'Mange bratte heng'
p854
sg28
Nsg29
g685
sg31
S'3 - Middels'
p855
sba(irunmatrix
M3Element
p856
(dp857
g3
Nsg4
S'Lite sannsynlig, Mulig'
p858
sg6
S'gray'
p859
sg8
(lp860
sg10
S'Possible'
p861
sg12
S'Many'
p862
sg14
g66
sg16
I0
sg17
S'Nat'
p863
sg19
S'Naturlig utloest'
p864
sg21
Nsg22
S'300'
p865
sg24
S'1500'
p866
sg26
S'Mange bratte heng'
p867
sg28
Nsg29
g685
sg31
S'3 - Middels'
p868
sba(irunmatrix
M3Element
p869
(dp870
g3
Nsg4
S'Sannsynlig, Meget sannsynlig'
p871
sg6
S'gray'
p872
sg8
(lp873
sg10
S'Likely'
p874
sg12
S'Many'
p875
sg14
g66
sg16
I0
sg17
S'High'
p876
sg19
S'Stor tilleggsbelastning'
p877
sg21
Nsg22
S'300'
p878
sg24
S'1600'
p879
sg26
S'Mange bratte heng'
p880
sg28
Nsg29
g685
sg31
S'3 - Middels'
p881
sba(irunmatrix
M3Element
p882
(dp883
g3
Nsg4
S'Sannsynlig, Meget sannsynlig'
p884
sg6
S'white'
p885
sg8
(lp886
sg10
S'Likely'
p887
sg12
S'Many'
p888
sg14
g575
sg16
I4
sg17
S'Low'
p889
sg19
S'Liten tilleggsbelastning'
p890
sg21
Nsg22
S'300'
p891
sg24
S'1700'
p892
sg26
S'Mange bratte heng'
p893
sg28
Nsg29
g685
sg31
S'3 - Middels'
p894
sba(irunmatrix
M3Element
p895
(dp896
g3
Nsg4
S'Sannsynlig, Meget sannsynlig'
p897
sg6
S'white'
p898
sg8
(lp899
sg10
S'Likely'
p900
sg12
S'Many'
p901
sg14
g575
sg16
I4
sg17
S'Nat'
p902
sg19
S'Naturlig utloest'
p903
sg21
Nsg22
S'300'
p904
sg24
S'1800'
p905
sg26
S'Mange bratte heng'
p906
sg28
Nsg29
g685
sg31
S'3 - Middels'
p907
sba(irunmatrix
M3Element
p908
(dp909
g3
Nsg4
S'Lite sannsynlig, Mulig'
p910
sg6
S'gray'
p911
sg8
(lp912
sg10
S'Possible'
p913
sg12
S'Most'
p914
sg14
g66
sg16
I0
sg17
S'High'
p915
sg19
S'Stor tilleggsbelastning'
p916
sg21
Nsg22
S'300'
p917
sg24
S'1900'
p918
sg26
S'De fleste bratte heng, Ogsaa i mindre bratt terreng'
p919
sg28
Nsg29
g685
sg31
S'3 - Middels'
p920
sba(irunmatrix
M3Element
p921
(dp922
g3
Nsg4
S'Lite sannsynlig, Mulig'
p923
sg6
S'gray'
p924
sg8
(lp925
sg10
S'Possible'
p926
sg12
S'Most'
p927
sg14
g66
sg16
I0
sg17
S'Low'
p928
sg19
S'Liten tilleggsbelastning'
p929
sg21
Nsg22
S'300'
p930
sg24
S'2000'
p931
sg26
S'De fleste bratte heng, Ogsaa i mindre bratt terreng'
p932
sg28
Nsg29
g685
sg31
S'3 - Middels'
p933
sba(irunmatrix
M3Element
p934
(dp935
g3
Nsg4
S'Lite sannsynlig, Mulig'
p936
sg6
S'gray'
p937
sg8
(lp938
sg10
S'Possible'
p939
sg12
S'Most'
p940
sg14
g66
sg16
I0
sg17
S'Nat'
p941
sg19
S'Naturlig utloest'
p942
sg21
Nsg22
S'300'
p943
sg24
S'2100'
p944
sg26
S'De fleste bratte heng, Ogsaa i mindre bratt terreng'
p945
sg28
Nsg29
g685
sg31
S'3 - Middels'
p946
sba(irunmatrix
M3Element
p947
(dp948
g3
Nsg4
S'Sannsynlig, Meget sannsynlig'
p949
sg6
S'gray'
p950
sg8
(lp951
sg10
S'Likely'
p952
sg12
S'Most'
p953
sg14
g66
sg16
I0
sg17
S'High'
p954
sg19
S'Stor tilleggsbelastning'
p955
sg21
Nsg22
S'300'
p956
sg24
S'2200'
p957
sg26
S'De fleste bratte heng, Ogsaa i mindre bratt terreng'
p958
sg28
Nsg29
g685
sg31
S'3 - Middels'
p959
sba(irunmatrix
M3Element
p960
(dp961
g3
Nsg4
S'Sannsynlig, Meget sannsynlig'
p962
sg6
S'gray'
p963
sg8
(lp964
sg10
S'Likely'
p965
sg12
S'Most'
p966
sg14
g66
sg16
I0
sg17
S'Low'
p967
sg19
S'Liten tilleggsbelastning'
p968
sg21
Nsg22
S'300'
p969
sg24
S'2300'
p970
sg26
S'De fleste bratte heng, Ogsaa i mindre bratt terreng'
p971
sg28
Nsg29
g685
sg31
S'3 - Middels'
p972
sba(irunmatrix
M3Element
p973
(dp974
g3
Nsg4
S'Sannsynlig, Meget sannsynlig'
p975
sg6
S'white'
p976
sg8
(lp977
sg10
S'Likely'
p978
sg12
S'Most'
p979
sg14
g66
sg16
I0
sg17
S'Nat'
p980
sg19
S'Naturlig utloest'
p981
sg21
Nsg22
S'300'
p982
sg24
S'2400'
p983
sg26
S'De fleste bratte heng, Ogsaa i mindre bratt terreng'
p984
sg28
Nsg29
g685
sg31
S'3 - Middels'
p985
sba(irunmatrix
M3Element
p986
(dp987
g3
Nsg4
S'Lite sannsynlig, Mulig'
p988
sg6
S'white'
p989
sg8
(lp990
sg10
S'Possible'
p991
sg12
S'Isolated'
p992
sg14
g246
sg16
I2
sg17
S'High'
p993
sg19
S'Stor tilleggsbelastning'
p994
sg21
Nsg22
S'400'
p995
sg24
S'100'
p996
sg26
S'Isolerte faresoner'
p997
sg28
Nsg29
S'4'
p998
sg31
S'4 - Store'
p999
sba(irunmatrix
M3Element
p1000
(dp1001
g3
Nsg4
S'Lite sannsynlig, Mulig'
p1002
sg6
S'white'
p1003
sg8
(lp1004
sg10
S'Possible'
p1005
sg12
S'Isolated'
p1006
sg14
g507
sg16
I3
sg17
S'Low'
p1007
sg19
S'Liten tilleggsbelastning'
p1008
sg21
Nsg22
S'400'
p1009
sg24
S'200'
p1010
sg26
S'Isolerte faresoner'
p1011
sg28
Nsg29
g998
sg31
S'4 - Store'
p1012
sba(irunmatrix
M3Element
p1013
(dp1014
g3
Nsg4
S'Lite sannsynlig, Mulig'
p1015
sg6
S'white'
p1016
sg8
(lp1017
sg10
S'Possible'
p1018
sg12
S'Isolated'
p1019
sg14
g507
sg16
I3
sg17
S'Nat'
p1020
sg19
S'Naturlig utloest'
p1021
sg21
Nsg22
S'400'
p1022
sg24
S'300'
p1023
sg26
S'Isolerte faresoner'
p1024
sg28
Nsg29
g998
sg31
S'4 - Store'
p1025
sba(irunmatrix
M3Element
p1026
(dp1027
g3
Nsg4
S'Sannsynlig, Meget sannsynlig'
p1028
sg6
S'gray'
p1029
sg8
(lp1030
sg10
S'Likely'
p1031
sg12
S'Isolated'
p1032
sg14
g66
sg16
I0
sg17
S'High'
p1033
sg19
S'Stor tilleggsbelastning'
p1034
sg21
Nsg22
S'400'
p1035
sg24
S'400'
p1036
sg26
S'Isolerte faresoner'
p1037
sg28
Nsg29
g998
sg31
S'4 - Store'
p1038
sba(irunmatrix
M3Element
p1039
(dp1040
g3
Nsg4
S'Sannsynlig, Meget sannsynlig'
p1041
sg6
S'gray'
p1042
sg8
(lp1043
sg10
S'Likely'
p1044
sg12
S'Isolated'
p1045
sg14
g66
sg16
I0
sg17
S'Low'
p1046
sg19
S'Liten tilleggsbelastning'
p1047
sg21
Nsg22
S'400'
p1048
sg24
S'500'
p1049
sg26
S'Isolerte faresoner'
p1050
sg28
Nsg29
g998
sg31
S'4 - Store'
p1051
sba(irunmatrix
M3Element
p1052
(dp1053
g3
Nsg4
S'Sannsynlig, Meget sannsynlig'
p1054
sg6
S'gray'
p1055
sg8
(lp1056
sg10
S'Likely'
p1057
sg12
S'Isolated'
p1058
sg14
g66
sg16
I0
sg17
S'Nat'
p1059
sg19
S'Naturlig utloest'
p1060
sg21
Nsg22
S'400'
p1061
sg24
S'600'
p1062
sg26
S'Isolerte faresoner'
p1063
sg28
Nsg29
g998
sg31
S'4 - Store'
p1064
sba(irunmatrix
M3Element
p1065
(dp1066
g3
Nsg4
S'Lite sannsynlig, Mulig'
p1067
sg6
S'white'
p1068
sg8
(lp1069
sg10
S'Possible'
p1070
sg12
S'Some'
p1071
sg14
g507
sg16
I3
sg17
S'High'
p1072
sg19
S'Stor tilleggsbelastning'
p1073
sg21
Nsg22
S'400'
p1074
sg24
S'700'
p1075
sg26
S'Noen bratte heng'
p1076
sg28
Nsg29
g998
sg31
S'4 - Store'
p1077
sba(irunmatrix
M3Element
p1078
(dp1079
g3
Nsg4
S'Lite sannsynlig, Mulig'
p1080
sg6
S'white'
p1081
sg8
(lp1082
sg10
S'Possible'
p1083
sg12
S'Some'
p1084
sg14
g575
sg16
I4
sg17
S'Low'
p1085
sg19
S'Liten tilleggsbelastning'
p1086
sg21
Nsg22
S'400'
p1087
sg24
S'800'
p1088
sg26
S'Noen bratte heng'
p1089
sg28
Nsg29
g998
sg31
S'4 - Store'
p1090
sba(irunmatrix
M3Element
p1091
(dp1092
g3
Nsg4
S'Lite sannsynlig, Mulig'
p1093
sg6
S'white'
p1094
sg8
(lp1095
sg10
S'Possible'
p1096
sg12
S'Some'
p1097
sg14
g575
sg16
I4
sg17
S'Nat'
p1098
sg19
S'Naturlig utloest'
p1099
sg21
Nsg22
S'400'
p1100
sg24
S'900'
p1101
sg26
S'Noen bratte heng'
p1102
sg28
Nsg29
g998
sg31
S'4 - Store'
p1103
sba(irunmatrix
M3Element
p1104
(dp1105
g3
Nsg4
S'Sannsynlig, Meget sannsynlig'
p1106
sg6
S'gray'
p1107
sg8
(lp1108
sg10
S'Likely'
p1109
sg12
S'Some'
p1110
sg14
g66
sg16
I0
sg17
S'High'
p1111
sg19
S'Stor tilleggsbelastning'
p1112
sg21
Nsg22
S'400'
p1113
sg24
S'1000'
p1114
sg26
S'Noen bratte heng'
p1115
sg28
Nsg29
g998
sg31
S'4 - Store'
p1116
sba(irunmatrix
M3Element
p1117
(dp1118
g3
Nsg4
S'Sannsynlig, Meget sannsynlig'
p1119
sg6
S'gray'
p1120
sg8
(lp1121
sg10
S'Likely'
p1122
sg12
S'Some'
p1123
sg14
g66
sg16
I0
sg17
S'Low'
p1124
sg19
S'Liten tilleggsbelastning'
p1125
sg21
Nsg22
S'400'
p1126
sg24
S'1100'
p1127
sg26
S'Noen bratte heng'
p1128
sg28
Nsg29
g998
sg31
S'4 - Store'
p1129
sba(irunmatrix
M3Element
p1130
(dp1131
g3
Nsg4
S'Sannsynlig, Meget sannsynlig'
p1132
sg6
S'white'
p1133
sg8
(lp1134
sg10
S'Likely'
p1135
sg12
S'Some'
p1136
sg14
g575
sg16
I4
sg17
S'Nat'
p1137
sg19
S'Naturlig utloest'
p1138
sg21
Nsg22
S'400'
p1139
sg24
S'1200'
p1140
sg26
S'Noen bratte heng'
p1141
sg28
Nsg29
g998
sg31
S'4 - Store'
p1142
sba(irunmatrix
M3Element
p1143
(dp1144
g3
Nsg4
S'Lite sannsynlig, Mulig'
p1145
sg6
S'gray'
p1146
sg8
(lp1147
sg10
S'Possible'
p1148
sg12
S'Many'
p1149
sg14
g66
sg16
I0
sg17
S'High'
p1150
sg19
S'Stor tilleggsbelastning'
p1151
sg21
Nsg22
S'400'
p1152
sg24
S'1300'
p1153
sg26
S'Mange bratte heng'
p1154
sg28
Nsg29
g998
sg31
S'4 - Store'
p1155
sba(irunmatrix
M3Element
p1156
(dp1157
g3
Nsg4
S'Lite sannsynlig, Mulig'
p1158
sg6
S'white'
p1159
sg8
(lp1160
sg10
S'Possible'
p1161
sg12
S'Many'
p1162
sg14
g66
sg16
I0
sg17
S'Low'
p1163
sg19
S'Liten tilleggsbelastning'
p1164
sg21
Nsg22
S'400'
p1165
sg24
S'1400'
p1166
sg26
S'Mange bratte heng'
p1167
sg28
Nsg29
g998
sg31
S'4 - Store'
p1168
sba(irunmatrix
M3Element
p1169
(dp1170
g3
Nsg4
S'Lite sannsynlig, Mulig'
p1171
sg6
S'gray'
p1172
sg8
(lp1173
sg10
S'Possible'
p1174
sg12
S'Many'
p1175
sg14
g66
sg16
I0
sg17
S'Nat'
p1176
sg19
S'Naturlig utloest'
p1177
sg21
Nsg22
S'400'
p1178
sg24
S'1500'
p1179
sg26
S'Mange bratte heng'
p1180
sg28
Nsg29
g998
sg31
S'4 - Store'
p1181
sba(irunmatrix
M3Element
p1182
(dp1183
g3
Nsg4
S'Sannsynlig, Meget sannsynlig'
p1184
sg6
S'gray'
p1185
sg8
(lp1186
sg10
S'Likely'
p1187
sg12
S'Many'
p1188
sg14
g66
sg16
I0
sg17
S'High'
p1189
sg19
S'Stor tilleggsbelastning'
p1190
sg21
Nsg22
S'400'
p1191
sg24
S'1600'
p1192
sg26
S'Mange bratte heng'
p1193
sg28
Nsg29
g998
sg31
S'4 - Store'
p1194
sba(irunmatrix
M3Element
p1195
(dp1196
g3
Nsg4
S'Sannsynlig, Meget sannsynlig'
p1197
sg6
S'white'
p1198
sg8
(lp1199
sg10
S'Likely'
p1200
sg12
S'Many'
p1201
sg14
g66
sg16
I0
sg17
S'Low'
p1202
sg19
S'Liten tilleggsbelastning'
p1203
sg21
Nsg22
S'400'
p1204
sg24
S'1700'
p1205
sg26
S'Mange bratte heng'
p1206
sg28
Nsg29
g998
sg31
S'4 - Store'
p1207
sba(irunmatrix
M3Element
p1208
(dp1209
g3
Nsg4
S'Sannsynlig, Meget sannsynlig'
p1210
sg6
S'white'
p1211
sg8
(lp1212
sg10
S'Likely'
p1213
sg12
S'Many'
p1214
sg14
S'k'
p1215
sg16
I5
sg17
S'Nat'
p1216
sg19
S'Naturlig utloest'
p1217
sg21
Nsg22
S'400'
p1218
sg24
S'1800'
p1219
sg26
S'Mange bratte heng'
p1220
sg28
Nsg29
g998
sg31
S'4 - Store'
p1221
sba(irunmatrix
M3Element
p1222
(dp1223
g3
Nsg4
S'Lite sannsynlig, Mulig'
p1224
sg6
S'gray'
p1225
sg8
(lp1226
sg10
S'Possible'
p1227
sg12
S'Most'
p1228
sg14
g66
sg16
I0
sg17
S'High'
p1229
sg19
S'Stor tilleggsbelastning'
p1230
sg21
Nsg22
S'400'
p1231
sg24
S'1900'
p1232
sg26
S'De fleste bratte heng, Ogsaa i mindre bratt terreng'
p1233
sg28
Nsg29
g998
sg31
S'4 - Store'
p1234
sba(irunmatrix
M3Element
p1235
(dp1236
g3
Nsg4
S'Lite sannsynlig, Mulig'
p1237
sg6
S'gray'
p1238
sg8
(lp1239
sg10
S'Possible'
p1240
sg12
S'Most'
p1241
sg14
g66
sg16
I0
sg17
S'Low'
p1242
sg19
S'Liten tilleggsbelastning'
p1243
sg21
Nsg22
S'400'
p1244
sg24
S'2000'
p1245
sg26
S'De fleste bratte heng, Ogsaa i mindre bratt terreng'
p1246
sg28
Nsg29
g998
sg31
S'4 - Store'
p1247
sba(irunmatrix
M3Element
p1248
(dp1249
g3
Nsg4
S'Lite sannsynlig, Mulig'
p1250
sg6
S'gray'
p1251
sg8
(lp1252
sg10
S'Possible'
p1253
sg12
S'Most'
p1254
sg14
g66
sg16
I0
sg17
S'Nat'
p1255
sg19
S'Naturlig utloest'
p1256
sg21
Nsg22
S'400'
p1257
sg24
S'2100'
p1258
sg26
S'De fleste bratte heng, Ogsaa i mindre bratt terreng'
p1259
sg28
Nsg29
g998
sg31
S'4 - Store'
p1260
sba(irunmatrix
M3Element
p1261
(dp1262
g3
Nsg4
S'Sannsynlig, Meget sannsynlig'
p1263
sg6
S'gray'
p1264
sg8
(lp1265
sg10
S'Likely'
p1266
sg12
S'Most'
p1267
sg14
g66
sg16
I0
sg17
S'High'
p1268
sg19
S'Stor tilleggsbelastning'
p1269
sg21
Nsg22
S'400'
p1270
sg24
S'2200'
p1271
sg26
S'De fleste bratte heng, Ogsaa i mindre bratt terreng'
p1272
sg28
Nsg29
g998
sg31
S'4 - Store'
p1273
sba(irunmatrix
M3Element
p1274
(dp1275
g3
Nsg4
S'Sannsynlig, Meget sannsynlig'
p1276
sg6
S'gray'
p1277
sg8
(lp1278
sg10
S'Likely'
p1279
sg12
S'Most'
p1280
sg14
g66
sg16
I0
sg17
S'Low'
p1281
sg19
S'Liten tilleggsbelastning'
p1282
sg21
Nsg22
S'400'
p1283
sg24
S'2300'
p1284
sg26
S'De fleste bratte heng, Ogsaa i mindre bratt terreng'
p1285
sg28
Nsg29
g998
sg31
S'4 - Store'
p1286
sba(irunmatrix
M3Element
p1287
(dp1288
g3
Nsg4
S'Sannsynlig, Meget sannsynlig'
p1289
sg6
S'white'
p1290
sg8
(lp1291
sg10
S'Likely'
p1292
sg12
S'Most'
p1293
sg14
g66
sg16
I0
sg17
S'Nat'
p1294
sg19
S'Naturlig utloest'
p1295
sg21
Nsg22
S'400'
p1296
sg24
S'2400'
p1297
sg26
S'De fleste bratte heng, Ogsaa i mindre bratt terreng'
p1298
sg28
Nsg29
g998
sg31
S'4 - Store'
p1299
sba(irunmatrix
M3Element
p1300
(dp1301
g3
Nsg4
S'Lite sannsynlig, Mulig'
p1302
sg6
S'white'
p1303
sg8
(lp1304
sg10
S'Possible'
p1305
sg12
S'Isolated'
p1306
sg14
g66
sg16
I0
sg17
S'High'
p1307
sg19
S'Stor tilleggsbelastning'
p1308
sg21
Nsg22
S'500'
p1309
sg24
S'100'
p1310
sg26
S'Isolerte faresoner'
p1311
sg28
Nsg29
S'5'
p1312
sg31
S'5 - Svaert store'
p1313
sba(irunmatrix
M3Element
p1314
(dp1315
g3
Nsg4
S'Lite sannsynlig, Mulig'
p1316
sg6
S'white'
p1317
sg8
(lp1318
sg10
S'Possible'
p1319
sg12
S'Isolated'
p1320
sg14
g66
sg16
I0
sg17
S'Low'
p1321
sg19
S'Liten tilleggsbelastning'
p1322
sg21
Nsg22
S'500'
p1323
sg24
S'200'
p1324
sg26
S'Isolerte faresoner'
p1325
sg28
Nsg29
g1312
sg31
S'5 - Svaert store'
p1326
sba(irunmatrix
M3Element
p1327
(dp1328
g3
Nsg4
S'Lite sannsynlig, Mulig'
p1329
sg6
S'white'
p1330
sg8
(lp1331
sg10
S'Possible'
p1332
sg12
S'Isolated'
p1333
sg14
g66
sg16
I0
sg17
S'Nat'
p1334
sg19
S'Naturlig utloest'
p1335
sg21
Nsg22
S'500'
p1336
sg24
S'300'
p1337
sg26
S'Isolerte faresoner'
p1338
sg28
Nsg29
g1312
sg31
S'5 - Svaert store'
p1339
sba(irunmatrix
M3Element
p1340
(dp1341
g3
Nsg4
S'Sannsynlig, Meget sannsynlig'
p1342
sg6
S'gray'
p1343
sg8
(lp1344
sg10
S'Likely'
p1345
sg12
S'Isolated'
p1346
sg14
g66
sg16
I0
sg17
S'High'
p1347
sg19
S'Stor tilleggsbelastning'
p1348
sg21
Nsg22
S'500'
p1349
sg24
S'400'
p1350
sg26
S'Isolerte faresoner'
p1351
sg28
Nsg29
g1312
sg31
S'5 - Svaert store'
p1352
sba(irunmatrix
M3Element
p1353
(dp1354
g3
Nsg4
S'Sannsynlig, Meget sannsynlig'
p1355
sg6
S'gray'
p1356
sg8
(lp1357
sg10
S'Likely'
p1358
sg12
S'Isolated'
p1359
sg14
g66
sg16
I0
sg17
S'Low'
p1360
sg19
S'Liten tilleggsbelastning'
p1361
sg21
Nsg22
S'500'
p1362
sg24
S'500'
p1363
sg26
S'Isolerte faresoner'
p1364
sg28
Nsg29
g1312
sg31
S'5 - Svaert store'
p1365
sba(irunmatrix
M3Element
p1366
(dp1367
g3
Nsg4
S'Sannsynlig, Meget sannsynlig'
p1368
sg6
S'gray'
p1369
sg8
(lp1370
sg10
S'Likely'
p1371
sg12
S'Isolated'
p1372
sg14
g66
sg16
I0
sg17
S'Nat'
p1373
sg19
S'Naturlig utloest'
p1374
sg21
Nsg22
S'500'
p1375
sg24
S'600'
p1376
sg26
S'Isolerte faresoner'
p1377
sg28
Nsg29
g1312
sg31
S'5 - Svaert store'
p1378
sba(irunmatrix
M3Element
p1379
(dp1380
g3
Nsg4
S'Lite sannsynlig, Mulig'
p1381
sg6
S'white'
p1382
sg8
(lp1383
sg10
S'Possible'
p1384
sg12
S'Some'
p1385
sg14
g66
sg16
I0
sg17
S'High'
p1386
sg19
S'Stor tilleggsbelastning'
p1387
sg21
Nsg22
S'500'
p1388
sg24
S'700'
p1389
sg26
S'Noen bratte heng'
p1390
sg28
Nsg29
g1312
sg31
S'5 - Svaert store'
p1391
sba(irunmatrix
M3Element
p1392
(dp1393
g3
Nsg4
S'Lite sannsynlig, Mulig'
p1394
sg6
S'white'
p1395
sg8
(lp1396
sg10
S'Possible'
p1397
sg12
S'Some'
p1398
sg14
g66
sg16
I0
sg17
S'Low'
p1399
sg19
S'Liten tilleggsbelastning'
p1400
sg21
Nsg22
S'500'
p1401
sg24
S'800'
p1402
sg26
S'Noen bratte heng'
p1403
sg28
Nsg29
g1312
sg31
S'5 - Svaert store'
p1404
sba(irunmatrix
M3Element
p1405
(dp1406
g3
Nsg4
S'Lite sannsynlig, Mulig'
p1407
sg6
S'white'
p1408
sg8
(lp1409
sg10
S'Possible'
p1410
sg12
S'Some'
p1411
sg14
g66
sg16
I0
sg17
S'Nat'
p1412
sg19
S'Naturlig utloest'
p1413
sg21
Nsg22
S'500'
p1414
sg24
S'900'
p1415
sg26
S'Noen bratte heng'
p1416
sg28
Nsg29
g1312
sg31
S'5 - Svaert store'
p1417
sba(irunmatrix
M3Element
p1418
(dp1419
g3
Nsg4
S'Sannsynlig, Meget sannsynlig'
p1420
sg6
S'gray'
p1421
sg8
(lp1422
sg10
S'Likely'
p1423
sg12
S'Some'
p1424
sg14
g66
sg16
I0
sg17
S'High'
p1425
sg19
S'Stor tilleggsbelastning'
p1426
sg21
Nsg22
S'500'
p1427
sg24
S'1000'
p1428
sg26
S'Noen bratte heng'
p1429
sg28
Nsg29
g1312
sg31
S'5 - Svaert store'
p1430
sba(irunmatrix
M3Element
p1431
(dp1432
g3
Nsg4
S'Sannsynlig, Meget sannsynlig'
p1433
sg6
S'gray'
p1434
sg8
(lp1435
sg10
S'Likely'
p1436
sg12
S'Some'
p1437
sg14
g66
sg16
I0
sg17
S'Low'
p1438
sg19
S'Liten tilleggsbelastning'
p1439
sg21
Nsg22
S'500'
p1440
sg24
S'1100'
p1441
sg26
S'Noen bratte heng'
p1442
sg28
Nsg29
g1312
sg31
S'5 - Svaert store'
p1443
sba(irunmatrix
M3Element
p1444
(dp1445
g3
Nsg4
S'Sannsynlig, Meget sannsynlig'
p1446
sg6
S'white'
p1447
sg8
(lp1448
sg10
S'Likely'
p1449
sg12
S'Some'
p1450
sg14
g66
sg16
I0
sg17
S'Nat'
p1451
sg19
S'Naturlig utloest'
p1452
sg21
Nsg22
S'500'
p1453
sg24
S'1200'
p1454
sg26
S'Noen bratte heng'
p1455
sg28
Nsg29
g1312
sg31
S'5 - Svaert store'
p1456
sba(irunmatrix
M3Element
p1457
(dp1458
g3
Nsg4
S'Lite sannsynlig, Mulig'
p1459
sg6
S'gray'
p1460
sg8
(lp1461
sg10
S'Possible'
p1462
sg12
S'Many'
p1463
sg14
g66
sg16
I0
sg17
S'High'
p1464
sg19
S'Stor tilleggsbelastning'
p1465
sg21
Nsg22
S'500'
p1466
sg24
S'1300'
p1467
sg26
S'Mange bratte heng'
p1468
sg28
Nsg29
g1312
sg31
S'5 - Svaert store'
p1469
sba(irunmatrix
M3Element
p1470
(dp1471
g3
Nsg4
S'Lite sannsynlig, Mulig'
p1472
sg6
S'white'
p1473
sg8
(lp1474
sg10
S'Possible'
p1475
sg12
S'Many'
p1476
sg14
g66
sg16
I0
sg17
S'Low'
p1477
sg19
S'Liten tilleggsbelastning'
p1478
sg21
Nsg22
S'500'
p1479
sg24
S'1400'
p1480
sg26
S'Mange bratte heng'
p1481
sg28
Nsg29
g1312
sg31
S'5 - Svaert store'
p1482
sba(irunmatrix
M3Element
p1483
(dp1484
g3
Nsg4
S'Lite sannsynlig, Mulig'
p1485
sg6
S'gray'
p1486
sg8
(lp1487
sg10
S'Possible'
p1488
sg12
S'Many'
p1489
sg14
g66
sg16
I0
sg17
S'Nat'
p1490
sg19
S'Naturlig utloest'
p1491
sg21
Nsg22
S'500'
p1492
sg24
S'1500'
p1493
sg26
S'Mange bratte heng'
p1494
sg28
Nsg29
g1312
sg31
S'5 - Svaert store'
p1495
sba(irunmatrix
M3Element
p1496
(dp1497
g3
Nsg4
S'Sannsynlig, Meget sannsynlig'
p1498
sg6
S'gray'
p1499
sg8
(lp1500
sg10
S'Likely'
p1501
sg12
S'Many'
p1502
sg14
g66
sg16
I0
sg17
S'High'
p1503
sg19
S'Stor tilleggsbelastning'
p1504
sg21
Nsg22
S'500'
p1505
sg24
S'1600'
p1506
sg26
S'Mange bratte heng'
p1507
sg28
Nsg29
g1312
sg31
S'5 - Svaert store'
p1508
sba(irunmatrix
M3Element
p1509
(dp1510
g3
Nsg4
S'Sannsynlig, Meget sannsynlig'
p1511
sg6
S'white'
p1512
sg8
(lp1513
sg10
S'Likely'
p1514
sg12
S'Many'
p1515
sg14
g66
sg16
I0
sg17
S'Low'
p1516
sg19
S'Liten tilleggsbelastning'
p1517
sg21
Nsg22
S'500'
p1518
sg24
S'1700'
p1519
sg26
S'Mange bratte heng'
p1520
sg28
Nsg29
g1312
sg31
S'5 - Svaert store'
p1521
sba(irunmatrix
M3Element
p1522
(dp1523
g3
Nsg4
S'Sannsynlig, Meget sannsynlig'
p1524
sg6
S'white'
p1525
sg8
(lp1526
sg10
S'Likely'
p1527
sg12
S'Many'
p1528
sg14
g1215
sg16
I5
sg17
S'Nat'
p1529
sg19
S'Naturlig utloest'
p1530
sg21
Nsg22
S'500'
p1531
sg24
S'1800'
p1532
sg26
S'Mange bratte heng'
p1533
sg28
Nsg29
g1312
sg31
S'5 - Svaert store'
p1534
sba(irunmatrix
M3Element
p1535
(dp1536
g3
Nsg4
S'Lite sannsynlig, Mulig'
p1537
sg6
S'gray'
p1538
sg8
(lp1539
sg10
S'Possible'
p1540
sg12
S'Most'
p1541
sg14
g66
sg16
I0
sg17
S'High'
p1542
sg19
S'Stor tilleggsbelastning'
p1543
sg21
Nsg22
S'500'
p1544
sg24
S'1900'
p1545
sg26
S'De fleste bratte heng, Ogsaa i mindre bratt terreng'
p1546
sg28
Nsg29
g1312
sg31
S'5 - Svaert store'
p1547
sba(irunmatrix
M3Element
p1548
(dp1549
g3
Nsg4
S'Lite sannsynlig, Mulig'
p1550
sg6
S'gray'
p1551
sg8
(lp1552
sg10
S'Possible'
p1553
sg12
S'Most'
p1554
sg14
g66
sg16
I0
sg17
S'Low'
p1555
sg19
S'Liten tilleggsbelastning'
p1556
sg21
Nsg22
S'500'
p1557
sg24
S'2000'
p1558
sg26
S'De fleste bratte heng, Ogsaa i mindre bratt terreng'
p1559
sg28
Nsg29
g1312
sg31
S'5 - Svaert store'
p1560
sba(irunmatrix
M3Element
p1561
(dp1562
g3
Nsg4
S'Lite sannsynlig, Mulig'
p1563
sg6
S'gray'
p1564
sg8
(lp1565
sg10
S'Possible'
p1566
sg12
S'Most'
p1567
sg14
g66
sg16
I0
sg17
S'Nat'
p1568
sg19
S'Naturlig utloest'
p1569
sg21
Nsg22
S'500'
p1570
sg24
S'2100'
p1571
sg26
S'De fleste bratte heng, Ogsaa i mindre bratt terreng'
p1572
sg28
Nsg29
g1312
sg31
S'5 - Svaert store'
p1573
sba(irunmatrix
M3Element
p1574
(dp1575
g3
Nsg4
S'Sannsynlig, Meget sannsynlig'
p1576
sg6
S'gray'
p1577
sg8
(lp1578
sg10
S'Likely'
p1579
sg12
S'Most'
p1580
sg14
g66
sg16
I0
sg17
S'High'
p1581
sg19
S'Stor tilleggsbelastning'
p1582
sg21
Nsg22
S'500'
p1583
sg24
S'2200'
p1584
sg26
S'De fleste bratte heng, Ogsaa i mindre bratt terreng'
p1585
sg28
Nsg29
g1312
sg31
S'5 - Svaert store'
p1586
sba(irunmatrix
M3Element
p1587
(dp1588
g3
Nsg4
S'Sannsynlig, Meget sannsynlig'
p1589
sg6
S'gray'
p1590
sg8
(lp1591
sg10
S'Likely'
p1592
sg12
S'Most'
p1593
sg14
g66
sg16
I0
sg17
S'Low'
p1594
sg19
S'Liten tilleggsbelastning'
p1595
sg21
Nsg22
S'500'
p1596
sg24
S'2300'
p1597
sg26
S'De fleste bratte heng, Ogsaa i mindre bratt terreng'
p1598
sg28
Nsg29
g1312
sg31
S'5 - Svaert store'
p1599
sba(irunmatrix
M3Element
p1600
(dp1601
g3
Nsg4
S'Sannsynlig, Meget sannsynlig'
p1602
sg6
S'white'
p1603
sg8
(lp1604
sg10
S'Likely'
p1605
sg12
S'Most'
p1606
sg14
g66
sg16
I0
sg17
S'Nat'
p1607
sg19
S'Naturlig utloest'
p1608
sg21
Nsg22
S'500'
p1609
sg24
S'2400'
p1610
sg26
S'De fleste bratte heng, Ogsaa i mindre bratt terreng'
p1611
sg28
Nsg29
g1312
sg31
S'5 - Svaert store'
p1612
sba.