(lp0
(irunmatrix
M3Element
p1
(dp2
S'danger_level_average'
p3
F1.0
sS'probability'
p4
S'Lite sannsynlig, Mulig'
p5
sS'colour'
p6
S'#ccff66'
p7
sS'danger_level_list'
p8
(lp9
I1
aI1
asS'label_probalility'
p10
S'Possible'
p11
sS'label_distribution'
p12
S'Isolated'
p13
sS'recomended_colour'
p14
S'#ccff66'
p15
sS'recomended_danger_level'
p16
I1
sS'label_trigger'
p17
S'High'
p18
sS'trigger'
p19
S'Stor tilleggsbelastning'
p20
sS'occurrences'
p21
I2
sS'y'
p22
S'100'
p23
sS'x'
p24
S'100'
p25
sS'distribution'
p26
S'Isolerte faresoner'
p27
sS'danger_level_standard_dev'
p28
cnumpy.core.multiarray
scalar
p29
(cnumpy
dtype
p30
(S'f8'
p31
I0
I1
tp32
Rp33
(I3
S'<'
p34
NNNI-1
I-1
I0
tp35
bS'\x00\x00\x00\x00\x00\x00\x00\x00'
p36
tp37
Rp38
sS'label_size'
p39
S'1'
p40
sS'avalanche_size'
p41
S'1 - Harmloest'
p42
sba(irunmatrix
M3Element
p43
(dp44
g3
Nsg4
S'Lite sannsynlig, Mulig'
p45
sg6
S'white'
p46
sg8
(lp47
sg10
S'Possible'
p48
sg12
S'Isolated'
p49
sg14
g15
sg16
I1
sg17
S'Low'
p50
sg19
S'Liten tilleggsbelastning'
p51
sg21
Nsg22
S'100'
p52
sg24
S'200'
p53
sg26
S'Isolerte faresoner'
p54
sg28
Nsg39
g40
sg41
S'1 - Harmloest'
p55
sba(irunmatrix
M3Element
p56
(dp57
g3
Nsg4
S'Lite sannsynlig, Mulig'
p58
sg6
S'white'
p59
sg8
(lp60
sg10
S'Possible'
p61
sg12
S'Isolated'
p62
sg14
g15
sg16
I1
sg17
S'Nat'
p63
sg19
S'Naturlig utloest'
p64
sg21
Nsg22
S'100'
p65
sg24
S'300'
p66
sg26
S'Isolerte faresoner'
p67
sg28
Nsg39
g40
sg41
S'1 - Harmloest'
p68
sba(irunmatrix
M3Element
p69
(dp70
g3
Nsg4
S'Sannsynlig, Meget sannsynlig'
p71
sg6
S'gray'
p72
sg8
(lp73
sg10
S'Likely'
p74
sg12
S'Isolated'
p75
sg14
S'gray'
p76
sg16
I0
sg17
S'High'
p77
sg19
S'Stor tilleggsbelastning'
p78
sg21
Nsg22
S'100'
p79
sg24
S'400'
p80
sg26
S'Isolerte faresoner'
p81
sg28
Nsg39
g40
sg41
S'1 - Harmloest'
p82
sba(irunmatrix
M3Element
p83
(dp84
g3
Nsg4
S'Sannsynlig, Meget sannsynlig'
p85
sg6
S'gray'
p86
sg8
(lp87
sg10
S'Likely'
p88
sg12
S'Isolated'
p89
sg14
g76
sg16
I0
sg17
S'Low'
p90
sg19
S'Liten tilleggsbelastning'
p91
sg21
Nsg22
S'100'
p92
sg24
S'500'
p93
sg26
S'Isolerte faresoner'
p94
sg28
Nsg39
g40
sg41
S'1 - Harmloest'
p95
sba(irunmatrix
M3Element
p96
(dp97
g3
Nsg4
S'Sannsynlig, Meget sannsynlig'
p98
sg6
S'gray'
p99
sg8
(lp100
sg10
S'Likely'
p101
sg12
S'Isolated'
p102
sg14
g76
sg16
I0
sg17
S'Nat'
p103
sg19
S'Naturlig utloest'
p104
sg21
Nsg22
S'100'
p105
sg24
S'600'
p106
sg26
S'Isolerte faresoner'
p107
sg28
Nsg39
g40
sg41
S'1 - Harmloest'
p108
sba(irunmatrix
M3Element
p109
(dp110
g3
Nsg4
S'Lite sannsynlig, Mulig'
p111
sg6
S'white'
p112
sg8
(lp113
sg10
S'Possible'
p114
sg12
S'Some'
p115
sg14
g15
sg16
I1
sg17
S'High'
p116
sg19
S'Stor tilleggsbelastning'
p117
sg21
Nsg22
S'100'
p118
sg24
S'700'
p119
sg26
S'Noen bratte heng'
p120
sg28
Nsg39
g40
sg41
S'1 - Harmloest'
p121
sba(irunmatrix
M3Element
p122
(dp123
g3
F1.0
sg4
S'Lite sannsynlig, Mulig'
p124
sg6
g7
sg8
(lp125
I1
asg10
S'Possible'
p126
sg12
S'Some'
p127
sg14
g15
sg16
I1
sg17
S'Low'
p128
sg19
S'Liten tilleggsbelastning'
p129
sg21
I1
sg22
S'100'
p130
sg24
S'800'
p131
sg26
S'Noen bratte heng'
p132
sg28
g29
(g33
S'\x00\x00\x00\x00\x00\x00\x00\x00'
p133
tp134
Rp135
sg39
g40
sg41
S'1 - Harmloest'
p136
sba(irunmatrix
M3Element
p137
(dp138
g3
F1.0
sg4
S'Lite sannsynlig, Mulig'
p139
sg6
g7
sg8
(lp140
I1
aI1
aI1
aI1
aI1
aI1
asg10
S'Possible'
p141
sg12
S'Some'
p142
sg14
g15
sg16
I1
sg17
S'Nat'
p143
sg19
S'Naturlig utloest'
p144
sg21
I6
sg22
S'100'
p145
sg24
S'900'
p146
sg26
S'Noen bratte heng'
p147
sg28
g29
(g33
S'\x00\x00\x00\x00\x00\x00\x00\x00'
p148
tp149
Rp150
sg39
g40
sg41
S'1 - Harmloest'
p151
sba(irunmatrix
M3Element
p152
(dp153
g3
Nsg4
S'Sannsynlig, Meget sannsynlig'
p154
sg6
S'gray'
p155
sg8
(lp156
sg10
S'Likely'
p157
sg12
S'Some'
p158
sg14
g76
sg16
I0
sg17
S'High'
p159
sg19
S'Stor tilleggsbelastning'
p160
sg21
Nsg22
S'100'
p161
sg24
S'1000'
p162
sg26
S'Noen bratte heng'
p163
sg28
Nsg39
g40
sg41
S'1 - Harmloest'
p164
sba(irunmatrix
M3Element
p165
(dp166
g3
Nsg4
S'Sannsynlig, Meget sannsynlig'
p167
sg6
S'gray'
p168
sg8
(lp169
sg10
S'Likely'
p170
sg12
S'Some'
p171
sg14
g76
sg16
I0
sg17
S'Low'
p172
sg19
S'Liten tilleggsbelastning'
p173
sg21
Nsg22
S'100'
p174
sg24
S'1100'
p175
sg26
S'Noen bratte heng'
p176
sg28
Nsg39
g40
sg41
S'1 - Harmloest'
p177
sba(irunmatrix
M3Element
p178
(dp179
g3
Nsg4
S'Sannsynlig, Meget sannsynlig'
p180
sg6
S'white'
p181
sg8
(lp182
sg10
S'Likely'
p183
sg12
S'Some'
p184
sg14
g15
sg16
I1
sg17
S'Nat'
p185
sg19
S'Naturlig utloest'
p186
sg21
Nsg22
S'100'
p187
sg24
S'1200'
p188
sg26
S'Noen bratte heng'
p189
sg28
Nsg39
g40
sg41
S'1 - Harmloest'
p190
sba(irunmatrix
M3Element
p191
(dp192
g3
Nsg4
S'Lite sannsynlig, Mulig'
p193
sg6
S'gray'
p194
sg8
(lp195
sg10
S'Possible'
p196
sg12
S'Many'
p197
sg14
g76
sg16
I0
sg17
S'High'
p198
sg19
S'Stor tilleggsbelastning'
p199
sg21
Nsg22
S'100'
p200
sg24
S'1300'
p201
sg26
S'Mange bratte heng'
p202
sg28
Nsg39
g40
sg41
S'1 - Harmloest'
p203
sba(irunmatrix
M3Element
p204
(dp205
g3
Nsg4
S'Lite sannsynlig, Mulig'
p206
sg6
S'white'
p207
sg8
(lp208
sg10
S'Possible'
p209
sg12
S'Many'
p210
sg14
g15
sg16
I1
sg17
S'Low'
p211
sg19
S'Liten tilleggsbelastning'
p212
sg21
Nsg22
S'100'
p213
sg24
S'1400'
p214
sg26
S'Mange bratte heng'
p215
sg28
Nsg39
g40
sg41
S'1 - Harmloest'
p216
sba(irunmatrix
M3Element
p217
(dp218
g3
Nsg4
S'Lite sannsynlig, Mulig'
p219
sg6
S'gray'
p220
sg8
(lp221
sg10
S'Possible'
p222
sg12
S'Many'
p223
sg14
g76
sg16
I0
sg17
S'Nat'
p224
sg19
S'Naturlig utloest'
p225
sg21
Nsg22
S'100'
p226
sg24
S'1500'
p227
sg26
S'Mange bratte heng'
p228
sg28
Nsg39
g40
sg41
S'1 - Harmloest'
p229
sba(irunmatrix
M3Element
p230
(dp231
g3
Nsg4
S'Sannsynlig, Meget sannsynlig'
p232
sg6
S'gray'
p233
sg8
(lp234
sg10
S'Likely'
p235
sg12
S'Many'
p236
sg14
g76
sg16
I0
sg17
S'High'
p237
sg19
S'Stor tilleggsbelastning'
p238
sg21
Nsg22
S'100'
p239
sg24
S'1600'
p240
sg26
S'Mange bratte heng'
p241
sg28
Nsg39
g40
sg41
S'1 - Harmloest'
p242
sba(irunmatrix
M3Element
p243
(dp244
g3
Nsg4
S'Sannsynlig, Meget sannsynlig'
p245
sg6
S'white'
p246
sg8
(lp247
sg10
S'Likely'
p248
sg12
S'Many'
p249
sg14
S'#ffff00'
p250
sg16
I2
sg17
S'Low'
p251
sg19
S'Liten tilleggsbelastning'
p252
sg21
Nsg22
S'100'
p253
sg24
S'1700'
p254
sg26
S'Mange bratte heng'
p255
sg28
Nsg39
g40
sg41
S'1 - Harmloest'
p256
sba(irunmatrix
M3Element
p257
(dp258
g3
Nsg4
S'Sannsynlig, Meget sannsynlig'
p259
sg6
S'white'
p260
sg8
(lp261
sg10
S'Likely'
p262
sg12
S'Many'
p263
sg14
g250
sg16
I2
sg17
S'Nat'
p264
sg19
S'Naturlig utloest'
p265
sg21
Nsg22
S'100'
p266
sg24
S'1800'
p267
sg26
S'Mange bratte heng'
p268
sg28
Nsg39
g40
sg41
S'1 - Harmloest'
p269
sba(irunmatrix
M3Element
p270
(dp271
g3
Nsg4
S'Lite sannsynlig, Mulig'
p272
sg6
S'gray'
p273
sg8
(lp274
sg10
S'Possible'
p275
sg12
S'Most'
p276
sg14
g76
sg16
I0
sg17
S'High'
p277
sg19
S'Stor tilleggsbelastning'
p278
sg21
Nsg22
S'100'
p279
sg24
S'1900'
p280
sg26
S'De fleste bratte heng, Ogsaa i mindre bratt terreng'
p281
sg28
Nsg39
g40
sg41
S'1 - Harmloest'
p282
sba(irunmatrix
M3Element
p283
(dp284
g3
Nsg4
S'Lite sannsynlig, Mulig'
p285
sg6
S'gray'
p286
sg8
(lp287
sg10
S'Possible'
p288
sg12
S'Most'
p289
sg14
g76
sg16
I0
sg17
S'Low'
p290
sg19
S'Liten tilleggsbelastning'
p291
sg21
Nsg22
S'100'
p292
sg24
S'2000'
p293
sg26
S'De fleste bratte heng, Ogsaa i mindre bratt terreng'
p294
sg28
Nsg39
g40
sg41
S'1 - Harmloest'
p295
sba(irunmatrix
M3Element
p296
(dp297
g3
Nsg4
S'Lite sannsynlig, Mulig'
p298
sg6
S'gray'
p299
sg8
(lp300
sg10
S'Possible'
p301
sg12
S'Most'
p302
sg14
g76
sg16
I0
sg17
S'Nat'
p303
sg19
S'Naturlig utloest'
p304
sg21
Nsg22
S'100'
p305
sg24
S'2100'
p306
sg26
S'De fleste bratte heng, Ogsaa i mindre bratt terreng'
p307
sg28
Nsg39
g40
sg41
S'1 - Harmloest'
p308
sba(irunmatrix
M3Element
p309
(dp310
g3
Nsg4
S'Sannsynlig, Meget sannsynlig'
p311
sg6
S'gray'
p312
sg8
(lp313
sg10
S'Likely'
p314
sg12
S'Most'
p315
sg14
g76
sg16
I0
sg17
S'High'
p316
sg19
S'Stor tilleggsbelastning'
p317
sg21
Nsg22
S'100'
p318
sg24
S'2200'
p319
sg26
S'De fleste bratte heng, Ogsaa i mindre bratt terreng'
p320
sg28
Nsg39
g40
sg41
S'1 - Harmloest'
p321
sba(irunmatrix
M3Element
p322
(dp323
g3
Nsg4
S'Sannsynlig, Meget sannsynlig'
p324
sg6
S'gray'
p325
sg8
(lp326
sg10
S'Likely'
p327
sg12
S'Most'
p328
sg14
g76
sg16
I0
sg17
S'Low'
p329
sg19
S'Liten tilleggsbelastning'
p330
sg21
Nsg22
S'100'
p331
sg24
S'2300'
p332
sg26
S'De fleste bratte heng, Ogsaa i mindre bratt terreng'
p333
sg28
Nsg39
g40
sg41
S'1 - Harmloest'
p334
sba(irunmatrix
M3Element
p335
(dp336
g3
Nsg4
S'Sannsynlig, Meget sannsynlig'
p337
sg6
S'white'
p338
sg8
(lp339
sg10
S'Likely'
p340
sg12
S'Most'
p341
sg14
g76
sg16
I0
sg17
S'Nat'
p342
sg19
S'Naturlig utloest'
p343
sg21
Nsg22
S'100'
p344
sg24
S'2400'
p345
sg26
S'De fleste bratte heng, Ogsaa i mindre bratt terreng'
p346
sg28
Nsg39
S'2'
p347
sg41
S'1 - Harmloest'
p348
sba(irunmatrix
M3Element
p349
(dp350
g3
F1.0
sg4
S'Lite sannsynlig, Mulig'
p351
sg6
g7
sg8
(lp352
I1
asg10
S'Possible'
p353
sg12
S'Isolated'
p354
sg14
g15
sg16
I1
sg17
S'High'
p355
sg19
S'Stor tilleggsbelastning'
p356
sg21
I1
sg22
S'200'
p357
sg24
S'100'
p358
sg26
S'Isolerte faresoner'
p359
sg28
g29
(g33
S'\x00\x00\x00\x00\x00\x00\x00\x00'
p360
tp361
Rp362
sg39
g347
sg41
S'2 - Smaa'
p363
sba(irunmatrix
M3Element
p364
(dp365
g3
F1.0
sg4
S'Lite sannsynlig, Mulig'
p366
sg6
g7
sg8
(lp367
I1
aI1
aI1
aI1
aI1
aI1
aI1
aI1
aI1
aI1
aI1
asg10
S'Possible'
p368
sg12
S'Isolated'
p369
sg14
g15
sg16
I1
sg17
S'Low'
p370
sg19
S'Liten tilleggsbelastning'
p371
sg21
I11
sg22
S'200'
p372
sg24
S'200'
p373
sg26
S'Isolerte faresoner'
p374
sg28
g29
(g33
S'\x00\x00\x00\x00\x00\x00\x00\x00'
p375
tp376
Rp377
sg39
g347
sg41
S'2 - Smaa'
p378
sba(irunmatrix
M3Element
p379
(dp380
g3
F1.3333333333333333
sg4
S'Lite sannsynlig, Mulig'
p381
sg6
g7
sg8
(lp382
I3
aI1
aI1
aI1
aI1
aI1
asg10
S'Possible'
p383
sg12
S'Isolated'
p384
sg14
g15
sg16
I1
sg17
S'Nat'
p385
sg19
S'Naturlig utloest'
p386
sg21
I6
sg22
S'200'
p387
sg24
S'300'
p388
sg26
S'Isolerte faresoner'
p389
sg28
g29
(g33
S'6Fu\xcf\xf4\xd9\xe7?'
p390
tp391
Rp392
sg39
g347
sg41
S'2 - Smaa'
p393
sba(irunmatrix
M3Element
p394
(dp395
g3
Nsg4
S'Sannsynlig, Meget sannsynlig'
p396
sg6
S'gray'
p397
sg8
(lp398
sg10
S'Likely'
p399
sg12
S'Isolated'
p400
sg14
g76
sg16
I0
sg17
S'High'
p401
sg19
S'Stor tilleggsbelastning'
p402
sg21
Nsg22
S'200'
p403
sg24
S'400'
p404
sg26
S'Isolerte faresoner'
p405
sg28
Nsg39
g347
sg41
S'2 - Smaa'
p406
sba(irunmatrix
M3Element
p407
(dp408
g3
Nsg4
S'Sannsynlig, Meget sannsynlig'
p409
sg6
S'gray'
p410
sg8
(lp411
sg10
S'Likely'
p412
sg12
S'Isolated'
p413
sg14
g76
sg16
I0
sg17
S'Low'
p414
sg19
S'Liten tilleggsbelastning'
p415
sg21
Nsg22
S'200'
p416
sg24
S'500'
p417
sg26
S'Isolerte faresoner'
p418
sg28
Nsg39
g347
sg41
S'2 - Smaa'
p419
sba(irunmatrix
M3Element
p420
(dp421
g3
Nsg4
S'Sannsynlig, Meget sannsynlig'
p422
sg6
S'gray'
p423
sg8
(lp424
sg10
S'Likely'
p425
sg12
S'Isolated'
p426
sg14
g76
sg16
I0
sg17
S'Nat'
p427
sg19
S'Naturlig utloest'
p428
sg21
Nsg22
S'200'
p429
sg24
S'600'
p430
sg26
S'Isolerte faresoner'
p431
sg28
Nsg39
g347
sg41
S'2 - Smaa'
p432
sba(irunmatrix
M3Element
p433
(dp434
g3
F2.0
sg4
S'Lite sannsynlig, Mulig'
p435
sg6
S'#ffff00'
p436
sg8
(lp437
I2
aI2
asg10
S'Possible'
p438
sg12
S'Some'
p439
sg14
g250
sg16
I2
sg17
S'High'
p440
sg19
S'Stor tilleggsbelastning'
p441
sg21
I2
sg22
S'200'
p442
sg24
S'700'
p443
sg26
S'Noen bratte heng'
p444
sg28
g29
(g33
S'\x00\x00\x00\x00\x00\x00\x00\x00'
p445
tp446
Rp447
sg39
g347
sg41
S'2 - Smaa'
p448
sba(irunmatrix
M3Element
p449
(dp450
g3
F2.122448979591837
sg4
S'Lite sannsynlig, Mulig'
p451
sg6
g436
sg8
(lp452
I2
aI2
aI2
aI2
aI2
aI2
aI2
aI2
aI2
aI2
aI2
aI3
aI3
aI2
aI3
aI3
aI2
aI2
aI3
aI3
aI3
aI2
aI2
aI2
aI2
aI2
aI2
aI2
aI2
aI2
aI2
aI2
aI2
aI2
aI2
aI2
aI1
aI2
aI2
aI2
aI2
aI2
aI2
aI2
aI2
aI2
aI2
aI2
aI2
asg10
S'Possible'
p453
sg12
S'Some'
p454
sg14
g250
sg16
I2
sg17
S'Low'
p455
sg19
S'Liten tilleggsbelastning'
p456
sg21
I49
sg22
S'200'
p457
sg24
S'800'
p458
sg26
S'Noen bratte heng'
p459
sg28
g29
(g33
S'z\t\xa0\x9a\xd4\xa4\xd8?'
p460
tp461
Rp462
sg39
g347
sg41
S'2 - Smaa'
p463
sba(irunmatrix
M3Element
p464
(dp465
g3
F2.21875
sg4
S'Lite sannsynlig, Mulig'
p466
sg6
g436
sg8
(lp467
I2
aI3
aI2
aI3
aI2
aI3
aI3
aI2
aI3
aI2
aI3
aI2
aI3
aI2
aI2
aI2
aI2
aI2
aI2
aI2
aI2
aI2
aI2
aI2
aI2
aI2
aI2
aI2
aI2
aI2
aI2
aI2
asg10
S'Possible'
p468
sg12
S'Some'
p469
sg14
g250
sg16
I2
sg17
S'Nat'
p470
sg19
S'Naturlig utloest'
p471
sg21
I32
sg22
S'200'
p472
sg24
S'900'
p473
sg26
S'Noen bratte heng'
p474
sg28
g29
(g33
S'$\xb7G\x94\x1fu\xda?'
p475
tp476
Rp477
sg39
g347
sg41
S'2 - Smaa'
p478
sba(irunmatrix
M3Element
p479
(dp480
g3
Nsg4
S'Sannsynlig, Meget sannsynlig'
p481
sg6
S'gray'
p482
sg8
(lp483
sg10
S'Likely'
p484
sg12
S'Some'
p485
sg14
g76
sg16
I0
sg17
S'High'
p486
sg19
S'Stor tilleggsbelastning'
p487
sg21
Nsg22
S'200'
p488
sg24
S'1000'
p489
sg26
S'Noen bratte heng'
p490
sg28
Nsg39
g347
sg41
S'2 - Smaa'
p491
sba(irunmatrix
M3Element
p492
(dp493
g3
Nsg4
S'Sannsynlig, Meget sannsynlig'
p494
sg6
S'gray'
p495
sg8
(lp496
sg10
S'Likely'
p497
sg12
S'Some'
p498
sg14
g76
sg16
I0
sg17
S'Low'
p499
sg19
S'Liten tilleggsbelastning'
p500
sg21
Nsg22
S'200'
p501
sg24
S'1100'
p502
sg26
S'Noen bratte heng'
p503
sg28
Nsg39
g347
sg41
S'2 - Smaa'
p504
sba(irunmatrix
M3Element
p505
(dp506
g3
F3.0
sg4
S'Sannsynlig, Meget sannsynlig'
p507
sg6
S'#ff9900'
p508
sg8
(lp509
I3
aI3
asg10
S'Likely'
p510
sg12
S'Some'
p511
sg14
S'#ff9900'
p512
sg16
I3
sg17
S'Nat'
p513
sg19
S'Naturlig utloest'
p514
sg21
I2
sg22
S'200'
p515
sg24
S'1200'
p516
sg26
S'Noen bratte heng'
p517
sg28
g29
(g33
S'\x00\x00\x00\x00\x00\x00\x00\x00'
p518
tp519
Rp520
sg39
g347
sg41
S'2 - Smaa'
p521
sba(irunmatrix
M3Element
p522
(dp523
g3
Nsg4
S'Lite sannsynlig, Mulig'
p524
sg6
S'gray'
p525
sg8
(lp526
sg10
S'Possible'
p527
sg12
S'Many'
p528
sg14
g76
sg16
I0
sg17
S'High'
p529
sg19
S'Stor tilleggsbelastning'
p530
sg21
Nsg22
S'200'
p531
sg24
S'1300'
p532
sg26
S'Mange bratte heng'
p533
sg28
Nsg39
g347
sg41
S'2 - Smaa'
p534
sba(irunmatrix
M3Element
p535
(dp536
g3
F3.0
sg4
S'Lite sannsynlig, Mulig'
p537
sg6
g508
sg8
(lp538
I3
aI3
aI3
aI3
aI3
aI3
aI3
aI3
aI3
aI3
aI3
aI3
aI3
aI3
aI3
aI3
aI3
asg10
S'Possible'
p539
sg12
S'Many'
p540
sg14
g512
sg16
I3
sg17
S'Low'
p541
sg19
S'Liten tilleggsbelastning'
p542
sg21
I17
sg22
S'200'
p543
sg24
S'1400'
p544
sg26
S'Mange bratte heng'
p545
sg28
g29
(g33
S'\x00\x00\x00\x00\x00\x00\x00\x00'
p546
tp547
Rp548
sg39
g347
sg41
S'2 - Smaa'
p549
sba(irunmatrix
M3Element
p550
(dp551
g3
F3.0
sg4
S'Lite sannsynlig, Mulig'
p552
sg6
g508
sg8
(lp553
I3
aI3
aI3
aI3
aI3
aI3
aI3
asg10
S'Possible'
p554
sg12
S'Many'
p555
sg14
g76
sg16
I0
sg17
S'Nat'
p556
sg19
S'Naturlig utloest'
p557
sg21
I7
sg22
S'200'
p558
sg24
S'1500'
p559
sg26
S'Mange bratte heng'
p560
sg28
g29
(g33
S'\x00\x00\x00\x00\x00\x00\x00\x00'
p561
tp562
Rp563
sg39
g347
sg41
S'2 - Smaa'
p564
sba(irunmatrix
M3Element
p565
(dp566
g3
Nsg4
S'Sannsynlig, Meget sannsynlig'
p567
sg6
S'gray'
p568
sg8
(lp569
sg10
S'Likely'
p570
sg12
S'Many'
p571
sg14
g76
sg16
I0
sg17
S'High'
p572
sg19
S'Stor tilleggsbelastning'
p573
sg21
Nsg22
S'200'
p574
sg24
S'1600'
p575
sg26
S'Mange bratte heng'
p576
sg28
Nsg39
g347
sg41
S'2 - Smaa'
p577
sba(irunmatrix
M3Element
p578
(dp579
g3
Nsg4
S'Sannsynlig, Meget sannsynlig'
p580
sg6
S'white'
p581
sg8
(lp582
sg10
S'Likely'
p583
sg12
S'Many'
p584
sg14
S'#ff0000'
p585
sg16
I4
sg17
S'Low'
p586
sg19
S'Liten tilleggsbelastning'
p587
sg21
Nsg22
S'200'
p588
sg24
S'1700'
p589
sg26
S'Mange bratte heng'
p590
sg28
Nsg39
g347
sg41
S'2 - Smaa'
p591
sba(irunmatrix
M3Element
p592
(dp593
g3
Nsg4
S'Sannsynlig, Meget sannsynlig'
p594
sg6
S'white'
p595
sg8
(lp596
sg10
S'Likely'
p597
sg12
S'Many'
p598
sg14
g585
sg16
I4
sg17
S'Nat'
p599
sg19
S'Naturlig utloest'
p600
sg21
Nsg22
S'200'
p601
sg24
S'1800'
p602
sg26
S'Mange bratte heng'
p603
sg28
Nsg39
g347
sg41
S'2 - Smaa'
p604
sba(irunmatrix
M3Element
p605
(dp606
g3
Nsg4
S'Lite sannsynlig, Mulig'
p607
sg6
S'gray'
p608
sg8
(lp609
sg10
S'Possible'
p610
sg12
S'Most'
p611
sg14
g76
sg16
I0
sg17
S'High'
p612
sg19
S'Stor tilleggsbelastning'
p613
sg21
Nsg22
S'200'
p614
sg24
S'1900'
p615
sg26
S'De fleste bratte heng, Ogsaa i mindre bratt terreng'
p616
sg28
Nsg39
g347
sg41
S'2 - Smaa'
p617
sba(irunmatrix
M3Element
p618
(dp619
g3
Nsg4
S'Lite sannsynlig, Mulig'
p620
sg6
S'gray'
p621
sg8
(lp622
sg10
S'Possible'
p623
sg12
S'Most'
p624
sg14
g76
sg16
I0
sg17
S'Low'
p625
sg19
S'Liten tilleggsbelastning'
p626
sg21
Nsg22
S'200'
p627
sg24
S'2000'
p628
sg26
S'De fleste bratte heng, Ogsaa i mindre bratt terreng'
p629
sg28
Nsg39
g347
sg41
S'2 - Smaa'
p630
sba(irunmatrix
M3Element
p631
(dp632
g3
Nsg4
S'Lite sannsynlig, Mulig'
p633
sg6
S'gray'
p634
sg8
(lp635
sg10
S'Possible'
p636
sg12
S'Most'
p637
sg14
g76
sg16
I0
sg17
S'Nat'
p638
sg19
S'Naturlig utloest'
p639
sg21
Nsg22
S'200'
p640
sg24
S'2100'
p641
sg26
S'De fleste bratte heng, Ogsaa i mindre bratt terreng'
p642
sg28
Nsg39
g347
sg41
S'2 - Smaa'
p643
sba(irunmatrix
M3Element
p644
(dp645
g3
Nsg4
S'Sannsynlig, Meget sannsynlig'
p646
sg6
S'gray'
p647
sg8
(lp648
sg10
S'Likely'
p649
sg12
S'Most'
p650
sg14
g76
sg16
I0
sg17
S'High'
p651
sg19
S'Stor tilleggsbelastning'
p652
sg21
Nsg22
S'200'
p653
sg24
S'2200'
p654
sg26
S'De fleste bratte heng, Ogsaa i mindre bratt terreng'
p655
sg28
Nsg39
g347
sg41
S'2 - Smaa'
p656
sba(irunmatrix
M3Element
p657
(dp658
g3
Nsg4
S'Sannsynlig, Meget sannsynlig'
p659
sg6
S'gray'
p660
sg8
(lp661
sg10
S'Likely'
p662
sg12
S'Most'
p663
sg14
g76
sg16
I0
sg17
S'Low'
p664
sg19
S'Liten tilleggsbelastning'
p665
sg21
Nsg22
S'200'
p666
sg24
S'2300'
p667
sg26
S'De fleste bratte heng, Ogsaa i mindre bratt terreng'
p668
sg28
Nsg39
g347
sg41
S'2 - Smaa'
p669
sba(irunmatrix
M3Element
p670
(dp671
g3
Nsg4
S'Sannsynlig, Meget sannsynlig'
p672
sg6
S'white'
p673
sg8
(lp674
sg10
S'Likely'
p675
sg12
S'Most'
p676
sg14
g76
sg16
I0
sg17
S'Nat'
p677
sg19
S'Naturlig utloest'
p678
sg21
Nsg22
S'200'
p679
sg24
S'2400'
p680
sg26
S'De fleste bratte heng, Ogsaa i mindre bratt terreng'
p681
sg28
Nsg39
g347
sg41
S'2 - Smaa'
p682
sba(irunmatrix
M3Element
p683
(dp684
g3
F1.0
sg4
S'Lite sannsynlig, Mulig'
p685
sg6
g7
sg8
(lp686
I1
asg10
S'Possible'
p687
sg12
S'Isolated'
p688
sg14
g15
sg16
I1
sg17
S'High'
p689
sg19
S'Stor tilleggsbelastning'
p690
sg21
I1
sg22
S'300'
p691
sg24
S'100'
p692
sg26
S'Isolerte faresoner'
p693
sg28
g29
(g33
S'\x00\x00\x00\x00\x00\x00\x00\x00'
p694
tp695
Rp696
sg39
S'3'
p697
sg41
S'3 - Middels'
p698
sba(irunmatrix
M3Element
p699
(dp700
g3
Nsg4
S'Lite sannsynlig, Mulig'
p701
sg6
S'white'
p702
sg8
(lp703
sg10
S'Possible'
p704
sg12
S'Isolated'
p705
sg14
g250
sg16
I2
sg17
S'Low'
p706
sg19
S'Liten tilleggsbelastning'
p707
sg21
Nsg22
S'300'
p708
sg24
S'200'
p709
sg26
S'Isolerte faresoner'
p710
sg28
Nsg39
g697
sg41
S'3 - Middels'
p711
sba(irunmatrix
M3Element
p712
(dp713
g3
F3.0
sg4
S'Lite sannsynlig, Mulig'
p714
sg6
g508
sg8
(lp715
I3
aI3
asg10
S'Possible'
p716
sg12
S'Isolated'
p717
sg14
g250
sg16
I2
sg17
S'Nat'
p718
sg19
S'Naturlig utloest'
p719
sg21
I2
sg22
S'300'
p720
sg24
S'300'
p721
sg26
S'Isolerte faresoner'
p722
sg28
g29
(g33
S'\x00\x00\x00\x00\x00\x00\x00\x00'
p723
tp724
Rp725
sg39
g697
sg41
S'3 - Middels'
p726
sba(irunmatrix
M3Element
p727
(dp728
g3
Nsg4
S'Sannsynlig, Meget sannsynlig'
p729
sg6
S'gray'
p730
sg8
(lp731
sg10
S'Likely'
p732
sg12
S'Isolated'
p733
sg14
g76
sg16
I0
sg17
S'High'
p734
sg19
S'Stor tilleggsbelastning'
p735
sg21
Nsg22
S'300'
p736
sg24
S'400'
p737
sg26
S'Isolerte faresoner'
p738
sg28
Nsg39
g697
sg41
S'3 - Middels'
p739
sba(irunmatrix
M3Element
p740
(dp741
g3
Nsg4
S'Sannsynlig, Meget sannsynlig'
p742
sg6
S'gray'
p743
sg8
(lp744
sg10
S'Likely'
p745
sg12
S'Isolated'
p746
sg14
g76
sg16
I0
sg17
S'Low'
p747
sg19
S'Liten tilleggsbelastning'
p748
sg21
Nsg22
S'300'
p749
sg24
S'500'
p750
sg26
S'Isolerte faresoner'
p751
sg28
Nsg39
g697
sg41
S'3 - Middels'
p752
sba(irunmatrix
M3Element
p753
(dp754
g3
Nsg4
S'Sannsynlig, Meget sannsynlig'
p755
sg6
S'gray'
p756
sg8
(lp757
sg10
S'Likely'
p758
sg12
S'Isolated'
p759
sg14
g76
sg16
I0
sg17
S'Nat'
p760
sg19
S'Naturlig utloest'
p761
sg21
Nsg22
S'300'
p762
sg24
S'600'
p763
sg26
S'Isolerte faresoner'
p764
sg28
Nsg39
g697
sg41
S'3 - Middels'
p765
sba(irunmatrix
M3Element
p766
(dp767
g3
F2.0
sg4
S'Lite sannsynlig, Mulig'
p768
sg6
g436
sg8
(lp769
I2
aI2
aI2
aI2
aI2
aI2
aI2
aI1
aI2
aI2
aI3
asg10
S'Possible'
p770
sg12
S'Some'
p771
sg14
g250
sg16
I2
sg17
S'High'
p772
sg19
S'Stor tilleggsbelastning'
p773
sg21
I11
sg22
S'300'
p774
sg24
S'700'
p775
sg26
S'Noen bratte heng'
p776
sg28
g29
(g33
S'P\x95\x1d<)J\xdb?'
p777
tp778
Rp779
sg39
g697
sg41
S'3 - Middels'
p780
sba(irunmatrix
M3Element
p781
(dp782
g3
F3.0
sg4
S'Lite sannsynlig, Mulig'
p783
sg6
g508
sg8
(lp784
I3
aI3
aI3
aI3
aI3
aI3
aI3
aI3
aI3
aI3
aI3
aI3
asg10
S'Possible'
p785
sg12
S'Some'
p786
sg14
g512
sg16
I3
sg17
S'Low'
p787
sg19
S'Liten tilleggsbelastning'
p788
sg21
I12
sg22
S'300'
p789
sg24
S'800'
p790
sg26
S'Noen bratte heng'
p791
sg28
g29
(g33
S'\x00\x00\x00\x00\x00\x00\x00\x00'
p792
tp793
Rp794
sg39
g697
sg41
S'3 - Middels'
p795
sba(irunmatrix
M3Element
p796
(dp797
g3
Nsg4
S'Lite sannsynlig, Mulig'
p798
sg6
S'white'
p799
sg8
(lp800
sg10
S'Possible'
p801
sg12
S'Some'
p802
sg14
g512
sg16
I3
sg17
S'Nat'
p803
sg19
S'Naturlig utloest'
p804
sg21
Nsg22
S'300'
p805
sg24
S'900'
p806
sg26
S'Noen bratte heng'
p807
sg28
Nsg39
g697
sg41
S'3 - Middels'
p808
sba(irunmatrix
M3Element
p809
(dp810
g3
Nsg4
S'Sannsynlig, Meget sannsynlig'
p811
sg6
S'gray'
p812
sg8
(lp813
sg10
S'Likely'
p814
sg12
S'Some'
p815
sg14
g76
sg16
I0
sg17
S'High'
p816
sg19
S'Stor tilleggsbelastning'
p817
sg21
Nsg22
S'300'
p818
sg24
S'1000'
p819
sg26
S'Noen bratte heng'
p820
sg28
Nsg39
g697
sg41
S'3 - Middels'
p821
sba(irunmatrix
M3Element
p822
(dp823
g3
Nsg4
S'Sannsynlig, Meget sannsynlig'
p824
sg6
S'gray'
p825
sg8
(lp826
sg10
S'Likely'
p827
sg12
S'Some'
p828
sg14
g76
sg16
I0
sg17
S'Low'
p829
sg19
S'Liten tilleggsbelastning'
p830
sg21
Nsg22
S'300'
p831
sg24
S'1100'
p832
sg26
S'Noen bratte heng'
p833
sg28
Nsg39
g697
sg41
S'3 - Middels'
p834
sba(irunmatrix
M3Element
p835
(dp836
g3
Nsg4
S'Sannsynlig, Meget sannsynlig'
p837
sg6
S'white'
p838
sg8
(lp839
sg10
S'Likely'
p840
sg12
S'Some'
p841
sg14
g585
sg16
I4
sg17
S'Nat'
p842
sg19
S'Naturlig utloest'
p843
sg21
Nsg22
S'300'
p844
sg24
S'1200'
p845
sg26
S'Noen bratte heng'
p846
sg28
Nsg39
g697
sg41
S'3 - Middels'
p847
sba(irunmatrix
M3Element
p848
(dp849
g3
Nsg4
S'Lite sannsynlig, Mulig'
p850
sg6
S'gray'
p851
sg8
(lp852
sg10
S'Possible'
p853
sg12
S'Many'
p854
sg14
g76
sg16
I0
sg17
S'High'
p855
sg19
S'Stor tilleggsbelastning'
p856
sg21
Nsg22
S'300'
p857
sg24
S'1300'
p858
sg26
S'Mange bratte heng'
p859
sg28
Nsg39
g697
sg41
S'3 - Middels'
p860
sba(irunmatrix
M3Element
p861
(dp862
g3
F3.0
sg4
S'Lite sannsynlig, Mulig'
p863
sg6
g508
sg8
(lp864
I3
aI3
asg10
S'Possible'
p865
sg12
S'Many'
p866
sg14
g585
sg16
I4
sg17
S'Low'
p867
sg19
S'Liten tilleggsbelastning'
p868
sg21
I2
sg22
S'300'
p869
sg24
S'1400'
p870
sg26
S'Mange bratte heng'
p871
sg28
g29
(g33
S'\x00\x00\x00\x00\x00\x00\x00\x00'
p872
tp873
Rp874
sg39
g697
sg41
S'3 - Middels'
p875
sba(irunmatrix
M3Element
p876
(dp877
g3
Nsg4
S'Lite sannsynlig, Mulig'
p878
sg6
S'gray'
p879
sg8
(lp880
sg10
S'Possible'
p881
sg12
S'Many'
p882
sg14
g76
sg16
I0
sg17
S'Nat'
p883
sg19
S'Naturlig utloest'
p884
sg21
Nsg22
S'300'
p885
sg24
S'1500'
p886
sg26
S'Mange bratte heng'
p887
sg28
Nsg39
g697
sg41
S'3 - Middels'
p888
sba(irunmatrix
M3Element
p889
(dp890
g3
Nsg4
S'Sannsynlig, Meget sannsynlig'
p891
sg6
S'gray'
p892
sg8
(lp893
sg10
S'Likely'
p894
sg12
S'Many'
p895
sg14
g76
sg16
I0
sg17
S'High'
p896
sg19
S'Stor tilleggsbelastning'
p897
sg21
Nsg22
S'300'
p898
sg24
S'1600'
p899
sg26
S'Mange bratte heng'
p900
sg28
Nsg39
g697
sg41
S'3 - Middels'
p901
sba(irunmatrix
M3Element
p902
(dp903
g3
Nsg4
S'Sannsynlig, Meget sannsynlig'
p904
sg6
S'white'
p905
sg8
(lp906
sg10
S'Likely'
p907
sg12
S'Many'
p908
sg14
g585
sg16
I4
sg17
S'Low'
p909
sg19
S'Liten tilleggsbelastning'
p910
sg21
Nsg22
S'300'
p911
sg24
S'1700'
p912
sg26
S'Mange bratte heng'
p913
sg28
Nsg39
g697
sg41
S'3 - Middels'
p914
sba(irunmatrix
M3Element
p915
(dp916
g3
Nsg4
S'Sannsynlig, Meget sannsynlig'
p917
sg6
S'white'
p918
sg8
(lp919
sg10
S'Likely'
p920
sg12
S'Many'
p921
sg14
g585
sg16
I4
sg17
S'Nat'
p922
sg19
S'Naturlig utloest'
p923
sg21
Nsg22
S'300'
p924
sg24
S'1800'
p925
sg26
S'Mange bratte heng'
p926
sg28
Nsg39
g697
sg41
S'3 - Middels'
p927
sba(irunmatrix
M3Element
p928
(dp929
g3
Nsg4
S'Lite sannsynlig, Mulig'
p930
sg6
S'gray'
p931
sg8
(lp932
sg10
S'Possible'
p933
sg12
S'Most'
p934
sg14
g76
sg16
I0
sg17
S'High'
p935
sg19
S'Stor tilleggsbelastning'
p936
sg21
Nsg22
S'300'
p937
sg24
S'1900'
p938
sg26
S'De fleste bratte heng, Ogsaa i mindre bratt terreng'
p939
sg28
Nsg39
g697
sg41
S'3 - Middels'
p940
sba(irunmatrix
M3Element
p941
(dp942
g3
Nsg4
S'Lite sannsynlig, Mulig'
p943
sg6
S'gray'
p944
sg8
(lp945
sg10
S'Possible'
p946
sg12
S'Most'
p947
sg14
g76
sg16
I0
sg17
S'Low'
p948
sg19
S'Liten tilleggsbelastning'
p949
sg21
Nsg22
S'300'
p950
sg24
S'2000'
p951
sg26
S'De fleste bratte heng, Ogsaa i mindre bratt terreng'
p952
sg28
Nsg39
g697
sg41
S'3 - Middels'
p953
sba(irunmatrix
M3Element
p954
(dp955
g3
Nsg4
S'Lite sannsynlig, Mulig'
p956
sg6
S'gray'
p957
sg8
(lp958
sg10
S'Possible'
p959
sg12
S'Most'
p960
sg14
g76
sg16
I0
sg17
S'Nat'
p961
sg19
S'Naturlig utloest'
p962
sg21
Nsg22
S'300'
p963
sg24
S'2100'
p964
sg26
S'De fleste bratte heng, Ogsaa i mindre bratt terreng'
p965
sg28
Nsg39
g697
sg41
S'3 - Middels'
p966
sba(irunmatrix
M3Element
p967
(dp968
g3
Nsg4
S'Sannsynlig, Meget sannsynlig'
p969
sg6
S'gray'
p970
sg8
(lp971
sg10
S'Likely'
p972
sg12
S'Most'
p973
sg14
g76
sg16
I0
sg17
S'High'
p974
sg19
S'Stor tilleggsbelastning'
p975
sg21
Nsg22
S'300'
p976
sg24
S'2200'
p977
sg26
S'De fleste bratte heng, Ogsaa i mindre bratt terreng'
p978
sg28
Nsg39
g697
sg41
S'3 - Middels'
p979
sba(irunmatrix
M3Element
p980
(dp981
g3
Nsg4
S'Sannsynlig, Meget sannsynlig'
p982
sg6
S'gray'
p983
sg8
(lp984
sg10
S'Likely'
p985
sg12
S'Most'
p986
sg14
g76
sg16
I0
sg17
S'Low'
p987
sg19
S'Liten tilleggsbelastning'
p988
sg21
Nsg22
S'300'
p989
sg24
S'2300'
p990
sg26
S'De fleste bratte heng, Ogsaa i mindre bratt terreng'
p991
sg28
Nsg39
g697
sg41
S'3 - Middels'
p992
sba(irunmatrix
M3Element
p993
(dp994
g3
Nsg4
S'Sannsynlig, Meget sannsynlig'
p995
sg6
S'white'
p996
sg8
(lp997
sg10
S'Likely'
p998
sg12
S'Most'
p999
sg14
g76
sg16
I0
sg17
S'Nat'
p1000
sg19
S'Naturlig utloest'
p1001
sg21
Nsg22
S'300'
p1002
sg24
S'2400'
p1003
sg26
S'De fleste bratte heng, Ogsaa i mindre bratt terreng'
p1004
sg28
Nsg39
g697
sg41
S'3 - Middels'
p1005
sba(irunmatrix
M3Element
p1006
(dp1007
g3
Nsg4
S'Lite sannsynlig, Mulig'
p1008
sg6
S'white'
p1009
sg8
(lp1010
sg10
S'Possible'
p1011
sg12
S'Isolated'
p1012
sg14
g250
sg16
I2
sg17
S'High'
p1013
sg19
S'Stor tilleggsbelastning'
p1014
sg21
Nsg22
S'400'
p1015
sg24
S'100'
p1016
sg26
S'Isolerte faresoner'
p1017
sg28
Nsg39
S'4'
p1018
sg41
S'4 - Store'
p1019
sba(irunmatrix
M3Element
p1020
(dp1021
g3
Nsg4
S'Lite sannsynlig, Mulig'
p1022
sg6
S'white'
p1023
sg8
(lp1024
sg10
S'Possible'
p1025
sg12
S'Isolated'
p1026
sg14
g512
sg16
I3
sg17
S'Low'
p1027
sg19
S'Liten tilleggsbelastning'
p1028
sg21
Nsg22
S'400'
p1029
sg24
S'200'
p1030
sg26
S'Isolerte faresoner'
p1031
sg28
Nsg39
g1018
sg41
S'4 - Store'
p1032
sba(irunmatrix
M3Element
p1033
(dp1034
g3
Nsg4
S'Lite sannsynlig, Mulig'
p1035
sg6
S'white'
p1036
sg8
(lp1037
sg10
S'Possible'
p1038
sg12
S'Isolated'
p1039
sg14
g512
sg16
I3
sg17
S'Nat'
p1040
sg19
S'Naturlig utloest'
p1041
sg21
Nsg22
S'400'
p1042
sg24
S'300'
p1043
sg26
S'Isolerte faresoner'
p1044
sg28
Nsg39
g1018
sg41
S'4 - Store'
p1045
sba(irunmatrix
M3Element
p1046
(dp1047
g3
Nsg4
S'Sannsynlig, Meget sannsynlig'
p1048
sg6
S'gray'
p1049
sg8
(lp1050
sg10
S'Likely'
p1051
sg12
S'Isolated'
p1052
sg14
g76
sg16
I0
sg17
S'High'
p1053
sg19
S'Stor tilleggsbelastning'
p1054
sg21
Nsg22
S'400'
p1055
sg24
S'400'
p1056
sg26
S'Isolerte faresoner'
p1057
sg28
Nsg39
g1018
sg41
S'4 - Store'
p1058
sba(irunmatrix
M3Element
p1059
(dp1060
g3
Nsg4
S'Sannsynlig, Meget sannsynlig'
p1061
sg6
S'gray'
p1062
sg8
(lp1063
sg10
S'Likely'
p1064
sg12
S'Isolated'
p1065
sg14
g76
sg16
I0
sg17
S'Low'
p1066
sg19
S'Liten tilleggsbelastning'
p1067
sg21
Nsg22
S'400'
p1068
sg24
S'500'
p1069
sg26
S'Isolerte faresoner'
p1070
sg28
Nsg39
g1018
sg41
S'4 - Store'
p1071
sba(irunmatrix
M3Element
p1072
(dp1073
g3
Nsg4
S'Sannsynlig, Meget sannsynlig'
p1074
sg6
S'gray'
p1075
sg8
(lp1076
sg10
S'Likely'
p1077
sg12
S'Isolated'
p1078
sg14
g76
sg16
I0
sg17
S'Nat'
p1079
sg19
S'Naturlig utloest'
p1080
sg21
Nsg22
S'400'
p1081
sg24
S'600'
p1082
sg26
S'Isolerte faresoner'
p1083
sg28
Nsg39
g1018
sg41
S'4 - Store'
p1084
sba(irunmatrix
M3Element
p1085
(dp1086
g3
Nsg4
S'Lite sannsynlig, Mulig'
p1087
sg6
S'white'
p1088
sg8
(lp1089
sg10
S'Possible'
p1090
sg12
S'Some'
p1091
sg14
g512
sg16
I3
sg17
S'High'
p1092
sg19
S'Stor tilleggsbelastning'
p1093
sg21
Nsg22
S'400'
p1094
sg24
S'700'
p1095
sg26
S'Noen bratte heng'
p1096
sg28
Nsg39
g1018
sg41
S'4 - Store'
p1097
sba(irunmatrix
M3Element
p1098
(dp1099
g3
Nsg4
S'Lite sannsynlig, Mulig'
p1100
sg6
S'white'
p1101
sg8
(lp1102
sg10
S'Possible'
p1103
sg12
S'Some'
p1104
sg14
g585
sg16
I4
sg17
S'Low'
p1105
sg19
S'Liten tilleggsbelastning'
p1106
sg21
Nsg22
S'400'
p1107
sg24
S'800'
p1108
sg26
S'Noen bratte heng'
p1109
sg28
Nsg39
g1018
sg41
S'4 - Store'
p1110
sba(irunmatrix
M3Element
p1111
(dp1112
g3
Nsg4
S'Lite sannsynlig, Mulig'
p1113
sg6
S'white'
p1114
sg8
(lp1115
sg10
S'Possible'
p1116
sg12
S'Some'
p1117
sg14
g585
sg16
I4
sg17
S'Nat'
p1118
sg19
S'Naturlig utloest'
p1119
sg21
Nsg22
S'400'
p1120
sg24
S'900'
p1121
sg26
S'Noen bratte heng'
p1122
sg28
Nsg39
g1018
sg41
S'4 - Store'
p1123
sba(irunmatrix
M3Element
p1124
(dp1125
g3
Nsg4
S'Sannsynlig, Meget sannsynlig'
p1126
sg6
S'gray'
p1127
sg8
(lp1128
sg10
S'Likely'
p1129
sg12
S'Some'
p1130
sg14
g76
sg16
I0
sg17
S'High'
p1131
sg19
S'Stor tilleggsbelastning'
p1132
sg21
Nsg22
S'400'
p1133
sg24
S'1000'
p1134
sg26
S'Noen bratte heng'
p1135
sg28
Nsg39
g1018
sg41
S'4 - Store'
p1136
sba(irunmatrix
M3Element
p1137
(dp1138
g3
Nsg4
S'Sannsynlig, Meget sannsynlig'
p1139
sg6
S'gray'
p1140
sg8
(lp1141
sg10
S'Likely'
p1142
sg12
S'Some'
p1143
sg14
g76
sg16
I0
sg17
S'Low'
p1144
sg19
S'Liten tilleggsbelastning'
p1145
sg21
Nsg22
S'400'
p1146
sg24
S'1100'
p1147
sg26
S'Noen bratte heng'
p1148
sg28
Nsg39
g1018
sg41
S'4 - Store'
p1149
sba(irunmatrix
M3Element
p1150
(dp1151
g3
Nsg4
S'Sannsynlig, Meget sannsynlig'
p1152
sg6
S'white'
p1153
sg8
(lp1154
sg10
S'Likely'
p1155
sg12
S'Some'
p1156
sg14
g585
sg16
I4
sg17
S'Nat'
p1157
sg19
S'Naturlig utloest'
p1158
sg21
Nsg22
S'400'
p1159
sg24
S'1200'
p1160
sg26
S'Noen bratte heng'
p1161
sg28
Nsg39
g1018
sg41
S'4 - Store'
p1162
sba(irunmatrix
M3Element
p1163
(dp1164
g3
Nsg4
S'Lite sannsynlig, Mulig'
p1165
sg6
S'gray'
p1166
sg8
(lp1167
sg10
S'Possible'
p1168
sg12
S'Many'
p1169
sg14
g76
sg16
I0
sg17
S'High'
p1170
sg19
S'Stor tilleggsbelastning'
p1171
sg21
Nsg22
S'400'
p1172
sg24
S'1300'
p1173
sg26
S'Mange bratte heng'
p1174
sg28
Nsg39
g1018
sg41
S'4 - Store'
p1175
sba(irunmatrix
M3Element
p1176
(dp1177
g3
Nsg4
S'Lite sannsynlig, Mulig'
p1178
sg6
S'white'
p1179
sg8
(lp1180
sg10
S'Possible'
p1181
sg12
S'Many'
p1182
sg14
g76
sg16
I0
sg17
S'Low'
p1183
sg19
S'Liten tilleggsbelastning'
p1184
sg21
Nsg22
S'400'
p1185
sg24
S'1400'
p1186
sg26
S'Mange bratte heng'
p1187
sg28
Nsg39
g1018
sg41
S'4 - Store'
p1188
sba(irunmatrix
M3Element
p1189
(dp1190
g3
Nsg4
S'Lite sannsynlig, Mulig'
p1191
sg6
S'gray'
p1192
sg8
(lp1193
sg10
S'Possible'
p1194
sg12
S'Many'
p1195
sg14
g76
sg16
I0
sg17
S'Nat'
p1196
sg19
S'Naturlig utloest'
p1197
sg21
Nsg22
S'400'
p1198
sg24
S'1500'
p1199
sg26
S'Mange bratte heng'
p1200
sg28
Nsg39
g1018
sg41
S'4 - Store'
p1201
sba(irunmatrix
M3Element
p1202
(dp1203
g3
Nsg4
S'Sannsynlig, Meget sannsynlig'
p1204
sg6
S'gray'
p1205
sg8
(lp1206
sg10
S'Likely'
p1207
sg12
S'Many'
p1208
sg14
g76
sg16
I0
sg17
S'High'
p1209
sg19
S'Stor tilleggsbelastning'
p1210
sg21
Nsg22
S'400'
p1211
sg24
S'1600'
p1212
sg26
S'Mange bratte heng'
p1213
sg28
Nsg39
g1018
sg41
S'4 - Store'
p1214
sba(irunmatrix
M3Element
p1215
(dp1216
g3
Nsg4
S'Sannsynlig, Meget sannsynlig'
p1217
sg6
S'white'
p1218
sg8
(lp1219
sg10
S'Likely'
p1220
sg12
S'Many'
p1221
sg14
g76
sg16
I0
sg17
S'Low'
p1222
sg19
S'Liten tilleggsbelastning'
p1223
sg21
Nsg22
S'400'
p1224
sg24
S'1700'
p1225
sg26
S'Mange bratte heng'
p1226
sg28
Nsg39
g1018
sg41
S'4 - Store'
p1227
sba(irunmatrix
M3Element
p1228
(dp1229
g3
Nsg4
S'Sannsynlig, Meget sannsynlig'
p1230
sg6
S'white'
p1231
sg8
(lp1232
sg10
S'Likely'
p1233
sg12
S'Many'
p1234
sg14
S'k'
p1235
sg16
I5
sg17
S'Nat'
p1236
sg19
S'Naturlig utloest'
p1237
sg21
Nsg22
S'400'
p1238
sg24
S'1800'
p1239
sg26
S'Mange bratte heng'
p1240
sg28
Nsg39
g1018
sg41
S'4 - Store'
p1241
sba(irunmatrix
M3Element
p1242
(dp1243
g3
Nsg4
S'Lite sannsynlig, Mulig'
p1244
sg6
S'gray'
p1245
sg8
(lp1246
sg10
S'Possible'
p1247
sg12
S'Most'
p1248
sg14
g76
sg16
I0
sg17
S'High'
p1249
sg19
S'Stor tilleggsbelastning'
p1250
sg21
Nsg22
S'400'
p1251
sg24
S'1900'
p1252
sg26
S'De fleste bratte heng, Ogsaa i mindre bratt terreng'
p1253
sg28
Nsg39
g1018
sg41
S'4 - Store'
p1254
sba(irunmatrix
M3Element
p1255
(dp1256
g3
Nsg4
S'Lite sannsynlig, Mulig'
p1257
sg6
S'gray'
p1258
sg8
(lp1259
sg10
S'Possible'
p1260
sg12
S'Most'
p1261
sg14
g76
sg16
I0
sg17
S'Low'
p1262
sg19
S'Liten tilleggsbelastning'
p1263
sg21
Nsg22
S'400'
p1264
sg24
S'2000'
p1265
sg26
S'De fleste bratte heng, Ogsaa i mindre bratt terreng'
p1266
sg28
Nsg39
g1018
sg41
S'4 - Store'
p1267
sba(irunmatrix
M3Element
p1268
(dp1269
g3
Nsg4
S'Lite sannsynlig, Mulig'
p1270
sg6
S'gray'
p1271
sg8
(lp1272
sg10
S'Possible'
p1273
sg12
S'Most'
p1274
sg14
g76
sg16
I0
sg17
S'Nat'
p1275
sg19
S'Naturlig utloest'
p1276
sg21
Nsg22
S'400'
p1277
sg24
S'2100'
p1278
sg26
S'De fleste bratte heng, Ogsaa i mindre bratt terreng'
p1279
sg28
Nsg39
g1018
sg41
S'4 - Store'
p1280
sba(irunmatrix
M3Element
p1281
(dp1282
g3
Nsg4
S'Sannsynlig, Meget sannsynlig'
p1283
sg6
S'gray'
p1284
sg8
(lp1285
sg10
S'Likely'
p1286
sg12
S'Most'
p1287
sg14
g76
sg16
I0
sg17
S'High'
p1288
sg19
S'Stor tilleggsbelastning'
p1289
sg21
Nsg22
S'400'
p1290
sg24
S'2200'
p1291
sg26
S'De fleste bratte heng, Ogsaa i mindre bratt terreng'
p1292
sg28
Nsg39
g1018
sg41
S'4 - Store'
p1293
sba(irunmatrix
M3Element
p1294
(dp1295
g3
Nsg4
S'Sannsynlig, Meget sannsynlig'
p1296
sg6
S'gray'
p1297
sg8
(lp1298
sg10
S'Likely'
p1299
sg12
S'Most'
p1300
sg14
g76
sg16
I0
sg17
S'Low'
p1301
sg19
S'Liten tilleggsbelastning'
p1302
sg21
Nsg22
S'400'
p1303
sg24
S'2300'
p1304
sg26
S'De fleste bratte heng, Ogsaa i mindre bratt terreng'
p1305
sg28
Nsg39
g1018
sg41
S'4 - Store'
p1306
sba(irunmatrix
M3Element
p1307
(dp1308
g3
Nsg4
S'Sannsynlig, Meget sannsynlig'
p1309
sg6
S'white'
p1310
sg8
(lp1311
sg10
S'Likely'
p1312
sg12
S'Most'
p1313
sg14
g76
sg16
I0
sg17
S'Nat'
p1314
sg19
S'Naturlig utloest'
p1315
sg21
Nsg22
S'400'
p1316
sg24
S'2400'
p1317
sg26
S'De fleste bratte heng, Ogsaa i mindre bratt terreng'
p1318
sg28
Nsg39
g1018
sg41
S'4 - Store'
p1319
sba(irunmatrix
M3Element
p1320
(dp1321
g3
Nsg4
S'Lite sannsynlig, Mulig'
p1322
sg6
S'white'
p1323
sg8
(lp1324
sg10
S'Possible'
p1325
sg12
S'Isolated'
p1326
sg14
g76
sg16
I0
sg17
S'High'
p1327
sg19
S'Stor tilleggsbelastning'
p1328
sg21
Nsg22
S'500'
p1329
sg24
S'100'
p1330
sg26
S'Isolerte faresoner'
p1331
sg28
Nsg39
S'5'
p1332
sg41
S'5 - Svaert store'
p1333
sba(irunmatrix
M3Element
p1334
(dp1335
g3
Nsg4
S'Lite sannsynlig, Mulig'
p1336
sg6
S'white'
p1337
sg8
(lp1338
sg10
S'Possible'
p1339
sg12
S'Isolated'
p1340
sg14
g76
sg16
I0
sg17
S'Low'
p1341
sg19
S'Liten tilleggsbelastning'
p1342
sg21
Nsg22
S'500'
p1343
sg24
S'200'
p1344
sg26
S'Isolerte faresoner'
p1345
sg28
Nsg39
g1332
sg41
S'5 - Svaert store'
p1346
sba(irunmatrix
M3Element
p1347
(dp1348
g3
Nsg4
S'Lite sannsynlig, Mulig'
p1349
sg6
S'white'
p1350
sg8
(lp1351
sg10
S'Possible'
p1352
sg12
S'Isolated'
p1353
sg14
g76
sg16
I0
sg17
S'Nat'
p1354
sg19
S'Naturlig utloest'
p1355
sg21
Nsg22
S'500'
p1356
sg24
S'300'
p1357
sg26
S'Isolerte faresoner'
p1358
sg28
Nsg39
g1332
sg41
S'5 - Svaert store'
p1359
sba(irunmatrix
M3Element
p1360
(dp1361
g3
Nsg4
S'Sannsynlig, Meget sannsynlig'
p1362
sg6
S'gray'
p1363
sg8
(lp1364
sg10
S'Likely'
p1365
sg12
S'Isolated'
p1366
sg14
g76
sg16
I0
sg17
S'High'
p1367
sg19
S'Stor tilleggsbelastning'
p1368
sg21
Nsg22
S'500'
p1369
sg24
S'400'
p1370
sg26
S'Isolerte faresoner'
p1371
sg28
Nsg39
g1332
sg41
S'5 - Svaert store'
p1372
sba(irunmatrix
M3Element
p1373
(dp1374
g3
Nsg4
S'Sannsynlig, Meget sannsynlig'
p1375
sg6
S'gray'
p1376
sg8
(lp1377
sg10
S'Likely'
p1378
sg12
S'Isolated'
p1379
sg14
g76
sg16
I0
sg17
S'Low'
p1380
sg19
S'Liten tilleggsbelastning'
p1381
sg21
Nsg22
S'500'
p1382
sg24
S'500'
p1383
sg26
S'Isolerte faresoner'
p1384
sg28
Nsg39
g1332
sg41
S'5 - Svaert store'
p1385
sba(irunmatrix
M3Element
p1386
(dp1387
g3
Nsg4
S'Sannsynlig, Meget sannsynlig'
p1388
sg6
S'gray'
p1389
sg8
(lp1390
sg10
S'Likely'
p1391
sg12
S'Isolated'
p1392
sg14
g76
sg16
I0
sg17
S'Nat'
p1393
sg19
S'Naturlig utloest'
p1394
sg21
Nsg22
S'500'
p1395
sg24
S'600'
p1396
sg26
S'Isolerte faresoner'
p1397
sg28
Nsg39
g1332
sg41
S'5 - Svaert store'
p1398
sba(irunmatrix
M3Element
p1399
(dp1400
g3
Nsg4
S'Lite sannsynlig, Mulig'
p1401
sg6
S'white'
p1402
sg8
(lp1403
sg10
S'Possible'
p1404
sg12
S'Some'
p1405
sg14
g76
sg16
I0
sg17
S'High'
p1406
sg19
S'Stor tilleggsbelastning'
p1407
sg21
Nsg22
S'500'
p1408
sg24
S'700'
p1409
sg26
S'Noen bratte heng'
p1410
sg28
Nsg39
g1332
sg41
S'5 - Svaert store'
p1411
sba(irunmatrix
M3Element
p1412
(dp1413
g3
Nsg4
S'Lite sannsynlig, Mulig'
p1414
sg6
S'white'
p1415
sg8
(lp1416
sg10
S'Possible'
p1417
sg12
S'Some'
p1418
sg14
g76
sg16
I0
sg17
S'Low'
p1419
sg19
S'Liten tilleggsbelastning'
p1420
sg21
Nsg22
S'500'
p1421
sg24
S'800'
p1422
sg26
S'Noen bratte heng'
p1423
sg28
Nsg39
g1332
sg41
S'5 - Svaert store'
p1424
sba(irunmatrix
M3Element
p1425
(dp1426
g3
Nsg4
S'Lite sannsynlig, Mulig'
p1427
sg6
S'white'
p1428
sg8
(lp1429
sg10
S'Possible'
p1430
sg12
S'Some'
p1431
sg14
g76
sg16
I0
sg17
S'Nat'
p1432
sg19
S'Naturlig utloest'
p1433
sg21
Nsg22
S'500'
p1434
sg24
S'900'
p1435
sg26
S'Noen bratte heng'
p1436
sg28
Nsg39
g1332
sg41
S'5 - Svaert store'
p1437
sba(irunmatrix
M3Element
p1438
(dp1439
g3
Nsg4
S'Sannsynlig, Meget sannsynlig'
p1440
sg6
S'gray'
p1441
sg8
(lp1442
sg10
S'Likely'
p1443
sg12
S'Some'
p1444
sg14
g76
sg16
I0
sg17
S'High'
p1445
sg19
S'Stor tilleggsbelastning'
p1446
sg21
Nsg22
S'500'
p1447
sg24
S'1000'
p1448
sg26
S'Noen bratte heng'
p1449
sg28
Nsg39
g1332
sg41
S'5 - Svaert store'
p1450
sba(irunmatrix
M3Element
p1451
(dp1452
g3
Nsg4
S'Sannsynlig, Meget sannsynlig'
p1453
sg6
S'gray'
p1454
sg8
(lp1455
sg10
S'Likely'
p1456
sg12
S'Some'
p1457
sg14
g76
sg16
I0
sg17
S'Low'
p1458
sg19
S'Liten tilleggsbelastning'
p1459
sg21
Nsg22
S'500'
p1460
sg24
S'1100'
p1461
sg26
S'Noen bratte heng'
p1462
sg28
Nsg39
g1332
sg41
S'5 - Svaert store'
p1463
sba(irunmatrix
M3Element
p1464
(dp1465
g3
Nsg4
S'Sannsynlig, Meget sannsynlig'
p1466
sg6
S'white'
p1467
sg8
(lp1468
sg10
S'Likely'
p1469
sg12
S'Some'
p1470
sg14
g76
sg16
I0
sg17
S'Nat'
p1471
sg19
S'Naturlig utloest'
p1472
sg21
Nsg22
S'500'
p1473
sg24
S'1200'
p1474
sg26
S'Noen bratte heng'
p1475
sg28
Nsg39
g1332
sg41
S'5 - Svaert store'
p1476
sba(irunmatrix
M3Element
p1477
(dp1478
g3
Nsg4
S'Lite sannsynlig, Mulig'
p1479
sg6
S'gray'
p1480
sg8
(lp1481
sg10
S'Possible'
p1482
sg12
S'Many'
p1483
sg14
g76
sg16
I0
sg17
S'High'
p1484
sg19
S'Stor tilleggsbelastning'
p1485
sg21
Nsg22
S'500'
p1486
sg24
S'1300'
p1487
sg26
S'Mange bratte heng'
p1488
sg28
Nsg39
g1332
sg41
S'5 - Svaert store'
p1489
sba(irunmatrix
M3Element
p1490
(dp1491
g3
Nsg4
S'Lite sannsynlig, Mulig'
p1492
sg6
S'white'
p1493
sg8
(lp1494
sg10
S'Possible'
p1495
sg12
S'Many'
p1496
sg14
g76
sg16
I0
sg17
S'Low'
p1497
sg19
S'Liten tilleggsbelastning'
p1498
sg21
Nsg22
S'500'
p1499
sg24
S'1400'
p1500
sg26
S'Mange bratte heng'
p1501
sg28
Nsg39
g1332
sg41
S'5 - Svaert store'
p1502
sba(irunmatrix
M3Element
p1503
(dp1504
g3
Nsg4
S'Lite sannsynlig, Mulig'
p1505
sg6
S'gray'
p1506
sg8
(lp1507
sg10
S'Possible'
p1508
sg12
S'Many'
p1509
sg14
g76
sg16
I0
sg17
S'Nat'
p1510
sg19
S'Naturlig utloest'
p1511
sg21
Nsg22
S'500'
p1512
sg24
S'1500'
p1513
sg26
S'Mange bratte heng'
p1514
sg28
Nsg39
g1332
sg41
S'5 - Svaert store'
p1515
sba(irunmatrix
M3Element
p1516
(dp1517
g3
Nsg4
S'Sannsynlig, Meget sannsynlig'
p1518
sg6
S'gray'
p1519
sg8
(lp1520
sg10
S'Likely'
p1521
sg12
S'Many'
p1522
sg14
g76
sg16
I0
sg17
S'High'
p1523
sg19
S'Stor tilleggsbelastning'
p1524
sg21
Nsg22
S'500'
p1525
sg24
S'1600'
p1526
sg26
S'Mange bratte heng'
p1527
sg28
Nsg39
g1332
sg41
S'5 - Svaert store'
p1528
sba(irunmatrix
M3Element
p1529
(dp1530
g3
Nsg4
S'Sannsynlig, Meget sannsynlig'
p1531
sg6
S'white'
p1532
sg8
(lp1533
sg10
S'Likely'
p1534
sg12
S'Many'
p1535
sg14
g76
sg16
I0
sg17
S'Low'
p1536
sg19
S'Liten tilleggsbelastning'
p1537
sg21
Nsg22
S'500'
p1538
sg24
S'1700'
p1539
sg26
S'Mange bratte heng'
p1540
sg28
Nsg39
g1332
sg41
S'5 - Svaert store'
p1541
sba(irunmatrix
M3Element
p1542
(dp1543
g3
Nsg4
S'Sannsynlig, Meget sannsynlig'
p1544
sg6
S'white'
p1545
sg8
(lp1546
sg10
S'Likely'
p1547
sg12
S'Many'
p1548
sg14
g1235
sg16
I5
sg17
S'Nat'
p1549
sg19
S'Naturlig utloest'
p1550
sg21
Nsg22
S'500'
p1551
sg24
S'1800'
p1552
sg26
S'Mange bratte heng'
p1553
sg28
Nsg39
g1332
sg41
S'5 - Svaert store'
p1554
sba(irunmatrix
M3Element
p1555
(dp1556
g3
Nsg4
S'Lite sannsynlig, Mulig'
p1557
sg6
S'gray'
p1558
sg8
(lp1559
sg10
S'Possible'
p1560
sg12
S'Most'
p1561
sg14
g76
sg16
I0
sg17
S'High'
p1562
sg19
S'Stor tilleggsbelastning'
p1563
sg21
Nsg22
S'500'
p1564
sg24
S'1900'
p1565
sg26
S'De fleste bratte heng, Ogsaa i mindre bratt terreng'
p1566
sg28
Nsg39
g1332
sg41
S'5 - Svaert store'
p1567
sba(irunmatrix
M3Element
p1568
(dp1569
g3
Nsg4
S'Lite sannsynlig, Mulig'
p1570
sg6
S'gray'
p1571
sg8
(lp1572
sg10
S'Possible'
p1573
sg12
S'Most'
p1574
sg14
g76
sg16
I0
sg17
S'Low'
p1575
sg19
S'Liten tilleggsbelastning'
p1576
sg21
Nsg22
S'500'
p1577
sg24
S'2000'
p1578
sg26
S'De fleste bratte heng, Ogsaa i mindre bratt terreng'
p1579
sg28
Nsg39
g1332
sg41
S'5 - Svaert store'
p1580
sba(irunmatrix
M3Element
p1581
(dp1582
g3
Nsg4
S'Lite sannsynlig, Mulig'
p1583
sg6
S'gray'
p1584
sg8
(lp1585
sg10
S'Possible'
p1586
sg12
S'Most'
p1587
sg14
g76
sg16
I0
sg17
S'Nat'
p1588
sg19
S'Naturlig utloest'
p1589
sg21
Nsg22
S'500'
p1590
sg24
S'2100'
p1591
sg26
S'De fleste bratte heng, Ogsaa i mindre bratt terreng'
p1592
sg28
Nsg39
g1332
sg41
S'5 - Svaert store'
p1593
sba(irunmatrix
M3Element
p1594
(dp1595
g3
Nsg4
S'Sannsynlig, Meget sannsynlig'
p1596
sg6
S'gray'
p1597
sg8
(lp1598
sg10
S'Likely'
p1599
sg12
S'Most'
p1600
sg14
g76
sg16
I0
sg17
S'High'
p1601
sg19
S'Stor tilleggsbelastning'
p1602
sg21
Nsg22
S'500'
p1603
sg24
S'2200'
p1604
sg26
S'De fleste bratte heng, Ogsaa i mindre bratt terreng'
p1605
sg28
Nsg39
g1332
sg41
S'5 - Svaert store'
p1606
sba(irunmatrix
M3Element
p1607
(dp1608
g3
Nsg4
S'Sannsynlig, Meget sannsynlig'
p1609
sg6
S'gray'
p1610
sg8
(lp1611
sg10
S'Likely'
p1612
sg12
S'Most'
p1613
sg14
g76
sg16
I0
sg17
S'Low'
p1614
sg19
S'Liten tilleggsbelastning'
p1615
sg21
Nsg22
S'500'
p1616
sg24
S'2300'
p1617
sg26
S'De fleste bratte heng, Ogsaa i mindre bratt terreng'
p1618
sg28
Nsg39
g1332
sg41
S'5 - Svaert store'
p1619
sba(irunmatrix
M3Element
p1620
(dp1621
g3
Nsg4
S'Sannsynlig, Meget sannsynlig'
p1622
sg6
S'white'
p1623
sg8
(lp1624
sg10
S'Likely'
p1625
sg12
S'Most'
p1626
sg14
g76
sg16
I0
sg17
S'Nat'
p1627
sg19
S'Naturlig utloest'
p1628
sg21
Nsg22
S'500'
p1629
sg24
S'2400'
p1630
sg26
S'De fleste bratte heng, Ogsaa i mindre bratt terreng'
p1631
sg28
Nsg39
g1332
sg41
S'5 - Svaert store'
p1632
sba.