(dp0
S'trigger'
p1
(dp2
S'keys'
p3
(lp4
S'Stor tilleggsbelastning'
p5
aS'Liten tilleggsbelastning'
p6
aS'Naturlig utloest'
p7
asS'colors'
p8
(lp9
S'0.7'
p10
asS'values'
p11
(lp12
S'Liten tilleggsbelastning'
p13
aS'Liten tilleggsbelastning'
p14
aS'Liten tilleggsbelastning'
p15
aS'Liten tilleggsbelastning'
p16
aS'Liten tilleggsbelastning'
p17
aS'Liten tilleggsbelastning'
p18
aS'Liten tilleggsbelastning'
p19
aS'Liten tilleggsbelastning'
p20
aS'Stor tilleggsbelastning'
p21
aS'Stor tilleggsbelastning'
p22
aS'Stor tilleggsbelastning'
p23
aS'Liten tilleggsbelastning'
p24
aS'Liten tilleggsbelastning'
p25
aS'Liten tilleggsbelastning'
p26
aS'Liten tilleggsbelastning'
p27
aS'Liten tilleggsbelastning'
p28
aS'Liten tilleggsbelastning'
p29
aS'Liten tilleggsbelastning'
p30
aS'Liten tilleggsbelastning'
p31
aS'Stor tilleggsbelastning'
p32
aS'Liten tilleggsbelastning'
p33
aS'Liten tilleggsbelastning'
p34
aS'Liten tilleggsbelastning'
p35
aS'Stor tilleggsbelastning'
p36
aS'Stor tilleggsbelastning'
p37
aS'Stor tilleggsbelastning'
p38
aS'Liten tilleggsbelastning'
p39
aS'Naturlig utloest'
p40
aS'Naturlig utloest'
p41
aS'Naturlig utloest'
p42
aS'Liten tilleggsbelastning'
p43
aS'Liten tilleggsbelastning'
p44
aS'Liten tilleggsbelastning'
p45
aS'Liten tilleggsbelastning'
p46
aS'Liten tilleggsbelastning'
p47
aS'Liten tilleggsbelastning'
p48
aS'Liten tilleggsbelastning'
p49
aS'Liten tilleggsbelastning'
p50
aS'Liten tilleggsbelastning'
p51
aS'Liten tilleggsbelastning'
p52
aS'Liten tilleggsbelastning'
p53
aS'Liten tilleggsbelastning'
p54
aS'Liten tilleggsbelastning'
p55
aS'Liten tilleggsbelastning'
p56
aS'Liten tilleggsbelastning'
p57
aS'Stor tilleggsbelastning'
p58
aS'Liten tilleggsbelastning'
p59
aS'Liten tilleggsbelastning'
p60
aS'Liten tilleggsbelastning'
p61
aS'Liten tilleggsbelastning'
p62
aS'Liten tilleggsbelastning'
p63
aS'Liten tilleggsbelastning'
p64
aS'Liten tilleggsbelastning'
p65
aS'Liten tilleggsbelastning'
p66
aS'Liten tilleggsbelastning'
p67
aS'Liten tilleggsbelastning'
p68
aS'Liten tilleggsbelastning'
p69
aS'Liten tilleggsbelastning'
p70
aS'Liten tilleggsbelastning'
p71
aS'Liten tilleggsbelastning'
p72
aS'Liten tilleggsbelastning'
p73
aS'Liten tilleggsbelastning'
p74
aS'Liten tilleggsbelastning'
p75
aS'Liten tilleggsbelastning'
p76
aS'Stor tilleggsbelastning'
p77
aS'Stor tilleggsbelastning'
p78
aS'Liten tilleggsbelastning'
p79
aS'Liten tilleggsbelastning'
p80
aS'Liten tilleggsbelastning'
p81
aS'Naturlig utloest'
p82
aS'Stor tilleggsbelastning'
p83
aS'Liten tilleggsbelastning'
p84
aS'Liten tilleggsbelastning'
p85
aS'Liten tilleggsbelastning'
p86
aS'Liten tilleggsbelastning'
p87
aS'Naturlig utloest'
p88
aS'Stor tilleggsbelastning'
p89
aS'Naturlig utloest'
p90
aS'Liten tilleggsbelastning'
p91
aS'Liten tilleggsbelastning'
p92
aS'Liten tilleggsbelastning'
p93
aS'Stor tilleggsbelastning'
p94
aS'Stor tilleggsbelastning'
p95
aS'Liten tilleggsbelastning'
p96
aS'Liten tilleggsbelastning'
p97
aS'Liten tilleggsbelastning'
p98
aS'Stor tilleggsbelastning'
p99
aS'Stor tilleggsbelastning'
p100
aS'Liten tilleggsbelastning'
p101
aS'Liten tilleggsbelastning'
p102
aS'Liten tilleggsbelastning'
p103
aS'Liten tilleggsbelastning'
p104
aS'Liten tilleggsbelastning'
p105
aS'Liten tilleggsbelastning'
p106
aS'Liten tilleggsbelastning'
p107
aS'Liten tilleggsbelastning'
p108
aS'Liten tilleggsbelastning'
p109
aS'Liten tilleggsbelastning'
p110
aS'Liten tilleggsbelastning'
p111
aS'Liten tilleggsbelastning'
p112
aS'Liten tilleggsbelastning'
p113
aS'Liten tilleggsbelastning'
p114
aS'Naturlig utloest'
p115
aS'Liten tilleggsbelastning'
p116
aS'Naturlig utloest'
p117
aS'Stor tilleggsbelastning'
p118
aS'Naturlig utloest'
p119
aS'Naturlig utloest'
p120
aS'Naturlig utloest'
p121
aS'Naturlig utloest'
p122
aS'Naturlig utloest'
p123
aS'Naturlig utloest'
p124
aS'Naturlig utloest'
p125
aS'Naturlig utloest'
p126
aS'Naturlig utloest'
p127
aS'Naturlig utloest'
p128
aS'Naturlig utloest'
p129
aS'Naturlig utloest'
p130
aS'Naturlig utloest'
p131
aS'Naturlig utloest'
p132
aS'Naturlig utloest'
p133
aS'Naturlig utloest'
p134
aS'Naturlig utloest'
p135
aS'Naturlig utloest'
p136
aS'Naturlig utloest'
p137
aS'Naturlig utloest'
p138
aS'Naturlig utloest'
p139
aS'Naturlig utloest'
p140
aS'Liten tilleggsbelastning'
p141
aS'Naturlig utloest'
p142
aS'Naturlig utloest'
p143
aS'Naturlig utloest'
p144
aS'Naturlig utloest'
p145
aS'Naturlig utloest'
p146
aS'Naturlig utloest'
p147
aS'Liten tilleggsbelastning'
p148
aS'Liten tilleggsbelastning'
p149
aS'Naturlig utloest'
p150
aS'Naturlig utloest'
p151
aS'Naturlig utloest'
p152
aS'Naturlig utloest'
p153
aS'Naturlig utloest'
p154
aS'Naturlig utloest'
p155
aS'Naturlig utloest'
p156
assS'distribution'
p157
(dp158
g3
(lp159
S'Isolerte faresoner'
p160
aS'Noen bratte heng'
p161
aS'Mange bratte heng'
p162
aS'De fleste bratte heng'
p163
aS'Ogsaa i mindre bratt terreng'
p164
asg8
(lp165
g10
asg11
(lp166
S'Mange bratte heng'
p167
aS'Mange bratte heng'
p168
aS'Noen bratte heng'
p169
aS'Noen bratte heng'
p170
aS'Noen bratte heng'
p171
aS'Noen bratte heng'
p172
aS'Noen bratte heng'
p173
aS'Noen bratte heng'
p174
aS'Noen bratte heng'
p175
aS'Noen bratte heng'
p176
aS'Isolerte faresoner'
p177
aS'Isolerte faresoner'
p178
aS'Isolerte faresoner'
p179
aS'Isolerte faresoner'
p180
aS'Noen bratte heng'
p181
aS'Noen bratte heng'
p182
aS'Noen bratte heng'
p183
aS'Noen bratte heng'
p184
aS'Mange bratte heng'
p185
aS'Isolerte faresoner'
p186
aS'Mange bratte heng'
p187
aS'Noen bratte heng'
p188
aS'Noen bratte heng'
p189
aS'Noen bratte heng'
p190
aS'Isolerte faresoner'
p191
aS'Noen bratte heng'
p192
aS'Mange bratte heng'
p193
aS'Isolerte faresoner'
p194
aS'Isolerte faresoner'
p195
aS'Isolerte faresoner'
p196
aS'Noen bratte heng'
p197
aS'Noen bratte heng'
p198
aS'Noen bratte heng'
p199
aS'Noen bratte heng'
p200
aS'Noen bratte heng'
p201
aS'Noen bratte heng'
p202
aS'Noen bratte heng'
p203
aS'Mange bratte heng'
p204
aS'Noen bratte heng'
p205
aS'Mange bratte heng'
p206
aS'Noen bratte heng'
p207
aS'Mange bratte heng'
p208
aS'Noen bratte heng'
p209
aS'Mange bratte heng'
p210
aS'Noen bratte heng'
p211
aS'Noen bratte heng'
p212
aS'Mange bratte heng'
p213
aS'Noen bratte heng'
p214
aS'Mange bratte heng'
p215
aS'Noen bratte heng'
p216
aS'Mange bratte heng'
p217
aS'Noen bratte heng'
p218
aS'Noen bratte heng'
p219
aS'Mange bratte heng'
p220
aS'Noen bratte heng'
p221
aS'Mange bratte heng'
p222
aS'Noen bratte heng'
p223
aS'Mange bratte heng'
p224
aS'Noen bratte heng'
p225
aS'Noen bratte heng'
p226
aS'Noen bratte heng'
p227
aS'Mange bratte heng'
p228
aS'Mange bratte heng'
p229
aS'Noen bratte heng'
p230
aS'Noen bratte heng'
p231
aS'Noen bratte heng'
p232
aS'Mange bratte heng'
p233
aS'Mange bratte heng'
p234
aS'Noen bratte heng'
p235
aS'Isolerte faresoner'
p236
aS'Noen bratte heng'
p237
aS'Noen bratte heng'
p238
aS'Noen bratte heng'
p239
aS'Noen bratte heng'
p240
aS'Noen bratte heng'
p241
aS'Isolerte faresoner'
p242
aS'Noen bratte heng'
p243
aS'Noen bratte heng'
p244
aS'Noen bratte heng'
p245
aS'Noen bratte heng'
p246
aS'Noen bratte heng'
p247
aS'Noen bratte heng'
p248
aS'Noen bratte heng'
p249
aS'Noen bratte heng'
p250
aS'Noen bratte heng'
p251
aS'Noen bratte heng'
p252
aS'Isolerte faresoner'
p253
aS'Noen bratte heng'
p254
aS'Noen bratte heng'
p255
aS'Noen bratte heng'
p256
aS'Isolerte faresoner'
p257
aS'Noen bratte heng'
p258
aS'Noen bratte heng'
p259
aS'Noen bratte heng'
p260
aS'Noen bratte heng'
p261
aS'Noen bratte heng'
p262
aS'Noen bratte heng'
p263
aS'Isolerte faresoner'
p264
aS'Isolerte faresoner'
p265
aS'Isolerte faresoner'
p266
aS'Isolerte faresoner'
p267
aS'Isolerte faresoner'
p268
aS'Noen bratte heng'
p269
aS'Noen bratte heng'
p270
aS'Noen bratte heng'
p271
aS'Noen bratte heng'
p272
aS'Noen bratte heng'
p273
aS'Noen bratte heng'
p274
aS'Mange bratte heng'
p275
aS'Mange bratte heng'
p276
aS'Mange bratte heng'
p277
aS'Mange bratte heng'
p278
aS'Mange bratte heng'
p279
aS'Mange bratte heng'
p280
aS'Mange bratte heng'
p281
aS'Noen bratte heng'
p282
aS'Noen bratte heng'
p283
aS'Noen bratte heng'
p284
aS'Noen bratte heng'
p285
aS'Noen bratte heng'
p286
aS'Noen bratte heng'
p287
aS'Noen bratte heng'
p288
aS'Noen bratte heng'
p289
aS'Noen bratte heng'
p290
aS'Noen bratte heng'
p291
aS'Noen bratte heng'
p292
aS'Noen bratte heng'
p293
aS'Noen bratte heng'
p294
aS'Noen bratte heng'
p295
aS'Noen bratte heng'
p296
aS'Noen bratte heng'
p297
aS'Noen bratte heng'
p298
aS'Noen bratte heng'
p299
aS'Noen bratte heng'
p300
aS'Noen bratte heng'
p301
aS'Noen bratte heng'
p302
aS'Noen bratte heng'
p303
aS'Noen bratte heng'
p304
aS'Noen bratte heng'
p305
aS'Noen bratte heng'
p306
aS'Noen bratte heng'
p307
aS'Noen bratte heng'
p308
aS'Noen bratte heng'
p309
aS'Noen bratte heng'
p310
assS'size'
p311
(dp312
g3
(lp313
S'1 - Harmloest'
p314
aS'2 - Smaa'
p315
aS'3 - Middels'
p316
aS'4 - Store'
p317
aS'5 - Svaert store'
p318
aS'Ukjent'
p319
asg8
(lp320
g10
asg11
(lp321
S'2 - Smaa'
p322
aS'2 - Smaa'
p323
aS'2 - Smaa'
p324
aS'2 - Smaa'
p325
aS'2 - Smaa'
p326
aS'2 - Smaa'
p327
aS'2 - Smaa'
p328
aS'2 - Smaa'
p329
aS'3 - Middels'
p330
aS'3 - Middels'
p331
aS'2 - Smaa'
p332
aS'2 - Smaa'
p333
aS'2 - Smaa'
p334
aS'2 - Smaa'
p335
aS'2 - Smaa'
p336
aS'2 - Smaa'
p337
aS'2 - Smaa'
p338
aS'3 - Middels'
p339
aS'3 - Middels'
p340
aS'1 - Harmloest'
p341
aS'3 - Middels'
p342
aS'3 - Middels'
p343
aS'3 - Middels'
p344
aS'3 - Middels'
p345
aS'1 - Harmloest'
p346
aS'2 - Smaa'
p347
aS'2 - Smaa'
p348
aS'3 - Middels'
p349
aS'3 - Middels'
p350
aS'2 - Smaa'
p351
aS'3 - Middels'
p352
aS'3 - Middels'
p353
aS'3 - Middels'
p354
aS'3 - Middels'
p355
aS'3 - Middels'
p356
aS'3 - Middels'
p357
aS'2 - Smaa'
p358
aS'2 - Smaa'
p359
aS'2 - Smaa'
p360
aS'2 - Smaa'
p361
aS'2 - Smaa'
p362
aS'2 - Smaa'
p363
aS'2 - Smaa'
p364
aS'2 - Smaa'
p365
aS'2 - Smaa'
p366
aS'2 - Smaa'
p367
aS'2 - Smaa'
p368
aS'2 - Smaa'
p369
aS'2 - Smaa'
p370
aS'2 - Smaa'
p371
aS'2 - Smaa'
p372
aS'2 - Smaa'
p373
aS'2 - Smaa'
p374
aS'2 - Smaa'
p375
aS'2 - Smaa'
p376
aS'2 - Smaa'
p377
aS'2 - Smaa'
p378
aS'2 - Smaa'
p379
aS'2 - Smaa'
p380
aS'2 - Smaa'
p381
aS'3 - Middels'
p382
aS'2 - Smaa'
p383
aS'2 - Smaa'
p384
aS'2 - Smaa'
p385
aS'3 - Middels'
p386
aS'3 - Middels'
p387
aS'2 - Smaa'
p388
aS'2 - Smaa'
p389
aS'2 - Smaa'
p390
aS'2 - Smaa'
p391
aS'3 - Middels'
p392
aS'1 - Harmloest'
p393
aS'2 - Smaa'
p394
aS'2 - Smaa'
p395
aS'2 - Smaa'
p396
aS'2 - Smaa'
p397
aS'3 - Middels'
p398
aS'1 - Harmloest'
p399
aS'2 - Smaa'
p400
aS'2 - Smaa'
p401
aS'2 - Smaa'
p402
aS'3 - Middels'
p403
aS'3 - Middels'
p404
aS'2 - Smaa'
p405
aS'2 - Smaa'
p406
aS'2 - Smaa'
p407
aS'3 - Middels'
p408
aS'3 - Middels'
p409
aS'2 - Smaa'
p410
aS'2 - Smaa'
p411
aS'2 - Smaa'
p412
aS'2 - Smaa'
p413
aS'2 - Smaa'
p414
aS'2 - Smaa'
p415
aS'2 - Smaa'
p416
aS'2 - Smaa'
p417
aS'2 - Smaa'
p418
aS'2 - Smaa'
p419
aS'2 - Smaa'
p420
aS'2 - Smaa'
p421
aS'2 - Smaa'
p422
aS'2 - Smaa'
p423
aS'2 - Smaa'
p424
aS'2 - Smaa'
p425
aS'1 - Harmloest'
p426
aS'3 - Middels'
p427
aS'1 - Harmloest'
p428
aS'2 - Smaa'
p429
aS'2 - Smaa'
p430
aS'2 - Smaa'
p431
aS'2 - Smaa'
p432
aS'2 - Smaa'
p433
aS'2 - Smaa'
p434
aS'2 - Smaa'
p435
aS'2 - Smaa'
p436
aS'2 - Smaa'
p437
aS'2 - Smaa'
p438
aS'2 - Smaa'
p439
aS'2 - Smaa'
p440
aS'2 - Smaa'
p441
aS'2 - Smaa'
p442
aS'2 - Smaa'
p443
aS'2 - Smaa'
p444
aS'2 - Smaa'
p445
aS'2 - Smaa'
p446
aS'2 - Smaa'
p447
aS'2 - Smaa'
p448
aS'2 - Smaa'
p449
aS'3 - Middels'
p450
aS'2 - Smaa'
p451
aS'2 - Smaa'
p452
aS'2 - Smaa'
p453
aS'2 - Smaa'
p454
aS'2 - Smaa'
p455
aS'2 - Smaa'
p456
aS'3 - Middels'
p457
aS'2 - Smaa'
p458
aS'2 - Smaa'
p459
aS'2 - Smaa'
p460
aS'2 - Smaa'
p461
aS'2 - Smaa'
p462
aS'2 - Smaa'
p463
aS'2 - Smaa'
p464
aS'2 - Smaa'
p465
assS'probability'
p466
(dp467
g3
(lp468
S'Lite sannsynlig'
p469
aS'Mulig'
p470
aS'Sannsynlig'
p471
aS'Meget sannsynlig'
p472
asg8
(lp473
g10
asg11
(lp474
S'Mulig'
p475
aS'Mulig'
p476
aS'Mulig'
p477
aS'Mulig'
p478
aS'Mulig'
p479
aS'Mulig'
p480
aS'Mulig'
p481
aS'Mulig'
p482
aS'Mulig'
p483
aS'Mulig'
p484
aS'Lite sannsynlig'
p485
aS'Mulig'
p486
aS'Mulig'
p487
aS'Mulig'
p488
aS'Mulig'
p489
aS'Mulig'
p490
aS'Mulig'
p491
aS'Mulig'
p492
aS'Mulig'
p493
aS'Mulig'
p494
aS'Mulig'
p495
aS'Mulig'
p496
aS'Mulig'
p497
aS'Mulig'
p498
aS'Mulig'
p499
aS'Mulig'
p500
aS'Mulig'
p501
aS'Mulig'
p502
aS'Mulig'
p503
aS'Mulig'
p504
aS'Mulig'
p505
aS'Mulig'
p506
aS'Mulig'
p507
aS'Mulig'
p508
aS'Mulig'
p509
aS'Mulig'
p510
aS'Mulig'
p511
aS'Mulig'
p512
aS'Mulig'
p513
aS'Mulig'
p514
aS'Mulig'
p515
aS'Mulig'
p516
aS'Mulig'
p517
aS'Mulig'
p518
aS'Mulig'
p519
aS'Mulig'
p520
aS'Mulig'
p521
aS'Mulig'
p522
aS'Mulig'
p523
aS'Mulig'
p524
aS'Mulig'
p525
aS'Mulig'
p526
aS'Mulig'
p527
aS'Mulig'
p528
aS'Mulig'
p529
aS'Mulig'
p530
aS'Mulig'
p531
aS'Mulig'
p532
aS'Mulig'
p533
aS'Mulig'
p534
aS'Mulig'
p535
aS'Mulig'
p536
aS'Mulig'
p537
aS'Mulig'
p538
aS'Lite sannsynlig'
p539
aS'Mulig'
p540
aS'Mulig'
p541
aS'Mulig'
p542
aS'Mulig'
p543
aS'Mulig'
p544
aS'Mulig'
p545
aS'Mulig'
p546
aS'Mulig'
p547
aS'Mulig'
p548
aS'Mulig'
p549
aS'Mulig'
p550
aS'Mulig'
p551
aS'Mulig'
p552
aS'Mulig'
p553
aS'Mulig'
p554
aS'Mulig'
p555
aS'Lite sannsynlig'
p556
aS'Mulig'
p557
aS'Mulig'
p558
aS'Mulig'
p559
aS'Mulig'
p560
aS'Lite sannsynlig'
p561
aS'Mulig'
p562
aS'Mulig'
p563
aS'Mulig'
p564
aS'Mulig'
p565
aS'Mulig'
p566
aS'Mulig'
p567
aS'Mulig'
p568
aS'Mulig'
p569
aS'Mulig'
p570
aS'Mulig'
p571
aS'Mulig'
p572
aS'Mulig'
p573
aS'Mulig'
p574
aS'Mulig'
p575
aS'Mulig'
p576
aS'Mulig'
p577
aS'Mulig'
p578
aS'Mulig'
p579
aS'Mulig'
p580
aS'Mulig'
p581
aS'Sannsynlig'
p582
aS'Mulig'
p583
aS'Mulig'
p584
aS'Mulig'
p585
aS'Mulig'
p586
aS'Mulig'
p587
aS'Mulig'
p588
aS'Mulig'
p589
aS'Sannsynlig'
p590
aS'Mulig'
p591
aS'Mulig'
p592
aS'Mulig'
p593
aS'Mulig'
p594
aS'Mulig'
p595
aS'Mulig'
p596
aS'Mulig'
p597
aS'Mulig'
p598
aS'Mulig'
p599
aS'Mulig'
p600
aS'Mulig'
p601
aS'Mulig'
p602
aS'Mulig'
p603
aS'Mulig'
p604
aS'Mulig'
p605
aS'Mulig'
p606
aS'Mulig'
p607
aS'Mulig'
p608
aS'Mulig'
p609
aS'Mulig'
p610
aS'Mulig'
p611
aS'Mulig'
p612
aS'Mulig'
p613
aS'Mulig'
p614
aS'Mulig'
p615
aS'Mulig'
p616
aS'Mulig'
p617
aS'Mulig'
p618
assS'level'
p619
(dp620
g3
(lp621
I1
aI2
aI3
aI4
aI5
asg8
(lp622
S'#ccff66'
p623
aS'#ffff00'
p624
aS'#ff9900'
p625
aS'#ff0000'
p626
aS'k'
p627
asg11
(lp628
I3
aI3
aI2
aI2
aI2
aI2
aI2
aI2
aI2
aI2
aI1
aI1
aI1
aI1
aI2
aI2
aI2
aI3
aI3
aI1
aI3
aI3
aI3
aI2
aI1
aI2
aI3
aI3
aI3
aI3
aI3
aI3
aI3
aI3
aI3
aI3
aI2
aI3
aI2
aI3
aI3
aI3
aI3
aI3
aI2
aI2
aI3
aI3
aI3
aI3
aI3
aI2
aI2
aI3
aI3
aI3
aI3
aI3
aI3
aI2
aI3
aI3
aI3
aI2
aI2
aI2
aI3
aI3
aI2
aI1
aI2
aI1
aI2
aI2
aI2
aI1
aI2
aI1
aI2
aI2
aI2
aI1
aI2
aI2
aI2
aI2
aI1
aI2
aI2
aI2
aI1
aI2
aI1
aI2
aI2
aI2
aI2
aI1
aI1
aI1
aI1
aI1
aI2
aI2
aI1
aI3
aI1
aI3
aI3
aI3
aI3
aI3
aI3
aI3
aI3
aI3
aI3
aI2
aI3
aI2
aI3
aI3
aI2
aI3
aI2
aI3
aI2
aI3
aI3
aI2
aI2
aI2
aI2
aI2
aI2
aI3
aI2
aI2
aI2
aI2
aI2
aI2
aI2
aI2
ass.