(dp0
S'trigger'
p1
(dp2
S'keys'
p3
(lp4
S'Stor tilleggsbelastning'
p5
aS'Liten tilleggsbelastning'
p6
aS'Naturlig utloest'
p7
asS'colors'
p8
(lp9
S'0.7'
p10
asS'values'
p11
(lp12
S'Stor tilleggsbelastning'
p13
aS'Stor tilleggsbelastning'
p14
aS'Stor tilleggsbelastning'
p15
aS'Stor tilleggsbelastning'
p16
aS'Stor tilleggsbelastning'
p17
aS'Liten tilleggsbelastning'
p18
aS'Liten tilleggsbelastning'
p19
aS'Liten tilleggsbelastning'
p20
aS'Liten tilleggsbelastning'
p21
aS'Liten tilleggsbelastning'
p22
aS'Liten tilleggsbelastning'
p23
aS'Liten tilleggsbelastning'
p24
aS'Liten tilleggsbelastning'
p25
aS'Stor tilleggsbelastning'
p26
aS'Stor tilleggsbelastning'
p27
aS'Stor tilleggsbelastning'
p28
aS'Stor tilleggsbelastning'
p29
aS'Stor tilleggsbelastning'
p30
aS'Stor tilleggsbelastning'
p31
aS'Stor tilleggsbelastning'
p32
aS'Stor tilleggsbelastning'
p33
aS'Stor tilleggsbelastning'
p34
aS'Stor tilleggsbelastning'
p35
aS'Liten tilleggsbelastning'
p36
aS'Liten tilleggsbelastning'
p37
aS'Stor tilleggsbelastning'
p38
aS'Liten tilleggsbelastning'
p39
aS'Liten tilleggsbelastning'
p40
aS'Liten tilleggsbelastning'
p41
aS'Liten tilleggsbelastning'
p42
aS'Stor tilleggsbelastning'
p43
aS'Liten tilleggsbelastning'
p44
aS'Liten tilleggsbelastning'
p45
aS'Liten tilleggsbelastning'
p46
aS'Liten tilleggsbelastning'
p47
aS'Liten tilleggsbelastning'
p48
aS'Liten tilleggsbelastning'
p49
aS'Liten tilleggsbelastning'
p50
aS'Liten tilleggsbelastning'
p51
aS'Liten tilleggsbelastning'
p52
aS'Liten tilleggsbelastning'
p53
aS'Liten tilleggsbelastning'
p54
aS'Liten tilleggsbelastning'
p55
aS'Liten tilleggsbelastning'
p56
aS'Liten tilleggsbelastning'
p57
aS'Liten tilleggsbelastning'
p58
aS'Liten tilleggsbelastning'
p59
aS'Liten tilleggsbelastning'
p60
aS'Liten tilleggsbelastning'
p61
aS'Liten tilleggsbelastning'
p62
aS'Liten tilleggsbelastning'
p63
aS'Liten tilleggsbelastning'
p64
aS'Liten tilleggsbelastning'
p65
aS'Liten tilleggsbelastning'
p66
aS'Liten tilleggsbelastning'
p67
aS'Liten tilleggsbelastning'
p68
aS'Liten tilleggsbelastning'
p69
aS'Liten tilleggsbelastning'
p70
aS'Liten tilleggsbelastning'
p71
aS'Liten tilleggsbelastning'
p72
aS'Liten tilleggsbelastning'
p73
aS'Liten tilleggsbelastning'
p74
aS'Liten tilleggsbelastning'
p75
aS'Liten tilleggsbelastning'
p76
aS'Liten tilleggsbelastning'
p77
aS'Liten tilleggsbelastning'
p78
aS'Liten tilleggsbelastning'
p79
aS'Liten tilleggsbelastning'
p80
aS'Liten tilleggsbelastning'
p81
aS'Liten tilleggsbelastning'
p82
aS'Liten tilleggsbelastning'
p83
aS'Liten tilleggsbelastning'
p84
aS'Liten tilleggsbelastning'
p85
aS'Liten tilleggsbelastning'
p86
aS'Stor tilleggsbelastning'
p87
aS'Stor tilleggsbelastning'
p88
aS'Stor tilleggsbelastning'
p89
aS'Stor tilleggsbelastning'
p90
aS'Stor tilleggsbelastning'
p91
aS'Stor tilleggsbelastning'
p92
aS'Stor tilleggsbelastning'
p93
aS'Naturlig utloest'
p94
aS'Naturlig utloest'
p95
aS'Naturlig utloest'
p96
aS'Naturlig utloest'
p97
aS'Naturlig utloest'
p98
aS'Naturlig utloest'
p99
aS'Naturlig utloest'
p100
aS'Liten tilleggsbelastning'
p101
aS'Liten tilleggsbelastning'
p102
aS'Liten tilleggsbelastning'
p103
aS'Liten tilleggsbelastning'
p104
aS'Liten tilleggsbelastning'
p105
aS'Liten tilleggsbelastning'
p106
aS'Liten tilleggsbelastning'
p107
aS'Liten tilleggsbelastning'
p108
aS'Liten tilleggsbelastning'
p109
aS'Liten tilleggsbelastning'
p110
aS'Liten tilleggsbelastning'
p111
assS'distribution'
p112
(dp113
g3
(lp114
S'Isolerte faresoner'
p115
aS'Noen bratte heng'
p116
aS'Mange bratte heng'
p117
aS'De fleste bratte heng'
p118
aS'Ogsaa i mindre bratt terreng'
p119
asg8
(lp120
g10
asg11
(lp121
S'Noen bratte heng'
p122
aS'Noen bratte heng'
p123
aS'Noen bratte heng'
p124
aS'Noen bratte heng'
p125
aS'Noen bratte heng'
p126
aS'Noen bratte heng'
p127
aS'Noen bratte heng'
p128
aS'Noen bratte heng'
p129
aS'Noen bratte heng'
p130
aS'Noen bratte heng'
p131
aS'Noen bratte heng'
p132
aS'Noen bratte heng'
p133
aS'Noen bratte heng'
p134
aS'Noen bratte heng'
p135
aS'Noen bratte heng'
p136
aS'Noen bratte heng'
p137
aS'Noen bratte heng'
p138
aS'Noen bratte heng'
p139
aS'Noen bratte heng'
p140
aS'Noen bratte heng'
p141
aS'Noen bratte heng'
p142
aS'Noen bratte heng'
p143
aS'Noen bratte heng'
p144
aS'Noen bratte heng'
p145
aS'Noen bratte heng'
p146
aS'Noen bratte heng'
p147
aS'Noen bratte heng'
p148
aS'Noen bratte heng'
p149
aS'Isolerte faresoner'
p150
aS'Noen bratte heng'
p151
aS'Noen bratte heng'
p152
aS'Noen bratte heng'
p153
aS'Noen bratte heng'
p154
aS'Isolerte faresoner'
p155
aS'Noen bratte heng'
p156
aS'Isolerte faresoner'
p157
aS'Isolerte faresoner'
p158
aS'Noen bratte heng'
p159
aS'Isolerte faresoner'
p160
aS'Isolerte faresoner'
p161
aS'Isolerte faresoner'
p162
aS'Noen bratte heng'
p163
aS'Noen bratte heng'
p164
aS'Noen bratte heng'
p165
aS'Noen bratte heng'
p166
aS'Noen bratte heng'
p167
aS'Noen bratte heng'
p168
aS'Noen bratte heng'
p169
aS'Noen bratte heng'
p170
aS'Noen bratte heng'
p171
aS'Noen bratte heng'
p172
aS'Noen bratte heng'
p173
aS'Noen bratte heng'
p174
aS'Noen bratte heng'
p175
aS'Noen bratte heng'
p176
aS'Noen bratte heng'
p177
aS'Noen bratte heng'
p178
aS'Mange bratte heng'
p179
aS'Mange bratte heng'
p180
aS'Noen bratte heng'
p181
aS'Noen bratte heng'
p182
aS'Noen bratte heng'
p183
aS'Mange bratte heng'
p184
aS'Noen bratte heng'
p185
aS'Noen bratte heng'
p186
aS'Noen bratte heng'
p187
aS'Noen bratte heng'
p188
aS'Noen bratte heng'
p189
aS'Noen bratte heng'
p190
aS'Noen bratte heng'
p191
aS'Noen bratte heng'
p192
aS'Noen bratte heng'
p193
aS'Noen bratte heng'
p194
aS'Noen bratte heng'
p195
aS'Noen bratte heng'
p196
aS'Noen bratte heng'
p197
aS'Noen bratte heng'
p198
aS'Noen bratte heng'
p199
aS'Noen bratte heng'
p200
aS'Noen bratte heng'
p201
aS'Isolerte faresoner'
p202
aS'Noen bratte heng'
p203
aS'Noen bratte heng'
p204
aS'Noen bratte heng'
p205
aS'Noen bratte heng'
p206
aS'Noen bratte heng'
p207
aS'Noen bratte heng'
p208
aS'Noen bratte heng'
p209
aS'Isolerte faresoner'
p210
aS'Noen bratte heng'
p211
aS'Noen bratte heng'
p212
aS'Noen bratte heng'
p213
aS'Noen bratte heng'
p214
aS'Isolerte faresoner'
p215
aS'Noen bratte heng'
p216
aS'Noen bratte heng'
p217
aS'Noen bratte heng'
p218
aS'Isolerte faresoner'
p219
aS'Isolerte faresoner'
p220
assS'size'
p221
(dp222
g3
(lp223
S'1 - Harmloest'
p224
aS'2 - Smaa'
p225
aS'3 - Middels'
p226
aS'4 - Store'
p227
aS'5 - Svaert store'
p228
aS'Ukjent'
p229
asg8
(lp230
g10
asg11
(lp231
S'2 - Smaa'
p232
aS'2 - Smaa'
p233
aS'2 - Smaa'
p234
aS'2 - Smaa'
p235
aS'2 - Smaa'
p236
aS'2 - Smaa'
p237
aS'2 - Smaa'
p238
aS'2 - Smaa'
p239
aS'2 - Smaa'
p240
aS'2 - Smaa'
p241
aS'2 - Smaa'
p242
aS'2 - Smaa'
p243
aS'2 - Smaa'
p244
aS'2 - Smaa'
p245
aS'2 - Smaa'
p246
aS'2 - Smaa'
p247
aS'2 - Smaa'
p248
aS'2 - Smaa'
p249
aS'2 - Smaa'
p250
aS'2 - Smaa'
p251
aS'2 - Smaa'
p252
aS'2 - Smaa'
p253
aS'2 - Smaa'
p254
aS'2 - Smaa'
p255
aS'2 - Smaa'
p256
aS'2 - Smaa'
p257
aS'2 - Smaa'
p258
aS'2 - Smaa'
p259
aS'2 - Smaa'
p260
aS'2 - Smaa'
p261
aS'2 - Smaa'
p262
aS'2 - Smaa'
p263
aS'2 - Smaa'
p264
aS'2 - Smaa'
p265
aS'2 - Smaa'
p266
aS'2 - Smaa'
p267
aS'2 - Smaa'
p268
aS'2 - Smaa'
p269
aS'2 - Smaa'
p270
aS'2 - Smaa'
p271
aS'2 - Smaa'
p272
aS'2 - Smaa'
p273
aS'2 - Smaa'
p274
aS'2 - Smaa'
p275
aS'2 - Smaa'
p276
aS'2 - Smaa'
p277
aS'2 - Smaa'
p278
aS'2 - Smaa'
p279
aS'2 - Smaa'
p280
aS'2 - Smaa'
p281
aS'2 - Smaa'
p282
aS'2 - Smaa'
p283
aS'2 - Smaa'
p284
aS'2 - Smaa'
p285
aS'2 - Smaa'
p286
aS'2 - Smaa'
p287
aS'2 - Smaa'
p288
aS'2 - Smaa'
p289
aS'2 - Smaa'
p290
aS'2 - Smaa'
p291
aS'2 - Smaa'
p292
aS'2 - Smaa'
p293
aS'2 - Smaa'
p294
aS'3 - Middels'
p295
aS'3 - Middels'
p296
aS'3 - Middels'
p297
aS'3 - Middels'
p298
aS'3 - Middels'
p299
aS'3 - Middels'
p300
aS'2 - Smaa'
p301
aS'2 - Smaa'
p302
aS'2 - Smaa'
p303
aS'2 - Smaa'
p304
aS'2 - Smaa'
p305
aS'2 - Smaa'
p306
aS'2 - Smaa'
p307
aS'2 - Smaa'
p308
aS'2 - Smaa'
p309
aS'2 - Smaa'
p310
aS'2 - Smaa'
p311
aS'2 - Smaa'
p312
aS'1 - Harmloest'
p313
aS'1 - Harmloest'
p314
aS'1 - Harmloest'
p315
aS'1 - Harmloest'
p316
aS'1 - Harmloest'
p317
aS'1 - Harmloest'
p318
aS'1 - Harmloest'
p319
aS'2 - Smaa'
p320
aS'1 - Harmloest'
p321
aS'1 - Harmloest'
p322
aS'2 - Smaa'
p323
aS'1 - Harmloest'
p324
aS'2 - Smaa'
p325
aS'1 - Harmloest'
p326
aS'1 - Harmloest'
p327
aS'1 - Harmloest'
p328
aS'2 - Smaa'
p329
aS'2 - Smaa'
p330
assS'probability'
p331
(dp332
g3
(lp333
S'Lite sannsynlig'
p334
aS'Mulig'
p335
aS'Sannsynlig'
p336
aS'Meget sannsynlig'
p337
asg8
(lp338
g10
asg11
(lp339
S'Mulig'
p340
aS'Mulig'
p341
aS'Mulig'
p342
aS'Mulig'
p343
aS'Mulig'
p344
aS'Mulig'
p345
aS'Mulig'
p346
aS'Mulig'
p347
aS'Mulig'
p348
aS'Mulig'
p349
aS'Mulig'
p350
aS'Mulig'
p351
aS'Mulig'
p352
aS'Mulig'
p353
aS'Mulig'
p354
aS'Mulig'
p355
aS'Mulig'
p356
aS'Mulig'
p357
aS'Mulig'
p358
aS'Mulig'
p359
aS'Mulig'
p360
aS'Mulig'
p361
aS'Mulig'
p362
aS'Mulig'
p363
aS'Mulig'
p364
aS'Mulig'
p365
aS'Mulig'
p366
aS'Mulig'
p367
aS'Mulig'
p368
aS'Mulig'
p369
aS'Mulig'
p370
aS'Mulig'
p371
aS'Mulig'
p372
aS'Mulig'
p373
aS'Mulig'
p374
aS'Mulig'
p375
aS'Mulig'
p376
aS'Mulig'
p377
aS'Mulig'
p378
aS'Mulig'
p379
aS'Mulig'
p380
aS'Mulig'
p381
aS'Mulig'
p382
aS'Mulig'
p383
aS'Mulig'
p384
aS'Mulig'
p385
aS'Mulig'
p386
aS'Mulig'
p387
aS'Mulig'
p388
aS'Mulig'
p389
aS'Mulig'
p390
aS'Mulig'
p391
aS'Mulig'
p392
aS'Mulig'
p393
aS'Mulig'
p394
aS'Mulig'
p395
aS'Mulig'
p396
aS'Mulig'
p397
aS'Mulig'
p398
aS'Mulig'
p399
aS'Mulig'
p400
aS'Mulig'
p401
aS'Mulig'
p402
aS'Mulig'
p403
aS'Mulig'
p404
aS'Mulig'
p405
aS'Mulig'
p406
aS'Mulig'
p407
aS'Mulig'
p408
aS'Mulig'
p409
aS'Mulig'
p410
aS'Mulig'
p411
aS'Mulig'
p412
aS'Mulig'
p413
aS'Mulig'
p414
aS'Mulig'
p415
aS'Mulig'
p416
aS'Mulig'
p417
aS'Mulig'
p418
aS'Mulig'
p419
aS'Mulig'
p420
aS'Mulig'
p421
aS'Sannsynlig'
p422
aS'Mulig'
p423
aS'Mulig'
p424
aS'Mulig'
p425
aS'Sannsynlig'
p426
aS'Mulig'
p427
aS'Mulig'
p428
aS'Mulig'
p429
aS'Mulig'
p430
aS'Mulig'
p431
aS'Mulig'
p432
aS'Mulig'
p433
aS'Mulig'
p434
aS'Mulig'
p435
aS'Mulig'
p436
aS'Mulig'
p437
aS'Mulig'
p438
assS'level'
p439
(dp440
g3
(lp441
I1
aI2
aI3
aI4
aI5
asg8
(lp442
S'#ccff66'
p443
aS'#ffff00'
p444
aS'#ff9900'
p445
aS'#ff0000'
p446
aS'k'
p447
asg11
(lp448
I2
aI2
aI2
aI2
aI2
aI2
aI2
aI2
aI2
aI2
aI2
aI2
aI2
aI2
aI2
aI2
aI2
aI2
aI2
aI2
aI2
aI2
aI2
aI2
aI2
aI2
aI2
aI2
aI2
aI2
aI2
aI2
aI2
aI2
aI2
aI2
aI2
aI2
aI2
aI2
aI2
aI2
aI2
aI2
aI2
aI2
aI2
aI2
aI2
aI2
aI2
aI2
aI2
aI2
aI2
aI2
aI2
aI3
aI3
aI2
aI2
aI2
aI3
aI3
aI3
aI3
aI3
aI3
aI3
aI2
aI2
aI2
aI2
aI2
aI2
aI2
aI2
aI2
aI2
aI2
aI1
aI1
aI1
aI1
aI1
aI1
aI1
aI1
aI2
aI1
aI1
aI2
aI2
aI2
aI2
aI2
aI1
aI2
aI2
ass.