(lp0
(i__main__
M3Element
p1
(dp2
S'danger_level_average'
p3
F1.0
sS'probability'
p4
S'Lite sannsynlig'
p5
sS'colour'
p6
S'#ccff66'
p7
sS'danger_level_list'
p8
(lp9
I1
aI1
aI1
aI1
aI1
aI1
aI1
aI1
aI1
aI1
aI1
aI1
aI1
aI1
aI1
aI1
aI1
aI1
aI1
aI1
aI1
aI1
aI1
aI1
aI1
aI1
aI1
aI1
asS'label_probalility'
p10
S'unlikely'
p11
sS'label_distribution'
p12
S'isolated slopes'
p13
sS'recomended_colour'
p14
S'gray'
p15
sS'recomended_danger_level'
p16
I0
sS'label_trigger'
p17
S'HT'
p18
sS'trigger'
p19
S'Stor tilleggsbelastning, Liten tilleggsbelastning'
p20
sS'occurrences'
p21
I28
sS'y'
p22
S'100'
p23
sS'x'
p24
S'100'
p25
sS'distribution'
p26
S'Isolerte faresoner'
p27
sS'danger_level_standard_dev'
p28
cnumpy.core.multiarray
scalar
p29
(cnumpy
dtype
p30
(S'f8'
p31
I0
I1
tp32
Rp33
(I3
S'<'
p34
NNNI-1
I-1
I0
tp35
bS'\x00\x00\x00\x00\x00\x00\x00\x00'
p36
tp37
Rp38
sS'label_size'
p39
S'1'
p40
sS'avalanche_size'
p41
S'1 - Harmloest'
p42
sba(i__main__
M3Element
p43
(dp44
g3
F1.0
sg4
S'Lite sannsynlig'
p45
sg6
g7
sg8
(lp46
I1
aI1
aI1
aI1
aI1
aI1
aI1
aI1
aI1
aI1
aI1
aI1
aI1
aI1
aI1
aI1
asg10
S'unlikely'
p47
sg12
S'isolated slopes'
p48
sg14
g15
sg16
I0
sg17
S'NT'
p49
sg19
S'Naturlig utloest'
p50
sg21
I16
sg22
S'100'
p51
sg24
S'200'
p52
sg26
S'Isolerte faresoner'
p53
sg28
g29
(g33
S'\x00\x00\x00\x00\x00\x00\x00\x00'
p54
tp55
Rp56
sg39
g40
sg41
S'1 - Harmloest'
p57
sba(i__main__
M3Element
p58
(dp59
g3
F1.0769230769230769
sg4
S'Mulig'
p60
sg6
g7
sg8
(lp61
I1
aI1
aI1
aI1
aI1
aI1
aI1
aI1
aI2
aI1
aI1
aI1
aI1
aI1
aI1
aI2
aI1
aI1
aI1
aI1
aI1
aI1
aI1
aI1
aI1
aI1
aI1
aI1
aI1
aI1
aI1
aI1
aI1
aI1
aI1
aI1
aI1
aI1
aI1
aI1
aI1
aI1
aI2
aI1
aI1
aI1
aI1
aI1
aI1
aI1
aI2
aI1
aI1
aI1
aI1
aI1
aI1
aI1
aI2
aI1
aI1
aI1
aI1
aI1
aI1
aI1
aI1
aI1
aI1
aI1
aI1
aI1
aI1
aI1
aI2
aI1
aI1
aI1
aI1
aI1
aI1
aI1
aI1
aI1
aI1
aI1
aI1
aI1
aI1
aI2
aI1
asg10
S'possible'
p62
sg12
S'isolated slopes'
p63
sg14
g15
sg16
I0
sg17
S'HT'
p64
sg19
S'Stor tilleggsbelastning, Liten tilleggsbelastning'
p65
sg21
I91
sg22
S'100'
p66
sg24
S'300'
p67
sg26
S'Isolerte faresoner'
p68
sg28
g29
(g33
S'\xce\x07J{\xd5\r\xd1?'
p69
tp70
Rp71
sg39
g40
sg41
S'1 - Harmloest'
p72
sba(i__main__
M3Element
p73
(dp74
g3
F1.3043478260869565
sg4
S'Mulig'
p75
sg6
g7
sg8
(lp76
I1
aI1
aI2
aI1
aI1
aI2
aI1
aI1
aI1
aI1
aI1
aI2
aI2
aI2
aI1
aI2
aI2
aI1
aI1
aI1
aI1
aI1
aI1
asg10
S'possible'
p77
sg12
S'isolated slopes'
p78
sg14
g15
sg16
I0
sg17
S'NT'
p79
sg19
S'Naturlig utloest'
p80
sg21
I23
sg22
S'100'
p81
sg24
S'400'
p82
sg26
S'Isolerte faresoner'
p83
sg28
g29
(g33
S'\xd7\x86%\xe1\xc7r\xdd?'
p84
tp85
Rp86
sg39
g40
sg41
S'1 - Harmloest'
p87
sba(i__main__
M3Element
p88
(dp89
g3
Nsg4
S'Sannsynlig, Meget sannsynlig'
p90
sg6
S'gray'
p91
sg8
(lp92
sg10
S'expected'
p93
sg12
S'isolated slopes'
p94
sg14
g15
sg16
I0
sg17
S'HT'
p95
sg19
S'Stor tilleggsbelastning, Liten tilleggsbelastning'
p96
sg21
Nsg22
S'100'
p97
sg24
S'500'
p98
sg26
S'Isolerte faresoner'
p99
sg28
Nsg39
g40
sg41
S'1 - Harmloest'
p100
sba(i__main__
M3Element
p101
(dp102
g3
Nsg4
S'Sannsynlig, Meget sannsynlig'
p103
sg6
S'gray'
p104
sg8
(lp105
sg10
S'expected'
p106
sg12
S'isolated slopes'
p107
sg14
g15
sg16
I0
sg17
S'NT'
p108
sg19
S'Naturlig utloest'
p109
sg21
Nsg22
S'100'
p110
sg24
S'600'
p111
sg26
S'Isolerte faresoner'
p112
sg28
Nsg39
g40
sg41
S'1 - Harmloest'
p113
sba(i__main__
M3Element
p114
(dp115
g3
F1.75
sg4
S'Lite sannsynlig'
p116
sg6
S'#ffff00'
p117
sg8
(lp118
I1
aI2
aI2
aI2
asg10
S'unlikely'
p119
sg12
S'some steep slopes'
p120
sg14
g15
sg16
I0
sg17
S'HT'
p121
sg19
S'Stor tilleggsbelastning, Liten tilleggsbelastning'
p122
sg21
I4
sg22
S'100'
p123
sg24
S'700'
p124
sg26
S'Noen bratte heng'
p125
sg28
g29
(g33
S'\xaaLX\xe8z\xb6\xdb?'
p126
tp127
Rp128
sg39
g40
sg41
S'1 - Harmloest'
p129
sba(i__main__
M3Element
p130
(dp131
g3
Nsg4
S'Lite sannsynlig'
p132
sg6
S'white'
p133
sg8
(lp134
sg10
S'unlikely'
p135
sg12
S'some steep slopes'
p136
sg14
g15
sg16
I0
sg17
S'NT'
p137
sg19
S'Naturlig utloest'
p138
sg21
Nsg22
S'100'
p139
sg24
S'800'
p140
sg26
S'Noen bratte heng'
p141
sg28
Nsg39
g40
sg41
S'1 - Harmloest'
p142
sba(i__main__
M3Element
p143
(dp144
g3
F1.2980769230769231
sg4
S'Mulig'
p145
sg6
g7
sg8
(lp146
I2
aI1
aI1
aI1
aI1
aI1
aI2
aI1
aI1
aI1
aI1
aI1
aI1
aI2
aI1
aI1
aI1
aI1
aI1
aI2
aI2
aI1
aI1
aI1
aI1
aI1
aI2
aI2
aI2
aI1
aI1
aI1
aI1
aI1
aI1
aI1
aI1
aI2
aI2
aI2
aI1
aI1
aI1
aI1
aI1
aI1
aI1
aI1
aI2
aI1
aI2
aI2
aI1
aI1
aI1
aI1
aI1
aI1
aI1
aI2
aI2
aI1
aI2
aI2
aI1
aI1
aI1
aI1
aI1
aI2
aI2
aI2
aI2
aI2
aI2
aI2
aI2
aI2
aI1
aI1
aI1
aI1
aI1
aI1
aI1
aI2
aI1
aI1
aI1
aI1
aI1
aI1
aI1
aI2
aI2
aI2
aI1
aI1
aI1
aI1
aI1
aI1
aI1
aI1
asg10
S'possible'
p147
sg12
S'some steep slopes'
p148
sg14
g15
sg16
I0
sg17
S'HT'
p149
sg19
S'Stor tilleggsbelastning, Liten tilleggsbelastning'
p150
sg21
I104
sg22
S'100'
p151
sg24
S'900'
p152
sg26
S'Noen bratte heng'
p153
sg28
g29
(g33
S'\x91\xb7\x10\x18CF\xdd?'
p154
tp155
Rp156
sg39
g40
sg41
S'1 - Harmloest'
p157
sba(i__main__
M3Element
p158
(dp159
g3
F1.3157894736842106
sg4
S'Mulig'
p160
sg6
g7
sg8
(lp161
I1
aI1
aI2
aI1
aI1
aI1
aI2
aI1
aI1
aI2
aI2
aI1
aI1
aI1
aI1
aI2
aI1
aI1
aI2
aI1
aI1
aI2
aI2
aI2
aI1
aI2
aI2
aI1
aI1
aI1
aI1
aI1
aI1
aI1
aI1
aI1
aI2
aI1
asg10
S'possible'
p162
sg12
S'some steep slopes'
p163
sg14
g15
sg16
I0
sg17
S'NT'
p164
sg19
S'Naturlig utloest'
p165
sg21
I38
sg22
S'100'
p166
sg24
S'1000'
p167
sg26
S'Noen bratte heng'
p168
sg28
g29
(g33
S'\xea\x95\xe1O\xc4\xbf\xdd?'
p169
tp170
Rp171
sg39
g40
sg41
S'1 - Harmloest'
p172
sba(i__main__
M3Element
p173
(dp174
g3
Nsg4
S'Sannsynlig, Meget sannsynlig'
p175
sg6
S'white'
p176
sg8
(lp177
sg10
S'expected'
p178
sg12
S'some steep slopes'
p179
sg14
g15
sg16
I0
sg17
S'HT'
p180
sg19
S'Stor tilleggsbelastning, Liten tilleggsbelastning'
p181
sg21
Nsg22
S'100'
p182
sg24
S'1100'
p183
sg26
S'Noen bratte heng'
p184
sg28
Nsg39
g40
sg41
S'1 - Harmloest'
p185
sba(i__main__
M3Element
p186
(dp187
g3
F1.75
sg4
S'Sannsynlig, Meget sannsynlig'
p188
sg6
g117
sg8
(lp189
I2
aI2
aI1
aI2
asg10
S'expected'
p190
sg12
S'some steep slopes'
p191
sg14
g15
sg16
I0
sg17
S'NT'
p192
sg19
S'Naturlig utloest'
p193
sg21
I4
sg22
S'100'
p194
sg24
S'1200'
p195
sg26
S'Noen bratte heng'
p196
sg28
g29
(g33
S'\xaaLX\xe8z\xb6\xdb?'
p197
tp198
Rp199
sg39
g40
sg41
S'1 - Harmloest'
p200
sba(i__main__
M3Element
p201
(dp202
g3
Nsg4
S'Lite sannsynlig'
p203
sg6
S'gray'
p204
sg8
(lp205
sg10
S'unlikely'
p206
sg12
S'many steep slopes'
p207
sg14
g15
sg16
I0
sg17
S'HT'
p208
sg19
S'Stor tilleggsbelastning, Liten tilleggsbelastning'
p209
sg21
Nsg22
S'100'
p210
sg24
S'1300'
p211
sg26
S'Mange bratte heng, De fleste bratte heng, Ogsaa i mindre bratt terreng'
p212
sg28
Nsg39
g40
sg41
S'1 - Harmloest'
p213
sba(i__main__
M3Element
p214
(dp215
g3
F2.0
sg4
S'Lite sannsynlig'
p216
sg6
g117
sg8
(lp217
I2
asg10
S'unlikely'
p218
sg12
S'many steep slopes'
p219
sg14
g15
sg16
I0
sg17
S'NT'
p220
sg19
S'Naturlig utloest'
p221
sg21
I1
sg22
S'100'
p222
sg24
S'1400'
p223
sg26
S'Mange bratte heng, De fleste bratte heng, Ogsaa i mindre bratt terreng'
p224
sg28
g29
(g33
S'\x00\x00\x00\x00\x00\x00\x00\x00'
p225
tp226
Rp227
sg39
g40
sg41
S'1 - Harmloest'
p228
sba(i__main__
M3Element
p229
(dp230
g3
F1.4615384615384615
sg4
S'Mulig'
p231
sg6
g7
sg8
(lp232
I2
aI1
aI2
aI2
aI1
aI1
aI2
aI2
aI1
aI1
aI2
aI1
aI1
asg10
S'possible'
p233
sg12
S'many steep slopes'
p234
sg14
g15
sg16
I0
sg17
S'HT'
p235
sg19
S'Stor tilleggsbelastning, Liten tilleggsbelastning'
p236
sg21
I13
sg22
S'100'
p237
sg24
S'1500'
p238
sg26
S'Mange bratte heng, De fleste bratte heng, Ogsaa i mindre bratt terreng'
p239
sg28
g29
(g33
S'\xa1\x16\xe03\xba\xe7\xdf?'
p240
tp241
Rp242
sg39
g40
sg41
S'1 - Harmloest'
p243
sba(i__main__
M3Element
p244
(dp245
g3
F1.7777777777777777
sg4
S'Mulig'
p246
sg6
g117
sg8
(lp247
I2
aI1
aI2
aI2
aI2
aI2
aI1
aI2
aI2
asg10
S'possible'
p248
sg12
S'many steep slopes'
p249
sg14
g15
sg16
I0
sg17
S'NT'
p250
sg19
S'Naturlig utloest'
p251
sg21
I9
sg22
S'100'
p252
sg24
S'1600'
p253
sg26
S'Mange bratte heng, De fleste bratte heng, Ogsaa i mindre bratt terreng'
p254
sg28
g29
(g33
S'y\xc6#\xbaz\x9b\xda?'
p255
tp256
Rp257
sg39
g40
sg41
S'1 - Harmloest'
p258
sba(i__main__
M3Element
p259
(dp260
g3
Nsg4
S'Sannsynlig, Meget sannsynlig'
p261
sg6
S'white'
p262
sg8
(lp263
sg10
S'expected'
p264
sg12
S'many steep slopes'
p265
sg14
g15
sg16
I0
sg17
S'HT'
p266
sg19
S'Stor tilleggsbelastning, Liten tilleggsbelastning'
p267
sg21
Nsg22
S'100'
p268
sg24
S'1700'
p269
sg26
S'Mange bratte heng, De fleste bratte heng, Ogsaa i mindre bratt terreng'
p270
sg28
Nsg39
g40
sg41
S'1 - Harmloest'
p271
sba(i__main__
M3Element
p272
(dp273
g3
F1.8571428571428572
sg4
S'Sannsynlig, Meget sannsynlig'
p274
sg6
g117
sg8
(lp275
I2
aI2
aI2
aI2
aI1
aI2
aI2
asg10
S'expected'
p276
sg12
S'many steep slopes'
p277
sg14
g15
sg16
I0
sg17
S'NT'
p278
sg19
S'Naturlig utloest'
p279
sg21
I7
sg22
S'100'
p280
sg24
S'1800'
p281
sg26
S'Mange bratte heng, De fleste bratte heng, Ogsaa i mindre bratt terreng'
p282
sg28
g29
(g33
S'Z\x01/\xa94e\xd6?'
p283
tp284
Rp285
sg39
g40
sg41
S'1 - Harmloest'
p286
sba(i__main__
M3Element
p287
(dp288
g3
F1.0555555555555556
sg4
S'Lite sannsynlig'
p289
sg6
g7
sg8
(lp290
I1
aI1
aI1
aI1
aI1
aI1
aI2
aI1
aI1
aI1
aI1
aI1
aI1
aI1
aI1
aI1
aI1
aI1
aI1
aI1
aI1
aI1
aI1
aI1
aI1
aI1
aI1
aI1
aI1
aI1
aI1
aI1
aI1
aI1
aI1
aI1
aI1
aI1
aI1
aI1
aI1
aI1
aI1
aI1
aI1
aI1
aI1
aI1
aI1
aI1
aI1
aI1
aI1
aI1
aI1
aI1
aI1
aI1
aI1
aI1
aI1
aI2
aI2
aI2
aI2
aI1
aI1
aI1
aI1
aI1
aI1
aI1
aI1
aI1
aI1
aI1
aI1
aI1
aI1
aI1
aI1
aI1
aI1
aI1
aI1
aI1
aI1
aI1
aI1
aI1
asg10
S'unlikely'
p291
sg12
S'isolated slopes'
p292
sg14
g15
sg16
I0
sg17
S'HT'
p293
sg19
S'Stor tilleggsbelastning, Liten tilleggsbelastning'
p294
sg21
I90
sg22
S'200'
p295
sg24
S'100'
p296
sg26
S'Isolerte faresoner'
p297
sg28
g29
(g33
S'\xec\x88\xaa}\xe2Q\xcd?'
p298
tp299
Rp300
sg39
S'2'
p301
sg41
S'2 - Smaa'
p302
sba(i__main__
M3Element
p303
(dp304
g3
Nsg4
S'Lite sannsynlig'
p305
sg6
S'white'
p306
sg8
(lp307
sg10
S'unlikely'
p308
sg12
S'isolated slopes'
p309
sg14
g15
sg16
I0
sg17
S'NT'
p310
sg19
S'Naturlig utloest'
p311
sg21
Nsg22
S'200'
p312
sg24
S'200'
p313
sg26
S'Isolerte faresoner'
p314
sg28
Nsg39
g301
sg41
S'2 - Smaa'
p315
sba(i__main__
M3Element
p316
(dp317
g3
F1.7950481430536451
sg4
S'Mulig'
p318
sg6
g117
sg8
(lp319
I2
aI2
aI2
aI2
aI2
aI2
aI2
aI2
aI2
aI2
aI1
aI1
aI1
aI1
aI1
aI1
aI1
aI1
aI1
aI1
aI2
aI2
aI2
aI2
aI2
aI2
aI2
aI2
aI2
aI2
aI3
aI3
aI2
aI2
aI2
aI2
aI2
aI2
aI2
aI2
aI2
aI2
aI2
aI2
aI2
aI1
aI1
aI1
aI1
aI1
aI1
aI2
aI2
aI2
aI2
aI2
aI2
aI2
aI2
aI2
aI2
aI2
aI2
aI2
aI2
aI2
aI2
aI2
aI1
aI1
aI1
aI1
aI1
aI1
aI1
aI1
aI2
aI2
aI2
aI2
aI2
aI2
aI2
aI2
aI2
aI2
aI2
aI2
aI2
aI2
aI2
aI2
aI2
aI2
aI2
aI2
aI2
aI2
aI2
aI2
aI2
aI2
aI2
aI2
aI2
aI2
aI2
aI2
aI2
aI2
aI2
aI1
aI1
aI1
aI1
aI1
aI1
aI1
aI1
aI1
aI1
aI2
aI2
aI2
aI2
aI2
aI2
aI2
aI2
aI2
aI2
aI2
aI2
aI2
aI2
aI2
aI2
aI2
aI2
aI2
aI2
aI2
aI2
aI2
aI2
aI2
aI2
aI2
aI2
aI2
aI2
aI2
aI2
aI2
aI2
aI2
aI2
aI1
aI1
aI1
aI1
aI1
aI1
aI1
aI1
aI1
aI2
aI2
aI2
aI2
aI2
aI2
aI2
aI2
aI2
aI3
aI3
aI2
aI2
aI2
aI2
aI2
aI2
aI2
aI2
aI2
aI2
aI2
aI2
aI2
aI2
aI2
aI2
aI2
aI2
aI2
aI2
aI2
aI2
aI1
aI1
aI1
aI1
aI1
aI2
aI2
aI2
aI2
aI2
aI2
aI1
aI1
aI1
aI2
aI2
aI2
aI2
aI2
aI2
aI2
aI2
aI1
aI1
aI1
aI2
aI2
aI2
aI2
aI2
aI2
aI2
aI2
aI2
aI2
aI2
aI2
aI2
aI2
aI2
aI2
aI1
aI1
aI1
aI1
aI1
aI1
aI2
aI2
aI2
aI2
aI2
aI2
aI2
aI2
aI2
aI2
aI2
aI2
aI2
aI2
aI2
aI2
aI2
aI2
aI2
aI2
aI2
aI2
aI2
aI2
aI2
aI2
aI2
aI1
aI1
aI2
aI2
aI2
aI1
aI2
aI2
aI2
aI2
aI2
aI2
aI2
aI2
aI3
aI2
aI2
aI2
aI2
aI2
aI2
aI2
aI2
aI2
aI2
aI2
aI2
aI2
aI1
aI2
aI2
aI2
aI2
aI2
aI1
aI1
aI1
aI2
aI2
aI2
aI2
aI2
aI2
aI2
aI2
aI2
aI2
aI2
aI2
aI2
aI2
aI2
aI2
aI2
aI2
aI1
aI2
aI2
aI2
aI1
aI1
aI2
aI2
aI2
aI2
aI2
aI3
aI2
aI2
aI2
aI1
aI2
aI2
aI2
aI2
aI1
aI1
aI2
aI2
aI2
aI1
aI2
aI2
aI2
aI2
aI1
aI1
aI2
aI1
aI1
aI2
aI1
aI2
aI2
aI2
aI2
aI2
aI3
aI2
aI1
aI1
aI1
aI1
aI1
aI1
aI2
aI1
aI2
aI2
aI2
aI2
aI2
aI2
aI2
aI2
aI2
aI2
aI2
aI2
aI2
aI2
aI2
aI2
aI1
aI2
aI2
aI2
aI2
aI2
aI2
aI2
aI2
aI2
aI2
aI2
aI2
aI2
aI2
aI2
aI2
aI2
aI2
aI2
aI2
aI2
aI2
aI2
aI1
aI1
aI2
aI2
aI2
aI2
aI1
aI1
aI1
aI1
aI1
aI2
aI2
aI2
aI2
aI2
aI2
aI2
aI2
aI2
aI2
aI2
aI2
aI2
aI2
aI2
aI2
aI2
aI2
aI2
aI2
aI2
aI2
aI2
aI2
aI2
aI2
aI2
aI2
aI2
aI2
aI2
aI2
aI2
aI1
aI1
aI2
aI2
aI2
aI2
aI1
aI1
aI1
aI1
aI1
aI2
aI2
aI2
aI2
aI2
aI2
aI3
aI2
aI2
aI2
aI2
aI2
aI2
aI2
aI2
aI2
aI2
aI2
aI2
aI2
aI2
aI2
aI2
aI2
aI1
aI1
aI2
aI2
aI3
aI2
aI2
aI2
aI2
aI2
aI2
aI2
aI2
aI2
aI2
aI2
aI2
aI2
aI2
aI2
aI1
aI2
aI2
aI2
aI2
aI2
aI2
aI2
aI2
aI1
aI1
aI2
aI2
aI2
aI2
aI2
aI2
aI2
aI2
aI2
aI2
aI2
aI2
aI2
aI2
aI2
aI2
aI2
aI2
aI2
aI2
aI2
aI2
aI1
aI3
aI2
aI2
aI2
aI2
aI2
aI2
aI2
aI2
aI2
aI2
aI2
aI2
aI1
aI1
aI2
aI2
aI2
aI2
aI2
aI2
aI2
aI2
aI2
aI2
aI1
aI1
aI2
aI2
aI2
aI2
aI2
aI2
aI2
aI2
aI2
aI2
aI2
aI2
aI2
aI1
aI1
aI1
aI1
aI1
aI2
aI1
aI1
aI1
aI1
aI1
aI1
aI2
aI2
aI1
aI1
aI1
aI2
aI2
aI2
aI2
aI2
aI2
aI2
aI2
aI1
aI1
aI1
aI1
aI1
aI1
aI1
aI1
aI1
aI1
aI2
aI2
aI2
aI2
aI2
aI2
aI2
aI2
aI2
aI2
aI2
aI2
aI2
aI2
aI2
aI2
aI2
aI2
aI2
aI2
aI1
aI1
aI2
aI2
aI2
aI1
aI2
aI2
aI2
aI2
aI2
aI2
aI2
aI2
aI2
aI3
aI2
aI2
aI1
aI2
aI1
aI2
aI2
aI2
aI2
aI2
aI2
aI2
aI2
aI2
aI1
aI2
aI1
aI2
aI2
aI1
aI1
aI2
aI2
aI2
aI2
aI2
aI1
aI1
aI1
aI2
aI2
aI2
aI2
aI1
aI1
aI1
aI2
aI2
aI1
aI1
aI1
aI1
aI2
aI1
aI2
aI2
aI2
aI1
aI2
aI2
aI1
aI1
aI2
aI2
aI2
aI2
aI2
aI2
aI2
aI2
aI1
aI2
aI1
asg10
S'possible'
p320
sg12
S'isolated slopes'
p321
sg14
g15
sg16
I0
sg17
S'HT'
p322
sg19
S'Stor tilleggsbelastning, Liten tilleggsbelastning'
p323
sg21
I727
sg22
S'200'
p324
sg24
S'300'
p325
sg26
S'Isolerte faresoner'
p326
sg28
g29
(g33
S'\xf3\x1fO)\xa8!\xdc?'
p327
tp328
Rp329
sg39
g301
sg41
S'2 - Smaa'
p330
sba(i__main__
M3Element
p331
(dp332
g3
F1.446808510638298
sg4
S'Mulig'
p333
sg6
g7
sg8
(lp334
I1
aI1
aI1
aI1
aI1
aI2
aI1
aI2
aI1
aI1
aI2
aI1
aI1
aI1
aI1
aI2
aI1
aI2
aI1
aI2
aI1
aI2
aI2
aI2
aI2
aI2
aI2
aI2
aI2
aI2
aI2
aI2
aI2
aI1
aI1
aI2
aI2
aI1
aI2
aI1
aI1
aI1
aI1
aI1
aI1
aI1
aI1
asg10
S'possible'
p335
sg12
S'isolated slopes'
p336
sg14
g15
sg16
I0
sg17
S'NT'
p337
sg19
S'Naturlig utloest'
p338
sg21
I47
sg22
S'200'
p339
sg24
S'400'
p340
sg26
S'Isolerte faresoner'
p341
sg28
g29
(g33
S'\n\xb0\xbc$\x83\xd1\xdf?'
p342
tp343
Rp344
sg39
g301
sg41
S'2 - Smaa'
p345
sba(i__main__
M3Element
p346
(dp347
g3
Nsg4
S'Sannsynlig, Meget sannsynlig'
p348
sg6
S'gray'
p349
sg8
(lp350
sg10
S'expected'
p351
sg12
S'isolated slopes'
p352
sg14
g15
sg16
I0
sg17
S'HT'
p353
sg19
S'Stor tilleggsbelastning, Liten tilleggsbelastning'
p354
sg21
Nsg22
S'200'
p355
sg24
S'500'
p356
sg26
S'Isolerte faresoner'
p357
sg28
Nsg39
g301
sg41
S'2 - Smaa'
p358
sba(i__main__
M3Element
p359
(dp360
g3
Nsg4
S'Sannsynlig, Meget sannsynlig'
p361
sg6
S'gray'
p362
sg8
(lp363
sg10
S'expected'
p364
sg12
S'isolated slopes'
p365
sg14
g15
sg16
I0
sg17
S'NT'
p366
sg19
S'Naturlig utloest'
p367
sg21
Nsg22
S'200'
p368
sg24
S'600'
p369
sg26
S'Isolerte faresoner'
p370
sg28
Nsg39
g301
sg41
S'2 - Smaa'
p371
sba(i__main__
M3Element
p372
(dp373
g3
F1.6666666666666667
sg4
S'Lite sannsynlig'
p374
sg6
g117
sg8
(lp375
I1
aI2
aI1
aI1
aI2
aI2
aI2
aI2
aI2
asg10
S'unlikely'
p376
sg12
S'some steep slopes'
p377
sg14
g15
sg16
I0
sg17
S'HT'
p378
sg19
S'Stor tilleggsbelastning, Liten tilleggsbelastning'
p379
sg21
I9
sg22
S'200'
p380
sg24
S'700'
p381
sg26
S'Noen bratte heng'
p382
sg28
g29
(g33
S'g\xfa\xfe\xdd}+\xde?'
p383
tp384
Rp385
sg39
g301
sg41
S'2 - Smaa'
p386
sba(i__main__
M3Element
p387
(dp388
g3
F1.0
sg4
S'Lite sannsynlig'
p389
sg6
g7
sg8
(lp390
I1
aI1
asg10
S'unlikely'
p391
sg12
S'some steep slopes'
p392
sg14
g15
sg16
I0
sg17
S'NT'
p393
sg19
S'Naturlig utloest'
p394
sg21
I2
sg22
S'200'
p395
sg24
S'800'
p396
sg26
S'Noen bratte heng'
p397
sg28
g29
(g33
S'\x00\x00\x00\x00\x00\x00\x00\x00'
p398
tp399
Rp400
sg39
g301
sg41
S'2 - Smaa'
p401
sba(i__main__
M3Element
p402
(dp403
g3
F2.158455392809587
sg4
S'Mulig'
p404
sg6
g117
sg8
(lp405
I2
aI2
aI2
aI2
aI2
aI2
aI2
aI2
aI2
aI2
aI3
aI2
aI2
aI2
aI2
aI2
aI2
aI2
aI2
aI2
aI2
aI2
aI2
aI2
aI2
aI2
aI2
aI2
aI2
aI2
aI2
aI2
aI3
aI3
aI3
aI2
aI2
aI3
aI3
aI3
aI2
aI2
aI3
aI2
aI2
aI2
aI2
aI2
aI2
aI2
aI2
aI2
aI2
aI2
aI2
aI2
aI2
aI2
aI2
aI1
aI2
aI2
aI2
aI2
aI2
aI2
aI2
aI2
aI2
aI2
aI2
aI2
aI2
aI3
aI2
aI2
aI2
aI2
aI2
aI2
aI2
aI2
aI2
aI3
aI3
aI2
aI2
aI2
aI2
aI3
aI3
aI2
aI3
aI2
aI2
aI3
aI3
aI3
aI2
aI2
aI2
aI3
aI2
aI2
aI2
aI2
aI2
aI2
aI2
aI3
aI2
aI2
aI2
aI2
aI2
aI2
aI2
aI2
aI2
aI1
aI1
aI2
aI2
aI2
aI2
aI2
aI2
aI2
aI2
aI2
aI2
aI2
aI2
aI2
aI2
aI2
aI3
aI3
aI3
aI3
aI3
aI3
aI2
aI2
aI2
aI2
aI2
aI2
aI3
aI3
aI3
aI2
aI2
aI2
aI2
aI2
aI2
aI2
aI2
aI2
aI2
aI2
aI2
aI2
aI2
aI2
aI2
aI2
aI2
aI2
aI2
aI2
aI2
aI2
aI2
aI3
aI2
aI2
aI2
aI2
aI2
aI1
aI2
aI3
aI2
aI2
aI2
aI2
aI3
aI3
aI3
aI2
aI2
aI2
aI2
aI2
aI2
aI2
aI2
aI2
aI2
aI2
aI2
aI2
aI2
aI2
aI2
aI2
aI2
aI2
aI2
aI2
aI2
aI2
aI2
aI2
aI3
aI2
aI2
aI2
aI2
aI2
aI2
aI2
aI2
aI2
aI2
aI2
aI2
aI2
aI2
aI2
aI2
aI3
aI3
aI3
aI3
aI3
aI3
aI2
aI2
aI2
aI2
aI2
aI2
aI3
aI3
aI2
aI2
aI2
aI2
aI2
aI2
aI3
aI2
aI2
aI2
aI2
aI2
aI2
aI2
aI2
aI2
aI3
aI2
aI2
aI2
aI2
aI2
aI2
aI2
aI2
aI2
aI2
aI2
aI2
aI2
aI3
aI3
aI2
aI2
aI2
aI2
aI2
aI2
aI2
aI2
aI2
aI2
aI2
aI3
aI3
aI2
aI3
aI2
aI2
aI3
aI3
aI2
aI2
aI2
aI2
aI2
aI2
aI2
aI2
aI2
aI2
aI2
aI3
aI2
aI2
aI2
aI2
aI1
aI1
aI3
aI2
aI2
aI2
aI2
aI2
aI2
aI2
aI3
aI3
aI2
aI2
aI2
aI2
aI2
aI2
aI2
aI2
aI2
aI2
aI2
aI2
aI2
aI2
aI3
aI3
aI3
aI3
aI3
aI3
aI3
aI3
aI2
aI2
aI2
aI2
aI2
aI2
aI2
aI2
aI2
aI3
aI3
aI3
aI2
aI2
aI2
aI2
aI2
aI2
aI2
aI2
aI3
aI2
aI2
aI2
aI2
aI2
aI2
aI2
aI2
aI2
aI2
aI2
aI2
aI3
aI2
aI2
aI2
aI3
aI2
aI2
aI1
aI1
aI3
aI2
aI2
aI2
aI2
aI2
aI2
aI2
aI2
aI2
aI2
aI2
aI2
aI2
aI2
aI2
aI2
aI2
aI3
aI2
aI2
aI2
aI3
aI3
aI3
aI2
aI2
aI2
aI2
aI2
aI2
aI2
aI2
aI2
aI2
aI3
aI2
aI2
aI2
aI2
aI2
aI3
aI2
aI2
aI3
aI2
aI3
aI3
aI2
aI2
aI2
aI2
aI2
aI2
aI3
aI2
aI2
aI2
aI2
aI2
aI2
aI2
aI2
aI2
aI2
aI2
aI2
aI2
aI2
aI2
aI2
aI3
aI2
aI2
aI2
aI2
aI2
aI2
aI2
aI2
aI2
aI2
aI2
aI3
aI2
aI2
aI3
aI2
aI2
aI2
aI2
aI2
aI3
aI3
aI3
aI3
aI3
aI3
aI3
aI2
aI2
aI2
aI2
aI2
aI2
aI2
aI2
aI2
aI2
aI3
aI3
aI2
aI2
aI2
aI2
aI2
aI2
aI2
aI2
aI2
aI2
aI2
aI2
aI2
aI2
aI2
aI2
aI2
aI2
aI2
aI2
aI2
aI2
aI2
aI2
aI2
aI2
aI2
aI2
aI2
aI2
aI2
aI2
aI2
aI2
aI2
aI2
aI2
aI2
aI2
aI2
aI2
aI2
aI3
aI2
aI2
aI2
aI2
aI2
aI2
aI3
aI3
aI3
aI2
aI2
aI2
aI2
aI2
aI2
aI2
aI2
aI2
aI2
aI3
aI3
aI3
aI2
aI2
aI2
aI2
aI2
aI2
aI2
aI2
aI2
aI2
aI2
aI2
aI2
aI2
aI2
aI2
aI2
aI2
aI2
aI2
aI2
aI2
aI2
aI2
aI2
aI2
aI2
aI2
aI2
aI2
aI2
aI2
aI3
aI3
aI3
aI3
aI3
aI2
aI2
aI2
aI2
aI2
aI2
aI2
aI2
aI2
aI2
aI2
aI2
aI2
aI2
aI2
aI2
aI3
aI2
aI3
aI2
aI2
aI2
aI2
aI2
aI3
aI2
aI3
aI3
aI2
aI2
aI2
aI2
aI2
aI2
aI2
aI2
aI2
aI2
aI3
aI2
aI2
aI2
aI2
aI2
aI2
aI2
aI2
aI2
aI2
aI2
aI2
aI2
aI2
aI2
aI2
aI2
aI2
aI2
aI2
aI3
aI2
aI2
aI2
aI3
aI3
aI3
aI3
aI3
aI3
aI3
aI2
aI2
aI2
aI2
aI2
aI2
aI2
aI2
aI2
aI2
aI2
aI2
aI2
aI2
aI2
aI2
aI3
aI3
aI2
aI2
aI2
aI2
aI2
aI2
aI2
aI2
aI2
aI2
aI2
aI2
aI2
aI3
aI3
aI2
aI3
aI3
aI2
aI2
aI2
aI2
aI2
aI2
aI2
aI2
aI2
aI3
aI3
aI3
aI2
aI2
aI2
aI2
aI2
aI2
aI2
aI2
aI2
aI2
aI2
aI2
aI3
aI3
aI3
aI2
aI2
aI2
aI3
aI2
aI2
aI3
aI3
aI3
aI2
aI2
aI2
aI2
aI2
aI2
aI2
aI2
aI2
aI2
aI3
aI3
aI3
aI2
aI2
aI2
aI2
aI2
aI3
aI2
aI2
aI2
aI2
aI2
aI3
aI2
aI2
aI3
aI2
aI2
aI2
aI2
aI3
aI3
aI3
aI3
aI3
aI2
aI2
aI2
aI2
aI2
aI2
aI2
aI2
aI2
aI3
aI3
aI3
aI2
aI2
aI2
aI2
aI2
aI2
aI2
aI2
aI2
aI2
aI2
aI2
aI2
aI2
aI2
aI2
aI2
aI2
aI2
aI3
aI3
aI3
aI3
aI2
aI2
aI2
aI2
aI3
aI3
aI2
aI2
aI2
aI2
aI3
aI3
aI3
aI3
aI2
aI2
aI2
aI2
aI2
aI2
aI2
aI3
aI2
aI2
aI2
aI3
aI2
aI2
aI3
aI2
aI2
aI2
aI2
aI2
aI2
aI2
aI2
aI3
aI2
aI2
aI3
aI2
aI3
aI2
aI3
aI3
aI2
aI2
aI2
aI2
aI2
aI2
aI2
aI2
aI2
aI2
aI2
aI2
aI2
aI2
aI2
aI3
aI3
aI3
aI3
aI2
aI2
aI2
aI2
aI2
aI2
aI2
aI2
aI2
aI2
aI3
aI3
aI3
aI3
aI3
aI2
aI3
aI2
aI2
aI2
aI2
aI3
aI3
aI3
aI2
aI2
aI2
aI2
aI2
aI2
aI2
aI2
aI2
aI2
aI2
aI2
aI2
aI2
aI2
aI2
aI2
aI2
aI2
aI2
aI2
aI2
aI2
aI2
aI2
aI3
aI2
aI2
aI2
aI2
aI2
aI2
aI2
aI2
aI2
aI2
aI2
aI2
aI2
aI2
aI2
aI2
aI2
aI2
aI2
aI2
aI2
aI2
aI2
aI2
aI2
aI2
aI2
aI2
aI2
aI2
aI2
aI2
aI2
aI2
aI2
aI2
aI2
aI2
aI2
aI2
aI2
aI2
aI2
aI2
aI2
aI2
aI2
aI2
aI2
aI2
aI2
aI2
aI2
aI2
aI2
aI2
aI2
aI2
aI3
aI2
aI2
aI2
aI3
aI3
aI2
aI2
aI2
aI2
aI3
aI3
aI2
aI2
aI2
aI2
aI2
aI2
aI2
aI2
aI2
aI2
aI2
aI2
aI2
aI3
aI2
aI2
aI2
aI2
aI2
aI2
aI2
aI2
aI2
aI2
aI2
aI2
aI2
aI2
aI2
aI2
aI2
aI2
aI2
aI2
aI2
aI2
aI2
aI2
aI2
aI2
aI2
aI2
aI2
aI2
aI2
aI2
aI2
aI2
aI3
aI3
aI2
aI2
aI2
aI2
aI3
aI3
aI2
aI2
aI2
aI3
aI3
aI3
aI3
aI3
aI3
aI2
aI2
aI2
aI2
aI3
aI3
aI2
aI3
aI3
aI2
aI2
aI2
aI2
aI2
aI2
aI2
aI2
aI2
aI2
aI2
aI3
aI2
aI3
aI3
aI3
aI2
aI2
aI2
aI2
aI2
aI2
aI2
aI2
aI2
aI2
aI2
aI2
aI2
aI2
aI3
aI2
aI2
aI2
aI2
aI2
aI2
aI2
aI3
aI3
aI3
aI3
aI3
aI2
aI2
aI2
aI2
aI3
aI2
aI2
aI2
aI2
aI2
aI2
aI3
aI2
aI2
aI2
aI2
aI2
aI2
aI2
aI2
aI2
aI2
aI2
aI2
aI2
aI2
aI2
aI2
aI2
aI2
aI2
aI3
aI2
aI2
aI3
aI2
aI2
aI2
aI2
aI2
aI2
aI2
aI2
aI2
aI2
aI2
aI2
aI2
aI3
aI2
aI2
aI2
aI2
aI2
aI2
aI2
aI2
aI2
aI2
aI2
aI2
aI2
aI2
aI2
aI3
aI2
aI2
aI2
aI2
aI2
aI2
aI2
aI2
aI2
aI2
aI2
aI2
aI2
aI2
aI2
aI2
aI2
aI2
aI2
aI2
aI2
aI2
aI2
aI2
aI2
aI2
aI2
aI2
aI2
aI2
aI2
aI2
aI2
aI3
aI2
aI3
aI2
aI2
aI2
aI3
aI3
aI2
aI2
aI2
aI2
aI1
aI2
aI2
aI2
aI2
aI2
aI2
aI2
aI2
aI2
aI2
aI2
aI2
aI2
aI2
aI2
aI2
aI2
aI2
aI2
aI2
aI2
aI2
aI2
aI2
aI2
aI2
aI2
aI2
aI2
aI3
aI2
aI3
aI2
aI2
aI2
aI1
aI1
aI3
aI2
aI2
aI2
aI2
aI2
aI3
aI3
aI3
aI2
aI2
aI2
aI2
aI2
aI2
aI2
aI3
aI2
aI2
aI2
aI2
aI2
aI2
aI2
aI2
aI2
aI2
aI2
aI2
aI2
aI2
aI2
aI2
aI2
aI2
aI2
aI2
aI2
aI2
aI2
aI2
aI2
aI2
aI2
aI2
aI2
aI3
aI3
aI2
aI2
aI2
aI2
aI2
aI2
aI2
aI2
aI2
aI2
aI2
aI2
aI2
aI2
aI2
aI2
aI2
aI3
aI3
aI3
aI2
aI2
aI2
aI3
aI3
aI3
aI3
aI2
aI3
aI3
aI3
aI3
aI2
aI2
aI2
aI2
aI2
aI2
aI2
aI2
aI2
aI2
aI2
aI2
aI2
aI2
aI2
aI2
aI2
aI2
aI2
aI2
aI2
aI2
aI2
aI2
aI2
aI2
aI2
aI2
aI2
aI2
aI2
aI3
aI2
aI2
aI2
aI2
aI2
aI2
aI2
aI2
aI2
aI2
aI2
aI2
aI2
aI2
aI2
aI2
aI2
aI2
aI2
aI2
aI2
aI2
aI2
aI2
aI2
aI2
aI2
aI2
aI2
aI3
aI3
aI2
aI2
aI2
aI2
aI2
aI2
aI2
aI2
aI2
aI2
aI2
aI2
aI2
aI2
aI2
aI2
aI2
aI3
aI2
aI2
aI2
aI3
aI3
aI2
aI2
aI2
aI2
aI3
aI3
aI2
aI2
aI2
aI2
aI2
aI2
aI2
aI2
aI2
aI2
aI2
aI2
aI2
aI2
aI2
aI2
aI2
aI2
aI2
aI2
aI2
aI2
aI2
aI2
aI2
aI2
aI2
aI2
aI2
aI2
aI2
aI2
aI2
aI2
aI2
aI2
aI2
aI2
aI2
aI2
aI2
aI2
aI2
aI2
aI2
aI2
aI2
aI2
aI2
aI2
aI2
aI2
aI2
aI2
aI2
aI2
aI2
aI2
aI2
aI3
aI2
aI2
aI2
asg10
S'possible'
p406
sg12
S'some steep slopes'
p407
sg14
g15
sg16
I0
sg17
S'HT'
p408
sg19
S'Stor tilleggsbelastning, Liten tilleggsbelastning'
p409
sg21
I1502
sg22
S'200'
p410
sg24
S'900'
p411
sg26
S'Noen bratte heng'
p412
sg28
g29
(g33
S'W\x14\x10\x8a\xee\x9e\xd8?'
p413
tp414
Rp415
sg39
g301
sg41
S'2 - Smaa'
p416
sba(i__main__
M3Element
p417
(dp418
g3
F2.048507462686567
sg4
S'Mulig'
p419
sg6
g117
sg8
(lp420
I3
aI2
aI2
aI2
aI2
aI2
aI2
aI2
aI2
aI2
aI2
aI2
aI3
aI2
aI2
aI2
aI2
aI3
aI3
aI2
aI2
aI2
aI2
aI2
aI2
aI2
aI2
aI2
aI3
aI3
aI2
aI2
aI2
aI2
aI2
aI2
aI2
aI2
aI2
aI2
aI2
aI2
aI2
aI2
aI2
aI2
aI3
aI2
aI2
aI2
aI2
aI2
aI2
aI2
aI2
aI2
aI2
aI3
aI2
aI2
aI2
aI2
aI2
aI2
aI2
aI2
aI2
aI2
aI2
aI2
aI2
aI3
aI2
aI2
aI2
aI2
aI2
aI1
aI2
aI2
aI2
aI3
aI2
aI2
aI3
aI3
aI2
aI2
aI2
aI2
aI2
aI2
aI2
aI2
aI2
aI3
aI3
aI2
aI2
aI2
aI2
aI1
aI1
aI2
aI2
aI2
aI3
aI2
aI2
aI2
aI2
aI1
aI2
aI2
aI1
aI2
aI2
aI2
aI2
aI2
aI2
aI2
aI2
aI3
aI2
aI2
aI2
aI2
aI2
aI2
aI2
aI3
aI2
aI2
aI2
aI2
aI3
aI2
aI2
aI2
aI2
aI2
aI2
aI1
aI2
aI2
aI2
aI2
aI2
aI2
aI2
aI2
aI2
aI2
aI2
aI2
aI2
aI2
aI2
aI1
aI1
aI2
aI2
aI2
aI2
aI2
aI2
aI2
aI2
aI2
aI2
aI2
aI2
aI2
aI2
aI2
aI2
aI2
aI2
aI2
aI2
aI2
aI2
aI2
aI2
aI2
aI2
aI2
aI2
aI2
aI2
aI2
aI2
aI2
aI2
aI2
aI1
aI2
aI2
aI2
aI2
aI2
aI2
aI2
aI2
aI2
aI2
aI2
aI2
aI2
aI2
aI3
aI3
aI3
aI2
aI2
aI2
aI2
aI2
aI2
aI2
aI2
aI2
aI2
aI2
aI2
aI2
aI2
aI2
aI2
aI2
aI1
aI2
aI2
aI2
aI2
aI2
aI2
aI2
aI2
aI3
aI2
aI2
aI2
aI2
aI2
aI3
aI3
aI2
aI2
aI2
aI1
aI2
aI2
aI3
aI2
aI2
aI2
aI2
aI2
aI2
aI2
aI2
aI1
aI2
aI2
aI2
aI2
asg10
S'possible'
p421
sg12
S'some steep slopes'
p422
sg14
g15
sg16
I0
sg17
S'NT'
p423
sg19
S'Naturlig utloest'
p424
sg21
I268
sg22
S'200'
p425
sg24
S'1000'
p426
sg26
S'Noen bratte heng'
p427
sg28
g29
(g33
S'\x1dE\x1d<\x9a\x93\xd7?'
p428
tp429
Rp430
sg39
g301
sg41
S'2 - Smaa'
p431
sba(i__main__
M3Element
p432
(dp433
g3
F2.8684210526315788
sg4
S'Sannsynlig, Meget sannsynlig'
p434
sg6
S'#ff9900'
p435
sg8
(lp436
I3
aI3
aI3
aI3
aI3
aI3
aI3
aI3
aI3
aI3
aI3
aI3
aI3
aI3
aI3
aI3
aI3
aI3
aI3
aI3
aI3
aI3
aI3
aI3
aI3
aI2
aI3
aI3
aI3
aI3
aI2
aI2
aI2
aI3
aI3
aI3
aI2
aI3
asg10
S'expected'
p437
sg12
S'some steep slopes'
p438
sg14
g15
sg16
I0
sg17
S'HT'
p439
sg19
S'Stor tilleggsbelastning, Liten tilleggsbelastning'
p440
sg21
I38
sg22
S'200'
p441
sg24
S'1100'
p442
sg26
S'Noen bratte heng'
p443
sg28
g29
(g33
S']\x02\xb4\xccR\xa2\xd5?'
p444
tp445
Rp446
sg39
g301
sg41
S'2 - Smaa'
p447
sba(i__main__
M3Element
p448
(dp449
g3
F2.0
sg4
S'Sannsynlig, Meget sannsynlig'
p450
sg6
g117
sg8
(lp451
I2
aI2
aI2
aI2
aI2
aI2
aI2
aI2
aI2
aI2
aI2
asg10
S'expected'
p452
sg12
S'some steep slopes'
p453
sg14
g15
sg16
I0
sg17
S'NT'
p454
sg19
S'Naturlig utloest'
p455
sg21
I11
sg22
S'200'
p456
sg24
S'1200'
p457
sg26
S'Noen bratte heng'
p458
sg28
g29
(g33
S'\x00\x00\x00\x00\x00\x00\x00\x00'
p459
tp460
Rp461
sg39
g301
sg41
S'2 - Smaa'
p462
sba(i__main__
M3Element
p463
(dp464
g3
Nsg4
S'Lite sannsynlig'
p465
sg6
S'gray'
p466
sg8
(lp467
sg10
S'unlikely'
p468
sg12
S'many steep slopes'
p469
sg14
g15
sg16
I0
sg17
S'HT'
p470
sg19
S'Stor tilleggsbelastning, Liten tilleggsbelastning'
p471
sg21
Nsg22
S'200'
p472
sg24
S'1300'
p473
sg26
S'Mange bratte heng, De fleste bratte heng, Ogsaa i mindre bratt terreng'
p474
sg28
Nsg39
g301
sg41
S'2 - Smaa'
p475
sba(i__main__
M3Element
p476
(dp477
g3
Nsg4
S'Lite sannsynlig'
p478
sg6
S'gray'
p479
sg8
(lp480
sg10
S'unlikely'
p481
sg12
S'many steep slopes'
p482
sg14
g15
sg16
I0
sg17
S'NT'
p483
sg19
S'Naturlig utloest'
p484
sg21
Nsg22
S'200'
p485
sg24
S'1400'
p486
sg26
S'Mange bratte heng, De fleste bratte heng, Ogsaa i mindre bratt terreng'
p487
sg28
Nsg39
g301
sg41
S'2 - Smaa'
p488
sba(i__main__
M3Element
p489
(dp490
g3
F2.8018018018018016
sg4
S'Mulig'
p491
sg6
g435
sg8
(lp492
I3
aI2
aI3
aI3
aI2
aI2
aI3
aI3
aI3
aI3
aI3
aI2
aI2
aI3
aI2
aI2
aI3
aI3
aI3
aI3
aI3
aI3
aI3
aI3
aI3
aI3
aI3
aI3
aI3
aI3
aI3
aI3
aI3
aI3
aI3
aI3
aI3
aI3
aI3
aI3
aI2
aI3
aI3
aI3
aI3
aI3
aI2
aI3
aI3
aI3
aI3
aI3
aI2
aI3
aI3
aI2
aI2
aI3
aI3
aI3
aI3
aI3
aI3
aI3
aI3
aI3
aI3
aI3
aI3
aI3
aI3
aI3
aI3
aI3
aI2
aI3
aI3
aI2
aI3
aI3
aI3
aI3
aI3
aI3
aI3
aI2
aI2
aI3
aI2
aI3
aI3
aI3
aI3
aI3
aI3
aI3
aI3
aI3
aI3
aI3
aI3
aI3
aI3
aI3
aI3
aI2
aI2
aI3
aI2
aI2
aI2
asg10
S'possible'
p493
sg12
S'many steep slopes'
p494
sg14
g15
sg16
I0
sg17
S'HT'
p495
sg19
S'Stor tilleggsbelastning, Liten tilleggsbelastning'
p496
sg21
I111
sg22
S'200'
p497
sg24
S'1500'
p498
sg26
S'Mange bratte heng, De fleste bratte heng, Ogsaa i mindre bratt terreng'
p499
sg28
g29
(g33
S'\xa3q\x9e\xefZ\x83\xd9?'
p500
tp501
Rp502
sg39
g301
sg41
S'2 - Smaa'
p503
sba(i__main__
M3Element
p504
(dp505
g3
F2.4444444444444446
sg4
S'Mulig'
p506
sg6
g117
sg8
(lp507
I3
aI3
aI3
aI3
aI3
aI3
aI3
aI3
aI2
aI2
aI2
aI2
aI2
aI2
aI2
aI2
aI2
aI2
aI2
aI2
aI3
aI2
aI3
aI3
aI2
aI3
aI2
asg10
S'possible'
p508
sg12
S'many steep slopes'
p509
sg14
g15
sg16
I0
sg17
S'NT'
p510
sg19
S'Naturlig utloest'
p511
sg21
I27
sg22
S'200'
p512
sg24
S'1600'
p513
sg26
S'Mange bratte heng, De fleste bratte heng, Ogsaa i mindre bratt terreng'
p514
sg28
g29
(g33
S'\xef\xb2\xf1iF\xcd\xdf?'
p515
tp516
Rp517
sg39
g301
sg41
S'2 - Smaa'
p518
sba(i__main__
M3Element
p519
(dp520
g3
Nsg4
S'Sannsynlig, Meget sannsynlig'
p521
sg6
S'white'
p522
sg8
(lp523
sg10
S'expected'
p524
sg12
S'many steep slopes'
p525
sg14
g15
sg16
I0
sg17
S'HT'
p526
sg19
S'Stor tilleggsbelastning, Liten tilleggsbelastning'
p527
sg21
Nsg22
S'200'
p528
sg24
S'1700'
p529
sg26
S'Mange bratte heng, De fleste bratte heng, Ogsaa i mindre bratt terreng'
p530
sg28
Nsg39
g301
sg41
S'2 - Smaa'
p531
sba(i__main__
M3Element
p532
(dp533
g3
F2.5
sg4
S'Sannsynlig, Meget sannsynlig'
p534
sg6
g435
sg8
(lp535
I2
aI2
aI3
aI2
aI3
aI3
aI4
aI2
aI2
aI2
asg10
S'expected'
p536
sg12
S'many steep slopes'
p537
sg14
g15
sg16
I0
sg17
S'NT'
p538
sg19
S'Naturlig utloest'
p539
sg21
I10
sg22
S'200'
p540
sg24
S'1800'
p541
sg26
S'Mange bratte heng, De fleste bratte heng, Ogsaa i mindre bratt terreng'
p542
sg28
g29
(g33
S'c\xf2OT\\w\xe5?'
p543
tp544
Rp545
sg39
g301
sg41
S'2 - Smaa'
p546
sba(i__main__
M3Element
p547
(dp548
g3
F2.6
sg4
S'Lite sannsynlig'
p549
sg6
g435
sg8
(lp550
I2
aI2
aI3
aI3
aI3
asg10
S'unlikely'
p551
sg12
S'isolated slopes'
p552
sg14
g15
sg16
I0
sg17
S'HT'
p553
sg19
S'Stor tilleggsbelastning, Liten tilleggsbelastning'
p554
sg21
I5
sg22
S'300'
p555
sg24
S'100'
p556
sg26
S'Isolerte faresoner'
p557
sg28
g29
(g33
S'Jh\xdb\xec|Z\xdf?'
p558
tp559
Rp560
sg39
S'3'
p561
sg41
S'3 - Middels'
p562
sba(i__main__
M3Element
p563
(dp564
g3
F2.0
sg4
S'Lite sannsynlig'
p565
sg6
g117
sg8
(lp566
I2
aI2
aI2
aI2
aI2
aI2
aI2
aI2
aI2
asg10
S'unlikely'
p567
sg12
S'isolated slopes'
p568
sg14
g15
sg16
I0
sg17
S'NT'
p569
sg19
S'Naturlig utloest'
p570
sg21
I9
sg22
S'300'
p571
sg24
S'200'
p572
sg26
S'Isolerte faresoner'
p573
sg28
g29
(g33
S'\x00\x00\x00\x00\x00\x00\x00\x00'
p574
tp575
Rp576
sg39
g561
sg41
S'3 - Middels'
p577
sba(i__main__
M3Element
p578
(dp579
g3
F2.261904761904762
sg4
S'Mulig'
p580
sg6
g117
sg8
(lp581
I2
aI2
aI2
aI2
aI2
aI2
aI3
aI2
aI2
aI2
aI2
aI2
aI2
aI2
aI2
aI2
aI2
aI3
aI2
aI2
aI2
aI3
aI3
aI3
aI3
aI2
aI3
aI3
aI2
aI2
aI3
aI3
aI3
aI2
aI2
aI2
aI2
aI2
aI2
aI2
aI2
aI2
asg10
S'possible'
p582
sg12
S'isolated slopes'
p583
sg14
g15
sg16
I0
sg17
S'HT'
p584
sg19
S'Stor tilleggsbelastning, Liten tilleggsbelastning'
p585
sg21
I42
sg22
S'300'
p586
sg24
S'300'
p587
sg26
S'Isolerte faresoner'
p588
sg28
g29
(g33
S'\x95\x1d0*\x92#\xdc?'
p589
tp590
Rp591
sg39
g561
sg41
S'3 - Middels'
p592
sba(i__main__
M3Element
p593
(dp594
g3
F2.1515151515151514
sg4
S'Mulig'
p595
sg6
g117
sg8
(lp596
I2
aI3
aI3
aI2
aI2
aI2
aI2
aI2
aI2
aI2
aI2
aI3
aI2
aI2
aI2
aI2
aI2
aI2
aI3
aI3
aI2
aI2
aI2
aI2
aI2
aI2
aI2
aI2
aI2
aI2
aI2
aI2
aI2
asg10
S'possible'
p597
sg12
S'isolated slopes'
p598
sg14
g15
sg16
I0
sg17
S'NT'
p599
sg19
S'Naturlig utloest'
p600
sg21
I33
sg22
S'300'
p601
sg24
S'400'
p602
sg26
S'Isolerte faresoner'
p603
sg28
g29
(g33
S'\x87\xb4A\xea|\xf2\xd6?'
p604
tp605
Rp606
sg39
g561
sg41
S'3 - Middels'
p607
sba(i__main__
M3Element
p608
(dp609
g3
Nsg4
S'Sannsynlig, Meget sannsynlig'
p610
sg6
S'gray'
p611
sg8
(lp612
sg10
S'expected'
p613
sg12
S'isolated slopes'
p614
sg14
g15
sg16
I0
sg17
S'HT'
p615
sg19
S'Stor tilleggsbelastning, Liten tilleggsbelastning'
p616
sg21
Nsg22
S'300'
p617
sg24
S'500'
p618
sg26
S'Isolerte faresoner'
p619
sg28
Nsg39
g561
sg41
S'3 - Middels'
p620
sba(i__main__
M3Element
p621
(dp622
g3
Nsg4
S'Sannsynlig, Meget sannsynlig'
p623
sg6
S'gray'
p624
sg8
(lp625
sg10
S'expected'
p626
sg12
S'isolated slopes'
p627
sg14
g15
sg16
I0
sg17
S'NT'
p628
sg19
S'Naturlig utloest'
p629
sg21
Nsg22
S'300'
p630
sg24
S'600'
p631
sg26
S'Isolerte faresoner'
p632
sg28
Nsg39
g561
sg41
S'3 - Middels'
p633
sba(i__main__
M3Element
p634
(dp635
g3
F2.5
sg4
S'Lite sannsynlig'
p636
sg6
g435
sg8
(lp637
I3
aI3
aI3
aI2
aI2
aI2
aI2
aI3
aI2
aI3
aI2
aI3
aI3
aI2
asg10
S'unlikely'
p638
sg12
S'some steep slopes'
p639
sg14
g15
sg16
I0
sg17
S'HT'
p640
sg19
S'Stor tilleggsbelastning, Liten tilleggsbelastning'
p641
sg21
I14
sg22
S'300'
p642
sg24
S'700'
p643
sg26
S'Noen bratte heng'
p644
sg28
g29
(g33
S'\x00\x00\x00\x00\x00\x00\xe0?'
p645
tp646
Rp647
sg39
g561
sg41
S'3 - Middels'
p648
sba(i__main__
M3Element
p649
(dp650
g3
F2.0
sg4
S'Lite sannsynlig'
p651
sg6
g117
sg8
(lp652
I2
aI2
aI2
aI2
asg10
S'unlikely'
p653
sg12
S'some steep slopes'
p654
sg14
g15
sg16
I0
sg17
S'NT'
p655
sg19
S'Naturlig utloest'
p656
sg21
I4
sg22
S'300'
p657
sg24
S'800'
p658
sg26
S'Noen bratte heng'
p659
sg28
g29
(g33
S'\x00\x00\x00\x00\x00\x00\x00\x00'
p660
tp661
Rp662
sg39
g561
sg41
S'3 - Middels'
p663
sba(i__main__
M3Element
p664
(dp665
g3
F2.6807909604519775
sg4
S'Mulig'
p666
sg6
g435
sg8
(lp667
I3
aI3
aI3
aI3
aI3
aI2
aI3
aI3
aI3
aI3
aI2
aI2
aI3
aI2
aI2
aI2
aI3
aI3
aI3
aI3
aI2
aI2
aI3
aI3
aI3
aI3
aI3
aI3
aI3
aI3
aI3
aI2
aI2
aI3
aI3
aI3
aI2
aI2
aI2
aI2
aI3
aI3
aI3
aI3
aI2
aI2
aI3
aI3
aI3
aI3
aI2
aI2
aI3
aI3
aI3
aI2
aI3
aI3
aI3
aI3
aI2
aI2
aI2
aI3
aI3
aI3
aI2
aI2
aI3
aI3
aI3
aI2
aI2
aI2
aI3
aI3
aI3
aI3
aI3
aI3
aI3
aI2
aI2
aI2
aI3
aI3
aI3
aI3
aI3
aI2
aI2
aI2
aI2
aI3
aI2
aI2
aI3
aI3
aI3
aI3
aI2
aI2
aI3
aI3
aI3
aI2
aI2
aI3
aI3
aI2
aI2
aI2
aI3
aI3
aI2
aI2
aI2
aI2
aI3
aI3
aI3
aI3
aI2
aI2
aI2
aI3
aI2
aI3
aI3
aI3
aI2
aI3
aI3
aI3
aI2
aI2
aI3
aI2
aI2
aI3
aI3
aI3
aI3
aI3
aI3
aI3
aI2
aI3
aI3
aI3
aI3
aI3
aI3
aI3
aI3
aI3
aI3
aI2
aI3
aI3
aI3
aI3
aI3
aI3
aI3
aI3
aI3
aI3
aI3
aI2
aI3
aI3
aI3
aI3
aI2
aI3
aI3
aI3
aI3
aI3
aI3
aI3
aI3
aI3
aI3
aI3
aI3
aI3
aI3
aI3
aI3
aI3
aI3
aI3
aI3
aI2
aI3
aI3
aI3
aI3
aI3
aI3
aI3
aI3
aI3
aI3
aI3
aI3
aI3
aI2
aI2
aI2
aI3
aI3
aI2
aI3
aI2
aI3
aI2
aI2
aI2
aI2
aI2
aI2
aI2
aI2
aI2
aI3
aI3
aI3
aI2
aI3
aI3
aI3
aI3
aI3
aI3
aI3
aI2
aI2
aI2
aI2
aI2
aI2
aI3
aI3
aI3
aI2
aI2
aI3
aI2
aI3
aI3
aI3
aI3
aI2
aI3
aI3
aI3
aI3
aI3
aI3
aI3
aI3
aI3
aI3
aI3
aI3
aI3
aI2
aI3
aI2
aI3
aI3
aI2
aI3
aI3
aI2
aI3
aI3
aI2
aI2
aI3
aI3
aI3
aI3
aI3
aI3
aI3
aI3
aI3
aI3
aI3
aI3
aI3
aI3
aI3
aI3
aI2
aI2
aI2
aI2
aI2
aI2
aI2
aI2
aI3
aI3
aI3
aI3
aI3
aI2
aI3
aI3
aI3
aI2
aI2
aI3
aI3
aI2
aI2
aI2
aI3
aI3
aI3
aI3
aI3
aI3
aI2
aI2
aI3
aI3
aI3
aI3
aI3
aI3
aI3
aI3
aI3
aI3
aI3
aI3
aI3
aI2
aI2
aI2
aI3
aI3
aI3
aI2
aI2
aI3
aI3
aI3
asg10
S'possible'
p668
sg12
S'some steep slopes'
p669
sg14
g15
sg16
I0
sg17
S'HT'
p670
sg19
S'Stor tilleggsbelastning, Liten tilleggsbelastning'
p671
sg21
I354
sg22
S'300'
p672
sg24
S'900'
p673
sg26
S'Noen bratte heng'
p674
sg28
g29
(g33
S'EQ\tj\xbb\xd5\xdd?'
p675
tp676
Rp677
sg39
g561
sg41
S'3 - Middels'
p678
sba(i__main__
M3Element
p679
(dp680
g3
F3.0
sg4
S'Mulig'
p681
sg6
g435
sg8
(lp682
I3
aI3
aI3
aI3
aI3
aI3
aI3
aI3
aI3
aI3
aI3
aI3
aI3
aI3
aI3
aI3
aI3
aI3
aI3
aI3
aI3
aI3
aI3
aI3
aI3
aI3
aI3
aI3
aI3
aI3
aI3
aI3
aI3
aI3
aI3
aI3
aI3
aI3
aI4
aI3
aI3
aI3
aI3
aI3
aI3
aI3
aI3
aI3
aI3
aI3
aI3
aI3
aI3
aI3
aI3
aI3
aI3
aI3
aI3
aI3
aI3
aI3
aI3
aI3
aI3
aI3
aI3
aI3
aI2
aI3
aI4
aI3
aI3
aI3
aI3
aI3
aI3
aI3
aI3
aI3
aI3
aI3
aI3
aI3
aI3
aI3
aI3
aI3
aI3
aI3
aI3
aI3
aI3
aI3
aI3
aI3
aI3
aI3
aI3
aI3
aI3
aI3
aI3
aI2
aI3
aI3
aI3
aI3
aI3
aI3
aI3
aI3
aI3
aI3
aI3
aI3
aI3
aI3
aI3
aI3
aI3
aI3
aI3
aI3
aI3
aI3
aI3
aI3
aI3
aI3
aI3
aI3
aI3
aI3
aI3
aI3
aI3
aI3
aI3
aI3
aI3
aI3
aI3
aI3
aI3
aI3
aI3
aI3
aI3
aI3
aI3
aI3
asg10
S'possible'
p683
sg12
S'some steep slopes'
p684
sg14
g15
sg16
I0
sg17
S'NT'
p685
sg19
S'Naturlig utloest'
p686
sg21
I152
sg22
S'300'
p687
sg24
S'1000'
p688
sg26
S'Noen bratte heng'
p689
sg28
g29
(g33
S't\xcf;\xe9\xab\xc3\xc4?'
p690
tp691
Rp692
sg39
g561
sg41
S'3 - Middels'
p693
sba(i__main__
M3Element
p694
(dp695
g3
F3.0
sg4
S'Sannsynlig, Meget sannsynlig'
p696
sg6
g435
sg8
(lp697
I3
aI3
aI3
aI3
aI3
aI3
aI3
aI3
aI3
aI3
aI3
asg10
S'expected'
p698
sg12
S'some steep slopes'
p699
sg14
g15
sg16
I0
sg17
S'HT'
p700
sg19
S'Stor tilleggsbelastning, Liten tilleggsbelastning'
p701
sg21
I11
sg22
S'300'
p702
sg24
S'1100'
p703
sg26
S'Noen bratte heng'
p704
sg28
g29
(g33
S'\x00\x00\x00\x00\x00\x00\x00\x00'
p705
tp706
Rp707
sg39
g561
sg41
S'3 - Middels'
p708
sba(i__main__
M3Element
p709
(dp710
g3
F3.5238095238095237
sg4
S'Sannsynlig, Meget sannsynlig'
p711
sg6
S'#ff0000'
p712
sg8
(lp713
I3
aI3
aI3
aI4
aI4
aI4
aI3
aI3
aI3
aI4
aI3
aI3
aI3
aI4
aI4
aI4
aI4
aI4
aI3
aI4
aI4
asg10
S'expected'
p714
sg12
S'some steep slopes'
p715
sg14
g15
sg16
I0
sg17
S'NT'
p716
sg19
S'Naturlig utloest'
p717
sg21
I21
sg22
S'300'
p718
sg24
S'1200'
p719
sg26
S'Noen bratte heng'
p720
sg28
g29
(g33
S'd\xd6\\\xed\xb4\xf6\xdf?'
p721
tp722
Rp723
sg39
g561
sg41
S'3 - Middels'
p724
sba(i__main__
M3Element
p725
(dp726
g3
Nsg4
S'Lite sannsynlig'
p727
sg6
S'gray'
p728
sg8
(lp729
sg10
S'unlikely'
p730
sg12
S'many steep slopes'
p731
sg14
g15
sg16
I0
sg17
S'HT'
p732
sg19
S'Stor tilleggsbelastning, Liten tilleggsbelastning'
p733
sg21
Nsg22
S'300'
p734
sg24
S'1300'
p735
sg26
S'Mange bratte heng, De fleste bratte heng, Ogsaa i mindre bratt terreng'
p736
sg28
Nsg39
g561
sg41
S'3 - Middels'
p737
sba(i__main__
M3Element
p738
(dp739
g3
Nsg4
S'Lite sannsynlig'
p740
sg6
S'gray'
p741
sg8
(lp742
sg10
S'unlikely'
p743
sg12
S'many steep slopes'
p744
sg14
g15
sg16
I0
sg17
S'NT'
p745
sg19
S'Naturlig utloest'
p746
sg21
Nsg22
S'300'
p747
sg24
S'1400'
p748
sg26
S'Mange bratte heng, De fleste bratte heng, Ogsaa i mindre bratt terreng'
p749
sg28
Nsg39
g561
sg41
S'3 - Middels'
p750
sba(i__main__
M3Element
p751
(dp752
g3
F2.870967741935484
sg4
S'Mulig'
p753
sg6
g435
sg8
(lp754
I3
aI3
aI3
aI3
aI2
aI2
aI3
aI3
aI3
aI3
aI3
aI3
aI2
aI3
aI3
aI3
aI3
aI3
aI2
aI2
aI3
aI3
aI3
aI3
aI3
aI3
aI2
aI3
aI3
aI3
aI3
aI3
aI3
aI3
aI3
aI2
aI3
aI3
aI3
aI3
aI3
aI3
aI3
aI3
aI2
aI3
aI3
aI3
aI3
aI3
aI3
aI2
aI3
aI3
aI3
aI3
aI3
aI3
aI3
aI3
aI2
aI2
aI2
aI3
aI3
aI3
aI3
aI2
aI2
aI2
aI3
aI3
aI3
aI3
aI3
aI3
aI3
aI3
aI3
aI3
aI3
aI3
aI3
aI3
aI3
aI3
aI3
aI3
aI3
aI3
aI3
aI3
aI3
aI3
aI3
aI3
aI3
aI3
aI3
aI3
aI3
aI3
aI3
aI3
aI3
aI3
aI3
aI3
aI3
aI3
aI2
aI3
aI3
aI3
aI3
aI3
aI3
aI3
aI3
aI3
aI3
aI3
aI3
aI3
asg10
S'possible'
p755
sg12
S'many steep slopes'
p756
sg14
g15
sg16
I0
sg17
S'HT'
p757
sg19
S'Stor tilleggsbelastning, Liten tilleggsbelastning'
p758
sg21
I124
sg22
S'300'
p759
sg24
S'1500'
p760
sg26
S'Mange bratte heng, De fleste bratte heng, Ogsaa i mindre bratt terreng'
p761
sg28
g29
(g33
S'd;\xc0/\x80t\xd5?'
p762
tp763
Rp764
sg39
g561
sg41
S'3 - Middels'
p765
sba(i__main__
M3Element
p766
(dp767
g3
F3.2162162162162162
sg4
S'Mulig'
p768
sg6
g435
sg8
(lp769
I3
aI3
aI3
aI3
aI4
aI4
aI3
aI4
aI4
aI3
aI3
aI3
aI4
aI3
aI3
aI3
aI3
aI3
aI3
aI3
aI3
aI3
aI3
aI3
aI3
aI4
aI4
aI3
aI3
aI4
aI3
aI3
aI3
aI3
aI3
aI3
aI3
asg10
S'possible'
p770
sg12
S'many steep slopes'
p771
sg14
g15
sg16
I0
sg17
S'NT'
p772
sg19
S'Naturlig utloest'
p773
sg21
I37
sg22
S'300'
p774
sg24
S'1600'
p775
sg26
S'Mange bratte heng, De fleste bratte heng, Ogsaa i mindre bratt terreng'
p776
sg28
g29
(g33
S'2;\xf0}\xb1X\xda?'
p777
tp778
Rp779
sg39
g561
sg41
S'3 - Middels'
p780
sba(i__main__
M3Element
p781
(dp782
g3
F3.375
sg4
S'Sannsynlig, Meget sannsynlig'
p783
sg6
g435
sg8
(lp784
I3
aI4
aI3
aI3
aI3
aI3
aI3
aI4
aI3
aI3
aI4
aI4
aI4
aI4
aI3
aI3
asg10
S'expected'
p785
sg12
S'many steep slopes'
p786
sg14
g15
sg16
I0
sg17
S'HT'
p787
sg19
S'Stor tilleggsbelastning, Liten tilleggsbelastning'
p788
sg21
I16
sg22
S'300'
p789
sg24
S'1700'
p790
sg26
S'Mange bratte heng, De fleste bratte heng, Ogsaa i mindre bratt terreng'
p791
sg28
g29
(g33
S'\xdaNO\xb1\xde\xfb\xde?'
p792
tp793
Rp794
sg39
g561
sg41
S'3 - Middels'
p795
sba(i__main__
M3Element
p796
(dp797
g3
F4.0
sg4
S'Sannsynlig, Meget sannsynlig'
p798
sg6
g712
sg8
(lp799
I4
aI4
aI4
aI4
aI4
aI4
aI4
aI4
aI4
aI4
aI4
aI4
aI4
aI4
aI4
aI4
aI4
aI4
aI4
aI4
aI4
aI4
aI4
aI4
aI4
aI4
aI4
aI4
aI4
aI4
aI4
aI4
aI4
aI4
aI4
aI4
aI4
aI4
aI4
asg10
S'expected'
p800
sg12
S'many steep slopes'
p801
sg14
g15
sg16
I0
sg17
S'NT'
p802
sg19
S'Naturlig utloest'
p803
sg21
I39
sg22
S'300'
p804
sg24
S'1800'
p805
sg26
S'Mange bratte heng, De fleste bratte heng, Ogsaa i mindre bratt terreng'
p806
sg28
g29
(g33
S'\x00\x00\x00\x00\x00\x00\x00\x00'
p807
tp808
Rp809
sg39
g561
sg41
S'3 - Middels'
p810
sba(i__main__
M3Element
p811
(dp812
g3
Nsg4
S'Lite sannsynlig'
p813
sg6
S'white'
p814
sg8
(lp815
sg10
S'unlikely'
p816
sg12
S'isolated slopes'
p817
sg14
g15
sg16
I0
sg17
S'HT'
p818
sg19
S'Stor tilleggsbelastning, Liten tilleggsbelastning'
p819
sg21
Nsg22
S'400'
p820
sg24
S'100'
p821
sg26
S'Isolerte faresoner'
p822
sg28
Nsg39
S'4'
p823
sg41
S'4 - Store'
p824
sba(i__main__
M3Element
p825
(dp826
g3
Nsg4
S'Lite sannsynlig'
p827
sg6
S'white'
p828
sg8
(lp829
sg10
S'unlikely'
p830
sg12
S'isolated slopes'
p831
sg14
g15
sg16
I0
sg17
S'NT'
p832
sg19
S'Naturlig utloest'
p833
sg21
Nsg22
S'400'
p834
sg24
S'200'
p835
sg26
S'Isolerte faresoner'
p836
sg28
Nsg39
g823
sg41
S'4 - Store'
p837
sba(i__main__
M3Element
p838
(dp839
g3
Nsg4
S'Mulig'
p840
sg6
S'white'
p841
sg8
(lp842
sg10
S'possible'
p843
sg12
S'isolated slopes'
p844
sg14
g15
sg16
I0
sg17
S'HT'
p845
sg19
S'Stor tilleggsbelastning, Liten tilleggsbelastning'
p846
sg21
Nsg22
S'400'
p847
sg24
S'300'
p848
sg26
S'Isolerte faresoner'
p849
sg28
Nsg39
g823
sg41
S'4 - Store'
p850
sba(i__main__
M3Element
p851
(dp852
g3
F3.0
sg4
S'Mulig'
p853
sg6
g435
sg8
(lp854
I3
asg10
S'possible'
p855
sg12
S'isolated slopes'
p856
sg14
g15
sg16
I0
sg17
S'NT'
p857
sg19
S'Naturlig utloest'
p858
sg21
I1
sg22
S'400'
p859
sg24
S'400'
p860
sg26
S'Isolerte faresoner'
p861
sg28
g29
(g33
S'\x00\x00\x00\x00\x00\x00\x00\x00'
p862
tp863
Rp864
sg39
g823
sg41
S'4 - Store'
p865
sba(i__main__
M3Element
p866
(dp867
g3
Nsg4
S'Sannsynlig, Meget sannsynlig'
p868
sg6
S'gray'
p869
sg8
(lp870
sg10
S'expected'
p871
sg12
S'isolated slopes'
p872
sg14
g15
sg16
I0
sg17
S'HT'
p873
sg19
S'Stor tilleggsbelastning, Liten tilleggsbelastning'
p874
sg21
Nsg22
S'400'
p875
sg24
S'500'
p876
sg26
S'Isolerte faresoner'
p877
sg28
Nsg39
g823
sg41
S'4 - Store'
p878
sba(i__main__
M3Element
p879
(dp880
g3
Nsg4
S'Sannsynlig, Meget sannsynlig'
p881
sg6
S'gray'
p882
sg8
(lp883
sg10
S'expected'
p884
sg12
S'isolated slopes'
p885
sg14
g15
sg16
I0
sg17
S'NT'
p886
sg19
S'Naturlig utloest'
p887
sg21
Nsg22
S'400'
p888
sg24
S'600'
p889
sg26
S'Isolerte faresoner'
p890
sg28
Nsg39
g823
sg41
S'4 - Store'
p891
sba(i__main__
M3Element
p892
(dp893
g3
Nsg4
S'Lite sannsynlig'
p894
sg6
S'white'
p895
sg8
(lp896
sg10
S'unlikely'
p897
sg12
S'some steep slopes'
p898
sg14
g15
sg16
I0
sg17
S'HT'
p899
sg19
S'Stor tilleggsbelastning, Liten tilleggsbelastning'
p900
sg21
Nsg22
S'400'
p901
sg24
S'700'
p902
sg26
S'Noen bratte heng'
p903
sg28
Nsg39
g823
sg41
S'4 - Store'
p904
sba(i__main__
M3Element
p905
(dp906
g3
Nsg4
S'Lite sannsynlig'
p907
sg6
S'white'
p908
sg8
(lp909
sg10
S'unlikely'
p910
sg12
S'some steep slopes'
p911
sg14
g15
sg16
I0
sg17
S'NT'
p912
sg19
S'Naturlig utloest'
p913
sg21
Nsg22
S'400'
p914
sg24
S'800'
p915
sg26
S'Noen bratte heng'
p916
sg28
Nsg39
g823
sg41
S'4 - Store'
p917
sba(i__main__
M3Element
p918
(dp919
g3
F2.7777777777777777
sg4
S'Mulig'
p920
sg6
g435
sg8
(lp921
I3
aI3
aI3
aI3
aI3
aI3
aI3
aI2
aI2
asg10
S'possible'
p922
sg12
S'some steep slopes'
p923
sg14
g15
sg16
I0
sg17
S'HT'
p924
sg19
S'Stor tilleggsbelastning, Liten tilleggsbelastning'
p925
sg21
I9
sg22
S'400'
p926
sg24
S'900'
p927
sg26
S'Noen bratte heng'
p928
sg28
g29
(g33
S'z\xc6#\xbaz\x9b\xda?'
p929
tp930
Rp931
sg39
g823
sg41
S'4 - Store'
p932
sba(i__main__
M3Element
p933
(dp934
g3
F3.3333333333333335
sg4
S'Mulig'
p935
sg6
g435
sg8
(lp936
I4
aI3
aI3
aI3
aI4
aI3
aI3
aI3
aI3
aI3
aI4
aI4
asg10
S'possible'
p937
sg12
S'some steep slopes'
p938
sg14
g15
sg16
I0
sg17
S'NT'
p939
sg19
S'Naturlig utloest'
p940
sg21
I12
sg22
S'400'
p941
sg24
S'1000'
p942
sg26
S'Noen bratte heng'
p943
sg28
g29
(g33
S'f\xfa\xfe\xdd}+\xde?'
p944
tp945
Rp946
sg39
g823
sg41
S'4 - Store'
p947
sba(i__main__
M3Element
p948
(dp949
g3
Nsg4
S'Sannsynlig, Meget sannsynlig'
p950
sg6
S'white'
p951
sg8
(lp952
sg10
S'expected'
p953
sg12
S'some steep slopes'
p954
sg14
g15
sg16
I0
sg17
S'HT'
p955
sg19
S'Stor tilleggsbelastning, Liten tilleggsbelastning'
p956
sg21
Nsg22
S'400'
p957
sg24
S'1100'
p958
sg26
S'Noen bratte heng'
p959
sg28
Nsg39
g823
sg41
S'4 - Store'
p960
sba(i__main__
M3Element
p961
(dp962
g3
Nsg4
S'Sannsynlig, Meget sannsynlig'
p963
sg6
S'white'
p964
sg8
(lp965
sg10
S'expected'
p966
sg12
S'some steep slopes'
p967
sg14
g15
sg16
I0
sg17
S'NT'
p968
sg19
S'Naturlig utloest'
p969
sg21
Nsg22
S'400'
p970
sg24
S'1200'
p971
sg26
S'Noen bratte heng'
p972
sg28
Nsg39
g823
sg41
S'4 - Store'
p973
sba(i__main__
M3Element
p974
(dp975
g3
Nsg4
S'Lite sannsynlig'
p976
sg6
S'gray'
p977
sg8
(lp978
sg10
S'unlikely'
p979
sg12
S'many steep slopes'
p980
sg14
g15
sg16
I0
sg17
S'HT'
p981
sg19
S'Stor tilleggsbelastning, Liten tilleggsbelastning'
p982
sg21
Nsg22
S'400'
p983
sg24
S'1300'
p984
sg26
S'Mange bratte heng, De fleste bratte heng, Ogsaa i mindre bratt terreng'
p985
sg28
Nsg39
g823
sg41
S'4 - Store'
p986
sba(i__main__
M3Element
p987
(dp988
g3
Nsg4
S'Lite sannsynlig'
p989
sg6
S'gray'
p990
sg8
(lp991
sg10
S'unlikely'
p992
sg12
S'many steep slopes'
p993
sg14
g15
sg16
I0
sg17
S'NT'
p994
sg19
S'Naturlig utloest'
p995
sg21
Nsg22
S'400'
p996
sg24
S'1400'
p997
sg26
S'Mange bratte heng, De fleste bratte heng, Ogsaa i mindre bratt terreng'
p998
sg28
Nsg39
g823
sg41
S'4 - Store'
p999
sba(i__main__
M3Element
p1000
(dp1001
g3
Nsg4
S'Mulig'
p1002
sg6
S'white'
p1003
sg8
(lp1004
sg10
S'possible'
p1005
sg12
S'many steep slopes'
p1006
sg14
g15
sg16
I0
sg17
S'HT'
p1007
sg19
S'Stor tilleggsbelastning, Liten tilleggsbelastning'
p1008
sg21
Nsg22
S'400'
p1009
sg24
S'1500'
p1010
sg26
S'Mange bratte heng, De fleste bratte heng, Ogsaa i mindre bratt terreng'
p1011
sg28
Nsg39
g823
sg41
S'4 - Store'
p1012
sba(i__main__
M3Element
p1013
(dp1014
g3
F4.0
sg4
S'Mulig'
p1015
sg6
g712
sg8
(lp1016
I4
aI4
aI4
aI4
aI4
aI4
aI4
aI4
asg10
S'possible'
p1017
sg12
S'many steep slopes'
p1018
sg14
g15
sg16
I0
sg17
S'NT'
p1019
sg19
S'Naturlig utloest'
p1020
sg21
I8
sg22
S'400'
p1021
sg24
S'1600'
p1022
sg26
S'Mange bratte heng, De fleste bratte heng, Ogsaa i mindre bratt terreng'
p1023
sg28
g29
(g33
S'\x00\x00\x00\x00\x00\x00\x00\x00'
p1024
tp1025
Rp1026
sg39
g823
sg41
S'4 - Store'
p1027
sba(i__main__
M3Element
p1028
(dp1029
g3
Nsg4
S'Sannsynlig, Meget sannsynlig'
p1030
sg6
S'white'
p1031
sg8
(lp1032
sg10
S'expected'
p1033
sg12
S'many steep slopes'
p1034
sg14
g15
sg16
I0
sg17
S'HT'
p1035
sg19
S'Stor tilleggsbelastning, Liten tilleggsbelastning'
p1036
sg21
Nsg22
S'400'
p1037
sg24
S'1700'
p1038
sg26
S'Mange bratte heng, De fleste bratte heng, Ogsaa i mindre bratt terreng'
p1039
sg28
Nsg39
g823
sg41
S'4 - Store'
p1040
sba(i__main__
M3Element
p1041
(dp1042
g3
Nsg4
S'Sannsynlig, Meget sannsynlig'
p1043
sg6
S'white'
p1044
sg8
(lp1045
sg10
S'expected'
p1046
sg12
S'many steep slopes'
p1047
sg14
g15
sg16
I0
sg17
S'NT'
p1048
sg19
S'Naturlig utloest'
p1049
sg21
Nsg22
S'400'
p1050
sg24
S'1800'
p1051
sg26
S'Mange bratte heng, De fleste bratte heng, Ogsaa i mindre bratt terreng'
p1052
sg28
Nsg39
g823
sg41
S'4 - Store'
p1053
sba(i__main__
M3Element
p1054
(dp1055
g3
Nsg4
S'Lite sannsynlig'
p1056
sg6
S'white'
p1057
sg8
(lp1058
sg10
S'unlikely'
p1059
sg12
S'isolated slopes'
p1060
sg14
g15
sg16
I0
sg17
S'HT'
p1061
sg19
S'Stor tilleggsbelastning, Liten tilleggsbelastning'
p1062
sg21
Nsg22
S'500'
p1063
sg24
S'100'
p1064
sg26
S'Isolerte faresoner'
p1065
sg28
Nsg39
S'5'
p1066
sg41
S'5 - Svaert store'
p1067
sba(i__main__
M3Element
p1068
(dp1069
g3
Nsg4
S'Lite sannsynlig'
p1070
sg6
S'white'
p1071
sg8
(lp1072
sg10
S'unlikely'
p1073
sg12
S'isolated slopes'
p1074
sg14
g15
sg16
I0
sg17
S'NT'
p1075
sg19
S'Naturlig utloest'
p1076
sg21
Nsg22
S'500'
p1077
sg24
S'200'
p1078
sg26
S'Isolerte faresoner'
p1079
sg28
Nsg39
g1066
sg41
S'5 - Svaert store'
p1080
sba(i__main__
M3Element
p1081
(dp1082
g3
Nsg4
S'Mulig'
p1083
sg6
S'white'
p1084
sg8
(lp1085
sg10
S'possible'
p1086
sg12
S'isolated slopes'
p1087
sg14
g15
sg16
I0
sg17
S'HT'
p1088
sg19
S'Stor tilleggsbelastning, Liten tilleggsbelastning'
p1089
sg21
Nsg22
S'500'
p1090
sg24
S'300'
p1091
sg26
S'Isolerte faresoner'
p1092
sg28
Nsg39
g1066
sg41
S'5 - Svaert store'
p1093
sba(i__main__
M3Element
p1094
(dp1095
g3
Nsg4
S'Mulig'
p1096
sg6
S'white'
p1097
sg8
(lp1098
sg10
S'possible'
p1099
sg12
S'isolated slopes'
p1100
sg14
g15
sg16
I0
sg17
S'NT'
p1101
sg19
S'Naturlig utloest'
p1102
sg21
Nsg22
S'500'
p1103
sg24
S'400'
p1104
sg26
S'Isolerte faresoner'
p1105
sg28
Nsg39
g1066
sg41
S'5 - Svaert store'
p1106
sba(i__main__
M3Element
p1107
(dp1108
g3
Nsg4
S'Sannsynlig, Meget sannsynlig'
p1109
sg6
S'gray'
p1110
sg8
(lp1111
sg10
S'expected'
p1112
sg12
S'isolated slopes'
p1113
sg14
g15
sg16
I0
sg17
S'HT'
p1114
sg19
S'Stor tilleggsbelastning, Liten tilleggsbelastning'
p1115
sg21
Nsg22
S'500'
p1116
sg24
S'500'
p1117
sg26
S'Isolerte faresoner'
p1118
sg28
Nsg39
g1066
sg41
S'5 - Svaert store'
p1119
sba(i__main__
M3Element
p1120
(dp1121
g3
Nsg4
S'Sannsynlig, Meget sannsynlig'
p1122
sg6
S'gray'
p1123
sg8
(lp1124
sg10
S'expected'
p1125
sg12
S'isolated slopes'
p1126
sg14
g15
sg16
I0
sg17
S'NT'
p1127
sg19
S'Naturlig utloest'
p1128
sg21
Nsg22
S'500'
p1129
sg24
S'600'
p1130
sg26
S'Isolerte faresoner'
p1131
sg28
Nsg39
g1066
sg41
S'5 - Svaert store'
p1132
sba(i__main__
M3Element
p1133
(dp1134
g3
Nsg4
S'Lite sannsynlig'
p1135
sg6
S'white'
p1136
sg8
(lp1137
sg10
S'unlikely'
p1138
sg12
S'some steep slopes'
p1139
sg14
g15
sg16
I0
sg17
S'HT'
p1140
sg19
S'Stor tilleggsbelastning, Liten tilleggsbelastning'
p1141
sg21
Nsg22
S'500'
p1142
sg24
S'700'
p1143
sg26
S'Noen bratte heng'
p1144
sg28
Nsg39
g1066
sg41
S'5 - Svaert store'
p1145
sba(i__main__
M3Element
p1146
(dp1147
g3
Nsg4
S'Lite sannsynlig'
p1148
sg6
S'white'
p1149
sg8
(lp1150
sg10
S'unlikely'
p1151
sg12
S'some steep slopes'
p1152
sg14
g15
sg16
I0
sg17
S'NT'
p1153
sg19
S'Naturlig utloest'
p1154
sg21
Nsg22
S'500'
p1155
sg24
S'800'
p1156
sg26
S'Noen bratte heng'
p1157
sg28
Nsg39
g1066
sg41
S'5 - Svaert store'
p1158
sba(i__main__
M3Element
p1159
(dp1160
g3
Nsg4
S'Mulig'
p1161
sg6
S'white'
p1162
sg8
(lp1163
sg10
S'possible'
p1164
sg12
S'some steep slopes'
p1165
sg14
g15
sg16
I0
sg17
S'HT'
p1166
sg19
S'Stor tilleggsbelastning, Liten tilleggsbelastning'
p1167
sg21
Nsg22
S'500'
p1168
sg24
S'900'
p1169
sg26
S'Noen bratte heng'
p1170
sg28
Nsg39
g1066
sg41
S'5 - Svaert store'
p1171
sba(i__main__
M3Element
p1172
(dp1173
g3
Nsg4
S'Mulig'
p1174
sg6
S'white'
p1175
sg8
(lp1176
sg10
S'possible'
p1177
sg12
S'some steep slopes'
p1178
sg14
g15
sg16
I0
sg17
S'NT'
p1179
sg19
S'Naturlig utloest'
p1180
sg21
Nsg22
S'500'
p1181
sg24
S'1000'
p1182
sg26
S'Noen bratte heng'
p1183
sg28
Nsg39
g1066
sg41
S'5 - Svaert store'
p1184
sba(i__main__
M3Element
p1185
(dp1186
g3
Nsg4
S'Sannsynlig, Meget sannsynlig'
p1187
sg6
S'white'
p1188
sg8
(lp1189
sg10
S'expected'
p1190
sg12
S'some steep slopes'
p1191
sg14
g15
sg16
I0
sg17
S'HT'
p1192
sg19
S'Stor tilleggsbelastning, Liten tilleggsbelastning'
p1193
sg21
Nsg22
S'500'
p1194
sg24
S'1100'
p1195
sg26
S'Noen bratte heng'
p1196
sg28
Nsg39
g1066
sg41
S'5 - Svaert store'
p1197
sba(i__main__
M3Element
p1198
(dp1199
g3
Nsg4
S'Sannsynlig, Meget sannsynlig'
p1200
sg6
S'white'
p1201
sg8
(lp1202
sg10
S'expected'
p1203
sg12
S'some steep slopes'
p1204
sg14
g15
sg16
I0
sg17
S'NT'
p1205
sg19
S'Naturlig utloest'
p1206
sg21
Nsg22
S'500'
p1207
sg24
S'1200'
p1208
sg26
S'Noen bratte heng'
p1209
sg28
Nsg39
g1066
sg41
S'5 - Svaert store'
p1210
sba(i__main__
M3Element
p1211
(dp1212
g3
Nsg4
S'Lite sannsynlig'
p1213
sg6
S'gray'
p1214
sg8
(lp1215
sg10
S'unlikely'
p1216
sg12
S'many steep slopes'
p1217
sg14
g15
sg16
I0
sg17
S'HT'
p1218
sg19
S'Stor tilleggsbelastning, Liten tilleggsbelastning'
p1219
sg21
Nsg22
S'500'
p1220
sg24
S'1300'
p1221
sg26
S'Mange bratte heng, De fleste bratte heng, Ogsaa i mindre bratt terreng'
p1222
sg28
Nsg39
g1066
sg41
S'5 - Svaert store'
p1223
sba(i__main__
M3Element
p1224
(dp1225
g3
Nsg4
S'Lite sannsynlig'
p1226
sg6
S'gray'
p1227
sg8
(lp1228
sg10
S'unlikely'
p1229
sg12
S'many steep slopes'
p1230
sg14
g15
sg16
I0
sg17
S'NT'
p1231
sg19
S'Naturlig utloest'
p1232
sg21
Nsg22
S'500'
p1233
sg24
S'1400'
p1234
sg26
S'Mange bratte heng, De fleste bratte heng, Ogsaa i mindre bratt terreng'
p1235
sg28
Nsg39
g1066
sg41
S'5 - Svaert store'
p1236
sba(i__main__
M3Element
p1237
(dp1238
g3
Nsg4
S'Mulig'
p1239
sg6
S'white'
p1240
sg8
(lp1241
sg10
S'possible'
p1242
sg12
S'many steep slopes'
p1243
sg14
g15
sg16
I0
sg17
S'HT'
p1244
sg19
S'Stor tilleggsbelastning, Liten tilleggsbelastning'
p1245
sg21
Nsg22
S'500'
p1246
sg24
S'1500'
p1247
sg26
S'Mange bratte heng, De fleste bratte heng, Ogsaa i mindre bratt terreng'
p1248
sg28
Nsg39
g1066
sg41
S'5 - Svaert store'
p1249
sba(i__main__
M3Element
p1250
(dp1251
g3
Nsg4
S'Mulig'
p1252
sg6
S'white'
p1253
sg8
(lp1254
sg10
S'possible'
p1255
sg12
S'many steep slopes'
p1256
sg14
g15
sg16
I0
sg17
S'NT'
p1257
sg19
S'Naturlig utloest'
p1258
sg21
Nsg22
S'500'
p1259
sg24
S'1600'
p1260
sg26
S'Mange bratte heng, De fleste bratte heng, Ogsaa i mindre bratt terreng'
p1261
sg28
Nsg39
g1066
sg41
S'5 - Svaert store'
p1262
sba(i__main__
M3Element
p1263
(dp1264
g3
Nsg4
S'Sannsynlig, Meget sannsynlig'
p1265
sg6
S'white'
p1266
sg8
(lp1267
sg10
S'expected'
p1268
sg12
S'many steep slopes'
p1269
sg14
g15
sg16
I0
sg17
S'HT'
p1270
sg19
S'Stor tilleggsbelastning, Liten tilleggsbelastning'
p1271
sg21
Nsg22
S'500'
p1272
sg24
S'1700'
p1273
sg26
S'Mange bratte heng, De fleste bratte heng, Ogsaa i mindre bratt terreng'
p1274
sg28
Nsg39
g1066
sg41
S'5 - Svaert store'
p1275
sba(i__main__
M3Element
p1276
(dp1277
g3
Nsg4
S'Sannsynlig, Meget sannsynlig'
p1278
sg6
S'white'
p1279
sg8
(lp1280
sg10
S'expected'
p1281
sg12
S'many steep slopes'
p1282
sg14
g15
sg16
I0
sg17
S'NT'
p1283
sg19
S'Naturlig utloest'
p1284
sg21
Nsg22
S'500'
p1285
sg24
S'1800'
p1286
sg26
S'Mange bratte heng, De fleste bratte heng, Ogsaa i mindre bratt terreng'
p1287
sg28
Nsg39
g1066
sg41
S'5 - Svaert store'
p1288
sba.