(lp0
(irunmatrix
M3Element
p1
(dp2
S'danger_level_average'
p3
NsS'probability'
p4
S'Lite sannsynlig, Mulig'
p5
sS'colour'
p6
S'white'
p7
sS'danger_level_list'
p8
(lp9
sS'label_probalility'
p10
S'Possible'
p11
sS'label_distribution'
p12
S'Isolated'
p13
sS'recomended_colour'
p14
S'#ccff66'
p15
sS'recomended_danger_level'
p16
I1
sS'label_trigger'
p17
S'High'
p18
sS'trigger'
p19
S'Stor tilleggsbelastning'
p20
sS'occurrences'
p21
NsS'y'
p22
S'100'
p23
sS'x'
p24
S'100'
p25
sS'distribution'
p26
S'Isolerte faresoner'
p27
sS'danger_level_standard_dev'
p28
NsS'label_size'
p29
S'1'
p30
sS'avalanche_size'
p31
S'1 - Harmloest'
p32
sba(irunmatrix
M3Element
p33
(dp34
g3
Nsg4
S'Lite sannsynlig, Mulig'
p35
sg6
S'white'
p36
sg8
(lp37
sg10
S'Possible'
p38
sg12
S'Isolated'
p39
sg14
g15
sg16
I1
sg17
S'Low'
p40
sg19
S'Liten tilleggsbelastning'
p41
sg21
Nsg22
S'100'
p42
sg24
S'200'
p43
sg26
S'Isolerte faresoner'
p44
sg28
Nsg29
g30
sg31
S'1 - Harmloest'
p45
sba(irunmatrix
M3Element
p46
(dp47
g3
Nsg4
S'Lite sannsynlig, Mulig'
p48
sg6
S'white'
p49
sg8
(lp50
sg10
S'Possible'
p51
sg12
S'Isolated'
p52
sg14
g15
sg16
I1
sg17
S'Nat'
p53
sg19
S'Naturlig utloest'
p54
sg21
Nsg22
S'100'
p55
sg24
S'300'
p56
sg26
S'Isolerte faresoner'
p57
sg28
Nsg29
g30
sg31
S'1 - Harmloest'
p58
sba(irunmatrix
M3Element
p59
(dp60
g3
Nsg4
S'Sannsynlig, Meget sannsynlig'
p61
sg6
S'gray'
p62
sg8
(lp63
sg10
S'Likely'
p64
sg12
S'Isolated'
p65
sg14
S'gray'
p66
sg16
I0
sg17
S'High'
p67
sg19
S'Stor tilleggsbelastning'
p68
sg21
Nsg22
S'100'
p69
sg24
S'400'
p70
sg26
S'Isolerte faresoner'
p71
sg28
Nsg29
g30
sg31
S'1 - Harmloest'
p72
sba(irunmatrix
M3Element
p73
(dp74
g3
Nsg4
S'Sannsynlig, Meget sannsynlig'
p75
sg6
S'gray'
p76
sg8
(lp77
sg10
S'Likely'
p78
sg12
S'Isolated'
p79
sg14
g66
sg16
I0
sg17
S'Low'
p80
sg19
S'Liten tilleggsbelastning'
p81
sg21
Nsg22
S'100'
p82
sg24
S'500'
p83
sg26
S'Isolerte faresoner'
p84
sg28
Nsg29
g30
sg31
S'1 - Harmloest'
p85
sba(irunmatrix
M3Element
p86
(dp87
g3
Nsg4
S'Sannsynlig, Meget sannsynlig'
p88
sg6
S'gray'
p89
sg8
(lp90
sg10
S'Likely'
p91
sg12
S'Isolated'
p92
sg14
g66
sg16
I0
sg17
S'Nat'
p93
sg19
S'Naturlig utloest'
p94
sg21
Nsg22
S'100'
p95
sg24
S'600'
p96
sg26
S'Isolerte faresoner'
p97
sg28
Nsg29
g30
sg31
S'1 - Harmloest'
p98
sba(irunmatrix
M3Element
p99
(dp100
g3
Nsg4
S'Lite sannsynlig, Mulig'
p101
sg6
S'white'
p102
sg8
(lp103
sg10
S'Possible'
p104
sg12
S'Some'
p105
sg14
g15
sg16
I1
sg17
S'High'
p106
sg19
S'Stor tilleggsbelastning'
p107
sg21
Nsg22
S'100'
p108
sg24
S'700'
p109
sg26
S'Noen bratte heng'
p110
sg28
Nsg29
g30
sg31
S'1 - Harmloest'
p111
sba(irunmatrix
M3Element
p112
(dp113
g3
Nsg4
S'Lite sannsynlig, Mulig'
p114
sg6
S'white'
p115
sg8
(lp116
sg10
S'Possible'
p117
sg12
S'Some'
p118
sg14
g15
sg16
I1
sg17
S'Low'
p119
sg19
S'Liten tilleggsbelastning'
p120
sg21
Nsg22
S'100'
p121
sg24
S'800'
p122
sg26
S'Noen bratte heng'
p123
sg28
Nsg29
g30
sg31
S'1 - Harmloest'
p124
sba(irunmatrix
M3Element
p125
(dp126
g3
Nsg4
S'Lite sannsynlig, Mulig'
p127
sg6
S'white'
p128
sg8
(lp129
sg10
S'Possible'
p130
sg12
S'Some'
p131
sg14
g15
sg16
I1
sg17
S'Nat'
p132
sg19
S'Naturlig utloest'
p133
sg21
Nsg22
S'100'
p134
sg24
S'900'
p135
sg26
S'Noen bratte heng'
p136
sg28
Nsg29
g30
sg31
S'1 - Harmloest'
p137
sba(irunmatrix
M3Element
p138
(dp139
g3
Nsg4
S'Sannsynlig, Meget sannsynlig'
p140
sg6
S'gray'
p141
sg8
(lp142
sg10
S'Likely'
p143
sg12
S'Some'
p144
sg14
g66
sg16
I0
sg17
S'High'
p145
sg19
S'Stor tilleggsbelastning'
p146
sg21
Nsg22
S'100'
p147
sg24
S'1000'
p148
sg26
S'Noen bratte heng'
p149
sg28
Nsg29
g30
sg31
S'1 - Harmloest'
p150
sba(irunmatrix
M3Element
p151
(dp152
g3
Nsg4
S'Sannsynlig, Meget sannsynlig'
p153
sg6
S'gray'
p154
sg8
(lp155
sg10
S'Likely'
p156
sg12
S'Some'
p157
sg14
g66
sg16
I0
sg17
S'Low'
p158
sg19
S'Liten tilleggsbelastning'
p159
sg21
Nsg22
S'100'
p160
sg24
S'1100'
p161
sg26
S'Noen bratte heng'
p162
sg28
Nsg29
g30
sg31
S'1 - Harmloest'
p163
sba(irunmatrix
M3Element
p164
(dp165
g3
Nsg4
S'Sannsynlig, Meget sannsynlig'
p166
sg6
S'white'
p167
sg8
(lp168
sg10
S'Likely'
p169
sg12
S'Some'
p170
sg14
g15
sg16
I1
sg17
S'Nat'
p171
sg19
S'Naturlig utloest'
p172
sg21
Nsg22
S'100'
p173
sg24
S'1200'
p174
sg26
S'Noen bratte heng'
p175
sg28
Nsg29
g30
sg31
S'1 - Harmloest'
p176
sba(irunmatrix
M3Element
p177
(dp178
g3
Nsg4
S'Lite sannsynlig, Mulig'
p179
sg6
S'gray'
p180
sg8
(lp181
sg10
S'Possible'
p182
sg12
S'Many'
p183
sg14
g66
sg16
I0
sg17
S'High'
p184
sg19
S'Stor tilleggsbelastning'
p185
sg21
Nsg22
S'100'
p186
sg24
S'1300'
p187
sg26
S'Mange bratte heng'
p188
sg28
Nsg29
g30
sg31
S'1 - Harmloest'
p189
sba(irunmatrix
M3Element
p190
(dp191
g3
Nsg4
S'Lite sannsynlig, Mulig'
p192
sg6
S'white'
p193
sg8
(lp194
sg10
S'Possible'
p195
sg12
S'Many'
p196
sg14
g15
sg16
I1
sg17
S'Low'
p197
sg19
S'Liten tilleggsbelastning'
p198
sg21
Nsg22
S'100'
p199
sg24
S'1400'
p200
sg26
S'Mange bratte heng'
p201
sg28
Nsg29
g30
sg31
S'1 - Harmloest'
p202
sba(irunmatrix
M3Element
p203
(dp204
g3
Nsg4
S'Lite sannsynlig, Mulig'
p205
sg6
S'gray'
p206
sg8
(lp207
sg10
S'Possible'
p208
sg12
S'Many'
p209
sg14
g66
sg16
I0
sg17
S'Nat'
p210
sg19
S'Naturlig utloest'
p211
sg21
Nsg22
S'100'
p212
sg24
S'1500'
p213
sg26
S'Mange bratte heng'
p214
sg28
Nsg29
g30
sg31
S'1 - Harmloest'
p215
sba(irunmatrix
M3Element
p216
(dp217
g3
Nsg4
S'Sannsynlig, Meget sannsynlig'
p218
sg6
S'gray'
p219
sg8
(lp220
sg10
S'Likely'
p221
sg12
S'Many'
p222
sg14
g66
sg16
I0
sg17
S'High'
p223
sg19
S'Stor tilleggsbelastning'
p224
sg21
Nsg22
S'100'
p225
sg24
S'1600'
p226
sg26
S'Mange bratte heng'
p227
sg28
Nsg29
g30
sg31
S'1 - Harmloest'
p228
sba(irunmatrix
M3Element
p229
(dp230
g3
Nsg4
S'Sannsynlig, Meget sannsynlig'
p231
sg6
S'white'
p232
sg8
(lp233
sg10
S'Likely'
p234
sg12
S'Many'
p235
sg14
S'#ffff00'
p236
sg16
I2
sg17
S'Low'
p237
sg19
S'Liten tilleggsbelastning'
p238
sg21
Nsg22
S'100'
p239
sg24
S'1700'
p240
sg26
S'Mange bratte heng'
p241
sg28
Nsg29
g30
sg31
S'1 - Harmloest'
p242
sba(irunmatrix
M3Element
p243
(dp244
g3
Nsg4
S'Sannsynlig, Meget sannsynlig'
p245
sg6
S'white'
p246
sg8
(lp247
sg10
S'Likely'
p248
sg12
S'Many'
p249
sg14
g236
sg16
I2
sg17
S'Nat'
p250
sg19
S'Naturlig utloest'
p251
sg21
Nsg22
S'100'
p252
sg24
S'1800'
p253
sg26
S'Mange bratte heng'
p254
sg28
Nsg29
g30
sg31
S'1 - Harmloest'
p255
sba(irunmatrix
M3Element
p256
(dp257
g3
Nsg4
S'Lite sannsynlig, Mulig'
p258
sg6
S'gray'
p259
sg8
(lp260
sg10
S'Possible'
p261
sg12
S'Most'
p262
sg14
g66
sg16
I0
sg17
S'High'
p263
sg19
S'Stor tilleggsbelastning'
p264
sg21
Nsg22
S'100'
p265
sg24
S'1900'
p266
sg26
S'De fleste bratte heng, Ogsaa i mindre bratt terreng'
p267
sg28
Nsg29
g30
sg31
S'1 - Harmloest'
p268
sba(irunmatrix
M3Element
p269
(dp270
g3
Nsg4
S'Lite sannsynlig, Mulig'
p271
sg6
S'gray'
p272
sg8
(lp273
sg10
S'Possible'
p274
sg12
S'Most'
p275
sg14
g66
sg16
I0
sg17
S'Low'
p276
sg19
S'Liten tilleggsbelastning'
p277
sg21
Nsg22
S'100'
p278
sg24
S'2000'
p279
sg26
S'De fleste bratte heng, Ogsaa i mindre bratt terreng'
p280
sg28
Nsg29
g30
sg31
S'1 - Harmloest'
p281
sba(irunmatrix
M3Element
p282
(dp283
g3
Nsg4
S'Lite sannsynlig, Mulig'
p284
sg6
S'gray'
p285
sg8
(lp286
sg10
S'Possible'
p287
sg12
S'Most'
p288
sg14
g66
sg16
I0
sg17
S'Nat'
p289
sg19
S'Naturlig utloest'
p290
sg21
Nsg22
S'100'
p291
sg24
S'2100'
p292
sg26
S'De fleste bratte heng, Ogsaa i mindre bratt terreng'
p293
sg28
Nsg29
g30
sg31
S'1 - Harmloest'
p294
sba(irunmatrix
M3Element
p295
(dp296
g3
Nsg4
S'Sannsynlig, Meget sannsynlig'
p297
sg6
S'gray'
p298
sg8
(lp299
sg10
S'Likely'
p300
sg12
S'Most'
p301
sg14
g66
sg16
I0
sg17
S'High'
p302
sg19
S'Stor tilleggsbelastning'
p303
sg21
Nsg22
S'100'
p304
sg24
S'2200'
p305
sg26
S'De fleste bratte heng, Ogsaa i mindre bratt terreng'
p306
sg28
Nsg29
g30
sg31
S'1 - Harmloest'
p307
sba(irunmatrix
M3Element
p308
(dp309
g3
Nsg4
S'Sannsynlig, Meget sannsynlig'
p310
sg6
S'gray'
p311
sg8
(lp312
sg10
S'Likely'
p313
sg12
S'Most'
p314
sg14
g66
sg16
I0
sg17
S'Low'
p315
sg19
S'Liten tilleggsbelastning'
p316
sg21
Nsg22
S'100'
p317
sg24
S'2300'
p318
sg26
S'De fleste bratte heng, Ogsaa i mindre bratt terreng'
p319
sg28
Nsg29
g30
sg31
S'1 - Harmloest'
p320
sba(irunmatrix
M3Element
p321
(dp322
g3
Nsg4
S'Sannsynlig, Meget sannsynlig'
p323
sg6
S'white'
p324
sg8
(lp325
sg10
S'Likely'
p326
sg12
S'Most'
p327
sg14
g66
sg16
I0
sg17
S'Nat'
p328
sg19
S'Naturlig utloest'
p329
sg21
Nsg22
S'100'
p330
sg24
S'2400'
p331
sg26
S'De fleste bratte heng, Ogsaa i mindre bratt terreng'
p332
sg28
Nsg29
S'2'
p333
sg31
S'1 - Harmloest'
p334
sba(irunmatrix
M3Element
p335
(dp336
g3
F1.0
sg4
S'Lite sannsynlig, Mulig'
p337
sg6
S'#ccff66'
p338
sg8
(lp339
I1
aI1
asg10
S'Possible'
p340
sg12
S'Isolated'
p341
sg14
g15
sg16
I1
sg17
S'High'
p342
sg19
S'Stor tilleggsbelastning'
p343
sg21
I2
sg22
S'200'
p344
sg24
S'100'
p345
sg26
S'Isolerte faresoner'
p346
sg28
cnumpy.core.multiarray
scalar
p347
(cnumpy
dtype
p348
(S'f8'
p349
I0
I1
tp350
Rp351
(I3
S'<'
p352
NNNI-1
I-1
I0
tp353
bS'\x00\x00\x00\x00\x00\x00\x00\x00'
p354
tp355
Rp356
sg29
g333
sg31
S'2 - Smaa'
p357
sba(irunmatrix
M3Element
p358
(dp359
g3
Nsg4
S'Lite sannsynlig, Mulig'
p360
sg6
S'white'
p361
sg8
(lp362
sg10
S'Possible'
p363
sg12
S'Isolated'
p364
sg14
g15
sg16
I1
sg17
S'Low'
p365
sg19
S'Liten tilleggsbelastning'
p366
sg21
Nsg22
S'200'
p367
sg24
S'200'
p368
sg26
S'Isolerte faresoner'
p369
sg28
Nsg29
g333
sg31
S'2 - Smaa'
p370
sba(irunmatrix
M3Element
p371
(dp372
g3
Nsg4
S'Lite sannsynlig, Mulig'
p373
sg6
S'white'
p374
sg8
(lp375
sg10
S'Possible'
p376
sg12
S'Isolated'
p377
sg14
g15
sg16
I1
sg17
S'Nat'
p378
sg19
S'Naturlig utloest'
p379
sg21
Nsg22
S'200'
p380
sg24
S'300'
p381
sg26
S'Isolerte faresoner'
p382
sg28
Nsg29
g333
sg31
S'2 - Smaa'
p383
sba(irunmatrix
M3Element
p384
(dp385
g3
Nsg4
S'Sannsynlig, Meget sannsynlig'
p386
sg6
S'gray'
p387
sg8
(lp388
sg10
S'Likely'
p389
sg12
S'Isolated'
p390
sg14
g66
sg16
I0
sg17
S'High'
p391
sg19
S'Stor tilleggsbelastning'
p392
sg21
Nsg22
S'200'
p393
sg24
S'400'
p394
sg26
S'Isolerte faresoner'
p395
sg28
Nsg29
g333
sg31
S'2 - Smaa'
p396
sba(irunmatrix
M3Element
p397
(dp398
g3
Nsg4
S'Sannsynlig, Meget sannsynlig'
p399
sg6
S'gray'
p400
sg8
(lp401
sg10
S'Likely'
p402
sg12
S'Isolated'
p403
sg14
g66
sg16
I0
sg17
S'Low'
p404
sg19
S'Liten tilleggsbelastning'
p405
sg21
Nsg22
S'200'
p406
sg24
S'500'
p407
sg26
S'Isolerte faresoner'
p408
sg28
Nsg29
g333
sg31
S'2 - Smaa'
p409
sba(irunmatrix
M3Element
p410
(dp411
g3
Nsg4
S'Sannsynlig, Meget sannsynlig'
p412
sg6
S'gray'
p413
sg8
(lp414
sg10
S'Likely'
p415
sg12
S'Isolated'
p416
sg14
g66
sg16
I0
sg17
S'Nat'
p417
sg19
S'Naturlig utloest'
p418
sg21
Nsg22
S'200'
p419
sg24
S'600'
p420
sg26
S'Isolerte faresoner'
p421
sg28
Nsg29
g333
sg31
S'2 - Smaa'
p422
sba(irunmatrix
M3Element
p423
(dp424
g3
Nsg4
S'Lite sannsynlig, Mulig'
p425
sg6
S'white'
p426
sg8
(lp427
sg10
S'Possible'
p428
sg12
S'Some'
p429
sg14
g236
sg16
I2
sg17
S'High'
p430
sg19
S'Stor tilleggsbelastning'
p431
sg21
Nsg22
S'200'
p432
sg24
S'700'
p433
sg26
S'Noen bratte heng'
p434
sg28
Nsg29
g333
sg31
S'2 - Smaa'
p435
sba(irunmatrix
M3Element
p436
(dp437
g3
F2.0
sg4
S'Lite sannsynlig, Mulig'
p438
sg6
S'#ffff00'
p439
sg8
(lp440
I2
aI2
aI2
aI2
aI2
aI2
aI2
aI2
aI2
aI2
aI2
aI2
aI2
aI2
aI2
aI2
aI2
aI2
aI2
aI2
aI2
asg10
S'Possible'
p441
sg12
S'Some'
p442
sg14
g236
sg16
I2
sg17
S'Low'
p443
sg19
S'Liten tilleggsbelastning'
p444
sg21
I21
sg22
S'200'
p445
sg24
S'800'
p446
sg26
S'Noen bratte heng'
p447
sg28
g347
(g351
S'\x00\x00\x00\x00\x00\x00\x00\x00'
p448
tp449
Rp450
sg29
g333
sg31
S'2 - Smaa'
p451
sba(irunmatrix
M3Element
p452
(dp453
g3
Nsg4
S'Lite sannsynlig, Mulig'
p454
sg6
S'white'
p455
sg8
(lp456
sg10
S'Possible'
p457
sg12
S'Some'
p458
sg14
g236
sg16
I2
sg17
S'Nat'
p459
sg19
S'Naturlig utloest'
p460
sg21
Nsg22
S'200'
p461
sg24
S'900'
p462
sg26
S'Noen bratte heng'
p463
sg28
Nsg29
g333
sg31
S'2 - Smaa'
p464
sba(irunmatrix
M3Element
p465
(dp466
g3
Nsg4
S'Sannsynlig, Meget sannsynlig'
p467
sg6
S'gray'
p468
sg8
(lp469
sg10
S'Likely'
p470
sg12
S'Some'
p471
sg14
g66
sg16
I0
sg17
S'High'
p472
sg19
S'Stor tilleggsbelastning'
p473
sg21
Nsg22
S'200'
p474
sg24
S'1000'
p475
sg26
S'Noen bratte heng'
p476
sg28
Nsg29
g333
sg31
S'2 - Smaa'
p477
sba(irunmatrix
M3Element
p478
(dp479
g3
Nsg4
S'Sannsynlig, Meget sannsynlig'
p480
sg6
S'gray'
p481
sg8
(lp482
sg10
S'Likely'
p483
sg12
S'Some'
p484
sg14
g66
sg16
I0
sg17
S'Low'
p485
sg19
S'Liten tilleggsbelastning'
p486
sg21
Nsg22
S'200'
p487
sg24
S'1100'
p488
sg26
S'Noen bratte heng'
p489
sg28
Nsg29
g333
sg31
S'2 - Smaa'
p490
sba(irunmatrix
M3Element
p491
(dp492
g3
Nsg4
S'Sannsynlig, Meget sannsynlig'
p493
sg6
S'white'
p494
sg8
(lp495
sg10
S'Likely'
p496
sg12
S'Some'
p497
sg14
S'#ff9900'
p498
sg16
I3
sg17
S'Nat'
p499
sg19
S'Naturlig utloest'
p500
sg21
Nsg22
S'200'
p501
sg24
S'1200'
p502
sg26
S'Noen bratte heng'
p503
sg28
Nsg29
g333
sg31
S'2 - Smaa'
p504
sba(irunmatrix
M3Element
p505
(dp506
g3
Nsg4
S'Lite sannsynlig, Mulig'
p507
sg6
S'gray'
p508
sg8
(lp509
sg10
S'Possible'
p510
sg12
S'Many'
p511
sg14
g66
sg16
I0
sg17
S'High'
p512
sg19
S'Stor tilleggsbelastning'
p513
sg21
Nsg22
S'200'
p514
sg24
S'1300'
p515
sg26
S'Mange bratte heng'
p516
sg28
Nsg29
g333
sg31
S'2 - Smaa'
p517
sba(irunmatrix
M3Element
p518
(dp519
g3
Nsg4
S'Lite sannsynlig, Mulig'
p520
sg6
S'white'
p521
sg8
(lp522
sg10
S'Possible'
p523
sg12
S'Many'
p524
sg14
g498
sg16
I3
sg17
S'Low'
p525
sg19
S'Liten tilleggsbelastning'
p526
sg21
Nsg22
S'200'
p527
sg24
S'1400'
p528
sg26
S'Mange bratte heng'
p529
sg28
Nsg29
g333
sg31
S'2 - Smaa'
p530
sba(irunmatrix
M3Element
p531
(dp532
g3
Nsg4
S'Lite sannsynlig, Mulig'
p533
sg6
S'gray'
p534
sg8
(lp535
sg10
S'Possible'
p536
sg12
S'Many'
p537
sg14
g66
sg16
I0
sg17
S'Nat'
p538
sg19
S'Naturlig utloest'
p539
sg21
Nsg22
S'200'
p540
sg24
S'1500'
p541
sg26
S'Mange bratte heng'
p542
sg28
Nsg29
g333
sg31
S'2 - Smaa'
p543
sba(irunmatrix
M3Element
p544
(dp545
g3
Nsg4
S'Sannsynlig, Meget sannsynlig'
p546
sg6
S'gray'
p547
sg8
(lp548
sg10
S'Likely'
p549
sg12
S'Many'
p550
sg14
g66
sg16
I0
sg17
S'High'
p551
sg19
S'Stor tilleggsbelastning'
p552
sg21
Nsg22
S'200'
p553
sg24
S'1600'
p554
sg26
S'Mange bratte heng'
p555
sg28
Nsg29
g333
sg31
S'2 - Smaa'
p556
sba(irunmatrix
M3Element
p557
(dp558
g3
Nsg4
S'Sannsynlig, Meget sannsynlig'
p559
sg6
S'white'
p560
sg8
(lp561
sg10
S'Likely'
p562
sg12
S'Many'
p563
sg14
S'#ff0000'
p564
sg16
I4
sg17
S'Low'
p565
sg19
S'Liten tilleggsbelastning'
p566
sg21
Nsg22
S'200'
p567
sg24
S'1700'
p568
sg26
S'Mange bratte heng'
p569
sg28
Nsg29
g333
sg31
S'2 - Smaa'
p570
sba(irunmatrix
M3Element
p571
(dp572
g3
Nsg4
S'Sannsynlig, Meget sannsynlig'
p573
sg6
S'white'
p574
sg8
(lp575
sg10
S'Likely'
p576
sg12
S'Many'
p577
sg14
g564
sg16
I4
sg17
S'Nat'
p578
sg19
S'Naturlig utloest'
p579
sg21
Nsg22
S'200'
p580
sg24
S'1800'
p581
sg26
S'Mange bratte heng'
p582
sg28
Nsg29
g333
sg31
S'2 - Smaa'
p583
sba(irunmatrix
M3Element
p584
(dp585
g3
Nsg4
S'Lite sannsynlig, Mulig'
p586
sg6
S'gray'
p587
sg8
(lp588
sg10
S'Possible'
p589
sg12
S'Most'
p590
sg14
g66
sg16
I0
sg17
S'High'
p591
sg19
S'Stor tilleggsbelastning'
p592
sg21
Nsg22
S'200'
p593
sg24
S'1900'
p594
sg26
S'De fleste bratte heng, Ogsaa i mindre bratt terreng'
p595
sg28
Nsg29
g333
sg31
S'2 - Smaa'
p596
sba(irunmatrix
M3Element
p597
(dp598
g3
Nsg4
S'Lite sannsynlig, Mulig'
p599
sg6
S'gray'
p600
sg8
(lp601
sg10
S'Possible'
p602
sg12
S'Most'
p603
sg14
g66
sg16
I0
sg17
S'Low'
p604
sg19
S'Liten tilleggsbelastning'
p605
sg21
Nsg22
S'200'
p606
sg24
S'2000'
p607
sg26
S'De fleste bratte heng, Ogsaa i mindre bratt terreng'
p608
sg28
Nsg29
g333
sg31
S'2 - Smaa'
p609
sba(irunmatrix
M3Element
p610
(dp611
g3
Nsg4
S'Lite sannsynlig, Mulig'
p612
sg6
S'gray'
p613
sg8
(lp614
sg10
S'Possible'
p615
sg12
S'Most'
p616
sg14
g66
sg16
I0
sg17
S'Nat'
p617
sg19
S'Naturlig utloest'
p618
sg21
Nsg22
S'200'
p619
sg24
S'2100'
p620
sg26
S'De fleste bratte heng, Ogsaa i mindre bratt terreng'
p621
sg28
Nsg29
g333
sg31
S'2 - Smaa'
p622
sba(irunmatrix
M3Element
p623
(dp624
g3
Nsg4
S'Sannsynlig, Meget sannsynlig'
p625
sg6
S'gray'
p626
sg8
(lp627
sg10
S'Likely'
p628
sg12
S'Most'
p629
sg14
g66
sg16
I0
sg17
S'High'
p630
sg19
S'Stor tilleggsbelastning'
p631
sg21
Nsg22
S'200'
p632
sg24
S'2200'
p633
sg26
S'De fleste bratte heng, Ogsaa i mindre bratt terreng'
p634
sg28
Nsg29
g333
sg31
S'2 - Smaa'
p635
sba(irunmatrix
M3Element
p636
(dp637
g3
Nsg4
S'Sannsynlig, Meget sannsynlig'
p638
sg6
S'gray'
p639
sg8
(lp640
sg10
S'Likely'
p641
sg12
S'Most'
p642
sg14
g66
sg16
I0
sg17
S'Low'
p643
sg19
S'Liten tilleggsbelastning'
p644
sg21
Nsg22
S'200'
p645
sg24
S'2300'
p646
sg26
S'De fleste bratte heng, Ogsaa i mindre bratt terreng'
p647
sg28
Nsg29
g333
sg31
S'2 - Smaa'
p648
sba(irunmatrix
M3Element
p649
(dp650
g3
Nsg4
S'Sannsynlig, Meget sannsynlig'
p651
sg6
S'white'
p652
sg8
(lp653
sg10
S'Likely'
p654
sg12
S'Most'
p655
sg14
g66
sg16
I0
sg17
S'Nat'
p656
sg19
S'Naturlig utloest'
p657
sg21
Nsg22
S'200'
p658
sg24
S'2400'
p659
sg26
S'De fleste bratte heng, Ogsaa i mindre bratt terreng'
p660
sg28
Nsg29
g333
sg31
S'2 - Smaa'
p661
sba(irunmatrix
M3Element
p662
(dp663
g3
Nsg4
S'Lite sannsynlig, Mulig'
p664
sg6
S'white'
p665
sg8
(lp666
sg10
S'Possible'
p667
sg12
S'Isolated'
p668
sg14
g15
sg16
I1
sg17
S'High'
p669
sg19
S'Stor tilleggsbelastning'
p670
sg21
Nsg22
S'300'
p671
sg24
S'100'
p672
sg26
S'Isolerte faresoner'
p673
sg28
Nsg29
S'3'
p674
sg31
S'3 - Middels'
p675
sba(irunmatrix
M3Element
p676
(dp677
g3
Nsg4
S'Lite sannsynlig, Mulig'
p678
sg6
S'white'
p679
sg8
(lp680
sg10
S'Possible'
p681
sg12
S'Isolated'
p682
sg14
g236
sg16
I2
sg17
S'Low'
p683
sg19
S'Liten tilleggsbelastning'
p684
sg21
Nsg22
S'300'
p685
sg24
S'200'
p686
sg26
S'Isolerte faresoner'
p687
sg28
Nsg29
g674
sg31
S'3 - Middels'
p688
sba(irunmatrix
M3Element
p689
(dp690
g3
Nsg4
S'Lite sannsynlig, Mulig'
p691
sg6
S'white'
p692
sg8
(lp693
sg10
S'Possible'
p694
sg12
S'Isolated'
p695
sg14
g236
sg16
I2
sg17
S'Nat'
p696
sg19
S'Naturlig utloest'
p697
sg21
Nsg22
S'300'
p698
sg24
S'300'
p699
sg26
S'Isolerte faresoner'
p700
sg28
Nsg29
g674
sg31
S'3 - Middels'
p701
sba(irunmatrix
M3Element
p702
(dp703
g3
Nsg4
S'Sannsynlig, Meget sannsynlig'
p704
sg6
S'gray'
p705
sg8
(lp706
sg10
S'Likely'
p707
sg12
S'Isolated'
p708
sg14
g66
sg16
I0
sg17
S'High'
p709
sg19
S'Stor tilleggsbelastning'
p710
sg21
Nsg22
S'300'
p711
sg24
S'400'
p712
sg26
S'Isolerte faresoner'
p713
sg28
Nsg29
g674
sg31
S'3 - Middels'
p714
sba(irunmatrix
M3Element
p715
(dp716
g3
Nsg4
S'Sannsynlig, Meget sannsynlig'
p717
sg6
S'gray'
p718
sg8
(lp719
sg10
S'Likely'
p720
sg12
S'Isolated'
p721
sg14
g66
sg16
I0
sg17
S'Low'
p722
sg19
S'Liten tilleggsbelastning'
p723
sg21
Nsg22
S'300'
p724
sg24
S'500'
p725
sg26
S'Isolerte faresoner'
p726
sg28
Nsg29
g674
sg31
S'3 - Middels'
p727
sba(irunmatrix
M3Element
p728
(dp729
g3
Nsg4
S'Sannsynlig, Meget sannsynlig'
p730
sg6
S'gray'
p731
sg8
(lp732
sg10
S'Likely'
p733
sg12
S'Isolated'
p734
sg14
g66
sg16
I0
sg17
S'Nat'
p735
sg19
S'Naturlig utloest'
p736
sg21
Nsg22
S'300'
p737
sg24
S'600'
p738
sg26
S'Isolerte faresoner'
p739
sg28
Nsg29
g674
sg31
S'3 - Middels'
p740
sba(irunmatrix
M3Element
p741
(dp742
g3
Nsg4
S'Lite sannsynlig, Mulig'
p743
sg6
S'white'
p744
sg8
(lp745
sg10
S'Possible'
p746
sg12
S'Some'
p747
sg14
g236
sg16
I2
sg17
S'High'
p748
sg19
S'Stor tilleggsbelastning'
p749
sg21
Nsg22
S'300'
p750
sg24
S'700'
p751
sg26
S'Noen bratte heng'
p752
sg28
Nsg29
g674
sg31
S'3 - Middels'
p753
sba(irunmatrix
M3Element
p754
(dp755
g3
F3.0
sg4
S'Lite sannsynlig, Mulig'
p756
sg6
S'#ff9900'
p757
sg8
(lp758
I3
aI3
aI3
asg10
S'Possible'
p759
sg12
S'Some'
p760
sg14
g498
sg16
I3
sg17
S'Low'
p761
sg19
S'Liten tilleggsbelastning'
p762
sg21
I3
sg22
S'300'
p763
sg24
S'800'
p764
sg26
S'Noen bratte heng'
p765
sg28
g347
(g351
S'\x00\x00\x00\x00\x00\x00\x00\x00'
p766
tp767
Rp768
sg29
g674
sg31
S'3 - Middels'
p769
sba(irunmatrix
M3Element
p770
(dp771
g3
Nsg4
S'Lite sannsynlig, Mulig'
p772
sg6
S'white'
p773
sg8
(lp774
sg10
S'Possible'
p775
sg12
S'Some'
p776
sg14
g498
sg16
I3
sg17
S'Nat'
p777
sg19
S'Naturlig utloest'
p778
sg21
Nsg22
S'300'
p779
sg24
S'900'
p780
sg26
S'Noen bratte heng'
p781
sg28
Nsg29
g674
sg31
S'3 - Middels'
p782
sba(irunmatrix
M3Element
p783
(dp784
g3
Nsg4
S'Sannsynlig, Meget sannsynlig'
p785
sg6
S'gray'
p786
sg8
(lp787
sg10
S'Likely'
p788
sg12
S'Some'
p789
sg14
g66
sg16
I0
sg17
S'High'
p790
sg19
S'Stor tilleggsbelastning'
p791
sg21
Nsg22
S'300'
p792
sg24
S'1000'
p793
sg26
S'Noen bratte heng'
p794
sg28
Nsg29
g674
sg31
S'3 - Middels'
p795
sba(irunmatrix
M3Element
p796
(dp797
g3
Nsg4
S'Sannsynlig, Meget sannsynlig'
p798
sg6
S'gray'
p799
sg8
(lp800
sg10
S'Likely'
p801
sg12
S'Some'
p802
sg14
g66
sg16
I0
sg17
S'Low'
p803
sg19
S'Liten tilleggsbelastning'
p804
sg21
Nsg22
S'300'
p805
sg24
S'1100'
p806
sg26
S'Noen bratte heng'
p807
sg28
Nsg29
g674
sg31
S'3 - Middels'
p808
sba(irunmatrix
M3Element
p809
(dp810
g3
Nsg4
S'Sannsynlig, Meget sannsynlig'
p811
sg6
S'white'
p812
sg8
(lp813
sg10
S'Likely'
p814
sg12
S'Some'
p815
sg14
g564
sg16
I4
sg17
S'Nat'
p816
sg19
S'Naturlig utloest'
p817
sg21
Nsg22
S'300'
p818
sg24
S'1200'
p819
sg26
S'Noen bratte heng'
p820
sg28
Nsg29
g674
sg31
S'3 - Middels'
p821
sba(irunmatrix
M3Element
p822
(dp823
g3
Nsg4
S'Lite sannsynlig, Mulig'
p824
sg6
S'gray'
p825
sg8
(lp826
sg10
S'Possible'
p827
sg12
S'Many'
p828
sg14
g66
sg16
I0
sg17
S'High'
p829
sg19
S'Stor tilleggsbelastning'
p830
sg21
Nsg22
S'300'
p831
sg24
S'1300'
p832
sg26
S'Mange bratte heng'
p833
sg28
Nsg29
g674
sg31
S'3 - Middels'
p834
sba(irunmatrix
M3Element
p835
(dp836
g3
Nsg4
S'Lite sannsynlig, Mulig'
p837
sg6
S'white'
p838
sg8
(lp839
sg10
S'Possible'
p840
sg12
S'Many'
p841
sg14
g564
sg16
I4
sg17
S'Low'
p842
sg19
S'Liten tilleggsbelastning'
p843
sg21
Nsg22
S'300'
p844
sg24
S'1400'
p845
sg26
S'Mange bratte heng'
p846
sg28
Nsg29
g674
sg31
S'3 - Middels'
p847
sba(irunmatrix
M3Element
p848
(dp849
g3
Nsg4
S'Lite sannsynlig, Mulig'
p850
sg6
S'gray'
p851
sg8
(lp852
sg10
S'Possible'
p853
sg12
S'Many'
p854
sg14
g66
sg16
I0
sg17
S'Nat'
p855
sg19
S'Naturlig utloest'
p856
sg21
Nsg22
S'300'
p857
sg24
S'1500'
p858
sg26
S'Mange bratte heng'
p859
sg28
Nsg29
g674
sg31
S'3 - Middels'
p860
sba(irunmatrix
M3Element
p861
(dp862
g3
Nsg4
S'Sannsynlig, Meget sannsynlig'
p863
sg6
S'gray'
p864
sg8
(lp865
sg10
S'Likely'
p866
sg12
S'Many'
p867
sg14
g66
sg16
I0
sg17
S'High'
p868
sg19
S'Stor tilleggsbelastning'
p869
sg21
Nsg22
S'300'
p870
sg24
S'1600'
p871
sg26
S'Mange bratte heng'
p872
sg28
Nsg29
g674
sg31
S'3 - Middels'
p873
sba(irunmatrix
M3Element
p874
(dp875
g3
Nsg4
S'Sannsynlig, Meget sannsynlig'
p876
sg6
S'white'
p877
sg8
(lp878
sg10
S'Likely'
p879
sg12
S'Many'
p880
sg14
g564
sg16
I4
sg17
S'Low'
p881
sg19
S'Liten tilleggsbelastning'
p882
sg21
Nsg22
S'300'
p883
sg24
S'1700'
p884
sg26
S'Mange bratte heng'
p885
sg28
Nsg29
g674
sg31
S'3 - Middels'
p886
sba(irunmatrix
M3Element
p887
(dp888
g3
Nsg4
S'Sannsynlig, Meget sannsynlig'
p889
sg6
S'white'
p890
sg8
(lp891
sg10
S'Likely'
p892
sg12
S'Many'
p893
sg14
g564
sg16
I4
sg17
S'Nat'
p894
sg19
S'Naturlig utloest'
p895
sg21
Nsg22
S'300'
p896
sg24
S'1800'
p897
sg26
S'Mange bratte heng'
p898
sg28
Nsg29
g674
sg31
S'3 - Middels'
p899
sba(irunmatrix
M3Element
p900
(dp901
g3
Nsg4
S'Lite sannsynlig, Mulig'
p902
sg6
S'gray'
p903
sg8
(lp904
sg10
S'Possible'
p905
sg12
S'Most'
p906
sg14
g66
sg16
I0
sg17
S'High'
p907
sg19
S'Stor tilleggsbelastning'
p908
sg21
Nsg22
S'300'
p909
sg24
S'1900'
p910
sg26
S'De fleste bratte heng, Ogsaa i mindre bratt terreng'
p911
sg28
Nsg29
g674
sg31
S'3 - Middels'
p912
sba(irunmatrix
M3Element
p913
(dp914
g3
Nsg4
S'Lite sannsynlig, Mulig'
p915
sg6
S'gray'
p916
sg8
(lp917
sg10
S'Possible'
p918
sg12
S'Most'
p919
sg14
g66
sg16
I0
sg17
S'Low'
p920
sg19
S'Liten tilleggsbelastning'
p921
sg21
Nsg22
S'300'
p922
sg24
S'2000'
p923
sg26
S'De fleste bratte heng, Ogsaa i mindre bratt terreng'
p924
sg28
Nsg29
g674
sg31
S'3 - Middels'
p925
sba(irunmatrix
M3Element
p926
(dp927
g3
Nsg4
S'Lite sannsynlig, Mulig'
p928
sg6
S'gray'
p929
sg8
(lp930
sg10
S'Possible'
p931
sg12
S'Most'
p932
sg14
g66
sg16
I0
sg17
S'Nat'
p933
sg19
S'Naturlig utloest'
p934
sg21
Nsg22
S'300'
p935
sg24
S'2100'
p936
sg26
S'De fleste bratte heng, Ogsaa i mindre bratt terreng'
p937
sg28
Nsg29
g674
sg31
S'3 - Middels'
p938
sba(irunmatrix
M3Element
p939
(dp940
g3
Nsg4
S'Sannsynlig, Meget sannsynlig'
p941
sg6
S'gray'
p942
sg8
(lp943
sg10
S'Likely'
p944
sg12
S'Most'
p945
sg14
g66
sg16
I0
sg17
S'High'
p946
sg19
S'Stor tilleggsbelastning'
p947
sg21
Nsg22
S'300'
p948
sg24
S'2200'
p949
sg26
S'De fleste bratte heng, Ogsaa i mindre bratt terreng'
p950
sg28
Nsg29
g674
sg31
S'3 - Middels'
p951
sba(irunmatrix
M3Element
p952
(dp953
g3
Nsg4
S'Sannsynlig, Meget sannsynlig'
p954
sg6
S'gray'
p955
sg8
(lp956
sg10
S'Likely'
p957
sg12
S'Most'
p958
sg14
g66
sg16
I0
sg17
S'Low'
p959
sg19
S'Liten tilleggsbelastning'
p960
sg21
Nsg22
S'300'
p961
sg24
S'2300'
p962
sg26
S'De fleste bratte heng, Ogsaa i mindre bratt terreng'
p963
sg28
Nsg29
g674
sg31
S'3 - Middels'
p964
sba(irunmatrix
M3Element
p965
(dp966
g3
Nsg4
S'Sannsynlig, Meget sannsynlig'
p967
sg6
S'white'
p968
sg8
(lp969
sg10
S'Likely'
p970
sg12
S'Most'
p971
sg14
g66
sg16
I0
sg17
S'Nat'
p972
sg19
S'Naturlig utloest'
p973
sg21
Nsg22
S'300'
p974
sg24
S'2400'
p975
sg26
S'De fleste bratte heng, Ogsaa i mindre bratt terreng'
p976
sg28
Nsg29
g674
sg31
S'3 - Middels'
p977
sba(irunmatrix
M3Element
p978
(dp979
g3
Nsg4
S'Lite sannsynlig, Mulig'
p980
sg6
S'white'
p981
sg8
(lp982
sg10
S'Possible'
p983
sg12
S'Isolated'
p984
sg14
g236
sg16
I2
sg17
S'High'
p985
sg19
S'Stor tilleggsbelastning'
p986
sg21
Nsg22
S'400'
p987
sg24
S'100'
p988
sg26
S'Isolerte faresoner'
p989
sg28
Nsg29
S'4'
p990
sg31
S'4 - Store'
p991
sba(irunmatrix
M3Element
p992
(dp993
g3
Nsg4
S'Lite sannsynlig, Mulig'
p994
sg6
S'white'
p995
sg8
(lp996
sg10
S'Possible'
p997
sg12
S'Isolated'
p998
sg14
g498
sg16
I3
sg17
S'Low'
p999
sg19
S'Liten tilleggsbelastning'
p1000
sg21
Nsg22
S'400'
p1001
sg24
S'200'
p1002
sg26
S'Isolerte faresoner'
p1003
sg28
Nsg29
g990
sg31
S'4 - Store'
p1004
sba(irunmatrix
M3Element
p1005
(dp1006
g3
Nsg4
S'Lite sannsynlig, Mulig'
p1007
sg6
S'white'
p1008
sg8
(lp1009
sg10
S'Possible'
p1010
sg12
S'Isolated'
p1011
sg14
g498
sg16
I3
sg17
S'Nat'
p1012
sg19
S'Naturlig utloest'
p1013
sg21
Nsg22
S'400'
p1014
sg24
S'300'
p1015
sg26
S'Isolerte faresoner'
p1016
sg28
Nsg29
g990
sg31
S'4 - Store'
p1017
sba(irunmatrix
M3Element
p1018
(dp1019
g3
Nsg4
S'Sannsynlig, Meget sannsynlig'
p1020
sg6
S'gray'
p1021
sg8
(lp1022
sg10
S'Likely'
p1023
sg12
S'Isolated'
p1024
sg14
g66
sg16
I0
sg17
S'High'
p1025
sg19
S'Stor tilleggsbelastning'
p1026
sg21
Nsg22
S'400'
p1027
sg24
S'400'
p1028
sg26
S'Isolerte faresoner'
p1029
sg28
Nsg29
g990
sg31
S'4 - Store'
p1030
sba(irunmatrix
M3Element
p1031
(dp1032
g3
Nsg4
S'Sannsynlig, Meget sannsynlig'
p1033
sg6
S'gray'
p1034
sg8
(lp1035
sg10
S'Likely'
p1036
sg12
S'Isolated'
p1037
sg14
g66
sg16
I0
sg17
S'Low'
p1038
sg19
S'Liten tilleggsbelastning'
p1039
sg21
Nsg22
S'400'
p1040
sg24
S'500'
p1041
sg26
S'Isolerte faresoner'
p1042
sg28
Nsg29
g990
sg31
S'4 - Store'
p1043
sba(irunmatrix
M3Element
p1044
(dp1045
g3
Nsg4
S'Sannsynlig, Meget sannsynlig'
p1046
sg6
S'gray'
p1047
sg8
(lp1048
sg10
S'Likely'
p1049
sg12
S'Isolated'
p1050
sg14
g66
sg16
I0
sg17
S'Nat'
p1051
sg19
S'Naturlig utloest'
p1052
sg21
Nsg22
S'400'
p1053
sg24
S'600'
p1054
sg26
S'Isolerte faresoner'
p1055
sg28
Nsg29
g990
sg31
S'4 - Store'
p1056
sba(irunmatrix
M3Element
p1057
(dp1058
g3
Nsg4
S'Lite sannsynlig, Mulig'
p1059
sg6
S'white'
p1060
sg8
(lp1061
sg10
S'Possible'
p1062
sg12
S'Some'
p1063
sg14
g498
sg16
I3
sg17
S'High'
p1064
sg19
S'Stor tilleggsbelastning'
p1065
sg21
Nsg22
S'400'
p1066
sg24
S'700'
p1067
sg26
S'Noen bratte heng'
p1068
sg28
Nsg29
g990
sg31
S'4 - Store'
p1069
sba(irunmatrix
M3Element
p1070
(dp1071
g3
Nsg4
S'Lite sannsynlig, Mulig'
p1072
sg6
S'white'
p1073
sg8
(lp1074
sg10
S'Possible'
p1075
sg12
S'Some'
p1076
sg14
g564
sg16
I4
sg17
S'Low'
p1077
sg19
S'Liten tilleggsbelastning'
p1078
sg21
Nsg22
S'400'
p1079
sg24
S'800'
p1080
sg26
S'Noen bratte heng'
p1081
sg28
Nsg29
g990
sg31
S'4 - Store'
p1082
sba(irunmatrix
M3Element
p1083
(dp1084
g3
Nsg4
S'Lite sannsynlig, Mulig'
p1085
sg6
S'white'
p1086
sg8
(lp1087
sg10
S'Possible'
p1088
sg12
S'Some'
p1089
sg14
g564
sg16
I4
sg17
S'Nat'
p1090
sg19
S'Naturlig utloest'
p1091
sg21
Nsg22
S'400'
p1092
sg24
S'900'
p1093
sg26
S'Noen bratte heng'
p1094
sg28
Nsg29
g990
sg31
S'4 - Store'
p1095
sba(irunmatrix
M3Element
p1096
(dp1097
g3
Nsg4
S'Sannsynlig, Meget sannsynlig'
p1098
sg6
S'gray'
p1099
sg8
(lp1100
sg10
S'Likely'
p1101
sg12
S'Some'
p1102
sg14
g66
sg16
I0
sg17
S'High'
p1103
sg19
S'Stor tilleggsbelastning'
p1104
sg21
Nsg22
S'400'
p1105
sg24
S'1000'
p1106
sg26
S'Noen bratte heng'
p1107
sg28
Nsg29
g990
sg31
S'4 - Store'
p1108
sba(irunmatrix
M3Element
p1109
(dp1110
g3
Nsg4
S'Sannsynlig, Meget sannsynlig'
p1111
sg6
S'gray'
p1112
sg8
(lp1113
sg10
S'Likely'
p1114
sg12
S'Some'
p1115
sg14
g66
sg16
I0
sg17
S'Low'
p1116
sg19
S'Liten tilleggsbelastning'
p1117
sg21
Nsg22
S'400'
p1118
sg24
S'1100'
p1119
sg26
S'Noen bratte heng'
p1120
sg28
Nsg29
g990
sg31
S'4 - Store'
p1121
sba(irunmatrix
M3Element
p1122
(dp1123
g3
Nsg4
S'Sannsynlig, Meget sannsynlig'
p1124
sg6
S'white'
p1125
sg8
(lp1126
sg10
S'Likely'
p1127
sg12
S'Some'
p1128
sg14
g564
sg16
I4
sg17
S'Nat'
p1129
sg19
S'Naturlig utloest'
p1130
sg21
Nsg22
S'400'
p1131
sg24
S'1200'
p1132
sg26
S'Noen bratte heng'
p1133
sg28
Nsg29
g990
sg31
S'4 - Store'
p1134
sba(irunmatrix
M3Element
p1135
(dp1136
g3
Nsg4
S'Lite sannsynlig, Mulig'
p1137
sg6
S'gray'
p1138
sg8
(lp1139
sg10
S'Possible'
p1140
sg12
S'Many'
p1141
sg14
g66
sg16
I0
sg17
S'High'
p1142
sg19
S'Stor tilleggsbelastning'
p1143
sg21
Nsg22
S'400'
p1144
sg24
S'1300'
p1145
sg26
S'Mange bratte heng'
p1146
sg28
Nsg29
g990
sg31
S'4 - Store'
p1147
sba(irunmatrix
M3Element
p1148
(dp1149
g3
Nsg4
S'Lite sannsynlig, Mulig'
p1150
sg6
S'white'
p1151
sg8
(lp1152
sg10
S'Possible'
p1153
sg12
S'Many'
p1154
sg14
g66
sg16
I0
sg17
S'Low'
p1155
sg19
S'Liten tilleggsbelastning'
p1156
sg21
Nsg22
S'400'
p1157
sg24
S'1400'
p1158
sg26
S'Mange bratte heng'
p1159
sg28
Nsg29
g990
sg31
S'4 - Store'
p1160
sba(irunmatrix
M3Element
p1161
(dp1162
g3
Nsg4
S'Lite sannsynlig, Mulig'
p1163
sg6
S'gray'
p1164
sg8
(lp1165
sg10
S'Possible'
p1166
sg12
S'Many'
p1167
sg14
g66
sg16
I0
sg17
S'Nat'
p1168
sg19
S'Naturlig utloest'
p1169
sg21
Nsg22
S'400'
p1170
sg24
S'1500'
p1171
sg26
S'Mange bratte heng'
p1172
sg28
Nsg29
g990
sg31
S'4 - Store'
p1173
sba(irunmatrix
M3Element
p1174
(dp1175
g3
Nsg4
S'Sannsynlig, Meget sannsynlig'
p1176
sg6
S'gray'
p1177
sg8
(lp1178
sg10
S'Likely'
p1179
sg12
S'Many'
p1180
sg14
g66
sg16
I0
sg17
S'High'
p1181
sg19
S'Stor tilleggsbelastning'
p1182
sg21
Nsg22
S'400'
p1183
sg24
S'1600'
p1184
sg26
S'Mange bratte heng'
p1185
sg28
Nsg29
g990
sg31
S'4 - Store'
p1186
sba(irunmatrix
M3Element
p1187
(dp1188
g3
Nsg4
S'Sannsynlig, Meget sannsynlig'
p1189
sg6
S'white'
p1190
sg8
(lp1191
sg10
S'Likely'
p1192
sg12
S'Many'
p1193
sg14
g66
sg16
I0
sg17
S'Low'
p1194
sg19
S'Liten tilleggsbelastning'
p1195
sg21
Nsg22
S'400'
p1196
sg24
S'1700'
p1197
sg26
S'Mange bratte heng'
p1198
sg28
Nsg29
g990
sg31
S'4 - Store'
p1199
sba(irunmatrix
M3Element
p1200
(dp1201
g3
Nsg4
S'Sannsynlig, Meget sannsynlig'
p1202
sg6
S'white'
p1203
sg8
(lp1204
sg10
S'Likely'
p1205
sg12
S'Many'
p1206
sg14
S'k'
p1207
sg16
I5
sg17
S'Nat'
p1208
sg19
S'Naturlig utloest'
p1209
sg21
Nsg22
S'400'
p1210
sg24
S'1800'
p1211
sg26
S'Mange bratte heng'
p1212
sg28
Nsg29
g990
sg31
S'4 - Store'
p1213
sba(irunmatrix
M3Element
p1214
(dp1215
g3
Nsg4
S'Lite sannsynlig, Mulig'
p1216
sg6
S'gray'
p1217
sg8
(lp1218
sg10
S'Possible'
p1219
sg12
S'Most'
p1220
sg14
g66
sg16
I0
sg17
S'High'
p1221
sg19
S'Stor tilleggsbelastning'
p1222
sg21
Nsg22
S'400'
p1223
sg24
S'1900'
p1224
sg26
S'De fleste bratte heng, Ogsaa i mindre bratt terreng'
p1225
sg28
Nsg29
g990
sg31
S'4 - Store'
p1226
sba(irunmatrix
M3Element
p1227
(dp1228
g3
Nsg4
S'Lite sannsynlig, Mulig'
p1229
sg6
S'gray'
p1230
sg8
(lp1231
sg10
S'Possible'
p1232
sg12
S'Most'
p1233
sg14
g66
sg16
I0
sg17
S'Low'
p1234
sg19
S'Liten tilleggsbelastning'
p1235
sg21
Nsg22
S'400'
p1236
sg24
S'2000'
p1237
sg26
S'De fleste bratte heng, Ogsaa i mindre bratt terreng'
p1238
sg28
Nsg29
g990
sg31
S'4 - Store'
p1239
sba(irunmatrix
M3Element
p1240
(dp1241
g3
Nsg4
S'Lite sannsynlig, Mulig'
p1242
sg6
S'gray'
p1243
sg8
(lp1244
sg10
S'Possible'
p1245
sg12
S'Most'
p1246
sg14
g66
sg16
I0
sg17
S'Nat'
p1247
sg19
S'Naturlig utloest'
p1248
sg21
Nsg22
S'400'
p1249
sg24
S'2100'
p1250
sg26
S'De fleste bratte heng, Ogsaa i mindre bratt terreng'
p1251
sg28
Nsg29
g990
sg31
S'4 - Store'
p1252
sba(irunmatrix
M3Element
p1253
(dp1254
g3
Nsg4
S'Sannsynlig, Meget sannsynlig'
p1255
sg6
S'gray'
p1256
sg8
(lp1257
sg10
S'Likely'
p1258
sg12
S'Most'
p1259
sg14
g66
sg16
I0
sg17
S'High'
p1260
sg19
S'Stor tilleggsbelastning'
p1261
sg21
Nsg22
S'400'
p1262
sg24
S'2200'
p1263
sg26
S'De fleste bratte heng, Ogsaa i mindre bratt terreng'
p1264
sg28
Nsg29
g990
sg31
S'4 - Store'
p1265
sba(irunmatrix
M3Element
p1266
(dp1267
g3
Nsg4
S'Sannsynlig, Meget sannsynlig'
p1268
sg6
S'gray'
p1269
sg8
(lp1270
sg10
S'Likely'
p1271
sg12
S'Most'
p1272
sg14
g66
sg16
I0
sg17
S'Low'
p1273
sg19
S'Liten tilleggsbelastning'
p1274
sg21
Nsg22
S'400'
p1275
sg24
S'2300'
p1276
sg26
S'De fleste bratte heng, Ogsaa i mindre bratt terreng'
p1277
sg28
Nsg29
g990
sg31
S'4 - Store'
p1278
sba(irunmatrix
M3Element
p1279
(dp1280
g3
Nsg4
S'Sannsynlig, Meget sannsynlig'
p1281
sg6
S'white'
p1282
sg8
(lp1283
sg10
S'Likely'
p1284
sg12
S'Most'
p1285
sg14
g66
sg16
I0
sg17
S'Nat'
p1286
sg19
S'Naturlig utloest'
p1287
sg21
Nsg22
S'400'
p1288
sg24
S'2400'
p1289
sg26
S'De fleste bratte heng, Ogsaa i mindre bratt terreng'
p1290
sg28
Nsg29
g990
sg31
S'4 - Store'
p1291
sba(irunmatrix
M3Element
p1292
(dp1293
g3
Nsg4
S'Lite sannsynlig, Mulig'
p1294
sg6
S'white'
p1295
sg8
(lp1296
sg10
S'Possible'
p1297
sg12
S'Isolated'
p1298
sg14
g66
sg16
I0
sg17
S'High'
p1299
sg19
S'Stor tilleggsbelastning'
p1300
sg21
Nsg22
S'500'
p1301
sg24
S'100'
p1302
sg26
S'Isolerte faresoner'
p1303
sg28
Nsg29
S'5'
p1304
sg31
S'5 - Svaert store'
p1305
sba(irunmatrix
M3Element
p1306
(dp1307
g3
Nsg4
S'Lite sannsynlig, Mulig'
p1308
sg6
S'white'
p1309
sg8
(lp1310
sg10
S'Possible'
p1311
sg12
S'Isolated'
p1312
sg14
g66
sg16
I0
sg17
S'Low'
p1313
sg19
S'Liten tilleggsbelastning'
p1314
sg21
Nsg22
S'500'
p1315
sg24
S'200'
p1316
sg26
S'Isolerte faresoner'
p1317
sg28
Nsg29
g1304
sg31
S'5 - Svaert store'
p1318
sba(irunmatrix
M3Element
p1319
(dp1320
g3
Nsg4
S'Lite sannsynlig, Mulig'
p1321
sg6
S'white'
p1322
sg8
(lp1323
sg10
S'Possible'
p1324
sg12
S'Isolated'
p1325
sg14
g66
sg16
I0
sg17
S'Nat'
p1326
sg19
S'Naturlig utloest'
p1327
sg21
Nsg22
S'500'
p1328
sg24
S'300'
p1329
sg26
S'Isolerte faresoner'
p1330
sg28
Nsg29
g1304
sg31
S'5 - Svaert store'
p1331
sba(irunmatrix
M3Element
p1332
(dp1333
g3
Nsg4
S'Sannsynlig, Meget sannsynlig'
p1334
sg6
S'gray'
p1335
sg8
(lp1336
sg10
S'Likely'
p1337
sg12
S'Isolated'
p1338
sg14
g66
sg16
I0
sg17
S'High'
p1339
sg19
S'Stor tilleggsbelastning'
p1340
sg21
Nsg22
S'500'
p1341
sg24
S'400'
p1342
sg26
S'Isolerte faresoner'
p1343
sg28
Nsg29
g1304
sg31
S'5 - Svaert store'
p1344
sba(irunmatrix
M3Element
p1345
(dp1346
g3
Nsg4
S'Sannsynlig, Meget sannsynlig'
p1347
sg6
S'gray'
p1348
sg8
(lp1349
sg10
S'Likely'
p1350
sg12
S'Isolated'
p1351
sg14
g66
sg16
I0
sg17
S'Low'
p1352
sg19
S'Liten tilleggsbelastning'
p1353
sg21
Nsg22
S'500'
p1354
sg24
S'500'
p1355
sg26
S'Isolerte faresoner'
p1356
sg28
Nsg29
g1304
sg31
S'5 - Svaert store'
p1357
sba(irunmatrix
M3Element
p1358
(dp1359
g3
Nsg4
S'Sannsynlig, Meget sannsynlig'
p1360
sg6
S'gray'
p1361
sg8
(lp1362
sg10
S'Likely'
p1363
sg12
S'Isolated'
p1364
sg14
g66
sg16
I0
sg17
S'Nat'
p1365
sg19
S'Naturlig utloest'
p1366
sg21
Nsg22
S'500'
p1367
sg24
S'600'
p1368
sg26
S'Isolerte faresoner'
p1369
sg28
Nsg29
g1304
sg31
S'5 - Svaert store'
p1370
sba(irunmatrix
M3Element
p1371
(dp1372
g3
Nsg4
S'Lite sannsynlig, Mulig'
p1373
sg6
S'white'
p1374
sg8
(lp1375
sg10
S'Possible'
p1376
sg12
S'Some'
p1377
sg14
g66
sg16
I0
sg17
S'High'
p1378
sg19
S'Stor tilleggsbelastning'
p1379
sg21
Nsg22
S'500'
p1380
sg24
S'700'
p1381
sg26
S'Noen bratte heng'
p1382
sg28
Nsg29
g1304
sg31
S'5 - Svaert store'
p1383
sba(irunmatrix
M3Element
p1384
(dp1385
g3
Nsg4
S'Lite sannsynlig, Mulig'
p1386
sg6
S'white'
p1387
sg8
(lp1388
sg10
S'Possible'
p1389
sg12
S'Some'
p1390
sg14
g66
sg16
I0
sg17
S'Low'
p1391
sg19
S'Liten tilleggsbelastning'
p1392
sg21
Nsg22
S'500'
p1393
sg24
S'800'
p1394
sg26
S'Noen bratte heng'
p1395
sg28
Nsg29
g1304
sg31
S'5 - Svaert store'
p1396
sba(irunmatrix
M3Element
p1397
(dp1398
g3
Nsg4
S'Lite sannsynlig, Mulig'
p1399
sg6
S'white'
p1400
sg8
(lp1401
sg10
S'Possible'
p1402
sg12
S'Some'
p1403
sg14
g66
sg16
I0
sg17
S'Nat'
p1404
sg19
S'Naturlig utloest'
p1405
sg21
Nsg22
S'500'
p1406
sg24
S'900'
p1407
sg26
S'Noen bratte heng'
p1408
sg28
Nsg29
g1304
sg31
S'5 - Svaert store'
p1409
sba(irunmatrix
M3Element
p1410
(dp1411
g3
Nsg4
S'Sannsynlig, Meget sannsynlig'
p1412
sg6
S'gray'
p1413
sg8
(lp1414
sg10
S'Likely'
p1415
sg12
S'Some'
p1416
sg14
g66
sg16
I0
sg17
S'High'
p1417
sg19
S'Stor tilleggsbelastning'
p1418
sg21
Nsg22
S'500'
p1419
sg24
S'1000'
p1420
sg26
S'Noen bratte heng'
p1421
sg28
Nsg29
g1304
sg31
S'5 - Svaert store'
p1422
sba(irunmatrix
M3Element
p1423
(dp1424
g3
Nsg4
S'Sannsynlig, Meget sannsynlig'
p1425
sg6
S'gray'
p1426
sg8
(lp1427
sg10
S'Likely'
p1428
sg12
S'Some'
p1429
sg14
g66
sg16
I0
sg17
S'Low'
p1430
sg19
S'Liten tilleggsbelastning'
p1431
sg21
Nsg22
S'500'
p1432
sg24
S'1100'
p1433
sg26
S'Noen bratte heng'
p1434
sg28
Nsg29
g1304
sg31
S'5 - Svaert store'
p1435
sba(irunmatrix
M3Element
p1436
(dp1437
g3
Nsg4
S'Sannsynlig, Meget sannsynlig'
p1438
sg6
S'white'
p1439
sg8
(lp1440
sg10
S'Likely'
p1441
sg12
S'Some'
p1442
sg14
g66
sg16
I0
sg17
S'Nat'
p1443
sg19
S'Naturlig utloest'
p1444
sg21
Nsg22
S'500'
p1445
sg24
S'1200'
p1446
sg26
S'Noen bratte heng'
p1447
sg28
Nsg29
g1304
sg31
S'5 - Svaert store'
p1448
sba(irunmatrix
M3Element
p1449
(dp1450
g3
Nsg4
S'Lite sannsynlig, Mulig'
p1451
sg6
S'gray'
p1452
sg8
(lp1453
sg10
S'Possible'
p1454
sg12
S'Many'
p1455
sg14
g66
sg16
I0
sg17
S'High'
p1456
sg19
S'Stor tilleggsbelastning'
p1457
sg21
Nsg22
S'500'
p1458
sg24
S'1300'
p1459
sg26
S'Mange bratte heng'
p1460
sg28
Nsg29
g1304
sg31
S'5 - Svaert store'
p1461
sba(irunmatrix
M3Element
p1462
(dp1463
g3
Nsg4
S'Lite sannsynlig, Mulig'
p1464
sg6
S'white'
p1465
sg8
(lp1466
sg10
S'Possible'
p1467
sg12
S'Many'
p1468
sg14
g66
sg16
I0
sg17
S'Low'
p1469
sg19
S'Liten tilleggsbelastning'
p1470
sg21
Nsg22
S'500'
p1471
sg24
S'1400'
p1472
sg26
S'Mange bratte heng'
p1473
sg28
Nsg29
g1304
sg31
S'5 - Svaert store'
p1474
sba(irunmatrix
M3Element
p1475
(dp1476
g3
Nsg4
S'Lite sannsynlig, Mulig'
p1477
sg6
S'gray'
p1478
sg8
(lp1479
sg10
S'Possible'
p1480
sg12
S'Many'
p1481
sg14
g66
sg16
I0
sg17
S'Nat'
p1482
sg19
S'Naturlig utloest'
p1483
sg21
Nsg22
S'500'
p1484
sg24
S'1500'
p1485
sg26
S'Mange bratte heng'
p1486
sg28
Nsg29
g1304
sg31
S'5 - Svaert store'
p1487
sba(irunmatrix
M3Element
p1488
(dp1489
g3
Nsg4
S'Sannsynlig, Meget sannsynlig'
p1490
sg6
S'gray'
p1491
sg8
(lp1492
sg10
S'Likely'
p1493
sg12
S'Many'
p1494
sg14
g66
sg16
I0
sg17
S'High'
p1495
sg19
S'Stor tilleggsbelastning'
p1496
sg21
Nsg22
S'500'
p1497
sg24
S'1600'
p1498
sg26
S'Mange bratte heng'
p1499
sg28
Nsg29
g1304
sg31
S'5 - Svaert store'
p1500
sba(irunmatrix
M3Element
p1501
(dp1502
g3
Nsg4
S'Sannsynlig, Meget sannsynlig'
p1503
sg6
S'white'
p1504
sg8
(lp1505
sg10
S'Likely'
p1506
sg12
S'Many'
p1507
sg14
g66
sg16
I0
sg17
S'Low'
p1508
sg19
S'Liten tilleggsbelastning'
p1509
sg21
Nsg22
S'500'
p1510
sg24
S'1700'
p1511
sg26
S'Mange bratte heng'
p1512
sg28
Nsg29
g1304
sg31
S'5 - Svaert store'
p1513
sba(irunmatrix
M3Element
p1514
(dp1515
g3
Nsg4
S'Sannsynlig, Meget sannsynlig'
p1516
sg6
S'white'
p1517
sg8
(lp1518
sg10
S'Likely'
p1519
sg12
S'Many'
p1520
sg14
g1207
sg16
I5
sg17
S'Nat'
p1521
sg19
S'Naturlig utloest'
p1522
sg21
Nsg22
S'500'
p1523
sg24
S'1800'
p1524
sg26
S'Mange bratte heng'
p1525
sg28
Nsg29
g1304
sg31
S'5 - Svaert store'
p1526
sba(irunmatrix
M3Element
p1527
(dp1528
g3
Nsg4
S'Lite sannsynlig, Mulig'
p1529
sg6
S'gray'
p1530
sg8
(lp1531
sg10
S'Possible'
p1532
sg12
S'Most'
p1533
sg14
g66
sg16
I0
sg17
S'High'
p1534
sg19
S'Stor tilleggsbelastning'
p1535
sg21
Nsg22
S'500'
p1536
sg24
S'1900'
p1537
sg26
S'De fleste bratte heng, Ogsaa i mindre bratt terreng'
p1538
sg28
Nsg29
g1304
sg31
S'5 - Svaert store'
p1539
sba(irunmatrix
M3Element
p1540
(dp1541
g3
Nsg4
S'Lite sannsynlig, Mulig'
p1542
sg6
S'gray'
p1543
sg8
(lp1544
sg10
S'Possible'
p1545
sg12
S'Most'
p1546
sg14
g66
sg16
I0
sg17
S'Low'
p1547
sg19
S'Liten tilleggsbelastning'
p1548
sg21
Nsg22
S'500'
p1549
sg24
S'2000'
p1550
sg26
S'De fleste bratte heng, Ogsaa i mindre bratt terreng'
p1551
sg28
Nsg29
g1304
sg31
S'5 - Svaert store'
p1552
sba(irunmatrix
M3Element
p1553
(dp1554
g3
Nsg4
S'Lite sannsynlig, Mulig'
p1555
sg6
S'gray'
p1556
sg8
(lp1557
sg10
S'Possible'
p1558
sg12
S'Most'
p1559
sg14
g66
sg16
I0
sg17
S'Nat'
p1560
sg19
S'Naturlig utloest'
p1561
sg21
Nsg22
S'500'
p1562
sg24
S'2100'
p1563
sg26
S'De fleste bratte heng, Ogsaa i mindre bratt terreng'
p1564
sg28
Nsg29
g1304
sg31
S'5 - Svaert store'
p1565
sba(irunmatrix
M3Element
p1566
(dp1567
g3
Nsg4
S'Sannsynlig, Meget sannsynlig'
p1568
sg6
S'gray'
p1569
sg8
(lp1570
sg10
S'Likely'
p1571
sg12
S'Most'
p1572
sg14
g66
sg16
I0
sg17
S'High'
p1573
sg19
S'Stor tilleggsbelastning'
p1574
sg21
Nsg22
S'500'
p1575
sg24
S'2200'
p1576
sg26
S'De fleste bratte heng, Ogsaa i mindre bratt terreng'
p1577
sg28
Nsg29
g1304
sg31
S'5 - Svaert store'
p1578
sba(irunmatrix
M3Element
p1579
(dp1580
g3
Nsg4
S'Sannsynlig, Meget sannsynlig'
p1581
sg6
S'gray'
p1582
sg8
(lp1583
sg10
S'Likely'
p1584
sg12
S'Most'
p1585
sg14
g66
sg16
I0
sg17
S'Low'
p1586
sg19
S'Liten tilleggsbelastning'
p1587
sg21
Nsg22
S'500'
p1588
sg24
S'2300'
p1589
sg26
S'De fleste bratte heng, Ogsaa i mindre bratt terreng'
p1590
sg28
Nsg29
g1304
sg31
S'5 - Svaert store'
p1591
sba(irunmatrix
M3Element
p1592
(dp1593
g3
Nsg4
S'Sannsynlig, Meget sannsynlig'
p1594
sg6
S'white'
p1595
sg8
(lp1596
sg10
S'Likely'
p1597
sg12
S'Most'
p1598
sg14
g66
sg16
I0
sg17
S'Nat'
p1599
sg19
S'Naturlig utloest'
p1600
sg21
Nsg22
S'500'
p1601
sg24
S'2400'
p1602
sg26
S'De fleste bratte heng, Ogsaa i mindre bratt terreng'
p1603
sg28
Nsg29
g1304
sg31
S'5 - Svaert store'
p1604
sba.