(dp0
S'trigger'
p1
(dp2
S'keys'
p3
(lp4
S'Stor tilleggsbelastning'
p5
aS'Liten tilleggsbelastning'
p6
aS'Naturlig utloest'
p7
asS'colors'
p8
(lp9
S'0.7'
p10
asS'values'
p11
(lp12
S'Liten tilleggsbelastning'
p13
aS'Stor tilleggsbelastning'
p14
aS'Stor tilleggsbelastning'
p15
aS'Stor tilleggsbelastning'
p16
aS'Liten tilleggsbelastning'
p17
aS'Stor tilleggsbelastning'
p18
aS'Liten tilleggsbelastning'
p19
aS'Naturlig utloest'
p20
aS'Stor tilleggsbelastning'
p21
aS'Liten tilleggsbelastning'
p22
aS'Liten tilleggsbelastning'
p23
aS'Naturlig utloest'
p24
aS'Liten tilleggsbelastning'
p25
aS'Liten tilleggsbelastning'
p26
aS'Liten tilleggsbelastning'
p27
aS'Liten tilleggsbelastning'
p28
aS'Stor tilleggsbelastning'
p29
aS'Liten tilleggsbelastning'
p30
aS'Liten tilleggsbelastning'
p31
aS'Liten tilleggsbelastning'
p32
aS'Liten tilleggsbelastning'
p33
aS'Naturlig utloest'
p34
aS'Liten tilleggsbelastning'
p35
aS'Liten tilleggsbelastning'
p36
aS'Liten tilleggsbelastning'
p37
aS'Naturlig utloest'
p38
aS'Liten tilleggsbelastning'
p39
aS'Liten tilleggsbelastning'
p40
aS'Liten tilleggsbelastning'
p41
aS'Liten tilleggsbelastning'
p42
aS'Liten tilleggsbelastning'
p43
aS'Liten tilleggsbelastning'
p44
aS'Liten tilleggsbelastning'
p45
aS'Stor tilleggsbelastning'
p46
aS'Liten tilleggsbelastning'
p47
aS'Naturlig utloest'
p48
aS'Naturlig utloest'
p49
aS'Naturlig utloest'
p50
aS'Naturlig utloest'
p51
aS'Naturlig utloest'
p52
aS'Naturlig utloest'
p53
aS'Naturlig utloest'
p54
aS'Naturlig utloest'
p55
aS'Naturlig utloest'
p56
aS'Naturlig utloest'
p57
aS'Naturlig utloest'
p58
aS'Naturlig utloest'
p59
aS'Liten tilleggsbelastning'
p60
aS'Naturlig utloest'
p61
aS'Liten tilleggsbelastning'
p62
aS'Naturlig utloest'
p63
aS'Naturlig utloest'
p64
aS'Naturlig utloest'
p65
aS'Liten tilleggsbelastning'
p66
aS'Naturlig utloest'
p67
aS'Liten tilleggsbelastning'
p68
aS'Liten tilleggsbelastning'
p69
aS'Naturlig utloest'
p70
aS'Naturlig utloest'
p71
aS'Liten tilleggsbelastning'
p72
aS'Naturlig utloest'
p73
aS'Liten tilleggsbelastning'
p74
aS'Naturlig utloest'
p75
aS'Liten tilleggsbelastning'
p76
aS'Liten tilleggsbelastning'
p77
aS'Liten tilleggsbelastning'
p78
aS'Liten tilleggsbelastning'
p79
aS'Liten tilleggsbelastning'
p80
aS'Liten tilleggsbelastning'
p81
aS'Liten tilleggsbelastning'
p82
aS'Liten tilleggsbelastning'
p83
aS'Liten tilleggsbelastning'
p84
aS'Stor tilleggsbelastning'
p85
aS'Liten tilleggsbelastning'
p86
aS'Naturlig utloest'
p87
aS'Liten tilleggsbelastning'
p88
aS'Liten tilleggsbelastning'
p89
aS'Stor tilleggsbelastning'
p90
aS'Liten tilleggsbelastning'
p91
aS'Stor tilleggsbelastning'
p92
aS'Liten tilleggsbelastning'
p93
aS'Liten tilleggsbelastning'
p94
aS'Liten tilleggsbelastning'
p95
aS'Liten tilleggsbelastning'
p96
aS'Stor tilleggsbelastning'
p97
aS'Stor tilleggsbelastning'
p98
aS'Stor tilleggsbelastning'
p99
aS'Stor tilleggsbelastning'
p100
aS'Stor tilleggsbelastning'
p101
assS'distribution'
p102
(dp103
g3
(lp104
S'Isolerte faresoner'
p105
aS'Noen bratte heng'
p106
aS'Mange bratte heng'
p107
aS'De fleste bratte heng'
p108
aS'Ogsaa i mindre bratt terreng'
p109
asg8
(lp110
g10
asg11
(lp111
S'Noen bratte heng'
p112
aS'Noen bratte heng'
p113
aS'Noen bratte heng'
p114
aS'Isolerte faresoner'
p115
aS'Isolerte faresoner'
p116
aS'Noen bratte heng'
p117
aS'Isolerte faresoner'
p118
aS'Noen bratte heng'
p119
aS'Noen bratte heng'
p120
aS'Noen bratte heng'
p121
aS'Noen bratte heng'
p122
aS'Mange bratte heng'
p123
aS'Noen bratte heng'
p124
aS'Noen bratte heng'
p125
aS'Noen bratte heng'
p126
aS'Noen bratte heng'
p127
aS'Noen bratte heng'
p128
aS'Noen bratte heng'
p129
aS'Noen bratte heng'
p130
aS'Noen bratte heng'
p131
aS'Noen bratte heng'
p132
aS'Noen bratte heng'
p133
aS'Isolerte faresoner'
p134
aS'Noen bratte heng'
p135
aS'Noen bratte heng'
p136
aS'Noen bratte heng'
p137
aS'Noen bratte heng'
p138
aS'Noen bratte heng'
p139
aS'Noen bratte heng'
p140
aS'Noen bratte heng'
p141
aS'Noen bratte heng'
p142
aS'Isolerte faresoner'
p143
aS'Isolerte faresoner'
p144
aS'Isolerte faresoner'
p145
aS'Isolerte faresoner'
p146
aS'Isolerte faresoner'
p147
aS'Isolerte faresoner'
p148
aS'Isolerte faresoner'
p149
aS'Isolerte faresoner'
p150
aS'Isolerte faresoner'
p151
aS'Isolerte faresoner'
p152
aS'Isolerte faresoner'
p153
aS'Isolerte faresoner'
p154
aS'Isolerte faresoner'
p155
aS'Isolerte faresoner'
p156
aS'Isolerte faresoner'
p157
aS'Isolerte faresoner'
p158
aS'Noen bratte heng'
p159
aS'Isolerte faresoner'
p160
aS'Noen bratte heng'
p161
aS'Isolerte faresoner'
p162
aS'Isolerte faresoner'
p163
aS'Isolerte faresoner'
p164
aS'Noen bratte heng'
p165
aS'Isolerte faresoner'
p166
aS'Noen bratte heng'
p167
aS'Noen bratte heng'
p168
aS'Isolerte faresoner'
p169
aS'Isolerte faresoner'
p170
aS'Noen bratte heng'
p171
aS'Isolerte faresoner'
p172
aS'Noen bratte heng'
p173
aS'Isolerte faresoner'
p174
aS'Isolerte faresoner'
p175
aS'Noen bratte heng'
p176
aS'Noen bratte heng'
p177
aS'Noen bratte heng'
p178
aS'Noen bratte heng'
p179
aS'Noen bratte heng'
p180
aS'Isolerte faresoner'
p181
aS'Isolerte faresoner'
p182
aS'Isolerte faresoner'
p183
aS'Isolerte faresoner'
p184
aS'Isolerte faresoner'
p185
aS'Noen bratte heng'
p186
aS'Noen bratte heng'
p187
aS'Noen bratte heng'
p188
aS'Isolerte faresoner'
p189
aS'Noen bratte heng'
p190
aS'Noen bratte heng'
p191
aS'Noen bratte heng'
p192
aS'Noen bratte heng'
p193
aS'Noen bratte heng'
p194
aS'Noen bratte heng'
p195
aS'Noen bratte heng'
p196
aS'Noen bratte heng'
p197
aS'Noen bratte heng'
p198
aS'Noen bratte heng'
p199
aS'Noen bratte heng'
p200
assS'size'
p201
(dp202
g3
(lp203
S'1 - Harmloest'
p204
aS'2 - Smaa'
p205
aS'3 - Middels'
p206
aS'4 - Store'
p207
aS'5 - Svaert store'
p208
aS'Ukjent'
p209
asg8
(lp210
g10
asg11
(lp211
S'3 - Middels'
p212
aS'2 - Smaa'
p213
aS'2 - Smaa'
p214
aS'1 - Harmloest'
p215
aS'2 - Smaa'
p216
aS'2 - Smaa'
p217
aS'2 - Smaa'
p218
aS'3 - Middels'
p219
aS'2 - Smaa'
p220
aS'2 - Smaa'
p221
aS'3 - Middels'
p222
aS'3 - Middels'
p223
aS'3 - Middels'
p224
aS'3 - Middels'
p225
aS'2 - Smaa'
p226
aS'2 - Smaa'
p227
aS'2 - Smaa'
p228
aS'2 - Smaa'
p229
aS'2 - Smaa'
p230
aS'3 - Middels'
p231
aS'2 - Smaa'
p232
aS'3 - Middels'
p233
aS'2 - Smaa'
p234
aS'2 - Smaa'
p235
aS'2 - Smaa'
p236
aS'3 - Middels'
p237
aS'2 - Smaa'
p238
aS'2 - Smaa'
p239
aS'2 - Smaa'
p240
aS'2 - Smaa'
p241
aS'3 - Middels'
p242
aS'3 - Middels'
p243
aS'3 - Middels'
p244
aS'2 - Smaa'
p245
aS'3 - Middels'
p246
aS'3 - Middels'
p247
aS'2 - Smaa'
p248
aS'3 - Middels'
p249
aS'3 - Middels'
p250
aS'2 - Smaa'
p251
aS'2 - Smaa'
p252
aS'3 - Middels'
p253
aS'2 - Smaa'
p254
aS'3 - Middels'
p255
aS'3 - Middels'
p256
aS'2 - Smaa'
p257
aS'2 - Smaa'
p258
aS'2 - Smaa'
p259
aS'2 - Smaa'
p260
aS'2 - Smaa'
p261
aS'3 - Middels'
p262
aS'2 - Smaa'
p263
aS'2 - Smaa'
p264
aS'2 - Smaa'
p265
aS'2 - Smaa'
p266
aS'2 - Smaa'
p267
aS'2 - Smaa'
p268
aS'2 - Smaa'
p269
aS'2 - Smaa'
p270
aS'2 - Smaa'
p271
aS'2 - Smaa'
p272
aS'2 - Smaa'
p273
aS'2 - Smaa'
p274
aS'2 - Smaa'
p275
aS'2 - Smaa'
p276
aS'2 - Smaa'
p277
aS'2 - Smaa'
p278
aS'2 - Smaa'
p279
aS'2 - Smaa'
p280
aS'2 - Smaa'
p281
aS'2 - Smaa'
p282
aS'2 - Smaa'
p283
aS'2 - Smaa'
p284
aS'2 - Smaa'
p285
aS'2 - Smaa'
p286
aS'2 - Smaa'
p287
aS'2 - Smaa'
p288
aS'2 - Smaa'
p289
aS'2 - Smaa'
p290
aS'3 - Middels'
p291
aS'2 - Smaa'
p292
aS'2 - Smaa'
p293
aS'2 - Smaa'
p294
aS'2 - Smaa'
p295
aS'3 - Middels'
p296
aS'3 - Middels'
p297
aS'3 - Middels'
p298
aS'3 - Middels'
p299
aS'3 - Middels'
p300
assS'probability'
p301
(dp302
g3
(lp303
S'Lite sannsynlig'
p304
aS'Mulig'
p305
aS'Sannsynlig'
p306
aS'Meget sannsynlig'
p307
asg8
(lp308
g10
asg11
(lp309
S'Mulig'
p310
aS'Mulig'
p311
aS'Mulig'
p312
aS'Mulig'
p313
aS'Mulig'
p314
aS'Mulig'
p315
aS'Mulig'
p316
aS'Mulig'
p317
aS'Mulig'
p318
aS'Mulig'
p319
aS'Sannsynlig'
p320
aS'Mulig'
p321
aS'Sannsynlig'
p322
aS'Mulig'
p323
aS'Mulig'
p324
aS'Mulig'
p325
aS'Mulig'
p326
aS'Mulig'
p327
aS'Mulig'
p328
aS'Mulig'
p329
aS'Mulig'
p330
aS'Mulig'
p331
aS'Mulig'
p332
aS'Mulig'
p333
aS'Mulig'
p334
aS'Mulig'
p335
aS'Mulig'
p336
aS'Mulig'
p337
aS'Mulig'
p338
aS'Mulig'
p339
aS'Mulig'
p340
aS'Mulig'
p341
aS'Mulig'
p342
aS'Mulig'
p343
aS'Mulig'
p344
aS'Lite sannsynlig'
p345
aS'Mulig'
p346
aS'Lite sannsynlig'
p347
aS'Lite sannsynlig'
p348
aS'Mulig'
p349
aS'Mulig'
p350
aS'Lite sannsynlig'
p351
aS'Mulig'
p352
aS'Lite sannsynlig'
p353
aS'Lite sannsynlig'
p354
aS'Mulig'
p355
aS'Mulig'
p356
aS'Mulig'
p357
aS'Mulig'
p358
aS'Mulig'
p359
aS'Lite sannsynlig'
p360
aS'Mulig'
p361
aS'Mulig'
p362
aS'Mulig'
p363
aS'Mulig'
p364
aS'Mulig'
p365
aS'Mulig'
p366
aS'Mulig'
p367
aS'Mulig'
p368
aS'Mulig'
p369
aS'Mulig'
p370
aS'Mulig'
p371
aS'Mulig'
p372
aS'Mulig'
p373
aS'Mulig'
p374
aS'Mulig'
p375
aS'Mulig'
p376
aS'Mulig'
p377
aS'Mulig'
p378
aS'Mulig'
p379
aS'Mulig'
p380
aS'Mulig'
p381
aS'Mulig'
p382
aS'Mulig'
p383
aS'Mulig'
p384
aS'Mulig'
p385
aS'Mulig'
p386
aS'Mulig'
p387
aS'Mulig'
p388
aS'Mulig'
p389
aS'Mulig'
p390
aS'Mulig'
p391
aS'Mulig'
p392
aS'Mulig'
p393
aS'Mulig'
p394
aS'Mulig'
p395
aS'Mulig'
p396
aS'Mulig'
p397
aS'Mulig'
p398
assS'level'
p399
(dp400
g3
(lp401
I1
aI2
aI3
aI4
aI5
asg8
(lp402
S'#ccff66'
p403
aS'#ffff00'
p404
aS'#ff9900'
p405
aS'#ff0000'
p406
aS'k'
p407
asg11
(lp408
I3
aI2
aI2
aI1
aI1
aI2
aI2
aI3
aI2
aI2
aI3
aI3
aI3
aI3
aI3
aI2
aI2
aI2
aI2
aI3
aI2
aI3
aI2
aI2
aI2
aI3
aI2
aI2
aI2
aI2
aI3
aI2
aI2
aI2
aI2
aI1
aI1
aI1
aI1
aI1
aI1
aI1
aI1
aI1
aI1
aI1
aI1
aI2
aI1
aI2
aI2
aI1
aI1
aI2
aI1
aI2
aI2
aI1
aI1
aI2
aI1
aI2
aI1
aI1
aI2
aI2
aI2
aI2
aI2
aI1
aI1
aI1
aI2
aI1
aI3
aI2
aI2
aI2
aI2
aI2
aI2
aI2
aI2
aI2
aI2
aI2
aI2
aI2
aI2
ass.