(lp0
(irunmatrix
M3Element
p1
(dp2
S'danger_level_average'
p3
NsS'probability'
p4
S'Lite sannsynlig, Mulig'
p5
sS'colour'
p6
S'white'
p7
sS'danger_level_list'
p8
(lp9
sS'label_probalility'
p10
S'Possible'
p11
sS'label_distribution'
p12
S'Isolated'
p13
sS'recomended_colour'
p14
S'#ccff66'
p15
sS'recomended_danger_level'
p16
I1
sS'label_trigger'
p17
S'High'
p18
sS'trigger'
p19
S'Stor tilleggsbelastning'
p20
sS'occurrences'
p21
NsS'y'
p22
S'100'
p23
sS'x'
p24
S'100'
p25
sS'distribution'
p26
S'Isolerte faresoner'
p27
sS'danger_level_standard_dev'
p28
NsS'label_size'
p29
S'1'
p30
sS'avalanche_size'
p31
S'1 - Harmloest'
p32
sba(irunmatrix
M3Element
p33
(dp34
g3
F1.0
sg4
S'Lite sannsynlig, Mulig'
p35
sg6
S'#ccff66'
p36
sg8
(lp37
I1
aI1
aI1
aI1
aI1
aI1
aI1
asg10
S'Possible'
p38
sg12
S'Isolated'
p39
sg14
g15
sg16
I1
sg17
S'Low'
p40
sg19
S'Liten tilleggsbelastning'
p41
sg21
I7
sg22
S'100'
p42
sg24
S'200'
p43
sg26
S'Isolerte faresoner'
p44
sg28
cnumpy.core.multiarray
scalar
p45
(cnumpy
dtype
p46
(S'f8'
p47
I0
I1
tp48
Rp49
(I3
S'<'
p50
NNNI-1
I-1
I0
tp51
bS'\x00\x00\x00\x00\x00\x00\x00\x00'
p52
tp53
Rp54
sg29
g30
sg31
S'1 - Harmloest'
p55
sba(irunmatrix
M3Element
p56
(dp57
g3
Nsg4
S'Lite sannsynlig, Mulig'
p58
sg6
S'white'
p59
sg8
(lp60
sg10
S'Possible'
p61
sg12
S'Isolated'
p62
sg14
g15
sg16
I1
sg17
S'Nat'
p63
sg19
S'Naturlig utloest'
p64
sg21
Nsg22
S'100'
p65
sg24
S'300'
p66
sg26
S'Isolerte faresoner'
p67
sg28
Nsg29
g30
sg31
S'1 - Harmloest'
p68
sba(irunmatrix
M3Element
p69
(dp70
g3
Nsg4
S'Sannsynlig, Meget sannsynlig'
p71
sg6
S'gray'
p72
sg8
(lp73
sg10
S'Likely'
p74
sg12
S'Isolated'
p75
sg14
S'gray'
p76
sg16
I0
sg17
S'High'
p77
sg19
S'Stor tilleggsbelastning'
p78
sg21
Nsg22
S'100'
p79
sg24
S'400'
p80
sg26
S'Isolerte faresoner'
p81
sg28
Nsg29
g30
sg31
S'1 - Harmloest'
p82
sba(irunmatrix
M3Element
p83
(dp84
g3
Nsg4
S'Sannsynlig, Meget sannsynlig'
p85
sg6
S'gray'
p86
sg8
(lp87
sg10
S'Likely'
p88
sg12
S'Isolated'
p89
sg14
g76
sg16
I0
sg17
S'Low'
p90
sg19
S'Liten tilleggsbelastning'
p91
sg21
Nsg22
S'100'
p92
sg24
S'500'
p93
sg26
S'Isolerte faresoner'
p94
sg28
Nsg29
g30
sg31
S'1 - Harmloest'
p95
sba(irunmatrix
M3Element
p96
(dp97
g3
Nsg4
S'Sannsynlig, Meget sannsynlig'
p98
sg6
S'gray'
p99
sg8
(lp100
sg10
S'Likely'
p101
sg12
S'Isolated'
p102
sg14
g76
sg16
I0
sg17
S'Nat'
p103
sg19
S'Naturlig utloest'
p104
sg21
Nsg22
S'100'
p105
sg24
S'600'
p106
sg26
S'Isolerte faresoner'
p107
sg28
Nsg29
g30
sg31
S'1 - Harmloest'
p108
sba(irunmatrix
M3Element
p109
(dp110
g3
Nsg4
S'Lite sannsynlig, Mulig'
p111
sg6
S'white'
p112
sg8
(lp113
sg10
S'Possible'
p114
sg12
S'Some'
p115
sg14
g15
sg16
I1
sg17
S'High'
p116
sg19
S'Stor tilleggsbelastning'
p117
sg21
Nsg22
S'100'
p118
sg24
S'700'
p119
sg26
S'Noen bratte heng'
p120
sg28
Nsg29
g30
sg31
S'1 - Harmloest'
p121
sba(irunmatrix
M3Element
p122
(dp123
g3
F1.0
sg4
S'Lite sannsynlig, Mulig'
p124
sg6
g36
sg8
(lp125
I1
asg10
S'Possible'
p126
sg12
S'Some'
p127
sg14
g15
sg16
I1
sg17
S'Low'
p128
sg19
S'Liten tilleggsbelastning'
p129
sg21
I1
sg22
S'100'
p130
sg24
S'800'
p131
sg26
S'Noen bratte heng'
p132
sg28
g45
(g49
S'\x00\x00\x00\x00\x00\x00\x00\x00'
p133
tp134
Rp135
sg29
g30
sg31
S'1 - Harmloest'
p136
sba(irunmatrix
M3Element
p137
(dp138
g3
F1.1578947368421053
sg4
S'Lite sannsynlig, Mulig'
p139
sg6
g36
sg8
(lp140
I2
aI1
aI1
aI1
aI1
aI1
aI1
aI1
aI1
aI1
aI1
aI1
aI2
aI2
aI1
aI1
aI1
aI1
aI1
asg10
S'Possible'
p141
sg12
S'Some'
p142
sg14
g15
sg16
I1
sg17
S'Nat'
p143
sg19
S'Naturlig utloest'
p144
sg21
I19
sg22
S'100'
p145
sg24
S'900'
p146
sg26
S'Noen bratte heng'
p147
sg28
g45
(g49
S'\xe0\x9e\xc3\x8dLV\xd7?'
p148
tp149
Rp150
sg29
g30
sg31
S'1 - Harmloest'
p151
sba(irunmatrix
M3Element
p152
(dp153
g3
Nsg4
S'Sannsynlig, Meget sannsynlig'
p154
sg6
S'gray'
p155
sg8
(lp156
sg10
S'Likely'
p157
sg12
S'Some'
p158
sg14
g76
sg16
I0
sg17
S'High'
p159
sg19
S'Stor tilleggsbelastning'
p160
sg21
Nsg22
S'100'
p161
sg24
S'1000'
p162
sg26
S'Noen bratte heng'
p163
sg28
Nsg29
g30
sg31
S'1 - Harmloest'
p164
sba(irunmatrix
M3Element
p165
(dp166
g3
Nsg4
S'Sannsynlig, Meget sannsynlig'
p167
sg6
S'gray'
p168
sg8
(lp169
sg10
S'Likely'
p170
sg12
S'Some'
p171
sg14
g76
sg16
I0
sg17
S'Low'
p172
sg19
S'Liten tilleggsbelastning'
p173
sg21
Nsg22
S'100'
p174
sg24
S'1100'
p175
sg26
S'Noen bratte heng'
p176
sg28
Nsg29
g30
sg31
S'1 - Harmloest'
p177
sba(irunmatrix
M3Element
p178
(dp179
g3
F1.0
sg4
S'Sannsynlig, Meget sannsynlig'
p180
sg6
g36
sg8
(lp181
I1
aI1
aI1
aI1
aI1
aI1
asg10
S'Likely'
p182
sg12
S'Some'
p183
sg14
g15
sg16
I1
sg17
S'Nat'
p184
sg19
S'Naturlig utloest'
p185
sg21
I6
sg22
S'100'
p186
sg24
S'1200'
p187
sg26
S'Noen bratte heng'
p188
sg28
g45
(g49
S'\x00\x00\x00\x00\x00\x00\x00\x00'
p189
tp190
Rp191
sg29
g30
sg31
S'1 - Harmloest'
p192
sba(irunmatrix
M3Element
p193
(dp194
g3
Nsg4
S'Lite sannsynlig, Mulig'
p195
sg6
S'gray'
p196
sg8
(lp197
sg10
S'Possible'
p198
sg12
S'Many'
p199
sg14
g76
sg16
I0
sg17
S'High'
p200
sg19
S'Stor tilleggsbelastning'
p201
sg21
Nsg22
S'100'
p202
sg24
S'1300'
p203
sg26
S'Mange bratte heng'
p204
sg28
Nsg29
g30
sg31
S'1 - Harmloest'
p205
sba(irunmatrix
M3Element
p206
(dp207
g3
Nsg4
S'Lite sannsynlig, Mulig'
p208
sg6
S'white'
p209
sg8
(lp210
sg10
S'Possible'
p211
sg12
S'Many'
p212
sg14
g15
sg16
I1
sg17
S'Low'
p213
sg19
S'Liten tilleggsbelastning'
p214
sg21
Nsg22
S'100'
p215
sg24
S'1400'
p216
sg26
S'Mange bratte heng'
p217
sg28
Nsg29
g30
sg31
S'1 - Harmloest'
p218
sba(irunmatrix
M3Element
p219
(dp220
g3
Nsg4
S'Lite sannsynlig, Mulig'
p221
sg6
S'gray'
p222
sg8
(lp223
sg10
S'Possible'
p224
sg12
S'Many'
p225
sg14
g76
sg16
I0
sg17
S'Nat'
p226
sg19
S'Naturlig utloest'
p227
sg21
Nsg22
S'100'
p228
sg24
S'1500'
p229
sg26
S'Mange bratte heng'
p230
sg28
Nsg29
g30
sg31
S'1 - Harmloest'
p231
sba(irunmatrix
M3Element
p232
(dp233
g3
Nsg4
S'Sannsynlig, Meget sannsynlig'
p234
sg6
S'gray'
p235
sg8
(lp236
sg10
S'Likely'
p237
sg12
S'Many'
p238
sg14
g76
sg16
I0
sg17
S'High'
p239
sg19
S'Stor tilleggsbelastning'
p240
sg21
Nsg22
S'100'
p241
sg24
S'1600'
p242
sg26
S'Mange bratte heng'
p243
sg28
Nsg29
g30
sg31
S'1 - Harmloest'
p244
sba(irunmatrix
M3Element
p245
(dp246
g3
Nsg4
S'Sannsynlig, Meget sannsynlig'
p247
sg6
S'white'
p248
sg8
(lp249
sg10
S'Likely'
p250
sg12
S'Many'
p251
sg14
S'#ffff00'
p252
sg16
I2
sg17
S'Low'
p253
sg19
S'Liten tilleggsbelastning'
p254
sg21
Nsg22
S'100'
p255
sg24
S'1700'
p256
sg26
S'Mange bratte heng'
p257
sg28
Nsg29
g30
sg31
S'1 - Harmloest'
p258
sba(irunmatrix
M3Element
p259
(dp260
g3
Nsg4
S'Sannsynlig, Meget sannsynlig'
p261
sg6
S'white'
p262
sg8
(lp263
sg10
S'Likely'
p264
sg12
S'Many'
p265
sg14
g252
sg16
I2
sg17
S'Nat'
p266
sg19
S'Naturlig utloest'
p267
sg21
Nsg22
S'100'
p268
sg24
S'1800'
p269
sg26
S'Mange bratte heng'
p270
sg28
Nsg29
g30
sg31
S'1 - Harmloest'
p271
sba(irunmatrix
M3Element
p272
(dp273
g3
Nsg4
S'Lite sannsynlig, Mulig'
p274
sg6
S'gray'
p275
sg8
(lp276
sg10
S'Possible'
p277
sg12
S'Most'
p278
sg14
g76
sg16
I0
sg17
S'High'
p279
sg19
S'Stor tilleggsbelastning'
p280
sg21
Nsg22
S'100'
p281
sg24
S'1900'
p282
sg26
S'De fleste bratte heng, Ogsaa i mindre bratt terreng'
p283
sg28
Nsg29
g30
sg31
S'1 - Harmloest'
p284
sba(irunmatrix
M3Element
p285
(dp286
g3
Nsg4
S'Lite sannsynlig, Mulig'
p287
sg6
S'gray'
p288
sg8
(lp289
sg10
S'Possible'
p290
sg12
S'Most'
p291
sg14
g76
sg16
I0
sg17
S'Low'
p292
sg19
S'Liten tilleggsbelastning'
p293
sg21
Nsg22
S'100'
p294
sg24
S'2000'
p295
sg26
S'De fleste bratte heng, Ogsaa i mindre bratt terreng'
p296
sg28
Nsg29
g30
sg31
S'1 - Harmloest'
p297
sba(irunmatrix
M3Element
p298
(dp299
g3
Nsg4
S'Lite sannsynlig, Mulig'
p300
sg6
S'gray'
p301
sg8
(lp302
sg10
S'Possible'
p303
sg12
S'Most'
p304
sg14
g76
sg16
I0
sg17
S'Nat'
p305
sg19
S'Naturlig utloest'
p306
sg21
Nsg22
S'100'
p307
sg24
S'2100'
p308
sg26
S'De fleste bratte heng, Ogsaa i mindre bratt terreng'
p309
sg28
Nsg29
g30
sg31
S'1 - Harmloest'
p310
sba(irunmatrix
M3Element
p311
(dp312
g3
Nsg4
S'Sannsynlig, Meget sannsynlig'
p313
sg6
S'gray'
p314
sg8
(lp315
sg10
S'Likely'
p316
sg12
S'Most'
p317
sg14
g76
sg16
I0
sg17
S'High'
p318
sg19
S'Stor tilleggsbelastning'
p319
sg21
Nsg22
S'100'
p320
sg24
S'2200'
p321
sg26
S'De fleste bratte heng, Ogsaa i mindre bratt terreng'
p322
sg28
Nsg29
g30
sg31
S'1 - Harmloest'
p323
sba(irunmatrix
M3Element
p324
(dp325
g3
Nsg4
S'Sannsynlig, Meget sannsynlig'
p326
sg6
S'gray'
p327
sg8
(lp328
sg10
S'Likely'
p329
sg12
S'Most'
p330
sg14
g76
sg16
I0
sg17
S'Low'
p331
sg19
S'Liten tilleggsbelastning'
p332
sg21
Nsg22
S'100'
p333
sg24
S'2300'
p334
sg26
S'De fleste bratte heng, Ogsaa i mindre bratt terreng'
p335
sg28
Nsg29
g30
sg31
S'1 - Harmloest'
p336
sba(irunmatrix
M3Element
p337
(dp338
g3
Nsg4
S'Sannsynlig, Meget sannsynlig'
p339
sg6
S'white'
p340
sg8
(lp341
sg10
S'Likely'
p342
sg12
S'Most'
p343
sg14
g76
sg16
I0
sg17
S'Nat'
p344
sg19
S'Naturlig utloest'
p345
sg21
Nsg22
S'100'
p346
sg24
S'2400'
p347
sg26
S'De fleste bratte heng, Ogsaa i mindre bratt terreng'
p348
sg28
Nsg29
S'2'
p349
sg31
S'1 - Harmloest'
p350
sba(irunmatrix
M3Element
p351
(dp352
g3
F1.5
sg4
S'Lite sannsynlig, Mulig'
p353
sg6
S'#ffff00'
p354
sg8
(lp355
I1
aI2
asg10
S'Possible'
p356
sg12
S'Isolated'
p357
sg14
g15
sg16
I1
sg17
S'High'
p358
sg19
S'Stor tilleggsbelastning'
p359
sg21
I2
sg22
S'200'
p360
sg24
S'100'
p361
sg26
S'Isolerte faresoner'
p362
sg28
g45
(g49
S'\x00\x00\x00\x00\x00\x00\xe0?'
p363
tp364
Rp365
sg29
g349
sg31
S'2 - Smaa'
p366
sba(irunmatrix
M3Element
p367
(dp368
g3
F1.8
sg4
S'Lite sannsynlig, Mulig'
p369
sg6
g354
sg8
(lp370
I2
aI2
aI2
aI2
aI2
aI2
aI1
aI1
aI2
aI2
aI2
aI2
aI1
aI1
aI2
aI2
aI2
aI2
aI2
aI2
asg10
S'Possible'
p371
sg12
S'Isolated'
p372
sg14
g15
sg16
I1
sg17
S'Low'
p373
sg19
S'Liten tilleggsbelastning'
p374
sg21
I20
sg22
S'200'
p375
sg24
S'200'
p376
sg26
S'Isolerte faresoner'
p377
sg28
g45
(g49
S'\x9a\x99\x99\x99\x99\x99\xd9?'
p378
tp379
Rp380
sg29
g349
sg31
S'2 - Smaa'
p381
sba(irunmatrix
M3Element
p382
(dp383
g3
F1.0
sg4
S'Lite sannsynlig, Mulig'
p384
sg6
g36
sg8
(lp385
I1
aI1
aI1
asg10
S'Possible'
p386
sg12
S'Isolated'
p387
sg14
g15
sg16
I1
sg17
S'Nat'
p388
sg19
S'Naturlig utloest'
p389
sg21
I3
sg22
S'200'
p390
sg24
S'300'
p391
sg26
S'Isolerte faresoner'
p392
sg28
g45
(g49
S'\x00\x00\x00\x00\x00\x00\x00\x00'
p393
tp394
Rp395
sg29
g349
sg31
S'2 - Smaa'
p396
sba(irunmatrix
M3Element
p397
(dp398
g3
Nsg4
S'Sannsynlig, Meget sannsynlig'
p399
sg6
S'gray'
p400
sg8
(lp401
sg10
S'Likely'
p402
sg12
S'Isolated'
p403
sg14
g76
sg16
I0
sg17
S'High'
p404
sg19
S'Stor tilleggsbelastning'
p405
sg21
Nsg22
S'200'
p406
sg24
S'400'
p407
sg26
S'Isolerte faresoner'
p408
sg28
Nsg29
g349
sg31
S'2 - Smaa'
p409
sba(irunmatrix
M3Element
p410
(dp411
g3
Nsg4
S'Sannsynlig, Meget sannsynlig'
p412
sg6
S'gray'
p413
sg8
(lp414
sg10
S'Likely'
p415
sg12
S'Isolated'
p416
sg14
g76
sg16
I0
sg17
S'Low'
p417
sg19
S'Liten tilleggsbelastning'
p418
sg21
Nsg22
S'200'
p419
sg24
S'500'
p420
sg26
S'Isolerte faresoner'
p421
sg28
Nsg29
g349
sg31
S'2 - Smaa'
p422
sba(irunmatrix
M3Element
p423
(dp424
g3
Nsg4
S'Sannsynlig, Meget sannsynlig'
p425
sg6
S'gray'
p426
sg8
(lp427
sg10
S'Likely'
p428
sg12
S'Isolated'
p429
sg14
g76
sg16
I0
sg17
S'Nat'
p430
sg19
S'Naturlig utloest'
p431
sg21
Nsg22
S'200'
p432
sg24
S'600'
p433
sg26
S'Isolerte faresoner'
p434
sg28
Nsg29
g349
sg31
S'2 - Smaa'
p435
sba(irunmatrix
M3Element
p436
(dp437
g3
F1.8888888888888888
sg4
S'Lite sannsynlig, Mulig'
p438
sg6
g354
sg8
(lp439
I1
aI2
aI2
aI2
aI2
aI2
aI2
aI2
aI2
asg10
S'Possible'
p440
sg12
S'Some'
p441
sg14
g252
sg16
I2
sg17
S'High'
p442
sg19
S'Stor tilleggsbelastning'
p443
sg21
I9
sg22
S'200'
p444
sg24
S'700'
p445
sg26
S'Noen bratte heng'
p446
sg28
g45
(g49
S'\x9aQ\xff\x93\xfe\x1c\xd4?'
p447
tp448
Rp449
sg29
g349
sg31
S'2 - Smaa'
p450
sba(irunmatrix
M3Element
p451
(dp452
g3
F2.1818181818181817
sg4
S'Lite sannsynlig, Mulig'
p453
sg6
g354
sg8
(lp454
I2
aI2
aI3
aI2
aI2
aI2
aI2
aI2
aI2
aI2
aI3
asg10
S'Possible'
p455
sg12
S'Some'
p456
sg14
g252
sg16
I2
sg17
S'Low'
p457
sg19
S'Liten tilleggsbelastning'
p458
sg21
I11
sg22
S'200'
p459
sg24
S'800'
p460
sg26
S'Noen bratte heng'
p461
sg28
g45
(g49
S'S\x9e\xd0o8\xaf\xd8?'
p462
tp463
Rp464
sg29
g349
sg31
S'2 - Smaa'
p465
sba(irunmatrix
M3Element
p466
(dp467
g3
F1.8571428571428572
sg4
S'Lite sannsynlig, Mulig'
p468
sg6
g354
sg8
(lp469
I1
aI1
aI2
aI2
aI2
aI2
aI1
aI2
aI2
aI2
aI2
aI2
aI2
aI3
asg10
S'Possible'
p470
sg12
S'Some'
p471
sg14
g252
sg16
I2
sg17
S'Nat'
p472
sg19
S'Naturlig utloest'
p473
sg21
I14
sg22
S'200'
p474
sg24
S'900'
p475
sg26
S'Noen bratte heng'
p476
sg28
g45
(g49
S'\x1d\xa17p\x86{\xe0?'
p477
tp478
Rp479
sg29
g349
sg31
S'2 - Smaa'
p480
sba(irunmatrix
M3Element
p481
(dp482
g3
Nsg4
S'Sannsynlig, Meget sannsynlig'
p483
sg6
S'gray'
p484
sg8
(lp485
sg10
S'Likely'
p486
sg12
S'Some'
p487
sg14
g76
sg16
I0
sg17
S'High'
p488
sg19
S'Stor tilleggsbelastning'
p489
sg21
Nsg22
S'200'
p490
sg24
S'1000'
p491
sg26
S'Noen bratte heng'
p492
sg28
Nsg29
g349
sg31
S'2 - Smaa'
p493
sba(irunmatrix
M3Element
p494
(dp495
g3
Nsg4
S'Sannsynlig, Meget sannsynlig'
p496
sg6
S'gray'
p497
sg8
(lp498
sg10
S'Likely'
p499
sg12
S'Some'
p500
sg14
g76
sg16
I0
sg17
S'Low'
p501
sg19
S'Liten tilleggsbelastning'
p502
sg21
Nsg22
S'200'
p503
sg24
S'1100'
p504
sg26
S'Noen bratte heng'
p505
sg28
Nsg29
g349
sg31
S'2 - Smaa'
p506
sba(irunmatrix
M3Element
p507
(dp508
g3
Nsg4
S'Sannsynlig, Meget sannsynlig'
p509
sg6
S'white'
p510
sg8
(lp511
sg10
S'Likely'
p512
sg12
S'Some'
p513
sg14
S'#ff9900'
p514
sg16
I3
sg17
S'Nat'
p515
sg19
S'Naturlig utloest'
p516
sg21
Nsg22
S'200'
p517
sg24
S'1200'
p518
sg26
S'Noen bratte heng'
p519
sg28
Nsg29
g349
sg31
S'2 - Smaa'
p520
sba(irunmatrix
M3Element
p521
(dp522
g3
Nsg4
S'Lite sannsynlig, Mulig'
p523
sg6
S'gray'
p524
sg8
(lp525
sg10
S'Possible'
p526
sg12
S'Many'
p527
sg14
g76
sg16
I0
sg17
S'High'
p528
sg19
S'Stor tilleggsbelastning'
p529
sg21
Nsg22
S'200'
p530
sg24
S'1300'
p531
sg26
S'Mange bratte heng'
p532
sg28
Nsg29
g349
sg31
S'2 - Smaa'
p533
sba(irunmatrix
M3Element
p534
(dp535
g3
Nsg4
S'Lite sannsynlig, Mulig'
p536
sg6
S'white'
p537
sg8
(lp538
sg10
S'Possible'
p539
sg12
S'Many'
p540
sg14
g514
sg16
I3
sg17
S'Low'
p541
sg19
S'Liten tilleggsbelastning'
p542
sg21
Nsg22
S'200'
p543
sg24
S'1400'
p544
sg26
S'Mange bratte heng'
p545
sg28
Nsg29
g349
sg31
S'2 - Smaa'
p546
sba(irunmatrix
M3Element
p547
(dp548
g3
Nsg4
S'Lite sannsynlig, Mulig'
p549
sg6
S'gray'
p550
sg8
(lp551
sg10
S'Possible'
p552
sg12
S'Many'
p553
sg14
g76
sg16
I0
sg17
S'Nat'
p554
sg19
S'Naturlig utloest'
p555
sg21
Nsg22
S'200'
p556
sg24
S'1500'
p557
sg26
S'Mange bratte heng'
p558
sg28
Nsg29
g349
sg31
S'2 - Smaa'
p559
sba(irunmatrix
M3Element
p560
(dp561
g3
Nsg4
S'Sannsynlig, Meget sannsynlig'
p562
sg6
S'gray'
p563
sg8
(lp564
sg10
S'Likely'
p565
sg12
S'Many'
p566
sg14
g76
sg16
I0
sg17
S'High'
p567
sg19
S'Stor tilleggsbelastning'
p568
sg21
Nsg22
S'200'
p569
sg24
S'1600'
p570
sg26
S'Mange bratte heng'
p571
sg28
Nsg29
g349
sg31
S'2 - Smaa'
p572
sba(irunmatrix
M3Element
p573
(dp574
g3
Nsg4
S'Sannsynlig, Meget sannsynlig'
p575
sg6
S'white'
p576
sg8
(lp577
sg10
S'Likely'
p578
sg12
S'Many'
p579
sg14
S'#ff0000'
p580
sg16
I4
sg17
S'Low'
p581
sg19
S'Liten tilleggsbelastning'
p582
sg21
Nsg22
S'200'
p583
sg24
S'1700'
p584
sg26
S'Mange bratte heng'
p585
sg28
Nsg29
g349
sg31
S'2 - Smaa'
p586
sba(irunmatrix
M3Element
p587
(dp588
g3
F3.0
sg4
S'Sannsynlig, Meget sannsynlig'
p589
sg6
S'#ff9900'
p590
sg8
(lp591
I3
aI3
asg10
S'Likely'
p592
sg12
S'Many'
p593
sg14
g580
sg16
I4
sg17
S'Nat'
p594
sg19
S'Naturlig utloest'
p595
sg21
I2
sg22
S'200'
p596
sg24
S'1800'
p597
sg26
S'Mange bratte heng'
p598
sg28
g45
(g49
S'\x00\x00\x00\x00\x00\x00\x00\x00'
p599
tp600
Rp601
sg29
g349
sg31
S'2 - Smaa'
p602
sba(irunmatrix
M3Element
p603
(dp604
g3
Nsg4
S'Lite sannsynlig, Mulig'
p605
sg6
S'gray'
p606
sg8
(lp607
sg10
S'Possible'
p608
sg12
S'Most'
p609
sg14
g76
sg16
I0
sg17
S'High'
p610
sg19
S'Stor tilleggsbelastning'
p611
sg21
Nsg22
S'200'
p612
sg24
S'1900'
p613
sg26
S'De fleste bratte heng, Ogsaa i mindre bratt terreng'
p614
sg28
Nsg29
g349
sg31
S'2 - Smaa'
p615
sba(irunmatrix
M3Element
p616
(dp617
g3
Nsg4
S'Lite sannsynlig, Mulig'
p618
sg6
S'gray'
p619
sg8
(lp620
sg10
S'Possible'
p621
sg12
S'Most'
p622
sg14
g76
sg16
I0
sg17
S'Low'
p623
sg19
S'Liten tilleggsbelastning'
p624
sg21
Nsg22
S'200'
p625
sg24
S'2000'
p626
sg26
S'De fleste bratte heng, Ogsaa i mindre bratt terreng'
p627
sg28
Nsg29
g349
sg31
S'2 - Smaa'
p628
sba(irunmatrix
M3Element
p629
(dp630
g3
Nsg4
S'Lite sannsynlig, Mulig'
p631
sg6
S'gray'
p632
sg8
(lp633
sg10
S'Possible'
p634
sg12
S'Most'
p635
sg14
g76
sg16
I0
sg17
S'Nat'
p636
sg19
S'Naturlig utloest'
p637
sg21
Nsg22
S'200'
p638
sg24
S'2100'
p639
sg26
S'De fleste bratte heng, Ogsaa i mindre bratt terreng'
p640
sg28
Nsg29
g349
sg31
S'2 - Smaa'
p641
sba(irunmatrix
M3Element
p642
(dp643
g3
Nsg4
S'Sannsynlig, Meget sannsynlig'
p644
sg6
S'gray'
p645
sg8
(lp646
sg10
S'Likely'
p647
sg12
S'Most'
p648
sg14
g76
sg16
I0
sg17
S'High'
p649
sg19
S'Stor tilleggsbelastning'
p650
sg21
Nsg22
S'200'
p651
sg24
S'2200'
p652
sg26
S'De fleste bratte heng, Ogsaa i mindre bratt terreng'
p653
sg28
Nsg29
g349
sg31
S'2 - Smaa'
p654
sba(irunmatrix
M3Element
p655
(dp656
g3
Nsg4
S'Sannsynlig, Meget sannsynlig'
p657
sg6
S'gray'
p658
sg8
(lp659
sg10
S'Likely'
p660
sg12
S'Most'
p661
sg14
g76
sg16
I0
sg17
S'Low'
p662
sg19
S'Liten tilleggsbelastning'
p663
sg21
Nsg22
S'200'
p664
sg24
S'2300'
p665
sg26
S'De fleste bratte heng, Ogsaa i mindre bratt terreng'
p666
sg28
Nsg29
g349
sg31
S'2 - Smaa'
p667
sba(irunmatrix
M3Element
p668
(dp669
g3
Nsg4
S'Sannsynlig, Meget sannsynlig'
p670
sg6
S'white'
p671
sg8
(lp672
sg10
S'Likely'
p673
sg12
S'Most'
p674
sg14
g76
sg16
I0
sg17
S'Nat'
p675
sg19
S'Naturlig utloest'
p676
sg21
Nsg22
S'200'
p677
sg24
S'2400'
p678
sg26
S'De fleste bratte heng, Ogsaa i mindre bratt terreng'
p679
sg28
Nsg29
g349
sg31
S'2 - Smaa'
p680
sba(irunmatrix
M3Element
p681
(dp682
g3
Nsg4
S'Lite sannsynlig, Mulig'
p683
sg6
S'white'
p684
sg8
(lp685
sg10
S'Possible'
p686
sg12
S'Isolated'
p687
sg14
g15
sg16
I1
sg17
S'High'
p688
sg19
S'Stor tilleggsbelastning'
p689
sg21
Nsg22
S'300'
p690
sg24
S'100'
p691
sg26
S'Isolerte faresoner'
p692
sg28
Nsg29
S'3'
p693
sg31
S'3 - Middels'
p694
sba(irunmatrix
M3Element
p695
(dp696
g3
Nsg4
S'Lite sannsynlig, Mulig'
p697
sg6
S'white'
p698
sg8
(lp699
sg10
S'Possible'
p700
sg12
S'Isolated'
p701
sg14
g252
sg16
I2
sg17
S'Low'
p702
sg19
S'Liten tilleggsbelastning'
p703
sg21
Nsg22
S'300'
p704
sg24
S'200'
p705
sg26
S'Isolerte faresoner'
p706
sg28
Nsg29
g693
sg31
S'3 - Middels'
p707
sba(irunmatrix
M3Element
p708
(dp709
g3
Nsg4
S'Lite sannsynlig, Mulig'
p710
sg6
S'white'
p711
sg8
(lp712
sg10
S'Possible'
p713
sg12
S'Isolated'
p714
sg14
g252
sg16
I2
sg17
S'Nat'
p715
sg19
S'Naturlig utloest'
p716
sg21
Nsg22
S'300'
p717
sg24
S'300'
p718
sg26
S'Isolerte faresoner'
p719
sg28
Nsg29
g693
sg31
S'3 - Middels'
p720
sba(irunmatrix
M3Element
p721
(dp722
g3
Nsg4
S'Sannsynlig, Meget sannsynlig'
p723
sg6
S'gray'
p724
sg8
(lp725
sg10
S'Likely'
p726
sg12
S'Isolated'
p727
sg14
g76
sg16
I0
sg17
S'High'
p728
sg19
S'Stor tilleggsbelastning'
p729
sg21
Nsg22
S'300'
p730
sg24
S'400'
p731
sg26
S'Isolerte faresoner'
p732
sg28
Nsg29
g693
sg31
S'3 - Middels'
p733
sba(irunmatrix
M3Element
p734
(dp735
g3
Nsg4
S'Sannsynlig, Meget sannsynlig'
p736
sg6
S'gray'
p737
sg8
(lp738
sg10
S'Likely'
p739
sg12
S'Isolated'
p740
sg14
g76
sg16
I0
sg17
S'Low'
p741
sg19
S'Liten tilleggsbelastning'
p742
sg21
Nsg22
S'300'
p743
sg24
S'500'
p744
sg26
S'Isolerte faresoner'
p745
sg28
Nsg29
g693
sg31
S'3 - Middels'
p746
sba(irunmatrix
M3Element
p747
(dp748
g3
Nsg4
S'Sannsynlig, Meget sannsynlig'
p749
sg6
S'gray'
p750
sg8
(lp751
sg10
S'Likely'
p752
sg12
S'Isolated'
p753
sg14
g76
sg16
I0
sg17
S'Nat'
p754
sg19
S'Naturlig utloest'
p755
sg21
Nsg22
S'300'
p756
sg24
S'600'
p757
sg26
S'Isolerte faresoner'
p758
sg28
Nsg29
g693
sg31
S'3 - Middels'
p759
sba(irunmatrix
M3Element
p760
(dp761
g3
F2.0
sg4
S'Lite sannsynlig, Mulig'
p762
sg6
g354
sg8
(lp763
I2
asg10
S'Possible'
p764
sg12
S'Some'
p765
sg14
g252
sg16
I2
sg17
S'High'
p766
sg19
S'Stor tilleggsbelastning'
p767
sg21
I1
sg22
S'300'
p768
sg24
S'700'
p769
sg26
S'Noen bratte heng'
p770
sg28
g45
(g49
S'\x00\x00\x00\x00\x00\x00\x00\x00'
p771
tp772
Rp773
sg29
g693
sg31
S'3 - Middels'
p774
sba(irunmatrix
M3Element
p775
(dp776
g3
F2.5
sg4
S'Lite sannsynlig, Mulig'
p777
sg6
g590
sg8
(lp778
I2
aI3
asg10
S'Possible'
p779
sg12
S'Some'
p780
sg14
g514
sg16
I3
sg17
S'Low'
p781
sg19
S'Liten tilleggsbelastning'
p782
sg21
I2
sg22
S'300'
p783
sg24
S'800'
p784
sg26
S'Noen bratte heng'
p785
sg28
g45
(g49
S'\x00\x00\x00\x00\x00\x00\xe0?'
p786
tp787
Rp788
sg29
g693
sg31
S'3 - Middels'
p789
sba(irunmatrix
M3Element
p790
(dp791
g3
Nsg4
S'Lite sannsynlig, Mulig'
p792
sg6
S'white'
p793
sg8
(lp794
sg10
S'Possible'
p795
sg12
S'Some'
p796
sg14
g514
sg16
I3
sg17
S'Nat'
p797
sg19
S'Naturlig utloest'
p798
sg21
Nsg22
S'300'
p799
sg24
S'900'
p800
sg26
S'Noen bratte heng'
p801
sg28
Nsg29
g693
sg31
S'3 - Middels'
p802
sba(irunmatrix
M3Element
p803
(dp804
g3
Nsg4
S'Sannsynlig, Meget sannsynlig'
p805
sg6
S'gray'
p806
sg8
(lp807
sg10
S'Likely'
p808
sg12
S'Some'
p809
sg14
g76
sg16
I0
sg17
S'High'
p810
sg19
S'Stor tilleggsbelastning'
p811
sg21
Nsg22
S'300'
p812
sg24
S'1000'
p813
sg26
S'Noen bratte heng'
p814
sg28
Nsg29
g693
sg31
S'3 - Middels'
p815
sba(irunmatrix
M3Element
p816
(dp817
g3
Nsg4
S'Sannsynlig, Meget sannsynlig'
p818
sg6
S'gray'
p819
sg8
(lp820
sg10
S'Likely'
p821
sg12
S'Some'
p822
sg14
g76
sg16
I0
sg17
S'Low'
p823
sg19
S'Liten tilleggsbelastning'
p824
sg21
Nsg22
S'300'
p825
sg24
S'1100'
p826
sg26
S'Noen bratte heng'
p827
sg28
Nsg29
g693
sg31
S'3 - Middels'
p828
sba(irunmatrix
M3Element
p829
(dp830
g3
Nsg4
S'Sannsynlig, Meget sannsynlig'
p831
sg6
S'white'
p832
sg8
(lp833
sg10
S'Likely'
p834
sg12
S'Some'
p835
sg14
g580
sg16
I4
sg17
S'Nat'
p836
sg19
S'Naturlig utloest'
p837
sg21
Nsg22
S'300'
p838
sg24
S'1200'
p839
sg26
S'Noen bratte heng'
p840
sg28
Nsg29
g693
sg31
S'3 - Middels'
p841
sba(irunmatrix
M3Element
p842
(dp843
g3
F2.0
sg4
S'Lite sannsynlig, Mulig'
p844
sg6
g354
sg8
(lp845
I2
aI2
asg10
S'Possible'
p846
sg12
S'Many'
p847
sg14
g76
sg16
I0
sg17
S'High'
p848
sg19
S'Stor tilleggsbelastning'
p849
sg21
I2
sg22
S'300'
p850
sg24
S'1300'
p851
sg26
S'Mange bratte heng'
p852
sg28
g45
(g49
S'\x00\x00\x00\x00\x00\x00\x00\x00'
p853
tp854
Rp855
sg29
g693
sg31
S'3 - Middels'
p856
sba(irunmatrix
M3Element
p857
(dp858
g3
Nsg4
S'Lite sannsynlig, Mulig'
p859
sg6
S'white'
p860
sg8
(lp861
sg10
S'Possible'
p862
sg12
S'Many'
p863
sg14
g580
sg16
I4
sg17
S'Low'
p864
sg19
S'Liten tilleggsbelastning'
p865
sg21
Nsg22
S'300'
p866
sg24
S'1400'
p867
sg26
S'Mange bratte heng'
p868
sg28
Nsg29
g693
sg31
S'3 - Middels'
p869
sba(irunmatrix
M3Element
p870
(dp871
g3
Nsg4
S'Lite sannsynlig, Mulig'
p872
sg6
S'gray'
p873
sg8
(lp874
sg10
S'Possible'
p875
sg12
S'Many'
p876
sg14
g76
sg16
I0
sg17
S'Nat'
p877
sg19
S'Naturlig utloest'
p878
sg21
Nsg22
S'300'
p879
sg24
S'1500'
p880
sg26
S'Mange bratte heng'
p881
sg28
Nsg29
g693
sg31
S'3 - Middels'
p882
sba(irunmatrix
M3Element
p883
(dp884
g3
Nsg4
S'Sannsynlig, Meget sannsynlig'
p885
sg6
S'gray'
p886
sg8
(lp887
sg10
S'Likely'
p888
sg12
S'Many'
p889
sg14
g76
sg16
I0
sg17
S'High'
p890
sg19
S'Stor tilleggsbelastning'
p891
sg21
Nsg22
S'300'
p892
sg24
S'1600'
p893
sg26
S'Mange bratte heng'
p894
sg28
Nsg29
g693
sg31
S'3 - Middels'
p895
sba(irunmatrix
M3Element
p896
(dp897
g3
Nsg4
S'Sannsynlig, Meget sannsynlig'
p898
sg6
S'white'
p899
sg8
(lp900
sg10
S'Likely'
p901
sg12
S'Many'
p902
sg14
g580
sg16
I4
sg17
S'Low'
p903
sg19
S'Liten tilleggsbelastning'
p904
sg21
Nsg22
S'300'
p905
sg24
S'1700'
p906
sg26
S'Mange bratte heng'
p907
sg28
Nsg29
g693
sg31
S'3 - Middels'
p908
sba(irunmatrix
M3Element
p909
(dp910
g3
Nsg4
S'Sannsynlig, Meget sannsynlig'
p911
sg6
S'white'
p912
sg8
(lp913
sg10
S'Likely'
p914
sg12
S'Many'
p915
sg14
g580
sg16
I4
sg17
S'Nat'
p916
sg19
S'Naturlig utloest'
p917
sg21
Nsg22
S'300'
p918
sg24
S'1800'
p919
sg26
S'Mange bratte heng'
p920
sg28
Nsg29
g693
sg31
S'3 - Middels'
p921
sba(irunmatrix
M3Element
p922
(dp923
g3
Nsg4
S'Lite sannsynlig, Mulig'
p924
sg6
S'gray'
p925
sg8
(lp926
sg10
S'Possible'
p927
sg12
S'Most'
p928
sg14
g76
sg16
I0
sg17
S'High'
p929
sg19
S'Stor tilleggsbelastning'
p930
sg21
Nsg22
S'300'
p931
sg24
S'1900'
p932
sg26
S'De fleste bratte heng, Ogsaa i mindre bratt terreng'
p933
sg28
Nsg29
g693
sg31
S'3 - Middels'
p934
sba(irunmatrix
M3Element
p935
(dp936
g3
Nsg4
S'Lite sannsynlig, Mulig'
p937
sg6
S'gray'
p938
sg8
(lp939
sg10
S'Possible'
p940
sg12
S'Most'
p941
sg14
g76
sg16
I0
sg17
S'Low'
p942
sg19
S'Liten tilleggsbelastning'
p943
sg21
Nsg22
S'300'
p944
sg24
S'2000'
p945
sg26
S'De fleste bratte heng, Ogsaa i mindre bratt terreng'
p946
sg28
Nsg29
g693
sg31
S'3 - Middels'
p947
sba(irunmatrix
M3Element
p948
(dp949
g3
Nsg4
S'Lite sannsynlig, Mulig'
p950
sg6
S'gray'
p951
sg8
(lp952
sg10
S'Possible'
p953
sg12
S'Most'
p954
sg14
g76
sg16
I0
sg17
S'Nat'
p955
sg19
S'Naturlig utloest'
p956
sg21
Nsg22
S'300'
p957
sg24
S'2100'
p958
sg26
S'De fleste bratte heng, Ogsaa i mindre bratt terreng'
p959
sg28
Nsg29
g693
sg31
S'3 - Middels'
p960
sba(irunmatrix
M3Element
p961
(dp962
g3
Nsg4
S'Sannsynlig, Meget sannsynlig'
p963
sg6
S'gray'
p964
sg8
(lp965
sg10
S'Likely'
p966
sg12
S'Most'
p967
sg14
g76
sg16
I0
sg17
S'High'
p968
sg19
S'Stor tilleggsbelastning'
p969
sg21
Nsg22
S'300'
p970
sg24
S'2200'
p971
sg26
S'De fleste bratte heng, Ogsaa i mindre bratt terreng'
p972
sg28
Nsg29
g693
sg31
S'3 - Middels'
p973
sba(irunmatrix
M3Element
p974
(dp975
g3
Nsg4
S'Sannsynlig, Meget sannsynlig'
p976
sg6
S'gray'
p977
sg8
(lp978
sg10
S'Likely'
p979
sg12
S'Most'
p980
sg14
g76
sg16
I0
sg17
S'Low'
p981
sg19
S'Liten tilleggsbelastning'
p982
sg21
Nsg22
S'300'
p983
sg24
S'2300'
p984
sg26
S'De fleste bratte heng, Ogsaa i mindre bratt terreng'
p985
sg28
Nsg29
g693
sg31
S'3 - Middels'
p986
sba(irunmatrix
M3Element
p987
(dp988
g3
Nsg4
S'Sannsynlig, Meget sannsynlig'
p989
sg6
S'white'
p990
sg8
(lp991
sg10
S'Likely'
p992
sg12
S'Most'
p993
sg14
g76
sg16
I0
sg17
S'Nat'
p994
sg19
S'Naturlig utloest'
p995
sg21
Nsg22
S'300'
p996
sg24
S'2400'
p997
sg26
S'De fleste bratte heng, Ogsaa i mindre bratt terreng'
p998
sg28
Nsg29
g693
sg31
S'3 - Middels'
p999
sba(irunmatrix
M3Element
p1000
(dp1001
g3
Nsg4
S'Lite sannsynlig, Mulig'
p1002
sg6
S'white'
p1003
sg8
(lp1004
sg10
S'Possible'
p1005
sg12
S'Isolated'
p1006
sg14
g252
sg16
I2
sg17
S'High'
p1007
sg19
S'Stor tilleggsbelastning'
p1008
sg21
Nsg22
S'400'
p1009
sg24
S'100'
p1010
sg26
S'Isolerte faresoner'
p1011
sg28
Nsg29
S'4'
p1012
sg31
S'4 - Store'
p1013
sba(irunmatrix
M3Element
p1014
(dp1015
g3
Nsg4
S'Lite sannsynlig, Mulig'
p1016
sg6
S'white'
p1017
sg8
(lp1018
sg10
S'Possible'
p1019
sg12
S'Isolated'
p1020
sg14
g514
sg16
I3
sg17
S'Low'
p1021
sg19
S'Liten tilleggsbelastning'
p1022
sg21
Nsg22
S'400'
p1023
sg24
S'200'
p1024
sg26
S'Isolerte faresoner'
p1025
sg28
Nsg29
g1012
sg31
S'4 - Store'
p1026
sba(irunmatrix
M3Element
p1027
(dp1028
g3
Nsg4
S'Lite sannsynlig, Mulig'
p1029
sg6
S'white'
p1030
sg8
(lp1031
sg10
S'Possible'
p1032
sg12
S'Isolated'
p1033
sg14
g514
sg16
I3
sg17
S'Nat'
p1034
sg19
S'Naturlig utloest'
p1035
sg21
Nsg22
S'400'
p1036
sg24
S'300'
p1037
sg26
S'Isolerte faresoner'
p1038
sg28
Nsg29
g1012
sg31
S'4 - Store'
p1039
sba(irunmatrix
M3Element
p1040
(dp1041
g3
Nsg4
S'Sannsynlig, Meget sannsynlig'
p1042
sg6
S'gray'
p1043
sg8
(lp1044
sg10
S'Likely'
p1045
sg12
S'Isolated'
p1046
sg14
g76
sg16
I0
sg17
S'High'
p1047
sg19
S'Stor tilleggsbelastning'
p1048
sg21
Nsg22
S'400'
p1049
sg24
S'400'
p1050
sg26
S'Isolerte faresoner'
p1051
sg28
Nsg29
g1012
sg31
S'4 - Store'
p1052
sba(irunmatrix
M3Element
p1053
(dp1054
g3
Nsg4
S'Sannsynlig, Meget sannsynlig'
p1055
sg6
S'gray'
p1056
sg8
(lp1057
sg10
S'Likely'
p1058
sg12
S'Isolated'
p1059
sg14
g76
sg16
I0
sg17
S'Low'
p1060
sg19
S'Liten tilleggsbelastning'
p1061
sg21
Nsg22
S'400'
p1062
sg24
S'500'
p1063
sg26
S'Isolerte faresoner'
p1064
sg28
Nsg29
g1012
sg31
S'4 - Store'
p1065
sba(irunmatrix
M3Element
p1066
(dp1067
g3
Nsg4
S'Sannsynlig, Meget sannsynlig'
p1068
sg6
S'gray'
p1069
sg8
(lp1070
sg10
S'Likely'
p1071
sg12
S'Isolated'
p1072
sg14
g76
sg16
I0
sg17
S'Nat'
p1073
sg19
S'Naturlig utloest'
p1074
sg21
Nsg22
S'400'
p1075
sg24
S'600'
p1076
sg26
S'Isolerte faresoner'
p1077
sg28
Nsg29
g1012
sg31
S'4 - Store'
p1078
sba(irunmatrix
M3Element
p1079
(dp1080
g3
Nsg4
S'Lite sannsynlig, Mulig'
p1081
sg6
S'white'
p1082
sg8
(lp1083
sg10
S'Possible'
p1084
sg12
S'Some'
p1085
sg14
g514
sg16
I3
sg17
S'High'
p1086
sg19
S'Stor tilleggsbelastning'
p1087
sg21
Nsg22
S'400'
p1088
sg24
S'700'
p1089
sg26
S'Noen bratte heng'
p1090
sg28
Nsg29
g1012
sg31
S'4 - Store'
p1091
sba(irunmatrix
M3Element
p1092
(dp1093
g3
Nsg4
S'Lite sannsynlig, Mulig'
p1094
sg6
S'white'
p1095
sg8
(lp1096
sg10
S'Possible'
p1097
sg12
S'Some'
p1098
sg14
g580
sg16
I4
sg17
S'Low'
p1099
sg19
S'Liten tilleggsbelastning'
p1100
sg21
Nsg22
S'400'
p1101
sg24
S'800'
p1102
sg26
S'Noen bratte heng'
p1103
sg28
Nsg29
g1012
sg31
S'4 - Store'
p1104
sba(irunmatrix
M3Element
p1105
(dp1106
g3
Nsg4
S'Lite sannsynlig, Mulig'
p1107
sg6
S'white'
p1108
sg8
(lp1109
sg10
S'Possible'
p1110
sg12
S'Some'
p1111
sg14
g580
sg16
I4
sg17
S'Nat'
p1112
sg19
S'Naturlig utloest'
p1113
sg21
Nsg22
S'400'
p1114
sg24
S'900'
p1115
sg26
S'Noen bratte heng'
p1116
sg28
Nsg29
g1012
sg31
S'4 - Store'
p1117
sba(irunmatrix
M3Element
p1118
(dp1119
g3
Nsg4
S'Sannsynlig, Meget sannsynlig'
p1120
sg6
S'gray'
p1121
sg8
(lp1122
sg10
S'Likely'
p1123
sg12
S'Some'
p1124
sg14
g76
sg16
I0
sg17
S'High'
p1125
sg19
S'Stor tilleggsbelastning'
p1126
sg21
Nsg22
S'400'
p1127
sg24
S'1000'
p1128
sg26
S'Noen bratte heng'
p1129
sg28
Nsg29
g1012
sg31
S'4 - Store'
p1130
sba(irunmatrix
M3Element
p1131
(dp1132
g3
Nsg4
S'Sannsynlig, Meget sannsynlig'
p1133
sg6
S'gray'
p1134
sg8
(lp1135
sg10
S'Likely'
p1136
sg12
S'Some'
p1137
sg14
g76
sg16
I0
sg17
S'Low'
p1138
sg19
S'Liten tilleggsbelastning'
p1139
sg21
Nsg22
S'400'
p1140
sg24
S'1100'
p1141
sg26
S'Noen bratte heng'
p1142
sg28
Nsg29
g1012
sg31
S'4 - Store'
p1143
sba(irunmatrix
M3Element
p1144
(dp1145
g3
Nsg4
S'Sannsynlig, Meget sannsynlig'
p1146
sg6
S'white'
p1147
sg8
(lp1148
sg10
S'Likely'
p1149
sg12
S'Some'
p1150
sg14
g580
sg16
I4
sg17
S'Nat'
p1151
sg19
S'Naturlig utloest'
p1152
sg21
Nsg22
S'400'
p1153
sg24
S'1200'
p1154
sg26
S'Noen bratte heng'
p1155
sg28
Nsg29
g1012
sg31
S'4 - Store'
p1156
sba(irunmatrix
M3Element
p1157
(dp1158
g3
Nsg4
S'Lite sannsynlig, Mulig'
p1159
sg6
S'gray'
p1160
sg8
(lp1161
sg10
S'Possible'
p1162
sg12
S'Many'
p1163
sg14
g76
sg16
I0
sg17
S'High'
p1164
sg19
S'Stor tilleggsbelastning'
p1165
sg21
Nsg22
S'400'
p1166
sg24
S'1300'
p1167
sg26
S'Mange bratte heng'
p1168
sg28
Nsg29
g1012
sg31
S'4 - Store'
p1169
sba(irunmatrix
M3Element
p1170
(dp1171
g3
Nsg4
S'Lite sannsynlig, Mulig'
p1172
sg6
S'white'
p1173
sg8
(lp1174
sg10
S'Possible'
p1175
sg12
S'Many'
p1176
sg14
g76
sg16
I0
sg17
S'Low'
p1177
sg19
S'Liten tilleggsbelastning'
p1178
sg21
Nsg22
S'400'
p1179
sg24
S'1400'
p1180
sg26
S'Mange bratte heng'
p1181
sg28
Nsg29
g1012
sg31
S'4 - Store'
p1182
sba(irunmatrix
M3Element
p1183
(dp1184
g3
Nsg4
S'Lite sannsynlig, Mulig'
p1185
sg6
S'gray'
p1186
sg8
(lp1187
sg10
S'Possible'
p1188
sg12
S'Many'
p1189
sg14
g76
sg16
I0
sg17
S'Nat'
p1190
sg19
S'Naturlig utloest'
p1191
sg21
Nsg22
S'400'
p1192
sg24
S'1500'
p1193
sg26
S'Mange bratte heng'
p1194
sg28
Nsg29
g1012
sg31
S'4 - Store'
p1195
sba(irunmatrix
M3Element
p1196
(dp1197
g3
Nsg4
S'Sannsynlig, Meget sannsynlig'
p1198
sg6
S'gray'
p1199
sg8
(lp1200
sg10
S'Likely'
p1201
sg12
S'Many'
p1202
sg14
g76
sg16
I0
sg17
S'High'
p1203
sg19
S'Stor tilleggsbelastning'
p1204
sg21
Nsg22
S'400'
p1205
sg24
S'1600'
p1206
sg26
S'Mange bratte heng'
p1207
sg28
Nsg29
g1012
sg31
S'4 - Store'
p1208
sba(irunmatrix
M3Element
p1209
(dp1210
g3
Nsg4
S'Sannsynlig, Meget sannsynlig'
p1211
sg6
S'white'
p1212
sg8
(lp1213
sg10
S'Likely'
p1214
sg12
S'Many'
p1215
sg14
g76
sg16
I0
sg17
S'Low'
p1216
sg19
S'Liten tilleggsbelastning'
p1217
sg21
Nsg22
S'400'
p1218
sg24
S'1700'
p1219
sg26
S'Mange bratte heng'
p1220
sg28
Nsg29
g1012
sg31
S'4 - Store'
p1221
sba(irunmatrix
M3Element
p1222
(dp1223
g3
Nsg4
S'Sannsynlig, Meget sannsynlig'
p1224
sg6
S'white'
p1225
sg8
(lp1226
sg10
S'Likely'
p1227
sg12
S'Many'
p1228
sg14
S'k'
p1229
sg16
I5
sg17
S'Nat'
p1230
sg19
S'Naturlig utloest'
p1231
sg21
Nsg22
S'400'
p1232
sg24
S'1800'
p1233
sg26
S'Mange bratte heng'
p1234
sg28
Nsg29
g1012
sg31
S'4 - Store'
p1235
sba(irunmatrix
M3Element
p1236
(dp1237
g3
Nsg4
S'Lite sannsynlig, Mulig'
p1238
sg6
S'gray'
p1239
sg8
(lp1240
sg10
S'Possible'
p1241
sg12
S'Most'
p1242
sg14
g76
sg16
I0
sg17
S'High'
p1243
sg19
S'Stor tilleggsbelastning'
p1244
sg21
Nsg22
S'400'
p1245
sg24
S'1900'
p1246
sg26
S'De fleste bratte heng, Ogsaa i mindre bratt terreng'
p1247
sg28
Nsg29
g1012
sg31
S'4 - Store'
p1248
sba(irunmatrix
M3Element
p1249
(dp1250
g3
Nsg4
S'Lite sannsynlig, Mulig'
p1251
sg6
S'gray'
p1252
sg8
(lp1253
sg10
S'Possible'
p1254
sg12
S'Most'
p1255
sg14
g76
sg16
I0
sg17
S'Low'
p1256
sg19
S'Liten tilleggsbelastning'
p1257
sg21
Nsg22
S'400'
p1258
sg24
S'2000'
p1259
sg26
S'De fleste bratte heng, Ogsaa i mindre bratt terreng'
p1260
sg28
Nsg29
g1012
sg31
S'4 - Store'
p1261
sba(irunmatrix
M3Element
p1262
(dp1263
g3
Nsg4
S'Lite sannsynlig, Mulig'
p1264
sg6
S'gray'
p1265
sg8
(lp1266
sg10
S'Possible'
p1267
sg12
S'Most'
p1268
sg14
g76
sg16
I0
sg17
S'Nat'
p1269
sg19
S'Naturlig utloest'
p1270
sg21
Nsg22
S'400'
p1271
sg24
S'2100'
p1272
sg26
S'De fleste bratte heng, Ogsaa i mindre bratt terreng'
p1273
sg28
Nsg29
g1012
sg31
S'4 - Store'
p1274
sba(irunmatrix
M3Element
p1275
(dp1276
g3
Nsg4
S'Sannsynlig, Meget sannsynlig'
p1277
sg6
S'gray'
p1278
sg8
(lp1279
sg10
S'Likely'
p1280
sg12
S'Most'
p1281
sg14
g76
sg16
I0
sg17
S'High'
p1282
sg19
S'Stor tilleggsbelastning'
p1283
sg21
Nsg22
S'400'
p1284
sg24
S'2200'
p1285
sg26
S'De fleste bratte heng, Ogsaa i mindre bratt terreng'
p1286
sg28
Nsg29
g1012
sg31
S'4 - Store'
p1287
sba(irunmatrix
M3Element
p1288
(dp1289
g3
Nsg4
S'Sannsynlig, Meget sannsynlig'
p1290
sg6
S'gray'
p1291
sg8
(lp1292
sg10
S'Likely'
p1293
sg12
S'Most'
p1294
sg14
g76
sg16
I0
sg17
S'Low'
p1295
sg19
S'Liten tilleggsbelastning'
p1296
sg21
Nsg22
S'400'
p1297
sg24
S'2300'
p1298
sg26
S'De fleste bratte heng, Ogsaa i mindre bratt terreng'
p1299
sg28
Nsg29
g1012
sg31
S'4 - Store'
p1300
sba(irunmatrix
M3Element
p1301
(dp1302
g3
Nsg4
S'Sannsynlig, Meget sannsynlig'
p1303
sg6
S'white'
p1304
sg8
(lp1305
sg10
S'Likely'
p1306
sg12
S'Most'
p1307
sg14
g76
sg16
I0
sg17
S'Nat'
p1308
sg19
S'Naturlig utloest'
p1309
sg21
Nsg22
S'400'
p1310
sg24
S'2400'
p1311
sg26
S'De fleste bratte heng, Ogsaa i mindre bratt terreng'
p1312
sg28
Nsg29
g1012
sg31
S'4 - Store'
p1313
sba(irunmatrix
M3Element
p1314
(dp1315
g3
Nsg4
S'Lite sannsynlig, Mulig'
p1316
sg6
S'white'
p1317
sg8
(lp1318
sg10
S'Possible'
p1319
sg12
S'Isolated'
p1320
sg14
g76
sg16
I0
sg17
S'High'
p1321
sg19
S'Stor tilleggsbelastning'
p1322
sg21
Nsg22
S'500'
p1323
sg24
S'100'
p1324
sg26
S'Isolerte faresoner'
p1325
sg28
Nsg29
S'5'
p1326
sg31
S'5 - Svaert store'
p1327
sba(irunmatrix
M3Element
p1328
(dp1329
g3
Nsg4
S'Lite sannsynlig, Mulig'
p1330
sg6
S'white'
p1331
sg8
(lp1332
sg10
S'Possible'
p1333
sg12
S'Isolated'
p1334
sg14
g76
sg16
I0
sg17
S'Low'
p1335
sg19
S'Liten tilleggsbelastning'
p1336
sg21
Nsg22
S'500'
p1337
sg24
S'200'
p1338
sg26
S'Isolerte faresoner'
p1339
sg28
Nsg29
g1326
sg31
S'5 - Svaert store'
p1340
sba(irunmatrix
M3Element
p1341
(dp1342
g3
Nsg4
S'Lite sannsynlig, Mulig'
p1343
sg6
S'white'
p1344
sg8
(lp1345
sg10
S'Possible'
p1346
sg12
S'Isolated'
p1347
sg14
g76
sg16
I0
sg17
S'Nat'
p1348
sg19
S'Naturlig utloest'
p1349
sg21
Nsg22
S'500'
p1350
sg24
S'300'
p1351
sg26
S'Isolerte faresoner'
p1352
sg28
Nsg29
g1326
sg31
S'5 - Svaert store'
p1353
sba(irunmatrix
M3Element
p1354
(dp1355
g3
Nsg4
S'Sannsynlig, Meget sannsynlig'
p1356
sg6
S'gray'
p1357
sg8
(lp1358
sg10
S'Likely'
p1359
sg12
S'Isolated'
p1360
sg14
g76
sg16
I0
sg17
S'High'
p1361
sg19
S'Stor tilleggsbelastning'
p1362
sg21
Nsg22
S'500'
p1363
sg24
S'400'
p1364
sg26
S'Isolerte faresoner'
p1365
sg28
Nsg29
g1326
sg31
S'5 - Svaert store'
p1366
sba(irunmatrix
M3Element
p1367
(dp1368
g3
Nsg4
S'Sannsynlig, Meget sannsynlig'
p1369
sg6
S'gray'
p1370
sg8
(lp1371
sg10
S'Likely'
p1372
sg12
S'Isolated'
p1373
sg14
g76
sg16
I0
sg17
S'Low'
p1374
sg19
S'Liten tilleggsbelastning'
p1375
sg21
Nsg22
S'500'
p1376
sg24
S'500'
p1377
sg26
S'Isolerte faresoner'
p1378
sg28
Nsg29
g1326
sg31
S'5 - Svaert store'
p1379
sba(irunmatrix
M3Element
p1380
(dp1381
g3
Nsg4
S'Sannsynlig, Meget sannsynlig'
p1382
sg6
S'gray'
p1383
sg8
(lp1384
sg10
S'Likely'
p1385
sg12
S'Isolated'
p1386
sg14
g76
sg16
I0
sg17
S'Nat'
p1387
sg19
S'Naturlig utloest'
p1388
sg21
Nsg22
S'500'
p1389
sg24
S'600'
p1390
sg26
S'Isolerte faresoner'
p1391
sg28
Nsg29
g1326
sg31
S'5 - Svaert store'
p1392
sba(irunmatrix
M3Element
p1393
(dp1394
g3
Nsg4
S'Lite sannsynlig, Mulig'
p1395
sg6
S'white'
p1396
sg8
(lp1397
sg10
S'Possible'
p1398
sg12
S'Some'
p1399
sg14
g76
sg16
I0
sg17
S'High'
p1400
sg19
S'Stor tilleggsbelastning'
p1401
sg21
Nsg22
S'500'
p1402
sg24
S'700'
p1403
sg26
S'Noen bratte heng'
p1404
sg28
Nsg29
g1326
sg31
S'5 - Svaert store'
p1405
sba(irunmatrix
M3Element
p1406
(dp1407
g3
Nsg4
S'Lite sannsynlig, Mulig'
p1408
sg6
S'white'
p1409
sg8
(lp1410
sg10
S'Possible'
p1411
sg12
S'Some'
p1412
sg14
g76
sg16
I0
sg17
S'Low'
p1413
sg19
S'Liten tilleggsbelastning'
p1414
sg21
Nsg22
S'500'
p1415
sg24
S'800'
p1416
sg26
S'Noen bratte heng'
p1417
sg28
Nsg29
g1326
sg31
S'5 - Svaert store'
p1418
sba(irunmatrix
M3Element
p1419
(dp1420
g3
Nsg4
S'Lite sannsynlig, Mulig'
p1421
sg6
S'white'
p1422
sg8
(lp1423
sg10
S'Possible'
p1424
sg12
S'Some'
p1425
sg14
g76
sg16
I0
sg17
S'Nat'
p1426
sg19
S'Naturlig utloest'
p1427
sg21
Nsg22
S'500'
p1428
sg24
S'900'
p1429
sg26
S'Noen bratte heng'
p1430
sg28
Nsg29
g1326
sg31
S'5 - Svaert store'
p1431
sba(irunmatrix
M3Element
p1432
(dp1433
g3
Nsg4
S'Sannsynlig, Meget sannsynlig'
p1434
sg6
S'gray'
p1435
sg8
(lp1436
sg10
S'Likely'
p1437
sg12
S'Some'
p1438
sg14
g76
sg16
I0
sg17
S'High'
p1439
sg19
S'Stor tilleggsbelastning'
p1440
sg21
Nsg22
S'500'
p1441
sg24
S'1000'
p1442
sg26
S'Noen bratte heng'
p1443
sg28
Nsg29
g1326
sg31
S'5 - Svaert store'
p1444
sba(irunmatrix
M3Element
p1445
(dp1446
g3
Nsg4
S'Sannsynlig, Meget sannsynlig'
p1447
sg6
S'gray'
p1448
sg8
(lp1449
sg10
S'Likely'
p1450
sg12
S'Some'
p1451
sg14
g76
sg16
I0
sg17
S'Low'
p1452
sg19
S'Liten tilleggsbelastning'
p1453
sg21
Nsg22
S'500'
p1454
sg24
S'1100'
p1455
sg26
S'Noen bratte heng'
p1456
sg28
Nsg29
g1326
sg31
S'5 - Svaert store'
p1457
sba(irunmatrix
M3Element
p1458
(dp1459
g3
Nsg4
S'Sannsynlig, Meget sannsynlig'
p1460
sg6
S'white'
p1461
sg8
(lp1462
sg10
S'Likely'
p1463
sg12
S'Some'
p1464
sg14
g76
sg16
I0
sg17
S'Nat'
p1465
sg19
S'Naturlig utloest'
p1466
sg21
Nsg22
S'500'
p1467
sg24
S'1200'
p1468
sg26
S'Noen bratte heng'
p1469
sg28
Nsg29
g1326
sg31
S'5 - Svaert store'
p1470
sba(irunmatrix
M3Element
p1471
(dp1472
g3
Nsg4
S'Lite sannsynlig, Mulig'
p1473
sg6
S'gray'
p1474
sg8
(lp1475
sg10
S'Possible'
p1476
sg12
S'Many'
p1477
sg14
g76
sg16
I0
sg17
S'High'
p1478
sg19
S'Stor tilleggsbelastning'
p1479
sg21
Nsg22
S'500'
p1480
sg24
S'1300'
p1481
sg26
S'Mange bratte heng'
p1482
sg28
Nsg29
g1326
sg31
S'5 - Svaert store'
p1483
sba(irunmatrix
M3Element
p1484
(dp1485
g3
Nsg4
S'Lite sannsynlig, Mulig'
p1486
sg6
S'white'
p1487
sg8
(lp1488
sg10
S'Possible'
p1489
sg12
S'Many'
p1490
sg14
g76
sg16
I0
sg17
S'Low'
p1491
sg19
S'Liten tilleggsbelastning'
p1492
sg21
Nsg22
S'500'
p1493
sg24
S'1400'
p1494
sg26
S'Mange bratte heng'
p1495
sg28
Nsg29
g1326
sg31
S'5 - Svaert store'
p1496
sba(irunmatrix
M3Element
p1497
(dp1498
g3
Nsg4
S'Lite sannsynlig, Mulig'
p1499
sg6
S'gray'
p1500
sg8
(lp1501
sg10
S'Possible'
p1502
sg12
S'Many'
p1503
sg14
g76
sg16
I0
sg17
S'Nat'
p1504
sg19
S'Naturlig utloest'
p1505
sg21
Nsg22
S'500'
p1506
sg24
S'1500'
p1507
sg26
S'Mange bratte heng'
p1508
sg28
Nsg29
g1326
sg31
S'5 - Svaert store'
p1509
sba(irunmatrix
M3Element
p1510
(dp1511
g3
Nsg4
S'Sannsynlig, Meget sannsynlig'
p1512
sg6
S'gray'
p1513
sg8
(lp1514
sg10
S'Likely'
p1515
sg12
S'Many'
p1516
sg14
g76
sg16
I0
sg17
S'High'
p1517
sg19
S'Stor tilleggsbelastning'
p1518
sg21
Nsg22
S'500'
p1519
sg24
S'1600'
p1520
sg26
S'Mange bratte heng'
p1521
sg28
Nsg29
g1326
sg31
S'5 - Svaert store'
p1522
sba(irunmatrix
M3Element
p1523
(dp1524
g3
Nsg4
S'Sannsynlig, Meget sannsynlig'
p1525
sg6
S'white'
p1526
sg8
(lp1527
sg10
S'Likely'
p1528
sg12
S'Many'
p1529
sg14
g76
sg16
I0
sg17
S'Low'
p1530
sg19
S'Liten tilleggsbelastning'
p1531
sg21
Nsg22
S'500'
p1532
sg24
S'1700'
p1533
sg26
S'Mange bratte heng'
p1534
sg28
Nsg29
g1326
sg31
S'5 - Svaert store'
p1535
sba(irunmatrix
M3Element
p1536
(dp1537
g3
Nsg4
S'Sannsynlig, Meget sannsynlig'
p1538
sg6
S'white'
p1539
sg8
(lp1540
sg10
S'Likely'
p1541
sg12
S'Many'
p1542
sg14
g1229
sg16
I5
sg17
S'Nat'
p1543
sg19
S'Naturlig utloest'
p1544
sg21
Nsg22
S'500'
p1545
sg24
S'1800'
p1546
sg26
S'Mange bratte heng'
p1547
sg28
Nsg29
g1326
sg31
S'5 - Svaert store'
p1548
sba(irunmatrix
M3Element
p1549
(dp1550
g3
Nsg4
S'Lite sannsynlig, Mulig'
p1551
sg6
S'gray'
p1552
sg8
(lp1553
sg10
S'Possible'
p1554
sg12
S'Most'
p1555
sg14
g76
sg16
I0
sg17
S'High'
p1556
sg19
S'Stor tilleggsbelastning'
p1557
sg21
Nsg22
S'500'
p1558
sg24
S'1900'
p1559
sg26
S'De fleste bratte heng, Ogsaa i mindre bratt terreng'
p1560
sg28
Nsg29
g1326
sg31
S'5 - Svaert store'
p1561
sba(irunmatrix
M3Element
p1562
(dp1563
g3
Nsg4
S'Lite sannsynlig, Mulig'
p1564
sg6
S'gray'
p1565
sg8
(lp1566
sg10
S'Possible'
p1567
sg12
S'Most'
p1568
sg14
g76
sg16
I0
sg17
S'Low'
p1569
sg19
S'Liten tilleggsbelastning'
p1570
sg21
Nsg22
S'500'
p1571
sg24
S'2000'
p1572
sg26
S'De fleste bratte heng, Ogsaa i mindre bratt terreng'
p1573
sg28
Nsg29
g1326
sg31
S'5 - Svaert store'
p1574
sba(irunmatrix
M3Element
p1575
(dp1576
g3
Nsg4
S'Lite sannsynlig, Mulig'
p1577
sg6
S'gray'
p1578
sg8
(lp1579
sg10
S'Possible'
p1580
sg12
S'Most'
p1581
sg14
g76
sg16
I0
sg17
S'Nat'
p1582
sg19
S'Naturlig utloest'
p1583
sg21
Nsg22
S'500'
p1584
sg24
S'2100'
p1585
sg26
S'De fleste bratte heng, Ogsaa i mindre bratt terreng'
p1586
sg28
Nsg29
g1326
sg31
S'5 - Svaert store'
p1587
sba(irunmatrix
M3Element
p1588
(dp1589
g3
Nsg4
S'Sannsynlig, Meget sannsynlig'
p1590
sg6
S'gray'
p1591
sg8
(lp1592
sg10
S'Likely'
p1593
sg12
S'Most'
p1594
sg14
g76
sg16
I0
sg17
S'High'
p1595
sg19
S'Stor tilleggsbelastning'
p1596
sg21
Nsg22
S'500'
p1597
sg24
S'2200'
p1598
sg26
S'De fleste bratte heng, Ogsaa i mindre bratt terreng'
p1599
sg28
Nsg29
g1326
sg31
S'5 - Svaert store'
p1600
sba(irunmatrix
M3Element
p1601
(dp1602
g3
Nsg4
S'Sannsynlig, Meget sannsynlig'
p1603
sg6
S'gray'
p1604
sg8
(lp1605
sg10
S'Likely'
p1606
sg12
S'Most'
p1607
sg14
g76
sg16
I0
sg17
S'Low'
p1608
sg19
S'Liten tilleggsbelastning'
p1609
sg21
Nsg22
S'500'
p1610
sg24
S'2300'
p1611
sg26
S'De fleste bratte heng, Ogsaa i mindre bratt terreng'
p1612
sg28
Nsg29
g1326
sg31
S'5 - Svaert store'
p1613
sba(irunmatrix
M3Element
p1614
(dp1615
g3
Nsg4
S'Sannsynlig, Meget sannsynlig'
p1616
sg6
S'white'
p1617
sg8
(lp1618
sg10
S'Likely'
p1619
sg12
S'Most'
p1620
sg14
g76
sg16
I0
sg17
S'Nat'
p1621
sg19
S'Naturlig utloest'
p1622
sg21
Nsg22
S'500'
p1623
sg24
S'2400'
p1624
sg26
S'De fleste bratte heng, Ogsaa i mindre bratt terreng'
p1625
sg28
Nsg29
g1326
sg31
S'5 - Svaert store'
p1626
sba.