(lp0
(irunmatrix
M3Element
p1
(dp2
S'danger_level_average'
p3
NsS'probability'
p4
S'Lite sannsynlig, Mulig'
p5
sS'colour'
p6
S'white'
p7
sS'danger_level_list'
p8
(lp9
sS'label_probalility'
p10
S'Possible'
p11
sS'label_distribution'
p12
S'Isolated'
p13
sS'recomended_colour'
p14
S'#ccff66'
p15
sS'recomended_danger_level'
p16
I1
sS'label_trigger'
p17
S'High'
p18
sS'trigger'
p19
S'Stor tilleggsbelastning'
p20
sS'occurrences'
p21
NsS'y'
p22
S'100'
p23
sS'x'
p24
S'100'
p25
sS'distribution'
p26
S'Isolerte faresoner'
p27
sS'danger_level_standard_dev'
p28
NsS'label_size'
p29
S'1'
p30
sS'avalanche_size'
p31
S'1 - Harmloest'
p32
sba(irunmatrix
M3Element
p33
(dp34
g3
Nsg4
S'Lite sannsynlig, Mulig'
p35
sg6
S'white'
p36
sg8
(lp37
sg10
S'Possible'
p38
sg12
S'Isolated'
p39
sg14
g15
sg16
I1
sg17
S'Low'
p40
sg19
S'Liten tilleggsbelastning'
p41
sg21
Nsg22
S'100'
p42
sg24
S'200'
p43
sg26
S'Isolerte faresoner'
p44
sg28
Nsg29
g30
sg31
S'1 - Harmloest'
p45
sba(irunmatrix
M3Element
p46
(dp47
g3
Nsg4
S'Lite sannsynlig, Mulig'
p48
sg6
S'white'
p49
sg8
(lp50
sg10
S'Possible'
p51
sg12
S'Isolated'
p52
sg14
g15
sg16
I1
sg17
S'Nat'
p53
sg19
S'Naturlig utloest'
p54
sg21
Nsg22
S'100'
p55
sg24
S'300'
p56
sg26
S'Isolerte faresoner'
p57
sg28
Nsg29
g30
sg31
S'1 - Harmloest'
p58
sba(irunmatrix
M3Element
p59
(dp60
g3
Nsg4
S'Sannsynlig, Meget sannsynlig'
p61
sg6
S'gray'
p62
sg8
(lp63
sg10
S'Likely'
p64
sg12
S'Isolated'
p65
sg14
S'gray'
p66
sg16
I0
sg17
S'High'
p67
sg19
S'Stor tilleggsbelastning'
p68
sg21
Nsg22
S'100'
p69
sg24
S'400'
p70
sg26
S'Isolerte faresoner'
p71
sg28
Nsg29
g30
sg31
S'1 - Harmloest'
p72
sba(irunmatrix
M3Element
p73
(dp74
g3
Nsg4
S'Sannsynlig, Meget sannsynlig'
p75
sg6
S'gray'
p76
sg8
(lp77
sg10
S'Likely'
p78
sg12
S'Isolated'
p79
sg14
g66
sg16
I0
sg17
S'Low'
p80
sg19
S'Liten tilleggsbelastning'
p81
sg21
Nsg22
S'100'
p82
sg24
S'500'
p83
sg26
S'Isolerte faresoner'
p84
sg28
Nsg29
g30
sg31
S'1 - Harmloest'
p85
sba(irunmatrix
M3Element
p86
(dp87
g3
Nsg4
S'Sannsynlig, Meget sannsynlig'
p88
sg6
S'gray'
p89
sg8
(lp90
sg10
S'Likely'
p91
sg12
S'Isolated'
p92
sg14
g66
sg16
I0
sg17
S'Nat'
p93
sg19
S'Naturlig utloest'
p94
sg21
Nsg22
S'100'
p95
sg24
S'600'
p96
sg26
S'Isolerte faresoner'
p97
sg28
Nsg29
g30
sg31
S'1 - Harmloest'
p98
sba(irunmatrix
M3Element
p99
(dp100
g3
Nsg4
S'Lite sannsynlig, Mulig'
p101
sg6
S'white'
p102
sg8
(lp103
sg10
S'Possible'
p104
sg12
S'Some'
p105
sg14
g15
sg16
I1
sg17
S'High'
p106
sg19
S'Stor tilleggsbelastning'
p107
sg21
Nsg22
S'100'
p108
sg24
S'700'
p109
sg26
S'Noen bratte heng'
p110
sg28
Nsg29
g30
sg31
S'1 - Harmloest'
p111
sba(irunmatrix
M3Element
p112
(dp113
g3
F1.0
sg4
S'Lite sannsynlig, Mulig'
p114
sg6
S'#ccff66'
p115
sg8
(lp116
I1
aI1
aI1
aI1
aI1
aI1
aI1
aI1
aI1
asg10
S'Possible'
p117
sg12
S'Some'
p118
sg14
g15
sg16
I1
sg17
S'Low'
p119
sg19
S'Liten tilleggsbelastning'
p120
sg21
I9
sg22
S'100'
p121
sg24
S'800'
p122
sg26
S'Noen bratte heng'
p123
sg28
cnumpy.core.multiarray
scalar
p124
(cnumpy
dtype
p125
(S'f8'
p126
I0
I1
tp127
Rp128
(I3
S'<'
p129
NNNI-1
I-1
I0
tp130
bS'\x00\x00\x00\x00\x00\x00\x00\x00'
p131
tp132
Rp133
sg29
g30
sg31
S'1 - Harmloest'
p134
sba(irunmatrix
M3Element
p135
(dp136
g3
F1.6666666666666667
sg4
S'Lite sannsynlig, Mulig'
p137
sg6
S'#ffff00'
p138
sg8
(lp139
I2
aI1
aI2
asg10
S'Possible'
p140
sg12
S'Some'
p141
sg14
g15
sg16
I1
sg17
S'Nat'
p142
sg19
S'Naturlig utloest'
p143
sg21
I3
sg22
S'100'
p144
sg24
S'900'
p145
sg26
S'Noen bratte heng'
p146
sg28
g124
(g128
S'f\xfa\xfe\xdd}+\xde?'
p147
tp148
Rp149
sg29
g30
sg31
S'1 - Harmloest'
p150
sba(irunmatrix
M3Element
p151
(dp152
g3
Nsg4
S'Sannsynlig, Meget sannsynlig'
p153
sg6
S'gray'
p154
sg8
(lp155
sg10
S'Likely'
p156
sg12
S'Some'
p157
sg14
g66
sg16
I0
sg17
S'High'
p158
sg19
S'Stor tilleggsbelastning'
p159
sg21
Nsg22
S'100'
p160
sg24
S'1000'
p161
sg26
S'Noen bratte heng'
p162
sg28
Nsg29
g30
sg31
S'1 - Harmloest'
p163
sba(irunmatrix
M3Element
p164
(dp165
g3
Nsg4
S'Sannsynlig, Meget sannsynlig'
p166
sg6
S'gray'
p167
sg8
(lp168
sg10
S'Likely'
p169
sg12
S'Some'
p170
sg14
g66
sg16
I0
sg17
S'Low'
p171
sg19
S'Liten tilleggsbelastning'
p172
sg21
Nsg22
S'100'
p173
sg24
S'1100'
p174
sg26
S'Noen bratte heng'
p175
sg28
Nsg29
g30
sg31
S'1 - Harmloest'
p176
sba(irunmatrix
M3Element
p177
(dp178
g3
Nsg4
S'Sannsynlig, Meget sannsynlig'
p179
sg6
S'white'
p180
sg8
(lp181
sg10
S'Likely'
p182
sg12
S'Some'
p183
sg14
g15
sg16
I1
sg17
S'Nat'
p184
sg19
S'Naturlig utloest'
p185
sg21
Nsg22
S'100'
p186
sg24
S'1200'
p187
sg26
S'Noen bratte heng'
p188
sg28
Nsg29
g30
sg31
S'1 - Harmloest'
p189
sba(irunmatrix
M3Element
p190
(dp191
g3
Nsg4
S'Lite sannsynlig, Mulig'
p192
sg6
S'gray'
p193
sg8
(lp194
sg10
S'Possible'
p195
sg12
S'Many'
p196
sg14
g66
sg16
I0
sg17
S'High'
p197
sg19
S'Stor tilleggsbelastning'
p198
sg21
Nsg22
S'100'
p199
sg24
S'1300'
p200
sg26
S'Mange bratte heng'
p201
sg28
Nsg29
g30
sg31
S'1 - Harmloest'
p202
sba(irunmatrix
M3Element
p203
(dp204
g3
Nsg4
S'Lite sannsynlig, Mulig'
p205
sg6
S'white'
p206
sg8
(lp207
sg10
S'Possible'
p208
sg12
S'Many'
p209
sg14
g15
sg16
I1
sg17
S'Low'
p210
sg19
S'Liten tilleggsbelastning'
p211
sg21
Nsg22
S'100'
p212
sg24
S'1400'
p213
sg26
S'Mange bratte heng'
p214
sg28
Nsg29
g30
sg31
S'1 - Harmloest'
p215
sba(irunmatrix
M3Element
p216
(dp217
g3
Nsg4
S'Lite sannsynlig, Mulig'
p218
sg6
S'gray'
p219
sg8
(lp220
sg10
S'Possible'
p221
sg12
S'Many'
p222
sg14
g66
sg16
I0
sg17
S'Nat'
p223
sg19
S'Naturlig utloest'
p224
sg21
Nsg22
S'100'
p225
sg24
S'1500'
p226
sg26
S'Mange bratte heng'
p227
sg28
Nsg29
g30
sg31
S'1 - Harmloest'
p228
sba(irunmatrix
M3Element
p229
(dp230
g3
Nsg4
S'Sannsynlig, Meget sannsynlig'
p231
sg6
S'gray'
p232
sg8
(lp233
sg10
S'Likely'
p234
sg12
S'Many'
p235
sg14
g66
sg16
I0
sg17
S'High'
p236
sg19
S'Stor tilleggsbelastning'
p237
sg21
Nsg22
S'100'
p238
sg24
S'1600'
p239
sg26
S'Mange bratte heng'
p240
sg28
Nsg29
g30
sg31
S'1 - Harmloest'
p241
sba(irunmatrix
M3Element
p242
(dp243
g3
Nsg4
S'Sannsynlig, Meget sannsynlig'
p244
sg6
S'white'
p245
sg8
(lp246
sg10
S'Likely'
p247
sg12
S'Many'
p248
sg14
S'#ffff00'
p249
sg16
I2
sg17
S'Low'
p250
sg19
S'Liten tilleggsbelastning'
p251
sg21
Nsg22
S'100'
p252
sg24
S'1700'
p253
sg26
S'Mange bratte heng'
p254
sg28
Nsg29
g30
sg31
S'1 - Harmloest'
p255
sba(irunmatrix
M3Element
p256
(dp257
g3
Nsg4
S'Sannsynlig, Meget sannsynlig'
p258
sg6
S'white'
p259
sg8
(lp260
sg10
S'Likely'
p261
sg12
S'Many'
p262
sg14
g249
sg16
I2
sg17
S'Nat'
p263
sg19
S'Naturlig utloest'
p264
sg21
Nsg22
S'100'
p265
sg24
S'1800'
p266
sg26
S'Mange bratte heng'
p267
sg28
Nsg29
g30
sg31
S'1 - Harmloest'
p268
sba(irunmatrix
M3Element
p269
(dp270
g3
Nsg4
S'Lite sannsynlig, Mulig'
p271
sg6
S'gray'
p272
sg8
(lp273
sg10
S'Possible'
p274
sg12
S'Most'
p275
sg14
g66
sg16
I0
sg17
S'High'
p276
sg19
S'Stor tilleggsbelastning'
p277
sg21
Nsg22
S'100'
p278
sg24
S'1900'
p279
sg26
S'De fleste bratte heng, Ogsaa i mindre bratt terreng'
p280
sg28
Nsg29
g30
sg31
S'1 - Harmloest'
p281
sba(irunmatrix
M3Element
p282
(dp283
g3
Nsg4
S'Lite sannsynlig, Mulig'
p284
sg6
S'gray'
p285
sg8
(lp286
sg10
S'Possible'
p287
sg12
S'Most'
p288
sg14
g66
sg16
I0
sg17
S'Low'
p289
sg19
S'Liten tilleggsbelastning'
p290
sg21
Nsg22
S'100'
p291
sg24
S'2000'
p292
sg26
S'De fleste bratte heng, Ogsaa i mindre bratt terreng'
p293
sg28
Nsg29
g30
sg31
S'1 - Harmloest'
p294
sba(irunmatrix
M3Element
p295
(dp296
g3
Nsg4
S'Lite sannsynlig, Mulig'
p297
sg6
S'gray'
p298
sg8
(lp299
sg10
S'Possible'
p300
sg12
S'Most'
p301
sg14
g66
sg16
I0
sg17
S'Nat'
p302
sg19
S'Naturlig utloest'
p303
sg21
Nsg22
S'100'
p304
sg24
S'2100'
p305
sg26
S'De fleste bratte heng, Ogsaa i mindre bratt terreng'
p306
sg28
Nsg29
g30
sg31
S'1 - Harmloest'
p307
sba(irunmatrix
M3Element
p308
(dp309
g3
Nsg4
S'Sannsynlig, Meget sannsynlig'
p310
sg6
S'gray'
p311
sg8
(lp312
sg10
S'Likely'
p313
sg12
S'Most'
p314
sg14
g66
sg16
I0
sg17
S'High'
p315
sg19
S'Stor tilleggsbelastning'
p316
sg21
Nsg22
S'100'
p317
sg24
S'2200'
p318
sg26
S'De fleste bratte heng, Ogsaa i mindre bratt terreng'
p319
sg28
Nsg29
g30
sg31
S'1 - Harmloest'
p320
sba(irunmatrix
M3Element
p321
(dp322
g3
Nsg4
S'Sannsynlig, Meget sannsynlig'
p323
sg6
S'gray'
p324
sg8
(lp325
sg10
S'Likely'
p326
sg12
S'Most'
p327
sg14
g66
sg16
I0
sg17
S'Low'
p328
sg19
S'Liten tilleggsbelastning'
p329
sg21
Nsg22
S'100'
p330
sg24
S'2300'
p331
sg26
S'De fleste bratte heng, Ogsaa i mindre bratt terreng'
p332
sg28
Nsg29
g30
sg31
S'1 - Harmloest'
p333
sba(irunmatrix
M3Element
p334
(dp335
g3
Nsg4
S'Sannsynlig, Meget sannsynlig'
p336
sg6
S'white'
p337
sg8
(lp338
sg10
S'Likely'
p339
sg12
S'Most'
p340
sg14
g66
sg16
I0
sg17
S'Nat'
p341
sg19
S'Naturlig utloest'
p342
sg21
Nsg22
S'100'
p343
sg24
S'2400'
p344
sg26
S'De fleste bratte heng, Ogsaa i mindre bratt terreng'
p345
sg28
Nsg29
S'2'
p346
sg31
S'1 - Harmloest'
p347
sba(irunmatrix
M3Element
p348
(dp349
g3
F1.5
sg4
S'Lite sannsynlig, Mulig'
p350
sg6
g138
sg8
(lp351
I1
aI2
asg10
S'Possible'
p352
sg12
S'Isolated'
p353
sg14
g15
sg16
I1
sg17
S'High'
p354
sg19
S'Stor tilleggsbelastning'
p355
sg21
I2
sg22
S'200'
p356
sg24
S'100'
p357
sg26
S'Isolerte faresoner'
p358
sg28
g124
(g128
S'\x00\x00\x00\x00\x00\x00\xe0?'
p359
tp360
Rp361
sg29
g346
sg31
S'2 - Smaa'
p362
sba(irunmatrix
M3Element
p363
(dp364
g3
F2.0
sg4
S'Lite sannsynlig, Mulig'
p365
sg6
g138
sg8
(lp366
I2
asg10
S'Possible'
p367
sg12
S'Isolated'
p368
sg14
g15
sg16
I1
sg17
S'Low'
p369
sg19
S'Liten tilleggsbelastning'
p370
sg21
I1
sg22
S'200'
p371
sg24
S'200'
p372
sg26
S'Isolerte faresoner'
p373
sg28
g124
(g128
S'\x00\x00\x00\x00\x00\x00\x00\x00'
p374
tp375
Rp376
sg29
g346
sg31
S'2 - Smaa'
p377
sba(irunmatrix
M3Element
p378
(dp379
g3
Nsg4
S'Lite sannsynlig, Mulig'
p380
sg6
S'white'
p381
sg8
(lp382
sg10
S'Possible'
p383
sg12
S'Isolated'
p384
sg14
g15
sg16
I1
sg17
S'Nat'
p385
sg19
S'Naturlig utloest'
p386
sg21
Nsg22
S'200'
p387
sg24
S'300'
p388
sg26
S'Isolerte faresoner'
p389
sg28
Nsg29
g346
sg31
S'2 - Smaa'
p390
sba(irunmatrix
M3Element
p391
(dp392
g3
Nsg4
S'Sannsynlig, Meget sannsynlig'
p393
sg6
S'gray'
p394
sg8
(lp395
sg10
S'Likely'
p396
sg12
S'Isolated'
p397
sg14
g66
sg16
I0
sg17
S'High'
p398
sg19
S'Stor tilleggsbelastning'
p399
sg21
Nsg22
S'200'
p400
sg24
S'400'
p401
sg26
S'Isolerte faresoner'
p402
sg28
Nsg29
g346
sg31
S'2 - Smaa'
p403
sba(irunmatrix
M3Element
p404
(dp405
g3
Nsg4
S'Sannsynlig, Meget sannsynlig'
p406
sg6
S'gray'
p407
sg8
(lp408
sg10
S'Likely'
p409
sg12
S'Isolated'
p410
sg14
g66
sg16
I0
sg17
S'Low'
p411
sg19
S'Liten tilleggsbelastning'
p412
sg21
Nsg22
S'200'
p413
sg24
S'500'
p414
sg26
S'Isolerte faresoner'
p415
sg28
Nsg29
g346
sg31
S'2 - Smaa'
p416
sba(irunmatrix
M3Element
p417
(dp418
g3
Nsg4
S'Sannsynlig, Meget sannsynlig'
p419
sg6
S'gray'
p420
sg8
(lp421
sg10
S'Likely'
p422
sg12
S'Isolated'
p423
sg14
g66
sg16
I0
sg17
S'Nat'
p424
sg19
S'Naturlig utloest'
p425
sg21
Nsg22
S'200'
p426
sg24
S'600'
p427
sg26
S'Isolerte faresoner'
p428
sg28
Nsg29
g346
sg31
S'2 - Smaa'
p429
sba(irunmatrix
M3Element
p430
(dp431
g3
F2.0
sg4
S'Lite sannsynlig, Mulig'
p432
sg6
g138
sg8
(lp433
I2
aI2
aI2
aI2
aI2
aI2
aI2
aI2
aI2
aI2
aI2
aI2
aI2
aI2
aI2
aI2
aI2
aI2
aI2
aI2
aI2
aI2
aI2
aI2
aI2
aI2
aI2
aI2
aI2
aI2
aI2
aI2
aI2
asg10
S'Possible'
p434
sg12
S'Some'
p435
sg14
g249
sg16
I2
sg17
S'High'
p436
sg19
S'Stor tilleggsbelastning'
p437
sg21
I33
sg22
S'200'
p438
sg24
S'700'
p439
sg26
S'Noen bratte heng'
p440
sg28
g124
(g128
S'\x00\x00\x00\x00\x00\x00\x00\x00'
p441
tp442
Rp443
sg29
g346
sg31
S'2 - Smaa'
p444
sba(irunmatrix
M3Element
p445
(dp446
g3
F2.0
sg4
S'Lite sannsynlig, Mulig'
p447
sg6
g138
sg8
(lp448
I2
aI2
aI2
aI2
aI2
aI2
aI2
aI2
aI2
aI2
aI2
aI2
aI2
aI2
aI2
aI2
aI2
aI2
aI2
aI2
aI2
aI2
aI2
aI2
aI2
aI2
aI2
aI2
aI2
aI2
aI2
aI2
aI2
aI2
aI2
aI2
aI2
aI2
aI2
aI2
aI2
aI2
aI2
aI2
asg10
S'Possible'
p449
sg12
S'Some'
p450
sg14
g249
sg16
I2
sg17
S'Low'
p451
sg19
S'Liten tilleggsbelastning'
p452
sg21
I44
sg22
S'200'
p453
sg24
S'800'
p454
sg26
S'Noen bratte heng'
p455
sg28
g124
(g128
S'\x00\x00\x00\x00\x00\x00\x00\x00'
p456
tp457
Rp458
sg29
g346
sg31
S'2 - Smaa'
p459
sba(irunmatrix
M3Element
p460
(dp461
g3
F2.1538461538461537
sg4
S'Lite sannsynlig, Mulig'
p462
sg6
g138
sg8
(lp463
I2
aI2
aI2
aI2
aI2
aI2
aI3
aI3
aI2
aI2
aI2
aI2
aI2
asg10
S'Possible'
p464
sg12
S'Some'
p465
sg14
g249
sg16
I2
sg17
S'Nat'
p466
sg19
S'Naturlig utloest'
p467
sg21
I13
sg22
S'200'
p468
sg24
S'900'
p469
sg26
S'Noen bratte heng'
p470
sg28
g124
(g128
S'CC\xca\xf7]\x17\xd7?'
p471
tp472
Rp473
sg29
g346
sg31
S'2 - Smaa'
p474
sba(irunmatrix
M3Element
p475
(dp476
g3
Nsg4
S'Sannsynlig, Meget sannsynlig'
p477
sg6
S'gray'
p478
sg8
(lp479
sg10
S'Likely'
p480
sg12
S'Some'
p481
sg14
g66
sg16
I0
sg17
S'High'
p482
sg19
S'Stor tilleggsbelastning'
p483
sg21
Nsg22
S'200'
p484
sg24
S'1000'
p485
sg26
S'Noen bratte heng'
p486
sg28
Nsg29
g346
sg31
S'2 - Smaa'
p487
sba(irunmatrix
M3Element
p488
(dp489
g3
Nsg4
S'Sannsynlig, Meget sannsynlig'
p490
sg6
S'gray'
p491
sg8
(lp492
sg10
S'Likely'
p493
sg12
S'Some'
p494
sg14
g66
sg16
I0
sg17
S'Low'
p495
sg19
S'Liten tilleggsbelastning'
p496
sg21
Nsg22
S'200'
p497
sg24
S'1100'
p498
sg26
S'Noen bratte heng'
p499
sg28
Nsg29
g346
sg31
S'2 - Smaa'
p500
sba(irunmatrix
M3Element
p501
(dp502
g3
Nsg4
S'Sannsynlig, Meget sannsynlig'
p503
sg6
S'white'
p504
sg8
(lp505
sg10
S'Likely'
p506
sg12
S'Some'
p507
sg14
S'#ff9900'
p508
sg16
I3
sg17
S'Nat'
p509
sg19
S'Naturlig utloest'
p510
sg21
Nsg22
S'200'
p511
sg24
S'1200'
p512
sg26
S'Noen bratte heng'
p513
sg28
Nsg29
g346
sg31
S'2 - Smaa'
p514
sba(irunmatrix
M3Element
p515
(dp516
g3
Nsg4
S'Lite sannsynlig, Mulig'
p517
sg6
S'gray'
p518
sg8
(lp519
sg10
S'Possible'
p520
sg12
S'Many'
p521
sg14
g66
sg16
I0
sg17
S'High'
p522
sg19
S'Stor tilleggsbelastning'
p523
sg21
Nsg22
S'200'
p524
sg24
S'1300'
p525
sg26
S'Mange bratte heng'
p526
sg28
Nsg29
g346
sg31
S'2 - Smaa'
p527
sba(irunmatrix
M3Element
p528
(dp529
g3
F3.0
sg4
S'Lite sannsynlig, Mulig'
p530
sg6
S'#ff9900'
p531
sg8
(lp532
I3
aI3
asg10
S'Possible'
p533
sg12
S'Many'
p534
sg14
g508
sg16
I3
sg17
S'Low'
p535
sg19
S'Liten tilleggsbelastning'
p536
sg21
I2
sg22
S'200'
p537
sg24
S'1400'
p538
sg26
S'Mange bratte heng'
p539
sg28
g124
(g128
S'\x00\x00\x00\x00\x00\x00\x00\x00'
p540
tp541
Rp542
sg29
g346
sg31
S'2 - Smaa'
p543
sba(irunmatrix
M3Element
p544
(dp545
g3
Nsg4
S'Lite sannsynlig, Mulig'
p546
sg6
S'gray'
p547
sg8
(lp548
sg10
S'Possible'
p549
sg12
S'Many'
p550
sg14
g66
sg16
I0
sg17
S'Nat'
p551
sg19
S'Naturlig utloest'
p552
sg21
Nsg22
S'200'
p553
sg24
S'1500'
p554
sg26
S'Mange bratte heng'
p555
sg28
Nsg29
g346
sg31
S'2 - Smaa'
p556
sba(irunmatrix
M3Element
p557
(dp558
g3
Nsg4
S'Sannsynlig, Meget sannsynlig'
p559
sg6
S'gray'
p560
sg8
(lp561
sg10
S'Likely'
p562
sg12
S'Many'
p563
sg14
g66
sg16
I0
sg17
S'High'
p564
sg19
S'Stor tilleggsbelastning'
p565
sg21
Nsg22
S'200'
p566
sg24
S'1600'
p567
sg26
S'Mange bratte heng'
p568
sg28
Nsg29
g346
sg31
S'2 - Smaa'
p569
sba(irunmatrix
M3Element
p570
(dp571
g3
Nsg4
S'Sannsynlig, Meget sannsynlig'
p572
sg6
S'white'
p573
sg8
(lp574
sg10
S'Likely'
p575
sg12
S'Many'
p576
sg14
S'#ff0000'
p577
sg16
I4
sg17
S'Low'
p578
sg19
S'Liten tilleggsbelastning'
p579
sg21
Nsg22
S'200'
p580
sg24
S'1700'
p581
sg26
S'Mange bratte heng'
p582
sg28
Nsg29
g346
sg31
S'2 - Smaa'
p583
sba(irunmatrix
M3Element
p584
(dp585
g3
Nsg4
S'Sannsynlig, Meget sannsynlig'
p586
sg6
S'white'
p587
sg8
(lp588
sg10
S'Likely'
p589
sg12
S'Many'
p590
sg14
g577
sg16
I4
sg17
S'Nat'
p591
sg19
S'Naturlig utloest'
p592
sg21
Nsg22
S'200'
p593
sg24
S'1800'
p594
sg26
S'Mange bratte heng'
p595
sg28
Nsg29
g346
sg31
S'2 - Smaa'
p596
sba(irunmatrix
M3Element
p597
(dp598
g3
Nsg4
S'Lite sannsynlig, Mulig'
p599
sg6
S'gray'
p600
sg8
(lp601
sg10
S'Possible'
p602
sg12
S'Most'
p603
sg14
g66
sg16
I0
sg17
S'High'
p604
sg19
S'Stor tilleggsbelastning'
p605
sg21
Nsg22
S'200'
p606
sg24
S'1900'
p607
sg26
S'De fleste bratte heng, Ogsaa i mindre bratt terreng'
p608
sg28
Nsg29
g346
sg31
S'2 - Smaa'
p609
sba(irunmatrix
M3Element
p610
(dp611
g3
Nsg4
S'Lite sannsynlig, Mulig'
p612
sg6
S'gray'
p613
sg8
(lp614
sg10
S'Possible'
p615
sg12
S'Most'
p616
sg14
g66
sg16
I0
sg17
S'Low'
p617
sg19
S'Liten tilleggsbelastning'
p618
sg21
Nsg22
S'200'
p619
sg24
S'2000'
p620
sg26
S'De fleste bratte heng, Ogsaa i mindre bratt terreng'
p621
sg28
Nsg29
g346
sg31
S'2 - Smaa'
p622
sba(irunmatrix
M3Element
p623
(dp624
g3
Nsg4
S'Lite sannsynlig, Mulig'
p625
sg6
S'gray'
p626
sg8
(lp627
sg10
S'Possible'
p628
sg12
S'Most'
p629
sg14
g66
sg16
I0
sg17
S'Nat'
p630
sg19
S'Naturlig utloest'
p631
sg21
Nsg22
S'200'
p632
sg24
S'2100'
p633
sg26
S'De fleste bratte heng, Ogsaa i mindre bratt terreng'
p634
sg28
Nsg29
g346
sg31
S'2 - Smaa'
p635
sba(irunmatrix
M3Element
p636
(dp637
g3
Nsg4
S'Sannsynlig, Meget sannsynlig'
p638
sg6
S'gray'
p639
sg8
(lp640
sg10
S'Likely'
p641
sg12
S'Most'
p642
sg14
g66
sg16
I0
sg17
S'High'
p643
sg19
S'Stor tilleggsbelastning'
p644
sg21
Nsg22
S'200'
p645
sg24
S'2200'
p646
sg26
S'De fleste bratte heng, Ogsaa i mindre bratt terreng'
p647
sg28
Nsg29
g346
sg31
S'2 - Smaa'
p648
sba(irunmatrix
M3Element
p649
(dp650
g3
Nsg4
S'Sannsynlig, Meget sannsynlig'
p651
sg6
S'gray'
p652
sg8
(lp653
sg10
S'Likely'
p654
sg12
S'Most'
p655
sg14
g66
sg16
I0
sg17
S'Low'
p656
sg19
S'Liten tilleggsbelastning'
p657
sg21
Nsg22
S'200'
p658
sg24
S'2300'
p659
sg26
S'De fleste bratte heng, Ogsaa i mindre bratt terreng'
p660
sg28
Nsg29
g346
sg31
S'2 - Smaa'
p661
sba(irunmatrix
M3Element
p662
(dp663
g3
Nsg4
S'Sannsynlig, Meget sannsynlig'
p664
sg6
S'white'
p665
sg8
(lp666
sg10
S'Likely'
p667
sg12
S'Most'
p668
sg14
g66
sg16
I0
sg17
S'Nat'
p669
sg19
S'Naturlig utloest'
p670
sg21
Nsg22
S'200'
p671
sg24
S'2400'
p672
sg26
S'De fleste bratte heng, Ogsaa i mindre bratt terreng'
p673
sg28
Nsg29
g346
sg31
S'2 - Smaa'
p674
sba(irunmatrix
M3Element
p675
(dp676
g3
Nsg4
S'Lite sannsynlig, Mulig'
p677
sg6
S'white'
p678
sg8
(lp679
sg10
S'Possible'
p680
sg12
S'Isolated'
p681
sg14
g15
sg16
I1
sg17
S'High'
p682
sg19
S'Stor tilleggsbelastning'
p683
sg21
Nsg22
S'300'
p684
sg24
S'100'
p685
sg26
S'Isolerte faresoner'
p686
sg28
Nsg29
S'3'
p687
sg31
S'3 - Middels'
p688
sba(irunmatrix
M3Element
p689
(dp690
g3
F2.0
sg4
S'Lite sannsynlig, Mulig'
p691
sg6
g138
sg8
(lp692
I2
aI2
asg10
S'Possible'
p693
sg12
S'Isolated'
p694
sg14
g249
sg16
I2
sg17
S'Low'
p695
sg19
S'Liten tilleggsbelastning'
p696
sg21
I2
sg22
S'300'
p697
sg24
S'200'
p698
sg26
S'Isolerte faresoner'
p699
sg28
g124
(g128
S'\x00\x00\x00\x00\x00\x00\x00\x00'
p700
tp701
Rp702
sg29
g687
sg31
S'3 - Middels'
p703
sba(irunmatrix
M3Element
p704
(dp705
g3
Nsg4
S'Lite sannsynlig, Mulig'
p706
sg6
S'white'
p707
sg8
(lp708
sg10
S'Possible'
p709
sg12
S'Isolated'
p710
sg14
g249
sg16
I2
sg17
S'Nat'
p711
sg19
S'Naturlig utloest'
p712
sg21
Nsg22
S'300'
p713
sg24
S'300'
p714
sg26
S'Isolerte faresoner'
p715
sg28
Nsg29
g687
sg31
S'3 - Middels'
p716
sba(irunmatrix
M3Element
p717
(dp718
g3
Nsg4
S'Sannsynlig, Meget sannsynlig'
p719
sg6
S'gray'
p720
sg8
(lp721
sg10
S'Likely'
p722
sg12
S'Isolated'
p723
sg14
g66
sg16
I0
sg17
S'High'
p724
sg19
S'Stor tilleggsbelastning'
p725
sg21
Nsg22
S'300'
p726
sg24
S'400'
p727
sg26
S'Isolerte faresoner'
p728
sg28
Nsg29
g687
sg31
S'3 - Middels'
p729
sba(irunmatrix
M3Element
p730
(dp731
g3
Nsg4
S'Sannsynlig, Meget sannsynlig'
p732
sg6
S'gray'
p733
sg8
(lp734
sg10
S'Likely'
p735
sg12
S'Isolated'
p736
sg14
g66
sg16
I0
sg17
S'Low'
p737
sg19
S'Liten tilleggsbelastning'
p738
sg21
Nsg22
S'300'
p739
sg24
S'500'
p740
sg26
S'Isolerte faresoner'
p741
sg28
Nsg29
g687
sg31
S'3 - Middels'
p742
sba(irunmatrix
M3Element
p743
(dp744
g3
Nsg4
S'Sannsynlig, Meget sannsynlig'
p745
sg6
S'gray'
p746
sg8
(lp747
sg10
S'Likely'
p748
sg12
S'Isolated'
p749
sg14
g66
sg16
I0
sg17
S'Nat'
p750
sg19
S'Naturlig utloest'
p751
sg21
Nsg22
S'300'
p752
sg24
S'600'
p753
sg26
S'Isolerte faresoner'
p754
sg28
Nsg29
g687
sg31
S'3 - Middels'
p755
sba(irunmatrix
M3Element
p756
(dp757
g3
F2.0
sg4
S'Lite sannsynlig, Mulig'
p758
sg6
g138
sg8
(lp759
I2
aI2
aI2
aI2
aI2
asg10
S'Possible'
p760
sg12
S'Some'
p761
sg14
g249
sg16
I2
sg17
S'High'
p762
sg19
S'Stor tilleggsbelastning'
p763
sg21
I5
sg22
S'300'
p764
sg24
S'700'
p765
sg26
S'Noen bratte heng'
p766
sg28
g124
(g128
S'\x00\x00\x00\x00\x00\x00\x00\x00'
p767
tp768
Rp769
sg29
g687
sg31
S'3 - Middels'
p770
sba(irunmatrix
M3Element
p771
(dp772
g3
F3.0
sg4
S'Lite sannsynlig, Mulig'
p773
sg6
g531
sg8
(lp774
I3
aI3
aI3
aI3
aI3
aI3
aI3
aI3
aI3
aI3
aI3
aI3
aI3
asg10
S'Possible'
p775
sg12
S'Some'
p776
sg14
g508
sg16
I3
sg17
S'Low'
p777
sg19
S'Liten tilleggsbelastning'
p778
sg21
I13
sg22
S'300'
p779
sg24
S'800'
p780
sg26
S'Noen bratte heng'
p781
sg28
g124
(g128
S'\x00\x00\x00\x00\x00\x00\x00\x00'
p782
tp783
Rp784
sg29
g687
sg31
S'3 - Middels'
p785
sba(irunmatrix
M3Element
p786
(dp787
g3
Nsg4
S'Lite sannsynlig, Mulig'
p788
sg6
S'white'
p789
sg8
(lp790
sg10
S'Possible'
p791
sg12
S'Some'
p792
sg14
g508
sg16
I3
sg17
S'Nat'
p793
sg19
S'Naturlig utloest'
p794
sg21
Nsg22
S'300'
p795
sg24
S'900'
p796
sg26
S'Noen bratte heng'
p797
sg28
Nsg29
g687
sg31
S'3 - Middels'
p798
sba(irunmatrix
M3Element
p799
(dp800
g3
Nsg4
S'Sannsynlig, Meget sannsynlig'
p801
sg6
S'gray'
p802
sg8
(lp803
sg10
S'Likely'
p804
sg12
S'Some'
p805
sg14
g66
sg16
I0
sg17
S'High'
p806
sg19
S'Stor tilleggsbelastning'
p807
sg21
Nsg22
S'300'
p808
sg24
S'1000'
p809
sg26
S'Noen bratte heng'
p810
sg28
Nsg29
g687
sg31
S'3 - Middels'
p811
sba(irunmatrix
M3Element
p812
(dp813
g3
Nsg4
S'Sannsynlig, Meget sannsynlig'
p814
sg6
S'gray'
p815
sg8
(lp816
sg10
S'Likely'
p817
sg12
S'Some'
p818
sg14
g66
sg16
I0
sg17
S'Low'
p819
sg19
S'Liten tilleggsbelastning'
p820
sg21
Nsg22
S'300'
p821
sg24
S'1100'
p822
sg26
S'Noen bratte heng'
p823
sg28
Nsg29
g687
sg31
S'3 - Middels'
p824
sba(irunmatrix
M3Element
p825
(dp826
g3
Nsg4
S'Sannsynlig, Meget sannsynlig'
p827
sg6
S'white'
p828
sg8
(lp829
sg10
S'Likely'
p830
sg12
S'Some'
p831
sg14
g577
sg16
I4
sg17
S'Nat'
p832
sg19
S'Naturlig utloest'
p833
sg21
Nsg22
S'300'
p834
sg24
S'1200'
p835
sg26
S'Noen bratte heng'
p836
sg28
Nsg29
g687
sg31
S'3 - Middels'
p837
sba(irunmatrix
M3Element
p838
(dp839
g3
Nsg4
S'Lite sannsynlig, Mulig'
p840
sg6
S'gray'
p841
sg8
(lp842
sg10
S'Possible'
p843
sg12
S'Many'
p844
sg14
g66
sg16
I0
sg17
S'High'
p845
sg19
S'Stor tilleggsbelastning'
p846
sg21
Nsg22
S'300'
p847
sg24
S'1300'
p848
sg26
S'Mange bratte heng'
p849
sg28
Nsg29
g687
sg31
S'3 - Middels'
p850
sba(irunmatrix
M3Element
p851
(dp852
g3
Nsg4
S'Lite sannsynlig, Mulig'
p853
sg6
S'white'
p854
sg8
(lp855
sg10
S'Possible'
p856
sg12
S'Many'
p857
sg14
g577
sg16
I4
sg17
S'Low'
p858
sg19
S'Liten tilleggsbelastning'
p859
sg21
Nsg22
S'300'
p860
sg24
S'1400'
p861
sg26
S'Mange bratte heng'
p862
sg28
Nsg29
g687
sg31
S'3 - Middels'
p863
sba(irunmatrix
M3Element
p864
(dp865
g3
Nsg4
S'Lite sannsynlig, Mulig'
p866
sg6
S'gray'
p867
sg8
(lp868
sg10
S'Possible'
p869
sg12
S'Many'
p870
sg14
g66
sg16
I0
sg17
S'Nat'
p871
sg19
S'Naturlig utloest'
p872
sg21
Nsg22
S'300'
p873
sg24
S'1500'
p874
sg26
S'Mange bratte heng'
p875
sg28
Nsg29
g687
sg31
S'3 - Middels'
p876
sba(irunmatrix
M3Element
p877
(dp878
g3
Nsg4
S'Sannsynlig, Meget sannsynlig'
p879
sg6
S'gray'
p880
sg8
(lp881
sg10
S'Likely'
p882
sg12
S'Many'
p883
sg14
g66
sg16
I0
sg17
S'High'
p884
sg19
S'Stor tilleggsbelastning'
p885
sg21
Nsg22
S'300'
p886
sg24
S'1600'
p887
sg26
S'Mange bratte heng'
p888
sg28
Nsg29
g687
sg31
S'3 - Middels'
p889
sba(irunmatrix
M3Element
p890
(dp891
g3
Nsg4
S'Sannsynlig, Meget sannsynlig'
p892
sg6
S'white'
p893
sg8
(lp894
sg10
S'Likely'
p895
sg12
S'Many'
p896
sg14
g577
sg16
I4
sg17
S'Low'
p897
sg19
S'Liten tilleggsbelastning'
p898
sg21
Nsg22
S'300'
p899
sg24
S'1700'
p900
sg26
S'Mange bratte heng'
p901
sg28
Nsg29
g687
sg31
S'3 - Middels'
p902
sba(irunmatrix
M3Element
p903
(dp904
g3
Nsg4
S'Sannsynlig, Meget sannsynlig'
p905
sg6
S'white'
p906
sg8
(lp907
sg10
S'Likely'
p908
sg12
S'Many'
p909
sg14
g577
sg16
I4
sg17
S'Nat'
p910
sg19
S'Naturlig utloest'
p911
sg21
Nsg22
S'300'
p912
sg24
S'1800'
p913
sg26
S'Mange bratte heng'
p914
sg28
Nsg29
g687
sg31
S'3 - Middels'
p915
sba(irunmatrix
M3Element
p916
(dp917
g3
Nsg4
S'Lite sannsynlig, Mulig'
p918
sg6
S'gray'
p919
sg8
(lp920
sg10
S'Possible'
p921
sg12
S'Most'
p922
sg14
g66
sg16
I0
sg17
S'High'
p923
sg19
S'Stor tilleggsbelastning'
p924
sg21
Nsg22
S'300'
p925
sg24
S'1900'
p926
sg26
S'De fleste bratte heng, Ogsaa i mindre bratt terreng'
p927
sg28
Nsg29
g687
sg31
S'3 - Middels'
p928
sba(irunmatrix
M3Element
p929
(dp930
g3
Nsg4
S'Lite sannsynlig, Mulig'
p931
sg6
S'gray'
p932
sg8
(lp933
sg10
S'Possible'
p934
sg12
S'Most'
p935
sg14
g66
sg16
I0
sg17
S'Low'
p936
sg19
S'Liten tilleggsbelastning'
p937
sg21
Nsg22
S'300'
p938
sg24
S'2000'
p939
sg26
S'De fleste bratte heng, Ogsaa i mindre bratt terreng'
p940
sg28
Nsg29
g687
sg31
S'3 - Middels'
p941
sba(irunmatrix
M3Element
p942
(dp943
g3
Nsg4
S'Lite sannsynlig, Mulig'
p944
sg6
S'gray'
p945
sg8
(lp946
sg10
S'Possible'
p947
sg12
S'Most'
p948
sg14
g66
sg16
I0
sg17
S'Nat'
p949
sg19
S'Naturlig utloest'
p950
sg21
Nsg22
S'300'
p951
sg24
S'2100'
p952
sg26
S'De fleste bratte heng, Ogsaa i mindre bratt terreng'
p953
sg28
Nsg29
g687
sg31
S'3 - Middels'
p954
sba(irunmatrix
M3Element
p955
(dp956
g3
Nsg4
S'Sannsynlig, Meget sannsynlig'
p957
sg6
S'gray'
p958
sg8
(lp959
sg10
S'Likely'
p960
sg12
S'Most'
p961
sg14
g66
sg16
I0
sg17
S'High'
p962
sg19
S'Stor tilleggsbelastning'
p963
sg21
Nsg22
S'300'
p964
sg24
S'2200'
p965
sg26
S'De fleste bratte heng, Ogsaa i mindre bratt terreng'
p966
sg28
Nsg29
g687
sg31
S'3 - Middels'
p967
sba(irunmatrix
M3Element
p968
(dp969
g3
Nsg4
S'Sannsynlig, Meget sannsynlig'
p970
sg6
S'gray'
p971
sg8
(lp972
sg10
S'Likely'
p973
sg12
S'Most'
p974
sg14
g66
sg16
I0
sg17
S'Low'
p975
sg19
S'Liten tilleggsbelastning'
p976
sg21
Nsg22
S'300'
p977
sg24
S'2300'
p978
sg26
S'De fleste bratte heng, Ogsaa i mindre bratt terreng'
p979
sg28
Nsg29
g687
sg31
S'3 - Middels'
p980
sba(irunmatrix
M3Element
p981
(dp982
g3
Nsg4
S'Sannsynlig, Meget sannsynlig'
p983
sg6
S'white'
p984
sg8
(lp985
sg10
S'Likely'
p986
sg12
S'Most'
p987
sg14
g66
sg16
I0
sg17
S'Nat'
p988
sg19
S'Naturlig utloest'
p989
sg21
Nsg22
S'300'
p990
sg24
S'2400'
p991
sg26
S'De fleste bratte heng, Ogsaa i mindre bratt terreng'
p992
sg28
Nsg29
g687
sg31
S'3 - Middels'
p993
sba(irunmatrix
M3Element
p994
(dp995
g3
Nsg4
S'Lite sannsynlig, Mulig'
p996
sg6
S'white'
p997
sg8
(lp998
sg10
S'Possible'
p999
sg12
S'Isolated'
p1000
sg14
g249
sg16
I2
sg17
S'High'
p1001
sg19
S'Stor tilleggsbelastning'
p1002
sg21
Nsg22
S'400'
p1003
sg24
S'100'
p1004
sg26
S'Isolerte faresoner'
p1005
sg28
Nsg29
S'4'
p1006
sg31
S'4 - Store'
p1007
sba(irunmatrix
M3Element
p1008
(dp1009
g3
Nsg4
S'Lite sannsynlig, Mulig'
p1010
sg6
S'white'
p1011
sg8
(lp1012
sg10
S'Possible'
p1013
sg12
S'Isolated'
p1014
sg14
g508
sg16
I3
sg17
S'Low'
p1015
sg19
S'Liten tilleggsbelastning'
p1016
sg21
Nsg22
S'400'
p1017
sg24
S'200'
p1018
sg26
S'Isolerte faresoner'
p1019
sg28
Nsg29
g1006
sg31
S'4 - Store'
p1020
sba(irunmatrix
M3Element
p1021
(dp1022
g3
Nsg4
S'Lite sannsynlig, Mulig'
p1023
sg6
S'white'
p1024
sg8
(lp1025
sg10
S'Possible'
p1026
sg12
S'Isolated'
p1027
sg14
g508
sg16
I3
sg17
S'Nat'
p1028
sg19
S'Naturlig utloest'
p1029
sg21
Nsg22
S'400'
p1030
sg24
S'300'
p1031
sg26
S'Isolerte faresoner'
p1032
sg28
Nsg29
g1006
sg31
S'4 - Store'
p1033
sba(irunmatrix
M3Element
p1034
(dp1035
g3
Nsg4
S'Sannsynlig, Meget sannsynlig'
p1036
sg6
S'gray'
p1037
sg8
(lp1038
sg10
S'Likely'
p1039
sg12
S'Isolated'
p1040
sg14
g66
sg16
I0
sg17
S'High'
p1041
sg19
S'Stor tilleggsbelastning'
p1042
sg21
Nsg22
S'400'
p1043
sg24
S'400'
p1044
sg26
S'Isolerte faresoner'
p1045
sg28
Nsg29
g1006
sg31
S'4 - Store'
p1046
sba(irunmatrix
M3Element
p1047
(dp1048
g3
Nsg4
S'Sannsynlig, Meget sannsynlig'
p1049
sg6
S'gray'
p1050
sg8
(lp1051
sg10
S'Likely'
p1052
sg12
S'Isolated'
p1053
sg14
g66
sg16
I0
sg17
S'Low'
p1054
sg19
S'Liten tilleggsbelastning'
p1055
sg21
Nsg22
S'400'
p1056
sg24
S'500'
p1057
sg26
S'Isolerte faresoner'
p1058
sg28
Nsg29
g1006
sg31
S'4 - Store'
p1059
sba(irunmatrix
M3Element
p1060
(dp1061
g3
Nsg4
S'Sannsynlig, Meget sannsynlig'
p1062
sg6
S'gray'
p1063
sg8
(lp1064
sg10
S'Likely'
p1065
sg12
S'Isolated'
p1066
sg14
g66
sg16
I0
sg17
S'Nat'
p1067
sg19
S'Naturlig utloest'
p1068
sg21
Nsg22
S'400'
p1069
sg24
S'600'
p1070
sg26
S'Isolerte faresoner'
p1071
sg28
Nsg29
g1006
sg31
S'4 - Store'
p1072
sba(irunmatrix
M3Element
p1073
(dp1074
g3
Nsg4
S'Lite sannsynlig, Mulig'
p1075
sg6
S'white'
p1076
sg8
(lp1077
sg10
S'Possible'
p1078
sg12
S'Some'
p1079
sg14
g508
sg16
I3
sg17
S'High'
p1080
sg19
S'Stor tilleggsbelastning'
p1081
sg21
Nsg22
S'400'
p1082
sg24
S'700'
p1083
sg26
S'Noen bratte heng'
p1084
sg28
Nsg29
g1006
sg31
S'4 - Store'
p1085
sba(irunmatrix
M3Element
p1086
(dp1087
g3
Nsg4
S'Lite sannsynlig, Mulig'
p1088
sg6
S'white'
p1089
sg8
(lp1090
sg10
S'Possible'
p1091
sg12
S'Some'
p1092
sg14
g577
sg16
I4
sg17
S'Low'
p1093
sg19
S'Liten tilleggsbelastning'
p1094
sg21
Nsg22
S'400'
p1095
sg24
S'800'
p1096
sg26
S'Noen bratte heng'
p1097
sg28
Nsg29
g1006
sg31
S'4 - Store'
p1098
sba(irunmatrix
M3Element
p1099
(dp1100
g3
Nsg4
S'Lite sannsynlig, Mulig'
p1101
sg6
S'white'
p1102
sg8
(lp1103
sg10
S'Possible'
p1104
sg12
S'Some'
p1105
sg14
g577
sg16
I4
sg17
S'Nat'
p1106
sg19
S'Naturlig utloest'
p1107
sg21
Nsg22
S'400'
p1108
sg24
S'900'
p1109
sg26
S'Noen bratte heng'
p1110
sg28
Nsg29
g1006
sg31
S'4 - Store'
p1111
sba(irunmatrix
M3Element
p1112
(dp1113
g3
Nsg4
S'Sannsynlig, Meget sannsynlig'
p1114
sg6
S'gray'
p1115
sg8
(lp1116
sg10
S'Likely'
p1117
sg12
S'Some'
p1118
sg14
g66
sg16
I0
sg17
S'High'
p1119
sg19
S'Stor tilleggsbelastning'
p1120
sg21
Nsg22
S'400'
p1121
sg24
S'1000'
p1122
sg26
S'Noen bratte heng'
p1123
sg28
Nsg29
g1006
sg31
S'4 - Store'
p1124
sba(irunmatrix
M3Element
p1125
(dp1126
g3
Nsg4
S'Sannsynlig, Meget sannsynlig'
p1127
sg6
S'gray'
p1128
sg8
(lp1129
sg10
S'Likely'
p1130
sg12
S'Some'
p1131
sg14
g66
sg16
I0
sg17
S'Low'
p1132
sg19
S'Liten tilleggsbelastning'
p1133
sg21
Nsg22
S'400'
p1134
sg24
S'1100'
p1135
sg26
S'Noen bratte heng'
p1136
sg28
Nsg29
g1006
sg31
S'4 - Store'
p1137
sba(irunmatrix
M3Element
p1138
(dp1139
g3
Nsg4
S'Sannsynlig, Meget sannsynlig'
p1140
sg6
S'white'
p1141
sg8
(lp1142
sg10
S'Likely'
p1143
sg12
S'Some'
p1144
sg14
g577
sg16
I4
sg17
S'Nat'
p1145
sg19
S'Naturlig utloest'
p1146
sg21
Nsg22
S'400'
p1147
sg24
S'1200'
p1148
sg26
S'Noen bratte heng'
p1149
sg28
Nsg29
g1006
sg31
S'4 - Store'
p1150
sba(irunmatrix
M3Element
p1151
(dp1152
g3
Nsg4
S'Lite sannsynlig, Mulig'
p1153
sg6
S'gray'
p1154
sg8
(lp1155
sg10
S'Possible'
p1156
sg12
S'Many'
p1157
sg14
g66
sg16
I0
sg17
S'High'
p1158
sg19
S'Stor tilleggsbelastning'
p1159
sg21
Nsg22
S'400'
p1160
sg24
S'1300'
p1161
sg26
S'Mange bratte heng'
p1162
sg28
Nsg29
g1006
sg31
S'4 - Store'
p1163
sba(irunmatrix
M3Element
p1164
(dp1165
g3
Nsg4
S'Lite sannsynlig, Mulig'
p1166
sg6
S'white'
p1167
sg8
(lp1168
sg10
S'Possible'
p1169
sg12
S'Many'
p1170
sg14
g66
sg16
I0
sg17
S'Low'
p1171
sg19
S'Liten tilleggsbelastning'
p1172
sg21
Nsg22
S'400'
p1173
sg24
S'1400'
p1174
sg26
S'Mange bratte heng'
p1175
sg28
Nsg29
g1006
sg31
S'4 - Store'
p1176
sba(irunmatrix
M3Element
p1177
(dp1178
g3
Nsg4
S'Lite sannsynlig, Mulig'
p1179
sg6
S'gray'
p1180
sg8
(lp1181
sg10
S'Possible'
p1182
sg12
S'Many'
p1183
sg14
g66
sg16
I0
sg17
S'Nat'
p1184
sg19
S'Naturlig utloest'
p1185
sg21
Nsg22
S'400'
p1186
sg24
S'1500'
p1187
sg26
S'Mange bratte heng'
p1188
sg28
Nsg29
g1006
sg31
S'4 - Store'
p1189
sba(irunmatrix
M3Element
p1190
(dp1191
g3
Nsg4
S'Sannsynlig, Meget sannsynlig'
p1192
sg6
S'gray'
p1193
sg8
(lp1194
sg10
S'Likely'
p1195
sg12
S'Many'
p1196
sg14
g66
sg16
I0
sg17
S'High'
p1197
sg19
S'Stor tilleggsbelastning'
p1198
sg21
Nsg22
S'400'
p1199
sg24
S'1600'
p1200
sg26
S'Mange bratte heng'
p1201
sg28
Nsg29
g1006
sg31
S'4 - Store'
p1202
sba(irunmatrix
M3Element
p1203
(dp1204
g3
Nsg4
S'Sannsynlig, Meget sannsynlig'
p1205
sg6
S'white'
p1206
sg8
(lp1207
sg10
S'Likely'
p1208
sg12
S'Many'
p1209
sg14
g66
sg16
I0
sg17
S'Low'
p1210
sg19
S'Liten tilleggsbelastning'
p1211
sg21
Nsg22
S'400'
p1212
sg24
S'1700'
p1213
sg26
S'Mange bratte heng'
p1214
sg28
Nsg29
g1006
sg31
S'4 - Store'
p1215
sba(irunmatrix
M3Element
p1216
(dp1217
g3
Nsg4
S'Sannsynlig, Meget sannsynlig'
p1218
sg6
S'white'
p1219
sg8
(lp1220
sg10
S'Likely'
p1221
sg12
S'Many'
p1222
sg14
S'k'
p1223
sg16
I5
sg17
S'Nat'
p1224
sg19
S'Naturlig utloest'
p1225
sg21
Nsg22
S'400'
p1226
sg24
S'1800'
p1227
sg26
S'Mange bratte heng'
p1228
sg28
Nsg29
g1006
sg31
S'4 - Store'
p1229
sba(irunmatrix
M3Element
p1230
(dp1231
g3
Nsg4
S'Lite sannsynlig, Mulig'
p1232
sg6
S'gray'
p1233
sg8
(lp1234
sg10
S'Possible'
p1235
sg12
S'Most'
p1236
sg14
g66
sg16
I0
sg17
S'High'
p1237
sg19
S'Stor tilleggsbelastning'
p1238
sg21
Nsg22
S'400'
p1239
sg24
S'1900'
p1240
sg26
S'De fleste bratte heng, Ogsaa i mindre bratt terreng'
p1241
sg28
Nsg29
g1006
sg31
S'4 - Store'
p1242
sba(irunmatrix
M3Element
p1243
(dp1244
g3
Nsg4
S'Lite sannsynlig, Mulig'
p1245
sg6
S'gray'
p1246
sg8
(lp1247
sg10
S'Possible'
p1248
sg12
S'Most'
p1249
sg14
g66
sg16
I0
sg17
S'Low'
p1250
sg19
S'Liten tilleggsbelastning'
p1251
sg21
Nsg22
S'400'
p1252
sg24
S'2000'
p1253
sg26
S'De fleste bratte heng, Ogsaa i mindre bratt terreng'
p1254
sg28
Nsg29
g1006
sg31
S'4 - Store'
p1255
sba(irunmatrix
M3Element
p1256
(dp1257
g3
Nsg4
S'Lite sannsynlig, Mulig'
p1258
sg6
S'gray'
p1259
sg8
(lp1260
sg10
S'Possible'
p1261
sg12
S'Most'
p1262
sg14
g66
sg16
I0
sg17
S'Nat'
p1263
sg19
S'Naturlig utloest'
p1264
sg21
Nsg22
S'400'
p1265
sg24
S'2100'
p1266
sg26
S'De fleste bratte heng, Ogsaa i mindre bratt terreng'
p1267
sg28
Nsg29
g1006
sg31
S'4 - Store'
p1268
sba(irunmatrix
M3Element
p1269
(dp1270
g3
Nsg4
S'Sannsynlig, Meget sannsynlig'
p1271
sg6
S'gray'
p1272
sg8
(lp1273
sg10
S'Likely'
p1274
sg12
S'Most'
p1275
sg14
g66
sg16
I0
sg17
S'High'
p1276
sg19
S'Stor tilleggsbelastning'
p1277
sg21
Nsg22
S'400'
p1278
sg24
S'2200'
p1279
sg26
S'De fleste bratte heng, Ogsaa i mindre bratt terreng'
p1280
sg28
Nsg29
g1006
sg31
S'4 - Store'
p1281
sba(irunmatrix
M3Element
p1282
(dp1283
g3
Nsg4
S'Sannsynlig, Meget sannsynlig'
p1284
sg6
S'gray'
p1285
sg8
(lp1286
sg10
S'Likely'
p1287
sg12
S'Most'
p1288
sg14
g66
sg16
I0
sg17
S'Low'
p1289
sg19
S'Liten tilleggsbelastning'
p1290
sg21
Nsg22
S'400'
p1291
sg24
S'2300'
p1292
sg26
S'De fleste bratte heng, Ogsaa i mindre bratt terreng'
p1293
sg28
Nsg29
g1006
sg31
S'4 - Store'
p1294
sba(irunmatrix
M3Element
p1295
(dp1296
g3
Nsg4
S'Sannsynlig, Meget sannsynlig'
p1297
sg6
S'white'
p1298
sg8
(lp1299
sg10
S'Likely'
p1300
sg12
S'Most'
p1301
sg14
g66
sg16
I0
sg17
S'Nat'
p1302
sg19
S'Naturlig utloest'
p1303
sg21
Nsg22
S'400'
p1304
sg24
S'2400'
p1305
sg26
S'De fleste bratte heng, Ogsaa i mindre bratt terreng'
p1306
sg28
Nsg29
g1006
sg31
S'4 - Store'
p1307
sba(irunmatrix
M3Element
p1308
(dp1309
g3
Nsg4
S'Lite sannsynlig, Mulig'
p1310
sg6
S'white'
p1311
sg8
(lp1312
sg10
S'Possible'
p1313
sg12
S'Isolated'
p1314
sg14
g66
sg16
I0
sg17
S'High'
p1315
sg19
S'Stor tilleggsbelastning'
p1316
sg21
Nsg22
S'500'
p1317
sg24
S'100'
p1318
sg26
S'Isolerte faresoner'
p1319
sg28
Nsg29
S'5'
p1320
sg31
S'5 - Svaert store'
p1321
sba(irunmatrix
M3Element
p1322
(dp1323
g3
Nsg4
S'Lite sannsynlig, Mulig'
p1324
sg6
S'white'
p1325
sg8
(lp1326
sg10
S'Possible'
p1327
sg12
S'Isolated'
p1328
sg14
g66
sg16
I0
sg17
S'Low'
p1329
sg19
S'Liten tilleggsbelastning'
p1330
sg21
Nsg22
S'500'
p1331
sg24
S'200'
p1332
sg26
S'Isolerte faresoner'
p1333
sg28
Nsg29
g1320
sg31
S'5 - Svaert store'
p1334
sba(irunmatrix
M3Element
p1335
(dp1336
g3
Nsg4
S'Lite sannsynlig, Mulig'
p1337
sg6
S'white'
p1338
sg8
(lp1339
sg10
S'Possible'
p1340
sg12
S'Isolated'
p1341
sg14
g66
sg16
I0
sg17
S'Nat'
p1342
sg19
S'Naturlig utloest'
p1343
sg21
Nsg22
S'500'
p1344
sg24
S'300'
p1345
sg26
S'Isolerte faresoner'
p1346
sg28
Nsg29
g1320
sg31
S'5 - Svaert store'
p1347
sba(irunmatrix
M3Element
p1348
(dp1349
g3
Nsg4
S'Sannsynlig, Meget sannsynlig'
p1350
sg6
S'gray'
p1351
sg8
(lp1352
sg10
S'Likely'
p1353
sg12
S'Isolated'
p1354
sg14
g66
sg16
I0
sg17
S'High'
p1355
sg19
S'Stor tilleggsbelastning'
p1356
sg21
Nsg22
S'500'
p1357
sg24
S'400'
p1358
sg26
S'Isolerte faresoner'
p1359
sg28
Nsg29
g1320
sg31
S'5 - Svaert store'
p1360
sba(irunmatrix
M3Element
p1361
(dp1362
g3
Nsg4
S'Sannsynlig, Meget sannsynlig'
p1363
sg6
S'gray'
p1364
sg8
(lp1365
sg10
S'Likely'
p1366
sg12
S'Isolated'
p1367
sg14
g66
sg16
I0
sg17
S'Low'
p1368
sg19
S'Liten tilleggsbelastning'
p1369
sg21
Nsg22
S'500'
p1370
sg24
S'500'
p1371
sg26
S'Isolerte faresoner'
p1372
sg28
Nsg29
g1320
sg31
S'5 - Svaert store'
p1373
sba(irunmatrix
M3Element
p1374
(dp1375
g3
Nsg4
S'Sannsynlig, Meget sannsynlig'
p1376
sg6
S'gray'
p1377
sg8
(lp1378
sg10
S'Likely'
p1379
sg12
S'Isolated'
p1380
sg14
g66
sg16
I0
sg17
S'Nat'
p1381
sg19
S'Naturlig utloest'
p1382
sg21
Nsg22
S'500'
p1383
sg24
S'600'
p1384
sg26
S'Isolerte faresoner'
p1385
sg28
Nsg29
g1320
sg31
S'5 - Svaert store'
p1386
sba(irunmatrix
M3Element
p1387
(dp1388
g3
Nsg4
S'Lite sannsynlig, Mulig'
p1389
sg6
S'white'
p1390
sg8
(lp1391
sg10
S'Possible'
p1392
sg12
S'Some'
p1393
sg14
g66
sg16
I0
sg17
S'High'
p1394
sg19
S'Stor tilleggsbelastning'
p1395
sg21
Nsg22
S'500'
p1396
sg24
S'700'
p1397
sg26
S'Noen bratte heng'
p1398
sg28
Nsg29
g1320
sg31
S'5 - Svaert store'
p1399
sba(irunmatrix
M3Element
p1400
(dp1401
g3
Nsg4
S'Lite sannsynlig, Mulig'
p1402
sg6
S'white'
p1403
sg8
(lp1404
sg10
S'Possible'
p1405
sg12
S'Some'
p1406
sg14
g66
sg16
I0
sg17
S'Low'
p1407
sg19
S'Liten tilleggsbelastning'
p1408
sg21
Nsg22
S'500'
p1409
sg24
S'800'
p1410
sg26
S'Noen bratte heng'
p1411
sg28
Nsg29
g1320
sg31
S'5 - Svaert store'
p1412
sba(irunmatrix
M3Element
p1413
(dp1414
g3
Nsg4
S'Lite sannsynlig, Mulig'
p1415
sg6
S'white'
p1416
sg8
(lp1417
sg10
S'Possible'
p1418
sg12
S'Some'
p1419
sg14
g66
sg16
I0
sg17
S'Nat'
p1420
sg19
S'Naturlig utloest'
p1421
sg21
Nsg22
S'500'
p1422
sg24
S'900'
p1423
sg26
S'Noen bratte heng'
p1424
sg28
Nsg29
g1320
sg31
S'5 - Svaert store'
p1425
sba(irunmatrix
M3Element
p1426
(dp1427
g3
Nsg4
S'Sannsynlig, Meget sannsynlig'
p1428
sg6
S'gray'
p1429
sg8
(lp1430
sg10
S'Likely'
p1431
sg12
S'Some'
p1432
sg14
g66
sg16
I0
sg17
S'High'
p1433
sg19
S'Stor tilleggsbelastning'
p1434
sg21
Nsg22
S'500'
p1435
sg24
S'1000'
p1436
sg26
S'Noen bratte heng'
p1437
sg28
Nsg29
g1320
sg31
S'5 - Svaert store'
p1438
sba(irunmatrix
M3Element
p1439
(dp1440
g3
Nsg4
S'Sannsynlig, Meget sannsynlig'
p1441
sg6
S'gray'
p1442
sg8
(lp1443
sg10
S'Likely'
p1444
sg12
S'Some'
p1445
sg14
g66
sg16
I0
sg17
S'Low'
p1446
sg19
S'Liten tilleggsbelastning'
p1447
sg21
Nsg22
S'500'
p1448
sg24
S'1100'
p1449
sg26
S'Noen bratte heng'
p1450
sg28
Nsg29
g1320
sg31
S'5 - Svaert store'
p1451
sba(irunmatrix
M3Element
p1452
(dp1453
g3
Nsg4
S'Sannsynlig, Meget sannsynlig'
p1454
sg6
S'white'
p1455
sg8
(lp1456
sg10
S'Likely'
p1457
sg12
S'Some'
p1458
sg14
g66
sg16
I0
sg17
S'Nat'
p1459
sg19
S'Naturlig utloest'
p1460
sg21
Nsg22
S'500'
p1461
sg24
S'1200'
p1462
sg26
S'Noen bratte heng'
p1463
sg28
Nsg29
g1320
sg31
S'5 - Svaert store'
p1464
sba(irunmatrix
M3Element
p1465
(dp1466
g3
Nsg4
S'Lite sannsynlig, Mulig'
p1467
sg6
S'gray'
p1468
sg8
(lp1469
sg10
S'Possible'
p1470
sg12
S'Many'
p1471
sg14
g66
sg16
I0
sg17
S'High'
p1472
sg19
S'Stor tilleggsbelastning'
p1473
sg21
Nsg22
S'500'
p1474
sg24
S'1300'
p1475
sg26
S'Mange bratte heng'
p1476
sg28
Nsg29
g1320
sg31
S'5 - Svaert store'
p1477
sba(irunmatrix
M3Element
p1478
(dp1479
g3
Nsg4
S'Lite sannsynlig, Mulig'
p1480
sg6
S'white'
p1481
sg8
(lp1482
sg10
S'Possible'
p1483
sg12
S'Many'
p1484
sg14
g66
sg16
I0
sg17
S'Low'
p1485
sg19
S'Liten tilleggsbelastning'
p1486
sg21
Nsg22
S'500'
p1487
sg24
S'1400'
p1488
sg26
S'Mange bratte heng'
p1489
sg28
Nsg29
g1320
sg31
S'5 - Svaert store'
p1490
sba(irunmatrix
M3Element
p1491
(dp1492
g3
Nsg4
S'Lite sannsynlig, Mulig'
p1493
sg6
S'gray'
p1494
sg8
(lp1495
sg10
S'Possible'
p1496
sg12
S'Many'
p1497
sg14
g66
sg16
I0
sg17
S'Nat'
p1498
sg19
S'Naturlig utloest'
p1499
sg21
Nsg22
S'500'
p1500
sg24
S'1500'
p1501
sg26
S'Mange bratte heng'
p1502
sg28
Nsg29
g1320
sg31
S'5 - Svaert store'
p1503
sba(irunmatrix
M3Element
p1504
(dp1505
g3
Nsg4
S'Sannsynlig, Meget sannsynlig'
p1506
sg6
S'gray'
p1507
sg8
(lp1508
sg10
S'Likely'
p1509
sg12
S'Many'
p1510
sg14
g66
sg16
I0
sg17
S'High'
p1511
sg19
S'Stor tilleggsbelastning'
p1512
sg21
Nsg22
S'500'
p1513
sg24
S'1600'
p1514
sg26
S'Mange bratte heng'
p1515
sg28
Nsg29
g1320
sg31
S'5 - Svaert store'
p1516
sba(irunmatrix
M3Element
p1517
(dp1518
g3
Nsg4
S'Sannsynlig, Meget sannsynlig'
p1519
sg6
S'white'
p1520
sg8
(lp1521
sg10
S'Likely'
p1522
sg12
S'Many'
p1523
sg14
g66
sg16
I0
sg17
S'Low'
p1524
sg19
S'Liten tilleggsbelastning'
p1525
sg21
Nsg22
S'500'
p1526
sg24
S'1700'
p1527
sg26
S'Mange bratte heng'
p1528
sg28
Nsg29
g1320
sg31
S'5 - Svaert store'
p1529
sba(irunmatrix
M3Element
p1530
(dp1531
g3
Nsg4
S'Sannsynlig, Meget sannsynlig'
p1532
sg6
S'white'
p1533
sg8
(lp1534
sg10
S'Likely'
p1535
sg12
S'Many'
p1536
sg14
g1223
sg16
I5
sg17
S'Nat'
p1537
sg19
S'Naturlig utloest'
p1538
sg21
Nsg22
S'500'
p1539
sg24
S'1800'
p1540
sg26
S'Mange bratte heng'
p1541
sg28
Nsg29
g1320
sg31
S'5 - Svaert store'
p1542
sba(irunmatrix
M3Element
p1543
(dp1544
g3
Nsg4
S'Lite sannsynlig, Mulig'
p1545
sg6
S'gray'
p1546
sg8
(lp1547
sg10
S'Possible'
p1548
sg12
S'Most'
p1549
sg14
g66
sg16
I0
sg17
S'High'
p1550
sg19
S'Stor tilleggsbelastning'
p1551
sg21
Nsg22
S'500'
p1552
sg24
S'1900'
p1553
sg26
S'De fleste bratte heng, Ogsaa i mindre bratt terreng'
p1554
sg28
Nsg29
g1320
sg31
S'5 - Svaert store'
p1555
sba(irunmatrix
M3Element
p1556
(dp1557
g3
Nsg4
S'Lite sannsynlig, Mulig'
p1558
sg6
S'gray'
p1559
sg8
(lp1560
sg10
S'Possible'
p1561
sg12
S'Most'
p1562
sg14
g66
sg16
I0
sg17
S'Low'
p1563
sg19
S'Liten tilleggsbelastning'
p1564
sg21
Nsg22
S'500'
p1565
sg24
S'2000'
p1566
sg26
S'De fleste bratte heng, Ogsaa i mindre bratt terreng'
p1567
sg28
Nsg29
g1320
sg31
S'5 - Svaert store'
p1568
sba(irunmatrix
M3Element
p1569
(dp1570
g3
Nsg4
S'Lite sannsynlig, Mulig'
p1571
sg6
S'gray'
p1572
sg8
(lp1573
sg10
S'Possible'
p1574
sg12
S'Most'
p1575
sg14
g66
sg16
I0
sg17
S'Nat'
p1576
sg19
S'Naturlig utloest'
p1577
sg21
Nsg22
S'500'
p1578
sg24
S'2100'
p1579
sg26
S'De fleste bratte heng, Ogsaa i mindre bratt terreng'
p1580
sg28
Nsg29
g1320
sg31
S'5 - Svaert store'
p1581
sba(irunmatrix
M3Element
p1582
(dp1583
g3
Nsg4
S'Sannsynlig, Meget sannsynlig'
p1584
sg6
S'gray'
p1585
sg8
(lp1586
sg10
S'Likely'
p1587
sg12
S'Most'
p1588
sg14
g66
sg16
I0
sg17
S'High'
p1589
sg19
S'Stor tilleggsbelastning'
p1590
sg21
Nsg22
S'500'
p1591
sg24
S'2200'
p1592
sg26
S'De fleste bratte heng, Ogsaa i mindre bratt terreng'
p1593
sg28
Nsg29
g1320
sg31
S'5 - Svaert store'
p1594
sba(irunmatrix
M3Element
p1595
(dp1596
g3
Nsg4
S'Sannsynlig, Meget sannsynlig'
p1597
sg6
S'gray'
p1598
sg8
(lp1599
sg10
S'Likely'
p1600
sg12
S'Most'
p1601
sg14
g66
sg16
I0
sg17
S'Low'
p1602
sg19
S'Liten tilleggsbelastning'
p1603
sg21
Nsg22
S'500'
p1604
sg24
S'2300'
p1605
sg26
S'De fleste bratte heng, Ogsaa i mindre bratt terreng'
p1606
sg28
Nsg29
g1320
sg31
S'5 - Svaert store'
p1607
sba(irunmatrix
M3Element
p1608
(dp1609
g3
Nsg4
S'Sannsynlig, Meget sannsynlig'
p1610
sg6
S'white'
p1611
sg8
(lp1612
sg10
S'Likely'
p1613
sg12
S'Most'
p1614
sg14
g66
sg16
I0
sg17
S'Nat'
p1615
sg19
S'Naturlig utloest'
p1616
sg21
Nsg22
S'500'
p1617
sg24
S'2400'
p1618
sg26
S'De fleste bratte heng, Ogsaa i mindre bratt terreng'
p1619
sg28
Nsg29
g1320
sg31
S'5 - Svaert store'
p1620
sba.