(lp0
(irunmatrix
M3Element
p1
(dp2
S'danger_level_average'
p3
F1.0526315789473684
sS'probability'
p4
S'Lite sannsynlig, Mulig'
p5
sS'colour'
p6
S'#ccff66'
p7
sS'danger_level_list'
p8
(lp9
I1
aI1
aI1
aI1
aI1
aI1
aI2
aI1
aI1
aI1
aI1
aI1
aI1
aI1
aI1
aI1
aI1
aI1
aI1
asS'label_probalility'
p10
S'Possible'
p11
sS'label_distribution'
p12
S'Isolated'
p13
sS'recomended_colour'
p14
S'#ccff66'
p15
sS'recomended_danger_level'
p16
I1
sS'label_trigger'
p17
S'High'
p18
sS'trigger'
p19
S'Stor tilleggsbelastning'
p20
sS'occurrences'
p21
I19
sS'y'
p22
S'100'
p23
sS'x'
p24
S'100'
p25
sS'distribution'
p26
S'Isolerte faresoner'
p27
sS'danger_level_standard_dev'
p28
cnumpy.core.multiarray
scalar
p29
(cnumpy
dtype
p30
(S'f8'
p31
I0
I1
tp32
Rp33
(I3
S'<'
p34
NNNI-1
I-1
I0
tp35
bS'\xd9\xa9\xbb\xfa\xfd\x94\xcc?'
p36
tp37
Rp38
sS'label_size'
p39
S'1'
p40
sS'avalanche_size'
p41
S'1 - Harmloest'
p42
sba(irunmatrix
M3Element
p43
(dp44
g3
F1.2
sg4
S'Lite sannsynlig, Mulig'
p45
sg6
g7
sg8
(lp46
I2
aI2
aI1
aI1
aI1
aI1
aI1
aI1
aI1
aI1
asg10
S'Possible'
p47
sg12
S'Isolated'
p48
sg14
g15
sg16
I1
sg17
S'Low'
p49
sg19
S'Liten tilleggsbelastning'
p50
sg21
I10
sg22
S'100'
p51
sg24
S'200'
p52
sg26
S'Isolerte faresoner'
p53
sg28
g29
(g33
S'\x9a\x99\x99\x99\x99\x99\xd9?'
p54
tp55
Rp56
sg39
g40
sg41
S'1 - Harmloest'
p57
sba(irunmatrix
M3Element
p58
(dp59
g3
Nsg4
S'Lite sannsynlig, Mulig'
p60
sg6
S'white'
p61
sg8
(lp62
sg10
S'Possible'
p63
sg12
S'Isolated'
p64
sg14
g15
sg16
I1
sg17
S'Nat'
p65
sg19
S'Naturlig utloest'
p66
sg21
Nsg22
S'100'
p67
sg24
S'300'
p68
sg26
S'Isolerte faresoner'
p69
sg28
Nsg39
g40
sg41
S'1 - Harmloest'
p70
sba(irunmatrix
M3Element
p71
(dp72
g3
Nsg4
S'Sannsynlig, Meget sannsynlig'
p73
sg6
S'gray'
p74
sg8
(lp75
sg10
S'Likely'
p76
sg12
S'Isolated'
p77
sg14
S'gray'
p78
sg16
I0
sg17
S'High'
p79
sg19
S'Stor tilleggsbelastning'
p80
sg21
Nsg22
S'100'
p81
sg24
S'400'
p82
sg26
S'Isolerte faresoner'
p83
sg28
Nsg39
g40
sg41
S'1 - Harmloest'
p84
sba(irunmatrix
M3Element
p85
(dp86
g3
Nsg4
S'Sannsynlig, Meget sannsynlig'
p87
sg6
S'gray'
p88
sg8
(lp89
sg10
S'Likely'
p90
sg12
S'Isolated'
p91
sg14
g78
sg16
I0
sg17
S'Low'
p92
sg19
S'Liten tilleggsbelastning'
p93
sg21
Nsg22
S'100'
p94
sg24
S'500'
p95
sg26
S'Isolerte faresoner'
p96
sg28
Nsg39
g40
sg41
S'1 - Harmloest'
p97
sba(irunmatrix
M3Element
p98
(dp99
g3
Nsg4
S'Sannsynlig, Meget sannsynlig'
p100
sg6
S'gray'
p101
sg8
(lp102
sg10
S'Likely'
p103
sg12
S'Isolated'
p104
sg14
g78
sg16
I0
sg17
S'Nat'
p105
sg19
S'Naturlig utloest'
p106
sg21
Nsg22
S'100'
p107
sg24
S'600'
p108
sg26
S'Isolerte faresoner'
p109
sg28
Nsg39
g40
sg41
S'1 - Harmloest'
p110
sba(irunmatrix
M3Element
p111
(dp112
g3
F1.3333333333333333
sg4
S'Lite sannsynlig, Mulig'
p113
sg6
g7
sg8
(lp114
I2
aI1
aI1
asg10
S'Possible'
p115
sg12
S'Some'
p116
sg14
g15
sg16
I1
sg17
S'High'
p117
sg19
S'Stor tilleggsbelastning'
p118
sg21
I3
sg22
S'100'
p119
sg24
S'700'
p120
sg26
S'Noen bratte heng'
p121
sg28
g29
(g33
S'f\xfa\xfe\xdd}+\xde?'
p122
tp123
Rp124
sg39
g40
sg41
S'1 - Harmloest'
p125
sba(irunmatrix
M3Element
p126
(dp127
g3
F1.3333333333333333
sg4
S'Lite sannsynlig, Mulig'
p128
sg6
g7
sg8
(lp129
I2
aI1
aI1
asg10
S'Possible'
p130
sg12
S'Some'
p131
sg14
g15
sg16
I1
sg17
S'Low'
p132
sg19
S'Liten tilleggsbelastning'
p133
sg21
I3
sg22
S'100'
p134
sg24
S'800'
p135
sg26
S'Noen bratte heng'
p136
sg28
g29
(g33
S'f\xfa\xfe\xdd}+\xde?'
p137
tp138
Rp139
sg39
g40
sg41
S'1 - Harmloest'
p140
sba(irunmatrix
M3Element
p141
(dp142
g3
Nsg4
S'Lite sannsynlig, Mulig'
p143
sg6
S'white'
p144
sg8
(lp145
sg10
S'Possible'
p146
sg12
S'Some'
p147
sg14
g15
sg16
I1
sg17
S'Nat'
p148
sg19
S'Naturlig utloest'
p149
sg21
Nsg22
S'100'
p150
sg24
S'900'
p151
sg26
S'Noen bratte heng'
p152
sg28
Nsg39
g40
sg41
S'1 - Harmloest'
p153
sba(irunmatrix
M3Element
p154
(dp155
g3
Nsg4
S'Sannsynlig, Meget sannsynlig'
p156
sg6
S'gray'
p157
sg8
(lp158
sg10
S'Likely'
p159
sg12
S'Some'
p160
sg14
g78
sg16
I0
sg17
S'High'
p161
sg19
S'Stor tilleggsbelastning'
p162
sg21
Nsg22
S'100'
p163
sg24
S'1000'
p164
sg26
S'Noen bratte heng'
p165
sg28
Nsg39
g40
sg41
S'1 - Harmloest'
p166
sba(irunmatrix
M3Element
p167
(dp168
g3
Nsg4
S'Sannsynlig, Meget sannsynlig'
p169
sg6
S'gray'
p170
sg8
(lp171
sg10
S'Likely'
p172
sg12
S'Some'
p173
sg14
g78
sg16
I0
sg17
S'Low'
p174
sg19
S'Liten tilleggsbelastning'
p175
sg21
Nsg22
S'100'
p176
sg24
S'1100'
p177
sg26
S'Noen bratte heng'
p178
sg28
Nsg39
g40
sg41
S'1 - Harmloest'
p179
sba(irunmatrix
M3Element
p180
(dp181
g3
Nsg4
S'Sannsynlig, Meget sannsynlig'
p182
sg6
S'white'
p183
sg8
(lp184
sg10
S'Likely'
p185
sg12
S'Some'
p186
sg14
g15
sg16
I1
sg17
S'Nat'
p187
sg19
S'Naturlig utloest'
p188
sg21
Nsg22
S'100'
p189
sg24
S'1200'
p190
sg26
S'Noen bratte heng'
p191
sg28
Nsg39
g40
sg41
S'1 - Harmloest'
p192
sba(irunmatrix
M3Element
p193
(dp194
g3
Nsg4
S'Lite sannsynlig, Mulig'
p195
sg6
S'gray'
p196
sg8
(lp197
sg10
S'Possible'
p198
sg12
S'Many'
p199
sg14
g78
sg16
I0
sg17
S'High'
p200
sg19
S'Stor tilleggsbelastning'
p201
sg21
Nsg22
S'100'
p202
sg24
S'1300'
p203
sg26
S'Mange bratte heng'
p204
sg28
Nsg39
g40
sg41
S'1 - Harmloest'
p205
sba(irunmatrix
M3Element
p206
(dp207
g3
Nsg4
S'Lite sannsynlig, Mulig'
p208
sg6
S'white'
p209
sg8
(lp210
sg10
S'Possible'
p211
sg12
S'Many'
p212
sg14
g15
sg16
I1
sg17
S'Low'
p213
sg19
S'Liten tilleggsbelastning'
p214
sg21
Nsg22
S'100'
p215
sg24
S'1400'
p216
sg26
S'Mange bratte heng'
p217
sg28
Nsg39
g40
sg41
S'1 - Harmloest'
p218
sba(irunmatrix
M3Element
p219
(dp220
g3
F2.5
sg4
S'Lite sannsynlig, Mulig'
p221
sg6
S'#ff9900'
p222
sg8
(lp223
I3
aI2
asg10
S'Possible'
p224
sg12
S'Many'
p225
sg14
g78
sg16
I0
sg17
S'Nat'
p226
sg19
S'Naturlig utloest'
p227
sg21
I2
sg22
S'100'
p228
sg24
S'1500'
p229
sg26
S'Mange bratte heng'
p230
sg28
g29
(g33
S'\x00\x00\x00\x00\x00\x00\xe0?'
p231
tp232
Rp233
sg39
g40
sg41
S'1 - Harmloest'
p234
sba(irunmatrix
M3Element
p235
(dp236
g3
Nsg4
S'Sannsynlig, Meget sannsynlig'
p237
sg6
S'gray'
p238
sg8
(lp239
sg10
S'Likely'
p240
sg12
S'Many'
p241
sg14
g78
sg16
I0
sg17
S'High'
p242
sg19
S'Stor tilleggsbelastning'
p243
sg21
Nsg22
S'100'
p244
sg24
S'1600'
p245
sg26
S'Mange bratte heng'
p246
sg28
Nsg39
g40
sg41
S'1 - Harmloest'
p247
sba(irunmatrix
M3Element
p248
(dp249
g3
Nsg4
S'Sannsynlig, Meget sannsynlig'
p250
sg6
S'white'
p251
sg8
(lp252
sg10
S'Likely'
p253
sg12
S'Many'
p254
sg14
S'#ffff00'
p255
sg16
I2
sg17
S'Low'
p256
sg19
S'Liten tilleggsbelastning'
p257
sg21
Nsg22
S'100'
p258
sg24
S'1700'
p259
sg26
S'Mange bratte heng'
p260
sg28
Nsg39
g40
sg41
S'1 - Harmloest'
p261
sba(irunmatrix
M3Element
p262
(dp263
g3
Nsg4
S'Sannsynlig, Meget sannsynlig'
p264
sg6
S'white'
p265
sg8
(lp266
sg10
S'Likely'
p267
sg12
S'Many'
p268
sg14
g255
sg16
I2
sg17
S'Nat'
p269
sg19
S'Naturlig utloest'
p270
sg21
Nsg22
S'100'
p271
sg24
S'1800'
p272
sg26
S'Mange bratte heng'
p273
sg28
Nsg39
g40
sg41
S'1 - Harmloest'
p274
sba(irunmatrix
M3Element
p275
(dp276
g3
Nsg4
S'Lite sannsynlig, Mulig'
p277
sg6
S'gray'
p278
sg8
(lp279
sg10
S'Possible'
p280
sg12
S'Most'
p281
sg14
g78
sg16
I0
sg17
S'High'
p282
sg19
S'Stor tilleggsbelastning'
p283
sg21
Nsg22
S'100'
p284
sg24
S'1900'
p285
sg26
S'De fleste bratte heng, Ogsaa i mindre bratt terreng'
p286
sg28
Nsg39
g40
sg41
S'1 - Harmloest'
p287
sba(irunmatrix
M3Element
p288
(dp289
g3
Nsg4
S'Lite sannsynlig, Mulig'
p290
sg6
S'gray'
p291
sg8
(lp292
sg10
S'Possible'
p293
sg12
S'Most'
p294
sg14
g78
sg16
I0
sg17
S'Low'
p295
sg19
S'Liten tilleggsbelastning'
p296
sg21
Nsg22
S'100'
p297
sg24
S'2000'
p298
sg26
S'De fleste bratte heng, Ogsaa i mindre bratt terreng'
p299
sg28
Nsg39
g40
sg41
S'1 - Harmloest'
p300
sba(irunmatrix
M3Element
p301
(dp302
g3
Nsg4
S'Lite sannsynlig, Mulig'
p303
sg6
S'gray'
p304
sg8
(lp305
sg10
S'Possible'
p306
sg12
S'Most'
p307
sg14
g78
sg16
I0
sg17
S'Nat'
p308
sg19
S'Naturlig utloest'
p309
sg21
Nsg22
S'100'
p310
sg24
S'2100'
p311
sg26
S'De fleste bratte heng, Ogsaa i mindre bratt terreng'
p312
sg28
Nsg39
g40
sg41
S'1 - Harmloest'
p313
sba(irunmatrix
M3Element
p314
(dp315
g3
Nsg4
S'Sannsynlig, Meget sannsynlig'
p316
sg6
S'gray'
p317
sg8
(lp318
sg10
S'Likely'
p319
sg12
S'Most'
p320
sg14
g78
sg16
I0
sg17
S'High'
p321
sg19
S'Stor tilleggsbelastning'
p322
sg21
Nsg22
S'100'
p323
sg24
S'2200'
p324
sg26
S'De fleste bratte heng, Ogsaa i mindre bratt terreng'
p325
sg28
Nsg39
g40
sg41
S'1 - Harmloest'
p326
sba(irunmatrix
M3Element
p327
(dp328
g3
Nsg4
S'Sannsynlig, Meget sannsynlig'
p329
sg6
S'gray'
p330
sg8
(lp331
sg10
S'Likely'
p332
sg12
S'Most'
p333
sg14
g78
sg16
I0
sg17
S'Low'
p334
sg19
S'Liten tilleggsbelastning'
p335
sg21
Nsg22
S'100'
p336
sg24
S'2300'
p337
sg26
S'De fleste bratte heng, Ogsaa i mindre bratt terreng'
p338
sg28
Nsg39
g40
sg41
S'1 - Harmloest'
p339
sba(irunmatrix
M3Element
p340
(dp341
g3
Nsg4
S'Sannsynlig, Meget sannsynlig'
p342
sg6
S'white'
p343
sg8
(lp344
sg10
S'Likely'
p345
sg12
S'Most'
p346
sg14
g78
sg16
I0
sg17
S'Nat'
p347
sg19
S'Naturlig utloest'
p348
sg21
Nsg22
S'100'
p349
sg24
S'2400'
p350
sg26
S'De fleste bratte heng, Ogsaa i mindre bratt terreng'
p351
sg28
Nsg39
S'2'
p352
sg41
S'1 - Harmloest'
p353
sba(irunmatrix
M3Element
p354
(dp355
g3
F1.1232876712328768
sg4
S'Lite sannsynlig, Mulig'
p356
sg6
g7
sg8
(lp357
I1
aI2
aI2
aI2
aI1
aI1
aI1
aI1
aI1
aI1
aI1
aI1
aI1
aI1
aI1
aI1
aI1
aI1
aI1
aI1
aI1
aI2
aI2
aI2
aI2
aI1
aI1
aI2
aI1
aI1
aI1
aI1
aI1
aI2
aI1
aI1
aI1
aI1
aI1
aI1
aI1
aI1
aI1
aI1
aI1
aI1
aI1
aI1
aI1
aI1
aI1
aI1
aI1
aI1
aI1
aI1
aI1
aI1
aI1
aI1
aI1
aI1
aI1
aI1
aI1
aI1
aI1
aI1
aI1
aI1
aI1
aI1
aI1
asg10
S'Possible'
p358
sg12
S'Isolated'
p359
sg14
g15
sg16
I1
sg17
S'High'
p360
sg19
S'Stor tilleggsbelastning'
p361
sg21
I73
sg22
S'200'
p362
sg24
S'100'
p363
sg26
S'Isolerte faresoner'
p364
sg28
g29
(g33
S'\xa8P\xa1B\x85\n\xd5?'
p365
tp366
Rp367
sg39
g352
sg41
S'2 - Smaa'
p368
sba(irunmatrix
M3Element
p369
(dp370
g3
F1.7894736842105263
sg4
S'Lite sannsynlig, Mulig'
p371
sg6
S'#ffff00'
p372
sg8
(lp373
I2
aI2
aI2
aI2
aI2
aI2
aI2
aI2
aI2
aI2
aI2
aI2
aI2
aI2
aI2
aI2
aI2
aI2
aI2
aI2
aI2
aI2
aI2
aI2
aI2
aI1
aI1
aI1
aI1
aI1
aI1
aI1
aI1
aI2
aI2
aI1
aI2
aI3
asg10
S'Possible'
p374
sg12
S'Isolated'
p375
sg14
g15
sg16
I1
sg17
S'Low'
p376
sg19
S'Liten tilleggsbelastning'
p377
sg21
I38
sg22
S'200'
p378
sg24
S'200'
p379
sg26
S'Isolerte faresoner'
p380
sg28
g29
(g33
S'\x1aD\xc6-n\xf0\xdd?'
p381
tp382
Rp383
sg39
g352
sg41
S'2 - Smaa'
p384
sba(irunmatrix
M3Element
p385
(dp386
g3
Nsg4
S'Lite sannsynlig, Mulig'
p387
sg6
S'white'
p388
sg8
(lp389
sg10
S'Possible'
p390
sg12
S'Isolated'
p391
sg14
g15
sg16
I1
sg17
S'Nat'
p392
sg19
S'Naturlig utloest'
p393
sg21
Nsg22
S'200'
p394
sg24
S'300'
p395
sg26
S'Isolerte faresoner'
p396
sg28
Nsg39
g352
sg41
S'2 - Smaa'
p397
sba(irunmatrix
M3Element
p398
(dp399
g3
Nsg4
S'Sannsynlig, Meget sannsynlig'
p400
sg6
S'gray'
p401
sg8
(lp402
sg10
S'Likely'
p403
sg12
S'Isolated'
p404
sg14
g78
sg16
I0
sg17
S'High'
p405
sg19
S'Stor tilleggsbelastning'
p406
sg21
Nsg22
S'200'
p407
sg24
S'400'
p408
sg26
S'Isolerte faresoner'
p409
sg28
Nsg39
g352
sg41
S'2 - Smaa'
p410
sba(irunmatrix
M3Element
p411
(dp412
g3
Nsg4
S'Sannsynlig, Meget sannsynlig'
p413
sg6
S'gray'
p414
sg8
(lp415
sg10
S'Likely'
p416
sg12
S'Isolated'
p417
sg14
g78
sg16
I0
sg17
S'Low'
p418
sg19
S'Liten tilleggsbelastning'
p419
sg21
Nsg22
S'200'
p420
sg24
S'500'
p421
sg26
S'Isolerte faresoner'
p422
sg28
Nsg39
g352
sg41
S'2 - Smaa'
p423
sba(irunmatrix
M3Element
p424
(dp425
g3
Nsg4
S'Sannsynlig, Meget sannsynlig'
p426
sg6
S'gray'
p427
sg8
(lp428
sg10
S'Likely'
p429
sg12
S'Isolated'
p430
sg14
g78
sg16
I0
sg17
S'Nat'
p431
sg19
S'Naturlig utloest'
p432
sg21
Nsg22
S'200'
p433
sg24
S'600'
p434
sg26
S'Isolerte faresoner'
p435
sg28
Nsg39
g352
sg41
S'2 - Smaa'
p436
sba(irunmatrix
M3Element
p437
(dp438
g3
F1.9764705882352942
sg4
S'Lite sannsynlig, Mulig'
p439
sg6
g372
sg8
(lp440
I2
aI2
aI2
aI2
aI2
aI2
aI2
aI2
aI2
aI2
aI2
aI2
aI2
aI2
aI2
aI2
aI2
aI2
aI2
aI2
aI2
aI2
aI2
aI2
aI2
aI2
aI2
aI2
aI2
aI2
aI2
aI2
aI2
aI2
aI2
aI2
aI2
aI2
aI2
aI2
aI2
aI2
aI2
aI2
aI2
aI2
aI2
aI2
aI2
aI2
aI2
aI2
aI2
aI2
aI2
aI2
aI2
aI2
aI2
aI2
aI2
aI2
aI2
aI2
aI2
aI2
aI2
aI2
aI2
aI2
aI2
aI2
aI2
aI2
aI2
aI2
aI2
aI2
aI2
aI2
aI2
aI2
aI2
aI2
aI2
aI2
aI2
aI2
aI2
aI2
aI1
aI2
aI1
aI2
aI2
aI2
aI2
aI2
aI2
aI2
aI2
aI2
aI2
aI2
aI2
aI2
aI2
aI2
aI2
aI2
aI2
aI2
aI2
aI2
aI2
aI2
aI2
aI2
aI2
aI2
aI2
aI2
aI2
aI2
aI2
aI2
aI2
aI2
aI2
aI2
aI2
aI2
aI2
aI2
aI2
aI2
aI2
aI2
aI2
aI2
aI2
aI2
aI2
aI2
aI2
aI2
aI2
aI2
aI2
aI1
aI2
aI2
aI2
aI2
aI2
aI2
aI2
aI2
aI2
aI2
aI2
aI2
aI2
aI2
aI2
aI2
aI2
aI1
aI2
aI2
asg10
S'Possible'
p441
sg12
S'Some'
p442
sg14
g255
sg16
I2
sg17
S'High'
p443
sg19
S'Stor tilleggsbelastning'
p444
sg21
I170
sg22
S'200'
p445
sg24
S'700'
p446
sg26
S'Noen bratte heng'
p447
sg28
g29
(g33
S'9\xdfJV\xe5f\xc3?'
p448
tp449
Rp450
sg39
g352
sg41
S'2 - Smaa'
p451
sba(irunmatrix
M3Element
p452
(dp453
g3
F2.1122448979591835
sg4
S'Lite sannsynlig, Mulig'
p454
sg6
g372
sg8
(lp455
I2
aI3
aI2
aI2
aI2
aI2
aI2
aI2
aI2
aI2
aI2
aI3
aI2
aI2
aI3
aI2
aI2
aI2
aI2
aI2
aI2
aI2
aI2
aI2
aI2
aI2
aI2
aI2
aI2
aI2
aI2
aI3
aI2
aI3
aI2
aI2
aI2
aI2
aI2
aI2
aI2
aI2
aI2
aI2
aI2
aI2
aI2
aI2
aI2
aI2
aI2
aI2
aI2
aI2
aI2
aI2
aI2
aI2
aI2
aI2
aI2
aI2
aI2
aI2
aI2
aI2
aI2
aI2
aI2
aI2
aI2
aI2
aI2
aI2
aI2
aI3
aI3
aI3
aI3
aI2
aI2
aI2
aI3
aI2
aI3
aI3
aI3
aI3
aI3
aI2
aI2
aI2
aI2
aI2
aI2
aI2
aI2
aI2
aI2
aI2
aI2
aI2
aI2
aI2
aI2
aI2
aI3
aI3
aI3
aI3
aI3
aI3
aI2
aI2
aI2
aI2
aI2
aI2
aI2
aI2
aI2
aI2
aI3
aI2
aI2
aI2
aI2
aI2
aI2
aI2
aI2
aI2
aI2
aI2
aI2
aI2
aI2
aI2
aI2
aI2
aI2
aI2
aI2
aI2
aI2
aI2
aI2
aI2
aI2
aI2
aI2
aI2
aI2
aI2
aI2
aI2
aI2
aI2
aI2
aI2
aI2
aI2
aI2
aI2
aI2
aI2
aI2
aI2
aI2
aI2
aI2
aI2
aI2
aI2
aI2
aI2
aI2
aI2
aI2
aI2
aI2
aI2
aI2
aI2
aI2
aI2
aI2
aI2
aI2
aI2
aI2
aI2
aI2
aI2
aI2
aI2
asg10
S'Possible'
p456
sg12
S'Some'
p457
sg14
g255
sg16
I2
sg17
S'Low'
p458
sg19
S'Liten tilleggsbelastning'
p459
sg21
I196
sg22
S'200'
p460
sg24
S'800'
p461
sg26
S'Noen bratte heng'
p462
sg28
g29
(g33
S'\x8eF\xb8\x86\xe53\xd4?'
p463
tp464
Rp465
sg39
g352
sg41
S'2 - Smaa'
p466
sba(irunmatrix
M3Element
p467
(dp468
g3
F3.0
sg4
S'Lite sannsynlig, Mulig'
p469
sg6
g222
sg8
(lp470
I3
aI3
aI3
asg10
S'Possible'
p471
sg12
S'Some'
p472
sg14
g255
sg16
I2
sg17
S'Nat'
p473
sg19
S'Naturlig utloest'
p474
sg21
I3
sg22
S'200'
p475
sg24
S'900'
p476
sg26
S'Noen bratte heng'
p477
sg28
g29
(g33
S'\x00\x00\x00\x00\x00\x00\x00\x00'
p478
tp479
Rp480
sg39
g352
sg41
S'2 - Smaa'
p481
sba(irunmatrix
M3Element
p482
(dp483
g3
Nsg4
S'Sannsynlig, Meget sannsynlig'
p484
sg6
S'gray'
p485
sg8
(lp486
sg10
S'Likely'
p487
sg12
S'Some'
p488
sg14
g78
sg16
I0
sg17
S'High'
p489
sg19
S'Stor tilleggsbelastning'
p490
sg21
Nsg22
S'200'
p491
sg24
S'1000'
p492
sg26
S'Noen bratte heng'
p493
sg28
Nsg39
g352
sg41
S'2 - Smaa'
p494
sba(irunmatrix
M3Element
p495
(dp496
g3
Nsg4
S'Sannsynlig, Meget sannsynlig'
p497
sg6
S'gray'
p498
sg8
(lp499
sg10
S'Likely'
p500
sg12
S'Some'
p501
sg14
g78
sg16
I0
sg17
S'Low'
p502
sg19
S'Liten tilleggsbelastning'
p503
sg21
Nsg22
S'200'
p504
sg24
S'1100'
p505
sg26
S'Noen bratte heng'
p506
sg28
Nsg39
g352
sg41
S'2 - Smaa'
p507
sba(irunmatrix
M3Element
p508
(dp509
g3
Nsg4
S'Sannsynlig, Meget sannsynlig'
p510
sg6
S'white'
p511
sg8
(lp512
sg10
S'Likely'
p513
sg12
S'Some'
p514
sg14
S'#ff9900'
p515
sg16
I3
sg17
S'Nat'
p516
sg19
S'Naturlig utloest'
p517
sg21
Nsg22
S'200'
p518
sg24
S'1200'
p519
sg26
S'Noen bratte heng'
p520
sg28
Nsg39
g352
sg41
S'2 - Smaa'
p521
sba(irunmatrix
M3Element
p522
(dp523
g3
F2.0
sg4
S'Lite sannsynlig, Mulig'
p524
sg6
g372
sg8
(lp525
I2
aI2
aI2
aI2
aI2
asg10
S'Possible'
p526
sg12
S'Many'
p527
sg14
g78
sg16
I0
sg17
S'High'
p528
sg19
S'Stor tilleggsbelastning'
p529
sg21
I5
sg22
S'200'
p530
sg24
S'1300'
p531
sg26
S'Mange bratte heng'
p532
sg28
g29
(g33
S'\x00\x00\x00\x00\x00\x00\x00\x00'
p533
tp534
Rp535
sg39
g352
sg41
S'2 - Smaa'
p536
sba(irunmatrix
M3Element
p537
(dp538
g3
F3.0
sg4
S'Lite sannsynlig, Mulig'
p539
sg6
g222
sg8
(lp540
I3
aI3
aI3
aI3
aI3
aI3
aI3
aI3
aI3
aI3
aI3
aI3
aI3
aI3
aI3
aI3
aI3
aI3
aI3
aI3
aI3
aI3
aI3
aI3
aI3
aI3
aI3
aI3
aI3
aI3
aI3
aI3
aI3
aI3
aI3
aI3
aI3
aI3
aI3
aI3
aI3
aI3
aI3
aI3
asg10
S'Possible'
p541
sg12
S'Many'
p542
sg14
g515
sg16
I3
sg17
S'Low'
p543
sg19
S'Liten tilleggsbelastning'
p544
sg21
I44
sg22
S'200'
p545
sg24
S'1400'
p546
sg26
S'Mange bratte heng'
p547
sg28
g29
(g33
S'\x00\x00\x00\x00\x00\x00\x00\x00'
p548
tp549
Rp550
sg39
g352
sg41
S'2 - Smaa'
p551
sba(irunmatrix
M3Element
p552
(dp553
g3
F3.0
sg4
S'Lite sannsynlig, Mulig'
p554
sg6
g222
sg8
(lp555
I3
aI3
asg10
S'Possible'
p556
sg12
S'Many'
p557
sg14
g78
sg16
I0
sg17
S'Nat'
p558
sg19
S'Naturlig utloest'
p559
sg21
I2
sg22
S'200'
p560
sg24
S'1500'
p561
sg26
S'Mange bratte heng'
p562
sg28
g29
(g33
S'\x00\x00\x00\x00\x00\x00\x00\x00'
p563
tp564
Rp565
sg39
g352
sg41
S'2 - Smaa'
p566
sba(irunmatrix
M3Element
p567
(dp568
g3
Nsg4
S'Sannsynlig, Meget sannsynlig'
p569
sg6
S'gray'
p570
sg8
(lp571
sg10
S'Likely'
p572
sg12
S'Many'
p573
sg14
g78
sg16
I0
sg17
S'High'
p574
sg19
S'Stor tilleggsbelastning'
p575
sg21
Nsg22
S'200'
p576
sg24
S'1600'
p577
sg26
S'Mange bratte heng'
p578
sg28
Nsg39
g352
sg41
S'2 - Smaa'
p579
sba(irunmatrix
M3Element
p580
(dp581
g3
Nsg4
S'Sannsynlig, Meget sannsynlig'
p582
sg6
S'white'
p583
sg8
(lp584
sg10
S'Likely'
p585
sg12
S'Many'
p586
sg14
S'#ff0000'
p587
sg16
I4
sg17
S'Low'
p588
sg19
S'Liten tilleggsbelastning'
p589
sg21
Nsg22
S'200'
p590
sg24
S'1700'
p591
sg26
S'Mange bratte heng'
p592
sg28
Nsg39
g352
sg41
S'2 - Smaa'
p593
sba(irunmatrix
M3Element
p594
(dp595
g3
Nsg4
S'Sannsynlig, Meget sannsynlig'
p596
sg6
S'white'
p597
sg8
(lp598
sg10
S'Likely'
p599
sg12
S'Many'
p600
sg14
g587
sg16
I4
sg17
S'Nat'
p601
sg19
S'Naturlig utloest'
p602
sg21
Nsg22
S'200'
p603
sg24
S'1800'
p604
sg26
S'Mange bratte heng'
p605
sg28
Nsg39
g352
sg41
S'2 - Smaa'
p606
sba(irunmatrix
M3Element
p607
(dp608
g3
Nsg4
S'Lite sannsynlig, Mulig'
p609
sg6
S'gray'
p610
sg8
(lp611
sg10
S'Possible'
p612
sg12
S'Most'
p613
sg14
g78
sg16
I0
sg17
S'High'
p614
sg19
S'Stor tilleggsbelastning'
p615
sg21
Nsg22
S'200'
p616
sg24
S'1900'
p617
sg26
S'De fleste bratte heng, Ogsaa i mindre bratt terreng'
p618
sg28
Nsg39
g352
sg41
S'2 - Smaa'
p619
sba(irunmatrix
M3Element
p620
(dp621
g3
Nsg4
S'Lite sannsynlig, Mulig'
p622
sg6
S'gray'
p623
sg8
(lp624
sg10
S'Possible'
p625
sg12
S'Most'
p626
sg14
g78
sg16
I0
sg17
S'Low'
p627
sg19
S'Liten tilleggsbelastning'
p628
sg21
Nsg22
S'200'
p629
sg24
S'2000'
p630
sg26
S'De fleste bratte heng, Ogsaa i mindre bratt terreng'
p631
sg28
Nsg39
g352
sg41
S'2 - Smaa'
p632
sba(irunmatrix
M3Element
p633
(dp634
g3
Nsg4
S'Lite sannsynlig, Mulig'
p635
sg6
S'gray'
p636
sg8
(lp637
sg10
S'Possible'
p638
sg12
S'Most'
p639
sg14
g78
sg16
I0
sg17
S'Nat'
p640
sg19
S'Naturlig utloest'
p641
sg21
Nsg22
S'200'
p642
sg24
S'2100'
p643
sg26
S'De fleste bratte heng, Ogsaa i mindre bratt terreng'
p644
sg28
Nsg39
g352
sg41
S'2 - Smaa'
p645
sba(irunmatrix
M3Element
p646
(dp647
g3
Nsg4
S'Sannsynlig, Meget sannsynlig'
p648
sg6
S'gray'
p649
sg8
(lp650
sg10
S'Likely'
p651
sg12
S'Most'
p652
sg14
g78
sg16
I0
sg17
S'High'
p653
sg19
S'Stor tilleggsbelastning'
p654
sg21
Nsg22
S'200'
p655
sg24
S'2200'
p656
sg26
S'De fleste bratte heng, Ogsaa i mindre bratt terreng'
p657
sg28
Nsg39
g352
sg41
S'2 - Smaa'
p658
sba(irunmatrix
M3Element
p659
(dp660
g3
Nsg4
S'Sannsynlig, Meget sannsynlig'
p661
sg6
S'gray'
p662
sg8
(lp663
sg10
S'Likely'
p664
sg12
S'Most'
p665
sg14
g78
sg16
I0
sg17
S'Low'
p666
sg19
S'Liten tilleggsbelastning'
p667
sg21
Nsg22
S'200'
p668
sg24
S'2300'
p669
sg26
S'De fleste bratte heng, Ogsaa i mindre bratt terreng'
p670
sg28
Nsg39
g352
sg41
S'2 - Smaa'
p671
sba(irunmatrix
M3Element
p672
(dp673
g3
Nsg4
S'Sannsynlig, Meget sannsynlig'
p674
sg6
S'white'
p675
sg8
(lp676
sg10
S'Likely'
p677
sg12
S'Most'
p678
sg14
g78
sg16
I0
sg17
S'Nat'
p679
sg19
S'Naturlig utloest'
p680
sg21
Nsg22
S'200'
p681
sg24
S'2400'
p682
sg26
S'De fleste bratte heng, Ogsaa i mindre bratt terreng'
p683
sg28
Nsg39
g352
sg41
S'2 - Smaa'
p684
sba(irunmatrix
M3Element
p685
(dp686
g3
F1.9
sg4
S'Lite sannsynlig, Mulig'
p687
sg6
g372
sg8
(lp688
I2
aI2
aI2
aI2
aI2
aI2
aI2
aI2
aI1
aI2
asg10
S'Possible'
p689
sg12
S'Isolated'
p690
sg14
g15
sg16
I1
sg17
S'High'
p691
sg19
S'Stor tilleggsbelastning'
p692
sg21
I10
sg22
S'300'
p693
sg24
S'100'
p694
sg26
S'Isolerte faresoner'
p695
sg28
g29
(g33
S'333333\xd3?'
p696
tp697
Rp698
sg39
S'3'
p699
sg41
S'3 - Middels'
p700
sba(irunmatrix
M3Element
p701
(dp702
g3
F2.0
sg4
S'Lite sannsynlig, Mulig'
p703
sg6
g372
sg8
(lp704
I2
asg10
S'Possible'
p705
sg12
S'Isolated'
p706
sg14
g255
sg16
I2
sg17
S'Low'
p707
sg19
S'Liten tilleggsbelastning'
p708
sg21
I1
sg22
S'300'
p709
sg24
S'200'
p710
sg26
S'Isolerte faresoner'
p711
sg28
g29
(g33
S'\x00\x00\x00\x00\x00\x00\x00\x00'
p712
tp713
Rp714
sg39
g699
sg41
S'3 - Middels'
p715
sba(irunmatrix
M3Element
p716
(dp717
g3
F3.0
sg4
S'Lite sannsynlig, Mulig'
p718
sg6
g222
sg8
(lp719
I3
aI3
aI3
aI3
aI3
aI3
asg10
S'Possible'
p720
sg12
S'Isolated'
p721
sg14
g255
sg16
I2
sg17
S'Nat'
p722
sg19
S'Naturlig utloest'
p723
sg21
I6
sg22
S'300'
p724
sg24
S'300'
p725
sg26
S'Isolerte faresoner'
p726
sg28
g29
(g33
S'\x00\x00\x00\x00\x00\x00\x00\x00'
p727
tp728
Rp729
sg39
g699
sg41
S'3 - Middels'
p730
sba(irunmatrix
M3Element
p731
(dp732
g3
Nsg4
S'Sannsynlig, Meget sannsynlig'
p733
sg6
S'gray'
p734
sg8
(lp735
sg10
S'Likely'
p736
sg12
S'Isolated'
p737
sg14
g78
sg16
I0
sg17
S'High'
p738
sg19
S'Stor tilleggsbelastning'
p739
sg21
Nsg22
S'300'
p740
sg24
S'400'
p741
sg26
S'Isolerte faresoner'
p742
sg28
Nsg39
g699
sg41
S'3 - Middels'
p743
sba(irunmatrix
M3Element
p744
(dp745
g3
F2.0
sg4
S'Sannsynlig, Meget sannsynlig'
p746
sg6
g372
sg8
(lp747
I2
aI2
aI2
asg10
S'Likely'
p748
sg12
S'Isolated'
p749
sg14
g78
sg16
I0
sg17
S'Low'
p750
sg19
S'Liten tilleggsbelastning'
p751
sg21
I3
sg22
S'300'
p752
sg24
S'500'
p753
sg26
S'Isolerte faresoner'
p754
sg28
g29
(g33
S'\x00\x00\x00\x00\x00\x00\x00\x00'
p755
tp756
Rp757
sg39
g699
sg41
S'3 - Middels'
p758
sba(irunmatrix
M3Element
p759
(dp760
g3
Nsg4
S'Sannsynlig, Meget sannsynlig'
p761
sg6
S'gray'
p762
sg8
(lp763
sg10
S'Likely'
p764
sg12
S'Isolated'
p765
sg14
g78
sg16
I0
sg17
S'Nat'
p766
sg19
S'Naturlig utloest'
p767
sg21
Nsg22
S'300'
p768
sg24
S'600'
p769
sg26
S'Isolerte faresoner'
p770
sg28
Nsg39
g699
sg41
S'3 - Middels'
p771
sba(irunmatrix
M3Element
p772
(dp773
g3
F2.026315789473684
sg4
S'Lite sannsynlig, Mulig'
p774
sg6
g372
sg8
(lp775
I2
aI2
aI2
aI2
aI2
aI2
aI2
aI2
aI2
aI2
aI2
aI2
aI2
aI2
aI2
aI2
aI2
aI2
aI2
aI2
aI2
aI2
aI2
aI2
aI2
aI2
aI2
aI2
aI2
aI2
aI2
aI2
aI2
aI2
aI2
aI3
aI2
aI2
asg10
S'Possible'
p776
sg12
S'Some'
p777
sg14
g255
sg16
I2
sg17
S'High'
p778
sg19
S'Stor tilleggsbelastning'
p779
sg21
I38
sg22
S'300'
p780
sg24
S'700'
p781
sg26
S'Noen bratte heng'
p782
sg28
g29
(g33
S'"[\xcd\x1dC}\xc4?'
p783
tp784
Rp785
sg39
g699
sg41
S'3 - Middels'
p786
sba(irunmatrix
M3Element
p787
(dp788
g3
F3.0
sg4
S'Lite sannsynlig, Mulig'
p789
sg6
g222
sg8
(lp790
I3
aI3
aI3
aI3
aI3
aI3
aI3
aI3
aI3
aI3
aI3
aI3
aI3
aI3
aI3
aI3
aI3
aI3
aI3
aI3
aI3
aI3
aI3
aI3
aI3
aI3
aI3
aI3
aI3
aI3
aI3
aI3
aI3
aI3
aI3
aI3
aI3
aI3
aI3
aI3
aI3
aI3
aI3
aI3
aI3
aI3
aI3
aI3
aI3
aI3
aI3
aI3
aI3
aI3
aI3
aI3
aI3
aI3
aI3
aI3
asg10
S'Possible'
p791
sg12
S'Some'
p792
sg14
g515
sg16
I3
sg17
S'Low'
p793
sg19
S'Liten tilleggsbelastning'
p794
sg21
I60
sg22
S'300'
p795
sg24
S'800'
p796
sg26
S'Noen bratte heng'
p797
sg28
g29
(g33
S'\x00\x00\x00\x00\x00\x00\x00\x00'
p798
tp799
Rp800
sg39
g699
sg41
S'3 - Middels'
p801
sba(irunmatrix
M3Element
p802
(dp803
g3
F3.0476190476190474
sg4
S'Lite sannsynlig, Mulig'
p804
sg6
g222
sg8
(lp805
I3
aI3
aI3
aI4
aI3
aI3
aI3
aI3
aI3
aI3
aI3
aI3
aI3
aI3
aI3
aI3
aI3
aI3
aI3
aI3
aI3
asg10
S'Possible'
p806
sg12
S'Some'
p807
sg14
g515
sg16
I3
sg17
S'Nat'
p808
sg19
S'Naturlig utloest'
p809
sg21
I21
sg22
S'300'
p810
sg24
S'900'
p811
sg26
S'Noen bratte heng'
p812
sg28
g29
(g33
S'\xa9+\xcfZ<B\xcb?'
p813
tp814
Rp815
sg39
g699
sg41
S'3 - Middels'
p816
sba(irunmatrix
M3Element
p817
(dp818
g3
Nsg4
S'Sannsynlig, Meget sannsynlig'
p819
sg6
S'gray'
p820
sg8
(lp821
sg10
S'Likely'
p822
sg12
S'Some'
p823
sg14
g78
sg16
I0
sg17
S'High'
p824
sg19
S'Stor tilleggsbelastning'
p825
sg21
Nsg22
S'300'
p826
sg24
S'1000'
p827
sg26
S'Noen bratte heng'
p828
sg28
Nsg39
g699
sg41
S'3 - Middels'
p829
sba(irunmatrix
M3Element
p830
(dp831
g3
F3.0
sg4
S'Sannsynlig, Meget sannsynlig'
p832
sg6
g222
sg8
(lp833
I3
aI3
aI3
asg10
S'Likely'
p834
sg12
S'Some'
p835
sg14
g78
sg16
I0
sg17
S'Low'
p836
sg19
S'Liten tilleggsbelastning'
p837
sg21
I3
sg22
S'300'
p838
sg24
S'1100'
p839
sg26
S'Noen bratte heng'
p840
sg28
g29
(g33
S'\x00\x00\x00\x00\x00\x00\x00\x00'
p841
tp842
Rp843
sg39
g699
sg41
S'3 - Middels'
p844
sba(irunmatrix
M3Element
p845
(dp846
g3
F3.0
sg4
S'Sannsynlig, Meget sannsynlig'
p847
sg6
g222
sg8
(lp848
I3
asg10
S'Likely'
p849
sg12
S'Some'
p850
sg14
g587
sg16
I4
sg17
S'Nat'
p851
sg19
S'Naturlig utloest'
p852
sg21
I1
sg22
S'300'
p853
sg24
S'1200'
p854
sg26
S'Noen bratte heng'
p855
sg28
g29
(g33
S'\x00\x00\x00\x00\x00\x00\x00\x00'
p856
tp857
Rp858
sg39
g699
sg41
S'3 - Middels'
p859
sba(irunmatrix
M3Element
p860
(dp861
g3
Nsg4
S'Lite sannsynlig, Mulig'
p862
sg6
S'gray'
p863
sg8
(lp864
sg10
S'Possible'
p865
sg12
S'Many'
p866
sg14
g78
sg16
I0
sg17
S'High'
p867
sg19
S'Stor tilleggsbelastning'
p868
sg21
Nsg22
S'300'
p869
sg24
S'1300'
p870
sg26
S'Mange bratte heng'
p871
sg28
Nsg39
g699
sg41
S'3 - Middels'
p872
sba(irunmatrix
M3Element
p873
(dp874
g3
F3.0
sg4
S'Lite sannsynlig, Mulig'
p875
sg6
g222
sg8
(lp876
I3
aI3
aI3
asg10
S'Possible'
p877
sg12
S'Many'
p878
sg14
g587
sg16
I4
sg17
S'Low'
p879
sg19
S'Liten tilleggsbelastning'
p880
sg21
I3
sg22
S'300'
p881
sg24
S'1400'
p882
sg26
S'Mange bratte heng'
p883
sg28
g29
(g33
S'\x00\x00\x00\x00\x00\x00\x00\x00'
p884
tp885
Rp886
sg39
g699
sg41
S'3 - Middels'
p887
sba(irunmatrix
M3Element
p888
(dp889
g3
F4.0
sg4
S'Lite sannsynlig, Mulig'
p890
sg6
S'#ff0000'
p891
sg8
(lp892
I4
asg10
S'Possible'
p893
sg12
S'Many'
p894
sg14
g78
sg16
I0
sg17
S'Nat'
p895
sg19
S'Naturlig utloest'
p896
sg21
I1
sg22
S'300'
p897
sg24
S'1500'
p898
sg26
S'Mange bratte heng'
p899
sg28
g29
(g33
S'\x00\x00\x00\x00\x00\x00\x00\x00'
p900
tp901
Rp902
sg39
g699
sg41
S'3 - Middels'
p903
sba(irunmatrix
M3Element
p904
(dp905
g3
Nsg4
S'Sannsynlig, Meget sannsynlig'
p906
sg6
S'gray'
p907
sg8
(lp908
sg10
S'Likely'
p909
sg12
S'Many'
p910
sg14
g78
sg16
I0
sg17
S'High'
p911
sg19
S'Stor tilleggsbelastning'
p912
sg21
Nsg22
S'300'
p913
sg24
S'1600'
p914
sg26
S'Mange bratte heng'
p915
sg28
Nsg39
g699
sg41
S'3 - Middels'
p916
sba(irunmatrix
M3Element
p917
(dp918
g3
F3.0
sg4
S'Sannsynlig, Meget sannsynlig'
p919
sg6
g222
sg8
(lp920
I3
asg10
S'Likely'
p921
sg12
S'Many'
p922
sg14
g587
sg16
I4
sg17
S'Low'
p923
sg19
S'Liten tilleggsbelastning'
p924
sg21
I1
sg22
S'300'
p925
sg24
S'1700'
p926
sg26
S'Mange bratte heng'
p927
sg28
g29
(g33
S'\x00\x00\x00\x00\x00\x00\x00\x00'
p928
tp929
Rp930
sg39
g699
sg41
S'3 - Middels'
p931
sba(irunmatrix
M3Element
p932
(dp933
g3
F4.0
sg4
S'Sannsynlig, Meget sannsynlig'
p934
sg6
g891
sg8
(lp935
I4
aI4
aI4
aI4
asg10
S'Likely'
p936
sg12
S'Many'
p937
sg14
g587
sg16
I4
sg17
S'Nat'
p938
sg19
S'Naturlig utloest'
p939
sg21
I4
sg22
S'300'
p940
sg24
S'1800'
p941
sg26
S'Mange bratte heng'
p942
sg28
g29
(g33
S'\x00\x00\x00\x00\x00\x00\x00\x00'
p943
tp944
Rp945
sg39
g699
sg41
S'3 - Middels'
p946
sba(irunmatrix
M3Element
p947
(dp948
g3
Nsg4
S'Lite sannsynlig, Mulig'
p949
sg6
S'gray'
p950
sg8
(lp951
sg10
S'Possible'
p952
sg12
S'Most'
p953
sg14
g78
sg16
I0
sg17
S'High'
p954
sg19
S'Stor tilleggsbelastning'
p955
sg21
Nsg22
S'300'
p956
sg24
S'1900'
p957
sg26
S'De fleste bratte heng, Ogsaa i mindre bratt terreng'
p958
sg28
Nsg39
g699
sg41
S'3 - Middels'
p959
sba(irunmatrix
M3Element
p960
(dp961
g3
Nsg4
S'Lite sannsynlig, Mulig'
p962
sg6
S'gray'
p963
sg8
(lp964
sg10
S'Possible'
p965
sg12
S'Most'
p966
sg14
g78
sg16
I0
sg17
S'Low'
p967
sg19
S'Liten tilleggsbelastning'
p968
sg21
Nsg22
S'300'
p969
sg24
S'2000'
p970
sg26
S'De fleste bratte heng, Ogsaa i mindre bratt terreng'
p971
sg28
Nsg39
g699
sg41
S'3 - Middels'
p972
sba(irunmatrix
M3Element
p973
(dp974
g3
Nsg4
S'Lite sannsynlig, Mulig'
p975
sg6
S'gray'
p976
sg8
(lp977
sg10
S'Possible'
p978
sg12
S'Most'
p979
sg14
g78
sg16
I0
sg17
S'Nat'
p980
sg19
S'Naturlig utloest'
p981
sg21
Nsg22
S'300'
p982
sg24
S'2100'
p983
sg26
S'De fleste bratte heng, Ogsaa i mindre bratt terreng'
p984
sg28
Nsg39
g699
sg41
S'3 - Middels'
p985
sba(irunmatrix
M3Element
p986
(dp987
g3
Nsg4
S'Sannsynlig, Meget sannsynlig'
p988
sg6
S'gray'
p989
sg8
(lp990
sg10
S'Likely'
p991
sg12
S'Most'
p992
sg14
g78
sg16
I0
sg17
S'High'
p993
sg19
S'Stor tilleggsbelastning'
p994
sg21
Nsg22
S'300'
p995
sg24
S'2200'
p996
sg26
S'De fleste bratte heng, Ogsaa i mindre bratt terreng'
p997
sg28
Nsg39
g699
sg41
S'3 - Middels'
p998
sba(irunmatrix
M3Element
p999
(dp1000
g3
Nsg4
S'Sannsynlig, Meget sannsynlig'
p1001
sg6
S'gray'
p1002
sg8
(lp1003
sg10
S'Likely'
p1004
sg12
S'Most'
p1005
sg14
g78
sg16
I0
sg17
S'Low'
p1006
sg19
S'Liten tilleggsbelastning'
p1007
sg21
Nsg22
S'300'
p1008
sg24
S'2300'
p1009
sg26
S'De fleste bratte heng, Ogsaa i mindre bratt terreng'
p1010
sg28
Nsg39
g699
sg41
S'3 - Middels'
p1011
sba(irunmatrix
M3Element
p1012
(dp1013
g3
Nsg4
S'Sannsynlig, Meget sannsynlig'
p1014
sg6
S'white'
p1015
sg8
(lp1016
sg10
S'Likely'
p1017
sg12
S'Most'
p1018
sg14
g78
sg16
I0
sg17
S'Nat'
p1019
sg19
S'Naturlig utloest'
p1020
sg21
Nsg22
S'300'
p1021
sg24
S'2400'
p1022
sg26
S'De fleste bratte heng, Ogsaa i mindre bratt terreng'
p1023
sg28
Nsg39
g699
sg41
S'3 - Middels'
p1024
sba(irunmatrix
M3Element
p1025
(dp1026
g3
Nsg4
S'Lite sannsynlig, Mulig'
p1027
sg6
S'white'
p1028
sg8
(lp1029
sg10
S'Possible'
p1030
sg12
S'Isolated'
p1031
sg14
g255
sg16
I2
sg17
S'High'
p1032
sg19
S'Stor tilleggsbelastning'
p1033
sg21
Nsg22
S'400'
p1034
sg24
S'100'
p1035
sg26
S'Isolerte faresoner'
p1036
sg28
Nsg39
S'4'
p1037
sg41
S'4 - Store'
p1038
sba(irunmatrix
M3Element
p1039
(dp1040
g3
Nsg4
S'Lite sannsynlig, Mulig'
p1041
sg6
S'white'
p1042
sg8
(lp1043
sg10
S'Possible'
p1044
sg12
S'Isolated'
p1045
sg14
g515
sg16
I3
sg17
S'Low'
p1046
sg19
S'Liten tilleggsbelastning'
p1047
sg21
Nsg22
S'400'
p1048
sg24
S'200'
p1049
sg26
S'Isolerte faresoner'
p1050
sg28
Nsg39
g1037
sg41
S'4 - Store'
p1051
sba(irunmatrix
M3Element
p1052
(dp1053
g3
Nsg4
S'Lite sannsynlig, Mulig'
p1054
sg6
S'white'
p1055
sg8
(lp1056
sg10
S'Possible'
p1057
sg12
S'Isolated'
p1058
sg14
g515
sg16
I3
sg17
S'Nat'
p1059
sg19
S'Naturlig utloest'
p1060
sg21
Nsg22
S'400'
p1061
sg24
S'300'
p1062
sg26
S'Isolerte faresoner'
p1063
sg28
Nsg39
g1037
sg41
S'4 - Store'
p1064
sba(irunmatrix
M3Element
p1065
(dp1066
g3
Nsg4
S'Sannsynlig, Meget sannsynlig'
p1067
sg6
S'gray'
p1068
sg8
(lp1069
sg10
S'Likely'
p1070
sg12
S'Isolated'
p1071
sg14
g78
sg16
I0
sg17
S'High'
p1072
sg19
S'Stor tilleggsbelastning'
p1073
sg21
Nsg22
S'400'
p1074
sg24
S'400'
p1075
sg26
S'Isolerte faresoner'
p1076
sg28
Nsg39
g1037
sg41
S'4 - Store'
p1077
sba(irunmatrix
M3Element
p1078
(dp1079
g3
Nsg4
S'Sannsynlig, Meget sannsynlig'
p1080
sg6
S'gray'
p1081
sg8
(lp1082
sg10
S'Likely'
p1083
sg12
S'Isolated'
p1084
sg14
g78
sg16
I0
sg17
S'Low'
p1085
sg19
S'Liten tilleggsbelastning'
p1086
sg21
Nsg22
S'400'
p1087
sg24
S'500'
p1088
sg26
S'Isolerte faresoner'
p1089
sg28
Nsg39
g1037
sg41
S'4 - Store'
p1090
sba(irunmatrix
M3Element
p1091
(dp1092
g3
Nsg4
S'Sannsynlig, Meget sannsynlig'
p1093
sg6
S'gray'
p1094
sg8
(lp1095
sg10
S'Likely'
p1096
sg12
S'Isolated'
p1097
sg14
g78
sg16
I0
sg17
S'Nat'
p1098
sg19
S'Naturlig utloest'
p1099
sg21
Nsg22
S'400'
p1100
sg24
S'600'
p1101
sg26
S'Isolerte faresoner'
p1102
sg28
Nsg39
g1037
sg41
S'4 - Store'
p1103
sba(irunmatrix
M3Element
p1104
(dp1105
g3
Nsg4
S'Lite sannsynlig, Mulig'
p1106
sg6
S'white'
p1107
sg8
(lp1108
sg10
S'Possible'
p1109
sg12
S'Some'
p1110
sg14
g515
sg16
I3
sg17
S'High'
p1111
sg19
S'Stor tilleggsbelastning'
p1112
sg21
Nsg22
S'400'
p1113
sg24
S'700'
p1114
sg26
S'Noen bratte heng'
p1115
sg28
Nsg39
g1037
sg41
S'4 - Store'
p1116
sba(irunmatrix
M3Element
p1117
(dp1118
g3
Nsg4
S'Lite sannsynlig, Mulig'
p1119
sg6
S'white'
p1120
sg8
(lp1121
sg10
S'Possible'
p1122
sg12
S'Some'
p1123
sg14
g587
sg16
I4
sg17
S'Low'
p1124
sg19
S'Liten tilleggsbelastning'
p1125
sg21
Nsg22
S'400'
p1126
sg24
S'800'
p1127
sg26
S'Noen bratte heng'
p1128
sg28
Nsg39
g1037
sg41
S'4 - Store'
p1129
sba(irunmatrix
M3Element
p1130
(dp1131
g3
Nsg4
S'Lite sannsynlig, Mulig'
p1132
sg6
S'white'
p1133
sg8
(lp1134
sg10
S'Possible'
p1135
sg12
S'Some'
p1136
sg14
g587
sg16
I4
sg17
S'Nat'
p1137
sg19
S'Naturlig utloest'
p1138
sg21
Nsg22
S'400'
p1139
sg24
S'900'
p1140
sg26
S'Noen bratte heng'
p1141
sg28
Nsg39
g1037
sg41
S'4 - Store'
p1142
sba(irunmatrix
M3Element
p1143
(dp1144
g3
Nsg4
S'Sannsynlig, Meget sannsynlig'
p1145
sg6
S'gray'
p1146
sg8
(lp1147
sg10
S'Likely'
p1148
sg12
S'Some'
p1149
sg14
g78
sg16
I0
sg17
S'High'
p1150
sg19
S'Stor tilleggsbelastning'
p1151
sg21
Nsg22
S'400'
p1152
sg24
S'1000'
p1153
sg26
S'Noen bratte heng'
p1154
sg28
Nsg39
g1037
sg41
S'4 - Store'
p1155
sba(irunmatrix
M3Element
p1156
(dp1157
g3
Nsg4
S'Sannsynlig, Meget sannsynlig'
p1158
sg6
S'gray'
p1159
sg8
(lp1160
sg10
S'Likely'
p1161
sg12
S'Some'
p1162
sg14
g78
sg16
I0
sg17
S'Low'
p1163
sg19
S'Liten tilleggsbelastning'
p1164
sg21
Nsg22
S'400'
p1165
sg24
S'1100'
p1166
sg26
S'Noen bratte heng'
p1167
sg28
Nsg39
g1037
sg41
S'4 - Store'
p1168
sba(irunmatrix
M3Element
p1169
(dp1170
g3
Nsg4
S'Sannsynlig, Meget sannsynlig'
p1171
sg6
S'white'
p1172
sg8
(lp1173
sg10
S'Likely'
p1174
sg12
S'Some'
p1175
sg14
g587
sg16
I4
sg17
S'Nat'
p1176
sg19
S'Naturlig utloest'
p1177
sg21
Nsg22
S'400'
p1178
sg24
S'1200'
p1179
sg26
S'Noen bratte heng'
p1180
sg28
Nsg39
g1037
sg41
S'4 - Store'
p1181
sba(irunmatrix
M3Element
p1182
(dp1183
g3
Nsg4
S'Lite sannsynlig, Mulig'
p1184
sg6
S'gray'
p1185
sg8
(lp1186
sg10
S'Possible'
p1187
sg12
S'Many'
p1188
sg14
g78
sg16
I0
sg17
S'High'
p1189
sg19
S'Stor tilleggsbelastning'
p1190
sg21
Nsg22
S'400'
p1191
sg24
S'1300'
p1192
sg26
S'Mange bratte heng'
p1193
sg28
Nsg39
g1037
sg41
S'4 - Store'
p1194
sba(irunmatrix
M3Element
p1195
(dp1196
g3
Nsg4
S'Lite sannsynlig, Mulig'
p1197
sg6
S'white'
p1198
sg8
(lp1199
sg10
S'Possible'
p1200
sg12
S'Many'
p1201
sg14
g78
sg16
I0
sg17
S'Low'
p1202
sg19
S'Liten tilleggsbelastning'
p1203
sg21
Nsg22
S'400'
p1204
sg24
S'1400'
p1205
sg26
S'Mange bratte heng'
p1206
sg28
Nsg39
g1037
sg41
S'4 - Store'
p1207
sba(irunmatrix
M3Element
p1208
(dp1209
g3
Nsg4
S'Lite sannsynlig, Mulig'
p1210
sg6
S'gray'
p1211
sg8
(lp1212
sg10
S'Possible'
p1213
sg12
S'Many'
p1214
sg14
g78
sg16
I0
sg17
S'Nat'
p1215
sg19
S'Naturlig utloest'
p1216
sg21
Nsg22
S'400'
p1217
sg24
S'1500'
p1218
sg26
S'Mange bratte heng'
p1219
sg28
Nsg39
g1037
sg41
S'4 - Store'
p1220
sba(irunmatrix
M3Element
p1221
(dp1222
g3
Nsg4
S'Sannsynlig, Meget sannsynlig'
p1223
sg6
S'gray'
p1224
sg8
(lp1225
sg10
S'Likely'
p1226
sg12
S'Many'
p1227
sg14
g78
sg16
I0
sg17
S'High'
p1228
sg19
S'Stor tilleggsbelastning'
p1229
sg21
Nsg22
S'400'
p1230
sg24
S'1600'
p1231
sg26
S'Mange bratte heng'
p1232
sg28
Nsg39
g1037
sg41
S'4 - Store'
p1233
sba(irunmatrix
M3Element
p1234
(dp1235
g3
Nsg4
S'Sannsynlig, Meget sannsynlig'
p1236
sg6
S'white'
p1237
sg8
(lp1238
sg10
S'Likely'
p1239
sg12
S'Many'
p1240
sg14
g78
sg16
I0
sg17
S'Low'
p1241
sg19
S'Liten tilleggsbelastning'
p1242
sg21
Nsg22
S'400'
p1243
sg24
S'1700'
p1244
sg26
S'Mange bratte heng'
p1245
sg28
Nsg39
g1037
sg41
S'4 - Store'
p1246
sba(irunmatrix
M3Element
p1247
(dp1248
g3
Nsg4
S'Sannsynlig, Meget sannsynlig'
p1249
sg6
S'white'
p1250
sg8
(lp1251
sg10
S'Likely'
p1252
sg12
S'Many'
p1253
sg14
S'k'
p1254
sg16
I5
sg17
S'Nat'
p1255
sg19
S'Naturlig utloest'
p1256
sg21
Nsg22
S'400'
p1257
sg24
S'1800'
p1258
sg26
S'Mange bratte heng'
p1259
sg28
Nsg39
g1037
sg41
S'4 - Store'
p1260
sba(irunmatrix
M3Element
p1261
(dp1262
g3
Nsg4
S'Lite sannsynlig, Mulig'
p1263
sg6
S'gray'
p1264
sg8
(lp1265
sg10
S'Possible'
p1266
sg12
S'Most'
p1267
sg14
g78
sg16
I0
sg17
S'High'
p1268
sg19
S'Stor tilleggsbelastning'
p1269
sg21
Nsg22
S'400'
p1270
sg24
S'1900'
p1271
sg26
S'De fleste bratte heng, Ogsaa i mindre bratt terreng'
p1272
sg28
Nsg39
g1037
sg41
S'4 - Store'
p1273
sba(irunmatrix
M3Element
p1274
(dp1275
g3
Nsg4
S'Lite sannsynlig, Mulig'
p1276
sg6
S'gray'
p1277
sg8
(lp1278
sg10
S'Possible'
p1279
sg12
S'Most'
p1280
sg14
g78
sg16
I0
sg17
S'Low'
p1281
sg19
S'Liten tilleggsbelastning'
p1282
sg21
Nsg22
S'400'
p1283
sg24
S'2000'
p1284
sg26
S'De fleste bratte heng, Ogsaa i mindre bratt terreng'
p1285
sg28
Nsg39
g1037
sg41
S'4 - Store'
p1286
sba(irunmatrix
M3Element
p1287
(dp1288
g3
Nsg4
S'Lite sannsynlig, Mulig'
p1289
sg6
S'gray'
p1290
sg8
(lp1291
sg10
S'Possible'
p1292
sg12
S'Most'
p1293
sg14
g78
sg16
I0
sg17
S'Nat'
p1294
sg19
S'Naturlig utloest'
p1295
sg21
Nsg22
S'400'
p1296
sg24
S'2100'
p1297
sg26
S'De fleste bratte heng, Ogsaa i mindre bratt terreng'
p1298
sg28
Nsg39
g1037
sg41
S'4 - Store'
p1299
sba(irunmatrix
M3Element
p1300
(dp1301
g3
Nsg4
S'Sannsynlig, Meget sannsynlig'
p1302
sg6
S'gray'
p1303
sg8
(lp1304
sg10
S'Likely'
p1305
sg12
S'Most'
p1306
sg14
g78
sg16
I0
sg17
S'High'
p1307
sg19
S'Stor tilleggsbelastning'
p1308
sg21
Nsg22
S'400'
p1309
sg24
S'2200'
p1310
sg26
S'De fleste bratte heng, Ogsaa i mindre bratt terreng'
p1311
sg28
Nsg39
g1037
sg41
S'4 - Store'
p1312
sba(irunmatrix
M3Element
p1313
(dp1314
g3
Nsg4
S'Sannsynlig, Meget sannsynlig'
p1315
sg6
S'gray'
p1316
sg8
(lp1317
sg10
S'Likely'
p1318
sg12
S'Most'
p1319
sg14
g78
sg16
I0
sg17
S'Low'
p1320
sg19
S'Liten tilleggsbelastning'
p1321
sg21
Nsg22
S'400'
p1322
sg24
S'2300'
p1323
sg26
S'De fleste bratte heng, Ogsaa i mindre bratt terreng'
p1324
sg28
Nsg39
g1037
sg41
S'4 - Store'
p1325
sba(irunmatrix
M3Element
p1326
(dp1327
g3
Nsg4
S'Sannsynlig, Meget sannsynlig'
p1328
sg6
S'white'
p1329
sg8
(lp1330
sg10
S'Likely'
p1331
sg12
S'Most'
p1332
sg14
g78
sg16
I0
sg17
S'Nat'
p1333
sg19
S'Naturlig utloest'
p1334
sg21
Nsg22
S'400'
p1335
sg24
S'2400'
p1336
sg26
S'De fleste bratte heng, Ogsaa i mindre bratt terreng'
p1337
sg28
Nsg39
g1037
sg41
S'4 - Store'
p1338
sba(irunmatrix
M3Element
p1339
(dp1340
g3
Nsg4
S'Lite sannsynlig, Mulig'
p1341
sg6
S'white'
p1342
sg8
(lp1343
sg10
S'Possible'
p1344
sg12
S'Isolated'
p1345
sg14
g78
sg16
I0
sg17
S'High'
p1346
sg19
S'Stor tilleggsbelastning'
p1347
sg21
Nsg22
S'500'
p1348
sg24
S'100'
p1349
sg26
S'Isolerte faresoner'
p1350
sg28
Nsg39
S'5'
p1351
sg41
S'5 - Svaert store'
p1352
sba(irunmatrix
M3Element
p1353
(dp1354
g3
Nsg4
S'Lite sannsynlig, Mulig'
p1355
sg6
S'white'
p1356
sg8
(lp1357
sg10
S'Possible'
p1358
sg12
S'Isolated'
p1359
sg14
g78
sg16
I0
sg17
S'Low'
p1360
sg19
S'Liten tilleggsbelastning'
p1361
sg21
Nsg22
S'500'
p1362
sg24
S'200'
p1363
sg26
S'Isolerte faresoner'
p1364
sg28
Nsg39
g1351
sg41
S'5 - Svaert store'
p1365
sba(irunmatrix
M3Element
p1366
(dp1367
g3
Nsg4
S'Lite sannsynlig, Mulig'
p1368
sg6
S'white'
p1369
sg8
(lp1370
sg10
S'Possible'
p1371
sg12
S'Isolated'
p1372
sg14
g78
sg16
I0
sg17
S'Nat'
p1373
sg19
S'Naturlig utloest'
p1374
sg21
Nsg22
S'500'
p1375
sg24
S'300'
p1376
sg26
S'Isolerte faresoner'
p1377
sg28
Nsg39
g1351
sg41
S'5 - Svaert store'
p1378
sba(irunmatrix
M3Element
p1379
(dp1380
g3
Nsg4
S'Sannsynlig, Meget sannsynlig'
p1381
sg6
S'gray'
p1382
sg8
(lp1383
sg10
S'Likely'
p1384
sg12
S'Isolated'
p1385
sg14
g78
sg16
I0
sg17
S'High'
p1386
sg19
S'Stor tilleggsbelastning'
p1387
sg21
Nsg22
S'500'
p1388
sg24
S'400'
p1389
sg26
S'Isolerte faresoner'
p1390
sg28
Nsg39
g1351
sg41
S'5 - Svaert store'
p1391
sba(irunmatrix
M3Element
p1392
(dp1393
g3
Nsg4
S'Sannsynlig, Meget sannsynlig'
p1394
sg6
S'gray'
p1395
sg8
(lp1396
sg10
S'Likely'
p1397
sg12
S'Isolated'
p1398
sg14
g78
sg16
I0
sg17
S'Low'
p1399
sg19
S'Liten tilleggsbelastning'
p1400
sg21
Nsg22
S'500'
p1401
sg24
S'500'
p1402
sg26
S'Isolerte faresoner'
p1403
sg28
Nsg39
g1351
sg41
S'5 - Svaert store'
p1404
sba(irunmatrix
M3Element
p1405
(dp1406
g3
Nsg4
S'Sannsynlig, Meget sannsynlig'
p1407
sg6
S'gray'
p1408
sg8
(lp1409
sg10
S'Likely'
p1410
sg12
S'Isolated'
p1411
sg14
g78
sg16
I0
sg17
S'Nat'
p1412
sg19
S'Naturlig utloest'
p1413
sg21
Nsg22
S'500'
p1414
sg24
S'600'
p1415
sg26
S'Isolerte faresoner'
p1416
sg28
Nsg39
g1351
sg41
S'5 - Svaert store'
p1417
sba(irunmatrix
M3Element
p1418
(dp1419
g3
Nsg4
S'Lite sannsynlig, Mulig'
p1420
sg6
S'white'
p1421
sg8
(lp1422
sg10
S'Possible'
p1423
sg12
S'Some'
p1424
sg14
g78
sg16
I0
sg17
S'High'
p1425
sg19
S'Stor tilleggsbelastning'
p1426
sg21
Nsg22
S'500'
p1427
sg24
S'700'
p1428
sg26
S'Noen bratte heng'
p1429
sg28
Nsg39
g1351
sg41
S'5 - Svaert store'
p1430
sba(irunmatrix
M3Element
p1431
(dp1432
g3
Nsg4
S'Lite sannsynlig, Mulig'
p1433
sg6
S'white'
p1434
sg8
(lp1435
sg10
S'Possible'
p1436
sg12
S'Some'
p1437
sg14
g78
sg16
I0
sg17
S'Low'
p1438
sg19
S'Liten tilleggsbelastning'
p1439
sg21
Nsg22
S'500'
p1440
sg24
S'800'
p1441
sg26
S'Noen bratte heng'
p1442
sg28
Nsg39
g1351
sg41
S'5 - Svaert store'
p1443
sba(irunmatrix
M3Element
p1444
(dp1445
g3
Nsg4
S'Lite sannsynlig, Mulig'
p1446
sg6
S'white'
p1447
sg8
(lp1448
sg10
S'Possible'
p1449
sg12
S'Some'
p1450
sg14
g78
sg16
I0
sg17
S'Nat'
p1451
sg19
S'Naturlig utloest'
p1452
sg21
Nsg22
S'500'
p1453
sg24
S'900'
p1454
sg26
S'Noen bratte heng'
p1455
sg28
Nsg39
g1351
sg41
S'5 - Svaert store'
p1456
sba(irunmatrix
M3Element
p1457
(dp1458
g3
Nsg4
S'Sannsynlig, Meget sannsynlig'
p1459
sg6
S'gray'
p1460
sg8
(lp1461
sg10
S'Likely'
p1462
sg12
S'Some'
p1463
sg14
g78
sg16
I0
sg17
S'High'
p1464
sg19
S'Stor tilleggsbelastning'
p1465
sg21
Nsg22
S'500'
p1466
sg24
S'1000'
p1467
sg26
S'Noen bratte heng'
p1468
sg28
Nsg39
g1351
sg41
S'5 - Svaert store'
p1469
sba(irunmatrix
M3Element
p1470
(dp1471
g3
Nsg4
S'Sannsynlig, Meget sannsynlig'
p1472
sg6
S'gray'
p1473
sg8
(lp1474
sg10
S'Likely'
p1475
sg12
S'Some'
p1476
sg14
g78
sg16
I0
sg17
S'Low'
p1477
sg19
S'Liten tilleggsbelastning'
p1478
sg21
Nsg22
S'500'
p1479
sg24
S'1100'
p1480
sg26
S'Noen bratte heng'
p1481
sg28
Nsg39
g1351
sg41
S'5 - Svaert store'
p1482
sba(irunmatrix
M3Element
p1483
(dp1484
g3
Nsg4
S'Sannsynlig, Meget sannsynlig'
p1485
sg6
S'white'
p1486
sg8
(lp1487
sg10
S'Likely'
p1488
sg12
S'Some'
p1489
sg14
g78
sg16
I0
sg17
S'Nat'
p1490
sg19
S'Naturlig utloest'
p1491
sg21
Nsg22
S'500'
p1492
sg24
S'1200'
p1493
sg26
S'Noen bratte heng'
p1494
sg28
Nsg39
g1351
sg41
S'5 - Svaert store'
p1495
sba(irunmatrix
M3Element
p1496
(dp1497
g3
Nsg4
S'Lite sannsynlig, Mulig'
p1498
sg6
S'gray'
p1499
sg8
(lp1500
sg10
S'Possible'
p1501
sg12
S'Many'
p1502
sg14
g78
sg16
I0
sg17
S'High'
p1503
sg19
S'Stor tilleggsbelastning'
p1504
sg21
Nsg22
S'500'
p1505
sg24
S'1300'
p1506
sg26
S'Mange bratte heng'
p1507
sg28
Nsg39
g1351
sg41
S'5 - Svaert store'
p1508
sba(irunmatrix
M3Element
p1509
(dp1510
g3
Nsg4
S'Lite sannsynlig, Mulig'
p1511
sg6
S'white'
p1512
sg8
(lp1513
sg10
S'Possible'
p1514
sg12
S'Many'
p1515
sg14
g78
sg16
I0
sg17
S'Low'
p1516
sg19
S'Liten tilleggsbelastning'
p1517
sg21
Nsg22
S'500'
p1518
sg24
S'1400'
p1519
sg26
S'Mange bratte heng'
p1520
sg28
Nsg39
g1351
sg41
S'5 - Svaert store'
p1521
sba(irunmatrix
M3Element
p1522
(dp1523
g3
Nsg4
S'Lite sannsynlig, Mulig'
p1524
sg6
S'gray'
p1525
sg8
(lp1526
sg10
S'Possible'
p1527
sg12
S'Many'
p1528
sg14
g78
sg16
I0
sg17
S'Nat'
p1529
sg19
S'Naturlig utloest'
p1530
sg21
Nsg22
S'500'
p1531
sg24
S'1500'
p1532
sg26
S'Mange bratte heng'
p1533
sg28
Nsg39
g1351
sg41
S'5 - Svaert store'
p1534
sba(irunmatrix
M3Element
p1535
(dp1536
g3
Nsg4
S'Sannsynlig, Meget sannsynlig'
p1537
sg6
S'gray'
p1538
sg8
(lp1539
sg10
S'Likely'
p1540
sg12
S'Many'
p1541
sg14
g78
sg16
I0
sg17
S'High'
p1542
sg19
S'Stor tilleggsbelastning'
p1543
sg21
Nsg22
S'500'
p1544
sg24
S'1600'
p1545
sg26
S'Mange bratte heng'
p1546
sg28
Nsg39
g1351
sg41
S'5 - Svaert store'
p1547
sba(irunmatrix
M3Element
p1548
(dp1549
g3
Nsg4
S'Sannsynlig, Meget sannsynlig'
p1550
sg6
S'white'
p1551
sg8
(lp1552
sg10
S'Likely'
p1553
sg12
S'Many'
p1554
sg14
g78
sg16
I0
sg17
S'Low'
p1555
sg19
S'Liten tilleggsbelastning'
p1556
sg21
Nsg22
S'500'
p1557
sg24
S'1700'
p1558
sg26
S'Mange bratte heng'
p1559
sg28
Nsg39
g1351
sg41
S'5 - Svaert store'
p1560
sba(irunmatrix
M3Element
p1561
(dp1562
g3
Nsg4
S'Sannsynlig, Meget sannsynlig'
p1563
sg6
S'white'
p1564
sg8
(lp1565
sg10
S'Likely'
p1566
sg12
S'Many'
p1567
sg14
g1254
sg16
I5
sg17
S'Nat'
p1568
sg19
S'Naturlig utloest'
p1569
sg21
Nsg22
S'500'
p1570
sg24
S'1800'
p1571
sg26
S'Mange bratte heng'
p1572
sg28
Nsg39
g1351
sg41
S'5 - Svaert store'
p1573
sba(irunmatrix
M3Element
p1574
(dp1575
g3
Nsg4
S'Lite sannsynlig, Mulig'
p1576
sg6
S'gray'
p1577
sg8
(lp1578
sg10
S'Possible'
p1579
sg12
S'Most'
p1580
sg14
g78
sg16
I0
sg17
S'High'
p1581
sg19
S'Stor tilleggsbelastning'
p1582
sg21
Nsg22
S'500'
p1583
sg24
S'1900'
p1584
sg26
S'De fleste bratte heng, Ogsaa i mindre bratt terreng'
p1585
sg28
Nsg39
g1351
sg41
S'5 - Svaert store'
p1586
sba(irunmatrix
M3Element
p1587
(dp1588
g3
Nsg4
S'Lite sannsynlig, Mulig'
p1589
sg6
S'gray'
p1590
sg8
(lp1591
sg10
S'Possible'
p1592
sg12
S'Most'
p1593
sg14
g78
sg16
I0
sg17
S'Low'
p1594
sg19
S'Liten tilleggsbelastning'
p1595
sg21
Nsg22
S'500'
p1596
sg24
S'2000'
p1597
sg26
S'De fleste bratte heng, Ogsaa i mindre bratt terreng'
p1598
sg28
Nsg39
g1351
sg41
S'5 - Svaert store'
p1599
sba(irunmatrix
M3Element
p1600
(dp1601
g3
Nsg4
S'Lite sannsynlig, Mulig'
p1602
sg6
S'gray'
p1603
sg8
(lp1604
sg10
S'Possible'
p1605
sg12
S'Most'
p1606
sg14
g78
sg16
I0
sg17
S'Nat'
p1607
sg19
S'Naturlig utloest'
p1608
sg21
Nsg22
S'500'
p1609
sg24
S'2100'
p1610
sg26
S'De fleste bratte heng, Ogsaa i mindre bratt terreng'
p1611
sg28
Nsg39
g1351
sg41
S'5 - Svaert store'
p1612
sba(irunmatrix
M3Element
p1613
(dp1614
g3
Nsg4
S'Sannsynlig, Meget sannsynlig'
p1615
sg6
S'gray'
p1616
sg8
(lp1617
sg10
S'Likely'
p1618
sg12
S'Most'
p1619
sg14
g78
sg16
I0
sg17
S'High'
p1620
sg19
S'Stor tilleggsbelastning'
p1621
sg21
Nsg22
S'500'
p1622
sg24
S'2200'
p1623
sg26
S'De fleste bratte heng, Ogsaa i mindre bratt terreng'
p1624
sg28
Nsg39
g1351
sg41
S'5 - Svaert store'
p1625
sba(irunmatrix
M3Element
p1626
(dp1627
g3
Nsg4
S'Sannsynlig, Meget sannsynlig'
p1628
sg6
S'gray'
p1629
sg8
(lp1630
sg10
S'Likely'
p1631
sg12
S'Most'
p1632
sg14
g78
sg16
I0
sg17
S'Low'
p1633
sg19
S'Liten tilleggsbelastning'
p1634
sg21
Nsg22
S'500'
p1635
sg24
S'2300'
p1636
sg26
S'De fleste bratte heng, Ogsaa i mindre bratt terreng'
p1637
sg28
Nsg39
g1351
sg41
S'5 - Svaert store'
p1638
sba(irunmatrix
M3Element
p1639
(dp1640
g3
Nsg4
S'Sannsynlig, Meget sannsynlig'
p1641
sg6
S'white'
p1642
sg8
(lp1643
sg10
S'Likely'
p1644
sg12
S'Most'
p1645
sg14
g78
sg16
I0
sg17
S'Nat'
p1646
sg19
S'Naturlig utloest'
p1647
sg21
Nsg22
S'500'
p1648
sg24
S'2400'
p1649
sg26
S'De fleste bratte heng, Ogsaa i mindre bratt terreng'
p1650
sg28
Nsg39
g1351
sg41
S'5 - Svaert store'
p1651
sba.