(lp0
(irunmatrix
M3Element
p1
(dp2
S'danger_level_average'
p3
F2.0
sS'probability'
p4
S'Lite sannsynlig, Mulig'
p5
sS'colour'
p6
S'#ffff00'
p7
sS'danger_level_list'
p8
(lp9
I2
asS'label_probalility'
p10
S'Possible'
p11
sS'label_distribution'
p12
S'Isolated'
p13
sS'recomended_colour'
p14
S'#ccff66'
p15
sS'recomended_danger_level'
p16
I1
sS'label_trigger'
p17
S'High'
p18
sS'trigger'
p19
S'Stor tilleggsbelastning'
p20
sS'occurrences'
p21
I1
sS'y'
p22
S'100'
p23
sS'x'
p24
S'100'
p25
sS'distribution'
p26
S'Isolerte faresoner'
p27
sS'danger_level_standard_dev'
p28
cnumpy.core.multiarray
scalar
p29
(cnumpy
dtype
p30
(S'f8'
p31
I0
I1
tp32
Rp33
(I3
S'<'
p34
NNNI-1
I-1
I0
tp35
bS'\x00\x00\x00\x00\x00\x00\x00\x00'
p36
tp37
Rp38
sS'label_size'
p39
S'1'
p40
sS'avalanche_size'
p41
S'1 - Harmloest'
p42
sba(irunmatrix
M3Element
p43
(dp44
g3
Nsg4
S'Lite sannsynlig, Mulig'
p45
sg6
S'white'
p46
sg8
(lp47
sg10
S'Possible'
p48
sg12
S'Isolated'
p49
sg14
g15
sg16
I1
sg17
S'Low'
p50
sg19
S'Liten tilleggsbelastning'
p51
sg21
Nsg22
S'100'
p52
sg24
S'200'
p53
sg26
S'Isolerte faresoner'
p54
sg28
Nsg39
g40
sg41
S'1 - Harmloest'
p55
sba(irunmatrix
M3Element
p56
(dp57
g3
Nsg4
S'Lite sannsynlig, Mulig'
p58
sg6
S'white'
p59
sg8
(lp60
sg10
S'Possible'
p61
sg12
S'Isolated'
p62
sg14
g15
sg16
I1
sg17
S'Nat'
p63
sg19
S'Naturlig utloest'
p64
sg21
Nsg22
S'100'
p65
sg24
S'300'
p66
sg26
S'Isolerte faresoner'
p67
sg28
Nsg39
g40
sg41
S'1 - Harmloest'
p68
sba(irunmatrix
M3Element
p69
(dp70
g3
Nsg4
S'Sannsynlig, Meget sannsynlig'
p71
sg6
S'gray'
p72
sg8
(lp73
sg10
S'Likely'
p74
sg12
S'Isolated'
p75
sg14
S'gray'
p76
sg16
I0
sg17
S'High'
p77
sg19
S'Stor tilleggsbelastning'
p78
sg21
Nsg22
S'100'
p79
sg24
S'400'
p80
sg26
S'Isolerte faresoner'
p81
sg28
Nsg39
g40
sg41
S'1 - Harmloest'
p82
sba(irunmatrix
M3Element
p83
(dp84
g3
Nsg4
S'Sannsynlig, Meget sannsynlig'
p85
sg6
S'gray'
p86
sg8
(lp87
sg10
S'Likely'
p88
sg12
S'Isolated'
p89
sg14
g76
sg16
I0
sg17
S'Low'
p90
sg19
S'Liten tilleggsbelastning'
p91
sg21
Nsg22
S'100'
p92
sg24
S'500'
p93
sg26
S'Isolerte faresoner'
p94
sg28
Nsg39
g40
sg41
S'1 - Harmloest'
p95
sba(irunmatrix
M3Element
p96
(dp97
g3
Nsg4
S'Sannsynlig, Meget sannsynlig'
p98
sg6
S'gray'
p99
sg8
(lp100
sg10
S'Likely'
p101
sg12
S'Isolated'
p102
sg14
g76
sg16
I0
sg17
S'Nat'
p103
sg19
S'Naturlig utloest'
p104
sg21
Nsg22
S'100'
p105
sg24
S'600'
p106
sg26
S'Isolerte faresoner'
p107
sg28
Nsg39
g40
sg41
S'1 - Harmloest'
p108
sba(irunmatrix
M3Element
p109
(dp110
g3
F1.0
sg4
S'Lite sannsynlig, Mulig'
p111
sg6
S'#ccff66'
p112
sg8
(lp113
I1
asg10
S'Possible'
p114
sg12
S'Some'
p115
sg14
g15
sg16
I1
sg17
S'High'
p116
sg19
S'Stor tilleggsbelastning'
p117
sg21
I1
sg22
S'100'
p118
sg24
S'700'
p119
sg26
S'Noen bratte heng'
p120
sg28
g29
(g33
S'\x00\x00\x00\x00\x00\x00\x00\x00'
p121
tp122
Rp123
sg39
g40
sg41
S'1 - Harmloest'
p124
sba(irunmatrix
M3Element
p125
(dp126
g3
Nsg4
S'Lite sannsynlig, Mulig'
p127
sg6
S'white'
p128
sg8
(lp129
sg10
S'Possible'
p130
sg12
S'Some'
p131
sg14
g15
sg16
I1
sg17
S'Low'
p132
sg19
S'Liten tilleggsbelastning'
p133
sg21
Nsg22
S'100'
p134
sg24
S'800'
p135
sg26
S'Noen bratte heng'
p136
sg28
Nsg39
g40
sg41
S'1 - Harmloest'
p137
sba(irunmatrix
M3Element
p138
(dp139
g3
F2.0
sg4
S'Lite sannsynlig, Mulig'
p140
sg6
g7
sg8
(lp141
I2
asg10
S'Possible'
p142
sg12
S'Some'
p143
sg14
g15
sg16
I1
sg17
S'Nat'
p144
sg19
S'Naturlig utloest'
p145
sg21
I1
sg22
S'100'
p146
sg24
S'900'
p147
sg26
S'Noen bratte heng'
p148
sg28
g29
(g33
S'\x00\x00\x00\x00\x00\x00\x00\x00'
p149
tp150
Rp151
sg39
g40
sg41
S'1 - Harmloest'
p152
sba(irunmatrix
M3Element
p153
(dp154
g3
Nsg4
S'Sannsynlig, Meget sannsynlig'
p155
sg6
S'gray'
p156
sg8
(lp157
sg10
S'Likely'
p158
sg12
S'Some'
p159
sg14
g76
sg16
I0
sg17
S'High'
p160
sg19
S'Stor tilleggsbelastning'
p161
sg21
Nsg22
S'100'
p162
sg24
S'1000'
p163
sg26
S'Noen bratte heng'
p164
sg28
Nsg39
g40
sg41
S'1 - Harmloest'
p165
sba(irunmatrix
M3Element
p166
(dp167
g3
Nsg4
S'Sannsynlig, Meget sannsynlig'
p168
sg6
S'gray'
p169
sg8
(lp170
sg10
S'Likely'
p171
sg12
S'Some'
p172
sg14
g76
sg16
I0
sg17
S'Low'
p173
sg19
S'Liten tilleggsbelastning'
p174
sg21
Nsg22
S'100'
p175
sg24
S'1100'
p176
sg26
S'Noen bratte heng'
p177
sg28
Nsg39
g40
sg41
S'1 - Harmloest'
p178
sba(irunmatrix
M3Element
p179
(dp180
g3
Nsg4
S'Sannsynlig, Meget sannsynlig'
p181
sg6
S'white'
p182
sg8
(lp183
sg10
S'Likely'
p184
sg12
S'Some'
p185
sg14
g15
sg16
I1
sg17
S'Nat'
p186
sg19
S'Naturlig utloest'
p187
sg21
Nsg22
S'100'
p188
sg24
S'1200'
p189
sg26
S'Noen bratte heng'
p190
sg28
Nsg39
g40
sg41
S'1 - Harmloest'
p191
sba(irunmatrix
M3Element
p192
(dp193
g3
Nsg4
S'Lite sannsynlig, Mulig'
p194
sg6
S'gray'
p195
sg8
(lp196
sg10
S'Possible'
p197
sg12
S'Many'
p198
sg14
g76
sg16
I0
sg17
S'High'
p199
sg19
S'Stor tilleggsbelastning'
p200
sg21
Nsg22
S'100'
p201
sg24
S'1300'
p202
sg26
S'Mange bratte heng'
p203
sg28
Nsg39
g40
sg41
S'1 - Harmloest'
p204
sba(irunmatrix
M3Element
p205
(dp206
g3
Nsg4
S'Lite sannsynlig, Mulig'
p207
sg6
S'white'
p208
sg8
(lp209
sg10
S'Possible'
p210
sg12
S'Many'
p211
sg14
g15
sg16
I1
sg17
S'Low'
p212
sg19
S'Liten tilleggsbelastning'
p213
sg21
Nsg22
S'100'
p214
sg24
S'1400'
p215
sg26
S'Mange bratte heng'
p216
sg28
Nsg39
g40
sg41
S'1 - Harmloest'
p217
sba(irunmatrix
M3Element
p218
(dp219
g3
F2.0
sg4
S'Lite sannsynlig, Mulig'
p220
sg6
g7
sg8
(lp221
I2
aI2
aI2
asg10
S'Possible'
p222
sg12
S'Many'
p223
sg14
g76
sg16
I0
sg17
S'Nat'
p224
sg19
S'Naturlig utloest'
p225
sg21
I3
sg22
S'100'
p226
sg24
S'1500'
p227
sg26
S'Mange bratte heng'
p228
sg28
g29
(g33
S'\x00\x00\x00\x00\x00\x00\x00\x00'
p229
tp230
Rp231
sg39
g40
sg41
S'1 - Harmloest'
p232
sba(irunmatrix
M3Element
p233
(dp234
g3
Nsg4
S'Sannsynlig, Meget sannsynlig'
p235
sg6
S'gray'
p236
sg8
(lp237
sg10
S'Likely'
p238
sg12
S'Many'
p239
sg14
g76
sg16
I0
sg17
S'High'
p240
sg19
S'Stor tilleggsbelastning'
p241
sg21
Nsg22
S'100'
p242
sg24
S'1600'
p243
sg26
S'Mange bratte heng'
p244
sg28
Nsg39
g40
sg41
S'1 - Harmloest'
p245
sba(irunmatrix
M3Element
p246
(dp247
g3
Nsg4
S'Sannsynlig, Meget sannsynlig'
p248
sg6
S'white'
p249
sg8
(lp250
sg10
S'Likely'
p251
sg12
S'Many'
p252
sg14
S'#ffff00'
p253
sg16
I2
sg17
S'Low'
p254
sg19
S'Liten tilleggsbelastning'
p255
sg21
Nsg22
S'100'
p256
sg24
S'1700'
p257
sg26
S'Mange bratte heng'
p258
sg28
Nsg39
g40
sg41
S'1 - Harmloest'
p259
sba(irunmatrix
M3Element
p260
(dp261
g3
Nsg4
S'Sannsynlig, Meget sannsynlig'
p262
sg6
S'white'
p263
sg8
(lp264
sg10
S'Likely'
p265
sg12
S'Many'
p266
sg14
g253
sg16
I2
sg17
S'Nat'
p267
sg19
S'Naturlig utloest'
p268
sg21
Nsg22
S'100'
p269
sg24
S'1800'
p270
sg26
S'Mange bratte heng'
p271
sg28
Nsg39
g40
sg41
S'1 - Harmloest'
p272
sba(irunmatrix
M3Element
p273
(dp274
g3
Nsg4
S'Lite sannsynlig, Mulig'
p275
sg6
S'gray'
p276
sg8
(lp277
sg10
S'Possible'
p278
sg12
S'Most'
p279
sg14
g76
sg16
I0
sg17
S'High'
p280
sg19
S'Stor tilleggsbelastning'
p281
sg21
Nsg22
S'100'
p282
sg24
S'1900'
p283
sg26
S'De fleste bratte heng, Ogsaa i mindre bratt terreng'
p284
sg28
Nsg39
g40
sg41
S'1 - Harmloest'
p285
sba(irunmatrix
M3Element
p286
(dp287
g3
Nsg4
S'Lite sannsynlig, Mulig'
p288
sg6
S'gray'
p289
sg8
(lp290
sg10
S'Possible'
p291
sg12
S'Most'
p292
sg14
g76
sg16
I0
sg17
S'Low'
p293
sg19
S'Liten tilleggsbelastning'
p294
sg21
Nsg22
S'100'
p295
sg24
S'2000'
p296
sg26
S'De fleste bratte heng, Ogsaa i mindre bratt terreng'
p297
sg28
Nsg39
g40
sg41
S'1 - Harmloest'
p298
sba(irunmatrix
M3Element
p299
(dp300
g3
Nsg4
S'Lite sannsynlig, Mulig'
p301
sg6
S'gray'
p302
sg8
(lp303
sg10
S'Possible'
p304
sg12
S'Most'
p305
sg14
g76
sg16
I0
sg17
S'Nat'
p306
sg19
S'Naturlig utloest'
p307
sg21
Nsg22
S'100'
p308
sg24
S'2100'
p309
sg26
S'De fleste bratte heng, Ogsaa i mindre bratt terreng'
p310
sg28
Nsg39
g40
sg41
S'1 - Harmloest'
p311
sba(irunmatrix
M3Element
p312
(dp313
g3
Nsg4
S'Sannsynlig, Meget sannsynlig'
p314
sg6
S'gray'
p315
sg8
(lp316
sg10
S'Likely'
p317
sg12
S'Most'
p318
sg14
g76
sg16
I0
sg17
S'High'
p319
sg19
S'Stor tilleggsbelastning'
p320
sg21
Nsg22
S'100'
p321
sg24
S'2200'
p322
sg26
S'De fleste bratte heng, Ogsaa i mindre bratt terreng'
p323
sg28
Nsg39
g40
sg41
S'1 - Harmloest'
p324
sba(irunmatrix
M3Element
p325
(dp326
g3
Nsg4
S'Sannsynlig, Meget sannsynlig'
p327
sg6
S'gray'
p328
sg8
(lp329
sg10
S'Likely'
p330
sg12
S'Most'
p331
sg14
g76
sg16
I0
sg17
S'Low'
p332
sg19
S'Liten tilleggsbelastning'
p333
sg21
Nsg22
S'100'
p334
sg24
S'2300'
p335
sg26
S'De fleste bratte heng, Ogsaa i mindre bratt terreng'
p336
sg28
Nsg39
g40
sg41
S'1 - Harmloest'
p337
sba(irunmatrix
M3Element
p338
(dp339
g3
Nsg4
S'Sannsynlig, Meget sannsynlig'
p340
sg6
S'white'
p341
sg8
(lp342
sg10
S'Likely'
p343
sg12
S'Most'
p344
sg14
g76
sg16
I0
sg17
S'Nat'
p345
sg19
S'Naturlig utloest'
p346
sg21
Nsg22
S'100'
p347
sg24
S'2400'
p348
sg26
S'De fleste bratte heng, Ogsaa i mindre bratt terreng'
p349
sg28
Nsg39
S'2'
p350
sg41
S'1 - Harmloest'
p351
sba(irunmatrix
M3Element
p352
(dp353
g3
F1.2352941176470589
sg4
S'Lite sannsynlig, Mulig'
p354
sg6
g112
sg8
(lp355
I2
aI1
aI2
aI1
aI1
aI1
aI1
aI1
aI1
aI1
aI1
aI1
aI1
aI1
aI1
aI2
aI2
asg10
S'Possible'
p356
sg12
S'Isolated'
p357
sg14
g15
sg16
I1
sg17
S'High'
p358
sg19
S'Stor tilleggsbelastning'
p359
sg21
I17
sg22
S'200'
p360
sg24
S'100'
p361
sg26
S'Isolerte faresoner'
p362
sg28
g29
(g33
S'\x12\xbey^\xce%\xdb?'
p363
tp364
Rp365
sg39
g350
sg41
S'2 - Smaa'
p366
sba(irunmatrix
M3Element
p367
(dp368
g3
F1.5
sg4
S'Lite sannsynlig, Mulig'
p369
sg6
g7
sg8
(lp370
I2
aI2
aI1
aI1
asg10
S'Possible'
p371
sg12
S'Isolated'
p372
sg14
g15
sg16
I1
sg17
S'Low'
p373
sg19
S'Liten tilleggsbelastning'
p374
sg21
I4
sg22
S'200'
p375
sg24
S'200'
p376
sg26
S'Isolerte faresoner'
p377
sg28
g29
(g33
S'\x00\x00\x00\x00\x00\x00\xe0?'
p378
tp379
Rp380
sg39
g350
sg41
S'2 - Smaa'
p381
sba(irunmatrix
M3Element
p382
(dp383
g3
F2.0
sg4
S'Lite sannsynlig, Mulig'
p384
sg6
g7
sg8
(lp385
I2
aI2
asg10
S'Possible'
p386
sg12
S'Isolated'
p387
sg14
g15
sg16
I1
sg17
S'Nat'
p388
sg19
S'Naturlig utloest'
p389
sg21
I2
sg22
S'200'
p390
sg24
S'300'
p391
sg26
S'Isolerte faresoner'
p392
sg28
g29
(g33
S'\x00\x00\x00\x00\x00\x00\x00\x00'
p393
tp394
Rp395
sg39
g350
sg41
S'2 - Smaa'
p396
sba(irunmatrix
M3Element
p397
(dp398
g3
Nsg4
S'Sannsynlig, Meget sannsynlig'
p399
sg6
S'gray'
p400
sg8
(lp401
sg10
S'Likely'
p402
sg12
S'Isolated'
p403
sg14
g76
sg16
I0
sg17
S'High'
p404
sg19
S'Stor tilleggsbelastning'
p405
sg21
Nsg22
S'200'
p406
sg24
S'400'
p407
sg26
S'Isolerte faresoner'
p408
sg28
Nsg39
g350
sg41
S'2 - Smaa'
p409
sba(irunmatrix
M3Element
p410
(dp411
g3
Nsg4
S'Sannsynlig, Meget sannsynlig'
p412
sg6
S'gray'
p413
sg8
(lp414
sg10
S'Likely'
p415
sg12
S'Isolated'
p416
sg14
g76
sg16
I0
sg17
S'Low'
p417
sg19
S'Liten tilleggsbelastning'
p418
sg21
Nsg22
S'200'
p419
sg24
S'500'
p420
sg26
S'Isolerte faresoner'
p421
sg28
Nsg39
g350
sg41
S'2 - Smaa'
p422
sba(irunmatrix
M3Element
p423
(dp424
g3
Nsg4
S'Sannsynlig, Meget sannsynlig'
p425
sg6
S'gray'
p426
sg8
(lp427
sg10
S'Likely'
p428
sg12
S'Isolated'
p429
sg14
g76
sg16
I0
sg17
S'Nat'
p430
sg19
S'Naturlig utloest'
p431
sg21
Nsg22
S'200'
p432
sg24
S'600'
p433
sg26
S'Isolerte faresoner'
p434
sg28
Nsg39
g350
sg41
S'2 - Smaa'
p435
sba(irunmatrix
M3Element
p436
(dp437
g3
F2.1666666666666665
sg4
S'Lite sannsynlig, Mulig'
p438
sg6
g7
sg8
(lp439
I3
aI3
aI2
aI2
aI2
aI2
aI2
aI2
aI2
aI2
aI2
aI2
asg10
S'Possible'
p440
sg12
S'Some'
p441
sg14
g253
sg16
I2
sg17
S'High'
p442
sg19
S'Stor tilleggsbelastning'
p443
sg21
I12
sg22
S'200'
p444
sg24
S'700'
p445
sg26
S'Noen bratte heng'
p446
sg28
g29
(g33
S'4Fu\xcf\xf4\xd9\xd7?'
p447
tp448
Rp449
sg39
g350
sg41
S'2 - Smaa'
p450
sba(irunmatrix
M3Element
p451
(dp452
g3
F2.1538461538461537
sg4
S'Lite sannsynlig, Mulig'
p453
sg6
g7
sg8
(lp454
I2
aI2
aI2
aI2
aI2
aI2
aI3
aI3
aI2
aI2
aI2
aI2
aI3
aI2
aI2
aI2
aI3
aI2
aI2
aI2
aI2
aI3
aI2
aI3
aI2
aI2
aI2
aI2
aI2
aI2
aI2
aI2
aI2
aI2
aI2
aI2
aI2
aI2
aI2
asg10
S'Possible'
p455
sg12
S'Some'
p456
sg14
g253
sg16
I2
sg17
S'Low'
p457
sg19
S'Liten tilleggsbelastning'
p458
sg21
I39
sg22
S'200'
p459
sg24
S'800'
p460
sg26
S'Noen bratte heng'
p461
sg28
g29
(g33
S'EC\xca\xf7]\x17\xd7?'
p462
tp463
Rp464
sg39
g350
sg41
S'2 - Smaa'
p465
sba(irunmatrix
M3Element
p466
(dp467
g3
F1.564102564102564
sg4
S'Lite sannsynlig, Mulig'
p468
sg6
g7
sg8
(lp469
I3
aI3
aI3
aI3
aI3
aI1
aI1
aI1
aI1
aI1
aI1
aI1
aI1
aI2
aI1
aI2
aI1
aI1
aI1
aI1
aI1
aI1
aI1
aI1
aI1
aI1
aI1
aI1
aI1
aI1
aI2
aI2
aI2
aI2
aI2
aI2
aI2
aI2
aI3
asg10
S'Possible'
p470
sg12
S'Some'
p471
sg14
g253
sg16
I2
sg17
S'Nat'
p472
sg19
S'Naturlig utloest'
p473
sg21
I39
sg22
S'200'
p474
sg24
S'900'
p475
sg26
S'Noen bratte heng'
p476
sg28
g29
(g33
S'\xd8\xc9\xbe\x90\x1b\xcf\xe7?'
p477
tp478
Rp479
sg39
g350
sg41
S'2 - Smaa'
p480
sba(irunmatrix
M3Element
p481
(dp482
g3
Nsg4
S'Sannsynlig, Meget sannsynlig'
p483
sg6
S'gray'
p484
sg8
(lp485
sg10
S'Likely'
p486
sg12
S'Some'
p487
sg14
g76
sg16
I0
sg17
S'High'
p488
sg19
S'Stor tilleggsbelastning'
p489
sg21
Nsg22
S'200'
p490
sg24
S'1000'
p491
sg26
S'Noen bratte heng'
p492
sg28
Nsg39
g350
sg41
S'2 - Smaa'
p493
sba(irunmatrix
M3Element
p494
(dp495
g3
Nsg4
S'Sannsynlig, Meget sannsynlig'
p496
sg6
S'gray'
p497
sg8
(lp498
sg10
S'Likely'
p499
sg12
S'Some'
p500
sg14
g76
sg16
I0
sg17
S'Low'
p501
sg19
S'Liten tilleggsbelastning'
p502
sg21
Nsg22
S'200'
p503
sg24
S'1100'
p504
sg26
S'Noen bratte heng'
p505
sg28
Nsg39
g350
sg41
S'2 - Smaa'
p506
sba(irunmatrix
M3Element
p507
(dp508
g3
F3.0
sg4
S'Sannsynlig, Meget sannsynlig'
p509
sg6
S'#ff9900'
p510
sg8
(lp511
I3
aI3
aI3
aI3
aI3
aI3
aI3
asg10
S'Likely'
p512
sg12
S'Some'
p513
sg14
S'#ff9900'
p514
sg16
I3
sg17
S'Nat'
p515
sg19
S'Naturlig utloest'
p516
sg21
I7
sg22
S'200'
p517
sg24
S'1200'
p518
sg26
S'Noen bratte heng'
p519
sg28
g29
(g33
S'\x00\x00\x00\x00\x00\x00\x00\x00'
p520
tp521
Rp522
sg39
g350
sg41
S'2 - Smaa'
p523
sba(irunmatrix
M3Element
p524
(dp525
g3
Nsg4
S'Lite sannsynlig, Mulig'
p526
sg6
S'gray'
p527
sg8
(lp528
sg10
S'Possible'
p529
sg12
S'Many'
p530
sg14
g76
sg16
I0
sg17
S'High'
p531
sg19
S'Stor tilleggsbelastning'
p532
sg21
Nsg22
S'200'
p533
sg24
S'1300'
p534
sg26
S'Mange bratte heng'
p535
sg28
Nsg39
g350
sg41
S'2 - Smaa'
p536
sba(irunmatrix
M3Element
p537
(dp538
g3
F2.6666666666666665
sg4
S'Lite sannsynlig, Mulig'
p539
sg6
g510
sg8
(lp540
I3
aI3
aI2
asg10
S'Possible'
p541
sg12
S'Many'
p542
sg14
g514
sg16
I3
sg17
S'Low'
p543
sg19
S'Liten tilleggsbelastning'
p544
sg21
I3
sg22
S'200'
p545
sg24
S'1400'
p546
sg26
S'Mange bratte heng'
p547
sg28
g29
(g33
S'f\xfa\xfe\xdd}+\xde?'
p548
tp549
Rp550
sg39
g350
sg41
S'2 - Smaa'
p551
sba(irunmatrix
M3Element
p552
(dp553
g3
F2.0
sg4
S'Lite sannsynlig, Mulig'
p554
sg6
g7
sg8
(lp555
I2
asg10
S'Possible'
p556
sg12
S'Many'
p557
sg14
g76
sg16
I0
sg17
S'Nat'
p558
sg19
S'Naturlig utloest'
p559
sg21
I1
sg22
S'200'
p560
sg24
S'1500'
p561
sg26
S'Mange bratte heng'
p562
sg28
g29
(g33
S'\x00\x00\x00\x00\x00\x00\x00\x00'
p563
tp564
Rp565
sg39
g350
sg41
S'2 - Smaa'
p566
sba(irunmatrix
M3Element
p567
(dp568
g3
Nsg4
S'Sannsynlig, Meget sannsynlig'
p569
sg6
S'gray'
p570
sg8
(lp571
sg10
S'Likely'
p572
sg12
S'Many'
p573
sg14
g76
sg16
I0
sg17
S'High'
p574
sg19
S'Stor tilleggsbelastning'
p575
sg21
Nsg22
S'200'
p576
sg24
S'1600'
p577
sg26
S'Mange bratte heng'
p578
sg28
Nsg39
g350
sg41
S'2 - Smaa'
p579
sba(irunmatrix
M3Element
p580
(dp581
g3
Nsg4
S'Sannsynlig, Meget sannsynlig'
p582
sg6
S'white'
p583
sg8
(lp584
sg10
S'Likely'
p585
sg12
S'Many'
p586
sg14
S'#ff0000'
p587
sg16
I4
sg17
S'Low'
p588
sg19
S'Liten tilleggsbelastning'
p589
sg21
Nsg22
S'200'
p590
sg24
S'1700'
p591
sg26
S'Mange bratte heng'
p592
sg28
Nsg39
g350
sg41
S'2 - Smaa'
p593
sba(irunmatrix
M3Element
p594
(dp595
g3
F3.0
sg4
S'Sannsynlig, Meget sannsynlig'
p596
sg6
g510
sg8
(lp597
I3
asg10
S'Likely'
p598
sg12
S'Many'
p599
sg14
g587
sg16
I4
sg17
S'Nat'
p600
sg19
S'Naturlig utloest'
p601
sg21
I1
sg22
S'200'
p602
sg24
S'1800'
p603
sg26
S'Mange bratte heng'
p604
sg28
g29
(g33
S'\x00\x00\x00\x00\x00\x00\x00\x00'
p605
tp606
Rp607
sg39
g350
sg41
S'2 - Smaa'
p608
sba(irunmatrix
M3Element
p609
(dp610
g3
Nsg4
S'Lite sannsynlig, Mulig'
p611
sg6
S'gray'
p612
sg8
(lp613
sg10
S'Possible'
p614
sg12
S'Most'
p615
sg14
g76
sg16
I0
sg17
S'High'
p616
sg19
S'Stor tilleggsbelastning'
p617
sg21
Nsg22
S'200'
p618
sg24
S'1900'
p619
sg26
S'De fleste bratte heng, Ogsaa i mindre bratt terreng'
p620
sg28
Nsg39
g350
sg41
S'2 - Smaa'
p621
sba(irunmatrix
M3Element
p622
(dp623
g3
Nsg4
S'Lite sannsynlig, Mulig'
p624
sg6
S'gray'
p625
sg8
(lp626
sg10
S'Possible'
p627
sg12
S'Most'
p628
sg14
g76
sg16
I0
sg17
S'Low'
p629
sg19
S'Liten tilleggsbelastning'
p630
sg21
Nsg22
S'200'
p631
sg24
S'2000'
p632
sg26
S'De fleste bratte heng, Ogsaa i mindre bratt terreng'
p633
sg28
Nsg39
g350
sg41
S'2 - Smaa'
p634
sba(irunmatrix
M3Element
p635
(dp636
g3
Nsg4
S'Lite sannsynlig, Mulig'
p637
sg6
S'gray'
p638
sg8
(lp639
sg10
S'Possible'
p640
sg12
S'Most'
p641
sg14
g76
sg16
I0
sg17
S'Nat'
p642
sg19
S'Naturlig utloest'
p643
sg21
Nsg22
S'200'
p644
sg24
S'2100'
p645
sg26
S'De fleste bratte heng, Ogsaa i mindre bratt terreng'
p646
sg28
Nsg39
g350
sg41
S'2 - Smaa'
p647
sba(irunmatrix
M3Element
p648
(dp649
g3
Nsg4
S'Sannsynlig, Meget sannsynlig'
p650
sg6
S'gray'
p651
sg8
(lp652
sg10
S'Likely'
p653
sg12
S'Most'
p654
sg14
g76
sg16
I0
sg17
S'High'
p655
sg19
S'Stor tilleggsbelastning'
p656
sg21
Nsg22
S'200'
p657
sg24
S'2200'
p658
sg26
S'De fleste bratte heng, Ogsaa i mindre bratt terreng'
p659
sg28
Nsg39
g350
sg41
S'2 - Smaa'
p660
sba(irunmatrix
M3Element
p661
(dp662
g3
Nsg4
S'Sannsynlig, Meget sannsynlig'
p663
sg6
S'gray'
p664
sg8
(lp665
sg10
S'Likely'
p666
sg12
S'Most'
p667
sg14
g76
sg16
I0
sg17
S'Low'
p668
sg19
S'Liten tilleggsbelastning'
p669
sg21
Nsg22
S'200'
p670
sg24
S'2300'
p671
sg26
S'De fleste bratte heng, Ogsaa i mindre bratt terreng'
p672
sg28
Nsg39
g350
sg41
S'2 - Smaa'
p673
sba(irunmatrix
M3Element
p674
(dp675
g3
Nsg4
S'Sannsynlig, Meget sannsynlig'
p676
sg6
S'white'
p677
sg8
(lp678
sg10
S'Likely'
p679
sg12
S'Most'
p680
sg14
g76
sg16
I0
sg17
S'Nat'
p681
sg19
S'Naturlig utloest'
p682
sg21
Nsg22
S'200'
p683
sg24
S'2400'
p684
sg26
S'De fleste bratte heng, Ogsaa i mindre bratt terreng'
p685
sg28
Nsg39
g350
sg41
S'2 - Smaa'
p686
sba(irunmatrix
M3Element
p687
(dp688
g3
F2.0
sg4
S'Lite sannsynlig, Mulig'
p689
sg6
g7
sg8
(lp690
I2
aI2
asg10
S'Possible'
p691
sg12
S'Isolated'
p692
sg14
g15
sg16
I1
sg17
S'High'
p693
sg19
S'Stor tilleggsbelastning'
p694
sg21
I2
sg22
S'300'
p695
sg24
S'100'
p696
sg26
S'Isolerte faresoner'
p697
sg28
g29
(g33
S'\x00\x00\x00\x00\x00\x00\x00\x00'
p698
tp699
Rp700
sg39
S'3'
p701
sg41
S'3 - Middels'
p702
sba(irunmatrix
M3Element
p703
(dp704
g3
Nsg4
S'Lite sannsynlig, Mulig'
p705
sg6
S'white'
p706
sg8
(lp707
sg10
S'Possible'
p708
sg12
S'Isolated'
p709
sg14
g253
sg16
I2
sg17
S'Low'
p710
sg19
S'Liten tilleggsbelastning'
p711
sg21
Nsg22
S'300'
p712
sg24
S'200'
p713
sg26
S'Isolerte faresoner'
p714
sg28
Nsg39
g701
sg41
S'3 - Middels'
p715
sba(irunmatrix
M3Element
p716
(dp717
g3
Nsg4
S'Lite sannsynlig, Mulig'
p718
sg6
S'white'
p719
sg8
(lp720
sg10
S'Possible'
p721
sg12
S'Isolated'
p722
sg14
g253
sg16
I2
sg17
S'Nat'
p723
sg19
S'Naturlig utloest'
p724
sg21
Nsg22
S'300'
p725
sg24
S'300'
p726
sg26
S'Isolerte faresoner'
p727
sg28
Nsg39
g701
sg41
S'3 - Middels'
p728
sba(irunmatrix
M3Element
p729
(dp730
g3
Nsg4
S'Sannsynlig, Meget sannsynlig'
p731
sg6
S'gray'
p732
sg8
(lp733
sg10
S'Likely'
p734
sg12
S'Isolated'
p735
sg14
g76
sg16
I0
sg17
S'High'
p736
sg19
S'Stor tilleggsbelastning'
p737
sg21
Nsg22
S'300'
p738
sg24
S'400'
p739
sg26
S'Isolerte faresoner'
p740
sg28
Nsg39
g701
sg41
S'3 - Middels'
p741
sba(irunmatrix
M3Element
p742
(dp743
g3
Nsg4
S'Sannsynlig, Meget sannsynlig'
p744
sg6
S'gray'
p745
sg8
(lp746
sg10
S'Likely'
p747
sg12
S'Isolated'
p748
sg14
g76
sg16
I0
sg17
S'Low'
p749
sg19
S'Liten tilleggsbelastning'
p750
sg21
Nsg22
S'300'
p751
sg24
S'500'
p752
sg26
S'Isolerte faresoner'
p753
sg28
Nsg39
g701
sg41
S'3 - Middels'
p754
sba(irunmatrix
M3Element
p755
(dp756
g3
Nsg4
S'Sannsynlig, Meget sannsynlig'
p757
sg6
S'gray'
p758
sg8
(lp759
sg10
S'Likely'
p760
sg12
S'Isolated'
p761
sg14
g76
sg16
I0
sg17
S'Nat'
p762
sg19
S'Naturlig utloest'
p763
sg21
Nsg22
S'300'
p764
sg24
S'600'
p765
sg26
S'Isolerte faresoner'
p766
sg28
Nsg39
g701
sg41
S'3 - Middels'
p767
sba(irunmatrix
M3Element
p768
(dp769
g3
F2.5
sg4
S'Lite sannsynlig, Mulig'
p770
sg6
g510
sg8
(lp771
I3
aI2
asg10
S'Possible'
p772
sg12
S'Some'
p773
sg14
g253
sg16
I2
sg17
S'High'
p774
sg19
S'Stor tilleggsbelastning'
p775
sg21
I2
sg22
S'300'
p776
sg24
S'700'
p777
sg26
S'Noen bratte heng'
p778
sg28
g29
(g33
S'\x00\x00\x00\x00\x00\x00\xe0?'
p779
tp780
Rp781
sg39
g701
sg41
S'3 - Middels'
p782
sba(irunmatrix
M3Element
p783
(dp784
g3
F3.0
sg4
S'Lite sannsynlig, Mulig'
p785
sg6
g510
sg8
(lp786
I3
aI3
aI3
aI3
asg10
S'Possible'
p787
sg12
S'Some'
p788
sg14
g514
sg16
I3
sg17
S'Low'
p789
sg19
S'Liten tilleggsbelastning'
p790
sg21
I4
sg22
S'300'
p791
sg24
S'800'
p792
sg26
S'Noen bratte heng'
p793
sg28
g29
(g33
S'\x00\x00\x00\x00\x00\x00\x00\x00'
p794
tp795
Rp796
sg39
g701
sg41
S'3 - Middels'
p797
sba(irunmatrix
M3Element
p798
(dp799
g3
F3.0
sg4
S'Lite sannsynlig, Mulig'
p800
sg6
g510
sg8
(lp801
I3
aI3
asg10
S'Possible'
p802
sg12
S'Some'
p803
sg14
g514
sg16
I3
sg17
S'Nat'
p804
sg19
S'Naturlig utloest'
p805
sg21
I2
sg22
S'300'
p806
sg24
S'900'
p807
sg26
S'Noen bratte heng'
p808
sg28
g29
(g33
S'\x00\x00\x00\x00\x00\x00\x00\x00'
p809
tp810
Rp811
sg39
g701
sg41
S'3 - Middels'
p812
sba(irunmatrix
M3Element
p813
(dp814
g3
Nsg4
S'Sannsynlig, Meget sannsynlig'
p815
sg6
S'gray'
p816
sg8
(lp817
sg10
S'Likely'
p818
sg12
S'Some'
p819
sg14
g76
sg16
I0
sg17
S'High'
p820
sg19
S'Stor tilleggsbelastning'
p821
sg21
Nsg22
S'300'
p822
sg24
S'1000'
p823
sg26
S'Noen bratte heng'
p824
sg28
Nsg39
g701
sg41
S'3 - Middels'
p825
sba(irunmatrix
M3Element
p826
(dp827
g3
Nsg4
S'Sannsynlig, Meget sannsynlig'
p828
sg6
S'gray'
p829
sg8
(lp830
sg10
S'Likely'
p831
sg12
S'Some'
p832
sg14
g76
sg16
I0
sg17
S'Low'
p833
sg19
S'Liten tilleggsbelastning'
p834
sg21
Nsg22
S'300'
p835
sg24
S'1100'
p836
sg26
S'Noen bratte heng'
p837
sg28
Nsg39
g701
sg41
S'3 - Middels'
p838
sba(irunmatrix
M3Element
p839
(dp840
g3
Nsg4
S'Sannsynlig, Meget sannsynlig'
p841
sg6
S'white'
p842
sg8
(lp843
sg10
S'Likely'
p844
sg12
S'Some'
p845
sg14
g587
sg16
I4
sg17
S'Nat'
p846
sg19
S'Naturlig utloest'
p847
sg21
Nsg22
S'300'
p848
sg24
S'1200'
p849
sg26
S'Noen bratte heng'
p850
sg28
Nsg39
g701
sg41
S'3 - Middels'
p851
sba(irunmatrix
M3Element
p852
(dp853
g3
Nsg4
S'Lite sannsynlig, Mulig'
p854
sg6
S'gray'
p855
sg8
(lp856
sg10
S'Possible'
p857
sg12
S'Many'
p858
sg14
g76
sg16
I0
sg17
S'High'
p859
sg19
S'Stor tilleggsbelastning'
p860
sg21
Nsg22
S'300'
p861
sg24
S'1300'
p862
sg26
S'Mange bratte heng'
p863
sg28
Nsg39
g701
sg41
S'3 - Middels'
p864
sba(irunmatrix
M3Element
p865
(dp866
g3
Nsg4
S'Lite sannsynlig, Mulig'
p867
sg6
S'white'
p868
sg8
(lp869
sg10
S'Possible'
p870
sg12
S'Many'
p871
sg14
g587
sg16
I4
sg17
S'Low'
p872
sg19
S'Liten tilleggsbelastning'
p873
sg21
Nsg22
S'300'
p874
sg24
S'1400'
p875
sg26
S'Mange bratte heng'
p876
sg28
Nsg39
g701
sg41
S'3 - Middels'
p877
sba(irunmatrix
M3Element
p878
(dp879
g3
Nsg4
S'Lite sannsynlig, Mulig'
p880
sg6
S'gray'
p881
sg8
(lp882
sg10
S'Possible'
p883
sg12
S'Many'
p884
sg14
g76
sg16
I0
sg17
S'Nat'
p885
sg19
S'Naturlig utloest'
p886
sg21
Nsg22
S'300'
p887
sg24
S'1500'
p888
sg26
S'Mange bratte heng'
p889
sg28
Nsg39
g701
sg41
S'3 - Middels'
p890
sba(irunmatrix
M3Element
p891
(dp892
g3
Nsg4
S'Sannsynlig, Meget sannsynlig'
p893
sg6
S'gray'
p894
sg8
(lp895
sg10
S'Likely'
p896
sg12
S'Many'
p897
sg14
g76
sg16
I0
sg17
S'High'
p898
sg19
S'Stor tilleggsbelastning'
p899
sg21
Nsg22
S'300'
p900
sg24
S'1600'
p901
sg26
S'Mange bratte heng'
p902
sg28
Nsg39
g701
sg41
S'3 - Middels'
p903
sba(irunmatrix
M3Element
p904
(dp905
g3
Nsg4
S'Sannsynlig, Meget sannsynlig'
p906
sg6
S'white'
p907
sg8
(lp908
sg10
S'Likely'
p909
sg12
S'Many'
p910
sg14
g587
sg16
I4
sg17
S'Low'
p911
sg19
S'Liten tilleggsbelastning'
p912
sg21
Nsg22
S'300'
p913
sg24
S'1700'
p914
sg26
S'Mange bratte heng'
p915
sg28
Nsg39
g701
sg41
S'3 - Middels'
p916
sba(irunmatrix
M3Element
p917
(dp918
g3
Nsg4
S'Sannsynlig, Meget sannsynlig'
p919
sg6
S'white'
p920
sg8
(lp921
sg10
S'Likely'
p922
sg12
S'Many'
p923
sg14
g587
sg16
I4
sg17
S'Nat'
p924
sg19
S'Naturlig utloest'
p925
sg21
Nsg22
S'300'
p926
sg24
S'1800'
p927
sg26
S'Mange bratte heng'
p928
sg28
Nsg39
g701
sg41
S'3 - Middels'
p929
sba(irunmatrix
M3Element
p930
(dp931
g3
Nsg4
S'Lite sannsynlig, Mulig'
p932
sg6
S'gray'
p933
sg8
(lp934
sg10
S'Possible'
p935
sg12
S'Most'
p936
sg14
g76
sg16
I0
sg17
S'High'
p937
sg19
S'Stor tilleggsbelastning'
p938
sg21
Nsg22
S'300'
p939
sg24
S'1900'
p940
sg26
S'De fleste bratte heng, Ogsaa i mindre bratt terreng'
p941
sg28
Nsg39
g701
sg41
S'3 - Middels'
p942
sba(irunmatrix
M3Element
p943
(dp944
g3
Nsg4
S'Lite sannsynlig, Mulig'
p945
sg6
S'gray'
p946
sg8
(lp947
sg10
S'Possible'
p948
sg12
S'Most'
p949
sg14
g76
sg16
I0
sg17
S'Low'
p950
sg19
S'Liten tilleggsbelastning'
p951
sg21
Nsg22
S'300'
p952
sg24
S'2000'
p953
sg26
S'De fleste bratte heng, Ogsaa i mindre bratt terreng'
p954
sg28
Nsg39
g701
sg41
S'3 - Middels'
p955
sba(irunmatrix
M3Element
p956
(dp957
g3
Nsg4
S'Lite sannsynlig, Mulig'
p958
sg6
S'gray'
p959
sg8
(lp960
sg10
S'Possible'
p961
sg12
S'Most'
p962
sg14
g76
sg16
I0
sg17
S'Nat'
p963
sg19
S'Naturlig utloest'
p964
sg21
Nsg22
S'300'
p965
sg24
S'2100'
p966
sg26
S'De fleste bratte heng, Ogsaa i mindre bratt terreng'
p967
sg28
Nsg39
g701
sg41
S'3 - Middels'
p968
sba(irunmatrix
M3Element
p969
(dp970
g3
Nsg4
S'Sannsynlig, Meget sannsynlig'
p971
sg6
S'gray'
p972
sg8
(lp973
sg10
S'Likely'
p974
sg12
S'Most'
p975
sg14
g76
sg16
I0
sg17
S'High'
p976
sg19
S'Stor tilleggsbelastning'
p977
sg21
Nsg22
S'300'
p978
sg24
S'2200'
p979
sg26
S'De fleste bratte heng, Ogsaa i mindre bratt terreng'
p980
sg28
Nsg39
g701
sg41
S'3 - Middels'
p981
sba(irunmatrix
M3Element
p982
(dp983
g3
Nsg4
S'Sannsynlig, Meget sannsynlig'
p984
sg6
S'gray'
p985
sg8
(lp986
sg10
S'Likely'
p987
sg12
S'Most'
p988
sg14
g76
sg16
I0
sg17
S'Low'
p989
sg19
S'Liten tilleggsbelastning'
p990
sg21
Nsg22
S'300'
p991
sg24
S'2300'
p992
sg26
S'De fleste bratte heng, Ogsaa i mindre bratt terreng'
p993
sg28
Nsg39
g701
sg41
S'3 - Middels'
p994
sba(irunmatrix
M3Element
p995
(dp996
g3
Nsg4
S'Sannsynlig, Meget sannsynlig'
p997
sg6
S'white'
p998
sg8
(lp999
sg10
S'Likely'
p1000
sg12
S'Most'
p1001
sg14
g76
sg16
I0
sg17
S'Nat'
p1002
sg19
S'Naturlig utloest'
p1003
sg21
Nsg22
S'300'
p1004
sg24
S'2400'
p1005
sg26
S'De fleste bratte heng, Ogsaa i mindre bratt terreng'
p1006
sg28
Nsg39
g701
sg41
S'3 - Middels'
p1007
sba(irunmatrix
M3Element
p1008
(dp1009
g3
Nsg4
S'Lite sannsynlig, Mulig'
p1010
sg6
S'white'
p1011
sg8
(lp1012
sg10
S'Possible'
p1013
sg12
S'Isolated'
p1014
sg14
g253
sg16
I2
sg17
S'High'
p1015
sg19
S'Stor tilleggsbelastning'
p1016
sg21
Nsg22
S'400'
p1017
sg24
S'100'
p1018
sg26
S'Isolerte faresoner'
p1019
sg28
Nsg39
S'4'
p1020
sg41
S'4 - Store'
p1021
sba(irunmatrix
M3Element
p1022
(dp1023
g3
Nsg4
S'Lite sannsynlig, Mulig'
p1024
sg6
S'white'
p1025
sg8
(lp1026
sg10
S'Possible'
p1027
sg12
S'Isolated'
p1028
sg14
g514
sg16
I3
sg17
S'Low'
p1029
sg19
S'Liten tilleggsbelastning'
p1030
sg21
Nsg22
S'400'
p1031
sg24
S'200'
p1032
sg26
S'Isolerte faresoner'
p1033
sg28
Nsg39
g1020
sg41
S'4 - Store'
p1034
sba(irunmatrix
M3Element
p1035
(dp1036
g3
Nsg4
S'Lite sannsynlig, Mulig'
p1037
sg6
S'white'
p1038
sg8
(lp1039
sg10
S'Possible'
p1040
sg12
S'Isolated'
p1041
sg14
g514
sg16
I3
sg17
S'Nat'
p1042
sg19
S'Naturlig utloest'
p1043
sg21
Nsg22
S'400'
p1044
sg24
S'300'
p1045
sg26
S'Isolerte faresoner'
p1046
sg28
Nsg39
g1020
sg41
S'4 - Store'
p1047
sba(irunmatrix
M3Element
p1048
(dp1049
g3
Nsg4
S'Sannsynlig, Meget sannsynlig'
p1050
sg6
S'gray'
p1051
sg8
(lp1052
sg10
S'Likely'
p1053
sg12
S'Isolated'
p1054
sg14
g76
sg16
I0
sg17
S'High'
p1055
sg19
S'Stor tilleggsbelastning'
p1056
sg21
Nsg22
S'400'
p1057
sg24
S'400'
p1058
sg26
S'Isolerte faresoner'
p1059
sg28
Nsg39
g1020
sg41
S'4 - Store'
p1060
sba(irunmatrix
M3Element
p1061
(dp1062
g3
Nsg4
S'Sannsynlig, Meget sannsynlig'
p1063
sg6
S'gray'
p1064
sg8
(lp1065
sg10
S'Likely'
p1066
sg12
S'Isolated'
p1067
sg14
g76
sg16
I0
sg17
S'Low'
p1068
sg19
S'Liten tilleggsbelastning'
p1069
sg21
Nsg22
S'400'
p1070
sg24
S'500'
p1071
sg26
S'Isolerte faresoner'
p1072
sg28
Nsg39
g1020
sg41
S'4 - Store'
p1073
sba(irunmatrix
M3Element
p1074
(dp1075
g3
Nsg4
S'Sannsynlig, Meget sannsynlig'
p1076
sg6
S'gray'
p1077
sg8
(lp1078
sg10
S'Likely'
p1079
sg12
S'Isolated'
p1080
sg14
g76
sg16
I0
sg17
S'Nat'
p1081
sg19
S'Naturlig utloest'
p1082
sg21
Nsg22
S'400'
p1083
sg24
S'600'
p1084
sg26
S'Isolerte faresoner'
p1085
sg28
Nsg39
g1020
sg41
S'4 - Store'
p1086
sba(irunmatrix
M3Element
p1087
(dp1088
g3
Nsg4
S'Lite sannsynlig, Mulig'
p1089
sg6
S'white'
p1090
sg8
(lp1091
sg10
S'Possible'
p1092
sg12
S'Some'
p1093
sg14
g514
sg16
I3
sg17
S'High'
p1094
sg19
S'Stor tilleggsbelastning'
p1095
sg21
Nsg22
S'400'
p1096
sg24
S'700'
p1097
sg26
S'Noen bratte heng'
p1098
sg28
Nsg39
g1020
sg41
S'4 - Store'
p1099
sba(irunmatrix
M3Element
p1100
(dp1101
g3
Nsg4
S'Lite sannsynlig, Mulig'
p1102
sg6
S'white'
p1103
sg8
(lp1104
sg10
S'Possible'
p1105
sg12
S'Some'
p1106
sg14
g587
sg16
I4
sg17
S'Low'
p1107
sg19
S'Liten tilleggsbelastning'
p1108
sg21
Nsg22
S'400'
p1109
sg24
S'800'
p1110
sg26
S'Noen bratte heng'
p1111
sg28
Nsg39
g1020
sg41
S'4 - Store'
p1112
sba(irunmatrix
M3Element
p1113
(dp1114
g3
Nsg4
S'Lite sannsynlig, Mulig'
p1115
sg6
S'white'
p1116
sg8
(lp1117
sg10
S'Possible'
p1118
sg12
S'Some'
p1119
sg14
g587
sg16
I4
sg17
S'Nat'
p1120
sg19
S'Naturlig utloest'
p1121
sg21
Nsg22
S'400'
p1122
sg24
S'900'
p1123
sg26
S'Noen bratte heng'
p1124
sg28
Nsg39
g1020
sg41
S'4 - Store'
p1125
sba(irunmatrix
M3Element
p1126
(dp1127
g3
Nsg4
S'Sannsynlig, Meget sannsynlig'
p1128
sg6
S'gray'
p1129
sg8
(lp1130
sg10
S'Likely'
p1131
sg12
S'Some'
p1132
sg14
g76
sg16
I0
sg17
S'High'
p1133
sg19
S'Stor tilleggsbelastning'
p1134
sg21
Nsg22
S'400'
p1135
sg24
S'1000'
p1136
sg26
S'Noen bratte heng'
p1137
sg28
Nsg39
g1020
sg41
S'4 - Store'
p1138
sba(irunmatrix
M3Element
p1139
(dp1140
g3
Nsg4
S'Sannsynlig, Meget sannsynlig'
p1141
sg6
S'gray'
p1142
sg8
(lp1143
sg10
S'Likely'
p1144
sg12
S'Some'
p1145
sg14
g76
sg16
I0
sg17
S'Low'
p1146
sg19
S'Liten tilleggsbelastning'
p1147
sg21
Nsg22
S'400'
p1148
sg24
S'1100'
p1149
sg26
S'Noen bratte heng'
p1150
sg28
Nsg39
g1020
sg41
S'4 - Store'
p1151
sba(irunmatrix
M3Element
p1152
(dp1153
g3
Nsg4
S'Sannsynlig, Meget sannsynlig'
p1154
sg6
S'white'
p1155
sg8
(lp1156
sg10
S'Likely'
p1157
sg12
S'Some'
p1158
sg14
g587
sg16
I4
sg17
S'Nat'
p1159
sg19
S'Naturlig utloest'
p1160
sg21
Nsg22
S'400'
p1161
sg24
S'1200'
p1162
sg26
S'Noen bratte heng'
p1163
sg28
Nsg39
g1020
sg41
S'4 - Store'
p1164
sba(irunmatrix
M3Element
p1165
(dp1166
g3
Nsg4
S'Lite sannsynlig, Mulig'
p1167
sg6
S'gray'
p1168
sg8
(lp1169
sg10
S'Possible'
p1170
sg12
S'Many'
p1171
sg14
g76
sg16
I0
sg17
S'High'
p1172
sg19
S'Stor tilleggsbelastning'
p1173
sg21
Nsg22
S'400'
p1174
sg24
S'1300'
p1175
sg26
S'Mange bratte heng'
p1176
sg28
Nsg39
g1020
sg41
S'4 - Store'
p1177
sba(irunmatrix
M3Element
p1178
(dp1179
g3
Nsg4
S'Lite sannsynlig, Mulig'
p1180
sg6
S'white'
p1181
sg8
(lp1182
sg10
S'Possible'
p1183
sg12
S'Many'
p1184
sg14
g76
sg16
I0
sg17
S'Low'
p1185
sg19
S'Liten tilleggsbelastning'
p1186
sg21
Nsg22
S'400'
p1187
sg24
S'1400'
p1188
sg26
S'Mange bratte heng'
p1189
sg28
Nsg39
g1020
sg41
S'4 - Store'
p1190
sba(irunmatrix
M3Element
p1191
(dp1192
g3
Nsg4
S'Lite sannsynlig, Mulig'
p1193
sg6
S'gray'
p1194
sg8
(lp1195
sg10
S'Possible'
p1196
sg12
S'Many'
p1197
sg14
g76
sg16
I0
sg17
S'Nat'
p1198
sg19
S'Naturlig utloest'
p1199
sg21
Nsg22
S'400'
p1200
sg24
S'1500'
p1201
sg26
S'Mange bratte heng'
p1202
sg28
Nsg39
g1020
sg41
S'4 - Store'
p1203
sba(irunmatrix
M3Element
p1204
(dp1205
g3
Nsg4
S'Sannsynlig, Meget sannsynlig'
p1206
sg6
S'gray'
p1207
sg8
(lp1208
sg10
S'Likely'
p1209
sg12
S'Many'
p1210
sg14
g76
sg16
I0
sg17
S'High'
p1211
sg19
S'Stor tilleggsbelastning'
p1212
sg21
Nsg22
S'400'
p1213
sg24
S'1600'
p1214
sg26
S'Mange bratte heng'
p1215
sg28
Nsg39
g1020
sg41
S'4 - Store'
p1216
sba(irunmatrix
M3Element
p1217
(dp1218
g3
Nsg4
S'Sannsynlig, Meget sannsynlig'
p1219
sg6
S'white'
p1220
sg8
(lp1221
sg10
S'Likely'
p1222
sg12
S'Many'
p1223
sg14
g76
sg16
I0
sg17
S'Low'
p1224
sg19
S'Liten tilleggsbelastning'
p1225
sg21
Nsg22
S'400'
p1226
sg24
S'1700'
p1227
sg26
S'Mange bratte heng'
p1228
sg28
Nsg39
g1020
sg41
S'4 - Store'
p1229
sba(irunmatrix
M3Element
p1230
(dp1231
g3
Nsg4
S'Sannsynlig, Meget sannsynlig'
p1232
sg6
S'white'
p1233
sg8
(lp1234
sg10
S'Likely'
p1235
sg12
S'Many'
p1236
sg14
S'k'
p1237
sg16
I5
sg17
S'Nat'
p1238
sg19
S'Naturlig utloest'
p1239
sg21
Nsg22
S'400'
p1240
sg24
S'1800'
p1241
sg26
S'Mange bratte heng'
p1242
sg28
Nsg39
g1020
sg41
S'4 - Store'
p1243
sba(irunmatrix
M3Element
p1244
(dp1245
g3
Nsg4
S'Lite sannsynlig, Mulig'
p1246
sg6
S'gray'
p1247
sg8
(lp1248
sg10
S'Possible'
p1249
sg12
S'Most'
p1250
sg14
g76
sg16
I0
sg17
S'High'
p1251
sg19
S'Stor tilleggsbelastning'
p1252
sg21
Nsg22
S'400'
p1253
sg24
S'1900'
p1254
sg26
S'De fleste bratte heng, Ogsaa i mindre bratt terreng'
p1255
sg28
Nsg39
g1020
sg41
S'4 - Store'
p1256
sba(irunmatrix
M3Element
p1257
(dp1258
g3
Nsg4
S'Lite sannsynlig, Mulig'
p1259
sg6
S'gray'
p1260
sg8
(lp1261
sg10
S'Possible'
p1262
sg12
S'Most'
p1263
sg14
g76
sg16
I0
sg17
S'Low'
p1264
sg19
S'Liten tilleggsbelastning'
p1265
sg21
Nsg22
S'400'
p1266
sg24
S'2000'
p1267
sg26
S'De fleste bratte heng, Ogsaa i mindre bratt terreng'
p1268
sg28
Nsg39
g1020
sg41
S'4 - Store'
p1269
sba(irunmatrix
M3Element
p1270
(dp1271
g3
Nsg4
S'Lite sannsynlig, Mulig'
p1272
sg6
S'gray'
p1273
sg8
(lp1274
sg10
S'Possible'
p1275
sg12
S'Most'
p1276
sg14
g76
sg16
I0
sg17
S'Nat'
p1277
sg19
S'Naturlig utloest'
p1278
sg21
Nsg22
S'400'
p1279
sg24
S'2100'
p1280
sg26
S'De fleste bratte heng, Ogsaa i mindre bratt terreng'
p1281
sg28
Nsg39
g1020
sg41
S'4 - Store'
p1282
sba(irunmatrix
M3Element
p1283
(dp1284
g3
Nsg4
S'Sannsynlig, Meget sannsynlig'
p1285
sg6
S'gray'
p1286
sg8
(lp1287
sg10
S'Likely'
p1288
sg12
S'Most'
p1289
sg14
g76
sg16
I0
sg17
S'High'
p1290
sg19
S'Stor tilleggsbelastning'
p1291
sg21
Nsg22
S'400'
p1292
sg24
S'2200'
p1293
sg26
S'De fleste bratte heng, Ogsaa i mindre bratt terreng'
p1294
sg28
Nsg39
g1020
sg41
S'4 - Store'
p1295
sba(irunmatrix
M3Element
p1296
(dp1297
g3
Nsg4
S'Sannsynlig, Meget sannsynlig'
p1298
sg6
S'gray'
p1299
sg8
(lp1300
sg10
S'Likely'
p1301
sg12
S'Most'
p1302
sg14
g76
sg16
I0
sg17
S'Low'
p1303
sg19
S'Liten tilleggsbelastning'
p1304
sg21
Nsg22
S'400'
p1305
sg24
S'2300'
p1306
sg26
S'De fleste bratte heng, Ogsaa i mindre bratt terreng'
p1307
sg28
Nsg39
g1020
sg41
S'4 - Store'
p1308
sba(irunmatrix
M3Element
p1309
(dp1310
g3
Nsg4
S'Sannsynlig, Meget sannsynlig'
p1311
sg6
S'white'
p1312
sg8
(lp1313
sg10
S'Likely'
p1314
sg12
S'Most'
p1315
sg14
g76
sg16
I0
sg17
S'Nat'
p1316
sg19
S'Naturlig utloest'
p1317
sg21
Nsg22
S'400'
p1318
sg24
S'2400'
p1319
sg26
S'De fleste bratte heng, Ogsaa i mindre bratt terreng'
p1320
sg28
Nsg39
g1020
sg41
S'4 - Store'
p1321
sba(irunmatrix
M3Element
p1322
(dp1323
g3
Nsg4
S'Lite sannsynlig, Mulig'
p1324
sg6
S'white'
p1325
sg8
(lp1326
sg10
S'Possible'
p1327
sg12
S'Isolated'
p1328
sg14
g76
sg16
I0
sg17
S'High'
p1329
sg19
S'Stor tilleggsbelastning'
p1330
sg21
Nsg22
S'500'
p1331
sg24
S'100'
p1332
sg26
S'Isolerte faresoner'
p1333
sg28
Nsg39
S'5'
p1334
sg41
S'5 - Svaert store'
p1335
sba(irunmatrix
M3Element
p1336
(dp1337
g3
Nsg4
S'Lite sannsynlig, Mulig'
p1338
sg6
S'white'
p1339
sg8
(lp1340
sg10
S'Possible'
p1341
sg12
S'Isolated'
p1342
sg14
g76
sg16
I0
sg17
S'Low'
p1343
sg19
S'Liten tilleggsbelastning'
p1344
sg21
Nsg22
S'500'
p1345
sg24
S'200'
p1346
sg26
S'Isolerte faresoner'
p1347
sg28
Nsg39
g1334
sg41
S'5 - Svaert store'
p1348
sba(irunmatrix
M3Element
p1349
(dp1350
g3
Nsg4
S'Lite sannsynlig, Mulig'
p1351
sg6
S'white'
p1352
sg8
(lp1353
sg10
S'Possible'
p1354
sg12
S'Isolated'
p1355
sg14
g76
sg16
I0
sg17
S'Nat'
p1356
sg19
S'Naturlig utloest'
p1357
sg21
Nsg22
S'500'
p1358
sg24
S'300'
p1359
sg26
S'Isolerte faresoner'
p1360
sg28
Nsg39
g1334
sg41
S'5 - Svaert store'
p1361
sba(irunmatrix
M3Element
p1362
(dp1363
g3
Nsg4
S'Sannsynlig, Meget sannsynlig'
p1364
sg6
S'gray'
p1365
sg8
(lp1366
sg10
S'Likely'
p1367
sg12
S'Isolated'
p1368
sg14
g76
sg16
I0
sg17
S'High'
p1369
sg19
S'Stor tilleggsbelastning'
p1370
sg21
Nsg22
S'500'
p1371
sg24
S'400'
p1372
sg26
S'Isolerte faresoner'
p1373
sg28
Nsg39
g1334
sg41
S'5 - Svaert store'
p1374
sba(irunmatrix
M3Element
p1375
(dp1376
g3
Nsg4
S'Sannsynlig, Meget sannsynlig'
p1377
sg6
S'gray'
p1378
sg8
(lp1379
sg10
S'Likely'
p1380
sg12
S'Isolated'
p1381
sg14
g76
sg16
I0
sg17
S'Low'
p1382
sg19
S'Liten tilleggsbelastning'
p1383
sg21
Nsg22
S'500'
p1384
sg24
S'500'
p1385
sg26
S'Isolerte faresoner'
p1386
sg28
Nsg39
g1334
sg41
S'5 - Svaert store'
p1387
sba(irunmatrix
M3Element
p1388
(dp1389
g3
Nsg4
S'Sannsynlig, Meget sannsynlig'
p1390
sg6
S'gray'
p1391
sg8
(lp1392
sg10
S'Likely'
p1393
sg12
S'Isolated'
p1394
sg14
g76
sg16
I0
sg17
S'Nat'
p1395
sg19
S'Naturlig utloest'
p1396
sg21
Nsg22
S'500'
p1397
sg24
S'600'
p1398
sg26
S'Isolerte faresoner'
p1399
sg28
Nsg39
g1334
sg41
S'5 - Svaert store'
p1400
sba(irunmatrix
M3Element
p1401
(dp1402
g3
Nsg4
S'Lite sannsynlig, Mulig'
p1403
sg6
S'white'
p1404
sg8
(lp1405
sg10
S'Possible'
p1406
sg12
S'Some'
p1407
sg14
g76
sg16
I0
sg17
S'High'
p1408
sg19
S'Stor tilleggsbelastning'
p1409
sg21
Nsg22
S'500'
p1410
sg24
S'700'
p1411
sg26
S'Noen bratte heng'
p1412
sg28
Nsg39
g1334
sg41
S'5 - Svaert store'
p1413
sba(irunmatrix
M3Element
p1414
(dp1415
g3
Nsg4
S'Lite sannsynlig, Mulig'
p1416
sg6
S'white'
p1417
sg8
(lp1418
sg10
S'Possible'
p1419
sg12
S'Some'
p1420
sg14
g76
sg16
I0
sg17
S'Low'
p1421
sg19
S'Liten tilleggsbelastning'
p1422
sg21
Nsg22
S'500'
p1423
sg24
S'800'
p1424
sg26
S'Noen bratte heng'
p1425
sg28
Nsg39
g1334
sg41
S'5 - Svaert store'
p1426
sba(irunmatrix
M3Element
p1427
(dp1428
g3
Nsg4
S'Lite sannsynlig, Mulig'
p1429
sg6
S'white'
p1430
sg8
(lp1431
sg10
S'Possible'
p1432
sg12
S'Some'
p1433
sg14
g76
sg16
I0
sg17
S'Nat'
p1434
sg19
S'Naturlig utloest'
p1435
sg21
Nsg22
S'500'
p1436
sg24
S'900'
p1437
sg26
S'Noen bratte heng'
p1438
sg28
Nsg39
g1334
sg41
S'5 - Svaert store'
p1439
sba(irunmatrix
M3Element
p1440
(dp1441
g3
Nsg4
S'Sannsynlig, Meget sannsynlig'
p1442
sg6
S'gray'
p1443
sg8
(lp1444
sg10
S'Likely'
p1445
sg12
S'Some'
p1446
sg14
g76
sg16
I0
sg17
S'High'
p1447
sg19
S'Stor tilleggsbelastning'
p1448
sg21
Nsg22
S'500'
p1449
sg24
S'1000'
p1450
sg26
S'Noen bratte heng'
p1451
sg28
Nsg39
g1334
sg41
S'5 - Svaert store'
p1452
sba(irunmatrix
M3Element
p1453
(dp1454
g3
Nsg4
S'Sannsynlig, Meget sannsynlig'
p1455
sg6
S'gray'
p1456
sg8
(lp1457
sg10
S'Likely'
p1458
sg12
S'Some'
p1459
sg14
g76
sg16
I0
sg17
S'Low'
p1460
sg19
S'Liten tilleggsbelastning'
p1461
sg21
Nsg22
S'500'
p1462
sg24
S'1100'
p1463
sg26
S'Noen bratte heng'
p1464
sg28
Nsg39
g1334
sg41
S'5 - Svaert store'
p1465
sba(irunmatrix
M3Element
p1466
(dp1467
g3
Nsg4
S'Sannsynlig, Meget sannsynlig'
p1468
sg6
S'white'
p1469
sg8
(lp1470
sg10
S'Likely'
p1471
sg12
S'Some'
p1472
sg14
g76
sg16
I0
sg17
S'Nat'
p1473
sg19
S'Naturlig utloest'
p1474
sg21
Nsg22
S'500'
p1475
sg24
S'1200'
p1476
sg26
S'Noen bratte heng'
p1477
sg28
Nsg39
g1334
sg41
S'5 - Svaert store'
p1478
sba(irunmatrix
M3Element
p1479
(dp1480
g3
Nsg4
S'Lite sannsynlig, Mulig'
p1481
sg6
S'gray'
p1482
sg8
(lp1483
sg10
S'Possible'
p1484
sg12
S'Many'
p1485
sg14
g76
sg16
I0
sg17
S'High'
p1486
sg19
S'Stor tilleggsbelastning'
p1487
sg21
Nsg22
S'500'
p1488
sg24
S'1300'
p1489
sg26
S'Mange bratte heng'
p1490
sg28
Nsg39
g1334
sg41
S'5 - Svaert store'
p1491
sba(irunmatrix
M3Element
p1492
(dp1493
g3
Nsg4
S'Lite sannsynlig, Mulig'
p1494
sg6
S'white'
p1495
sg8
(lp1496
sg10
S'Possible'
p1497
sg12
S'Many'
p1498
sg14
g76
sg16
I0
sg17
S'Low'
p1499
sg19
S'Liten tilleggsbelastning'
p1500
sg21
Nsg22
S'500'
p1501
sg24
S'1400'
p1502
sg26
S'Mange bratte heng'
p1503
sg28
Nsg39
g1334
sg41
S'5 - Svaert store'
p1504
sba(irunmatrix
M3Element
p1505
(dp1506
g3
Nsg4
S'Lite sannsynlig, Mulig'
p1507
sg6
S'gray'
p1508
sg8
(lp1509
sg10
S'Possible'
p1510
sg12
S'Many'
p1511
sg14
g76
sg16
I0
sg17
S'Nat'
p1512
sg19
S'Naturlig utloest'
p1513
sg21
Nsg22
S'500'
p1514
sg24
S'1500'
p1515
sg26
S'Mange bratte heng'
p1516
sg28
Nsg39
g1334
sg41
S'5 - Svaert store'
p1517
sba(irunmatrix
M3Element
p1518
(dp1519
g3
Nsg4
S'Sannsynlig, Meget sannsynlig'
p1520
sg6
S'gray'
p1521
sg8
(lp1522
sg10
S'Likely'
p1523
sg12
S'Many'
p1524
sg14
g76
sg16
I0
sg17
S'High'
p1525
sg19
S'Stor tilleggsbelastning'
p1526
sg21
Nsg22
S'500'
p1527
sg24
S'1600'
p1528
sg26
S'Mange bratte heng'
p1529
sg28
Nsg39
g1334
sg41
S'5 - Svaert store'
p1530
sba(irunmatrix
M3Element
p1531
(dp1532
g3
Nsg4
S'Sannsynlig, Meget sannsynlig'
p1533
sg6
S'white'
p1534
sg8
(lp1535
sg10
S'Likely'
p1536
sg12
S'Many'
p1537
sg14
g76
sg16
I0
sg17
S'Low'
p1538
sg19
S'Liten tilleggsbelastning'
p1539
sg21
Nsg22
S'500'
p1540
sg24
S'1700'
p1541
sg26
S'Mange bratte heng'
p1542
sg28
Nsg39
g1334
sg41
S'5 - Svaert store'
p1543
sba(irunmatrix
M3Element
p1544
(dp1545
g3
Nsg4
S'Sannsynlig, Meget sannsynlig'
p1546
sg6
S'white'
p1547
sg8
(lp1548
sg10
S'Likely'
p1549
sg12
S'Many'
p1550
sg14
g1237
sg16
I5
sg17
S'Nat'
p1551
sg19
S'Naturlig utloest'
p1552
sg21
Nsg22
S'500'
p1553
sg24
S'1800'
p1554
sg26
S'Mange bratte heng'
p1555
sg28
Nsg39
g1334
sg41
S'5 - Svaert store'
p1556
sba(irunmatrix
M3Element
p1557
(dp1558
g3
Nsg4
S'Lite sannsynlig, Mulig'
p1559
sg6
S'gray'
p1560
sg8
(lp1561
sg10
S'Possible'
p1562
sg12
S'Most'
p1563
sg14
g76
sg16
I0
sg17
S'High'
p1564
sg19
S'Stor tilleggsbelastning'
p1565
sg21
Nsg22
S'500'
p1566
sg24
S'1900'
p1567
sg26
S'De fleste bratte heng, Ogsaa i mindre bratt terreng'
p1568
sg28
Nsg39
g1334
sg41
S'5 - Svaert store'
p1569
sba(irunmatrix
M3Element
p1570
(dp1571
g3
Nsg4
S'Lite sannsynlig, Mulig'
p1572
sg6
S'gray'
p1573
sg8
(lp1574
sg10
S'Possible'
p1575
sg12
S'Most'
p1576
sg14
g76
sg16
I0
sg17
S'Low'
p1577
sg19
S'Liten tilleggsbelastning'
p1578
sg21
Nsg22
S'500'
p1579
sg24
S'2000'
p1580
sg26
S'De fleste bratte heng, Ogsaa i mindre bratt terreng'
p1581
sg28
Nsg39
g1334
sg41
S'5 - Svaert store'
p1582
sba(irunmatrix
M3Element
p1583
(dp1584
g3
Nsg4
S'Lite sannsynlig, Mulig'
p1585
sg6
S'gray'
p1586
sg8
(lp1587
sg10
S'Possible'
p1588
sg12
S'Most'
p1589
sg14
g76
sg16
I0
sg17
S'Nat'
p1590
sg19
S'Naturlig utloest'
p1591
sg21
Nsg22
S'500'
p1592
sg24
S'2100'
p1593
sg26
S'De fleste bratte heng, Ogsaa i mindre bratt terreng'
p1594
sg28
Nsg39
g1334
sg41
S'5 - Svaert store'
p1595
sba(irunmatrix
M3Element
p1596
(dp1597
g3
Nsg4
S'Sannsynlig, Meget sannsynlig'
p1598
sg6
S'gray'
p1599
sg8
(lp1600
sg10
S'Likely'
p1601
sg12
S'Most'
p1602
sg14
g76
sg16
I0
sg17
S'High'
p1603
sg19
S'Stor tilleggsbelastning'
p1604
sg21
Nsg22
S'500'
p1605
sg24
S'2200'
p1606
sg26
S'De fleste bratte heng, Ogsaa i mindre bratt terreng'
p1607
sg28
Nsg39
g1334
sg41
S'5 - Svaert store'
p1608
sba(irunmatrix
M3Element
p1609
(dp1610
g3
Nsg4
S'Sannsynlig, Meget sannsynlig'
p1611
sg6
S'gray'
p1612
sg8
(lp1613
sg10
S'Likely'
p1614
sg12
S'Most'
p1615
sg14
g76
sg16
I0
sg17
S'Low'
p1616
sg19
S'Liten tilleggsbelastning'
p1617
sg21
Nsg22
S'500'
p1618
sg24
S'2300'
p1619
sg26
S'De fleste bratte heng, Ogsaa i mindre bratt terreng'
p1620
sg28
Nsg39
g1334
sg41
S'5 - Svaert store'
p1621
sba(irunmatrix
M3Element
p1622
(dp1623
g3
Nsg4
S'Sannsynlig, Meget sannsynlig'
p1624
sg6
S'white'
p1625
sg8
(lp1626
sg10
S'Likely'
p1627
sg12
S'Most'
p1628
sg14
g76
sg16
I0
sg17
S'Nat'
p1629
sg19
S'Naturlig utloest'
p1630
sg21
Nsg22
S'500'
p1631
sg24
S'2400'
p1632
sg26
S'De fleste bratte heng, Ogsaa i mindre bratt terreng'
p1633
sg28
Nsg39
g1334
sg41
S'5 - Svaert store'
p1634
sba.