(dp0
S'trigger'
p1
(dp2
S'keys'
p3
(lp4
S'Stor tilleggsbelastning'
p5
aS'Liten tilleggsbelastning'
p6
aS'Naturlig utloest'
p7
asS'colors'
p8
(lp9
S'0.7'
p10
asS'values'
p11
(lp12
S'Naturlig utloest'
p13
aS'Liten tilleggsbelastning'
p14
aS'Liten tilleggsbelastning'
p15
aS'Naturlig utloest'
p16
aS'Naturlig utloest'
p17
aS'Naturlig utloest'
p18
aS'Naturlig utloest'
p19
aS'Stor tilleggsbelastning'
p20
aS'Liten tilleggsbelastning'
p21
aS'Liten tilleggsbelastning'
p22
aS'Liten tilleggsbelastning'
p23
aS'Liten tilleggsbelastning'
p24
aS'Naturlig utloest'
p25
aS'Naturlig utloest'
p26
aS'Naturlig utloest'
p27
aS'Liten tilleggsbelastning'
p28
aS'Liten tilleggsbelastning'
p29
aS'Naturlig utloest'
p30
aS'Naturlig utloest'
p31
aS'Liten tilleggsbelastning'
p32
aS'Liten tilleggsbelastning'
p33
aS'Liten tilleggsbelastning'
p34
aS'Liten tilleggsbelastning'
p35
aS'Liten tilleggsbelastning'
p36
aS'Liten tilleggsbelastning'
p37
aS'Liten tilleggsbelastning'
p38
aS'Liten tilleggsbelastning'
p39
aS'Liten tilleggsbelastning'
p40
aS'Liten tilleggsbelastning'
p41
aS'Liten tilleggsbelastning'
p42
aS'Liten tilleggsbelastning'
p43
aS'Naturlig utloest'
p44
aS'Liten tilleggsbelastning'
p45
aS'Liten tilleggsbelastning'
p46
aS'Liten tilleggsbelastning'
p47
aS'Liten tilleggsbelastning'
p48
aS'Naturlig utloest'
p49
aS'Naturlig utloest'
p50
aS'Naturlig utloest'
p51
aS'Naturlig utloest'
p52
aS'Liten tilleggsbelastning'
p53
aS'Liten tilleggsbelastning'
p54
aS'Liten tilleggsbelastning'
p55
aS'Naturlig utloest'
p56
aS'Liten tilleggsbelastning'
p57
aS'Liten tilleggsbelastning'
p58
aS'Liten tilleggsbelastning'
p59
aS'Liten tilleggsbelastning'
p60
aS'Liten tilleggsbelastning'
p61
aS'Liten tilleggsbelastning'
p62
aS'Liten tilleggsbelastning'
p63
aS'Liten tilleggsbelastning'
p64
aS'Liten tilleggsbelastning'
p65
aS'Liten tilleggsbelastning'
p66
aS'Liten tilleggsbelastning'
p67
aS'Liten tilleggsbelastning'
p68
aS'Liten tilleggsbelastning'
p69
aS'Liten tilleggsbelastning'
p70
aS'Naturlig utloest'
p71
aS'Liten tilleggsbelastning'
p72
aS'Liten tilleggsbelastning'
p73
aS'Liten tilleggsbelastning'
p74
aS'Liten tilleggsbelastning'
p75
aS'Liten tilleggsbelastning'
p76
aS'Liten tilleggsbelastning'
p77
aS'Liten tilleggsbelastning'
p78
aS'Liten tilleggsbelastning'
p79
aS'Liten tilleggsbelastning'
p80
aS'Liten tilleggsbelastning'
p81
aS'Stor tilleggsbelastning'
p82
aS'Naturlig utloest'
p83
aS'Naturlig utloest'
p84
aS'Naturlig utloest'
p85
aS'Liten tilleggsbelastning'
p86
aS'Naturlig utloest'
p87
aS'Naturlig utloest'
p88
aS'Liten tilleggsbelastning'
p89
aS'Liten tilleggsbelastning'
p90
aS'Liten tilleggsbelastning'
p91
aS'Naturlig utloest'
p92
aS'Naturlig utloest'
p93
aS'Naturlig utloest'
p94
aS'Naturlig utloest'
p95
aS'Naturlig utloest'
p96
aS'Naturlig utloest'
p97
aS'Naturlig utloest'
p98
aS'Naturlig utloest'
p99
aS'Naturlig utloest'
p100
aS'Naturlig utloest'
p101
aS'Naturlig utloest'
p102
aS'Naturlig utloest'
p103
aS'Liten tilleggsbelastning'
p104
aS'Liten tilleggsbelastning'
p105
aS'Naturlig utloest'
p106
aS'Naturlig utloest'
p107
aS'Naturlig utloest'
p108
aS'Naturlig utloest'
p109
aS'Liten tilleggsbelastning'
p110
aS'Liten tilleggsbelastning'
p111
aS'Liten tilleggsbelastning'
p112
aS'Liten tilleggsbelastning'
p113
aS'Liten tilleggsbelastning'
p114
aS'Naturlig utloest'
p115
aS'Stor tilleggsbelastning'
p116
aS'Stor tilleggsbelastning'
p117
aS'Liten tilleggsbelastning'
p118
aS'Liten tilleggsbelastning'
p119
aS'Liten tilleggsbelastning'
p120
aS'Liten tilleggsbelastning'
p121
aS'Naturlig utloest'
p122
aS'Liten tilleggsbelastning'
p123
aS'Liten tilleggsbelastning'
p124
aS'Liten tilleggsbelastning'
p125
aS'Liten tilleggsbelastning'
p126
aS'Liten tilleggsbelastning'
p127
aS'Liten tilleggsbelastning'
p128
aS'Liten tilleggsbelastning'
p129
aS'Liten tilleggsbelastning'
p130
aS'Liten tilleggsbelastning'
p131
aS'Liten tilleggsbelastning'
p132
aS'Liten tilleggsbelastning'
p133
aS'Liten tilleggsbelastning'
p134
aS'Liten tilleggsbelastning'
p135
aS'Liten tilleggsbelastning'
p136
aS'Liten tilleggsbelastning'
p137
aS'Liten tilleggsbelastning'
p138
aS'Liten tilleggsbelastning'
p139
aS'Liten tilleggsbelastning'
p140
aS'Naturlig utloest'
p141
aS'Naturlig utloest'
p142
aS'Naturlig utloest'
p143
aS'Liten tilleggsbelastning'
p144
aS'Liten tilleggsbelastning'
p145
aS'Liten tilleggsbelastning'
p146
aS'Naturlig utloest'
p147
aS'Naturlig utloest'
p148
aS'Naturlig utloest'
p149
aS'Naturlig utloest'
p150
aS'Naturlig utloest'
p151
aS'Naturlig utloest'
p152
aS'Naturlig utloest'
p153
aS'Liten tilleggsbelastning'
p154
aS'Liten tilleggsbelastning'
p155
aS'Liten tilleggsbelastning'
p156
aS'Liten tilleggsbelastning'
p157
aS'Liten tilleggsbelastning'
p158
aS'Liten tilleggsbelastning'
p159
aS'Liten tilleggsbelastning'
p160
aS'Liten tilleggsbelastning'
p161
aS'Liten tilleggsbelastning'
p162
aS'Liten tilleggsbelastning'
p163
aS'Naturlig utloest'
p164
aS'Liten tilleggsbelastning'
p165
aS'Naturlig utloest'
p166
aS'Naturlig utloest'
p167
aS'Naturlig utloest'
p168
aS'Naturlig utloest'
p169
aS'Naturlig utloest'
p170
aS'Naturlig utloest'
p171
aS'Liten tilleggsbelastning'
p172
aS'Naturlig utloest'
p173
aS'Naturlig utloest'
p174
aS'Naturlig utloest'
p175
aS'Naturlig utloest'
p176
aS'Naturlig utloest'
p177
aS'Naturlig utloest'
p178
aS'Stor tilleggsbelastning'
p179
aS'Naturlig utloest'
p180
aS'Naturlig utloest'
p181
aS'Naturlig utloest'
p182
aS'Naturlig utloest'
p183
aS'Naturlig utloest'
p184
aS'Naturlig utloest'
p185
aS'Naturlig utloest'
p186
aS'Naturlig utloest'
p187
aS'Naturlig utloest'
p188
aS'Liten tilleggsbelastning'
p189
aS'Liten tilleggsbelastning'
p190
aS'Liten tilleggsbelastning'
p191
assS'distribution'
p192
(dp193
g3
(lp194
S'Isolerte faresoner'
p195
aS'Noen bratte heng'
p196
aS'Mange bratte heng'
p197
aS'De fleste bratte heng'
p198
aS'Ogsaa i mindre bratt terreng'
p199
asg8
(lp200
g10
asg11
(lp201
S'Isolerte faresoner'
p202
aS'Noen bratte heng'
p203
aS'Noen bratte heng'
p204
aS'Noen bratte heng'
p205
aS'Noen bratte heng'
p206
aS'Noen bratte heng'
p207
aS'Noen bratte heng'
p208
aS'Isolerte faresoner'
p209
aS'Noen bratte heng'
p210
aS'Noen bratte heng'
p211
aS'Noen bratte heng'
p212
aS'Noen bratte heng'
p213
aS'Noen bratte heng'
p214
aS'Noen bratte heng'
p215
aS'Noen bratte heng'
p216
aS'Noen bratte heng'
p217
aS'Noen bratte heng'
p218
aS'Noen bratte heng'
p219
aS'Noen bratte heng'
p220
aS'Noen bratte heng'
p221
aS'Noen bratte heng'
p222
aS'Noen bratte heng'
p223
aS'Noen bratte heng'
p224
aS'Noen bratte heng'
p225
aS'Mange bratte heng'
p226
aS'Mange bratte heng'
p227
aS'Mange bratte heng'
p228
aS'Mange bratte heng'
p229
aS'Noen bratte heng'
p230
aS'Noen bratte heng'
p231
aS'Noen bratte heng'
p232
aS'Isolerte faresoner'
p233
aS'Noen bratte heng'
p234
aS'Noen bratte heng'
p235
aS'Noen bratte heng'
p236
aS'Noen bratte heng'
p237
aS'Noen bratte heng'
p238
aS'Noen bratte heng'
p239
aS'Noen bratte heng'
p240
aS'Noen bratte heng'
p241
aS'Noen bratte heng'
p242
aS'Noen bratte heng'
p243
aS'Noen bratte heng'
p244
aS'Isolerte faresoner'
p245
aS'Noen bratte heng'
p246
aS'Noen bratte heng'
p247
aS'Noen bratte heng'
p248
aS'Noen bratte heng'
p249
aS'Noen bratte heng'
p250
aS'Noen bratte heng'
p251
aS'Noen bratte heng'
p252
aS'Noen bratte heng'
p253
aS'Mange bratte heng'
p254
aS'Mange bratte heng'
p255
aS'Noen bratte heng'
p256
aS'Noen bratte heng'
p257
aS'Mange bratte heng'
p258
aS'Mange bratte heng'
p259
aS'Noen bratte heng'
p260
aS'Noen bratte heng'
p261
aS'Noen bratte heng'
p262
aS'Noen bratte heng'
p263
aS'Noen bratte heng'
p264
aS'Noen bratte heng'
p265
aS'Noen bratte heng'
p266
aS'Noen bratte heng'
p267
aS'Noen bratte heng'
p268
aS'Noen bratte heng'
p269
aS'Noen bratte heng'
p270
aS'Noen bratte heng'
p271
aS'Noen bratte heng'
p272
aS'Noen bratte heng'
p273
aS'Noen bratte heng'
p274
aS'Noen bratte heng'
p275
aS'Noen bratte heng'
p276
aS'Noen bratte heng'
p277
aS'Noen bratte heng'
p278
aS'Noen bratte heng'
p279
aS'Noen bratte heng'
p280
aS'Noen bratte heng'
p281
aS'Noen bratte heng'
p282
aS'Noen bratte heng'
p283
aS'Noen bratte heng'
p284
aS'Noen bratte heng'
p285
aS'Noen bratte heng'
p286
aS'Noen bratte heng'
p287
aS'Noen bratte heng'
p288
aS'Noen bratte heng'
p289
aS'Noen bratte heng'
p290
aS'Mange bratte heng'
p291
aS'Noen bratte heng'
p292
aS'Mange bratte heng'
p293
aS'Noen bratte heng'
p294
aS'Noen bratte heng'
p295
aS'Noen bratte heng'
p296
aS'Noen bratte heng'
p297
aS'Mange bratte heng'
p298
aS'Isolerte faresoner'
p299
aS'Isolerte faresoner'
p300
aS'Isolerte faresoner'
p301
aS'Isolerte faresoner'
p302
aS'Isolerte faresoner'
p303
aS'Noen bratte heng'
p304
aS'Noen bratte heng'
p305
aS'Noen bratte heng'
p306
aS'Noen bratte heng'
p307
aS'Noen bratte heng'
p308
aS'Noen bratte heng'
p309
aS'Noen bratte heng'
p310
aS'Noen bratte heng'
p311
aS'Noen bratte heng'
p312
aS'Noen bratte heng'
p313
aS'Noen bratte heng'
p314
aS'Noen bratte heng'
p315
aS'Noen bratte heng'
p316
aS'Noen bratte heng'
p317
aS'Noen bratte heng'
p318
aS'Noen bratte heng'
p319
aS'Noen bratte heng'
p320
aS'Noen bratte heng'
p321
aS'Noen bratte heng'
p322
aS'Noen bratte heng'
p323
aS'Noen bratte heng'
p324
aS'Noen bratte heng'
p325
aS'Noen bratte heng'
p326
aS'Noen bratte heng'
p327
aS'Noen bratte heng'
p328
aS'Noen bratte heng'
p329
aS'Noen bratte heng'
p330
aS'Noen bratte heng'
p331
aS'Noen bratte heng'
p332
aS'Noen bratte heng'
p333
aS'Noen bratte heng'
p334
aS'Noen bratte heng'
p335
aS'Noen bratte heng'
p336
aS'Noen bratte heng'
p337
aS'Noen bratte heng'
p338
aS'Mange bratte heng'
p339
aS'Mange bratte heng'
p340
aS'Mange bratte heng'
p341
aS'Mange bratte heng'
p342
aS'Isolerte faresoner'
p343
aS'Isolerte faresoner'
p344
aS'Isolerte faresoner'
p345
aS'Isolerte faresoner'
p346
aS'Noen bratte heng'
p347
aS'Isolerte faresoner'
p348
aS'Isolerte faresoner'
p349
aS'Noen bratte heng'
p350
aS'Noen bratte heng'
p351
aS'Noen bratte heng'
p352
aS'Noen bratte heng'
p353
aS'Noen bratte heng'
p354
aS'Noen bratte heng'
p355
aS'Noen bratte heng'
p356
aS'Mange bratte heng'
p357
aS'Mange bratte heng'
p358
aS'Mange bratte heng'
p359
aS'Mange bratte heng'
p360
aS'Noen bratte heng'
p361
aS'Mange bratte heng'
p362
aS'Mange bratte heng'
p363
aS'Noen bratte heng'
p364
aS'Noen bratte heng'
p365
aS'Noen bratte heng'
p366
aS'Noen bratte heng'
p367
aS'Isolerte faresoner'
p368
aS'Noen bratte heng'
p369
aS'Noen bratte heng'
p370
aS'Noen bratte heng'
p371
aS'Noen bratte heng'
p372
aS'Noen bratte heng'
p373
aS'Noen bratte heng'
p374
aS'Noen bratte heng'
p375
aS'Noen bratte heng'
p376
aS'Noen bratte heng'
p377
aS'Isolerte faresoner'
p378
aS'Isolerte faresoner'
p379
aS'Isolerte faresoner'
p380
assS'size'
p381
(dp382
g3
(lp383
S'1 - Harmloest'
p384
aS'2 - Smaa'
p385
aS'3 - Middels'
p386
aS'4 - Store'
p387
aS'5 - Svaert store'
p388
aS'Ukjent'
p389
asg8
(lp390
g10
asg11
(lp391
S'2 - Smaa'
p392
aS'2 - Smaa'
p393
aS'2 - Smaa'
p394
aS'3 - Middels'
p395
aS'3 - Middels'
p396
aS'3 - Middels'
p397
aS'3 - Middels'
p398
aS'2 - Smaa'
p399
aS'3 - Middels'
p400
aS'3 - Middels'
p401
aS'3 - Middels'
p402
aS'2 - Smaa'
p403
aS'3 - Middels'
p404
aS'3 - Middels'
p405
aS'3 - Middels'
p406
aS'2 - Smaa'
p407
aS'2 - Smaa'
p408
aS'3 - Middels'
p409
aS'3 - Middels'
p410
aS'3 - Middels'
p411
aS'2 - Smaa'
p412
aS'2 - Smaa'
p413
aS'2 - Smaa'
p414
aS'2 - Smaa'
p415
aS'2 - Smaa'
p416
aS'2 - Smaa'
p417
aS'2 - Smaa'
p418
aS'2 - Smaa'
p419
aS'3 - Middels'
p420
aS'3 - Middels'
p421
aS'3 - Middels'
p422
aS'3 - Middels'
p423
aS'2 - Smaa'
p424
aS'2 - Smaa'
p425
aS'2 - Smaa'
p426
aS'2 - Smaa'
p427
aS'3 - Middels'
p428
aS'3 - Middels'
p429
aS'3 - Middels'
p430
aS'3 - Middels'
p431
aS'2 - Smaa'
p432
aS'2 - Smaa'
p433
aS'2 - Smaa'
p434
aS'3 - Middels'
p435
aS'2 - Smaa'
p436
aS'2 - Smaa'
p437
aS'2 - Smaa'
p438
aS'3 - Middels'
p439
aS'2 - Smaa'
p440
aS'2 - Smaa'
p441
aS'2 - Smaa'
p442
aS'2 - Smaa'
p443
aS'2 - Smaa'
p444
aS'2 - Smaa'
p445
aS'3 - Middels'
p446
aS'2 - Smaa'
p447
aS'2 - Smaa'
p448
aS'2 - Smaa'
p449
aS'3 - Middels'
p450
aS'3 - Middels'
p451
aS'3 - Middels'
p452
aS'3 - Middels'
p453
aS'2 - Smaa'
p454
aS'3 - Middels'
p455
aS'3 - Middels'
p456
aS'3 - Middels'
p457
aS'3 - Middels'
p458
aS'3 - Middels'
p459
aS'3 - Middels'
p460
aS'2 - Smaa'
p461
aS'3 - Middels'
p462
aS'3 - Middels'
p463
aS'3 - Middels'
p464
aS'2 - Smaa'
p465
aS'3 - Middels'
p466
aS'3 - Middels'
p467
aS'2 - Smaa'
p468
aS'2 - Smaa'
p469
aS'2 - Smaa'
p470
aS'3 - Middels'
p471
aS'3 - Middels'
p472
aS'3 - Middels'
p473
aS'3 - Middels'
p474
aS'3 - Middels'
p475
aS'3 - Middels'
p476
aS'2 - Smaa'
p477
aS'2 - Smaa'
p478
aS'2 - Smaa'
p479
aS'2 - Smaa'
p480
aS'2 - Smaa'
p481
aS'2 - Smaa'
p482
aS'2 - Smaa'
p483
aS'3 - Middels'
p484
aS'3 - Middels'
p485
aS'3 - Middels'
p486
aS'3 - Middels'
p487
aS'2 - Smaa'
p488
aS'3 - Middels'
p489
aS'3 - Middels'
p490
aS'3 - Middels'
p491
aS'3 - Middels'
p492
aS'3 - Middels'
p493
aS'2 - Smaa'
p494
aS'2 - Smaa'
p495
aS'2 - Smaa'
p496
aS'2 - Smaa'
p497
aS'2 - Smaa'
p498
aS'2 - Smaa'
p499
aS'2 - Smaa'
p500
aS'2 - Smaa'
p501
aS'2 - Smaa'
p502
aS'2 - Smaa'
p503
aS'2 - Smaa'
p504
aS'2 - Smaa'
p505
aS'2 - Smaa'
p506
aS'2 - Smaa'
p507
aS'2 - Smaa'
p508
aS'2 - Smaa'
p509
aS'2 - Smaa'
p510
aS'2 - Smaa'
p511
aS'2 - Smaa'
p512
aS'2 - Smaa'
p513
aS'2 - Smaa'
p514
aS'2 - Smaa'
p515
aS'2 - Smaa'
p516
aS'2 - Smaa'
p517
aS'2 - Smaa'
p518
aS'2 - Smaa'
p519
aS'2 - Smaa'
p520
aS'2 - Smaa'
p521
aS'2 - Smaa'
p522
aS'3 - Middels'
p523
aS'3 - Middels'
p524
aS'3 - Middels'
p525
aS'2 - Smaa'
p526
aS'2 - Smaa'
p527
aS'2 - Smaa'
p528
aS'2 - Smaa'
p529
aS'2 - Smaa'
p530
aS'2 - Smaa'
p531
aS'2 - Smaa'
p532
aS'2 - Smaa'
p533
aS'2 - Smaa'
p534
aS'2 - Smaa'
p535
aS'2 - Smaa'
p536
aS'2 - Smaa'
p537
aS'2 - Smaa'
p538
aS'2 - Smaa'
p539
aS'2 - Smaa'
p540
aS'2 - Smaa'
p541
aS'2 - Smaa'
p542
aS'2 - Smaa'
p543
aS'2 - Smaa'
p544
aS'2 - Smaa'
p545
aS'2 - Smaa'
p546
aS'1 - Harmloest'
p547
aS'1 - Harmloest'
p548
aS'1 - Harmloest'
p549
aS'1 - Harmloest'
p550
aS'2 - Smaa'
p551
aS'1 - Harmloest'
p552
aS'1 - Harmloest'
p553
aS'2 - Smaa'
p554
aS'2 - Smaa'
p555
aS'2 - Smaa'
p556
aS'2 - Smaa'
p557
aS'2 - Smaa'
p558
aS'2 - Smaa'
p559
aS'2 - Smaa'
p560
aS'2 - Smaa'
p561
aS'2 - Smaa'
p562
aS'2 - Smaa'
p563
aS'2 - Smaa'
p564
aS'2 - Smaa'
p565
aS'2 - Smaa'
p566
aS'2 - Smaa'
p567
aS'2 - Smaa'
p568
aS'2 - Smaa'
p569
aS'2 - Smaa'
p570
assS'probability'
p571
(dp572
g3
(lp573
S'Lite sannsynlig'
p574
aS'Mulig'
p575
aS'Sannsynlig'
p576
aS'Meget sannsynlig'
p577
asg8
(lp578
g10
asg11
(lp579
S'Mulig'
p580
aS'Mulig'
p581
aS'Mulig'
p582
aS'Mulig'
p583
aS'Mulig'
p584
aS'Mulig'
p585
aS'Mulig'
p586
aS'Mulig'
p587
aS'Mulig'
p588
aS'Mulig'
p589
aS'Mulig'
p590
aS'Mulig'
p591
aS'Mulig'
p592
aS'Mulig'
p593
aS'Mulig'
p594
aS'Mulig'
p595
aS'Mulig'
p596
aS'Mulig'
p597
aS'Mulig'
p598
aS'Mulig'
p599
aS'Mulig'
p600
aS'Mulig'
p601
aS'Mulig'
p602
aS'Mulig'
p603
aS'Mulig'
p604
aS'Mulig'
p605
aS'Mulig'
p606
aS'Mulig'
p607
aS'Mulig'
p608
aS'Mulig'
p609
aS'Mulig'
p610
aS'Mulig'
p611
aS'Mulig'
p612
aS'Mulig'
p613
aS'Mulig'
p614
aS'Mulig'
p615
aS'Lite sannsynlig'
p616
aS'Lite sannsynlig'
p617
aS'Lite sannsynlig'
p618
aS'Mulig'
p619
aS'Mulig'
p620
aS'Mulig'
p621
aS'Mulig'
p622
aS'Lite sannsynlig'
p623
aS'Mulig'
p624
aS'Mulig'
p625
aS'Mulig'
p626
aS'Mulig'
p627
aS'Mulig'
p628
aS'Mulig'
p629
aS'Mulig'
p630
aS'Mulig'
p631
aS'Mulig'
p632
aS'Mulig'
p633
aS'Mulig'
p634
aS'Mulig'
p635
aS'Sannsynlig'
p636
aS'Sannsynlig'
p637
aS'Mulig'
p638
aS'Mulig'
p639
aS'Mulig'
p640
aS'Mulig'
p641
aS'Mulig'
p642
aS'Mulig'
p643
aS'Mulig'
p644
aS'Mulig'
p645
aS'Mulig'
p646
aS'Mulig'
p647
aS'Mulig'
p648
aS'Mulig'
p649
aS'Mulig'
p650
aS'Mulig'
p651
aS'Mulig'
p652
aS'Mulig'
p653
aS'Mulig'
p654
aS'Mulig'
p655
aS'Mulig'
p656
aS'Mulig'
p657
aS'Mulig'
p658
aS'Mulig'
p659
aS'Mulig'
p660
aS'Mulig'
p661
aS'Mulig'
p662
aS'Mulig'
p663
aS'Mulig'
p664
aS'Sannsynlig'
p665
aS'Sannsynlig'
p666
aS'Sannsynlig'
p667
aS'Sannsynlig'
p668
aS'Mulig'
p669
aS'Sannsynlig'
p670
aS'Mulig'
p671
aS'Mulig'
p672
aS'Mulig'
p673
aS'Mulig'
p674
aS'Mulig'
p675
aS'Mulig'
p676
aS'Mulig'
p677
aS'Mulig'
p678
aS'Mulig'
p679
aS'Mulig'
p680
aS'Mulig'
p681
aS'Mulig'
p682
aS'Mulig'
p683
aS'Mulig'
p684
aS'Mulig'
p685
aS'Mulig'
p686
aS'Mulig'
p687
aS'Mulig'
p688
aS'Sannsynlig'
p689
aS'Mulig'
p690
aS'Mulig'
p691
aS'Mulig'
p692
aS'Mulig'
p693
aS'Mulig'
p694
aS'Mulig'
p695
aS'Mulig'
p696
aS'Mulig'
p697
aS'Mulig'
p698
aS'Mulig'
p699
aS'Mulig'
p700
aS'Mulig'
p701
aS'Mulig'
p702
aS'Mulig'
p703
aS'Mulig'
p704
aS'Mulig'
p705
aS'Mulig'
p706
aS'Mulig'
p707
aS'Mulig'
p708
aS'Mulig'
p709
aS'Mulig'
p710
aS'Mulig'
p711
aS'Mulig'
p712
aS'Mulig'
p713
aS'Mulig'
p714
aS'Mulig'
p715
aS'Mulig'
p716
aS'Mulig'
p717
aS'Mulig'
p718
aS'Mulig'
p719
aS'Mulig'
p720
aS'Mulig'
p721
aS'Mulig'
p722
aS'Mulig'
p723
aS'Mulig'
p724
aS'Mulig'
p725
aS'Mulig'
p726
aS'Mulig'
p727
aS'Mulig'
p728
aS'Mulig'
p729
aS'Mulig'
p730
aS'Mulig'
p731
aS'Mulig'
p732
aS'Mulig'
p733
aS'Mulig'
p734
aS'Sannsynlig'
p735
aS'Sannsynlig'
p736
aS'Sannsynlig'
p737
aS'Sannsynlig'
p738
aS'Mulig'
p739
aS'Sannsynlig'
p740
aS'Sannsynlig'
p741
aS'Mulig'
p742
aS'Mulig'
p743
aS'Mulig'
p744
aS'Mulig'
p745
aS'Mulig'
p746
aS'Mulig'
p747
aS'Mulig'
p748
aS'Mulig'
p749
aS'Mulig'
p750
aS'Mulig'
p751
aS'Mulig'
p752
aS'Mulig'
p753
aS'Mulig'
p754
aS'Mulig'
p755
aS'Mulig'
p756
aS'Mulig'
p757
aS'Mulig'
p758
assS'level'
p759
(dp760
g3
(lp761
I1
aI2
aI3
aI4
aI5
asg8
(lp762
S'#ccff66'
p763
aS'#ffff00'
p764
aS'#ff9900'
p765
aS'#ff0000'
p766
aS'k'
p767
asg11
(lp768
I2
aI2
aI2
aI3
aI3
aI3
aI3
aI1
aI3
aI3
aI3
aI2
aI3
aI3
aI3
aI2
aI2
aI3
aI3
aI3
aI2
aI2
aI2
aI2
aI3
aI3
aI3
aI3
aI3
aI3
aI3
aI3
aI2
aI2
aI2
aI3
aI2
aI2
aI2
aI3
aI2
aI2
aI2
aI3
aI2
aI2
aI2
aI3
aI2
aI2
aI2
aI2
aI3
aI3
aI3
aI2
aI3
aI3
aI3
aI3
aI3
aI3
aI3
aI3
aI3
aI3
aI3
aI3
aI3
aI3
aI3
aI3
aI3
aI3
aI3
aI3
aI2
aI3
aI3
aI3
aI3
aI3
aI3
aI3
aI3
aI3
aI3
aI3
aI3
aI3
aI3
aI3
aI3
aI3
aI3
aI3
aI3
aI2
aI2
aI3
aI3
aI3
aI3
aI2
aI2
aI2
aI3
aI3
aI3
aI2
aI2
aI2
aI2
aI2
aI2
aI2
aI2
aI2
aI2
aI2
aI2
aI2
aI2
aI2
aI2
aI2
aI2
aI2
aI2
aI2
aI2
aI3
aI3
aI3
aI2
aI2
aI2
aI2
aI2
aI2
aI2
aI2
aI2
aI2
aI1
aI2
aI1
aI1
aI2
aI2
aI2
aI2
aI2
aI2
aI2
aI2
aI2
aI2
aI2
aI2
aI2
aI2
aI2
aI2
aI2
aI2
aI2
aI2
aI2
aI2
aI2
aI2
aI2
aI2
aI2
aI2
aI1
aI1
aI1
ass.