(lp0
(irunmatrix
M3Element
p1
(dp2
S'danger_level_average'
p3
NsS'probability'
p4
S'Lite sannsynlig, Mulig'
p5
sS'colour'
p6
S'white'
p7
sS'danger_level_list'
p8
(lp9
sS'label_probalility'
p10
S'Possible'
p11
sS'label_distribution'
p12
S'Isolated'
p13
sS'recomended_colour'
p14
S'#ccff66'
p15
sS'recomended_danger_level'
p16
I1
sS'label_trigger'
p17
S'High'
p18
sS'trigger'
p19
S'Stor tilleggsbelastning'
p20
sS'occurrences'
p21
NsS'y'
p22
S'100'
p23
sS'x'
p24
S'100'
p25
sS'distribution'
p26
S'Isolerte faresoner'
p27
sS'danger_level_standard_dev'
p28
NsS'label_size'
p29
S'1'
p30
sS'avalanche_size'
p31
S'1 - Harmloest'
p32
sba(irunmatrix
M3Element
p33
(dp34
g3
F1.0
sg4
S'Lite sannsynlig, Mulig'
p35
sg6
S'#ccff66'
p36
sg8
(lp37
I1
aI1
aI1
aI1
asg10
S'Possible'
p38
sg12
S'Isolated'
p39
sg14
g15
sg16
I1
sg17
S'Low'
p40
sg19
S'Liten tilleggsbelastning'
p41
sg21
I4
sg22
S'100'
p42
sg24
S'200'
p43
sg26
S'Isolerte faresoner'
p44
sg28
cnumpy.core.multiarray
scalar
p45
(cnumpy
dtype
p46
(S'f8'
p47
I0
I1
tp48
Rp49
(I3
S'<'
p50
NNNI-1
I-1
I0
tp51
bS'\x00\x00\x00\x00\x00\x00\x00\x00'
p52
tp53
Rp54
sg29
g30
sg31
S'1 - Harmloest'
p55
sba(irunmatrix
M3Element
p56
(dp57
g3
Nsg4
S'Lite sannsynlig, Mulig'
p58
sg6
S'white'
p59
sg8
(lp60
sg10
S'Possible'
p61
sg12
S'Isolated'
p62
sg14
g15
sg16
I1
sg17
S'Nat'
p63
sg19
S'Naturlig utloest'
p64
sg21
Nsg22
S'100'
p65
sg24
S'300'
p66
sg26
S'Isolerte faresoner'
p67
sg28
Nsg29
g30
sg31
S'1 - Harmloest'
p68
sba(irunmatrix
M3Element
p69
(dp70
g3
Nsg4
S'Sannsynlig, Meget sannsynlig'
p71
sg6
S'gray'
p72
sg8
(lp73
sg10
S'Likely'
p74
sg12
S'Isolated'
p75
sg14
S'gray'
p76
sg16
I0
sg17
S'High'
p77
sg19
S'Stor tilleggsbelastning'
p78
sg21
Nsg22
S'100'
p79
sg24
S'400'
p80
sg26
S'Isolerte faresoner'
p81
sg28
Nsg29
g30
sg31
S'1 - Harmloest'
p82
sba(irunmatrix
M3Element
p83
(dp84
g3
Nsg4
S'Sannsynlig, Meget sannsynlig'
p85
sg6
S'gray'
p86
sg8
(lp87
sg10
S'Likely'
p88
sg12
S'Isolated'
p89
sg14
g76
sg16
I0
sg17
S'Low'
p90
sg19
S'Liten tilleggsbelastning'
p91
sg21
Nsg22
S'100'
p92
sg24
S'500'
p93
sg26
S'Isolerte faresoner'
p94
sg28
Nsg29
g30
sg31
S'1 - Harmloest'
p95
sba(irunmatrix
M3Element
p96
(dp97
g3
Nsg4
S'Sannsynlig, Meget sannsynlig'
p98
sg6
S'gray'
p99
sg8
(lp100
sg10
S'Likely'
p101
sg12
S'Isolated'
p102
sg14
g76
sg16
I0
sg17
S'Nat'
p103
sg19
S'Naturlig utloest'
p104
sg21
Nsg22
S'100'
p105
sg24
S'600'
p106
sg26
S'Isolerte faresoner'
p107
sg28
Nsg29
g30
sg31
S'1 - Harmloest'
p108
sba(irunmatrix
M3Element
p109
(dp110
g3
Nsg4
S'Lite sannsynlig, Mulig'
p111
sg6
S'white'
p112
sg8
(lp113
sg10
S'Possible'
p114
sg12
S'Some'
p115
sg14
g15
sg16
I1
sg17
S'High'
p116
sg19
S'Stor tilleggsbelastning'
p117
sg21
Nsg22
S'100'
p118
sg24
S'700'
p119
sg26
S'Noen bratte heng'
p120
sg28
Nsg29
g30
sg31
S'1 - Harmloest'
p121
sba(irunmatrix
M3Element
p122
(dp123
g3
Nsg4
S'Lite sannsynlig, Mulig'
p124
sg6
S'white'
p125
sg8
(lp126
sg10
S'Possible'
p127
sg12
S'Some'
p128
sg14
g15
sg16
I1
sg17
S'Low'
p129
sg19
S'Liten tilleggsbelastning'
p130
sg21
Nsg22
S'100'
p131
sg24
S'800'
p132
sg26
S'Noen bratte heng'
p133
sg28
Nsg29
g30
sg31
S'1 - Harmloest'
p134
sba(irunmatrix
M3Element
p135
(dp136
g3
F1.0
sg4
S'Lite sannsynlig, Mulig'
p137
sg6
g36
sg8
(lp138
I1
aI1
aI1
asg10
S'Possible'
p139
sg12
S'Some'
p140
sg14
g15
sg16
I1
sg17
S'Nat'
p141
sg19
S'Naturlig utloest'
p142
sg21
I3
sg22
S'100'
p143
sg24
S'900'
p144
sg26
S'Noen bratte heng'
p145
sg28
g45
(g49
S'\x00\x00\x00\x00\x00\x00\x00\x00'
p146
tp147
Rp148
sg29
g30
sg31
S'1 - Harmloest'
p149
sba(irunmatrix
M3Element
p150
(dp151
g3
Nsg4
S'Sannsynlig, Meget sannsynlig'
p152
sg6
S'gray'
p153
sg8
(lp154
sg10
S'Likely'
p155
sg12
S'Some'
p156
sg14
g76
sg16
I0
sg17
S'High'
p157
sg19
S'Stor tilleggsbelastning'
p158
sg21
Nsg22
S'100'
p159
sg24
S'1000'
p160
sg26
S'Noen bratte heng'
p161
sg28
Nsg29
g30
sg31
S'1 - Harmloest'
p162
sba(irunmatrix
M3Element
p163
(dp164
g3
Nsg4
S'Sannsynlig, Meget sannsynlig'
p165
sg6
S'gray'
p166
sg8
(lp167
sg10
S'Likely'
p168
sg12
S'Some'
p169
sg14
g76
sg16
I0
sg17
S'Low'
p170
sg19
S'Liten tilleggsbelastning'
p171
sg21
Nsg22
S'100'
p172
sg24
S'1100'
p173
sg26
S'Noen bratte heng'
p174
sg28
Nsg29
g30
sg31
S'1 - Harmloest'
p175
sba(irunmatrix
M3Element
p176
(dp177
g3
Nsg4
S'Sannsynlig, Meget sannsynlig'
p178
sg6
S'white'
p179
sg8
(lp180
sg10
S'Likely'
p181
sg12
S'Some'
p182
sg14
g15
sg16
I1
sg17
S'Nat'
p183
sg19
S'Naturlig utloest'
p184
sg21
Nsg22
S'100'
p185
sg24
S'1200'
p186
sg26
S'Noen bratte heng'
p187
sg28
Nsg29
g30
sg31
S'1 - Harmloest'
p188
sba(irunmatrix
M3Element
p189
(dp190
g3
Nsg4
S'Lite sannsynlig, Mulig'
p191
sg6
S'gray'
p192
sg8
(lp193
sg10
S'Possible'
p194
sg12
S'Many'
p195
sg14
g76
sg16
I0
sg17
S'High'
p196
sg19
S'Stor tilleggsbelastning'
p197
sg21
Nsg22
S'100'
p198
sg24
S'1300'
p199
sg26
S'Mange bratte heng'
p200
sg28
Nsg29
g30
sg31
S'1 - Harmloest'
p201
sba(irunmatrix
M3Element
p202
(dp203
g3
Nsg4
S'Lite sannsynlig, Mulig'
p204
sg6
S'white'
p205
sg8
(lp206
sg10
S'Possible'
p207
sg12
S'Many'
p208
sg14
g15
sg16
I1
sg17
S'Low'
p209
sg19
S'Liten tilleggsbelastning'
p210
sg21
Nsg22
S'100'
p211
sg24
S'1400'
p212
sg26
S'Mange bratte heng'
p213
sg28
Nsg29
g30
sg31
S'1 - Harmloest'
p214
sba(irunmatrix
M3Element
p215
(dp216
g3
Nsg4
S'Lite sannsynlig, Mulig'
p217
sg6
S'gray'
p218
sg8
(lp219
sg10
S'Possible'
p220
sg12
S'Many'
p221
sg14
g76
sg16
I0
sg17
S'Nat'
p222
sg19
S'Naturlig utloest'
p223
sg21
Nsg22
S'100'
p224
sg24
S'1500'
p225
sg26
S'Mange bratte heng'
p226
sg28
Nsg29
g30
sg31
S'1 - Harmloest'
p227
sba(irunmatrix
M3Element
p228
(dp229
g3
Nsg4
S'Sannsynlig, Meget sannsynlig'
p230
sg6
S'gray'
p231
sg8
(lp232
sg10
S'Likely'
p233
sg12
S'Many'
p234
sg14
g76
sg16
I0
sg17
S'High'
p235
sg19
S'Stor tilleggsbelastning'
p236
sg21
Nsg22
S'100'
p237
sg24
S'1600'
p238
sg26
S'Mange bratte heng'
p239
sg28
Nsg29
g30
sg31
S'1 - Harmloest'
p240
sba(irunmatrix
M3Element
p241
(dp242
g3
Nsg4
S'Sannsynlig, Meget sannsynlig'
p243
sg6
S'white'
p244
sg8
(lp245
sg10
S'Likely'
p246
sg12
S'Many'
p247
sg14
S'#ffff00'
p248
sg16
I2
sg17
S'Low'
p249
sg19
S'Liten tilleggsbelastning'
p250
sg21
Nsg22
S'100'
p251
sg24
S'1700'
p252
sg26
S'Mange bratte heng'
p253
sg28
Nsg29
g30
sg31
S'1 - Harmloest'
p254
sba(irunmatrix
M3Element
p255
(dp256
g3
Nsg4
S'Sannsynlig, Meget sannsynlig'
p257
sg6
S'white'
p258
sg8
(lp259
sg10
S'Likely'
p260
sg12
S'Many'
p261
sg14
g248
sg16
I2
sg17
S'Nat'
p262
sg19
S'Naturlig utloest'
p263
sg21
Nsg22
S'100'
p264
sg24
S'1800'
p265
sg26
S'Mange bratte heng'
p266
sg28
Nsg29
g30
sg31
S'1 - Harmloest'
p267
sba(irunmatrix
M3Element
p268
(dp269
g3
Nsg4
S'Lite sannsynlig, Mulig'
p270
sg6
S'gray'
p271
sg8
(lp272
sg10
S'Possible'
p273
sg12
S'Most'
p274
sg14
g76
sg16
I0
sg17
S'High'
p275
sg19
S'Stor tilleggsbelastning'
p276
sg21
Nsg22
S'100'
p277
sg24
S'1900'
p278
sg26
S'De fleste bratte heng, Ogsaa i mindre bratt terreng'
p279
sg28
Nsg29
g30
sg31
S'1 - Harmloest'
p280
sba(irunmatrix
M3Element
p281
(dp282
g3
Nsg4
S'Lite sannsynlig, Mulig'
p283
sg6
S'gray'
p284
sg8
(lp285
sg10
S'Possible'
p286
sg12
S'Most'
p287
sg14
g76
sg16
I0
sg17
S'Low'
p288
sg19
S'Liten tilleggsbelastning'
p289
sg21
Nsg22
S'100'
p290
sg24
S'2000'
p291
sg26
S'De fleste bratte heng, Ogsaa i mindre bratt terreng'
p292
sg28
Nsg29
g30
sg31
S'1 - Harmloest'
p293
sba(irunmatrix
M3Element
p294
(dp295
g3
Nsg4
S'Lite sannsynlig, Mulig'
p296
sg6
S'gray'
p297
sg8
(lp298
sg10
S'Possible'
p299
sg12
S'Most'
p300
sg14
g76
sg16
I0
sg17
S'Nat'
p301
sg19
S'Naturlig utloest'
p302
sg21
Nsg22
S'100'
p303
sg24
S'2100'
p304
sg26
S'De fleste bratte heng, Ogsaa i mindre bratt terreng'
p305
sg28
Nsg29
g30
sg31
S'1 - Harmloest'
p306
sba(irunmatrix
M3Element
p307
(dp308
g3
Nsg4
S'Sannsynlig, Meget sannsynlig'
p309
sg6
S'gray'
p310
sg8
(lp311
sg10
S'Likely'
p312
sg12
S'Most'
p313
sg14
g76
sg16
I0
sg17
S'High'
p314
sg19
S'Stor tilleggsbelastning'
p315
sg21
Nsg22
S'100'
p316
sg24
S'2200'
p317
sg26
S'De fleste bratte heng, Ogsaa i mindre bratt terreng'
p318
sg28
Nsg29
g30
sg31
S'1 - Harmloest'
p319
sba(irunmatrix
M3Element
p320
(dp321
g3
Nsg4
S'Sannsynlig, Meget sannsynlig'
p322
sg6
S'gray'
p323
sg8
(lp324
sg10
S'Likely'
p325
sg12
S'Most'
p326
sg14
g76
sg16
I0
sg17
S'Low'
p327
sg19
S'Liten tilleggsbelastning'
p328
sg21
Nsg22
S'100'
p329
sg24
S'2300'
p330
sg26
S'De fleste bratte heng, Ogsaa i mindre bratt terreng'
p331
sg28
Nsg29
g30
sg31
S'1 - Harmloest'
p332
sba(irunmatrix
M3Element
p333
(dp334
g3
Nsg4
S'Sannsynlig, Meget sannsynlig'
p335
sg6
S'white'
p336
sg8
(lp337
sg10
S'Likely'
p338
sg12
S'Most'
p339
sg14
g76
sg16
I0
sg17
S'Nat'
p340
sg19
S'Naturlig utloest'
p341
sg21
Nsg22
S'100'
p342
sg24
S'2400'
p343
sg26
S'De fleste bratte heng, Ogsaa i mindre bratt terreng'
p344
sg28
Nsg29
S'2'
p345
sg31
S'1 - Harmloest'
p346
sba(irunmatrix
M3Element
p347
(dp348
g3
F1.0
sg4
S'Lite sannsynlig, Mulig'
p349
sg6
g36
sg8
(lp350
I1
aI1
asg10
S'Possible'
p351
sg12
S'Isolated'
p352
sg14
g15
sg16
I1
sg17
S'High'
p353
sg19
S'Stor tilleggsbelastning'
p354
sg21
I2
sg22
S'200'
p355
sg24
S'100'
p356
sg26
S'Isolerte faresoner'
p357
sg28
g45
(g49
S'\x00\x00\x00\x00\x00\x00\x00\x00'
p358
tp359
Rp360
sg29
g345
sg31
S'2 - Smaa'
p361
sba(irunmatrix
M3Element
p362
(dp363
g3
F1.0526315789473684
sg4
S'Lite sannsynlig, Mulig'
p364
sg6
g36
sg8
(lp365
I1
aI2
aI1
aI1
aI1
aI1
aI1
aI1
aI1
aI1
aI1
aI1
aI1
aI1
aI1
aI1
aI1
aI1
aI1
asg10
S'Possible'
p366
sg12
S'Isolated'
p367
sg14
g15
sg16
I1
sg17
S'Low'
p368
sg19
S'Liten tilleggsbelastning'
p369
sg21
I19
sg22
S'200'
p370
sg24
S'200'
p371
sg26
S'Isolerte faresoner'
p372
sg28
g45
(g49
S'\xd9\xa9\xbb\xfa\xfd\x94\xcc?'
p373
tp374
Rp375
sg29
g345
sg31
S'2 - Smaa'
p376
sba(irunmatrix
M3Element
p377
(dp378
g3
Nsg4
S'Lite sannsynlig, Mulig'
p379
sg6
S'white'
p380
sg8
(lp381
sg10
S'Possible'
p382
sg12
S'Isolated'
p383
sg14
g15
sg16
I1
sg17
S'Nat'
p384
sg19
S'Naturlig utloest'
p385
sg21
Nsg22
S'200'
p386
sg24
S'300'
p387
sg26
S'Isolerte faresoner'
p388
sg28
Nsg29
g345
sg31
S'2 - Smaa'
p389
sba(irunmatrix
M3Element
p390
(dp391
g3
Nsg4
S'Sannsynlig, Meget sannsynlig'
p392
sg6
S'gray'
p393
sg8
(lp394
sg10
S'Likely'
p395
sg12
S'Isolated'
p396
sg14
g76
sg16
I0
sg17
S'High'
p397
sg19
S'Stor tilleggsbelastning'
p398
sg21
Nsg22
S'200'
p399
sg24
S'400'
p400
sg26
S'Isolerte faresoner'
p401
sg28
Nsg29
g345
sg31
S'2 - Smaa'
p402
sba(irunmatrix
M3Element
p403
(dp404
g3
Nsg4
S'Sannsynlig, Meget sannsynlig'
p405
sg6
S'gray'
p406
sg8
(lp407
sg10
S'Likely'
p408
sg12
S'Isolated'
p409
sg14
g76
sg16
I0
sg17
S'Low'
p410
sg19
S'Liten tilleggsbelastning'
p411
sg21
Nsg22
S'200'
p412
sg24
S'500'
p413
sg26
S'Isolerte faresoner'
p414
sg28
Nsg29
g345
sg31
S'2 - Smaa'
p415
sba(irunmatrix
M3Element
p416
(dp417
g3
Nsg4
S'Sannsynlig, Meget sannsynlig'
p418
sg6
S'gray'
p419
sg8
(lp420
sg10
S'Likely'
p421
sg12
S'Isolated'
p422
sg14
g76
sg16
I0
sg17
S'Nat'
p423
sg19
S'Naturlig utloest'
p424
sg21
Nsg22
S'200'
p425
sg24
S'600'
p426
sg26
S'Isolerte faresoner'
p427
sg28
Nsg29
g345
sg31
S'2 - Smaa'
p428
sba(irunmatrix
M3Element
p429
(dp430
g3
F2.0
sg4
S'Lite sannsynlig, Mulig'
p431
sg6
S'#ffff00'
p432
sg8
(lp433
I2
aI2
aI2
aI2
aI2
aI2
aI2
aI2
aI2
asg10
S'Possible'
p434
sg12
S'Some'
p435
sg14
g248
sg16
I2
sg17
S'High'
p436
sg19
S'Stor tilleggsbelastning'
p437
sg21
I9
sg22
S'200'
p438
sg24
S'700'
p439
sg26
S'Noen bratte heng'
p440
sg28
g45
(g49
S'\x00\x00\x00\x00\x00\x00\x00\x00'
p441
tp442
Rp443
sg29
g345
sg31
S'2 - Smaa'
p444
sba(irunmatrix
M3Element
p445
(dp446
g3
F2.008130081300813
sg4
S'Lite sannsynlig, Mulig'
p447
sg6
g432
sg8
(lp448
I2
aI2
aI2
aI2
aI2
aI2
aI2
aI2
aI2
aI2
aI2
aI2
aI2
aI2
aI2
aI2
aI2
aI2
aI2
aI2
aI2
aI2
aI2
aI2
aI2
aI2
aI3
aI2
aI2
aI2
aI2
aI2
aI2
aI2
aI2
aI2
aI2
aI2
aI2
aI2
aI2
aI2
aI2
aI2
aI2
aI2
aI2
aI2
aI2
aI2
aI2
aI2
aI2
aI2
aI2
aI2
aI2
aI2
aI2
aI2
aI2
aI2
aI2
aI2
aI2
aI2
aI2
aI2
aI2
aI2
aI2
aI2
aI2
aI2
aI2
aI2
aI2
aI2
aI2
aI2
aI2
aI2
aI2
aI2
aI2
aI2
aI2
aI2
aI2
aI2
aI2
aI2
aI2
aI2
aI2
aI2
aI2
aI2
aI2
aI2
aI2
aI2
aI2
aI2
aI2
aI2
aI2
aI2
aI2
aI2
aI2
aI2
aI2
aI2
aI2
aI2
aI2
aI2
aI2
aI2
aI2
aI2
aI2
asg10
S'Possible'
p449
sg12
S'Some'
p450
sg14
g248
sg16
I2
sg17
S'Low'
p451
sg19
S'Liten tilleggsbelastning'
p452
sg21
I123
sg22
S'200'
p453
sg24
S'800'
p454
sg26
S'Noen bratte heng'
p455
sg28
g45
(g49
S'!I\xf6\xad\x1c\xfd\xb6?'
p456
tp457
Rp458
sg29
g345
sg31
S'2 - Smaa'
p459
sba(irunmatrix
M3Element
p460
(dp461
g3
Nsg4
S'Lite sannsynlig, Mulig'
p462
sg6
S'white'
p463
sg8
(lp464
sg10
S'Possible'
p465
sg12
S'Some'
p466
sg14
g248
sg16
I2
sg17
S'Nat'
p467
sg19
S'Naturlig utloest'
p468
sg21
Nsg22
S'200'
p469
sg24
S'900'
p470
sg26
S'Noen bratte heng'
p471
sg28
Nsg29
g345
sg31
S'2 - Smaa'
p472
sba(irunmatrix
M3Element
p473
(dp474
g3
Nsg4
S'Sannsynlig, Meget sannsynlig'
p475
sg6
S'gray'
p476
sg8
(lp477
sg10
S'Likely'
p478
sg12
S'Some'
p479
sg14
g76
sg16
I0
sg17
S'High'
p480
sg19
S'Stor tilleggsbelastning'
p481
sg21
Nsg22
S'200'
p482
sg24
S'1000'
p483
sg26
S'Noen bratte heng'
p484
sg28
Nsg29
g345
sg31
S'2 - Smaa'
p485
sba(irunmatrix
M3Element
p486
(dp487
g3
Nsg4
S'Sannsynlig, Meget sannsynlig'
p488
sg6
S'gray'
p489
sg8
(lp490
sg10
S'Likely'
p491
sg12
S'Some'
p492
sg14
g76
sg16
I0
sg17
S'Low'
p493
sg19
S'Liten tilleggsbelastning'
p494
sg21
Nsg22
S'200'
p495
sg24
S'1100'
p496
sg26
S'Noen bratte heng'
p497
sg28
Nsg29
g345
sg31
S'2 - Smaa'
p498
sba(irunmatrix
M3Element
p499
(dp500
g3
Nsg4
S'Sannsynlig, Meget sannsynlig'
p501
sg6
S'white'
p502
sg8
(lp503
sg10
S'Likely'
p504
sg12
S'Some'
p505
sg14
S'#ff9900'
p506
sg16
I3
sg17
S'Nat'
p507
sg19
S'Naturlig utloest'
p508
sg21
Nsg22
S'200'
p509
sg24
S'1200'
p510
sg26
S'Noen bratte heng'
p511
sg28
Nsg29
g345
sg31
S'2 - Smaa'
p512
sba(irunmatrix
M3Element
p513
(dp514
g3
Nsg4
S'Lite sannsynlig, Mulig'
p515
sg6
S'gray'
p516
sg8
(lp517
sg10
S'Possible'
p518
sg12
S'Many'
p519
sg14
g76
sg16
I0
sg17
S'High'
p520
sg19
S'Stor tilleggsbelastning'
p521
sg21
Nsg22
S'200'
p522
sg24
S'1300'
p523
sg26
S'Mange bratte heng'
p524
sg28
Nsg29
g345
sg31
S'2 - Smaa'
p525
sba(irunmatrix
M3Element
p526
(dp527
g3
F3.0
sg4
S'Lite sannsynlig, Mulig'
p528
sg6
S'#ff9900'
p529
sg8
(lp530
I3
aI3
aI3
aI3
aI3
aI3
aI3
aI3
aI3
aI3
asg10
S'Possible'
p531
sg12
S'Many'
p532
sg14
g506
sg16
I3
sg17
S'Low'
p533
sg19
S'Liten tilleggsbelastning'
p534
sg21
I10
sg22
S'200'
p535
sg24
S'1400'
p536
sg26
S'Mange bratte heng'
p537
sg28
g45
(g49
S'\x00\x00\x00\x00\x00\x00\x00\x00'
p538
tp539
Rp540
sg29
g345
sg31
S'2 - Smaa'
p541
sba(irunmatrix
M3Element
p542
(dp543
g3
Nsg4
S'Lite sannsynlig, Mulig'
p544
sg6
S'gray'
p545
sg8
(lp546
sg10
S'Possible'
p547
sg12
S'Many'
p548
sg14
g76
sg16
I0
sg17
S'Nat'
p549
sg19
S'Naturlig utloest'
p550
sg21
Nsg22
S'200'
p551
sg24
S'1500'
p552
sg26
S'Mange bratte heng'
p553
sg28
Nsg29
g345
sg31
S'2 - Smaa'
p554
sba(irunmatrix
M3Element
p555
(dp556
g3
Nsg4
S'Sannsynlig, Meget sannsynlig'
p557
sg6
S'gray'
p558
sg8
(lp559
sg10
S'Likely'
p560
sg12
S'Many'
p561
sg14
g76
sg16
I0
sg17
S'High'
p562
sg19
S'Stor tilleggsbelastning'
p563
sg21
Nsg22
S'200'
p564
sg24
S'1600'
p565
sg26
S'Mange bratte heng'
p566
sg28
Nsg29
g345
sg31
S'2 - Smaa'
p567
sba(irunmatrix
M3Element
p568
(dp569
g3
Nsg4
S'Sannsynlig, Meget sannsynlig'
p570
sg6
S'white'
p571
sg8
(lp572
sg10
S'Likely'
p573
sg12
S'Many'
p574
sg14
S'#ff0000'
p575
sg16
I4
sg17
S'Low'
p576
sg19
S'Liten tilleggsbelastning'
p577
sg21
Nsg22
S'200'
p578
sg24
S'1700'
p579
sg26
S'Mange bratte heng'
p580
sg28
Nsg29
g345
sg31
S'2 - Smaa'
p581
sba(irunmatrix
M3Element
p582
(dp583
g3
Nsg4
S'Sannsynlig, Meget sannsynlig'
p584
sg6
S'white'
p585
sg8
(lp586
sg10
S'Likely'
p587
sg12
S'Many'
p588
sg14
g575
sg16
I4
sg17
S'Nat'
p589
sg19
S'Naturlig utloest'
p590
sg21
Nsg22
S'200'
p591
sg24
S'1800'
p592
sg26
S'Mange bratte heng'
p593
sg28
Nsg29
g345
sg31
S'2 - Smaa'
p594
sba(irunmatrix
M3Element
p595
(dp596
g3
Nsg4
S'Lite sannsynlig, Mulig'
p597
sg6
S'gray'
p598
sg8
(lp599
sg10
S'Possible'
p600
sg12
S'Most'
p601
sg14
g76
sg16
I0
sg17
S'High'
p602
sg19
S'Stor tilleggsbelastning'
p603
sg21
Nsg22
S'200'
p604
sg24
S'1900'
p605
sg26
S'De fleste bratte heng, Ogsaa i mindre bratt terreng'
p606
sg28
Nsg29
g345
sg31
S'2 - Smaa'
p607
sba(irunmatrix
M3Element
p608
(dp609
g3
Nsg4
S'Lite sannsynlig, Mulig'
p610
sg6
S'gray'
p611
sg8
(lp612
sg10
S'Possible'
p613
sg12
S'Most'
p614
sg14
g76
sg16
I0
sg17
S'Low'
p615
sg19
S'Liten tilleggsbelastning'
p616
sg21
Nsg22
S'200'
p617
sg24
S'2000'
p618
sg26
S'De fleste bratte heng, Ogsaa i mindre bratt terreng'
p619
sg28
Nsg29
g345
sg31
S'2 - Smaa'
p620
sba(irunmatrix
M3Element
p621
(dp622
g3
Nsg4
S'Lite sannsynlig, Mulig'
p623
sg6
S'gray'
p624
sg8
(lp625
sg10
S'Possible'
p626
sg12
S'Most'
p627
sg14
g76
sg16
I0
sg17
S'Nat'
p628
sg19
S'Naturlig utloest'
p629
sg21
Nsg22
S'200'
p630
sg24
S'2100'
p631
sg26
S'De fleste bratte heng, Ogsaa i mindre bratt terreng'
p632
sg28
Nsg29
g345
sg31
S'2 - Smaa'
p633
sba(irunmatrix
M3Element
p634
(dp635
g3
Nsg4
S'Sannsynlig, Meget sannsynlig'
p636
sg6
S'gray'
p637
sg8
(lp638
sg10
S'Likely'
p639
sg12
S'Most'
p640
sg14
g76
sg16
I0
sg17
S'High'
p641
sg19
S'Stor tilleggsbelastning'
p642
sg21
Nsg22
S'200'
p643
sg24
S'2200'
p644
sg26
S'De fleste bratte heng, Ogsaa i mindre bratt terreng'
p645
sg28
Nsg29
g345
sg31
S'2 - Smaa'
p646
sba(irunmatrix
M3Element
p647
(dp648
g3
Nsg4
S'Sannsynlig, Meget sannsynlig'
p649
sg6
S'gray'
p650
sg8
(lp651
sg10
S'Likely'
p652
sg12
S'Most'
p653
sg14
g76
sg16
I0
sg17
S'Low'
p654
sg19
S'Liten tilleggsbelastning'
p655
sg21
Nsg22
S'200'
p656
sg24
S'2300'
p657
sg26
S'De fleste bratte heng, Ogsaa i mindre bratt terreng'
p658
sg28
Nsg29
g345
sg31
S'2 - Smaa'
p659
sba(irunmatrix
M3Element
p660
(dp661
g3
Nsg4
S'Sannsynlig, Meget sannsynlig'
p662
sg6
S'white'
p663
sg8
(lp664
sg10
S'Likely'
p665
sg12
S'Most'
p666
sg14
g76
sg16
I0
sg17
S'Nat'
p667
sg19
S'Naturlig utloest'
p668
sg21
Nsg22
S'200'
p669
sg24
S'2400'
p670
sg26
S'De fleste bratte heng, Ogsaa i mindre bratt terreng'
p671
sg28
Nsg29
g345
sg31
S'2 - Smaa'
p672
sba(irunmatrix
M3Element
p673
(dp674
g3
Nsg4
S'Lite sannsynlig, Mulig'
p675
sg6
S'white'
p676
sg8
(lp677
sg10
S'Possible'
p678
sg12
S'Isolated'
p679
sg14
g15
sg16
I1
sg17
S'High'
p680
sg19
S'Stor tilleggsbelastning'
p681
sg21
Nsg22
S'300'
p682
sg24
S'100'
p683
sg26
S'Isolerte faresoner'
p684
sg28
Nsg29
S'3'
p685
sg31
S'3 - Middels'
p686
sba(irunmatrix
M3Element
p687
(dp688
g3
Nsg4
S'Lite sannsynlig, Mulig'
p689
sg6
S'white'
p690
sg8
(lp691
sg10
S'Possible'
p692
sg12
S'Isolated'
p693
sg14
g248
sg16
I2
sg17
S'Low'
p694
sg19
S'Liten tilleggsbelastning'
p695
sg21
Nsg22
S'300'
p696
sg24
S'200'
p697
sg26
S'Isolerte faresoner'
p698
sg28
Nsg29
g685
sg31
S'3 - Middels'
p699
sba(irunmatrix
M3Element
p700
(dp701
g3
Nsg4
S'Lite sannsynlig, Mulig'
p702
sg6
S'white'
p703
sg8
(lp704
sg10
S'Possible'
p705
sg12
S'Isolated'
p706
sg14
g248
sg16
I2
sg17
S'Nat'
p707
sg19
S'Naturlig utloest'
p708
sg21
Nsg22
S'300'
p709
sg24
S'300'
p710
sg26
S'Isolerte faresoner'
p711
sg28
Nsg29
g685
sg31
S'3 - Middels'
p712
sba(irunmatrix
M3Element
p713
(dp714
g3
Nsg4
S'Sannsynlig, Meget sannsynlig'
p715
sg6
S'gray'
p716
sg8
(lp717
sg10
S'Likely'
p718
sg12
S'Isolated'
p719
sg14
g76
sg16
I0
sg17
S'High'
p720
sg19
S'Stor tilleggsbelastning'
p721
sg21
Nsg22
S'300'
p722
sg24
S'400'
p723
sg26
S'Isolerte faresoner'
p724
sg28
Nsg29
g685
sg31
S'3 - Middels'
p725
sba(irunmatrix
M3Element
p726
(dp727
g3
Nsg4
S'Sannsynlig, Meget sannsynlig'
p728
sg6
S'gray'
p729
sg8
(lp730
sg10
S'Likely'
p731
sg12
S'Isolated'
p732
sg14
g76
sg16
I0
sg17
S'Low'
p733
sg19
S'Liten tilleggsbelastning'
p734
sg21
Nsg22
S'300'
p735
sg24
S'500'
p736
sg26
S'Isolerte faresoner'
p737
sg28
Nsg29
g685
sg31
S'3 - Middels'
p738
sba(irunmatrix
M3Element
p739
(dp740
g3
Nsg4
S'Sannsynlig, Meget sannsynlig'
p741
sg6
S'gray'
p742
sg8
(lp743
sg10
S'Likely'
p744
sg12
S'Isolated'
p745
sg14
g76
sg16
I0
sg17
S'Nat'
p746
sg19
S'Naturlig utloest'
p747
sg21
Nsg22
S'300'
p748
sg24
S'600'
p749
sg26
S'Isolerte faresoner'
p750
sg28
Nsg29
g685
sg31
S'3 - Middels'
p751
sba(irunmatrix
M3Element
p752
(dp753
g3
F2.0
sg4
S'Lite sannsynlig, Mulig'
p754
sg6
g432
sg8
(lp755
I2
aI2
aI2
aI2
aI2
asg10
S'Possible'
p756
sg12
S'Some'
p757
sg14
g248
sg16
I2
sg17
S'High'
p758
sg19
S'Stor tilleggsbelastning'
p759
sg21
I5
sg22
S'300'
p760
sg24
S'700'
p761
sg26
S'Noen bratte heng'
p762
sg28
g45
(g49
S'\x00\x00\x00\x00\x00\x00\x00\x00'
p763
tp764
Rp765
sg29
g685
sg31
S'3 - Middels'
p766
sba(irunmatrix
M3Element
p767
(dp768
g3
F3.0
sg4
S'Lite sannsynlig, Mulig'
p769
sg6
g529
sg8
(lp770
I3
aI3
aI3
aI3
aI3
aI3
aI3
aI3
aI3
aI3
aI3
aI3
aI3
aI3
aI3
aI3
asg10
S'Possible'
p771
sg12
S'Some'
p772
sg14
g506
sg16
I3
sg17
S'Low'
p773
sg19
S'Liten tilleggsbelastning'
p774
sg21
I16
sg22
S'300'
p775
sg24
S'800'
p776
sg26
S'Noen bratte heng'
p777
sg28
g45
(g49
S'\x00\x00\x00\x00\x00\x00\x00\x00'
p778
tp779
Rp780
sg29
g685
sg31
S'3 - Middels'
p781
sba(irunmatrix
M3Element
p782
(dp783
g3
F3.0
sg4
S'Lite sannsynlig, Mulig'
p784
sg6
g529
sg8
(lp785
I3
aI3
aI3
aI3
aI3
aI3
asg10
S'Possible'
p786
sg12
S'Some'
p787
sg14
g506
sg16
I3
sg17
S'Nat'
p788
sg19
S'Naturlig utloest'
p789
sg21
I6
sg22
S'300'
p790
sg24
S'900'
p791
sg26
S'Noen bratte heng'
p792
sg28
g45
(g49
S'\x00\x00\x00\x00\x00\x00\x00\x00'
p793
tp794
Rp795
sg29
g685
sg31
S'3 - Middels'
p796
sba(irunmatrix
M3Element
p797
(dp798
g3
Nsg4
S'Sannsynlig, Meget sannsynlig'
p799
sg6
S'gray'
p800
sg8
(lp801
sg10
S'Likely'
p802
sg12
S'Some'
p803
sg14
g76
sg16
I0
sg17
S'High'
p804
sg19
S'Stor tilleggsbelastning'
p805
sg21
Nsg22
S'300'
p806
sg24
S'1000'
p807
sg26
S'Noen bratte heng'
p808
sg28
Nsg29
g685
sg31
S'3 - Middels'
p809
sba(irunmatrix
M3Element
p810
(dp811
g3
Nsg4
S'Sannsynlig, Meget sannsynlig'
p812
sg6
S'gray'
p813
sg8
(lp814
sg10
S'Likely'
p815
sg12
S'Some'
p816
sg14
g76
sg16
I0
sg17
S'Low'
p817
sg19
S'Liten tilleggsbelastning'
p818
sg21
Nsg22
S'300'
p819
sg24
S'1100'
p820
sg26
S'Noen bratte heng'
p821
sg28
Nsg29
g685
sg31
S'3 - Middels'
p822
sba(irunmatrix
M3Element
p823
(dp824
g3
Nsg4
S'Sannsynlig, Meget sannsynlig'
p825
sg6
S'white'
p826
sg8
(lp827
sg10
S'Likely'
p828
sg12
S'Some'
p829
sg14
g575
sg16
I4
sg17
S'Nat'
p830
sg19
S'Naturlig utloest'
p831
sg21
Nsg22
S'300'
p832
sg24
S'1200'
p833
sg26
S'Noen bratte heng'
p834
sg28
Nsg29
g685
sg31
S'3 - Middels'
p835
sba(irunmatrix
M3Element
p836
(dp837
g3
Nsg4
S'Lite sannsynlig, Mulig'
p838
sg6
S'gray'
p839
sg8
(lp840
sg10
S'Possible'
p841
sg12
S'Many'
p842
sg14
g76
sg16
I0
sg17
S'High'
p843
sg19
S'Stor tilleggsbelastning'
p844
sg21
Nsg22
S'300'
p845
sg24
S'1300'
p846
sg26
S'Mange bratte heng'
p847
sg28
Nsg29
g685
sg31
S'3 - Middels'
p848
sba(irunmatrix
M3Element
p849
(dp850
g3
F3.0
sg4
S'Lite sannsynlig, Mulig'
p851
sg6
g529
sg8
(lp852
I3
aI3
aI3
aI3
aI3
aI3
aI3
aI3
asg10
S'Possible'
p853
sg12
S'Many'
p854
sg14
g575
sg16
I4
sg17
S'Low'
p855
sg19
S'Liten tilleggsbelastning'
p856
sg21
I8
sg22
S'300'
p857
sg24
S'1400'
p858
sg26
S'Mange bratte heng'
p859
sg28
g45
(g49
S'\x00\x00\x00\x00\x00\x00\x00\x00'
p860
tp861
Rp862
sg29
g685
sg31
S'3 - Middels'
p863
sba(irunmatrix
M3Element
p864
(dp865
g3
Nsg4
S'Lite sannsynlig, Mulig'
p866
sg6
S'gray'
p867
sg8
(lp868
sg10
S'Possible'
p869
sg12
S'Many'
p870
sg14
g76
sg16
I0
sg17
S'Nat'
p871
sg19
S'Naturlig utloest'
p872
sg21
Nsg22
S'300'
p873
sg24
S'1500'
p874
sg26
S'Mange bratte heng'
p875
sg28
Nsg29
g685
sg31
S'3 - Middels'
p876
sba(irunmatrix
M3Element
p877
(dp878
g3
Nsg4
S'Sannsynlig, Meget sannsynlig'
p879
sg6
S'gray'
p880
sg8
(lp881
sg10
S'Likely'
p882
sg12
S'Many'
p883
sg14
g76
sg16
I0
sg17
S'High'
p884
sg19
S'Stor tilleggsbelastning'
p885
sg21
Nsg22
S'300'
p886
sg24
S'1600'
p887
sg26
S'Mange bratte heng'
p888
sg28
Nsg29
g685
sg31
S'3 - Middels'
p889
sba(irunmatrix
M3Element
p890
(dp891
g3
Nsg4
S'Sannsynlig, Meget sannsynlig'
p892
sg6
S'white'
p893
sg8
(lp894
sg10
S'Likely'
p895
sg12
S'Many'
p896
sg14
g575
sg16
I4
sg17
S'Low'
p897
sg19
S'Liten tilleggsbelastning'
p898
sg21
Nsg22
S'300'
p899
sg24
S'1700'
p900
sg26
S'Mange bratte heng'
p901
sg28
Nsg29
g685
sg31
S'3 - Middels'
p902
sba(irunmatrix
M3Element
p903
(dp904
g3
Nsg4
S'Sannsynlig, Meget sannsynlig'
p905
sg6
S'white'
p906
sg8
(lp907
sg10
S'Likely'
p908
sg12
S'Many'
p909
sg14
g575
sg16
I4
sg17
S'Nat'
p910
sg19
S'Naturlig utloest'
p911
sg21
Nsg22
S'300'
p912
sg24
S'1800'
p913
sg26
S'Mange bratte heng'
p914
sg28
Nsg29
g685
sg31
S'3 - Middels'
p915
sba(irunmatrix
M3Element
p916
(dp917
g3
Nsg4
S'Lite sannsynlig, Mulig'
p918
sg6
S'gray'
p919
sg8
(lp920
sg10
S'Possible'
p921
sg12
S'Most'
p922
sg14
g76
sg16
I0
sg17
S'High'
p923
sg19
S'Stor tilleggsbelastning'
p924
sg21
Nsg22
S'300'
p925
sg24
S'1900'
p926
sg26
S'De fleste bratte heng, Ogsaa i mindre bratt terreng'
p927
sg28
Nsg29
g685
sg31
S'3 - Middels'
p928
sba(irunmatrix
M3Element
p929
(dp930
g3
Nsg4
S'Lite sannsynlig, Mulig'
p931
sg6
S'gray'
p932
sg8
(lp933
sg10
S'Possible'
p934
sg12
S'Most'
p935
sg14
g76
sg16
I0
sg17
S'Low'
p936
sg19
S'Liten tilleggsbelastning'
p937
sg21
Nsg22
S'300'
p938
sg24
S'2000'
p939
sg26
S'De fleste bratte heng, Ogsaa i mindre bratt terreng'
p940
sg28
Nsg29
g685
sg31
S'3 - Middels'
p941
sba(irunmatrix
M3Element
p942
(dp943
g3
Nsg4
S'Lite sannsynlig, Mulig'
p944
sg6
S'gray'
p945
sg8
(lp946
sg10
S'Possible'
p947
sg12
S'Most'
p948
sg14
g76
sg16
I0
sg17
S'Nat'
p949
sg19
S'Naturlig utloest'
p950
sg21
Nsg22
S'300'
p951
sg24
S'2100'
p952
sg26
S'De fleste bratte heng, Ogsaa i mindre bratt terreng'
p953
sg28
Nsg29
g685
sg31
S'3 - Middels'
p954
sba(irunmatrix
M3Element
p955
(dp956
g3
Nsg4
S'Sannsynlig, Meget sannsynlig'
p957
sg6
S'gray'
p958
sg8
(lp959
sg10
S'Likely'
p960
sg12
S'Most'
p961
sg14
g76
sg16
I0
sg17
S'High'
p962
sg19
S'Stor tilleggsbelastning'
p963
sg21
Nsg22
S'300'
p964
sg24
S'2200'
p965
sg26
S'De fleste bratte heng, Ogsaa i mindre bratt terreng'
p966
sg28
Nsg29
g685
sg31
S'3 - Middels'
p967
sba(irunmatrix
M3Element
p968
(dp969
g3
Nsg4
S'Sannsynlig, Meget sannsynlig'
p970
sg6
S'gray'
p971
sg8
(lp972
sg10
S'Likely'
p973
sg12
S'Most'
p974
sg14
g76
sg16
I0
sg17
S'Low'
p975
sg19
S'Liten tilleggsbelastning'
p976
sg21
Nsg22
S'300'
p977
sg24
S'2300'
p978
sg26
S'De fleste bratte heng, Ogsaa i mindre bratt terreng'
p979
sg28
Nsg29
g685
sg31
S'3 - Middels'
p980
sba(irunmatrix
M3Element
p981
(dp982
g3
Nsg4
S'Sannsynlig, Meget sannsynlig'
p983
sg6
S'white'
p984
sg8
(lp985
sg10
S'Likely'
p986
sg12
S'Most'
p987
sg14
g76
sg16
I0
sg17
S'Nat'
p988
sg19
S'Naturlig utloest'
p989
sg21
Nsg22
S'300'
p990
sg24
S'2400'
p991
sg26
S'De fleste bratte heng, Ogsaa i mindre bratt terreng'
p992
sg28
Nsg29
g685
sg31
S'3 - Middels'
p993
sba(irunmatrix
M3Element
p994
(dp995
g3
Nsg4
S'Lite sannsynlig, Mulig'
p996
sg6
S'white'
p997
sg8
(lp998
sg10
S'Possible'
p999
sg12
S'Isolated'
p1000
sg14
g248
sg16
I2
sg17
S'High'
p1001
sg19
S'Stor tilleggsbelastning'
p1002
sg21
Nsg22
S'400'
p1003
sg24
S'100'
p1004
sg26
S'Isolerte faresoner'
p1005
sg28
Nsg29
S'4'
p1006
sg31
S'4 - Store'
p1007
sba(irunmatrix
M3Element
p1008
(dp1009
g3
Nsg4
S'Lite sannsynlig, Mulig'
p1010
sg6
S'white'
p1011
sg8
(lp1012
sg10
S'Possible'
p1013
sg12
S'Isolated'
p1014
sg14
g506
sg16
I3
sg17
S'Low'
p1015
sg19
S'Liten tilleggsbelastning'
p1016
sg21
Nsg22
S'400'
p1017
sg24
S'200'
p1018
sg26
S'Isolerte faresoner'
p1019
sg28
Nsg29
g1006
sg31
S'4 - Store'
p1020
sba(irunmatrix
M3Element
p1021
(dp1022
g3
Nsg4
S'Lite sannsynlig, Mulig'
p1023
sg6
S'white'
p1024
sg8
(lp1025
sg10
S'Possible'
p1026
sg12
S'Isolated'
p1027
sg14
g506
sg16
I3
sg17
S'Nat'
p1028
sg19
S'Naturlig utloest'
p1029
sg21
Nsg22
S'400'
p1030
sg24
S'300'
p1031
sg26
S'Isolerte faresoner'
p1032
sg28
Nsg29
g1006
sg31
S'4 - Store'
p1033
sba(irunmatrix
M3Element
p1034
(dp1035
g3
Nsg4
S'Sannsynlig, Meget sannsynlig'
p1036
sg6
S'gray'
p1037
sg8
(lp1038
sg10
S'Likely'
p1039
sg12
S'Isolated'
p1040
sg14
g76
sg16
I0
sg17
S'High'
p1041
sg19
S'Stor tilleggsbelastning'
p1042
sg21
Nsg22
S'400'
p1043
sg24
S'400'
p1044
sg26
S'Isolerte faresoner'
p1045
sg28
Nsg29
g1006
sg31
S'4 - Store'
p1046
sba(irunmatrix
M3Element
p1047
(dp1048
g3
Nsg4
S'Sannsynlig, Meget sannsynlig'
p1049
sg6
S'gray'
p1050
sg8
(lp1051
sg10
S'Likely'
p1052
sg12
S'Isolated'
p1053
sg14
g76
sg16
I0
sg17
S'Low'
p1054
sg19
S'Liten tilleggsbelastning'
p1055
sg21
Nsg22
S'400'
p1056
sg24
S'500'
p1057
sg26
S'Isolerte faresoner'
p1058
sg28
Nsg29
g1006
sg31
S'4 - Store'
p1059
sba(irunmatrix
M3Element
p1060
(dp1061
g3
Nsg4
S'Sannsynlig, Meget sannsynlig'
p1062
sg6
S'gray'
p1063
sg8
(lp1064
sg10
S'Likely'
p1065
sg12
S'Isolated'
p1066
sg14
g76
sg16
I0
sg17
S'Nat'
p1067
sg19
S'Naturlig utloest'
p1068
sg21
Nsg22
S'400'
p1069
sg24
S'600'
p1070
sg26
S'Isolerte faresoner'
p1071
sg28
Nsg29
g1006
sg31
S'4 - Store'
p1072
sba(irunmatrix
M3Element
p1073
(dp1074
g3
Nsg4
S'Lite sannsynlig, Mulig'
p1075
sg6
S'white'
p1076
sg8
(lp1077
sg10
S'Possible'
p1078
sg12
S'Some'
p1079
sg14
g506
sg16
I3
sg17
S'High'
p1080
sg19
S'Stor tilleggsbelastning'
p1081
sg21
Nsg22
S'400'
p1082
sg24
S'700'
p1083
sg26
S'Noen bratte heng'
p1084
sg28
Nsg29
g1006
sg31
S'4 - Store'
p1085
sba(irunmatrix
M3Element
p1086
(dp1087
g3
Nsg4
S'Lite sannsynlig, Mulig'
p1088
sg6
S'white'
p1089
sg8
(lp1090
sg10
S'Possible'
p1091
sg12
S'Some'
p1092
sg14
g575
sg16
I4
sg17
S'Low'
p1093
sg19
S'Liten tilleggsbelastning'
p1094
sg21
Nsg22
S'400'
p1095
sg24
S'800'
p1096
sg26
S'Noen bratte heng'
p1097
sg28
Nsg29
g1006
sg31
S'4 - Store'
p1098
sba(irunmatrix
M3Element
p1099
(dp1100
g3
Nsg4
S'Lite sannsynlig, Mulig'
p1101
sg6
S'white'
p1102
sg8
(lp1103
sg10
S'Possible'
p1104
sg12
S'Some'
p1105
sg14
g575
sg16
I4
sg17
S'Nat'
p1106
sg19
S'Naturlig utloest'
p1107
sg21
Nsg22
S'400'
p1108
sg24
S'900'
p1109
sg26
S'Noen bratte heng'
p1110
sg28
Nsg29
g1006
sg31
S'4 - Store'
p1111
sba(irunmatrix
M3Element
p1112
(dp1113
g3
Nsg4
S'Sannsynlig, Meget sannsynlig'
p1114
sg6
S'gray'
p1115
sg8
(lp1116
sg10
S'Likely'
p1117
sg12
S'Some'
p1118
sg14
g76
sg16
I0
sg17
S'High'
p1119
sg19
S'Stor tilleggsbelastning'
p1120
sg21
Nsg22
S'400'
p1121
sg24
S'1000'
p1122
sg26
S'Noen bratte heng'
p1123
sg28
Nsg29
g1006
sg31
S'4 - Store'
p1124
sba(irunmatrix
M3Element
p1125
(dp1126
g3
Nsg4
S'Sannsynlig, Meget sannsynlig'
p1127
sg6
S'gray'
p1128
sg8
(lp1129
sg10
S'Likely'
p1130
sg12
S'Some'
p1131
sg14
g76
sg16
I0
sg17
S'Low'
p1132
sg19
S'Liten tilleggsbelastning'
p1133
sg21
Nsg22
S'400'
p1134
sg24
S'1100'
p1135
sg26
S'Noen bratte heng'
p1136
sg28
Nsg29
g1006
sg31
S'4 - Store'
p1137
sba(irunmatrix
M3Element
p1138
(dp1139
g3
Nsg4
S'Sannsynlig, Meget sannsynlig'
p1140
sg6
S'white'
p1141
sg8
(lp1142
sg10
S'Likely'
p1143
sg12
S'Some'
p1144
sg14
g575
sg16
I4
sg17
S'Nat'
p1145
sg19
S'Naturlig utloest'
p1146
sg21
Nsg22
S'400'
p1147
sg24
S'1200'
p1148
sg26
S'Noen bratte heng'
p1149
sg28
Nsg29
g1006
sg31
S'4 - Store'
p1150
sba(irunmatrix
M3Element
p1151
(dp1152
g3
Nsg4
S'Lite sannsynlig, Mulig'
p1153
sg6
S'gray'
p1154
sg8
(lp1155
sg10
S'Possible'
p1156
sg12
S'Many'
p1157
sg14
g76
sg16
I0
sg17
S'High'
p1158
sg19
S'Stor tilleggsbelastning'
p1159
sg21
Nsg22
S'400'
p1160
sg24
S'1300'
p1161
sg26
S'Mange bratte heng'
p1162
sg28
Nsg29
g1006
sg31
S'4 - Store'
p1163
sba(irunmatrix
M3Element
p1164
(dp1165
g3
Nsg4
S'Lite sannsynlig, Mulig'
p1166
sg6
S'white'
p1167
sg8
(lp1168
sg10
S'Possible'
p1169
sg12
S'Many'
p1170
sg14
g76
sg16
I0
sg17
S'Low'
p1171
sg19
S'Liten tilleggsbelastning'
p1172
sg21
Nsg22
S'400'
p1173
sg24
S'1400'
p1174
sg26
S'Mange bratte heng'
p1175
sg28
Nsg29
g1006
sg31
S'4 - Store'
p1176
sba(irunmatrix
M3Element
p1177
(dp1178
g3
Nsg4
S'Lite sannsynlig, Mulig'
p1179
sg6
S'gray'
p1180
sg8
(lp1181
sg10
S'Possible'
p1182
sg12
S'Many'
p1183
sg14
g76
sg16
I0
sg17
S'Nat'
p1184
sg19
S'Naturlig utloest'
p1185
sg21
Nsg22
S'400'
p1186
sg24
S'1500'
p1187
sg26
S'Mange bratte heng'
p1188
sg28
Nsg29
g1006
sg31
S'4 - Store'
p1189
sba(irunmatrix
M3Element
p1190
(dp1191
g3
Nsg4
S'Sannsynlig, Meget sannsynlig'
p1192
sg6
S'gray'
p1193
sg8
(lp1194
sg10
S'Likely'
p1195
sg12
S'Many'
p1196
sg14
g76
sg16
I0
sg17
S'High'
p1197
sg19
S'Stor tilleggsbelastning'
p1198
sg21
Nsg22
S'400'
p1199
sg24
S'1600'
p1200
sg26
S'Mange bratte heng'
p1201
sg28
Nsg29
g1006
sg31
S'4 - Store'
p1202
sba(irunmatrix
M3Element
p1203
(dp1204
g3
Nsg4
S'Sannsynlig, Meget sannsynlig'
p1205
sg6
S'white'
p1206
sg8
(lp1207
sg10
S'Likely'
p1208
sg12
S'Many'
p1209
sg14
g76
sg16
I0
sg17
S'Low'
p1210
sg19
S'Liten tilleggsbelastning'
p1211
sg21
Nsg22
S'400'
p1212
sg24
S'1700'
p1213
sg26
S'Mange bratte heng'
p1214
sg28
Nsg29
g1006
sg31
S'4 - Store'
p1215
sba(irunmatrix
M3Element
p1216
(dp1217
g3
Nsg4
S'Sannsynlig, Meget sannsynlig'
p1218
sg6
S'white'
p1219
sg8
(lp1220
sg10
S'Likely'
p1221
sg12
S'Many'
p1222
sg14
S'k'
p1223
sg16
I5
sg17
S'Nat'
p1224
sg19
S'Naturlig utloest'
p1225
sg21
Nsg22
S'400'
p1226
sg24
S'1800'
p1227
sg26
S'Mange bratte heng'
p1228
sg28
Nsg29
g1006
sg31
S'4 - Store'
p1229
sba(irunmatrix
M3Element
p1230
(dp1231
g3
Nsg4
S'Lite sannsynlig, Mulig'
p1232
sg6
S'gray'
p1233
sg8
(lp1234
sg10
S'Possible'
p1235
sg12
S'Most'
p1236
sg14
g76
sg16
I0
sg17
S'High'
p1237
sg19
S'Stor tilleggsbelastning'
p1238
sg21
Nsg22
S'400'
p1239
sg24
S'1900'
p1240
sg26
S'De fleste bratte heng, Ogsaa i mindre bratt terreng'
p1241
sg28
Nsg29
g1006
sg31
S'4 - Store'
p1242
sba(irunmatrix
M3Element
p1243
(dp1244
g3
Nsg4
S'Lite sannsynlig, Mulig'
p1245
sg6
S'gray'
p1246
sg8
(lp1247
sg10
S'Possible'
p1248
sg12
S'Most'
p1249
sg14
g76
sg16
I0
sg17
S'Low'
p1250
sg19
S'Liten tilleggsbelastning'
p1251
sg21
Nsg22
S'400'
p1252
sg24
S'2000'
p1253
sg26
S'De fleste bratte heng, Ogsaa i mindre bratt terreng'
p1254
sg28
Nsg29
g1006
sg31
S'4 - Store'
p1255
sba(irunmatrix
M3Element
p1256
(dp1257
g3
Nsg4
S'Lite sannsynlig, Mulig'
p1258
sg6
S'gray'
p1259
sg8
(lp1260
sg10
S'Possible'
p1261
sg12
S'Most'
p1262
sg14
g76
sg16
I0
sg17
S'Nat'
p1263
sg19
S'Naturlig utloest'
p1264
sg21
Nsg22
S'400'
p1265
sg24
S'2100'
p1266
sg26
S'De fleste bratte heng, Ogsaa i mindre bratt terreng'
p1267
sg28
Nsg29
g1006
sg31
S'4 - Store'
p1268
sba(irunmatrix
M3Element
p1269
(dp1270
g3
Nsg4
S'Sannsynlig, Meget sannsynlig'
p1271
sg6
S'gray'
p1272
sg8
(lp1273
sg10
S'Likely'
p1274
sg12
S'Most'
p1275
sg14
g76
sg16
I0
sg17
S'High'
p1276
sg19
S'Stor tilleggsbelastning'
p1277
sg21
Nsg22
S'400'
p1278
sg24
S'2200'
p1279
sg26
S'De fleste bratte heng, Ogsaa i mindre bratt terreng'
p1280
sg28
Nsg29
g1006
sg31
S'4 - Store'
p1281
sba(irunmatrix
M3Element
p1282
(dp1283
g3
Nsg4
S'Sannsynlig, Meget sannsynlig'
p1284
sg6
S'gray'
p1285
sg8
(lp1286
sg10
S'Likely'
p1287
sg12
S'Most'
p1288
sg14
g76
sg16
I0
sg17
S'Low'
p1289
sg19
S'Liten tilleggsbelastning'
p1290
sg21
Nsg22
S'400'
p1291
sg24
S'2300'
p1292
sg26
S'De fleste bratte heng, Ogsaa i mindre bratt terreng'
p1293
sg28
Nsg29
g1006
sg31
S'4 - Store'
p1294
sba(irunmatrix
M3Element
p1295
(dp1296
g3
Nsg4
S'Sannsynlig, Meget sannsynlig'
p1297
sg6
S'white'
p1298
sg8
(lp1299
sg10
S'Likely'
p1300
sg12
S'Most'
p1301
sg14
g76
sg16
I0
sg17
S'Nat'
p1302
sg19
S'Naturlig utloest'
p1303
sg21
Nsg22
S'400'
p1304
sg24
S'2400'
p1305
sg26
S'De fleste bratte heng, Ogsaa i mindre bratt terreng'
p1306
sg28
Nsg29
g1006
sg31
S'4 - Store'
p1307
sba(irunmatrix
M3Element
p1308
(dp1309
g3
Nsg4
S'Lite sannsynlig, Mulig'
p1310
sg6
S'white'
p1311
sg8
(lp1312
sg10
S'Possible'
p1313
sg12
S'Isolated'
p1314
sg14
g76
sg16
I0
sg17
S'High'
p1315
sg19
S'Stor tilleggsbelastning'
p1316
sg21
Nsg22
S'500'
p1317
sg24
S'100'
p1318
sg26
S'Isolerte faresoner'
p1319
sg28
Nsg29
S'5'
p1320
sg31
S'5 - Svaert store'
p1321
sba(irunmatrix
M3Element
p1322
(dp1323
g3
Nsg4
S'Lite sannsynlig, Mulig'
p1324
sg6
S'white'
p1325
sg8
(lp1326
sg10
S'Possible'
p1327
sg12
S'Isolated'
p1328
sg14
g76
sg16
I0
sg17
S'Low'
p1329
sg19
S'Liten tilleggsbelastning'
p1330
sg21
Nsg22
S'500'
p1331
sg24
S'200'
p1332
sg26
S'Isolerte faresoner'
p1333
sg28
Nsg29
g1320
sg31
S'5 - Svaert store'
p1334
sba(irunmatrix
M3Element
p1335
(dp1336
g3
Nsg4
S'Lite sannsynlig, Mulig'
p1337
sg6
S'white'
p1338
sg8
(lp1339
sg10
S'Possible'
p1340
sg12
S'Isolated'
p1341
sg14
g76
sg16
I0
sg17
S'Nat'
p1342
sg19
S'Naturlig utloest'
p1343
sg21
Nsg22
S'500'
p1344
sg24
S'300'
p1345
sg26
S'Isolerte faresoner'
p1346
sg28
Nsg29
g1320
sg31
S'5 - Svaert store'
p1347
sba(irunmatrix
M3Element
p1348
(dp1349
g3
Nsg4
S'Sannsynlig, Meget sannsynlig'
p1350
sg6
S'gray'
p1351
sg8
(lp1352
sg10
S'Likely'
p1353
sg12
S'Isolated'
p1354
sg14
g76
sg16
I0
sg17
S'High'
p1355
sg19
S'Stor tilleggsbelastning'
p1356
sg21
Nsg22
S'500'
p1357
sg24
S'400'
p1358
sg26
S'Isolerte faresoner'
p1359
sg28
Nsg29
g1320
sg31
S'5 - Svaert store'
p1360
sba(irunmatrix
M3Element
p1361
(dp1362
g3
Nsg4
S'Sannsynlig, Meget sannsynlig'
p1363
sg6
S'gray'
p1364
sg8
(lp1365
sg10
S'Likely'
p1366
sg12
S'Isolated'
p1367
sg14
g76
sg16
I0
sg17
S'Low'
p1368
sg19
S'Liten tilleggsbelastning'
p1369
sg21
Nsg22
S'500'
p1370
sg24
S'500'
p1371
sg26
S'Isolerte faresoner'
p1372
sg28
Nsg29
g1320
sg31
S'5 - Svaert store'
p1373
sba(irunmatrix
M3Element
p1374
(dp1375
g3
Nsg4
S'Sannsynlig, Meget sannsynlig'
p1376
sg6
S'gray'
p1377
sg8
(lp1378
sg10
S'Likely'
p1379
sg12
S'Isolated'
p1380
sg14
g76
sg16
I0
sg17
S'Nat'
p1381
sg19
S'Naturlig utloest'
p1382
sg21
Nsg22
S'500'
p1383
sg24
S'600'
p1384
sg26
S'Isolerte faresoner'
p1385
sg28
Nsg29
g1320
sg31
S'5 - Svaert store'
p1386
sba(irunmatrix
M3Element
p1387
(dp1388
g3
Nsg4
S'Lite sannsynlig, Mulig'
p1389
sg6
S'white'
p1390
sg8
(lp1391
sg10
S'Possible'
p1392
sg12
S'Some'
p1393
sg14
g76
sg16
I0
sg17
S'High'
p1394
sg19
S'Stor tilleggsbelastning'
p1395
sg21
Nsg22
S'500'
p1396
sg24
S'700'
p1397
sg26
S'Noen bratte heng'
p1398
sg28
Nsg29
g1320
sg31
S'5 - Svaert store'
p1399
sba(irunmatrix
M3Element
p1400
(dp1401
g3
Nsg4
S'Lite sannsynlig, Mulig'
p1402
sg6
S'white'
p1403
sg8
(lp1404
sg10
S'Possible'
p1405
sg12
S'Some'
p1406
sg14
g76
sg16
I0
sg17
S'Low'
p1407
sg19
S'Liten tilleggsbelastning'
p1408
sg21
Nsg22
S'500'
p1409
sg24
S'800'
p1410
sg26
S'Noen bratte heng'
p1411
sg28
Nsg29
g1320
sg31
S'5 - Svaert store'
p1412
sba(irunmatrix
M3Element
p1413
(dp1414
g3
Nsg4
S'Lite sannsynlig, Mulig'
p1415
sg6
S'white'
p1416
sg8
(lp1417
sg10
S'Possible'
p1418
sg12
S'Some'
p1419
sg14
g76
sg16
I0
sg17
S'Nat'
p1420
sg19
S'Naturlig utloest'
p1421
sg21
Nsg22
S'500'
p1422
sg24
S'900'
p1423
sg26
S'Noen bratte heng'
p1424
sg28
Nsg29
g1320
sg31
S'5 - Svaert store'
p1425
sba(irunmatrix
M3Element
p1426
(dp1427
g3
Nsg4
S'Sannsynlig, Meget sannsynlig'
p1428
sg6
S'gray'
p1429
sg8
(lp1430
sg10
S'Likely'
p1431
sg12
S'Some'
p1432
sg14
g76
sg16
I0
sg17
S'High'
p1433
sg19
S'Stor tilleggsbelastning'
p1434
sg21
Nsg22
S'500'
p1435
sg24
S'1000'
p1436
sg26
S'Noen bratte heng'
p1437
sg28
Nsg29
g1320
sg31
S'5 - Svaert store'
p1438
sba(irunmatrix
M3Element
p1439
(dp1440
g3
Nsg4
S'Sannsynlig, Meget sannsynlig'
p1441
sg6
S'gray'
p1442
sg8
(lp1443
sg10
S'Likely'
p1444
sg12
S'Some'
p1445
sg14
g76
sg16
I0
sg17
S'Low'
p1446
sg19
S'Liten tilleggsbelastning'
p1447
sg21
Nsg22
S'500'
p1448
sg24
S'1100'
p1449
sg26
S'Noen bratte heng'
p1450
sg28
Nsg29
g1320
sg31
S'5 - Svaert store'
p1451
sba(irunmatrix
M3Element
p1452
(dp1453
g3
Nsg4
S'Sannsynlig, Meget sannsynlig'
p1454
sg6
S'white'
p1455
sg8
(lp1456
sg10
S'Likely'
p1457
sg12
S'Some'
p1458
sg14
g76
sg16
I0
sg17
S'Nat'
p1459
sg19
S'Naturlig utloest'
p1460
sg21
Nsg22
S'500'
p1461
sg24
S'1200'
p1462
sg26
S'Noen bratte heng'
p1463
sg28
Nsg29
g1320
sg31
S'5 - Svaert store'
p1464
sba(irunmatrix
M3Element
p1465
(dp1466
g3
Nsg4
S'Lite sannsynlig, Mulig'
p1467
sg6
S'gray'
p1468
sg8
(lp1469
sg10
S'Possible'
p1470
sg12
S'Many'
p1471
sg14
g76
sg16
I0
sg17
S'High'
p1472
sg19
S'Stor tilleggsbelastning'
p1473
sg21
Nsg22
S'500'
p1474
sg24
S'1300'
p1475
sg26
S'Mange bratte heng'
p1476
sg28
Nsg29
g1320
sg31
S'5 - Svaert store'
p1477
sba(irunmatrix
M3Element
p1478
(dp1479
g3
Nsg4
S'Lite sannsynlig, Mulig'
p1480
sg6
S'white'
p1481
sg8
(lp1482
sg10
S'Possible'
p1483
sg12
S'Many'
p1484
sg14
g76
sg16
I0
sg17
S'Low'
p1485
sg19
S'Liten tilleggsbelastning'
p1486
sg21
Nsg22
S'500'
p1487
sg24
S'1400'
p1488
sg26
S'Mange bratte heng'
p1489
sg28
Nsg29
g1320
sg31
S'5 - Svaert store'
p1490
sba(irunmatrix
M3Element
p1491
(dp1492
g3
Nsg4
S'Lite sannsynlig, Mulig'
p1493
sg6
S'gray'
p1494
sg8
(lp1495
sg10
S'Possible'
p1496
sg12
S'Many'
p1497
sg14
g76
sg16
I0
sg17
S'Nat'
p1498
sg19
S'Naturlig utloest'
p1499
sg21
Nsg22
S'500'
p1500
sg24
S'1500'
p1501
sg26
S'Mange bratte heng'
p1502
sg28
Nsg29
g1320
sg31
S'5 - Svaert store'
p1503
sba(irunmatrix
M3Element
p1504
(dp1505
g3
Nsg4
S'Sannsynlig, Meget sannsynlig'
p1506
sg6
S'gray'
p1507
sg8
(lp1508
sg10
S'Likely'
p1509
sg12
S'Many'
p1510
sg14
g76
sg16
I0
sg17
S'High'
p1511
sg19
S'Stor tilleggsbelastning'
p1512
sg21
Nsg22
S'500'
p1513
sg24
S'1600'
p1514
sg26
S'Mange bratte heng'
p1515
sg28
Nsg29
g1320
sg31
S'5 - Svaert store'
p1516
sba(irunmatrix
M3Element
p1517
(dp1518
g3
Nsg4
S'Sannsynlig, Meget sannsynlig'
p1519
sg6
S'white'
p1520
sg8
(lp1521
sg10
S'Likely'
p1522
sg12
S'Many'
p1523
sg14
g76
sg16
I0
sg17
S'Low'
p1524
sg19
S'Liten tilleggsbelastning'
p1525
sg21
Nsg22
S'500'
p1526
sg24
S'1700'
p1527
sg26
S'Mange bratte heng'
p1528
sg28
Nsg29
g1320
sg31
S'5 - Svaert store'
p1529
sba(irunmatrix
M3Element
p1530
(dp1531
g3
Nsg4
S'Sannsynlig, Meget sannsynlig'
p1532
sg6
S'white'
p1533
sg8
(lp1534
sg10
S'Likely'
p1535
sg12
S'Many'
p1536
sg14
g1223
sg16
I5
sg17
S'Nat'
p1537
sg19
S'Naturlig utloest'
p1538
sg21
Nsg22
S'500'
p1539
sg24
S'1800'
p1540
sg26
S'Mange bratte heng'
p1541
sg28
Nsg29
g1320
sg31
S'5 - Svaert store'
p1542
sba(irunmatrix
M3Element
p1543
(dp1544
g3
Nsg4
S'Lite sannsynlig, Mulig'
p1545
sg6
S'gray'
p1546
sg8
(lp1547
sg10
S'Possible'
p1548
sg12
S'Most'
p1549
sg14
g76
sg16
I0
sg17
S'High'
p1550
sg19
S'Stor tilleggsbelastning'
p1551
sg21
Nsg22
S'500'
p1552
sg24
S'1900'
p1553
sg26
S'De fleste bratte heng, Ogsaa i mindre bratt terreng'
p1554
sg28
Nsg29
g1320
sg31
S'5 - Svaert store'
p1555
sba(irunmatrix
M3Element
p1556
(dp1557
g3
Nsg4
S'Lite sannsynlig, Mulig'
p1558
sg6
S'gray'
p1559
sg8
(lp1560
sg10
S'Possible'
p1561
sg12
S'Most'
p1562
sg14
g76
sg16
I0
sg17
S'Low'
p1563
sg19
S'Liten tilleggsbelastning'
p1564
sg21
Nsg22
S'500'
p1565
sg24
S'2000'
p1566
sg26
S'De fleste bratte heng, Ogsaa i mindre bratt terreng'
p1567
sg28
Nsg29
g1320
sg31
S'5 - Svaert store'
p1568
sba(irunmatrix
M3Element
p1569
(dp1570
g3
Nsg4
S'Lite sannsynlig, Mulig'
p1571
sg6
S'gray'
p1572
sg8
(lp1573
sg10
S'Possible'
p1574
sg12
S'Most'
p1575
sg14
g76
sg16
I0
sg17
S'Nat'
p1576
sg19
S'Naturlig utloest'
p1577
sg21
Nsg22
S'500'
p1578
sg24
S'2100'
p1579
sg26
S'De fleste bratte heng, Ogsaa i mindre bratt terreng'
p1580
sg28
Nsg29
g1320
sg31
S'5 - Svaert store'
p1581
sba(irunmatrix
M3Element
p1582
(dp1583
g3
Nsg4
S'Sannsynlig, Meget sannsynlig'
p1584
sg6
S'gray'
p1585
sg8
(lp1586
sg10
S'Likely'
p1587
sg12
S'Most'
p1588
sg14
g76
sg16
I0
sg17
S'High'
p1589
sg19
S'Stor tilleggsbelastning'
p1590
sg21
Nsg22
S'500'
p1591
sg24
S'2200'
p1592
sg26
S'De fleste bratte heng, Ogsaa i mindre bratt terreng'
p1593
sg28
Nsg29
g1320
sg31
S'5 - Svaert store'
p1594
sba(irunmatrix
M3Element
p1595
(dp1596
g3
Nsg4
S'Sannsynlig, Meget sannsynlig'
p1597
sg6
S'gray'
p1598
sg8
(lp1599
sg10
S'Likely'
p1600
sg12
S'Most'
p1601
sg14
g76
sg16
I0
sg17
S'Low'
p1602
sg19
S'Liten tilleggsbelastning'
p1603
sg21
Nsg22
S'500'
p1604
sg24
S'2300'
p1605
sg26
S'De fleste bratte heng, Ogsaa i mindre bratt terreng'
p1606
sg28
Nsg29
g1320
sg31
S'5 - Svaert store'
p1607
sba(irunmatrix
M3Element
p1608
(dp1609
g3
Nsg4
S'Sannsynlig, Meget sannsynlig'
p1610
sg6
S'white'
p1611
sg8
(lp1612
sg10
S'Likely'
p1613
sg12
S'Most'
p1614
sg14
g76
sg16
I0
sg17
S'Nat'
p1615
sg19
S'Naturlig utloest'
p1616
sg21
Nsg22
S'500'
p1617
sg24
S'2400'
p1618
sg26
S'De fleste bratte heng, Ogsaa i mindre bratt terreng'
p1619
sg28
Nsg29
g1320
sg31
S'5 - Svaert store'
p1620
sba.