(dp0
S'trigger'
p1
(dp2
S'keys'
p3
(lp4
S'Stor tilleggsbelastning'
p5
aS'Liten tilleggsbelastning'
p6
aS'Naturlig utloest'
p7
asS'colors'
p8
(lp9
S'0.7'
p10
asS'values'
p11
(lp12
S'Liten tilleggsbelastning'
p13
aS'Naturlig utloest'
p14
aS'Naturlig utloest'
p15
aS'Naturlig utloest'
p16
aS'Liten tilleggsbelastning'
p17
aS'Liten tilleggsbelastning'
p18
aS'Liten tilleggsbelastning'
p19
aS'Liten tilleggsbelastning'
p20
aS'Naturlig utloest'
p21
aS'Naturlig utloest'
p22
aS'Liten tilleggsbelastning'
p23
aS'Liten tilleggsbelastning'
p24
aS'Liten tilleggsbelastning'
p25
aS'Liten tilleggsbelastning'
p26
aS'Liten tilleggsbelastning'
p27
aS'Liten tilleggsbelastning'
p28
aS'Stor tilleggsbelastning'
p29
aS'Liten tilleggsbelastning'
p30
aS'Liten tilleggsbelastning'
p31
aS'Liten tilleggsbelastning'
p32
aS'Liten tilleggsbelastning'
p33
aS'Liten tilleggsbelastning'
p34
aS'Liten tilleggsbelastning'
p35
aS'Liten tilleggsbelastning'
p36
aS'Liten tilleggsbelastning'
p37
aS'Liten tilleggsbelastning'
p38
aS'Stor tilleggsbelastning'
p39
aS'Liten tilleggsbelastning'
p40
aS'Liten tilleggsbelastning'
p41
aS'Liten tilleggsbelastning'
p42
aS'Liten tilleggsbelastning'
p43
aS'Stor tilleggsbelastning'
p44
aS'Liten tilleggsbelastning'
p45
aS'Liten tilleggsbelastning'
p46
aS'Liten tilleggsbelastning'
p47
aS'Stor tilleggsbelastning'
p48
aS'Liten tilleggsbelastning'
p49
aS'Liten tilleggsbelastning'
p50
aS'Liten tilleggsbelastning'
p51
aS'Liten tilleggsbelastning'
p52
aS'Stor tilleggsbelastning'
p53
aS'Liten tilleggsbelastning'
p54
aS'Stor tilleggsbelastning'
p55
aS'Liten tilleggsbelastning'
p56
aS'Liten tilleggsbelastning'
p57
aS'Liten tilleggsbelastning'
p58
aS'Liten tilleggsbelastning'
p59
aS'Liten tilleggsbelastning'
p60
aS'Stor tilleggsbelastning'
p61
aS'Stor tilleggsbelastning'
p62
aS'Liten tilleggsbelastning'
p63
aS'Liten tilleggsbelastning'
p64
aS'Stor tilleggsbelastning'
p65
aS'Liten tilleggsbelastning'
p66
aS'Stor tilleggsbelastning'
p67
aS'Stor tilleggsbelastning'
p68
aS'Liten tilleggsbelastning'
p69
aS'Liten tilleggsbelastning'
p70
aS'Liten tilleggsbelastning'
p71
aS'Liten tilleggsbelastning'
p72
aS'Liten tilleggsbelastning'
p73
aS'Liten tilleggsbelastning'
p74
aS'Liten tilleggsbelastning'
p75
aS'Liten tilleggsbelastning'
p76
aS'Liten tilleggsbelastning'
p77
aS'Liten tilleggsbelastning'
p78
aS'Liten tilleggsbelastning'
p79
aS'Liten tilleggsbelastning'
p80
aS'Liten tilleggsbelastning'
p81
aS'Liten tilleggsbelastning'
p82
aS'Liten tilleggsbelastning'
p83
aS'Liten tilleggsbelastning'
p84
aS'Liten tilleggsbelastning'
p85
aS'Stor tilleggsbelastning'
p86
aS'Stor tilleggsbelastning'
p87
aS'Stor tilleggsbelastning'
p88
aS'Stor tilleggsbelastning'
p89
aS'Stor tilleggsbelastning'
p90
aS'Stor tilleggsbelastning'
p91
aS'Liten tilleggsbelastning'
p92
aS'Stor tilleggsbelastning'
p93
aS'Stor tilleggsbelastning'
p94
aS'Stor tilleggsbelastning'
p95
aS'Liten tilleggsbelastning'
p96
aS'Stor tilleggsbelastning'
p97
aS'Liten tilleggsbelastning'
p98
aS'Stor tilleggsbelastning'
p99
aS'Stor tilleggsbelastning'
p100
aS'Stor tilleggsbelastning'
p101
aS'Stor tilleggsbelastning'
p102
aS'Stor tilleggsbelastning'
p103
aS'Liten tilleggsbelastning'
p104
aS'Stor tilleggsbelastning'
p105
aS'Stor tilleggsbelastning'
p106
aS'Stor tilleggsbelastning'
p107
aS'Stor tilleggsbelastning'
p108
aS'Stor tilleggsbelastning'
p109
aS'Stor tilleggsbelastning'
p110
aS'Liten tilleggsbelastning'
p111
aS'Liten tilleggsbelastning'
p112
aS'Liten tilleggsbelastning'
p113
aS'Liten tilleggsbelastning'
p114
aS'Liten tilleggsbelastning'
p115
aS'Liten tilleggsbelastning'
p116
aS'Liten tilleggsbelastning'
p117
aS'Liten tilleggsbelastning'
p118
aS'Liten tilleggsbelastning'
p119
aS'Liten tilleggsbelastning'
p120
aS'Liten tilleggsbelastning'
p121
aS'Liten tilleggsbelastning'
p122
aS'Liten tilleggsbelastning'
p123
aS'Naturlig utloest'
p124
aS'Stor tilleggsbelastning'
p125
aS'Stor tilleggsbelastning'
p126
aS'Stor tilleggsbelastning'
p127
aS'Stor tilleggsbelastning'
p128
aS'Stor tilleggsbelastning'
p129
aS'Stor tilleggsbelastning'
p130
aS'Naturlig utloest'
p131
aS'Stor tilleggsbelastning'
p132
aS'Liten tilleggsbelastning'
p133
aS'Liten tilleggsbelastning'
p134
aS'Liten tilleggsbelastning'
p135
aS'Liten tilleggsbelastning'
p136
aS'Liten tilleggsbelastning'
p137
aS'Liten tilleggsbelastning'
p138
aS'Liten tilleggsbelastning'
p139
aS'Liten tilleggsbelastning'
p140
aS'Liten tilleggsbelastning'
p141
aS'Liten tilleggsbelastning'
p142
aS'Liten tilleggsbelastning'
p143
aS'Liten tilleggsbelastning'
p144
aS'Liten tilleggsbelastning'
p145
aS'Liten tilleggsbelastning'
p146
aS'Liten tilleggsbelastning'
p147
aS'Liten tilleggsbelastning'
p148
aS'Liten tilleggsbelastning'
p149
aS'Liten tilleggsbelastning'
p150
aS'Liten tilleggsbelastning'
p151
aS'Liten tilleggsbelastning'
p152
aS'Liten tilleggsbelastning'
p153
aS'Liten tilleggsbelastning'
p154
aS'Liten tilleggsbelastning'
p155
aS'Liten tilleggsbelastning'
p156
aS'Liten tilleggsbelastning'
p157
aS'Liten tilleggsbelastning'
p158
aS'Liten tilleggsbelastning'
p159
aS'Liten tilleggsbelastning'
p160
aS'Naturlig utloest'
p161
aS'Naturlig utloest'
p162
aS'Naturlig utloest'
p163
aS'Naturlig utloest'
p164
aS'Naturlig utloest'
p165
aS'Naturlig utloest'
p166
aS'Naturlig utloest'
p167
aS'Naturlig utloest'
p168
aS'Naturlig utloest'
p169
aS'Naturlig utloest'
p170
aS'Naturlig utloest'
p171
aS'Naturlig utloest'
p172
aS'Naturlig utloest'
p173
aS'Naturlig utloest'
p174
aS'Naturlig utloest'
p175
aS'Naturlig utloest'
p176
aS'Naturlig utloest'
p177
aS'Naturlig utloest'
p178
aS'Naturlig utloest'
p179
aS'Naturlig utloest'
p180
aS'Naturlig utloest'
p181
aS'Naturlig utloest'
p182
aS'Naturlig utloest'
p183
aS'Naturlig utloest'
p184
aS'Stor tilleggsbelastning'
p185
aS'Naturlig utloest'
p186
aS'Naturlig utloest'
p187
aS'Naturlig utloest'
p188
aS'Naturlig utloest'
p189
aS'Naturlig utloest'
p190
aS'Naturlig utloest'
p191
aS'Naturlig utloest'
p192
aS'Naturlig utloest'
p193
aS'Naturlig utloest'
p194
aS'Naturlig utloest'
p195
aS'Naturlig utloest'
p196
aS'Naturlig utloest'
p197
aS'Naturlig utloest'
p198
aS'Stor tilleggsbelastning'
p199
aS'Naturlig utloest'
p200
aS'Naturlig utloest'
p201
aS'Naturlig utloest'
p202
aS'Naturlig utloest'
p203
aS'Naturlig utloest'
p204
aS'Naturlig utloest'
p205
aS'Naturlig utloest'
p206
aS'Naturlig utloest'
p207
aS'Naturlig utloest'
p208
aS'Naturlig utloest'
p209
aS'Naturlig utloest'
p210
aS'Naturlig utloest'
p211
aS'Naturlig utloest'
p212
aS'Stor tilleggsbelastning'
p213
aS'Naturlig utloest'
p214
aS'Naturlig utloest'
p215
assS'distribution'
p216
(dp217
g3
(lp218
S'Isolerte faresoner'
p219
aS'Noen bratte heng'
p220
aS'Mange bratte heng'
p221
aS'De fleste bratte heng'
p222
aS'Ogsaa i mindre bratt terreng'
p223
asg8
(lp224
g10
asg11
(lp225
S'Noen bratte heng'
p226
aS'Noen bratte heng'
p227
aS'Noen bratte heng'
p228
aS'Noen bratte heng'
p229
aS'Noen bratte heng'
p230
aS'Noen bratte heng'
p231
aS'Noen bratte heng'
p232
aS'Noen bratte heng'
p233
aS'Noen bratte heng'
p234
aS'Noen bratte heng'
p235
aS'Mange bratte heng'
p236
aS'Mange bratte heng'
p237
aS'Noen bratte heng'
p238
aS'Mange bratte heng'
p239
aS'Noen bratte heng'
p240
aS'Noen bratte heng'
p241
aS'Noen bratte heng'
p242
aS'Noen bratte heng'
p243
aS'Noen bratte heng'
p244
aS'Noen bratte heng'
p245
aS'Noen bratte heng'
p246
aS'Noen bratte heng'
p247
aS'Noen bratte heng'
p248
aS'Noen bratte heng'
p249
aS'Noen bratte heng'
p250
aS'Noen bratte heng'
p251
aS'Noen bratte heng'
p252
aS'Mange bratte heng'
p253
aS'Mange bratte heng'
p254
aS'Mange bratte heng'
p255
aS'Mange bratte heng'
p256
aS'Noen bratte heng'
p257
aS'Mange bratte heng'
p258
aS'Noen bratte heng'
p259
aS'Noen bratte heng'
p260
aS'Mange bratte heng'
p261
aS'Mange bratte heng'
p262
aS'Mange bratte heng'
p263
aS'Mange bratte heng'
p264
aS'Noen bratte heng'
p265
aS'Noen bratte heng'
p266
aS'Noen bratte heng'
p267
aS'Noen bratte heng'
p268
aS'Mange bratte heng'
p269
aS'Noen bratte heng'
p270
aS'Mange bratte heng'
p271
aS'Noen bratte heng'
p272
aS'Noen bratte heng'
p273
aS'Noen bratte heng'
p274
aS'Noen bratte heng'
p275
aS'Noen bratte heng'
p276
aS'Noen bratte heng'
p277
aS'Noen bratte heng'
p278
aS'Noen bratte heng'
p279
aS'Noen bratte heng'
p280
aS'Noen bratte heng'
p281
aS'Noen bratte heng'
p282
aS'Noen bratte heng'
p283
aS'Noen bratte heng'
p284
aS'Noen bratte heng'
p285
aS'Noen bratte heng'
p286
aS'Noen bratte heng'
p287
aS'Noen bratte heng'
p288
aS'Noen bratte heng'
p289
aS'Noen bratte heng'
p290
aS'Isolerte faresoner'
p291
aS'Noen bratte heng'
p292
aS'Noen bratte heng'
p293
aS'Noen bratte heng'
p294
aS'Noen bratte heng'
p295
aS'Noen bratte heng'
p296
aS'Noen bratte heng'
p297
aS'Noen bratte heng'
p298
aS'Noen bratte heng'
p299
aS'Isolerte faresoner'
p300
aS'Noen bratte heng'
p301
aS'Noen bratte heng'
p302
aS'Noen bratte heng'
p303
aS'Noen bratte heng'
p304
aS'Noen bratte heng'
p305
aS'Isolerte faresoner'
p306
aS'Noen bratte heng'
p307
aS'Noen bratte heng'
p308
aS'Noen bratte heng'
p309
aS'Noen bratte heng'
p310
aS'Noen bratte heng'
p311
aS'Noen bratte heng'
p312
aS'Noen bratte heng'
p313
aS'Noen bratte heng'
p314
aS'Noen bratte heng'
p315
aS'Noen bratte heng'
p316
aS'Noen bratte heng'
p317
aS'Noen bratte heng'
p318
aS'Noen bratte heng'
p319
aS'Noen bratte heng'
p320
aS'Noen bratte heng'
p321
aS'Noen bratte heng'
p322
aS'Noen bratte heng'
p323
aS'Noen bratte heng'
p324
aS'Noen bratte heng'
p325
aS'Noen bratte heng'
p326
aS'Noen bratte heng'
p327
aS'Noen bratte heng'
p328
aS'Noen bratte heng'
p329
aS'Noen bratte heng'
p330
aS'Noen bratte heng'
p331
aS'Noen bratte heng'
p332
aS'Noen bratte heng'
p333
aS'Noen bratte heng'
p334
aS'Noen bratte heng'
p335
aS'Noen bratte heng'
p336
aS'Noen bratte heng'
p337
aS'Noen bratte heng'
p338
aS'Noen bratte heng'
p339
aS'Noen bratte heng'
p340
aS'Noen bratte heng'
p341
aS'Noen bratte heng'
p342
aS'Noen bratte heng'
p343
aS'Noen bratte heng'
p344
aS'Noen bratte heng'
p345
aS'Noen bratte heng'
p346
aS'Noen bratte heng'
p347
aS'Noen bratte heng'
p348
aS'Noen bratte heng'
p349
aS'Noen bratte heng'
p350
aS'Noen bratte heng'
p351
aS'Noen bratte heng'
p352
aS'Noen bratte heng'
p353
aS'Isolerte faresoner'
p354
aS'Noen bratte heng'
p355
aS'Noen bratte heng'
p356
aS'Noen bratte heng'
p357
aS'Noen bratte heng'
p358
aS'Noen bratte heng'
p359
aS'Noen bratte heng'
p360
aS'Noen bratte heng'
p361
aS'Noen bratte heng'
p362
aS'Noen bratte heng'
p363
aS'Noen bratte heng'
p364
aS'Noen bratte heng'
p365
aS'Noen bratte heng'
p366
aS'Noen bratte heng'
p367
aS'Noen bratte heng'
p368
aS'Noen bratte heng'
p369
aS'Noen bratte heng'
p370
aS'Noen bratte heng'
p371
aS'Noen bratte heng'
p372
aS'Noen bratte heng'
p373
aS'Noen bratte heng'
p374
aS'Noen bratte heng'
p375
aS'Noen bratte heng'
p376
aS'Noen bratte heng'
p377
aS'Noen bratte heng'
p378
aS'Noen bratte heng'
p379
aS'Noen bratte heng'
p380
aS'Noen bratte heng'
p381
aS'Noen bratte heng'
p382
aS'Noen bratte heng'
p383
aS'Noen bratte heng'
p384
aS'Noen bratte heng'
p385
aS'Noen bratte heng'
p386
aS'Noen bratte heng'
p387
aS'Noen bratte heng'
p388
aS'Noen bratte heng'
p389
aS'Noen bratte heng'
p390
aS'Noen bratte heng'
p391
aS'Noen bratte heng'
p392
aS'Noen bratte heng'
p393
aS'Noen bratte heng'
p394
aS'Noen bratte heng'
p395
aS'Noen bratte heng'
p396
aS'Noen bratte heng'
p397
aS'Noen bratte heng'
p398
aS'Noen bratte heng'
p399
aS'Noen bratte heng'
p400
aS'Noen bratte heng'
p401
aS'Noen bratte heng'
p402
aS'Noen bratte heng'
p403
aS'Noen bratte heng'
p404
aS'Noen bratte heng'
p405
aS'Noen bratte heng'
p406
aS'Noen bratte heng'
p407
aS'Noen bratte heng'
p408
aS'Noen bratte heng'
p409
aS'Noen bratte heng'
p410
aS'Noen bratte heng'
p411
aS'Noen bratte heng'
p412
aS'Noen bratte heng'
p413
aS'Noen bratte heng'
p414
aS'Noen bratte heng'
p415
aS'Noen bratte heng'
p416
aS'Noen bratte heng'
p417
aS'Noen bratte heng'
p418
aS'Noen bratte heng'
p419
aS'Noen bratte heng'
p420
aS'Noen bratte heng'
p421
aS'Noen bratte heng'
p422
aS'Noen bratte heng'
p423
aS'Noen bratte heng'
p424
aS'Noen bratte heng'
p425
aS'Noen bratte heng'
p426
aS'Noen bratte heng'
p427
aS'Noen bratte heng'
p428
assS'size'
p429
(dp430
g3
(lp431
S'1 - Harmloest'
p432
aS'2 - Smaa'
p433
aS'3 - Middels'
p434
aS'4 - Store'
p435
aS'5 - Svaert store'
p436
aS'Ukjent'
p437
asg8
(lp438
g10
asg11
(lp439
S'2 - Smaa'
p440
aS'2 - Smaa'
p441
aS'2 - Smaa'
p442
aS'2 - Smaa'
p443
aS'2 - Smaa'
p444
aS'3 - Middels'
p445
aS'3 - Middels'
p446
aS'2 - Smaa'
p447
aS'3 - Middels'
p448
aS'3 - Middels'
p449
aS'2 - Smaa'
p450
aS'2 - Smaa'
p451
aS'2 - Smaa'
p452
aS'2 - Smaa'
p453
aS'2 - Smaa'
p454
aS'2 - Smaa'
p455
aS'3 - Middels'
p456
aS'2 - Smaa'
p457
aS'2 - Smaa'
p458
aS'2 - Smaa'
p459
aS'2 - Smaa'
p460
aS'2 - Smaa'
p461
aS'2 - Smaa'
p462
aS'2 - Smaa'
p463
aS'2 - Smaa'
p464
aS'2 - Smaa'
p465
aS'2 - Smaa'
p466
aS'2 - Smaa'
p467
aS'2 - Smaa'
p468
aS'2 - Smaa'
p469
aS'2 - Smaa'
p470
aS'3 - Middels'
p471
aS'2 - Smaa'
p472
aS'2 - Smaa'
p473
aS'2 - Smaa'
p474
aS'2 - Smaa'
p475
aS'2 - Smaa'
p476
aS'3 - Middels'
p477
aS'2 - Smaa'
p478
aS'3 - Middels'
p479
aS'3 - Middels'
p480
aS'2 - Smaa'
p481
aS'2 - Smaa'
p482
aS'2 - Smaa'
p483
aS'3 - Middels'
p484
aS'2 - Smaa'
p485
aS'2 - Smaa'
p486
aS'3 - Middels'
p487
aS'3 - Middels'
p488
aS'3 - Middels'
p489
aS'2 - Smaa'
p490
aS'2 - Smaa'
p491
aS'2 - Smaa'
p492
aS'3 - Middels'
p493
aS'3 - Middels'
p494
aS'3 - Middels'
p495
aS'2 - Smaa'
p496
aS'2 - Smaa'
p497
aS'2 - Smaa'
p498
aS'2 - Smaa'
p499
aS'2 - Smaa'
p500
aS'2 - Smaa'
p501
aS'2 - Smaa'
p502
aS'2 - Smaa'
p503
aS'2 - Smaa'
p504
aS'2 - Smaa'
p505
aS'2 - Smaa'
p506
aS'2 - Smaa'
p507
aS'2 - Smaa'
p508
aS'3 - Middels'
p509
aS'3 - Middels'
p510
aS'3 - Middels'
p511
aS'3 - Middels'
p512
aS'3 - Middels'
p513
aS'2 - Smaa'
p514
aS'2 - Smaa'
p515
aS'2 - Smaa'
p516
aS'2 - Smaa'
p517
aS'2 - Smaa'
p518
aS'2 - Smaa'
p519
aS'2 - Smaa'
p520
aS'2 - Smaa'
p521
aS'2 - Smaa'
p522
aS'2 - Smaa'
p523
aS'2 - Smaa'
p524
aS'2 - Smaa'
p525
aS'2 - Smaa'
p526
aS'2 - Smaa'
p527
aS'2 - Smaa'
p528
aS'2 - Smaa'
p529
aS'2 - Smaa'
p530
aS'2 - Smaa'
p531
aS'2 - Smaa'
p532
aS'2 - Smaa'
p533
aS'2 - Smaa'
p534
aS'2 - Smaa'
p535
aS'2 - Smaa'
p536
aS'2 - Smaa'
p537
aS'2 - Smaa'
p538
aS'2 - Smaa'
p539
aS'2 - Smaa'
p540
aS'2 - Smaa'
p541
aS'2 - Smaa'
p542
aS'2 - Smaa'
p543
aS'2 - Smaa'
p544
aS'2 - Smaa'
p545
aS'2 - Smaa'
p546
aS'2 - Smaa'
p547
aS'2 - Smaa'
p548
aS'2 - Smaa'
p549
aS'2 - Smaa'
p550
aS'2 - Smaa'
p551
aS'2 - Smaa'
p552
aS'2 - Smaa'
p553
aS'2 - Smaa'
p554
aS'2 - Smaa'
p555
aS'2 - Smaa'
p556
aS'2 - Smaa'
p557
aS'2 - Smaa'
p558
aS'2 - Smaa'
p559
aS'2 - Smaa'
p560
aS'2 - Smaa'
p561
aS'2 - Smaa'
p562
aS'2 - Smaa'
p563
aS'2 - Smaa'
p564
aS'2 - Smaa'
p565
aS'2 - Smaa'
p566
aS'2 - Smaa'
p567
aS'2 - Smaa'
p568
aS'2 - Smaa'
p569
aS'2 - Smaa'
p570
aS'2 - Smaa'
p571
aS'2 - Smaa'
p572
aS'2 - Smaa'
p573
aS'2 - Smaa'
p574
aS'2 - Smaa'
p575
aS'2 - Smaa'
p576
aS'2 - Smaa'
p577
aS'2 - Smaa'
p578
aS'2 - Smaa'
p579
aS'2 - Smaa'
p580
aS'2 - Smaa'
p581
aS'2 - Smaa'
p582
aS'2 - Smaa'
p583
aS'2 - Smaa'
p584
aS'2 - Smaa'
p585
aS'3 - Middels'
p586
aS'2 - Smaa'
p587
aS'1 - Harmloest'
p588
aS'1 - Harmloest'
p589
aS'1 - Harmloest'
p590
aS'1 - Harmloest'
p591
aS'1 - Harmloest'
p592
aS'1 - Harmloest'
p593
aS'1 - Harmloest'
p594
aS'1 - Harmloest'
p595
aS'1 - Harmloest'
p596
aS'1 - Harmloest'
p597
aS'1 - Harmloest'
p598
aS'1 - Harmloest'
p599
aS'1 - Harmloest'
p600
aS'1 - Harmloest'
p601
aS'1 - Harmloest'
p602
aS'1 - Harmloest'
p603
aS'1 - Harmloest'
p604
aS'1 - Harmloest'
p605
aS'1 - Harmloest'
p606
aS'1 - Harmloest'
p607
aS'1 - Harmloest'
p608
aS'1 - Harmloest'
p609
aS'1 - Harmloest'
p610
aS'1 - Harmloest'
p611
aS'2 - Smaa'
p612
aS'1 - Harmloest'
p613
aS'1 - Harmloest'
p614
aS'1 - Harmloest'
p615
aS'1 - Harmloest'
p616
aS'1 - Harmloest'
p617
aS'1 - Harmloest'
p618
aS'1 - Harmloest'
p619
aS'1 - Harmloest'
p620
aS'1 - Harmloest'
p621
aS'1 - Harmloest'
p622
aS'1 - Harmloest'
p623
aS'1 - Harmloest'
p624
aS'1 - Harmloest'
p625
aS'2 - Smaa'
p626
aS'1 - Harmloest'
p627
aS'1 - Harmloest'
p628
aS'1 - Harmloest'
p629
aS'1 - Harmloest'
p630
aS'1 - Harmloest'
p631
aS'1 - Harmloest'
p632
aS'1 - Harmloest'
p633
aS'1 - Harmloest'
p634
aS'1 - Harmloest'
p635
aS'1 - Harmloest'
p636
aS'1 - Harmloest'
p637
aS'1 - Harmloest'
p638
aS'1 - Harmloest'
p639
aS'2 - Smaa'
p640
aS'1 - Harmloest'
p641
aS'1 - Harmloest'
p642
assS'probability'
p643
(dp644
g3
(lp645
S'Lite sannsynlig'
p646
aS'Mulig'
p647
aS'Sannsynlig'
p648
aS'Meget sannsynlig'
p649
asg8
(lp650
g10
asg11
(lp651
S'Mulig'
p652
aS'Mulig'
p653
aS'Sannsynlig'
p654
aS'Sannsynlig'
p655
aS'Mulig'
p656
aS'Mulig'
p657
aS'Mulig'
p658
aS'Mulig'
p659
aS'Mulig'
p660
aS'Mulig'
p661
aS'Mulig'
p662
aS'Mulig'
p663
aS'Mulig'
p664
aS'Mulig'
p665
aS'Sannsynlig'
p666
aS'Mulig'
p667
aS'Mulig'
p668
aS'Mulig'
p669
aS'Mulig'
p670
aS'Mulig'
p671
aS'Mulig'
p672
aS'Mulig'
p673
aS'Mulig'
p674
aS'Mulig'
p675
aS'Mulig'
p676
aS'Mulig'
p677
aS'Mulig'
p678
aS'Mulig'
p679
aS'Mulig'
p680
aS'Mulig'
p681
aS'Mulig'
p682
aS'Mulig'
p683
aS'Mulig'
p684
aS'Mulig'
p685
aS'Mulig'
p686
aS'Mulig'
p687
aS'Mulig'
p688
aS'Mulig'
p689
aS'Mulig'
p690
aS'Mulig'
p691
aS'Mulig'
p692
aS'Mulig'
p693
aS'Mulig'
p694
aS'Mulig'
p695
aS'Mulig'
p696
aS'Mulig'
p697
aS'Mulig'
p698
aS'Mulig'
p699
aS'Mulig'
p700
aS'Mulig'
p701
aS'Mulig'
p702
aS'Mulig'
p703
aS'Mulig'
p704
aS'Mulig'
p705
aS'Mulig'
p706
aS'Mulig'
p707
aS'Mulig'
p708
aS'Mulig'
p709
aS'Mulig'
p710
aS'Mulig'
p711
aS'Mulig'
p712
aS'Mulig'
p713
aS'Mulig'
p714
aS'Mulig'
p715
aS'Mulig'
p716
aS'Mulig'
p717
aS'Mulig'
p718
aS'Mulig'
p719
aS'Mulig'
p720
aS'Mulig'
p721
aS'Mulig'
p722
aS'Mulig'
p723
aS'Mulig'
p724
aS'Lite sannsynlig'
p725
aS'Mulig'
p726
aS'Mulig'
p727
aS'Mulig'
p728
aS'Mulig'
p729
aS'Mulig'
p730
aS'Mulig'
p731
aS'Mulig'
p732
aS'Mulig'
p733
aS'Mulig'
p734
aS'Mulig'
p735
aS'Mulig'
p736
aS'Mulig'
p737
aS'Mulig'
p738
aS'Mulig'
p739
aS'Mulig'
p740
aS'Mulig'
p741
aS'Mulig'
p742
aS'Mulig'
p743
aS'Mulig'
p744
aS'Mulig'
p745
aS'Mulig'
p746
aS'Mulig'
p747
aS'Mulig'
p748
aS'Mulig'
p749
aS'Mulig'
p750
aS'Mulig'
p751
aS'Mulig'
p752
aS'Mulig'
p753
aS'Mulig'
p754
aS'Mulig'
p755
aS'Mulig'
p756
aS'Mulig'
p757
aS'Mulig'
p758
aS'Mulig'
p759
aS'Mulig'
p760
aS'Mulig'
p761
aS'Mulig'
p762
aS'Mulig'
p763
aS'Mulig'
p764
aS'Mulig'
p765
aS'Mulig'
p766
aS'Mulig'
p767
aS'Mulig'
p768
aS'Mulig'
p769
aS'Mulig'
p770
aS'Mulig'
p771
aS'Mulig'
p772
aS'Mulig'
p773
aS'Mulig'
p774
aS'Mulig'
p775
aS'Mulig'
p776
aS'Mulig'
p777
aS'Mulig'
p778
aS'Mulig'
p779
aS'Mulig'
p780
aS'Mulig'
p781
aS'Mulig'
p782
aS'Mulig'
p783
aS'Mulig'
p784
aS'Mulig'
p785
aS'Mulig'
p786
aS'Mulig'
p787
aS'Mulig'
p788
aS'Mulig'
p789
aS'Mulig'
p790
aS'Mulig'
p791
aS'Mulig'
p792
aS'Mulig'
p793
aS'Mulig'
p794
aS'Mulig'
p795
aS'Mulig'
p796
aS'Mulig'
p797
aS'Mulig'
p798
aS'Mulig'
p799
aS'Mulig'
p800
aS'Mulig'
p801
aS'Mulig'
p802
aS'Mulig'
p803
aS'Mulig'
p804
aS'Mulig'
p805
aS'Mulig'
p806
aS'Mulig'
p807
aS'Mulig'
p808
aS'Mulig'
p809
aS'Mulig'
p810
aS'Mulig'
p811
aS'Mulig'
p812
aS'Mulig'
p813
aS'Mulig'
p814
aS'Mulig'
p815
aS'Mulig'
p816
aS'Mulig'
p817
aS'Mulig'
p818
aS'Mulig'
p819
aS'Mulig'
p820
aS'Mulig'
p821
aS'Mulig'
p822
aS'Mulig'
p823
aS'Mulig'
p824
aS'Mulig'
p825
aS'Mulig'
p826
aS'Mulig'
p827
aS'Mulig'
p828
aS'Mulig'
p829
aS'Mulig'
p830
aS'Mulig'
p831
aS'Mulig'
p832
aS'Mulig'
p833
aS'Mulig'
p834
aS'Mulig'
p835
aS'Mulig'
p836
aS'Mulig'
p837
aS'Mulig'
p838
aS'Mulig'
p839
aS'Mulig'
p840
aS'Mulig'
p841
aS'Mulig'
p842
aS'Mulig'
p843
aS'Mulig'
p844
aS'Mulig'
p845
aS'Mulig'
p846
aS'Mulig'
p847
aS'Mulig'
p848
aS'Mulig'
p849
aS'Mulig'
p850
aS'Mulig'
p851
aS'Mulig'
p852
aS'Mulig'
p853
aS'Mulig'
p854
assS'level'
p855
(dp856
g3
(lp857
I1
aI2
aI3
aI4
aI5
asg8
(lp858
S'#ccff66'
p859
aS'#ffff00'
p860
aS'#ff9900'
p861
aS'#ff0000'
p862
aS'k'
p863
asg11
(lp864
I2
aI3
aI3
aI3
aI3
aI3
aI3
aI2
aI3
aI3
aI3
aI3
aI2
aI3
aI2
aI2
aI3
aI2
aI2
aI2
aI2
aI3
aI2
aI2
aI2
aI2
aI2
aI3
aI3
aI3
aI3
aI3
aI3
aI3
aI2
aI2
aI3
aI3
aI3
aI3
aI3
aI2
aI2
aI3
aI3
aI3
aI2
aI3
aI2
aI3
aI2
aI2
aI2
aI2
aI2
aI3
aI2
aI3
aI3
aI3
aI2
aI2
aI2
aI2
aI2
aI2
aI2
aI2
aI2
aI3
aI3
aI3
aI3
aI3
aI1
aI2
aI2
aI2
aI2
aI2
aI1
aI2
aI2
aI3
aI2
aI2
aI2
aI2
aI2
aI2
aI2
aI2
aI2
aI2
aI2
aI2
aI2
aI2
aI2
aI2
aI2
aI2
aI2
aI2
aI2
aI2
aI2
aI2
aI2
aI2
aI2
aI1
aI2
aI2
aI2
aI2
aI2
aI2
aI1
aI2
aI2
aI2
aI2
aI2
aI2
aI2
aI2
aI2
aI1
aI2
aI2
aI2
aI2
aI2
aI2
aI2
aI2
aI2
aI2
aI2
aI2
aI2
aI2
aI2
aI2
aI2
aI3
aI2
aI1
aI1
aI1
aI1
aI1
aI1
aI1
aI1
aI1
aI1
aI1
aI1
aI1
aI1
aI1
aI1
aI1
aI1
aI1
aI1
aI1
aI1
aI1
aI1
aI2
aI1
aI1
aI1
aI1
aI1
aI1
aI1
aI1
aI1
aI1
aI1
aI1
aI1
aI2
aI1
aI1
aI1
aI1
aI1
aI1
aI1
aI1
aI1
aI1
aI1
aI1
aI1
aI2
aI1
aI1
ass.