(lp0
(irunmatrix
M3Element
p1
(dp2
S'danger_level_average'
p3
NsS'probability'
p4
S'Lite sannsynlig, Mulig'
p5
sS'colour'
p6
S'white'
p7
sS'danger_level_list'
p8
(lp9
sS'label_probalility'
p10
S'Possible'
p11
sS'label_distribution'
p12
S'Isolated'
p13
sS'recomended_colour'
p14
S'#ccff66'
p15
sS'recomended_danger_level'
p16
I1
sS'label_trigger'
p17
S'High'
p18
sS'trigger'
p19
S'Stor tilleggsbelastning'
p20
sS'occurrences'
p21
NsS'y'
p22
S'100'
p23
sS'x'
p24
S'100'
p25
sS'distribution'
p26
S'Isolerte faresoner'
p27
sS'danger_level_standard_dev'
p28
NsS'label_size'
p29
S'1'
p30
sS'avalanche_size'
p31
S'1 - Harmloest'
p32
sba(irunmatrix
M3Element
p33
(dp34
g3
F1.0
sg4
S'Lite sannsynlig, Mulig'
p35
sg6
S'#ccff66'
p36
sg8
(lp37
I1
asg10
S'Possible'
p38
sg12
S'Isolated'
p39
sg14
g15
sg16
I1
sg17
S'Low'
p40
sg19
S'Liten tilleggsbelastning'
p41
sg21
I1
sg22
S'100'
p42
sg24
S'200'
p43
sg26
S'Isolerte faresoner'
p44
sg28
cnumpy.core.multiarray
scalar
p45
(cnumpy
dtype
p46
(S'f8'
p47
I0
I1
tp48
Rp49
(I3
S'<'
p50
NNNI-1
I-1
I0
tp51
bS'\x00\x00\x00\x00\x00\x00\x00\x00'
p52
tp53
Rp54
sg29
g30
sg31
S'1 - Harmloest'
p55
sba(irunmatrix
M3Element
p56
(dp57
g3
Nsg4
S'Lite sannsynlig, Mulig'
p58
sg6
S'white'
p59
sg8
(lp60
sg10
S'Possible'
p61
sg12
S'Isolated'
p62
sg14
g15
sg16
I1
sg17
S'Nat'
p63
sg19
S'Naturlig utloest'
p64
sg21
Nsg22
S'100'
p65
sg24
S'300'
p66
sg26
S'Isolerte faresoner'
p67
sg28
Nsg29
g30
sg31
S'1 - Harmloest'
p68
sba(irunmatrix
M3Element
p69
(dp70
g3
Nsg4
S'Sannsynlig, Meget sannsynlig'
p71
sg6
S'gray'
p72
sg8
(lp73
sg10
S'Likely'
p74
sg12
S'Isolated'
p75
sg14
S'gray'
p76
sg16
I0
sg17
S'High'
p77
sg19
S'Stor tilleggsbelastning'
p78
sg21
Nsg22
S'100'
p79
sg24
S'400'
p80
sg26
S'Isolerte faresoner'
p81
sg28
Nsg29
g30
sg31
S'1 - Harmloest'
p82
sba(irunmatrix
M3Element
p83
(dp84
g3
Nsg4
S'Sannsynlig, Meget sannsynlig'
p85
sg6
S'gray'
p86
sg8
(lp87
sg10
S'Likely'
p88
sg12
S'Isolated'
p89
sg14
g76
sg16
I0
sg17
S'Low'
p90
sg19
S'Liten tilleggsbelastning'
p91
sg21
Nsg22
S'100'
p92
sg24
S'500'
p93
sg26
S'Isolerte faresoner'
p94
sg28
Nsg29
g30
sg31
S'1 - Harmloest'
p95
sba(irunmatrix
M3Element
p96
(dp97
g3
Nsg4
S'Sannsynlig, Meget sannsynlig'
p98
sg6
S'gray'
p99
sg8
(lp100
sg10
S'Likely'
p101
sg12
S'Isolated'
p102
sg14
g76
sg16
I0
sg17
S'Nat'
p103
sg19
S'Naturlig utloest'
p104
sg21
Nsg22
S'100'
p105
sg24
S'600'
p106
sg26
S'Isolerte faresoner'
p107
sg28
Nsg29
g30
sg31
S'1 - Harmloest'
p108
sba(irunmatrix
M3Element
p109
(dp110
g3
Nsg4
S'Lite sannsynlig, Mulig'
p111
sg6
S'white'
p112
sg8
(lp113
sg10
S'Possible'
p114
sg12
S'Some'
p115
sg14
g15
sg16
I1
sg17
S'High'
p116
sg19
S'Stor tilleggsbelastning'
p117
sg21
Nsg22
S'100'
p118
sg24
S'700'
p119
sg26
S'Noen bratte heng'
p120
sg28
Nsg29
g30
sg31
S'1 - Harmloest'
p121
sba(irunmatrix
M3Element
p122
(dp123
g3
F1.0
sg4
S'Lite sannsynlig, Mulig'
p124
sg6
g36
sg8
(lp125
I1
aI1
aI1
asg10
S'Possible'
p126
sg12
S'Some'
p127
sg14
g15
sg16
I1
sg17
S'Low'
p128
sg19
S'Liten tilleggsbelastning'
p129
sg21
I3
sg22
S'100'
p130
sg24
S'800'
p131
sg26
S'Noen bratte heng'
p132
sg28
g45
(g49
S'\x00\x00\x00\x00\x00\x00\x00\x00'
p133
tp134
Rp135
sg29
g30
sg31
S'1 - Harmloest'
p136
sba(irunmatrix
M3Element
p137
(dp138
g3
F1.0
sg4
S'Lite sannsynlig, Mulig'
p139
sg6
g36
sg8
(lp140
I1
aI1
aI1
aI1
aI1
aI1
aI1
aI1
aI1
aI1
aI1
aI1
aI1
asg10
S'Possible'
p141
sg12
S'Some'
p142
sg14
g15
sg16
I1
sg17
S'Nat'
p143
sg19
S'Naturlig utloest'
p144
sg21
I13
sg22
S'100'
p145
sg24
S'900'
p146
sg26
S'Noen bratte heng'
p147
sg28
g45
(g49
S'\x00\x00\x00\x00\x00\x00\x00\x00'
p148
tp149
Rp150
sg29
g30
sg31
S'1 - Harmloest'
p151
sba(irunmatrix
M3Element
p152
(dp153
g3
Nsg4
S'Sannsynlig, Meget sannsynlig'
p154
sg6
S'gray'
p155
sg8
(lp156
sg10
S'Likely'
p157
sg12
S'Some'
p158
sg14
g76
sg16
I0
sg17
S'High'
p159
sg19
S'Stor tilleggsbelastning'
p160
sg21
Nsg22
S'100'
p161
sg24
S'1000'
p162
sg26
S'Noen bratte heng'
p163
sg28
Nsg29
g30
sg31
S'1 - Harmloest'
p164
sba(irunmatrix
M3Element
p165
(dp166
g3
Nsg4
S'Sannsynlig, Meget sannsynlig'
p167
sg6
S'gray'
p168
sg8
(lp169
sg10
S'Likely'
p170
sg12
S'Some'
p171
sg14
g76
sg16
I0
sg17
S'Low'
p172
sg19
S'Liten tilleggsbelastning'
p173
sg21
Nsg22
S'100'
p174
sg24
S'1100'
p175
sg26
S'Noen bratte heng'
p176
sg28
Nsg29
g30
sg31
S'1 - Harmloest'
p177
sba(irunmatrix
M3Element
p178
(dp179
g3
Nsg4
S'Sannsynlig, Meget sannsynlig'
p180
sg6
S'white'
p181
sg8
(lp182
sg10
S'Likely'
p183
sg12
S'Some'
p184
sg14
g15
sg16
I1
sg17
S'Nat'
p185
sg19
S'Naturlig utloest'
p186
sg21
Nsg22
S'100'
p187
sg24
S'1200'
p188
sg26
S'Noen bratte heng'
p189
sg28
Nsg29
g30
sg31
S'1 - Harmloest'
p190
sba(irunmatrix
M3Element
p191
(dp192
g3
Nsg4
S'Lite sannsynlig, Mulig'
p193
sg6
S'gray'
p194
sg8
(lp195
sg10
S'Possible'
p196
sg12
S'Many'
p197
sg14
g76
sg16
I0
sg17
S'High'
p198
sg19
S'Stor tilleggsbelastning'
p199
sg21
Nsg22
S'100'
p200
sg24
S'1300'
p201
sg26
S'Mange bratte heng'
p202
sg28
Nsg29
g30
sg31
S'1 - Harmloest'
p203
sba(irunmatrix
M3Element
p204
(dp205
g3
Nsg4
S'Lite sannsynlig, Mulig'
p206
sg6
S'white'
p207
sg8
(lp208
sg10
S'Possible'
p209
sg12
S'Many'
p210
sg14
g15
sg16
I1
sg17
S'Low'
p211
sg19
S'Liten tilleggsbelastning'
p212
sg21
Nsg22
S'100'
p213
sg24
S'1400'
p214
sg26
S'Mange bratte heng'
p215
sg28
Nsg29
g30
sg31
S'1 - Harmloest'
p216
sba(irunmatrix
M3Element
p217
(dp218
g3
F1.0
sg4
S'Lite sannsynlig, Mulig'
p219
sg6
g36
sg8
(lp220
I1
aI1
aI1
asg10
S'Possible'
p221
sg12
S'Many'
p222
sg14
g76
sg16
I0
sg17
S'Nat'
p223
sg19
S'Naturlig utloest'
p224
sg21
I3
sg22
S'100'
p225
sg24
S'1500'
p226
sg26
S'Mange bratte heng'
p227
sg28
g45
(g49
S'\x00\x00\x00\x00\x00\x00\x00\x00'
p228
tp229
Rp230
sg29
g30
sg31
S'1 - Harmloest'
p231
sba(irunmatrix
M3Element
p232
(dp233
g3
Nsg4
S'Sannsynlig, Meget sannsynlig'
p234
sg6
S'gray'
p235
sg8
(lp236
sg10
S'Likely'
p237
sg12
S'Many'
p238
sg14
g76
sg16
I0
sg17
S'High'
p239
sg19
S'Stor tilleggsbelastning'
p240
sg21
Nsg22
S'100'
p241
sg24
S'1600'
p242
sg26
S'Mange bratte heng'
p243
sg28
Nsg29
g30
sg31
S'1 - Harmloest'
p244
sba(irunmatrix
M3Element
p245
(dp246
g3
Nsg4
S'Sannsynlig, Meget sannsynlig'
p247
sg6
S'white'
p248
sg8
(lp249
sg10
S'Likely'
p250
sg12
S'Many'
p251
sg14
S'#ffff00'
p252
sg16
I2
sg17
S'Low'
p253
sg19
S'Liten tilleggsbelastning'
p254
sg21
Nsg22
S'100'
p255
sg24
S'1700'
p256
sg26
S'Mange bratte heng'
p257
sg28
Nsg29
g30
sg31
S'1 - Harmloest'
p258
sba(irunmatrix
M3Element
p259
(dp260
g3
Nsg4
S'Sannsynlig, Meget sannsynlig'
p261
sg6
S'white'
p262
sg8
(lp263
sg10
S'Likely'
p264
sg12
S'Many'
p265
sg14
g252
sg16
I2
sg17
S'Nat'
p266
sg19
S'Naturlig utloest'
p267
sg21
Nsg22
S'100'
p268
sg24
S'1800'
p269
sg26
S'Mange bratte heng'
p270
sg28
Nsg29
g30
sg31
S'1 - Harmloest'
p271
sba(irunmatrix
M3Element
p272
(dp273
g3
Nsg4
S'Lite sannsynlig, Mulig'
p274
sg6
S'gray'
p275
sg8
(lp276
sg10
S'Possible'
p277
sg12
S'Most'
p278
sg14
g76
sg16
I0
sg17
S'High'
p279
sg19
S'Stor tilleggsbelastning'
p280
sg21
Nsg22
S'100'
p281
sg24
S'1900'
p282
sg26
S'De fleste bratte heng, Ogsaa i mindre bratt terreng'
p283
sg28
Nsg29
g30
sg31
S'1 - Harmloest'
p284
sba(irunmatrix
M3Element
p285
(dp286
g3
Nsg4
S'Lite sannsynlig, Mulig'
p287
sg6
S'gray'
p288
sg8
(lp289
sg10
S'Possible'
p290
sg12
S'Most'
p291
sg14
g76
sg16
I0
sg17
S'Low'
p292
sg19
S'Liten tilleggsbelastning'
p293
sg21
Nsg22
S'100'
p294
sg24
S'2000'
p295
sg26
S'De fleste bratte heng, Ogsaa i mindre bratt terreng'
p296
sg28
Nsg29
g30
sg31
S'1 - Harmloest'
p297
sba(irunmatrix
M3Element
p298
(dp299
g3
Nsg4
S'Lite sannsynlig, Mulig'
p300
sg6
S'gray'
p301
sg8
(lp302
sg10
S'Possible'
p303
sg12
S'Most'
p304
sg14
g76
sg16
I0
sg17
S'Nat'
p305
sg19
S'Naturlig utloest'
p306
sg21
Nsg22
S'100'
p307
sg24
S'2100'
p308
sg26
S'De fleste bratte heng, Ogsaa i mindre bratt terreng'
p309
sg28
Nsg29
g30
sg31
S'1 - Harmloest'
p310
sba(irunmatrix
M3Element
p311
(dp312
g3
Nsg4
S'Sannsynlig, Meget sannsynlig'
p313
sg6
S'gray'
p314
sg8
(lp315
sg10
S'Likely'
p316
sg12
S'Most'
p317
sg14
g76
sg16
I0
sg17
S'High'
p318
sg19
S'Stor tilleggsbelastning'
p319
sg21
Nsg22
S'100'
p320
sg24
S'2200'
p321
sg26
S'De fleste bratte heng, Ogsaa i mindre bratt terreng'
p322
sg28
Nsg29
g30
sg31
S'1 - Harmloest'
p323
sba(irunmatrix
M3Element
p324
(dp325
g3
Nsg4
S'Sannsynlig, Meget sannsynlig'
p326
sg6
S'gray'
p327
sg8
(lp328
sg10
S'Likely'
p329
sg12
S'Most'
p330
sg14
g76
sg16
I0
sg17
S'Low'
p331
sg19
S'Liten tilleggsbelastning'
p332
sg21
Nsg22
S'100'
p333
sg24
S'2300'
p334
sg26
S'De fleste bratte heng, Ogsaa i mindre bratt terreng'
p335
sg28
Nsg29
g30
sg31
S'1 - Harmloest'
p336
sba(irunmatrix
M3Element
p337
(dp338
g3
Nsg4
S'Sannsynlig, Meget sannsynlig'
p339
sg6
S'white'
p340
sg8
(lp341
sg10
S'Likely'
p342
sg12
S'Most'
p343
sg14
g76
sg16
I0
sg17
S'Nat'
p344
sg19
S'Naturlig utloest'
p345
sg21
Nsg22
S'100'
p346
sg24
S'2400'
p347
sg26
S'De fleste bratte heng, Ogsaa i mindre bratt terreng'
p348
sg28
Nsg29
S'2'
p349
sg31
S'1 - Harmloest'
p350
sba(irunmatrix
M3Element
p351
(dp352
g3
F1.0
sg4
S'Lite sannsynlig, Mulig'
p353
sg6
g36
sg8
(lp354
I1
aI1
aI1
asg10
S'Possible'
p355
sg12
S'Isolated'
p356
sg14
g15
sg16
I1
sg17
S'High'
p357
sg19
S'Stor tilleggsbelastning'
p358
sg21
I3
sg22
S'200'
p359
sg24
S'100'
p360
sg26
S'Isolerte faresoner'
p361
sg28
g45
(g49
S'\x00\x00\x00\x00\x00\x00\x00\x00'
p362
tp363
Rp364
sg29
g349
sg31
S'2 - Smaa'
p365
sba(irunmatrix
M3Element
p366
(dp367
g3
F1.0
sg4
S'Lite sannsynlig, Mulig'
p368
sg6
g36
sg8
(lp369
I1
asg10
S'Possible'
p370
sg12
S'Isolated'
p371
sg14
g15
sg16
I1
sg17
S'Low'
p372
sg19
S'Liten tilleggsbelastning'
p373
sg21
I1
sg22
S'200'
p374
sg24
S'200'
p375
sg26
S'Isolerte faresoner'
p376
sg28
g45
(g49
S'\x00\x00\x00\x00\x00\x00\x00\x00'
p377
tp378
Rp379
sg29
g349
sg31
S'2 - Smaa'
p380
sba(irunmatrix
M3Element
p381
(dp382
g3
F1.0
sg4
S'Lite sannsynlig, Mulig'
p383
sg6
g36
sg8
(lp384
I1
aI1
aI1
aI1
asg10
S'Possible'
p385
sg12
S'Isolated'
p386
sg14
g15
sg16
I1
sg17
S'Nat'
p387
sg19
S'Naturlig utloest'
p388
sg21
I4
sg22
S'200'
p389
sg24
S'300'
p390
sg26
S'Isolerte faresoner'
p391
sg28
g45
(g49
S'\x00\x00\x00\x00\x00\x00\x00\x00'
p392
tp393
Rp394
sg29
g349
sg31
S'2 - Smaa'
p395
sba(irunmatrix
M3Element
p396
(dp397
g3
Nsg4
S'Sannsynlig, Meget sannsynlig'
p398
sg6
S'gray'
p399
sg8
(lp400
sg10
S'Likely'
p401
sg12
S'Isolated'
p402
sg14
g76
sg16
I0
sg17
S'High'
p403
sg19
S'Stor tilleggsbelastning'
p404
sg21
Nsg22
S'200'
p405
sg24
S'400'
p406
sg26
S'Isolerte faresoner'
p407
sg28
Nsg29
g349
sg31
S'2 - Smaa'
p408
sba(irunmatrix
M3Element
p409
(dp410
g3
Nsg4
S'Sannsynlig, Meget sannsynlig'
p411
sg6
S'gray'
p412
sg8
(lp413
sg10
S'Likely'
p414
sg12
S'Isolated'
p415
sg14
g76
sg16
I0
sg17
S'Low'
p416
sg19
S'Liten tilleggsbelastning'
p417
sg21
Nsg22
S'200'
p418
sg24
S'500'
p419
sg26
S'Isolerte faresoner'
p420
sg28
Nsg29
g349
sg31
S'2 - Smaa'
p421
sba(irunmatrix
M3Element
p422
(dp423
g3
Nsg4
S'Sannsynlig, Meget sannsynlig'
p424
sg6
S'gray'
p425
sg8
(lp426
sg10
S'Likely'
p427
sg12
S'Isolated'
p428
sg14
g76
sg16
I0
sg17
S'Nat'
p429
sg19
S'Naturlig utloest'
p430
sg21
Nsg22
S'200'
p431
sg24
S'600'
p432
sg26
S'Isolerte faresoner'
p433
sg28
Nsg29
g349
sg31
S'2 - Smaa'
p434
sba(irunmatrix
M3Element
p435
(dp436
g3
F2.0
sg4
S'Lite sannsynlig, Mulig'
p437
sg6
S'#ffff00'
p438
sg8
(lp439
I2
aI2
aI2
aI2
aI2
aI2
aI2
aI2
aI2
aI2
aI2
aI2
aI2
aI2
aI2
aI2
aI2
asg10
S'Possible'
p440
sg12
S'Some'
p441
sg14
g252
sg16
I2
sg17
S'High'
p442
sg19
S'Stor tilleggsbelastning'
p443
sg21
I17
sg22
S'200'
p444
sg24
S'700'
p445
sg26
S'Noen bratte heng'
p446
sg28
g45
(g49
S'\x00\x00\x00\x00\x00\x00\x00\x00'
p447
tp448
Rp449
sg29
g349
sg31
S'2 - Smaa'
p450
sba(irunmatrix
M3Element
p451
(dp452
g3
F2.0
sg4
S'Lite sannsynlig, Mulig'
p453
sg6
g438
sg8
(lp454
I2
aI2
aI2
aI2
aI2
aI2
aI2
aI2
aI2
aI2
aI2
aI2
aI2
aI2
aI2
aI2
aI2
aI2
aI2
aI2
aI2
aI2
aI2
aI2
aI2
aI2
aI2
aI2
asg10
S'Possible'
p455
sg12
S'Some'
p456
sg14
g252
sg16
I2
sg17
S'Low'
p457
sg19
S'Liten tilleggsbelastning'
p458
sg21
I28
sg22
S'200'
p459
sg24
S'800'
p460
sg26
S'Noen bratte heng'
p461
sg28
g45
(g49
S'\x00\x00\x00\x00\x00\x00\x00\x00'
p462
tp463
Rp464
sg29
g349
sg31
S'2 - Smaa'
p465
sba(irunmatrix
M3Element
p466
(dp467
g3
F1.9259259259259258
sg4
S'Lite sannsynlig, Mulig'
p468
sg6
g438
sg8
(lp469
I1
aI1
aI2
aI2
aI2
aI2
aI2
aI2
aI2
aI2
aI2
aI2
aI2
aI2
aI2
aI2
aI2
aI2
aI2
aI2
aI2
aI2
aI2
aI2
aI2
aI2
aI2
asg10
S'Possible'
p470
sg12
S'Some'
p471
sg14
g252
sg16
I2
sg17
S'Nat'
p472
sg19
S'Naturlig utloest'
p473
sg21
I27
sg22
S'200'
p474
sg24
S'900'
p475
sg26
S'Noen bratte heng'
p476
sg28
g45
(g49
S'\xabn\xff%\xd4\xc2\xd0?'
p477
tp478
Rp479
sg29
g349
sg31
S'2 - Smaa'
p480
sba(irunmatrix
M3Element
p481
(dp482
g3
Nsg4
S'Sannsynlig, Meget sannsynlig'
p483
sg6
S'gray'
p484
sg8
(lp485
sg10
S'Likely'
p486
sg12
S'Some'
p487
sg14
g76
sg16
I0
sg17
S'High'
p488
sg19
S'Stor tilleggsbelastning'
p489
sg21
Nsg22
S'200'
p490
sg24
S'1000'
p491
sg26
S'Noen bratte heng'
p492
sg28
Nsg29
g349
sg31
S'2 - Smaa'
p493
sba(irunmatrix
M3Element
p494
(dp495
g3
Nsg4
S'Sannsynlig, Meget sannsynlig'
p496
sg6
S'gray'
p497
sg8
(lp498
sg10
S'Likely'
p499
sg12
S'Some'
p500
sg14
g76
sg16
I0
sg17
S'Low'
p501
sg19
S'Liten tilleggsbelastning'
p502
sg21
Nsg22
S'200'
p503
sg24
S'1100'
p504
sg26
S'Noen bratte heng'
p505
sg28
Nsg29
g349
sg31
S'2 - Smaa'
p506
sba(irunmatrix
M3Element
p507
(dp508
g3
Nsg4
S'Sannsynlig, Meget sannsynlig'
p509
sg6
S'white'
p510
sg8
(lp511
sg10
S'Likely'
p512
sg12
S'Some'
p513
sg14
S'#ff9900'
p514
sg16
I3
sg17
S'Nat'
p515
sg19
S'Naturlig utloest'
p516
sg21
Nsg22
S'200'
p517
sg24
S'1200'
p518
sg26
S'Noen bratte heng'
p519
sg28
Nsg29
g349
sg31
S'2 - Smaa'
p520
sba(irunmatrix
M3Element
p521
(dp522
g3
Nsg4
S'Lite sannsynlig, Mulig'
p523
sg6
S'gray'
p524
sg8
(lp525
sg10
S'Possible'
p526
sg12
S'Many'
p527
sg14
g76
sg16
I0
sg17
S'High'
p528
sg19
S'Stor tilleggsbelastning'
p529
sg21
Nsg22
S'200'
p530
sg24
S'1300'
p531
sg26
S'Mange bratte heng'
p532
sg28
Nsg29
g349
sg31
S'2 - Smaa'
p533
sba(irunmatrix
M3Element
p534
(dp535
g3
F3.0
sg4
S'Lite sannsynlig, Mulig'
p536
sg6
S'#ff9900'
p537
sg8
(lp538
I3
aI3
aI3
aI3
aI3
aI3
aI3
aI3
aI3
aI3
aI3
aI3
aI3
aI3
aI3
aI3
aI3
asg10
S'Possible'
p539
sg12
S'Many'
p540
sg14
g514
sg16
I3
sg17
S'Low'
p541
sg19
S'Liten tilleggsbelastning'
p542
sg21
I17
sg22
S'200'
p543
sg24
S'1400'
p544
sg26
S'Mange bratte heng'
p545
sg28
g45
(g49
S'\x00\x00\x00\x00\x00\x00\x00\x00'
p546
tp547
Rp548
sg29
g349
sg31
S'2 - Smaa'
p549
sba(irunmatrix
M3Element
p550
(dp551
g3
F3.0
sg4
S'Lite sannsynlig, Mulig'
p552
sg6
g537
sg8
(lp553
I3
aI3
asg10
S'Possible'
p554
sg12
S'Many'
p555
sg14
g76
sg16
I0
sg17
S'Nat'
p556
sg19
S'Naturlig utloest'
p557
sg21
I2
sg22
S'200'
p558
sg24
S'1500'
p559
sg26
S'Mange bratte heng'
p560
sg28
g45
(g49
S'\x00\x00\x00\x00\x00\x00\x00\x00'
p561
tp562
Rp563
sg29
g349
sg31
S'2 - Smaa'
p564
sba(irunmatrix
M3Element
p565
(dp566
g3
Nsg4
S'Sannsynlig, Meget sannsynlig'
p567
sg6
S'gray'
p568
sg8
(lp569
sg10
S'Likely'
p570
sg12
S'Many'
p571
sg14
g76
sg16
I0
sg17
S'High'
p572
sg19
S'Stor tilleggsbelastning'
p573
sg21
Nsg22
S'200'
p574
sg24
S'1600'
p575
sg26
S'Mange bratte heng'
p576
sg28
Nsg29
g349
sg31
S'2 - Smaa'
p577
sba(irunmatrix
M3Element
p578
(dp579
g3
Nsg4
S'Sannsynlig, Meget sannsynlig'
p580
sg6
S'white'
p581
sg8
(lp582
sg10
S'Likely'
p583
sg12
S'Many'
p584
sg14
S'#ff0000'
p585
sg16
I4
sg17
S'Low'
p586
sg19
S'Liten tilleggsbelastning'
p587
sg21
Nsg22
S'200'
p588
sg24
S'1700'
p589
sg26
S'Mange bratte heng'
p590
sg28
Nsg29
g349
sg31
S'2 - Smaa'
p591
sba(irunmatrix
M3Element
p592
(dp593
g3
Nsg4
S'Sannsynlig, Meget sannsynlig'
p594
sg6
S'white'
p595
sg8
(lp596
sg10
S'Likely'
p597
sg12
S'Many'
p598
sg14
g585
sg16
I4
sg17
S'Nat'
p599
sg19
S'Naturlig utloest'
p600
sg21
Nsg22
S'200'
p601
sg24
S'1800'
p602
sg26
S'Mange bratte heng'
p603
sg28
Nsg29
g349
sg31
S'2 - Smaa'
p604
sba(irunmatrix
M3Element
p605
(dp606
g3
Nsg4
S'Lite sannsynlig, Mulig'
p607
sg6
S'gray'
p608
sg8
(lp609
sg10
S'Possible'
p610
sg12
S'Most'
p611
sg14
g76
sg16
I0
sg17
S'High'
p612
sg19
S'Stor tilleggsbelastning'
p613
sg21
Nsg22
S'200'
p614
sg24
S'1900'
p615
sg26
S'De fleste bratte heng, Ogsaa i mindre bratt terreng'
p616
sg28
Nsg29
g349
sg31
S'2 - Smaa'
p617
sba(irunmatrix
M3Element
p618
(dp619
g3
Nsg4
S'Lite sannsynlig, Mulig'
p620
sg6
S'gray'
p621
sg8
(lp622
sg10
S'Possible'
p623
sg12
S'Most'
p624
sg14
g76
sg16
I0
sg17
S'Low'
p625
sg19
S'Liten tilleggsbelastning'
p626
sg21
Nsg22
S'200'
p627
sg24
S'2000'
p628
sg26
S'De fleste bratte heng, Ogsaa i mindre bratt terreng'
p629
sg28
Nsg29
g349
sg31
S'2 - Smaa'
p630
sba(irunmatrix
M3Element
p631
(dp632
g3
Nsg4
S'Lite sannsynlig, Mulig'
p633
sg6
S'gray'
p634
sg8
(lp635
sg10
S'Possible'
p636
sg12
S'Most'
p637
sg14
g76
sg16
I0
sg17
S'Nat'
p638
sg19
S'Naturlig utloest'
p639
sg21
Nsg22
S'200'
p640
sg24
S'2100'
p641
sg26
S'De fleste bratte heng, Ogsaa i mindre bratt terreng'
p642
sg28
Nsg29
g349
sg31
S'2 - Smaa'
p643
sba(irunmatrix
M3Element
p644
(dp645
g3
Nsg4
S'Sannsynlig, Meget sannsynlig'
p646
sg6
S'gray'
p647
sg8
(lp648
sg10
S'Likely'
p649
sg12
S'Most'
p650
sg14
g76
sg16
I0
sg17
S'High'
p651
sg19
S'Stor tilleggsbelastning'
p652
sg21
Nsg22
S'200'
p653
sg24
S'2200'
p654
sg26
S'De fleste bratte heng, Ogsaa i mindre bratt terreng'
p655
sg28
Nsg29
g349
sg31
S'2 - Smaa'
p656
sba(irunmatrix
M3Element
p657
(dp658
g3
Nsg4
S'Sannsynlig, Meget sannsynlig'
p659
sg6
S'gray'
p660
sg8
(lp661
sg10
S'Likely'
p662
sg12
S'Most'
p663
sg14
g76
sg16
I0
sg17
S'Low'
p664
sg19
S'Liten tilleggsbelastning'
p665
sg21
Nsg22
S'200'
p666
sg24
S'2300'
p667
sg26
S'De fleste bratte heng, Ogsaa i mindre bratt terreng'
p668
sg28
Nsg29
g349
sg31
S'2 - Smaa'
p669
sba(irunmatrix
M3Element
p670
(dp671
g3
Nsg4
S'Sannsynlig, Meget sannsynlig'
p672
sg6
S'white'
p673
sg8
(lp674
sg10
S'Likely'
p675
sg12
S'Most'
p676
sg14
g76
sg16
I0
sg17
S'Nat'
p677
sg19
S'Naturlig utloest'
p678
sg21
Nsg22
S'200'
p679
sg24
S'2400'
p680
sg26
S'De fleste bratte heng, Ogsaa i mindre bratt terreng'
p681
sg28
Nsg29
g349
sg31
S'2 - Smaa'
p682
sba(irunmatrix
M3Element
p683
(dp684
g3
Nsg4
S'Lite sannsynlig, Mulig'
p685
sg6
S'white'
p686
sg8
(lp687
sg10
S'Possible'
p688
sg12
S'Isolated'
p689
sg14
g15
sg16
I1
sg17
S'High'
p690
sg19
S'Stor tilleggsbelastning'
p691
sg21
Nsg22
S'300'
p692
sg24
S'100'
p693
sg26
S'Isolerte faresoner'
p694
sg28
Nsg29
S'3'
p695
sg31
S'3 - Middels'
p696
sba(irunmatrix
M3Element
p697
(dp698
g3
Nsg4
S'Lite sannsynlig, Mulig'
p699
sg6
S'white'
p700
sg8
(lp701
sg10
S'Possible'
p702
sg12
S'Isolated'
p703
sg14
g252
sg16
I2
sg17
S'Low'
p704
sg19
S'Liten tilleggsbelastning'
p705
sg21
Nsg22
S'300'
p706
sg24
S'200'
p707
sg26
S'Isolerte faresoner'
p708
sg28
Nsg29
g695
sg31
S'3 - Middels'
p709
sba(irunmatrix
M3Element
p710
(dp711
g3
Nsg4
S'Lite sannsynlig, Mulig'
p712
sg6
S'white'
p713
sg8
(lp714
sg10
S'Possible'
p715
sg12
S'Isolated'
p716
sg14
g252
sg16
I2
sg17
S'Nat'
p717
sg19
S'Naturlig utloest'
p718
sg21
Nsg22
S'300'
p719
sg24
S'300'
p720
sg26
S'Isolerte faresoner'
p721
sg28
Nsg29
g695
sg31
S'3 - Middels'
p722
sba(irunmatrix
M3Element
p723
(dp724
g3
Nsg4
S'Sannsynlig, Meget sannsynlig'
p725
sg6
S'gray'
p726
sg8
(lp727
sg10
S'Likely'
p728
sg12
S'Isolated'
p729
sg14
g76
sg16
I0
sg17
S'High'
p730
sg19
S'Stor tilleggsbelastning'
p731
sg21
Nsg22
S'300'
p732
sg24
S'400'
p733
sg26
S'Isolerte faresoner'
p734
sg28
Nsg29
g695
sg31
S'3 - Middels'
p735
sba(irunmatrix
M3Element
p736
(dp737
g3
Nsg4
S'Sannsynlig, Meget sannsynlig'
p738
sg6
S'gray'
p739
sg8
(lp740
sg10
S'Likely'
p741
sg12
S'Isolated'
p742
sg14
g76
sg16
I0
sg17
S'Low'
p743
sg19
S'Liten tilleggsbelastning'
p744
sg21
Nsg22
S'300'
p745
sg24
S'500'
p746
sg26
S'Isolerte faresoner'
p747
sg28
Nsg29
g695
sg31
S'3 - Middels'
p748
sba(irunmatrix
M3Element
p749
(dp750
g3
Nsg4
S'Sannsynlig, Meget sannsynlig'
p751
sg6
S'gray'
p752
sg8
(lp753
sg10
S'Likely'
p754
sg12
S'Isolated'
p755
sg14
g76
sg16
I0
sg17
S'Nat'
p756
sg19
S'Naturlig utloest'
p757
sg21
Nsg22
S'300'
p758
sg24
S'600'
p759
sg26
S'Isolerte faresoner'
p760
sg28
Nsg29
g695
sg31
S'3 - Middels'
p761
sba(irunmatrix
M3Element
p762
(dp763
g3
F2.0
sg4
S'Lite sannsynlig, Mulig'
p764
sg6
g438
sg8
(lp765
I2
aI2
asg10
S'Possible'
p766
sg12
S'Some'
p767
sg14
g252
sg16
I2
sg17
S'High'
p768
sg19
S'Stor tilleggsbelastning'
p769
sg21
I2
sg22
S'300'
p770
sg24
S'700'
p771
sg26
S'Noen bratte heng'
p772
sg28
g45
(g49
S'\x00\x00\x00\x00\x00\x00\x00\x00'
p773
tp774
Rp775
sg29
g695
sg31
S'3 - Middels'
p776
sba(irunmatrix
M3Element
p777
(dp778
g3
F3.0
sg4
S'Lite sannsynlig, Mulig'
p779
sg6
g537
sg8
(lp780
I3
aI3
aI3
aI3
aI3
aI3
aI3
aI3
aI3
aI3
aI3
asg10
S'Possible'
p781
sg12
S'Some'
p782
sg14
g514
sg16
I3
sg17
S'Low'
p783
sg19
S'Liten tilleggsbelastning'
p784
sg21
I11
sg22
S'300'
p785
sg24
S'800'
p786
sg26
S'Noen bratte heng'
p787
sg28
g45
(g49
S'\x00\x00\x00\x00\x00\x00\x00\x00'
p788
tp789
Rp790
sg29
g695
sg31
S'3 - Middels'
p791
sba(irunmatrix
M3Element
p792
(dp793
g3
F3.0
sg4
S'Lite sannsynlig, Mulig'
p794
sg6
g537
sg8
(lp795
I3
aI3
aI3
asg10
S'Possible'
p796
sg12
S'Some'
p797
sg14
g514
sg16
I3
sg17
S'Nat'
p798
sg19
S'Naturlig utloest'
p799
sg21
I3
sg22
S'300'
p800
sg24
S'900'
p801
sg26
S'Noen bratte heng'
p802
sg28
g45
(g49
S'\x00\x00\x00\x00\x00\x00\x00\x00'
p803
tp804
Rp805
sg29
g695
sg31
S'3 - Middels'
p806
sba(irunmatrix
M3Element
p807
(dp808
g3
Nsg4
S'Sannsynlig, Meget sannsynlig'
p809
sg6
S'gray'
p810
sg8
(lp811
sg10
S'Likely'
p812
sg12
S'Some'
p813
sg14
g76
sg16
I0
sg17
S'High'
p814
sg19
S'Stor tilleggsbelastning'
p815
sg21
Nsg22
S'300'
p816
sg24
S'1000'
p817
sg26
S'Noen bratte heng'
p818
sg28
Nsg29
g695
sg31
S'3 - Middels'
p819
sba(irunmatrix
M3Element
p820
(dp821
g3
Nsg4
S'Sannsynlig, Meget sannsynlig'
p822
sg6
S'gray'
p823
sg8
(lp824
sg10
S'Likely'
p825
sg12
S'Some'
p826
sg14
g76
sg16
I0
sg17
S'Low'
p827
sg19
S'Liten tilleggsbelastning'
p828
sg21
Nsg22
S'300'
p829
sg24
S'1100'
p830
sg26
S'Noen bratte heng'
p831
sg28
Nsg29
g695
sg31
S'3 - Middels'
p832
sba(irunmatrix
M3Element
p833
(dp834
g3
Nsg4
S'Sannsynlig, Meget sannsynlig'
p835
sg6
S'white'
p836
sg8
(lp837
sg10
S'Likely'
p838
sg12
S'Some'
p839
sg14
g585
sg16
I4
sg17
S'Nat'
p840
sg19
S'Naturlig utloest'
p841
sg21
Nsg22
S'300'
p842
sg24
S'1200'
p843
sg26
S'Noen bratte heng'
p844
sg28
Nsg29
g695
sg31
S'3 - Middels'
p845
sba(irunmatrix
M3Element
p846
(dp847
g3
Nsg4
S'Lite sannsynlig, Mulig'
p848
sg6
S'gray'
p849
sg8
(lp850
sg10
S'Possible'
p851
sg12
S'Many'
p852
sg14
g76
sg16
I0
sg17
S'High'
p853
sg19
S'Stor tilleggsbelastning'
p854
sg21
Nsg22
S'300'
p855
sg24
S'1300'
p856
sg26
S'Mange bratte heng'
p857
sg28
Nsg29
g695
sg31
S'3 - Middels'
p858
sba(irunmatrix
M3Element
p859
(dp860
g3
Nsg4
S'Lite sannsynlig, Mulig'
p861
sg6
S'white'
p862
sg8
(lp863
sg10
S'Possible'
p864
sg12
S'Many'
p865
sg14
g585
sg16
I4
sg17
S'Low'
p866
sg19
S'Liten tilleggsbelastning'
p867
sg21
Nsg22
S'300'
p868
sg24
S'1400'
p869
sg26
S'Mange bratte heng'
p870
sg28
Nsg29
g695
sg31
S'3 - Middels'
p871
sba(irunmatrix
M3Element
p872
(dp873
g3
Nsg4
S'Lite sannsynlig, Mulig'
p874
sg6
S'gray'
p875
sg8
(lp876
sg10
S'Possible'
p877
sg12
S'Many'
p878
sg14
g76
sg16
I0
sg17
S'Nat'
p879
sg19
S'Naturlig utloest'
p880
sg21
Nsg22
S'300'
p881
sg24
S'1500'
p882
sg26
S'Mange bratte heng'
p883
sg28
Nsg29
g695
sg31
S'3 - Middels'
p884
sba(irunmatrix
M3Element
p885
(dp886
g3
Nsg4
S'Sannsynlig, Meget sannsynlig'
p887
sg6
S'gray'
p888
sg8
(lp889
sg10
S'Likely'
p890
sg12
S'Many'
p891
sg14
g76
sg16
I0
sg17
S'High'
p892
sg19
S'Stor tilleggsbelastning'
p893
sg21
Nsg22
S'300'
p894
sg24
S'1600'
p895
sg26
S'Mange bratte heng'
p896
sg28
Nsg29
g695
sg31
S'3 - Middels'
p897
sba(irunmatrix
M3Element
p898
(dp899
g3
Nsg4
S'Sannsynlig, Meget sannsynlig'
p900
sg6
S'white'
p901
sg8
(lp902
sg10
S'Likely'
p903
sg12
S'Many'
p904
sg14
g585
sg16
I4
sg17
S'Low'
p905
sg19
S'Liten tilleggsbelastning'
p906
sg21
Nsg22
S'300'
p907
sg24
S'1700'
p908
sg26
S'Mange bratte heng'
p909
sg28
Nsg29
g695
sg31
S'3 - Middels'
p910
sba(irunmatrix
M3Element
p911
(dp912
g3
Nsg4
S'Sannsynlig, Meget sannsynlig'
p913
sg6
S'white'
p914
sg8
(lp915
sg10
S'Likely'
p916
sg12
S'Many'
p917
sg14
g585
sg16
I4
sg17
S'Nat'
p918
sg19
S'Naturlig utloest'
p919
sg21
Nsg22
S'300'
p920
sg24
S'1800'
p921
sg26
S'Mange bratte heng'
p922
sg28
Nsg29
g695
sg31
S'3 - Middels'
p923
sba(irunmatrix
M3Element
p924
(dp925
g3
Nsg4
S'Lite sannsynlig, Mulig'
p926
sg6
S'gray'
p927
sg8
(lp928
sg10
S'Possible'
p929
sg12
S'Most'
p930
sg14
g76
sg16
I0
sg17
S'High'
p931
sg19
S'Stor tilleggsbelastning'
p932
sg21
Nsg22
S'300'
p933
sg24
S'1900'
p934
sg26
S'De fleste bratte heng, Ogsaa i mindre bratt terreng'
p935
sg28
Nsg29
g695
sg31
S'3 - Middels'
p936
sba(irunmatrix
M3Element
p937
(dp938
g3
Nsg4
S'Lite sannsynlig, Mulig'
p939
sg6
S'gray'
p940
sg8
(lp941
sg10
S'Possible'
p942
sg12
S'Most'
p943
sg14
g76
sg16
I0
sg17
S'Low'
p944
sg19
S'Liten tilleggsbelastning'
p945
sg21
Nsg22
S'300'
p946
sg24
S'2000'
p947
sg26
S'De fleste bratte heng, Ogsaa i mindre bratt terreng'
p948
sg28
Nsg29
g695
sg31
S'3 - Middels'
p949
sba(irunmatrix
M3Element
p950
(dp951
g3
Nsg4
S'Lite sannsynlig, Mulig'
p952
sg6
S'gray'
p953
sg8
(lp954
sg10
S'Possible'
p955
sg12
S'Most'
p956
sg14
g76
sg16
I0
sg17
S'Nat'
p957
sg19
S'Naturlig utloest'
p958
sg21
Nsg22
S'300'
p959
sg24
S'2100'
p960
sg26
S'De fleste bratte heng, Ogsaa i mindre bratt terreng'
p961
sg28
Nsg29
g695
sg31
S'3 - Middels'
p962
sba(irunmatrix
M3Element
p963
(dp964
g3
Nsg4
S'Sannsynlig, Meget sannsynlig'
p965
sg6
S'gray'
p966
sg8
(lp967
sg10
S'Likely'
p968
sg12
S'Most'
p969
sg14
g76
sg16
I0
sg17
S'High'
p970
sg19
S'Stor tilleggsbelastning'
p971
sg21
Nsg22
S'300'
p972
sg24
S'2200'
p973
sg26
S'De fleste bratte heng, Ogsaa i mindre bratt terreng'
p974
sg28
Nsg29
g695
sg31
S'3 - Middels'
p975
sba(irunmatrix
M3Element
p976
(dp977
g3
Nsg4
S'Sannsynlig, Meget sannsynlig'
p978
sg6
S'gray'
p979
sg8
(lp980
sg10
S'Likely'
p981
sg12
S'Most'
p982
sg14
g76
sg16
I0
sg17
S'Low'
p983
sg19
S'Liten tilleggsbelastning'
p984
sg21
Nsg22
S'300'
p985
sg24
S'2300'
p986
sg26
S'De fleste bratte heng, Ogsaa i mindre bratt terreng'
p987
sg28
Nsg29
g695
sg31
S'3 - Middels'
p988
sba(irunmatrix
M3Element
p989
(dp990
g3
Nsg4
S'Sannsynlig, Meget sannsynlig'
p991
sg6
S'white'
p992
sg8
(lp993
sg10
S'Likely'
p994
sg12
S'Most'
p995
sg14
g76
sg16
I0
sg17
S'Nat'
p996
sg19
S'Naturlig utloest'
p997
sg21
Nsg22
S'300'
p998
sg24
S'2400'
p999
sg26
S'De fleste bratte heng, Ogsaa i mindre bratt terreng'
p1000
sg28
Nsg29
g695
sg31
S'3 - Middels'
p1001
sba(irunmatrix
M3Element
p1002
(dp1003
g3
Nsg4
S'Lite sannsynlig, Mulig'
p1004
sg6
S'white'
p1005
sg8
(lp1006
sg10
S'Possible'
p1007
sg12
S'Isolated'
p1008
sg14
g252
sg16
I2
sg17
S'High'
p1009
sg19
S'Stor tilleggsbelastning'
p1010
sg21
Nsg22
S'400'
p1011
sg24
S'100'
p1012
sg26
S'Isolerte faresoner'
p1013
sg28
Nsg29
S'4'
p1014
sg31
S'4 - Store'
p1015
sba(irunmatrix
M3Element
p1016
(dp1017
g3
Nsg4
S'Lite sannsynlig, Mulig'
p1018
sg6
S'white'
p1019
sg8
(lp1020
sg10
S'Possible'
p1021
sg12
S'Isolated'
p1022
sg14
g514
sg16
I3
sg17
S'Low'
p1023
sg19
S'Liten tilleggsbelastning'
p1024
sg21
Nsg22
S'400'
p1025
sg24
S'200'
p1026
sg26
S'Isolerte faresoner'
p1027
sg28
Nsg29
g1014
sg31
S'4 - Store'
p1028
sba(irunmatrix
M3Element
p1029
(dp1030
g3
Nsg4
S'Lite sannsynlig, Mulig'
p1031
sg6
S'white'
p1032
sg8
(lp1033
sg10
S'Possible'
p1034
sg12
S'Isolated'
p1035
sg14
g514
sg16
I3
sg17
S'Nat'
p1036
sg19
S'Naturlig utloest'
p1037
sg21
Nsg22
S'400'
p1038
sg24
S'300'
p1039
sg26
S'Isolerte faresoner'
p1040
sg28
Nsg29
g1014
sg31
S'4 - Store'
p1041
sba(irunmatrix
M3Element
p1042
(dp1043
g3
Nsg4
S'Sannsynlig, Meget sannsynlig'
p1044
sg6
S'gray'
p1045
sg8
(lp1046
sg10
S'Likely'
p1047
sg12
S'Isolated'
p1048
sg14
g76
sg16
I0
sg17
S'High'
p1049
sg19
S'Stor tilleggsbelastning'
p1050
sg21
Nsg22
S'400'
p1051
sg24
S'400'
p1052
sg26
S'Isolerte faresoner'
p1053
sg28
Nsg29
g1014
sg31
S'4 - Store'
p1054
sba(irunmatrix
M3Element
p1055
(dp1056
g3
Nsg4
S'Sannsynlig, Meget sannsynlig'
p1057
sg6
S'gray'
p1058
sg8
(lp1059
sg10
S'Likely'
p1060
sg12
S'Isolated'
p1061
sg14
g76
sg16
I0
sg17
S'Low'
p1062
sg19
S'Liten tilleggsbelastning'
p1063
sg21
Nsg22
S'400'
p1064
sg24
S'500'
p1065
sg26
S'Isolerte faresoner'
p1066
sg28
Nsg29
g1014
sg31
S'4 - Store'
p1067
sba(irunmatrix
M3Element
p1068
(dp1069
g3
Nsg4
S'Sannsynlig, Meget sannsynlig'
p1070
sg6
S'gray'
p1071
sg8
(lp1072
sg10
S'Likely'
p1073
sg12
S'Isolated'
p1074
sg14
g76
sg16
I0
sg17
S'Nat'
p1075
sg19
S'Naturlig utloest'
p1076
sg21
Nsg22
S'400'
p1077
sg24
S'600'
p1078
sg26
S'Isolerte faresoner'
p1079
sg28
Nsg29
g1014
sg31
S'4 - Store'
p1080
sba(irunmatrix
M3Element
p1081
(dp1082
g3
Nsg4
S'Lite sannsynlig, Mulig'
p1083
sg6
S'white'
p1084
sg8
(lp1085
sg10
S'Possible'
p1086
sg12
S'Some'
p1087
sg14
g514
sg16
I3
sg17
S'High'
p1088
sg19
S'Stor tilleggsbelastning'
p1089
sg21
Nsg22
S'400'
p1090
sg24
S'700'
p1091
sg26
S'Noen bratte heng'
p1092
sg28
Nsg29
g1014
sg31
S'4 - Store'
p1093
sba(irunmatrix
M3Element
p1094
(dp1095
g3
Nsg4
S'Lite sannsynlig, Mulig'
p1096
sg6
S'white'
p1097
sg8
(lp1098
sg10
S'Possible'
p1099
sg12
S'Some'
p1100
sg14
g585
sg16
I4
sg17
S'Low'
p1101
sg19
S'Liten tilleggsbelastning'
p1102
sg21
Nsg22
S'400'
p1103
sg24
S'800'
p1104
sg26
S'Noen bratte heng'
p1105
sg28
Nsg29
g1014
sg31
S'4 - Store'
p1106
sba(irunmatrix
M3Element
p1107
(dp1108
g3
Nsg4
S'Lite sannsynlig, Mulig'
p1109
sg6
S'white'
p1110
sg8
(lp1111
sg10
S'Possible'
p1112
sg12
S'Some'
p1113
sg14
g585
sg16
I4
sg17
S'Nat'
p1114
sg19
S'Naturlig utloest'
p1115
sg21
Nsg22
S'400'
p1116
sg24
S'900'
p1117
sg26
S'Noen bratte heng'
p1118
sg28
Nsg29
g1014
sg31
S'4 - Store'
p1119
sba(irunmatrix
M3Element
p1120
(dp1121
g3
Nsg4
S'Sannsynlig, Meget sannsynlig'
p1122
sg6
S'gray'
p1123
sg8
(lp1124
sg10
S'Likely'
p1125
sg12
S'Some'
p1126
sg14
g76
sg16
I0
sg17
S'High'
p1127
sg19
S'Stor tilleggsbelastning'
p1128
sg21
Nsg22
S'400'
p1129
sg24
S'1000'
p1130
sg26
S'Noen bratte heng'
p1131
sg28
Nsg29
g1014
sg31
S'4 - Store'
p1132
sba(irunmatrix
M3Element
p1133
(dp1134
g3
Nsg4
S'Sannsynlig, Meget sannsynlig'
p1135
sg6
S'gray'
p1136
sg8
(lp1137
sg10
S'Likely'
p1138
sg12
S'Some'
p1139
sg14
g76
sg16
I0
sg17
S'Low'
p1140
sg19
S'Liten tilleggsbelastning'
p1141
sg21
Nsg22
S'400'
p1142
sg24
S'1100'
p1143
sg26
S'Noen bratte heng'
p1144
sg28
Nsg29
g1014
sg31
S'4 - Store'
p1145
sba(irunmatrix
M3Element
p1146
(dp1147
g3
Nsg4
S'Sannsynlig, Meget sannsynlig'
p1148
sg6
S'white'
p1149
sg8
(lp1150
sg10
S'Likely'
p1151
sg12
S'Some'
p1152
sg14
g585
sg16
I4
sg17
S'Nat'
p1153
sg19
S'Naturlig utloest'
p1154
sg21
Nsg22
S'400'
p1155
sg24
S'1200'
p1156
sg26
S'Noen bratte heng'
p1157
sg28
Nsg29
g1014
sg31
S'4 - Store'
p1158
sba(irunmatrix
M3Element
p1159
(dp1160
g3
Nsg4
S'Lite sannsynlig, Mulig'
p1161
sg6
S'gray'
p1162
sg8
(lp1163
sg10
S'Possible'
p1164
sg12
S'Many'
p1165
sg14
g76
sg16
I0
sg17
S'High'
p1166
sg19
S'Stor tilleggsbelastning'
p1167
sg21
Nsg22
S'400'
p1168
sg24
S'1300'
p1169
sg26
S'Mange bratte heng'
p1170
sg28
Nsg29
g1014
sg31
S'4 - Store'
p1171
sba(irunmatrix
M3Element
p1172
(dp1173
g3
Nsg4
S'Lite sannsynlig, Mulig'
p1174
sg6
S'white'
p1175
sg8
(lp1176
sg10
S'Possible'
p1177
sg12
S'Many'
p1178
sg14
g76
sg16
I0
sg17
S'Low'
p1179
sg19
S'Liten tilleggsbelastning'
p1180
sg21
Nsg22
S'400'
p1181
sg24
S'1400'
p1182
sg26
S'Mange bratte heng'
p1183
sg28
Nsg29
g1014
sg31
S'4 - Store'
p1184
sba(irunmatrix
M3Element
p1185
(dp1186
g3
Nsg4
S'Lite sannsynlig, Mulig'
p1187
sg6
S'gray'
p1188
sg8
(lp1189
sg10
S'Possible'
p1190
sg12
S'Many'
p1191
sg14
g76
sg16
I0
sg17
S'Nat'
p1192
sg19
S'Naturlig utloest'
p1193
sg21
Nsg22
S'400'
p1194
sg24
S'1500'
p1195
sg26
S'Mange bratte heng'
p1196
sg28
Nsg29
g1014
sg31
S'4 - Store'
p1197
sba(irunmatrix
M3Element
p1198
(dp1199
g3
Nsg4
S'Sannsynlig, Meget sannsynlig'
p1200
sg6
S'gray'
p1201
sg8
(lp1202
sg10
S'Likely'
p1203
sg12
S'Many'
p1204
sg14
g76
sg16
I0
sg17
S'High'
p1205
sg19
S'Stor tilleggsbelastning'
p1206
sg21
Nsg22
S'400'
p1207
sg24
S'1600'
p1208
sg26
S'Mange bratte heng'
p1209
sg28
Nsg29
g1014
sg31
S'4 - Store'
p1210
sba(irunmatrix
M3Element
p1211
(dp1212
g3
Nsg4
S'Sannsynlig, Meget sannsynlig'
p1213
sg6
S'white'
p1214
sg8
(lp1215
sg10
S'Likely'
p1216
sg12
S'Many'
p1217
sg14
g76
sg16
I0
sg17
S'Low'
p1218
sg19
S'Liten tilleggsbelastning'
p1219
sg21
Nsg22
S'400'
p1220
sg24
S'1700'
p1221
sg26
S'Mange bratte heng'
p1222
sg28
Nsg29
g1014
sg31
S'4 - Store'
p1223
sba(irunmatrix
M3Element
p1224
(dp1225
g3
Nsg4
S'Sannsynlig, Meget sannsynlig'
p1226
sg6
S'white'
p1227
sg8
(lp1228
sg10
S'Likely'
p1229
sg12
S'Many'
p1230
sg14
S'k'
p1231
sg16
I5
sg17
S'Nat'
p1232
sg19
S'Naturlig utloest'
p1233
sg21
Nsg22
S'400'
p1234
sg24
S'1800'
p1235
sg26
S'Mange bratte heng'
p1236
sg28
Nsg29
g1014
sg31
S'4 - Store'
p1237
sba(irunmatrix
M3Element
p1238
(dp1239
g3
Nsg4
S'Lite sannsynlig, Mulig'
p1240
sg6
S'gray'
p1241
sg8
(lp1242
sg10
S'Possible'
p1243
sg12
S'Most'
p1244
sg14
g76
sg16
I0
sg17
S'High'
p1245
sg19
S'Stor tilleggsbelastning'
p1246
sg21
Nsg22
S'400'
p1247
sg24
S'1900'
p1248
sg26
S'De fleste bratte heng, Ogsaa i mindre bratt terreng'
p1249
sg28
Nsg29
g1014
sg31
S'4 - Store'
p1250
sba(irunmatrix
M3Element
p1251
(dp1252
g3
Nsg4
S'Lite sannsynlig, Mulig'
p1253
sg6
S'gray'
p1254
sg8
(lp1255
sg10
S'Possible'
p1256
sg12
S'Most'
p1257
sg14
g76
sg16
I0
sg17
S'Low'
p1258
sg19
S'Liten tilleggsbelastning'
p1259
sg21
Nsg22
S'400'
p1260
sg24
S'2000'
p1261
sg26
S'De fleste bratte heng, Ogsaa i mindre bratt terreng'
p1262
sg28
Nsg29
g1014
sg31
S'4 - Store'
p1263
sba(irunmatrix
M3Element
p1264
(dp1265
g3
Nsg4
S'Lite sannsynlig, Mulig'
p1266
sg6
S'gray'
p1267
sg8
(lp1268
sg10
S'Possible'
p1269
sg12
S'Most'
p1270
sg14
g76
sg16
I0
sg17
S'Nat'
p1271
sg19
S'Naturlig utloest'
p1272
sg21
Nsg22
S'400'
p1273
sg24
S'2100'
p1274
sg26
S'De fleste bratte heng, Ogsaa i mindre bratt terreng'
p1275
sg28
Nsg29
g1014
sg31
S'4 - Store'
p1276
sba(irunmatrix
M3Element
p1277
(dp1278
g3
Nsg4
S'Sannsynlig, Meget sannsynlig'
p1279
sg6
S'gray'
p1280
sg8
(lp1281
sg10
S'Likely'
p1282
sg12
S'Most'
p1283
sg14
g76
sg16
I0
sg17
S'High'
p1284
sg19
S'Stor tilleggsbelastning'
p1285
sg21
Nsg22
S'400'
p1286
sg24
S'2200'
p1287
sg26
S'De fleste bratte heng, Ogsaa i mindre bratt terreng'
p1288
sg28
Nsg29
g1014
sg31
S'4 - Store'
p1289
sba(irunmatrix
M3Element
p1290
(dp1291
g3
Nsg4
S'Sannsynlig, Meget sannsynlig'
p1292
sg6
S'gray'
p1293
sg8
(lp1294
sg10
S'Likely'
p1295
sg12
S'Most'
p1296
sg14
g76
sg16
I0
sg17
S'Low'
p1297
sg19
S'Liten tilleggsbelastning'
p1298
sg21
Nsg22
S'400'
p1299
sg24
S'2300'
p1300
sg26
S'De fleste bratte heng, Ogsaa i mindre bratt terreng'
p1301
sg28
Nsg29
g1014
sg31
S'4 - Store'
p1302
sba(irunmatrix
M3Element
p1303
(dp1304
g3
Nsg4
S'Sannsynlig, Meget sannsynlig'
p1305
sg6
S'white'
p1306
sg8
(lp1307
sg10
S'Likely'
p1308
sg12
S'Most'
p1309
sg14
g76
sg16
I0
sg17
S'Nat'
p1310
sg19
S'Naturlig utloest'
p1311
sg21
Nsg22
S'400'
p1312
sg24
S'2400'
p1313
sg26
S'De fleste bratte heng, Ogsaa i mindre bratt terreng'
p1314
sg28
Nsg29
g1014
sg31
S'4 - Store'
p1315
sba(irunmatrix
M3Element
p1316
(dp1317
g3
Nsg4
S'Lite sannsynlig, Mulig'
p1318
sg6
S'white'
p1319
sg8
(lp1320
sg10
S'Possible'
p1321
sg12
S'Isolated'
p1322
sg14
g76
sg16
I0
sg17
S'High'
p1323
sg19
S'Stor tilleggsbelastning'
p1324
sg21
Nsg22
S'500'
p1325
sg24
S'100'
p1326
sg26
S'Isolerte faresoner'
p1327
sg28
Nsg29
S'5'
p1328
sg31
S'5 - Svaert store'
p1329
sba(irunmatrix
M3Element
p1330
(dp1331
g3
Nsg4
S'Lite sannsynlig, Mulig'
p1332
sg6
S'white'
p1333
sg8
(lp1334
sg10
S'Possible'
p1335
sg12
S'Isolated'
p1336
sg14
g76
sg16
I0
sg17
S'Low'
p1337
sg19
S'Liten tilleggsbelastning'
p1338
sg21
Nsg22
S'500'
p1339
sg24
S'200'
p1340
sg26
S'Isolerte faresoner'
p1341
sg28
Nsg29
g1328
sg31
S'5 - Svaert store'
p1342
sba(irunmatrix
M3Element
p1343
(dp1344
g3
Nsg4
S'Lite sannsynlig, Mulig'
p1345
sg6
S'white'
p1346
sg8
(lp1347
sg10
S'Possible'
p1348
sg12
S'Isolated'
p1349
sg14
g76
sg16
I0
sg17
S'Nat'
p1350
sg19
S'Naturlig utloest'
p1351
sg21
Nsg22
S'500'
p1352
sg24
S'300'
p1353
sg26
S'Isolerte faresoner'
p1354
sg28
Nsg29
g1328
sg31
S'5 - Svaert store'
p1355
sba(irunmatrix
M3Element
p1356
(dp1357
g3
Nsg4
S'Sannsynlig, Meget sannsynlig'
p1358
sg6
S'gray'
p1359
sg8
(lp1360
sg10
S'Likely'
p1361
sg12
S'Isolated'
p1362
sg14
g76
sg16
I0
sg17
S'High'
p1363
sg19
S'Stor tilleggsbelastning'
p1364
sg21
Nsg22
S'500'
p1365
sg24
S'400'
p1366
sg26
S'Isolerte faresoner'
p1367
sg28
Nsg29
g1328
sg31
S'5 - Svaert store'
p1368
sba(irunmatrix
M3Element
p1369
(dp1370
g3
Nsg4
S'Sannsynlig, Meget sannsynlig'
p1371
sg6
S'gray'
p1372
sg8
(lp1373
sg10
S'Likely'
p1374
sg12
S'Isolated'
p1375
sg14
g76
sg16
I0
sg17
S'Low'
p1376
sg19
S'Liten tilleggsbelastning'
p1377
sg21
Nsg22
S'500'
p1378
sg24
S'500'
p1379
sg26
S'Isolerte faresoner'
p1380
sg28
Nsg29
g1328
sg31
S'5 - Svaert store'
p1381
sba(irunmatrix
M3Element
p1382
(dp1383
g3
Nsg4
S'Sannsynlig, Meget sannsynlig'
p1384
sg6
S'gray'
p1385
sg8
(lp1386
sg10
S'Likely'
p1387
sg12
S'Isolated'
p1388
sg14
g76
sg16
I0
sg17
S'Nat'
p1389
sg19
S'Naturlig utloest'
p1390
sg21
Nsg22
S'500'
p1391
sg24
S'600'
p1392
sg26
S'Isolerte faresoner'
p1393
sg28
Nsg29
g1328
sg31
S'5 - Svaert store'
p1394
sba(irunmatrix
M3Element
p1395
(dp1396
g3
Nsg4
S'Lite sannsynlig, Mulig'
p1397
sg6
S'white'
p1398
sg8
(lp1399
sg10
S'Possible'
p1400
sg12
S'Some'
p1401
sg14
g76
sg16
I0
sg17
S'High'
p1402
sg19
S'Stor tilleggsbelastning'
p1403
sg21
Nsg22
S'500'
p1404
sg24
S'700'
p1405
sg26
S'Noen bratte heng'
p1406
sg28
Nsg29
g1328
sg31
S'5 - Svaert store'
p1407
sba(irunmatrix
M3Element
p1408
(dp1409
g3
Nsg4
S'Lite sannsynlig, Mulig'
p1410
sg6
S'white'
p1411
sg8
(lp1412
sg10
S'Possible'
p1413
sg12
S'Some'
p1414
sg14
g76
sg16
I0
sg17
S'Low'
p1415
sg19
S'Liten tilleggsbelastning'
p1416
sg21
Nsg22
S'500'
p1417
sg24
S'800'
p1418
sg26
S'Noen bratte heng'
p1419
sg28
Nsg29
g1328
sg31
S'5 - Svaert store'
p1420
sba(irunmatrix
M3Element
p1421
(dp1422
g3
Nsg4
S'Lite sannsynlig, Mulig'
p1423
sg6
S'white'
p1424
sg8
(lp1425
sg10
S'Possible'
p1426
sg12
S'Some'
p1427
sg14
g76
sg16
I0
sg17
S'Nat'
p1428
sg19
S'Naturlig utloest'
p1429
sg21
Nsg22
S'500'
p1430
sg24
S'900'
p1431
sg26
S'Noen bratte heng'
p1432
sg28
Nsg29
g1328
sg31
S'5 - Svaert store'
p1433
sba(irunmatrix
M3Element
p1434
(dp1435
g3
Nsg4
S'Sannsynlig, Meget sannsynlig'
p1436
sg6
S'gray'
p1437
sg8
(lp1438
sg10
S'Likely'
p1439
sg12
S'Some'
p1440
sg14
g76
sg16
I0
sg17
S'High'
p1441
sg19
S'Stor tilleggsbelastning'
p1442
sg21
Nsg22
S'500'
p1443
sg24
S'1000'
p1444
sg26
S'Noen bratte heng'
p1445
sg28
Nsg29
g1328
sg31
S'5 - Svaert store'
p1446
sba(irunmatrix
M3Element
p1447
(dp1448
g3
Nsg4
S'Sannsynlig, Meget sannsynlig'
p1449
sg6
S'gray'
p1450
sg8
(lp1451
sg10
S'Likely'
p1452
sg12
S'Some'
p1453
sg14
g76
sg16
I0
sg17
S'Low'
p1454
sg19
S'Liten tilleggsbelastning'
p1455
sg21
Nsg22
S'500'
p1456
sg24
S'1100'
p1457
sg26
S'Noen bratte heng'
p1458
sg28
Nsg29
g1328
sg31
S'5 - Svaert store'
p1459
sba(irunmatrix
M3Element
p1460
(dp1461
g3
Nsg4
S'Sannsynlig, Meget sannsynlig'
p1462
sg6
S'white'
p1463
sg8
(lp1464
sg10
S'Likely'
p1465
sg12
S'Some'
p1466
sg14
g76
sg16
I0
sg17
S'Nat'
p1467
sg19
S'Naturlig utloest'
p1468
sg21
Nsg22
S'500'
p1469
sg24
S'1200'
p1470
sg26
S'Noen bratte heng'
p1471
sg28
Nsg29
g1328
sg31
S'5 - Svaert store'
p1472
sba(irunmatrix
M3Element
p1473
(dp1474
g3
Nsg4
S'Lite sannsynlig, Mulig'
p1475
sg6
S'gray'
p1476
sg8
(lp1477
sg10
S'Possible'
p1478
sg12
S'Many'
p1479
sg14
g76
sg16
I0
sg17
S'High'
p1480
sg19
S'Stor tilleggsbelastning'
p1481
sg21
Nsg22
S'500'
p1482
sg24
S'1300'
p1483
sg26
S'Mange bratte heng'
p1484
sg28
Nsg29
g1328
sg31
S'5 - Svaert store'
p1485
sba(irunmatrix
M3Element
p1486
(dp1487
g3
Nsg4
S'Lite sannsynlig, Mulig'
p1488
sg6
S'white'
p1489
sg8
(lp1490
sg10
S'Possible'
p1491
sg12
S'Many'
p1492
sg14
g76
sg16
I0
sg17
S'Low'
p1493
sg19
S'Liten tilleggsbelastning'
p1494
sg21
Nsg22
S'500'
p1495
sg24
S'1400'
p1496
sg26
S'Mange bratte heng'
p1497
sg28
Nsg29
g1328
sg31
S'5 - Svaert store'
p1498
sba(irunmatrix
M3Element
p1499
(dp1500
g3
Nsg4
S'Lite sannsynlig, Mulig'
p1501
sg6
S'gray'
p1502
sg8
(lp1503
sg10
S'Possible'
p1504
sg12
S'Many'
p1505
sg14
g76
sg16
I0
sg17
S'Nat'
p1506
sg19
S'Naturlig utloest'
p1507
sg21
Nsg22
S'500'
p1508
sg24
S'1500'
p1509
sg26
S'Mange bratte heng'
p1510
sg28
Nsg29
g1328
sg31
S'5 - Svaert store'
p1511
sba(irunmatrix
M3Element
p1512
(dp1513
g3
Nsg4
S'Sannsynlig, Meget sannsynlig'
p1514
sg6
S'gray'
p1515
sg8
(lp1516
sg10
S'Likely'
p1517
sg12
S'Many'
p1518
sg14
g76
sg16
I0
sg17
S'High'
p1519
sg19
S'Stor tilleggsbelastning'
p1520
sg21
Nsg22
S'500'
p1521
sg24
S'1600'
p1522
sg26
S'Mange bratte heng'
p1523
sg28
Nsg29
g1328
sg31
S'5 - Svaert store'
p1524
sba(irunmatrix
M3Element
p1525
(dp1526
g3
Nsg4
S'Sannsynlig, Meget sannsynlig'
p1527
sg6
S'white'
p1528
sg8
(lp1529
sg10
S'Likely'
p1530
sg12
S'Many'
p1531
sg14
g76
sg16
I0
sg17
S'Low'
p1532
sg19
S'Liten tilleggsbelastning'
p1533
sg21
Nsg22
S'500'
p1534
sg24
S'1700'
p1535
sg26
S'Mange bratte heng'
p1536
sg28
Nsg29
g1328
sg31
S'5 - Svaert store'
p1537
sba(irunmatrix
M3Element
p1538
(dp1539
g3
Nsg4
S'Sannsynlig, Meget sannsynlig'
p1540
sg6
S'white'
p1541
sg8
(lp1542
sg10
S'Likely'
p1543
sg12
S'Many'
p1544
sg14
g1231
sg16
I5
sg17
S'Nat'
p1545
sg19
S'Naturlig utloest'
p1546
sg21
Nsg22
S'500'
p1547
sg24
S'1800'
p1548
sg26
S'Mange bratte heng'
p1549
sg28
Nsg29
g1328
sg31
S'5 - Svaert store'
p1550
sba(irunmatrix
M3Element
p1551
(dp1552
g3
Nsg4
S'Lite sannsynlig, Mulig'
p1553
sg6
S'gray'
p1554
sg8
(lp1555
sg10
S'Possible'
p1556
sg12
S'Most'
p1557
sg14
g76
sg16
I0
sg17
S'High'
p1558
sg19
S'Stor tilleggsbelastning'
p1559
sg21
Nsg22
S'500'
p1560
sg24
S'1900'
p1561
sg26
S'De fleste bratte heng, Ogsaa i mindre bratt terreng'
p1562
sg28
Nsg29
g1328
sg31
S'5 - Svaert store'
p1563
sba(irunmatrix
M3Element
p1564
(dp1565
g3
Nsg4
S'Lite sannsynlig, Mulig'
p1566
sg6
S'gray'
p1567
sg8
(lp1568
sg10
S'Possible'
p1569
sg12
S'Most'
p1570
sg14
g76
sg16
I0
sg17
S'Low'
p1571
sg19
S'Liten tilleggsbelastning'
p1572
sg21
Nsg22
S'500'
p1573
sg24
S'2000'
p1574
sg26
S'De fleste bratte heng, Ogsaa i mindre bratt terreng'
p1575
sg28
Nsg29
g1328
sg31
S'5 - Svaert store'
p1576
sba(irunmatrix
M3Element
p1577
(dp1578
g3
Nsg4
S'Lite sannsynlig, Mulig'
p1579
sg6
S'gray'
p1580
sg8
(lp1581
sg10
S'Possible'
p1582
sg12
S'Most'
p1583
sg14
g76
sg16
I0
sg17
S'Nat'
p1584
sg19
S'Naturlig utloest'
p1585
sg21
Nsg22
S'500'
p1586
sg24
S'2100'
p1587
sg26
S'De fleste bratte heng, Ogsaa i mindre bratt terreng'
p1588
sg28
Nsg29
g1328
sg31
S'5 - Svaert store'
p1589
sba(irunmatrix
M3Element
p1590
(dp1591
g3
Nsg4
S'Sannsynlig, Meget sannsynlig'
p1592
sg6
S'gray'
p1593
sg8
(lp1594
sg10
S'Likely'
p1595
sg12
S'Most'
p1596
sg14
g76
sg16
I0
sg17
S'High'
p1597
sg19
S'Stor tilleggsbelastning'
p1598
sg21
Nsg22
S'500'
p1599
sg24
S'2200'
p1600
sg26
S'De fleste bratte heng, Ogsaa i mindre bratt terreng'
p1601
sg28
Nsg29
g1328
sg31
S'5 - Svaert store'
p1602
sba(irunmatrix
M3Element
p1603
(dp1604
g3
Nsg4
S'Sannsynlig, Meget sannsynlig'
p1605
sg6
S'gray'
p1606
sg8
(lp1607
sg10
S'Likely'
p1608
sg12
S'Most'
p1609
sg14
g76
sg16
I0
sg17
S'Low'
p1610
sg19
S'Liten tilleggsbelastning'
p1611
sg21
Nsg22
S'500'
p1612
sg24
S'2300'
p1613
sg26
S'De fleste bratte heng, Ogsaa i mindre bratt terreng'
p1614
sg28
Nsg29
g1328
sg31
S'5 - Svaert store'
p1615
sba(irunmatrix
M3Element
p1616
(dp1617
g3
Nsg4
S'Sannsynlig, Meget sannsynlig'
p1618
sg6
S'white'
p1619
sg8
(lp1620
sg10
S'Likely'
p1621
sg12
S'Most'
p1622
sg14
g76
sg16
I0
sg17
S'Nat'
p1623
sg19
S'Naturlig utloest'
p1624
sg21
Nsg22
S'500'
p1625
sg24
S'2400'
p1626
sg26
S'De fleste bratte heng, Ogsaa i mindre bratt terreng'
p1627
sg28
Nsg29
g1328
sg31
S'5 - Svaert store'
p1628
sba.