(dp0
S'trigger'
p1
(dp2
S'keys'
p3
(lp4
S'Stor tilleggsbelastning'
p5
aS'Liten tilleggsbelastning'
p6
aS'Naturlig utloest'
p7
asS'colors'
p8
(lp9
S'0.7'
p10
asS'values'
p11
(lp12
S'Liten tilleggsbelastning'
p13
aS'Liten tilleggsbelastning'
p14
aS'Liten tilleggsbelastning'
p15
aS'Liten tilleggsbelastning'
p16
aS'Liten tilleggsbelastning'
p17
aS'Liten tilleggsbelastning'
p18
aS'Stor tilleggsbelastning'
p19
aS'Liten tilleggsbelastning'
p20
aS'Liten tilleggsbelastning'
p21
aS'Liten tilleggsbelastning'
p22
aS'Liten tilleggsbelastning'
p23
aS'Liten tilleggsbelastning'
p24
aS'Stor tilleggsbelastning'
p25
aS'Liten tilleggsbelastning'
p26
aS'Liten tilleggsbelastning'
p27
aS'Liten tilleggsbelastning'
p28
aS'Liten tilleggsbelastning'
p29
aS'Stor tilleggsbelastning'
p30
aS'Stor tilleggsbelastning'
p31
aS'Liten tilleggsbelastning'
p32
aS'Naturlig utloest'
p33
aS'Naturlig utloest'
p34
aS'Naturlig utloest'
p35
aS'Liten tilleggsbelastning'
p36
aS'Liten tilleggsbelastning'
p37
aS'Liten tilleggsbelastning'
p38
aS'Liten tilleggsbelastning'
p39
aS'Liten tilleggsbelastning'
p40
aS'Liten tilleggsbelastning'
p41
aS'Liten tilleggsbelastning'
p42
aS'Naturlig utloest'
p43
aS'Naturlig utloest'
p44
aS'Naturlig utloest'
p45
aS'Naturlig utloest'
p46
aS'Naturlig utloest'
p47
aS'Naturlig utloest'
p48
aS'Naturlig utloest'
p49
aS'Liten tilleggsbelastning'
p50
aS'Liten tilleggsbelastning'
p51
aS'Liten tilleggsbelastning'
p52
aS'Naturlig utloest'
p53
aS'Naturlig utloest'
p54
aS'Naturlig utloest'
p55
aS'Naturlig utloest'
p56
aS'Stor tilleggsbelastning'
p57
aS'Stor tilleggsbelastning'
p58
aS'Liten tilleggsbelastning'
p59
aS'Liten tilleggsbelastning'
p60
aS'Liten tilleggsbelastning'
p61
aS'Liten tilleggsbelastning'
p62
aS'Liten tilleggsbelastning'
p63
aS'Naturlig utloest'
p64
aS'Naturlig utloest'
p65
aS'Naturlig utloest'
p66
aS'Naturlig utloest'
p67
aS'Naturlig utloest'
p68
aS'Naturlig utloest'
p69
aS'Naturlig utloest'
p70
aS'Naturlig utloest'
p71
aS'Naturlig utloest'
p72
aS'Stor tilleggsbelastning'
p73
aS'Naturlig utloest'
p74
aS'Stor tilleggsbelastning'
p75
aS'Stor tilleggsbelastning'
p76
aS'Stor tilleggsbelastning'
p77
aS'Liten tilleggsbelastning'
p78
aS'Liten tilleggsbelastning'
p79
aS'Liten tilleggsbelastning'
p80
aS'Stor tilleggsbelastning'
p81
aS'Stor tilleggsbelastning'
p82
aS'Stor tilleggsbelastning'
p83
aS'Stor tilleggsbelastning'
p84
aS'Stor tilleggsbelastning'
p85
aS'Liten tilleggsbelastning'
p86
aS'Stor tilleggsbelastning'
p87
aS'Stor tilleggsbelastning'
p88
aS'Stor tilleggsbelastning'
p89
aS'Stor tilleggsbelastning'
p90
aS'Stor tilleggsbelastning'
p91
aS'Stor tilleggsbelastning'
p92
aS'Naturlig utloest'
p93
aS'Naturlig utloest'
p94
aS'Naturlig utloest'
p95
aS'Naturlig utloest'
p96
aS'Naturlig utloest'
p97
aS'Naturlig utloest'
p98
aS'Liten tilleggsbelastning'
p99
aS'Liten tilleggsbelastning'
p100
aS'Liten tilleggsbelastning'
p101
aS'Liten tilleggsbelastning'
p102
aS'Liten tilleggsbelastning'
p103
aS'Liten tilleggsbelastning'
p104
aS'Liten tilleggsbelastning'
p105
aS'Liten tilleggsbelastning'
p106
aS'Liten tilleggsbelastning'
p107
aS'Liten tilleggsbelastning'
p108
aS'Liten tilleggsbelastning'
p109
aS'Liten tilleggsbelastning'
p110
aS'Liten tilleggsbelastning'
p111
aS'Liten tilleggsbelastning'
p112
aS'Liten tilleggsbelastning'
p113
aS'Liten tilleggsbelastning'
p114
aS'Liten tilleggsbelastning'
p115
aS'Liten tilleggsbelastning'
p116
aS'Liten tilleggsbelastning'
p117
aS'Liten tilleggsbelastning'
p118
aS'Liten tilleggsbelastning'
p119
aS'Liten tilleggsbelastning'
p120
aS'Liten tilleggsbelastning'
p121
aS'Liten tilleggsbelastning'
p122
aS'Liten tilleggsbelastning'
p123
aS'Liten tilleggsbelastning'
p124
aS'Liten tilleggsbelastning'
p125
aS'Liten tilleggsbelastning'
p126
aS'Liten tilleggsbelastning'
p127
aS'Liten tilleggsbelastning'
p128
aS'Liten tilleggsbelastning'
p129
aS'Liten tilleggsbelastning'
p130
aS'Naturlig utloest'
p131
aS'Naturlig utloest'
p132
aS'Naturlig utloest'
p133
aS'Liten tilleggsbelastning'
p134
aS'Liten tilleggsbelastning'
p135
aS'Liten tilleggsbelastning'
p136
aS'Stor tilleggsbelastning'
p137
aS'Liten tilleggsbelastning'
p138
aS'Liten tilleggsbelastning'
p139
aS'Liten tilleggsbelastning'
p140
aS'Liten tilleggsbelastning'
p141
aS'Liten tilleggsbelastning'
p142
aS'Stor tilleggsbelastning'
p143
aS'Stor tilleggsbelastning'
p144
aS'Stor tilleggsbelastning'
p145
assS'distribution'
p146
(dp147
g3
(lp148
S'Isolerte faresoner'
p149
aS'Noen bratte heng'
p150
aS'Mange bratte heng'
p151
aS'De fleste bratte heng'
p152
aS'Ogsaa i mindre bratt terreng'
p153
asg8
(lp154
g10
asg11
(lp155
S'Noen bratte heng'
p156
aS'Noen bratte heng'
p157
aS'Noen bratte heng'
p158
aS'Noen bratte heng'
p159
aS'Noen bratte heng'
p160
aS'Noen bratte heng'
p161
aS'Noen bratte heng'
p162
aS'Noen bratte heng'
p163
aS'Noen bratte heng'
p164
aS'Noen bratte heng'
p165
aS'Noen bratte heng'
p166
aS'Noen bratte heng'
p167
aS'Noen bratte heng'
p168
aS'Noen bratte heng'
p169
aS'Noen bratte heng'
p170
aS'Noen bratte heng'
p171
aS'Noen bratte heng'
p172
aS'Isolerte faresoner'
p173
aS'Noen bratte heng'
p174
aS'Noen bratte heng'
p175
aS'Isolerte faresoner'
p176
aS'Isolerte faresoner'
p177
aS'Isolerte faresoner'
p178
aS'Noen bratte heng'
p179
aS'Noen bratte heng'
p180
aS'Noen bratte heng'
p181
aS'Noen bratte heng'
p182
aS'Noen bratte heng'
p183
aS'Noen bratte heng'
p184
aS'Noen bratte heng'
p185
aS'Noen bratte heng'
p186
aS'Noen bratte heng'
p187
aS'Noen bratte heng'
p188
aS'Noen bratte heng'
p189
aS'Noen bratte heng'
p190
aS'Noen bratte heng'
p191
aS'Noen bratte heng'
p192
aS'Noen bratte heng'
p193
aS'Noen bratte heng'
p194
aS'Noen bratte heng'
p195
aS'Noen bratte heng'
p196
aS'Noen bratte heng'
p197
aS'Noen bratte heng'
p198
aS'Noen bratte heng'
p199
aS'Noen bratte heng'
p200
aS'Noen bratte heng'
p201
aS'Noen bratte heng'
p202
aS'Noen bratte heng'
p203
aS'Noen bratte heng'
p204
aS'Noen bratte heng'
p205
aS'Isolerte faresoner'
p206
aS'Isolerte faresoner'
p207
aS'Noen bratte heng'
p208
aS'Noen bratte heng'
p209
aS'Noen bratte heng'
p210
aS'Noen bratte heng'
p211
aS'Noen bratte heng'
p212
aS'Noen bratte heng'
p213
aS'Noen bratte heng'
p214
aS'Noen bratte heng'
p215
aS'Noen bratte heng'
p216
aS'Noen bratte heng'
p217
aS'Noen bratte heng'
p218
aS'Noen bratte heng'
p219
aS'Noen bratte heng'
p220
aS'Noen bratte heng'
p221
aS'Noen bratte heng'
p222
aS'Noen bratte heng'
p223
aS'Noen bratte heng'
p224
aS'Noen bratte heng'
p225
aS'Noen bratte heng'
p226
aS'Noen bratte heng'
p227
aS'Noen bratte heng'
p228
aS'Noen bratte heng'
p229
aS'Noen bratte heng'
p230
aS'Noen bratte heng'
p231
aS'Noen bratte heng'
p232
aS'Noen bratte heng'
p233
aS'Noen bratte heng'
p234
aS'Noen bratte heng'
p235
aS'Noen bratte heng'
p236
aS'Noen bratte heng'
p237
aS'Noen bratte heng'
p238
aS'Mange bratte heng'
p239
aS'Mange bratte heng'
p240
aS'Mange bratte heng'
p241
aS'Isolerte faresoner'
p242
aS'Isolerte faresoner'
p243
aS'Isolerte faresoner'
p244
aS'Noen bratte heng'
p245
aS'Noen bratte heng'
p246
aS'Mange bratte heng'
p247
aS'Isolerte faresoner'
p248
aS'Isolerte faresoner'
p249
aS'Isolerte faresoner'
p250
aS'Noen bratte heng'
p251
aS'Noen bratte heng'
p252
aS'Noen bratte heng'
p253
aS'Noen bratte heng'
p254
aS'Noen bratte heng'
p255
aS'Noen bratte heng'
p256
aS'Noen bratte heng'
p257
aS'Noen bratte heng'
p258
aS'Noen bratte heng'
p259
aS'Noen bratte heng'
p260
aS'Noen bratte heng'
p261
aS'Noen bratte heng'
p262
aS'Noen bratte heng'
p263
aS'Noen bratte heng'
p264
aS'Noen bratte heng'
p265
aS'Noen bratte heng'
p266
aS'Noen bratte heng'
p267
aS'Noen bratte heng'
p268
aS'Noen bratte heng'
p269
aS'Noen bratte heng'
p270
aS'Noen bratte heng'
p271
aS'Noen bratte heng'
p272
aS'Noen bratte heng'
p273
aS'Isolerte faresoner'
p274
aS'Noen bratte heng'
p275
aS'Noen bratte heng'
p276
aS'Noen bratte heng'
p277
aS'Noen bratte heng'
p278
aS'Noen bratte heng'
p279
aS'Noen bratte heng'
p280
aS'Noen bratte heng'
p281
aS'Noen bratte heng'
p282
aS'Noen bratte heng'
p283
aS'Noen bratte heng'
p284
aS'Noen bratte heng'
p285
aS'Noen bratte heng'
p286
aS'Noen bratte heng'
p287
aS'Noen bratte heng'
p288
assS'size'
p289
(dp290
g3
(lp291
S'1 - Harmloest'
p292
aS'2 - Smaa'
p293
aS'3 - Middels'
p294
aS'4 - Store'
p295
aS'5 - Svaert store'
p296
aS'Ukjent'
p297
asg8
(lp298
g10
asg11
(lp299
S'2 - Smaa'
p300
aS'2 - Smaa'
p301
aS'3 - Middels'
p302
aS'2 - Smaa'
p303
aS'3 - Middels'
p304
aS'3 - Middels'
p305
aS'3 - Middels'
p306
aS'2 - Smaa'
p307
aS'3 - Middels'
p308
aS'3 - Middels'
p309
aS'3 - Middels'
p310
aS'2 - Smaa'
p311
aS'3 - Middels'
p312
aS'2 - Smaa'
p313
aS'3 - Middels'
p314
aS'3 - Middels'
p315
aS'3 - Middels'
p316
aS'2 - Smaa'
p317
aS'3 - Middels'
p318
aS'2 - Smaa'
p319
aS'4 - Store'
p320
aS'4 - Store'
p321
aS'4 - Store'
p322
aS'3 - Middels'
p323
aS'3 - Middels'
p324
aS'2 - Smaa'
p325
aS'2 - Smaa'
p326
aS'2 - Smaa'
p327
aS'2 - Smaa'
p328
aS'3 - Middels'
p329
aS'3 - Middels'
p330
aS'3 - Middels'
p331
aS'3 - Middels'
p332
aS'3 - Middels'
p333
aS'3 - Middels'
p334
aS'3 - Middels'
p335
aS'3 - Middels'
p336
aS'3 - Middels'
p337
aS'3 - Middels'
p338
aS'3 - Middels'
p339
aS'3 - Middels'
p340
aS'3 - Middels'
p341
aS'3 - Middels'
p342
aS'3 - Middels'
p343
aS'3 - Middels'
p344
aS'3 - Middels'
p345
aS'3 - Middels'
p346
aS'3 - Middels'
p347
aS'3 - Middels'
p348
aS'3 - Middels'
p349
aS'3 - Middels'
p350
aS'3 - Middels'
p351
aS'3 - Middels'
p352
aS'3 - Middels'
p353
aS'3 - Middels'
p354
aS'3 - Middels'
p355
aS'3 - Middels'
p356
aS'3 - Middels'
p357
aS'3 - Middels'
p358
aS'3 - Middels'
p359
aS'3 - Middels'
p360
aS'3 - Middels'
p361
aS'3 - Middels'
p362
aS'3 - Middels'
p363
aS'3 - Middels'
p364
aS'3 - Middels'
p365
aS'3 - Middels'
p366
aS'3 - Middels'
p367
aS'3 - Middels'
p368
aS'3 - Middels'
p369
aS'3 - Middels'
p370
aS'3 - Middels'
p371
aS'3 - Middels'
p372
aS'3 - Middels'
p373
aS'3 - Middels'
p374
aS'3 - Middels'
p375
aS'3 - Middels'
p376
aS'3 - Middels'
p377
aS'3 - Middels'
p378
aS'3 - Middels'
p379
aS'2 - Smaa'
p380
aS'2 - Smaa'
p381
aS'2 - Smaa'
p382
aS'2 - Smaa'
p383
aS'2 - Smaa'
p384
aS'2 - Smaa'
p385
aS'2 - Smaa'
p386
aS'2 - Smaa'
p387
aS'2 - Smaa'
p388
aS'2 - Smaa'
p389
aS'2 - Smaa'
p390
aS'2 - Smaa'
p391
aS'2 - Smaa'
p392
aS'2 - Smaa'
p393
aS'2 - Smaa'
p394
aS'2 - Smaa'
p395
aS'2 - Smaa'
p396
aS'2 - Smaa'
p397
aS'2 - Smaa'
p398
aS'2 - Smaa'
p399
aS'2 - Smaa'
p400
aS'2 - Smaa'
p401
aS'2 - Smaa'
p402
aS'2 - Smaa'
p403
aS'2 - Smaa'
p404
aS'2 - Smaa'
p405
aS'2 - Smaa'
p406
aS'2 - Smaa'
p407
aS'2 - Smaa'
p408
aS'2 - Smaa'
p409
aS'2 - Smaa'
p410
aS'2 - Smaa'
p411
aS'2 - Smaa'
p412
aS'2 - Smaa'
p413
aS'2 - Smaa'
p414
aS'2 - Smaa'
p415
aS'2 - Smaa'
p416
aS'2 - Smaa'
p417
aS'3 - Middels'
p418
aS'3 - Middels'
p419
aS'3 - Middels'
p420
aS'2 - Smaa'
p421
aS'2 - Smaa'
p422
aS'2 - Smaa'
p423
aS'3 - Middels'
p424
aS'3 - Middels'
p425
aS'3 - Middels'
p426
aS'2 - Smaa'
p427
aS'2 - Smaa'
p428
aS'2 - Smaa'
p429
aS'3 - Middels'
p430
aS'3 - Middels'
p431
aS'3 - Middels'
p432
assS'probability'
p433
(dp434
g3
(lp435
S'Lite sannsynlig'
p436
aS'Mulig'
p437
aS'Sannsynlig'
p438
aS'Meget sannsynlig'
p439
asg8
(lp440
g10
asg11
(lp441
S'Mulig'
p442
aS'Mulig'
p443
aS'Mulig'
p444
aS'Mulig'
p445
aS'Mulig'
p446
aS'Mulig'
p447
aS'Mulig'
p448
aS'Mulig'
p449
aS'Mulig'
p450
aS'Mulig'
p451
aS'Mulig'
p452
aS'Mulig'
p453
aS'Mulig'
p454
aS'Mulig'
p455
aS'Mulig'
p456
aS'Mulig'
p457
aS'Mulig'
p458
aS'Lite sannsynlig'
p459
aS'Mulig'
p460
aS'Mulig'
p461
aS'Mulig'
p462
aS'Mulig'
p463
aS'Mulig'
p464
aS'Mulig'
p465
aS'Mulig'
p466
aS'Mulig'
p467
aS'Mulig'
p468
aS'Mulig'
p469
aS'Mulig'
p470
aS'Mulig'
p471
aS'Mulig'
p472
aS'Mulig'
p473
aS'Mulig'
p474
aS'Sannsynlig'
p475
aS'Sannsynlig'
p476
aS'Sannsynlig'
p477
aS'Sannsynlig'
p478
aS'Mulig'
p479
aS'Mulig'
p480
aS'Mulig'
p481
aS'Sannsynlig'
p482
aS'Mulig'
p483
aS'Sannsynlig'
p484
aS'Sannsynlig'
p485
aS'Mulig'
p486
aS'Mulig'
p487
aS'Mulig'
p488
aS'Mulig'
p489
aS'Mulig'
p490
aS'Mulig'
p491
aS'Mulig'
p492
aS'Mulig'
p493
aS'Mulig'
p494
aS'Mulig'
p495
aS'Sannsynlig'
p496
aS'Sannsynlig'
p497
aS'Mulig'
p498
aS'Mulig'
p499
aS'Mulig'
p500
aS'Mulig'
p501
aS'Mulig'
p502
aS'Mulig'
p503
aS'Mulig'
p504
aS'Mulig'
p505
aS'Mulig'
p506
aS'Mulig'
p507
aS'Mulig'
p508
aS'Mulig'
p509
aS'Mulig'
p510
aS'Mulig'
p511
aS'Mulig'
p512
aS'Mulig'
p513
aS'Mulig'
p514
aS'Mulig'
p515
aS'Mulig'
p516
aS'Mulig'
p517
aS'Mulig'
p518
aS'Mulig'
p519
aS'Mulig'
p520
aS'Mulig'
p521
aS'Mulig'
p522
aS'Mulig'
p523
aS'Mulig'
p524
aS'Mulig'
p525
aS'Mulig'
p526
aS'Mulig'
p527
aS'Mulig'
p528
aS'Mulig'
p529
aS'Mulig'
p530
aS'Mulig'
p531
aS'Mulig'
p532
aS'Mulig'
p533
aS'Mulig'
p534
aS'Mulig'
p535
aS'Mulig'
p536
aS'Mulig'
p537
aS'Mulig'
p538
aS'Mulig'
p539
aS'Mulig'
p540
aS'Mulig'
p541
aS'Mulig'
p542
aS'Mulig'
p543
aS'Mulig'
p544
aS'Mulig'
p545
aS'Mulig'
p546
aS'Mulig'
p547
aS'Mulig'
p548
aS'Mulig'
p549
aS'Mulig'
p550
aS'Mulig'
p551
aS'Mulig'
p552
aS'Mulig'
p553
aS'Mulig'
p554
aS'Mulig'
p555
aS'Mulig'
p556
aS'Mulig'
p557
aS'Mulig'
p558
aS'Mulig'
p559
aS'Mulig'
p560
aS'Mulig'
p561
aS'Mulig'
p562
aS'Mulig'
p563
aS'Mulig'
p564
aS'Mulig'
p565
aS'Mulig'
p566
aS'Mulig'
p567
aS'Mulig'
p568
aS'Mulig'
p569
aS'Mulig'
p570
aS'Mulig'
p571
aS'Mulig'
p572
aS'Mulig'
p573
aS'Mulig'
p574
assS'level'
p575
(dp576
g3
(lp577
I1
aI2
aI3
aI4
aI5
asg8
(lp578
S'#ccff66'
p579
aS'#ffff00'
p580
aS'#ff9900'
p581
aS'#ff0000'
p582
aS'k'
p583
asg11
(lp584
I2
aI2
aI3
aI3
aI3
aI3
aI2
aI2
aI3
aI3
aI3
aI2
aI2
aI2
aI3
aI3
aI3
aI2
aI2
aI2
aI3
aI3
aI3
aI3
aI3
aI2
aI2
aI2
aI2
aI3
aI3
aI3
aI3
aI4
aI4
aI4
aI4
aI3
aI3
aI3
aI4
aI3
aI4
aI4
aI2
aI2
aI3
aI3
aI3
aI3
aI2
aI2
aI3
aI3
aI4
aI4
aI3
aI3
aI3
aI3
aI3
aI3
aI2
aI2
aI2
aI3
aI3
aI3
aI2
aI2
aI2
aI2
aI2
aI3
aI2
aI2
aI2
aI2
aI2
aI2
aI2
aI2
aI2
aI2
aI2
aI2
aI1
aI1
aI2
aI2
aI2
aI2
aI2
aI2
aI2
aI2
aI2
aI2
aI2
aI2
aI2
aI2
aI2
aI2
aI2
aI2
aI2
aI2
aI2
aI2
aI2
aI2
aI2
aI2
aI2
aI2
aI2
aI2
aI3
aI3
aI3
aI2
aI2
aI2
aI2
aI3
aI3
aI2
aI2
aI2
aI2
aI2
aI2
ass.