(lp0
(irunmatrix
M3Element
p1
(dp2
S'danger_level_average'
p3
NsS'probability'
p4
S'Lite sannsynlig, Mulig'
p5
sS'colour'
p6
S'white'
p7
sS'danger_level_list'
p8
(lp9
sS'label_probalility'
p10
S'Possible'
p11
sS'label_distribution'
p12
S'Isolated'
p13
sS'recomended_colour'
p14
S'#ccff66'
p15
sS'recomended_danger_level'
p16
I1
sS'label_trigger'
p17
S'High'
p18
sS'trigger'
p19
S'Stor tilleggsbelastning'
p20
sS'occurrences'
p21
NsS'y'
p22
S'100'
p23
sS'x'
p24
S'100'
p25
sS'distribution'
p26
S'Isolerte faresoner'
p27
sS'danger_level_standard_dev'
p28
NsS'label_size'
p29
S'1'
p30
sS'avalanche_size'
p31
S'1 - Harmloest'
p32
sba(irunmatrix
M3Element
p33
(dp34
g3
Nsg4
S'Lite sannsynlig, Mulig'
p35
sg6
S'white'
p36
sg8
(lp37
sg10
S'Possible'
p38
sg12
S'Isolated'
p39
sg14
g15
sg16
I1
sg17
S'Low'
p40
sg19
S'Liten tilleggsbelastning'
p41
sg21
Nsg22
S'100'
p42
sg24
S'200'
p43
sg26
S'Isolerte faresoner'
p44
sg28
Nsg29
g30
sg31
S'1 - Harmloest'
p45
sba(irunmatrix
M3Element
p46
(dp47
g3
Nsg4
S'Lite sannsynlig, Mulig'
p48
sg6
S'white'
p49
sg8
(lp50
sg10
S'Possible'
p51
sg12
S'Isolated'
p52
sg14
g15
sg16
I1
sg17
S'Nat'
p53
sg19
S'Naturlig utloest'
p54
sg21
Nsg22
S'100'
p55
sg24
S'300'
p56
sg26
S'Isolerte faresoner'
p57
sg28
Nsg29
g30
sg31
S'1 - Harmloest'
p58
sba(irunmatrix
M3Element
p59
(dp60
g3
Nsg4
S'Sannsynlig, Meget sannsynlig'
p61
sg6
S'gray'
p62
sg8
(lp63
sg10
S'Likely'
p64
sg12
S'Isolated'
p65
sg14
S'gray'
p66
sg16
I0
sg17
S'High'
p67
sg19
S'Stor tilleggsbelastning'
p68
sg21
Nsg22
S'100'
p69
sg24
S'400'
p70
sg26
S'Isolerte faresoner'
p71
sg28
Nsg29
g30
sg31
S'1 - Harmloest'
p72
sba(irunmatrix
M3Element
p73
(dp74
g3
Nsg4
S'Sannsynlig, Meget sannsynlig'
p75
sg6
S'gray'
p76
sg8
(lp77
sg10
S'Likely'
p78
sg12
S'Isolated'
p79
sg14
g66
sg16
I0
sg17
S'Low'
p80
sg19
S'Liten tilleggsbelastning'
p81
sg21
Nsg22
S'100'
p82
sg24
S'500'
p83
sg26
S'Isolerte faresoner'
p84
sg28
Nsg29
g30
sg31
S'1 - Harmloest'
p85
sba(irunmatrix
M3Element
p86
(dp87
g3
Nsg4
S'Sannsynlig, Meget sannsynlig'
p88
sg6
S'gray'
p89
sg8
(lp90
sg10
S'Likely'
p91
sg12
S'Isolated'
p92
sg14
g66
sg16
I0
sg17
S'Nat'
p93
sg19
S'Naturlig utloest'
p94
sg21
Nsg22
S'100'
p95
sg24
S'600'
p96
sg26
S'Isolerte faresoner'
p97
sg28
Nsg29
g30
sg31
S'1 - Harmloest'
p98
sba(irunmatrix
M3Element
p99
(dp100
g3
Nsg4
S'Lite sannsynlig, Mulig'
p101
sg6
S'white'
p102
sg8
(lp103
sg10
S'Possible'
p104
sg12
S'Some'
p105
sg14
g15
sg16
I1
sg17
S'High'
p106
sg19
S'Stor tilleggsbelastning'
p107
sg21
Nsg22
S'100'
p108
sg24
S'700'
p109
sg26
S'Noen bratte heng'
p110
sg28
Nsg29
g30
sg31
S'1 - Harmloest'
p111
sba(irunmatrix
M3Element
p112
(dp113
g3
F1.3333333333333333
sg4
S'Lite sannsynlig, Mulig'
p114
sg6
S'#ccff66'
p115
sg8
(lp116
I1
aI1
aI2
aI2
aI2
aI1
aI1
aI1
aI1
asg10
S'Possible'
p117
sg12
S'Some'
p118
sg14
g15
sg16
I1
sg17
S'Low'
p119
sg19
S'Liten tilleggsbelastning'
p120
sg21
I9
sg22
S'100'
p121
sg24
S'800'
p122
sg26
S'Noen bratte heng'
p123
sg28
cnumpy.core.multiarray
scalar
p124
(cnumpy
dtype
p125
(S'f8'
p126
I0
I1
tp127
Rp128
(I3
S'<'
p129
NNNI-1
I-1
I0
tp130
bS'f\xfa\xfe\xdd}+\xde?'
p131
tp132
Rp133
sg29
g30
sg31
S'1 - Harmloest'
p134
sba(irunmatrix
M3Element
p135
(dp136
g3
F1.2857142857142858
sg4
S'Lite sannsynlig, Mulig'
p137
sg6
g115
sg8
(lp138
I1
aI1
aI1
aI1
aI1
aI2
aI2
asg10
S'Possible'
p139
sg12
S'Some'
p140
sg14
g15
sg16
I1
sg17
S'Nat'
p141
sg19
S'Naturlig utloest'
p142
sg21
I7
sg22
S'100'
p143
sg24
S'900'
p144
sg26
S'Noen bratte heng'
p145
sg28
g124
(g128
S'\xa8\xfa\xd4g\x89\xe9\xdc?'
p146
tp147
Rp148
sg29
g30
sg31
S'1 - Harmloest'
p149
sba(irunmatrix
M3Element
p150
(dp151
g3
Nsg4
S'Sannsynlig, Meget sannsynlig'
p152
sg6
S'gray'
p153
sg8
(lp154
sg10
S'Likely'
p155
sg12
S'Some'
p156
sg14
g66
sg16
I0
sg17
S'High'
p157
sg19
S'Stor tilleggsbelastning'
p158
sg21
Nsg22
S'100'
p159
sg24
S'1000'
p160
sg26
S'Noen bratte heng'
p161
sg28
Nsg29
g30
sg31
S'1 - Harmloest'
p162
sba(irunmatrix
M3Element
p163
(dp164
g3
Nsg4
S'Sannsynlig, Meget sannsynlig'
p165
sg6
S'gray'
p166
sg8
(lp167
sg10
S'Likely'
p168
sg12
S'Some'
p169
sg14
g66
sg16
I0
sg17
S'Low'
p170
sg19
S'Liten tilleggsbelastning'
p171
sg21
Nsg22
S'100'
p172
sg24
S'1100'
p173
sg26
S'Noen bratte heng'
p174
sg28
Nsg29
g30
sg31
S'1 - Harmloest'
p175
sba(irunmatrix
M3Element
p176
(dp177
g3
F1.0
sg4
S'Sannsynlig, Meget sannsynlig'
p178
sg6
g115
sg8
(lp179
I1
aI1
asg10
S'Likely'
p180
sg12
S'Some'
p181
sg14
g15
sg16
I1
sg17
S'Nat'
p182
sg19
S'Naturlig utloest'
p183
sg21
I2
sg22
S'100'
p184
sg24
S'1200'
p185
sg26
S'Noen bratte heng'
p186
sg28
g124
(g128
S'\x00\x00\x00\x00\x00\x00\x00\x00'
p187
tp188
Rp189
sg29
g30
sg31
S'1 - Harmloest'
p190
sba(irunmatrix
M3Element
p191
(dp192
g3
Nsg4
S'Lite sannsynlig, Mulig'
p193
sg6
S'gray'
p194
sg8
(lp195
sg10
S'Possible'
p196
sg12
S'Many'
p197
sg14
g66
sg16
I0
sg17
S'High'
p198
sg19
S'Stor tilleggsbelastning'
p199
sg21
Nsg22
S'100'
p200
sg24
S'1300'
p201
sg26
S'Mange bratte heng'
p202
sg28
Nsg29
g30
sg31
S'1 - Harmloest'
p203
sba(irunmatrix
M3Element
p204
(dp205
g3
Nsg4
S'Lite sannsynlig, Mulig'
p206
sg6
S'white'
p207
sg8
(lp208
sg10
S'Possible'
p209
sg12
S'Many'
p210
sg14
g15
sg16
I1
sg17
S'Low'
p211
sg19
S'Liten tilleggsbelastning'
p212
sg21
Nsg22
S'100'
p213
sg24
S'1400'
p214
sg26
S'Mange bratte heng'
p215
sg28
Nsg29
g30
sg31
S'1 - Harmloest'
p216
sba(irunmatrix
M3Element
p217
(dp218
g3
Nsg4
S'Lite sannsynlig, Mulig'
p219
sg6
S'gray'
p220
sg8
(lp221
sg10
S'Possible'
p222
sg12
S'Many'
p223
sg14
g66
sg16
I0
sg17
S'Nat'
p224
sg19
S'Naturlig utloest'
p225
sg21
Nsg22
S'100'
p226
sg24
S'1500'
p227
sg26
S'Mange bratte heng'
p228
sg28
Nsg29
g30
sg31
S'1 - Harmloest'
p229
sba(irunmatrix
M3Element
p230
(dp231
g3
Nsg4
S'Sannsynlig, Meget sannsynlig'
p232
sg6
S'gray'
p233
sg8
(lp234
sg10
S'Likely'
p235
sg12
S'Many'
p236
sg14
g66
sg16
I0
sg17
S'High'
p237
sg19
S'Stor tilleggsbelastning'
p238
sg21
Nsg22
S'100'
p239
sg24
S'1600'
p240
sg26
S'Mange bratte heng'
p241
sg28
Nsg29
g30
sg31
S'1 - Harmloest'
p242
sba(irunmatrix
M3Element
p243
(dp244
g3
Nsg4
S'Sannsynlig, Meget sannsynlig'
p245
sg6
S'white'
p246
sg8
(lp247
sg10
S'Likely'
p248
sg12
S'Many'
p249
sg14
S'#ffff00'
p250
sg16
I2
sg17
S'Low'
p251
sg19
S'Liten tilleggsbelastning'
p252
sg21
Nsg22
S'100'
p253
sg24
S'1700'
p254
sg26
S'Mange bratte heng'
p255
sg28
Nsg29
g30
sg31
S'1 - Harmloest'
p256
sba(irunmatrix
M3Element
p257
(dp258
g3
Nsg4
S'Sannsynlig, Meget sannsynlig'
p259
sg6
S'white'
p260
sg8
(lp261
sg10
S'Likely'
p262
sg12
S'Many'
p263
sg14
g250
sg16
I2
sg17
S'Nat'
p264
sg19
S'Naturlig utloest'
p265
sg21
Nsg22
S'100'
p266
sg24
S'1800'
p267
sg26
S'Mange bratte heng'
p268
sg28
Nsg29
g30
sg31
S'1 - Harmloest'
p269
sba(irunmatrix
M3Element
p270
(dp271
g3
Nsg4
S'Lite sannsynlig, Mulig'
p272
sg6
S'gray'
p273
sg8
(lp274
sg10
S'Possible'
p275
sg12
S'Most'
p276
sg14
g66
sg16
I0
sg17
S'High'
p277
sg19
S'Stor tilleggsbelastning'
p278
sg21
Nsg22
S'100'
p279
sg24
S'1900'
p280
sg26
S'De fleste bratte heng, Ogsaa i mindre bratt terreng'
p281
sg28
Nsg29
g30
sg31
S'1 - Harmloest'
p282
sba(irunmatrix
M3Element
p283
(dp284
g3
Nsg4
S'Lite sannsynlig, Mulig'
p285
sg6
S'gray'
p286
sg8
(lp287
sg10
S'Possible'
p288
sg12
S'Most'
p289
sg14
g66
sg16
I0
sg17
S'Low'
p290
sg19
S'Liten tilleggsbelastning'
p291
sg21
Nsg22
S'100'
p292
sg24
S'2000'
p293
sg26
S'De fleste bratte heng, Ogsaa i mindre bratt terreng'
p294
sg28
Nsg29
g30
sg31
S'1 - Harmloest'
p295
sba(irunmatrix
M3Element
p296
(dp297
g3
Nsg4
S'Lite sannsynlig, Mulig'
p298
sg6
S'gray'
p299
sg8
(lp300
sg10
S'Possible'
p301
sg12
S'Most'
p302
sg14
g66
sg16
I0
sg17
S'Nat'
p303
sg19
S'Naturlig utloest'
p304
sg21
Nsg22
S'100'
p305
sg24
S'2100'
p306
sg26
S'De fleste bratte heng, Ogsaa i mindre bratt terreng'
p307
sg28
Nsg29
g30
sg31
S'1 - Harmloest'
p308
sba(irunmatrix
M3Element
p309
(dp310
g3
Nsg4
S'Sannsynlig, Meget sannsynlig'
p311
sg6
S'gray'
p312
sg8
(lp313
sg10
S'Likely'
p314
sg12
S'Most'
p315
sg14
g66
sg16
I0
sg17
S'High'
p316
sg19
S'Stor tilleggsbelastning'
p317
sg21
Nsg22
S'100'
p318
sg24
S'2200'
p319
sg26
S'De fleste bratte heng, Ogsaa i mindre bratt terreng'
p320
sg28
Nsg29
g30
sg31
S'1 - Harmloest'
p321
sba(irunmatrix
M3Element
p322
(dp323
g3
Nsg4
S'Sannsynlig, Meget sannsynlig'
p324
sg6
S'gray'
p325
sg8
(lp326
sg10
S'Likely'
p327
sg12
S'Most'
p328
sg14
g66
sg16
I0
sg17
S'Low'
p329
sg19
S'Liten tilleggsbelastning'
p330
sg21
Nsg22
S'100'
p331
sg24
S'2300'
p332
sg26
S'De fleste bratte heng, Ogsaa i mindre bratt terreng'
p333
sg28
Nsg29
g30
sg31
S'1 - Harmloest'
p334
sba(irunmatrix
M3Element
p335
(dp336
g3
Nsg4
S'Sannsynlig, Meget sannsynlig'
p337
sg6
S'white'
p338
sg8
(lp339
sg10
S'Likely'
p340
sg12
S'Most'
p341
sg14
g66
sg16
I0
sg17
S'Nat'
p342
sg19
S'Naturlig utloest'
p343
sg21
Nsg22
S'100'
p344
sg24
S'2400'
p345
sg26
S'De fleste bratte heng, Ogsaa i mindre bratt terreng'
p346
sg28
Nsg29
S'2'
p347
sg31
S'1 - Harmloest'
p348
sba(irunmatrix
M3Element
p349
(dp350
g3
F1.0
sg4
S'Lite sannsynlig, Mulig'
p351
sg6
g115
sg8
(lp352
I1
asg10
S'Possible'
p353
sg12
S'Isolated'
p354
sg14
g15
sg16
I1
sg17
S'High'
p355
sg19
S'Stor tilleggsbelastning'
p356
sg21
I1
sg22
S'200'
p357
sg24
S'100'
p358
sg26
S'Isolerte faresoner'
p359
sg28
g124
(g128
S'\x00\x00\x00\x00\x00\x00\x00\x00'
p360
tp361
Rp362
sg29
g347
sg31
S'2 - Smaa'
p363
sba(irunmatrix
M3Element
p364
(dp365
g3
F1.4583333333333333
sg4
S'Lite sannsynlig, Mulig'
p366
sg6
g115
sg8
(lp367
I2
aI2
aI2
aI2
aI2
aI2
aI2
aI2
aI2
aI2
aI2
aI1
aI1
aI1
aI1
aI1
aI1
aI1
aI1
aI1
aI1
aI1
aI1
aI1
asg10
S'Possible'
p368
sg12
S'Isolated'
p369
sg14
g15
sg16
I1
sg17
S'Low'
p370
sg19
S'Liten tilleggsbelastning'
p371
sg21
I24
sg22
S'200'
p372
sg24
S'200'
p373
sg26
S'Isolerte faresoner'
p374
sg28
g124
(g128
S'Z\xc3A\x89\x81\xe3\xdf?'
p375
tp376
Rp377
sg29
g347
sg31
S'2 - Smaa'
p378
sba(irunmatrix
M3Element
p379
(dp380
g3
F2.0
sg4
S'Lite sannsynlig, Mulig'
p381
sg6
S'#ffff00'
p382
sg8
(lp383
I2
asg10
S'Possible'
p384
sg12
S'Isolated'
p385
sg14
g15
sg16
I1
sg17
S'Nat'
p386
sg19
S'Naturlig utloest'
p387
sg21
I1
sg22
S'200'
p388
sg24
S'300'
p389
sg26
S'Isolerte faresoner'
p390
sg28
g124
(g128
S'\x00\x00\x00\x00\x00\x00\x00\x00'
p391
tp392
Rp393
sg29
g347
sg31
S'2 - Smaa'
p394
sba(irunmatrix
M3Element
p395
(dp396
g3
Nsg4
S'Sannsynlig, Meget sannsynlig'
p397
sg6
S'gray'
p398
sg8
(lp399
sg10
S'Likely'
p400
sg12
S'Isolated'
p401
sg14
g66
sg16
I0
sg17
S'High'
p402
sg19
S'Stor tilleggsbelastning'
p403
sg21
Nsg22
S'200'
p404
sg24
S'400'
p405
sg26
S'Isolerte faresoner'
p406
sg28
Nsg29
g347
sg31
S'2 - Smaa'
p407
sba(irunmatrix
M3Element
p408
(dp409
g3
Nsg4
S'Sannsynlig, Meget sannsynlig'
p410
sg6
S'gray'
p411
sg8
(lp412
sg10
S'Likely'
p413
sg12
S'Isolated'
p414
sg14
g66
sg16
I0
sg17
S'Low'
p415
sg19
S'Liten tilleggsbelastning'
p416
sg21
Nsg22
S'200'
p417
sg24
S'500'
p418
sg26
S'Isolerte faresoner'
p419
sg28
Nsg29
g347
sg31
S'2 - Smaa'
p420
sba(irunmatrix
M3Element
p421
(dp422
g3
Nsg4
S'Sannsynlig, Meget sannsynlig'
p423
sg6
S'gray'
p424
sg8
(lp425
sg10
S'Likely'
p426
sg12
S'Isolated'
p427
sg14
g66
sg16
I0
sg17
S'Nat'
p428
sg19
S'Naturlig utloest'
p429
sg21
Nsg22
S'200'
p430
sg24
S'600'
p431
sg26
S'Isolerte faresoner'
p432
sg28
Nsg29
g347
sg31
S'2 - Smaa'
p433
sba(irunmatrix
M3Element
p434
(dp435
g3
F2.0
sg4
S'Lite sannsynlig, Mulig'
p436
sg6
g382
sg8
(lp437
I2
aI2
aI2
aI2
aI2
aI2
aI2
aI2
aI2
aI2
aI2
aI2
aI2
aI2
aI2
aI2
aI2
aI2
aI2
aI2
aI2
aI2
aI2
asg10
S'Possible'
p438
sg12
S'Some'
p439
sg14
g250
sg16
I2
sg17
S'High'
p440
sg19
S'Stor tilleggsbelastning'
p441
sg21
I23
sg22
S'200'
p442
sg24
S'700'
p443
sg26
S'Noen bratte heng'
p444
sg28
g124
(g128
S'\x00\x00\x00\x00\x00\x00\x00\x00'
p445
tp446
Rp447
sg29
g347
sg31
S'2 - Smaa'
p448
sba(irunmatrix
M3Element
p449
(dp450
g3
F2.0
sg4
S'Lite sannsynlig, Mulig'
p451
sg6
g382
sg8
(lp452
I2
aI2
aI2
aI2
aI2
aI2
aI2
aI2
aI2
aI2
aI2
aI2
aI2
aI2
aI2
aI2
aI2
aI2
aI2
aI2
aI2
aI2
aI2
aI2
aI2
aI2
aI2
aI2
aI2
aI2
aI2
aI2
aI2
aI2
aI2
aI2
aI2
aI2
aI2
aI2
aI2
aI2
aI2
aI2
aI2
aI2
aI2
asg10
S'Possible'
p453
sg12
S'Some'
p454
sg14
g250
sg16
I2
sg17
S'Low'
p455
sg19
S'Liten tilleggsbelastning'
p456
sg21
I47
sg22
S'200'
p457
sg24
S'800'
p458
sg26
S'Noen bratte heng'
p459
sg28
g124
(g128
S'\x00\x00\x00\x00\x00\x00\x00\x00'
p460
tp461
Rp462
sg29
g347
sg31
S'2 - Smaa'
p463
sba(irunmatrix
M3Element
p464
(dp465
g3
Nsg4
S'Lite sannsynlig, Mulig'
p466
sg6
S'white'
p467
sg8
(lp468
sg10
S'Possible'
p469
sg12
S'Some'
p470
sg14
g250
sg16
I2
sg17
S'Nat'
p471
sg19
S'Naturlig utloest'
p472
sg21
Nsg22
S'200'
p473
sg24
S'900'
p474
sg26
S'Noen bratte heng'
p475
sg28
Nsg29
g347
sg31
S'2 - Smaa'
p476
sba(irunmatrix
M3Element
p477
(dp478
g3
Nsg4
S'Sannsynlig, Meget sannsynlig'
p479
sg6
S'gray'
p480
sg8
(lp481
sg10
S'Likely'
p482
sg12
S'Some'
p483
sg14
g66
sg16
I0
sg17
S'High'
p484
sg19
S'Stor tilleggsbelastning'
p485
sg21
Nsg22
S'200'
p486
sg24
S'1000'
p487
sg26
S'Noen bratte heng'
p488
sg28
Nsg29
g347
sg31
S'2 - Smaa'
p489
sba(irunmatrix
M3Element
p490
(dp491
g3
Nsg4
S'Sannsynlig, Meget sannsynlig'
p492
sg6
S'gray'
p493
sg8
(lp494
sg10
S'Likely'
p495
sg12
S'Some'
p496
sg14
g66
sg16
I0
sg17
S'Low'
p497
sg19
S'Liten tilleggsbelastning'
p498
sg21
Nsg22
S'200'
p499
sg24
S'1100'
p500
sg26
S'Noen bratte heng'
p501
sg28
Nsg29
g347
sg31
S'2 - Smaa'
p502
sba(irunmatrix
M3Element
p503
(dp504
g3
Nsg4
S'Sannsynlig, Meget sannsynlig'
p505
sg6
S'white'
p506
sg8
(lp507
sg10
S'Likely'
p508
sg12
S'Some'
p509
sg14
S'#ff9900'
p510
sg16
I3
sg17
S'Nat'
p511
sg19
S'Naturlig utloest'
p512
sg21
Nsg22
S'200'
p513
sg24
S'1200'
p514
sg26
S'Noen bratte heng'
p515
sg28
Nsg29
g347
sg31
S'2 - Smaa'
p516
sba(irunmatrix
M3Element
p517
(dp518
g3
Nsg4
S'Lite sannsynlig, Mulig'
p519
sg6
S'gray'
p520
sg8
(lp521
sg10
S'Possible'
p522
sg12
S'Many'
p523
sg14
g66
sg16
I0
sg17
S'High'
p524
sg19
S'Stor tilleggsbelastning'
p525
sg21
Nsg22
S'200'
p526
sg24
S'1300'
p527
sg26
S'Mange bratte heng'
p528
sg28
Nsg29
g347
sg31
S'2 - Smaa'
p529
sba(irunmatrix
M3Element
p530
(dp531
g3
F3.0
sg4
S'Lite sannsynlig, Mulig'
p532
sg6
S'#ff9900'
p533
sg8
(lp534
I3
aI3
aI3
asg10
S'Possible'
p535
sg12
S'Many'
p536
sg14
g510
sg16
I3
sg17
S'Low'
p537
sg19
S'Liten tilleggsbelastning'
p538
sg21
I3
sg22
S'200'
p539
sg24
S'1400'
p540
sg26
S'Mange bratte heng'
p541
sg28
g124
(g128
S'\x00\x00\x00\x00\x00\x00\x00\x00'
p542
tp543
Rp544
sg29
g347
sg31
S'2 - Smaa'
p545
sba(irunmatrix
M3Element
p546
(dp547
g3
Nsg4
S'Lite sannsynlig, Mulig'
p548
sg6
S'gray'
p549
sg8
(lp550
sg10
S'Possible'
p551
sg12
S'Many'
p552
sg14
g66
sg16
I0
sg17
S'Nat'
p553
sg19
S'Naturlig utloest'
p554
sg21
Nsg22
S'200'
p555
sg24
S'1500'
p556
sg26
S'Mange bratte heng'
p557
sg28
Nsg29
g347
sg31
S'2 - Smaa'
p558
sba(irunmatrix
M3Element
p559
(dp560
g3
Nsg4
S'Sannsynlig, Meget sannsynlig'
p561
sg6
S'gray'
p562
sg8
(lp563
sg10
S'Likely'
p564
sg12
S'Many'
p565
sg14
g66
sg16
I0
sg17
S'High'
p566
sg19
S'Stor tilleggsbelastning'
p567
sg21
Nsg22
S'200'
p568
sg24
S'1600'
p569
sg26
S'Mange bratte heng'
p570
sg28
Nsg29
g347
sg31
S'2 - Smaa'
p571
sba(irunmatrix
M3Element
p572
(dp573
g3
Nsg4
S'Sannsynlig, Meget sannsynlig'
p574
sg6
S'white'
p575
sg8
(lp576
sg10
S'Likely'
p577
sg12
S'Many'
p578
sg14
S'#ff0000'
p579
sg16
I4
sg17
S'Low'
p580
sg19
S'Liten tilleggsbelastning'
p581
sg21
Nsg22
S'200'
p582
sg24
S'1700'
p583
sg26
S'Mange bratte heng'
p584
sg28
Nsg29
g347
sg31
S'2 - Smaa'
p585
sba(irunmatrix
M3Element
p586
(dp587
g3
Nsg4
S'Sannsynlig, Meget sannsynlig'
p588
sg6
S'white'
p589
sg8
(lp590
sg10
S'Likely'
p591
sg12
S'Many'
p592
sg14
g579
sg16
I4
sg17
S'Nat'
p593
sg19
S'Naturlig utloest'
p594
sg21
Nsg22
S'200'
p595
sg24
S'1800'
p596
sg26
S'Mange bratte heng'
p597
sg28
Nsg29
g347
sg31
S'2 - Smaa'
p598
sba(irunmatrix
M3Element
p599
(dp600
g3
Nsg4
S'Lite sannsynlig, Mulig'
p601
sg6
S'gray'
p602
sg8
(lp603
sg10
S'Possible'
p604
sg12
S'Most'
p605
sg14
g66
sg16
I0
sg17
S'High'
p606
sg19
S'Stor tilleggsbelastning'
p607
sg21
Nsg22
S'200'
p608
sg24
S'1900'
p609
sg26
S'De fleste bratte heng, Ogsaa i mindre bratt terreng'
p610
sg28
Nsg29
g347
sg31
S'2 - Smaa'
p611
sba(irunmatrix
M3Element
p612
(dp613
g3
Nsg4
S'Lite sannsynlig, Mulig'
p614
sg6
S'gray'
p615
sg8
(lp616
sg10
S'Possible'
p617
sg12
S'Most'
p618
sg14
g66
sg16
I0
sg17
S'Low'
p619
sg19
S'Liten tilleggsbelastning'
p620
sg21
Nsg22
S'200'
p621
sg24
S'2000'
p622
sg26
S'De fleste bratte heng, Ogsaa i mindre bratt terreng'
p623
sg28
Nsg29
g347
sg31
S'2 - Smaa'
p624
sba(irunmatrix
M3Element
p625
(dp626
g3
Nsg4
S'Lite sannsynlig, Mulig'
p627
sg6
S'gray'
p628
sg8
(lp629
sg10
S'Possible'
p630
sg12
S'Most'
p631
sg14
g66
sg16
I0
sg17
S'Nat'
p632
sg19
S'Naturlig utloest'
p633
sg21
Nsg22
S'200'
p634
sg24
S'2100'
p635
sg26
S'De fleste bratte heng, Ogsaa i mindre bratt terreng'
p636
sg28
Nsg29
g347
sg31
S'2 - Smaa'
p637
sba(irunmatrix
M3Element
p638
(dp639
g3
Nsg4
S'Sannsynlig, Meget sannsynlig'
p640
sg6
S'gray'
p641
sg8
(lp642
sg10
S'Likely'
p643
sg12
S'Most'
p644
sg14
g66
sg16
I0
sg17
S'High'
p645
sg19
S'Stor tilleggsbelastning'
p646
sg21
Nsg22
S'200'
p647
sg24
S'2200'
p648
sg26
S'De fleste bratte heng, Ogsaa i mindre bratt terreng'
p649
sg28
Nsg29
g347
sg31
S'2 - Smaa'
p650
sba(irunmatrix
M3Element
p651
(dp652
g3
Nsg4
S'Sannsynlig, Meget sannsynlig'
p653
sg6
S'gray'
p654
sg8
(lp655
sg10
S'Likely'
p656
sg12
S'Most'
p657
sg14
g66
sg16
I0
sg17
S'Low'
p658
sg19
S'Liten tilleggsbelastning'
p659
sg21
Nsg22
S'200'
p660
sg24
S'2300'
p661
sg26
S'De fleste bratte heng, Ogsaa i mindre bratt terreng'
p662
sg28
Nsg29
g347
sg31
S'2 - Smaa'
p663
sba(irunmatrix
M3Element
p664
(dp665
g3
Nsg4
S'Sannsynlig, Meget sannsynlig'
p666
sg6
S'white'
p667
sg8
(lp668
sg10
S'Likely'
p669
sg12
S'Most'
p670
sg14
g66
sg16
I0
sg17
S'Nat'
p671
sg19
S'Naturlig utloest'
p672
sg21
Nsg22
S'200'
p673
sg24
S'2400'
p674
sg26
S'De fleste bratte heng, Ogsaa i mindre bratt terreng'
p675
sg28
Nsg29
g347
sg31
S'2 - Smaa'
p676
sba(irunmatrix
M3Element
p677
(dp678
g3
Nsg4
S'Lite sannsynlig, Mulig'
p679
sg6
S'white'
p680
sg8
(lp681
sg10
S'Possible'
p682
sg12
S'Isolated'
p683
sg14
g15
sg16
I1
sg17
S'High'
p684
sg19
S'Stor tilleggsbelastning'
p685
sg21
Nsg22
S'300'
p686
sg24
S'100'
p687
sg26
S'Isolerte faresoner'
p688
sg28
Nsg29
S'3'
p689
sg31
S'3 - Middels'
p690
sba(irunmatrix
M3Element
p691
(dp692
g3
Nsg4
S'Lite sannsynlig, Mulig'
p693
sg6
S'white'
p694
sg8
(lp695
sg10
S'Possible'
p696
sg12
S'Isolated'
p697
sg14
g250
sg16
I2
sg17
S'Low'
p698
sg19
S'Liten tilleggsbelastning'
p699
sg21
Nsg22
S'300'
p700
sg24
S'200'
p701
sg26
S'Isolerte faresoner'
p702
sg28
Nsg29
g689
sg31
S'3 - Middels'
p703
sba(irunmatrix
M3Element
p704
(dp705
g3
Nsg4
S'Lite sannsynlig, Mulig'
p706
sg6
S'white'
p707
sg8
(lp708
sg10
S'Possible'
p709
sg12
S'Isolated'
p710
sg14
g250
sg16
I2
sg17
S'Nat'
p711
sg19
S'Naturlig utloest'
p712
sg21
Nsg22
S'300'
p713
sg24
S'300'
p714
sg26
S'Isolerte faresoner'
p715
sg28
Nsg29
g689
sg31
S'3 - Middels'
p716
sba(irunmatrix
M3Element
p717
(dp718
g3
Nsg4
S'Sannsynlig, Meget sannsynlig'
p719
sg6
S'gray'
p720
sg8
(lp721
sg10
S'Likely'
p722
sg12
S'Isolated'
p723
sg14
g66
sg16
I0
sg17
S'High'
p724
sg19
S'Stor tilleggsbelastning'
p725
sg21
Nsg22
S'300'
p726
sg24
S'400'
p727
sg26
S'Isolerte faresoner'
p728
sg28
Nsg29
g689
sg31
S'3 - Middels'
p729
sba(irunmatrix
M3Element
p730
(dp731
g3
Nsg4
S'Sannsynlig, Meget sannsynlig'
p732
sg6
S'gray'
p733
sg8
(lp734
sg10
S'Likely'
p735
sg12
S'Isolated'
p736
sg14
g66
sg16
I0
sg17
S'Low'
p737
sg19
S'Liten tilleggsbelastning'
p738
sg21
Nsg22
S'300'
p739
sg24
S'500'
p740
sg26
S'Isolerte faresoner'
p741
sg28
Nsg29
g689
sg31
S'3 - Middels'
p742
sba(irunmatrix
M3Element
p743
(dp744
g3
Nsg4
S'Sannsynlig, Meget sannsynlig'
p745
sg6
S'gray'
p746
sg8
(lp747
sg10
S'Likely'
p748
sg12
S'Isolated'
p749
sg14
g66
sg16
I0
sg17
S'Nat'
p750
sg19
S'Naturlig utloest'
p751
sg21
Nsg22
S'300'
p752
sg24
S'600'
p753
sg26
S'Isolerte faresoner'
p754
sg28
Nsg29
g689
sg31
S'3 - Middels'
p755
sba(irunmatrix
M3Element
p756
(dp757
g3
Nsg4
S'Lite sannsynlig, Mulig'
p758
sg6
S'white'
p759
sg8
(lp760
sg10
S'Possible'
p761
sg12
S'Some'
p762
sg14
g250
sg16
I2
sg17
S'High'
p763
sg19
S'Stor tilleggsbelastning'
p764
sg21
Nsg22
S'300'
p765
sg24
S'700'
p766
sg26
S'Noen bratte heng'
p767
sg28
Nsg29
g689
sg31
S'3 - Middels'
p768
sba(irunmatrix
M3Element
p769
(dp770
g3
F3.0
sg4
S'Lite sannsynlig, Mulig'
p771
sg6
g533
sg8
(lp772
I3
aI3
aI3
aI3
aI3
aI3
asg10
S'Possible'
p773
sg12
S'Some'
p774
sg14
g510
sg16
I3
sg17
S'Low'
p775
sg19
S'Liten tilleggsbelastning'
p776
sg21
I6
sg22
S'300'
p777
sg24
S'800'
p778
sg26
S'Noen bratte heng'
p779
sg28
g124
(g128
S'\x00\x00\x00\x00\x00\x00\x00\x00'
p780
tp781
Rp782
sg29
g689
sg31
S'3 - Middels'
p783
sba(irunmatrix
M3Element
p784
(dp785
g3
Nsg4
S'Lite sannsynlig, Mulig'
p786
sg6
S'white'
p787
sg8
(lp788
sg10
S'Possible'
p789
sg12
S'Some'
p790
sg14
g510
sg16
I3
sg17
S'Nat'
p791
sg19
S'Naturlig utloest'
p792
sg21
Nsg22
S'300'
p793
sg24
S'900'
p794
sg26
S'Noen bratte heng'
p795
sg28
Nsg29
g689
sg31
S'3 - Middels'
p796
sba(irunmatrix
M3Element
p797
(dp798
g3
Nsg4
S'Sannsynlig, Meget sannsynlig'
p799
sg6
S'gray'
p800
sg8
(lp801
sg10
S'Likely'
p802
sg12
S'Some'
p803
sg14
g66
sg16
I0
sg17
S'High'
p804
sg19
S'Stor tilleggsbelastning'
p805
sg21
Nsg22
S'300'
p806
sg24
S'1000'
p807
sg26
S'Noen bratte heng'
p808
sg28
Nsg29
g689
sg31
S'3 - Middels'
p809
sba(irunmatrix
M3Element
p810
(dp811
g3
Nsg4
S'Sannsynlig, Meget sannsynlig'
p812
sg6
S'gray'
p813
sg8
(lp814
sg10
S'Likely'
p815
sg12
S'Some'
p816
sg14
g66
sg16
I0
sg17
S'Low'
p817
sg19
S'Liten tilleggsbelastning'
p818
sg21
Nsg22
S'300'
p819
sg24
S'1100'
p820
sg26
S'Noen bratte heng'
p821
sg28
Nsg29
g689
sg31
S'3 - Middels'
p822
sba(irunmatrix
M3Element
p823
(dp824
g3
Nsg4
S'Sannsynlig, Meget sannsynlig'
p825
sg6
S'white'
p826
sg8
(lp827
sg10
S'Likely'
p828
sg12
S'Some'
p829
sg14
g579
sg16
I4
sg17
S'Nat'
p830
sg19
S'Naturlig utloest'
p831
sg21
Nsg22
S'300'
p832
sg24
S'1200'
p833
sg26
S'Noen bratte heng'
p834
sg28
Nsg29
g689
sg31
S'3 - Middels'
p835
sba(irunmatrix
M3Element
p836
(dp837
g3
Nsg4
S'Lite sannsynlig, Mulig'
p838
sg6
S'gray'
p839
sg8
(lp840
sg10
S'Possible'
p841
sg12
S'Many'
p842
sg14
g66
sg16
I0
sg17
S'High'
p843
sg19
S'Stor tilleggsbelastning'
p844
sg21
Nsg22
S'300'
p845
sg24
S'1300'
p846
sg26
S'Mange bratte heng'
p847
sg28
Nsg29
g689
sg31
S'3 - Middels'
p848
sba(irunmatrix
M3Element
p849
(dp850
g3
Nsg4
S'Lite sannsynlig, Mulig'
p851
sg6
S'white'
p852
sg8
(lp853
sg10
S'Possible'
p854
sg12
S'Many'
p855
sg14
g579
sg16
I4
sg17
S'Low'
p856
sg19
S'Liten tilleggsbelastning'
p857
sg21
Nsg22
S'300'
p858
sg24
S'1400'
p859
sg26
S'Mange bratte heng'
p860
sg28
Nsg29
g689
sg31
S'3 - Middels'
p861
sba(irunmatrix
M3Element
p862
(dp863
g3
Nsg4
S'Lite sannsynlig, Mulig'
p864
sg6
S'gray'
p865
sg8
(lp866
sg10
S'Possible'
p867
sg12
S'Many'
p868
sg14
g66
sg16
I0
sg17
S'Nat'
p869
sg19
S'Naturlig utloest'
p870
sg21
Nsg22
S'300'
p871
sg24
S'1500'
p872
sg26
S'Mange bratte heng'
p873
sg28
Nsg29
g689
sg31
S'3 - Middels'
p874
sba(irunmatrix
M3Element
p875
(dp876
g3
Nsg4
S'Sannsynlig, Meget sannsynlig'
p877
sg6
S'gray'
p878
sg8
(lp879
sg10
S'Likely'
p880
sg12
S'Many'
p881
sg14
g66
sg16
I0
sg17
S'High'
p882
sg19
S'Stor tilleggsbelastning'
p883
sg21
Nsg22
S'300'
p884
sg24
S'1600'
p885
sg26
S'Mange bratte heng'
p886
sg28
Nsg29
g689
sg31
S'3 - Middels'
p887
sba(irunmatrix
M3Element
p888
(dp889
g3
Nsg4
S'Sannsynlig, Meget sannsynlig'
p890
sg6
S'white'
p891
sg8
(lp892
sg10
S'Likely'
p893
sg12
S'Many'
p894
sg14
g579
sg16
I4
sg17
S'Low'
p895
sg19
S'Liten tilleggsbelastning'
p896
sg21
Nsg22
S'300'
p897
sg24
S'1700'
p898
sg26
S'Mange bratte heng'
p899
sg28
Nsg29
g689
sg31
S'3 - Middels'
p900
sba(irunmatrix
M3Element
p901
(dp902
g3
Nsg4
S'Sannsynlig, Meget sannsynlig'
p903
sg6
S'white'
p904
sg8
(lp905
sg10
S'Likely'
p906
sg12
S'Many'
p907
sg14
g579
sg16
I4
sg17
S'Nat'
p908
sg19
S'Naturlig utloest'
p909
sg21
Nsg22
S'300'
p910
sg24
S'1800'
p911
sg26
S'Mange bratte heng'
p912
sg28
Nsg29
g689
sg31
S'3 - Middels'
p913
sba(irunmatrix
M3Element
p914
(dp915
g3
Nsg4
S'Lite sannsynlig, Mulig'
p916
sg6
S'gray'
p917
sg8
(lp918
sg10
S'Possible'
p919
sg12
S'Most'
p920
sg14
g66
sg16
I0
sg17
S'High'
p921
sg19
S'Stor tilleggsbelastning'
p922
sg21
Nsg22
S'300'
p923
sg24
S'1900'
p924
sg26
S'De fleste bratte heng, Ogsaa i mindre bratt terreng'
p925
sg28
Nsg29
g689
sg31
S'3 - Middels'
p926
sba(irunmatrix
M3Element
p927
(dp928
g3
Nsg4
S'Lite sannsynlig, Mulig'
p929
sg6
S'gray'
p930
sg8
(lp931
sg10
S'Possible'
p932
sg12
S'Most'
p933
sg14
g66
sg16
I0
sg17
S'Low'
p934
sg19
S'Liten tilleggsbelastning'
p935
sg21
Nsg22
S'300'
p936
sg24
S'2000'
p937
sg26
S'De fleste bratte heng, Ogsaa i mindre bratt terreng'
p938
sg28
Nsg29
g689
sg31
S'3 - Middels'
p939
sba(irunmatrix
M3Element
p940
(dp941
g3
Nsg4
S'Lite sannsynlig, Mulig'
p942
sg6
S'gray'
p943
sg8
(lp944
sg10
S'Possible'
p945
sg12
S'Most'
p946
sg14
g66
sg16
I0
sg17
S'Nat'
p947
sg19
S'Naturlig utloest'
p948
sg21
Nsg22
S'300'
p949
sg24
S'2100'
p950
sg26
S'De fleste bratte heng, Ogsaa i mindre bratt terreng'
p951
sg28
Nsg29
g689
sg31
S'3 - Middels'
p952
sba(irunmatrix
M3Element
p953
(dp954
g3
Nsg4
S'Sannsynlig, Meget sannsynlig'
p955
sg6
S'gray'
p956
sg8
(lp957
sg10
S'Likely'
p958
sg12
S'Most'
p959
sg14
g66
sg16
I0
sg17
S'High'
p960
sg19
S'Stor tilleggsbelastning'
p961
sg21
Nsg22
S'300'
p962
sg24
S'2200'
p963
sg26
S'De fleste bratte heng, Ogsaa i mindre bratt terreng'
p964
sg28
Nsg29
g689
sg31
S'3 - Middels'
p965
sba(irunmatrix
M3Element
p966
(dp967
g3
Nsg4
S'Sannsynlig, Meget sannsynlig'
p968
sg6
S'gray'
p969
sg8
(lp970
sg10
S'Likely'
p971
sg12
S'Most'
p972
sg14
g66
sg16
I0
sg17
S'Low'
p973
sg19
S'Liten tilleggsbelastning'
p974
sg21
Nsg22
S'300'
p975
sg24
S'2300'
p976
sg26
S'De fleste bratte heng, Ogsaa i mindre bratt terreng'
p977
sg28
Nsg29
g689
sg31
S'3 - Middels'
p978
sba(irunmatrix
M3Element
p979
(dp980
g3
Nsg4
S'Sannsynlig, Meget sannsynlig'
p981
sg6
S'white'
p982
sg8
(lp983
sg10
S'Likely'
p984
sg12
S'Most'
p985
sg14
g66
sg16
I0
sg17
S'Nat'
p986
sg19
S'Naturlig utloest'
p987
sg21
Nsg22
S'300'
p988
sg24
S'2400'
p989
sg26
S'De fleste bratte heng, Ogsaa i mindre bratt terreng'
p990
sg28
Nsg29
g689
sg31
S'3 - Middels'
p991
sba(irunmatrix
M3Element
p992
(dp993
g3
Nsg4
S'Lite sannsynlig, Mulig'
p994
sg6
S'white'
p995
sg8
(lp996
sg10
S'Possible'
p997
sg12
S'Isolated'
p998
sg14
g250
sg16
I2
sg17
S'High'
p999
sg19
S'Stor tilleggsbelastning'
p1000
sg21
Nsg22
S'400'
p1001
sg24
S'100'
p1002
sg26
S'Isolerte faresoner'
p1003
sg28
Nsg29
S'4'
p1004
sg31
S'4 - Store'
p1005
sba(irunmatrix
M3Element
p1006
(dp1007
g3
Nsg4
S'Lite sannsynlig, Mulig'
p1008
sg6
S'white'
p1009
sg8
(lp1010
sg10
S'Possible'
p1011
sg12
S'Isolated'
p1012
sg14
g510
sg16
I3
sg17
S'Low'
p1013
sg19
S'Liten tilleggsbelastning'
p1014
sg21
Nsg22
S'400'
p1015
sg24
S'200'
p1016
sg26
S'Isolerte faresoner'
p1017
sg28
Nsg29
g1004
sg31
S'4 - Store'
p1018
sba(irunmatrix
M3Element
p1019
(dp1020
g3
Nsg4
S'Lite sannsynlig, Mulig'
p1021
sg6
S'white'
p1022
sg8
(lp1023
sg10
S'Possible'
p1024
sg12
S'Isolated'
p1025
sg14
g510
sg16
I3
sg17
S'Nat'
p1026
sg19
S'Naturlig utloest'
p1027
sg21
Nsg22
S'400'
p1028
sg24
S'300'
p1029
sg26
S'Isolerte faresoner'
p1030
sg28
Nsg29
g1004
sg31
S'4 - Store'
p1031
sba(irunmatrix
M3Element
p1032
(dp1033
g3
Nsg4
S'Sannsynlig, Meget sannsynlig'
p1034
sg6
S'gray'
p1035
sg8
(lp1036
sg10
S'Likely'
p1037
sg12
S'Isolated'
p1038
sg14
g66
sg16
I0
sg17
S'High'
p1039
sg19
S'Stor tilleggsbelastning'
p1040
sg21
Nsg22
S'400'
p1041
sg24
S'400'
p1042
sg26
S'Isolerte faresoner'
p1043
sg28
Nsg29
g1004
sg31
S'4 - Store'
p1044
sba(irunmatrix
M3Element
p1045
(dp1046
g3
Nsg4
S'Sannsynlig, Meget sannsynlig'
p1047
sg6
S'gray'
p1048
sg8
(lp1049
sg10
S'Likely'
p1050
sg12
S'Isolated'
p1051
sg14
g66
sg16
I0
sg17
S'Low'
p1052
sg19
S'Liten tilleggsbelastning'
p1053
sg21
Nsg22
S'400'
p1054
sg24
S'500'
p1055
sg26
S'Isolerte faresoner'
p1056
sg28
Nsg29
g1004
sg31
S'4 - Store'
p1057
sba(irunmatrix
M3Element
p1058
(dp1059
g3
Nsg4
S'Sannsynlig, Meget sannsynlig'
p1060
sg6
S'gray'
p1061
sg8
(lp1062
sg10
S'Likely'
p1063
sg12
S'Isolated'
p1064
sg14
g66
sg16
I0
sg17
S'Nat'
p1065
sg19
S'Naturlig utloest'
p1066
sg21
Nsg22
S'400'
p1067
sg24
S'600'
p1068
sg26
S'Isolerte faresoner'
p1069
sg28
Nsg29
g1004
sg31
S'4 - Store'
p1070
sba(irunmatrix
M3Element
p1071
(dp1072
g3
Nsg4
S'Lite sannsynlig, Mulig'
p1073
sg6
S'white'
p1074
sg8
(lp1075
sg10
S'Possible'
p1076
sg12
S'Some'
p1077
sg14
g510
sg16
I3
sg17
S'High'
p1078
sg19
S'Stor tilleggsbelastning'
p1079
sg21
Nsg22
S'400'
p1080
sg24
S'700'
p1081
sg26
S'Noen bratte heng'
p1082
sg28
Nsg29
g1004
sg31
S'4 - Store'
p1083
sba(irunmatrix
M3Element
p1084
(dp1085
g3
Nsg4
S'Lite sannsynlig, Mulig'
p1086
sg6
S'white'
p1087
sg8
(lp1088
sg10
S'Possible'
p1089
sg12
S'Some'
p1090
sg14
g579
sg16
I4
sg17
S'Low'
p1091
sg19
S'Liten tilleggsbelastning'
p1092
sg21
Nsg22
S'400'
p1093
sg24
S'800'
p1094
sg26
S'Noen bratte heng'
p1095
sg28
Nsg29
g1004
sg31
S'4 - Store'
p1096
sba(irunmatrix
M3Element
p1097
(dp1098
g3
Nsg4
S'Lite sannsynlig, Mulig'
p1099
sg6
S'white'
p1100
sg8
(lp1101
sg10
S'Possible'
p1102
sg12
S'Some'
p1103
sg14
g579
sg16
I4
sg17
S'Nat'
p1104
sg19
S'Naturlig utloest'
p1105
sg21
Nsg22
S'400'
p1106
sg24
S'900'
p1107
sg26
S'Noen bratte heng'
p1108
sg28
Nsg29
g1004
sg31
S'4 - Store'
p1109
sba(irunmatrix
M3Element
p1110
(dp1111
g3
Nsg4
S'Sannsynlig, Meget sannsynlig'
p1112
sg6
S'gray'
p1113
sg8
(lp1114
sg10
S'Likely'
p1115
sg12
S'Some'
p1116
sg14
g66
sg16
I0
sg17
S'High'
p1117
sg19
S'Stor tilleggsbelastning'
p1118
sg21
Nsg22
S'400'
p1119
sg24
S'1000'
p1120
sg26
S'Noen bratte heng'
p1121
sg28
Nsg29
g1004
sg31
S'4 - Store'
p1122
sba(irunmatrix
M3Element
p1123
(dp1124
g3
Nsg4
S'Sannsynlig, Meget sannsynlig'
p1125
sg6
S'gray'
p1126
sg8
(lp1127
sg10
S'Likely'
p1128
sg12
S'Some'
p1129
sg14
g66
sg16
I0
sg17
S'Low'
p1130
sg19
S'Liten tilleggsbelastning'
p1131
sg21
Nsg22
S'400'
p1132
sg24
S'1100'
p1133
sg26
S'Noen bratte heng'
p1134
sg28
Nsg29
g1004
sg31
S'4 - Store'
p1135
sba(irunmatrix
M3Element
p1136
(dp1137
g3
Nsg4
S'Sannsynlig, Meget sannsynlig'
p1138
sg6
S'white'
p1139
sg8
(lp1140
sg10
S'Likely'
p1141
sg12
S'Some'
p1142
sg14
g579
sg16
I4
sg17
S'Nat'
p1143
sg19
S'Naturlig utloest'
p1144
sg21
Nsg22
S'400'
p1145
sg24
S'1200'
p1146
sg26
S'Noen bratte heng'
p1147
sg28
Nsg29
g1004
sg31
S'4 - Store'
p1148
sba(irunmatrix
M3Element
p1149
(dp1150
g3
Nsg4
S'Lite sannsynlig, Mulig'
p1151
sg6
S'gray'
p1152
sg8
(lp1153
sg10
S'Possible'
p1154
sg12
S'Many'
p1155
sg14
g66
sg16
I0
sg17
S'High'
p1156
sg19
S'Stor tilleggsbelastning'
p1157
sg21
Nsg22
S'400'
p1158
sg24
S'1300'
p1159
sg26
S'Mange bratte heng'
p1160
sg28
Nsg29
g1004
sg31
S'4 - Store'
p1161
sba(irunmatrix
M3Element
p1162
(dp1163
g3
Nsg4
S'Lite sannsynlig, Mulig'
p1164
sg6
S'white'
p1165
sg8
(lp1166
sg10
S'Possible'
p1167
sg12
S'Many'
p1168
sg14
g66
sg16
I0
sg17
S'Low'
p1169
sg19
S'Liten tilleggsbelastning'
p1170
sg21
Nsg22
S'400'
p1171
sg24
S'1400'
p1172
sg26
S'Mange bratte heng'
p1173
sg28
Nsg29
g1004
sg31
S'4 - Store'
p1174
sba(irunmatrix
M3Element
p1175
(dp1176
g3
Nsg4
S'Lite sannsynlig, Mulig'
p1177
sg6
S'gray'
p1178
sg8
(lp1179
sg10
S'Possible'
p1180
sg12
S'Many'
p1181
sg14
g66
sg16
I0
sg17
S'Nat'
p1182
sg19
S'Naturlig utloest'
p1183
sg21
Nsg22
S'400'
p1184
sg24
S'1500'
p1185
sg26
S'Mange bratte heng'
p1186
sg28
Nsg29
g1004
sg31
S'4 - Store'
p1187
sba(irunmatrix
M3Element
p1188
(dp1189
g3
Nsg4
S'Sannsynlig, Meget sannsynlig'
p1190
sg6
S'gray'
p1191
sg8
(lp1192
sg10
S'Likely'
p1193
sg12
S'Many'
p1194
sg14
g66
sg16
I0
sg17
S'High'
p1195
sg19
S'Stor tilleggsbelastning'
p1196
sg21
Nsg22
S'400'
p1197
sg24
S'1600'
p1198
sg26
S'Mange bratte heng'
p1199
sg28
Nsg29
g1004
sg31
S'4 - Store'
p1200
sba(irunmatrix
M3Element
p1201
(dp1202
g3
Nsg4
S'Sannsynlig, Meget sannsynlig'
p1203
sg6
S'white'
p1204
sg8
(lp1205
sg10
S'Likely'
p1206
sg12
S'Many'
p1207
sg14
g66
sg16
I0
sg17
S'Low'
p1208
sg19
S'Liten tilleggsbelastning'
p1209
sg21
Nsg22
S'400'
p1210
sg24
S'1700'
p1211
sg26
S'Mange bratte heng'
p1212
sg28
Nsg29
g1004
sg31
S'4 - Store'
p1213
sba(irunmatrix
M3Element
p1214
(dp1215
g3
Nsg4
S'Sannsynlig, Meget sannsynlig'
p1216
sg6
S'white'
p1217
sg8
(lp1218
sg10
S'Likely'
p1219
sg12
S'Many'
p1220
sg14
S'k'
p1221
sg16
I5
sg17
S'Nat'
p1222
sg19
S'Naturlig utloest'
p1223
sg21
Nsg22
S'400'
p1224
sg24
S'1800'
p1225
sg26
S'Mange bratte heng'
p1226
sg28
Nsg29
g1004
sg31
S'4 - Store'
p1227
sba(irunmatrix
M3Element
p1228
(dp1229
g3
Nsg4
S'Lite sannsynlig, Mulig'
p1230
sg6
S'gray'
p1231
sg8
(lp1232
sg10
S'Possible'
p1233
sg12
S'Most'
p1234
sg14
g66
sg16
I0
sg17
S'High'
p1235
sg19
S'Stor tilleggsbelastning'
p1236
sg21
Nsg22
S'400'
p1237
sg24
S'1900'
p1238
sg26
S'De fleste bratte heng, Ogsaa i mindre bratt terreng'
p1239
sg28
Nsg29
g1004
sg31
S'4 - Store'
p1240
sba(irunmatrix
M3Element
p1241
(dp1242
g3
Nsg4
S'Lite sannsynlig, Mulig'
p1243
sg6
S'gray'
p1244
sg8
(lp1245
sg10
S'Possible'
p1246
sg12
S'Most'
p1247
sg14
g66
sg16
I0
sg17
S'Low'
p1248
sg19
S'Liten tilleggsbelastning'
p1249
sg21
Nsg22
S'400'
p1250
sg24
S'2000'
p1251
sg26
S'De fleste bratte heng, Ogsaa i mindre bratt terreng'
p1252
sg28
Nsg29
g1004
sg31
S'4 - Store'
p1253
sba(irunmatrix
M3Element
p1254
(dp1255
g3
Nsg4
S'Lite sannsynlig, Mulig'
p1256
sg6
S'gray'
p1257
sg8
(lp1258
sg10
S'Possible'
p1259
sg12
S'Most'
p1260
sg14
g66
sg16
I0
sg17
S'Nat'
p1261
sg19
S'Naturlig utloest'
p1262
sg21
Nsg22
S'400'
p1263
sg24
S'2100'
p1264
sg26
S'De fleste bratte heng, Ogsaa i mindre bratt terreng'
p1265
sg28
Nsg29
g1004
sg31
S'4 - Store'
p1266
sba(irunmatrix
M3Element
p1267
(dp1268
g3
Nsg4
S'Sannsynlig, Meget sannsynlig'
p1269
sg6
S'gray'
p1270
sg8
(lp1271
sg10
S'Likely'
p1272
sg12
S'Most'
p1273
sg14
g66
sg16
I0
sg17
S'High'
p1274
sg19
S'Stor tilleggsbelastning'
p1275
sg21
Nsg22
S'400'
p1276
sg24
S'2200'
p1277
sg26
S'De fleste bratte heng, Ogsaa i mindre bratt terreng'
p1278
sg28
Nsg29
g1004
sg31
S'4 - Store'
p1279
sba(irunmatrix
M3Element
p1280
(dp1281
g3
Nsg4
S'Sannsynlig, Meget sannsynlig'
p1282
sg6
S'gray'
p1283
sg8
(lp1284
sg10
S'Likely'
p1285
sg12
S'Most'
p1286
sg14
g66
sg16
I0
sg17
S'Low'
p1287
sg19
S'Liten tilleggsbelastning'
p1288
sg21
Nsg22
S'400'
p1289
sg24
S'2300'
p1290
sg26
S'De fleste bratte heng, Ogsaa i mindre bratt terreng'
p1291
sg28
Nsg29
g1004
sg31
S'4 - Store'
p1292
sba(irunmatrix
M3Element
p1293
(dp1294
g3
Nsg4
S'Sannsynlig, Meget sannsynlig'
p1295
sg6
S'white'
p1296
sg8
(lp1297
sg10
S'Likely'
p1298
sg12
S'Most'
p1299
sg14
g66
sg16
I0
sg17
S'Nat'
p1300
sg19
S'Naturlig utloest'
p1301
sg21
Nsg22
S'400'
p1302
sg24
S'2400'
p1303
sg26
S'De fleste bratte heng, Ogsaa i mindre bratt terreng'
p1304
sg28
Nsg29
g1004
sg31
S'4 - Store'
p1305
sba(irunmatrix
M3Element
p1306
(dp1307
g3
Nsg4
S'Lite sannsynlig, Mulig'
p1308
sg6
S'white'
p1309
sg8
(lp1310
sg10
S'Possible'
p1311
sg12
S'Isolated'
p1312
sg14
g66
sg16
I0
sg17
S'High'
p1313
sg19
S'Stor tilleggsbelastning'
p1314
sg21
Nsg22
S'500'
p1315
sg24
S'100'
p1316
sg26
S'Isolerte faresoner'
p1317
sg28
Nsg29
S'5'
p1318
sg31
S'5 - Svaert store'
p1319
sba(irunmatrix
M3Element
p1320
(dp1321
g3
Nsg4
S'Lite sannsynlig, Mulig'
p1322
sg6
S'white'
p1323
sg8
(lp1324
sg10
S'Possible'
p1325
sg12
S'Isolated'
p1326
sg14
g66
sg16
I0
sg17
S'Low'
p1327
sg19
S'Liten tilleggsbelastning'
p1328
sg21
Nsg22
S'500'
p1329
sg24
S'200'
p1330
sg26
S'Isolerte faresoner'
p1331
sg28
Nsg29
g1318
sg31
S'5 - Svaert store'
p1332
sba(irunmatrix
M3Element
p1333
(dp1334
g3
Nsg4
S'Lite sannsynlig, Mulig'
p1335
sg6
S'white'
p1336
sg8
(lp1337
sg10
S'Possible'
p1338
sg12
S'Isolated'
p1339
sg14
g66
sg16
I0
sg17
S'Nat'
p1340
sg19
S'Naturlig utloest'
p1341
sg21
Nsg22
S'500'
p1342
sg24
S'300'
p1343
sg26
S'Isolerte faresoner'
p1344
sg28
Nsg29
g1318
sg31
S'5 - Svaert store'
p1345
sba(irunmatrix
M3Element
p1346
(dp1347
g3
Nsg4
S'Sannsynlig, Meget sannsynlig'
p1348
sg6
S'gray'
p1349
sg8
(lp1350
sg10
S'Likely'
p1351
sg12
S'Isolated'
p1352
sg14
g66
sg16
I0
sg17
S'High'
p1353
sg19
S'Stor tilleggsbelastning'
p1354
sg21
Nsg22
S'500'
p1355
sg24
S'400'
p1356
sg26
S'Isolerte faresoner'
p1357
sg28
Nsg29
g1318
sg31
S'5 - Svaert store'
p1358
sba(irunmatrix
M3Element
p1359
(dp1360
g3
Nsg4
S'Sannsynlig, Meget sannsynlig'
p1361
sg6
S'gray'
p1362
sg8
(lp1363
sg10
S'Likely'
p1364
sg12
S'Isolated'
p1365
sg14
g66
sg16
I0
sg17
S'Low'
p1366
sg19
S'Liten tilleggsbelastning'
p1367
sg21
Nsg22
S'500'
p1368
sg24
S'500'
p1369
sg26
S'Isolerte faresoner'
p1370
sg28
Nsg29
g1318
sg31
S'5 - Svaert store'
p1371
sba(irunmatrix
M3Element
p1372
(dp1373
g3
Nsg4
S'Sannsynlig, Meget sannsynlig'
p1374
sg6
S'gray'
p1375
sg8
(lp1376
sg10
S'Likely'
p1377
sg12
S'Isolated'
p1378
sg14
g66
sg16
I0
sg17
S'Nat'
p1379
sg19
S'Naturlig utloest'
p1380
sg21
Nsg22
S'500'
p1381
sg24
S'600'
p1382
sg26
S'Isolerte faresoner'
p1383
sg28
Nsg29
g1318
sg31
S'5 - Svaert store'
p1384
sba(irunmatrix
M3Element
p1385
(dp1386
g3
Nsg4
S'Lite sannsynlig, Mulig'
p1387
sg6
S'white'
p1388
sg8
(lp1389
sg10
S'Possible'
p1390
sg12
S'Some'
p1391
sg14
g66
sg16
I0
sg17
S'High'
p1392
sg19
S'Stor tilleggsbelastning'
p1393
sg21
Nsg22
S'500'
p1394
sg24
S'700'
p1395
sg26
S'Noen bratte heng'
p1396
sg28
Nsg29
g1318
sg31
S'5 - Svaert store'
p1397
sba(irunmatrix
M3Element
p1398
(dp1399
g3
Nsg4
S'Lite sannsynlig, Mulig'
p1400
sg6
S'white'
p1401
sg8
(lp1402
sg10
S'Possible'
p1403
sg12
S'Some'
p1404
sg14
g66
sg16
I0
sg17
S'Low'
p1405
sg19
S'Liten tilleggsbelastning'
p1406
sg21
Nsg22
S'500'
p1407
sg24
S'800'
p1408
sg26
S'Noen bratte heng'
p1409
sg28
Nsg29
g1318
sg31
S'5 - Svaert store'
p1410
sba(irunmatrix
M3Element
p1411
(dp1412
g3
Nsg4
S'Lite sannsynlig, Mulig'
p1413
sg6
S'white'
p1414
sg8
(lp1415
sg10
S'Possible'
p1416
sg12
S'Some'
p1417
sg14
g66
sg16
I0
sg17
S'Nat'
p1418
sg19
S'Naturlig utloest'
p1419
sg21
Nsg22
S'500'
p1420
sg24
S'900'
p1421
sg26
S'Noen bratte heng'
p1422
sg28
Nsg29
g1318
sg31
S'5 - Svaert store'
p1423
sba(irunmatrix
M3Element
p1424
(dp1425
g3
Nsg4
S'Sannsynlig, Meget sannsynlig'
p1426
sg6
S'gray'
p1427
sg8
(lp1428
sg10
S'Likely'
p1429
sg12
S'Some'
p1430
sg14
g66
sg16
I0
sg17
S'High'
p1431
sg19
S'Stor tilleggsbelastning'
p1432
sg21
Nsg22
S'500'
p1433
sg24
S'1000'
p1434
sg26
S'Noen bratte heng'
p1435
sg28
Nsg29
g1318
sg31
S'5 - Svaert store'
p1436
sba(irunmatrix
M3Element
p1437
(dp1438
g3
Nsg4
S'Sannsynlig, Meget sannsynlig'
p1439
sg6
S'gray'
p1440
sg8
(lp1441
sg10
S'Likely'
p1442
sg12
S'Some'
p1443
sg14
g66
sg16
I0
sg17
S'Low'
p1444
sg19
S'Liten tilleggsbelastning'
p1445
sg21
Nsg22
S'500'
p1446
sg24
S'1100'
p1447
sg26
S'Noen bratte heng'
p1448
sg28
Nsg29
g1318
sg31
S'5 - Svaert store'
p1449
sba(irunmatrix
M3Element
p1450
(dp1451
g3
Nsg4
S'Sannsynlig, Meget sannsynlig'
p1452
sg6
S'white'
p1453
sg8
(lp1454
sg10
S'Likely'
p1455
sg12
S'Some'
p1456
sg14
g66
sg16
I0
sg17
S'Nat'
p1457
sg19
S'Naturlig utloest'
p1458
sg21
Nsg22
S'500'
p1459
sg24
S'1200'
p1460
sg26
S'Noen bratte heng'
p1461
sg28
Nsg29
g1318
sg31
S'5 - Svaert store'
p1462
sba(irunmatrix
M3Element
p1463
(dp1464
g3
Nsg4
S'Lite sannsynlig, Mulig'
p1465
sg6
S'gray'
p1466
sg8
(lp1467
sg10
S'Possible'
p1468
sg12
S'Many'
p1469
sg14
g66
sg16
I0
sg17
S'High'
p1470
sg19
S'Stor tilleggsbelastning'
p1471
sg21
Nsg22
S'500'
p1472
sg24
S'1300'
p1473
sg26
S'Mange bratte heng'
p1474
sg28
Nsg29
g1318
sg31
S'5 - Svaert store'
p1475
sba(irunmatrix
M3Element
p1476
(dp1477
g3
Nsg4
S'Lite sannsynlig, Mulig'
p1478
sg6
S'white'
p1479
sg8
(lp1480
sg10
S'Possible'
p1481
sg12
S'Many'
p1482
sg14
g66
sg16
I0
sg17
S'Low'
p1483
sg19
S'Liten tilleggsbelastning'
p1484
sg21
Nsg22
S'500'
p1485
sg24
S'1400'
p1486
sg26
S'Mange bratte heng'
p1487
sg28
Nsg29
g1318
sg31
S'5 - Svaert store'
p1488
sba(irunmatrix
M3Element
p1489
(dp1490
g3
Nsg4
S'Lite sannsynlig, Mulig'
p1491
sg6
S'gray'
p1492
sg8
(lp1493
sg10
S'Possible'
p1494
sg12
S'Many'
p1495
sg14
g66
sg16
I0
sg17
S'Nat'
p1496
sg19
S'Naturlig utloest'
p1497
sg21
Nsg22
S'500'
p1498
sg24
S'1500'
p1499
sg26
S'Mange bratte heng'
p1500
sg28
Nsg29
g1318
sg31
S'5 - Svaert store'
p1501
sba(irunmatrix
M3Element
p1502
(dp1503
g3
Nsg4
S'Sannsynlig, Meget sannsynlig'
p1504
sg6
S'gray'
p1505
sg8
(lp1506
sg10
S'Likely'
p1507
sg12
S'Many'
p1508
sg14
g66
sg16
I0
sg17
S'High'
p1509
sg19
S'Stor tilleggsbelastning'
p1510
sg21
Nsg22
S'500'
p1511
sg24
S'1600'
p1512
sg26
S'Mange bratte heng'
p1513
sg28
Nsg29
g1318
sg31
S'5 - Svaert store'
p1514
sba(irunmatrix
M3Element
p1515
(dp1516
g3
Nsg4
S'Sannsynlig, Meget sannsynlig'
p1517
sg6
S'white'
p1518
sg8
(lp1519
sg10
S'Likely'
p1520
sg12
S'Many'
p1521
sg14
g66
sg16
I0
sg17
S'Low'
p1522
sg19
S'Liten tilleggsbelastning'
p1523
sg21
Nsg22
S'500'
p1524
sg24
S'1700'
p1525
sg26
S'Mange bratte heng'
p1526
sg28
Nsg29
g1318
sg31
S'5 - Svaert store'
p1527
sba(irunmatrix
M3Element
p1528
(dp1529
g3
Nsg4
S'Sannsynlig, Meget sannsynlig'
p1530
sg6
S'white'
p1531
sg8
(lp1532
sg10
S'Likely'
p1533
sg12
S'Many'
p1534
sg14
g1221
sg16
I5
sg17
S'Nat'
p1535
sg19
S'Naturlig utloest'
p1536
sg21
Nsg22
S'500'
p1537
sg24
S'1800'
p1538
sg26
S'Mange bratte heng'
p1539
sg28
Nsg29
g1318
sg31
S'5 - Svaert store'
p1540
sba(irunmatrix
M3Element
p1541
(dp1542
g3
Nsg4
S'Lite sannsynlig, Mulig'
p1543
sg6
S'gray'
p1544
sg8
(lp1545
sg10
S'Possible'
p1546
sg12
S'Most'
p1547
sg14
g66
sg16
I0
sg17
S'High'
p1548
sg19
S'Stor tilleggsbelastning'
p1549
sg21
Nsg22
S'500'
p1550
sg24
S'1900'
p1551
sg26
S'De fleste bratte heng, Ogsaa i mindre bratt terreng'
p1552
sg28
Nsg29
g1318
sg31
S'5 - Svaert store'
p1553
sba(irunmatrix
M3Element
p1554
(dp1555
g3
Nsg4
S'Lite sannsynlig, Mulig'
p1556
sg6
S'gray'
p1557
sg8
(lp1558
sg10
S'Possible'
p1559
sg12
S'Most'
p1560
sg14
g66
sg16
I0
sg17
S'Low'
p1561
sg19
S'Liten tilleggsbelastning'
p1562
sg21
Nsg22
S'500'
p1563
sg24
S'2000'
p1564
sg26
S'De fleste bratte heng, Ogsaa i mindre bratt terreng'
p1565
sg28
Nsg29
g1318
sg31
S'5 - Svaert store'
p1566
sba(irunmatrix
M3Element
p1567
(dp1568
g3
Nsg4
S'Lite sannsynlig, Mulig'
p1569
sg6
S'gray'
p1570
sg8
(lp1571
sg10
S'Possible'
p1572
sg12
S'Most'
p1573
sg14
g66
sg16
I0
sg17
S'Nat'
p1574
sg19
S'Naturlig utloest'
p1575
sg21
Nsg22
S'500'
p1576
sg24
S'2100'
p1577
sg26
S'De fleste bratte heng, Ogsaa i mindre bratt terreng'
p1578
sg28
Nsg29
g1318
sg31
S'5 - Svaert store'
p1579
sba(irunmatrix
M3Element
p1580
(dp1581
g3
Nsg4
S'Sannsynlig, Meget sannsynlig'
p1582
sg6
S'gray'
p1583
sg8
(lp1584
sg10
S'Likely'
p1585
sg12
S'Most'
p1586
sg14
g66
sg16
I0
sg17
S'High'
p1587
sg19
S'Stor tilleggsbelastning'
p1588
sg21
Nsg22
S'500'
p1589
sg24
S'2200'
p1590
sg26
S'De fleste bratte heng, Ogsaa i mindre bratt terreng'
p1591
sg28
Nsg29
g1318
sg31
S'5 - Svaert store'
p1592
sba(irunmatrix
M3Element
p1593
(dp1594
g3
Nsg4
S'Sannsynlig, Meget sannsynlig'
p1595
sg6
S'gray'
p1596
sg8
(lp1597
sg10
S'Likely'
p1598
sg12
S'Most'
p1599
sg14
g66
sg16
I0
sg17
S'Low'
p1600
sg19
S'Liten tilleggsbelastning'
p1601
sg21
Nsg22
S'500'
p1602
sg24
S'2300'
p1603
sg26
S'De fleste bratte heng, Ogsaa i mindre bratt terreng'
p1604
sg28
Nsg29
g1318
sg31
S'5 - Svaert store'
p1605
sba(irunmatrix
M3Element
p1606
(dp1607
g3
Nsg4
S'Sannsynlig, Meget sannsynlig'
p1608
sg6
S'white'
p1609
sg8
(lp1610
sg10
S'Likely'
p1611
sg12
S'Most'
p1612
sg14
g66
sg16
I0
sg17
S'Nat'
p1613
sg19
S'Naturlig utloest'
p1614
sg21
Nsg22
S'500'
p1615
sg24
S'2400'
p1616
sg26
S'De fleste bratte heng, Ogsaa i mindre bratt terreng'
p1617
sg28
Nsg29
g1318
sg31
S'5 - Svaert store'
p1618
sba.