(lp0
(irunmatrix
M3Element
p1
(dp2
S'danger_level_average'
p3
NsS'probability'
p4
S'Lite sannsynlig, Mulig'
p5
sS'colour'
p6
S'white'
p7
sS'danger_level_list'
p8
(lp9
sS'label_probalility'
p10
S'Possible'
p11
sS'label_distribution'
p12
S'Isolated'
p13
sS'recomended_colour'
p14
S'#ccff66'
p15
sS'recomended_danger_level'
p16
I1
sS'label_trigger'
p17
S'High'
p18
sS'trigger'
p19
S'Stor tilleggsbelastning'
p20
sS'occurrences'
p21
NsS'y'
p22
S'100'
p23
sS'x'
p24
S'100'
p25
sS'distribution'
p26
S'Isolerte faresoner'
p27
sS'danger_level_standard_dev'
p28
NsS'label_size'
p29
S'1'
p30
sS'avalanche_size'
p31
S'1 - Harmloest'
p32
sba(irunmatrix
M3Element
p33
(dp34
g3
F2.0
sg4
S'Lite sannsynlig, Mulig'
p35
sg6
S'#ffff00'
p36
sg8
(lp37
I2
asg10
S'Possible'
p38
sg12
S'Isolated'
p39
sg14
g15
sg16
I1
sg17
S'Low'
p40
sg19
S'Liten tilleggsbelastning'
p41
sg21
I1
sg22
S'100'
p42
sg24
S'200'
p43
sg26
S'Isolerte faresoner'
p44
sg28
cnumpy.core.multiarray
scalar
p45
(cnumpy
dtype
p46
(S'f8'
p47
I0
I1
tp48
Rp49
(I3
S'<'
p50
NNNI-1
I-1
I0
tp51
bS'\x00\x00\x00\x00\x00\x00\x00\x00'
p52
tp53
Rp54
sg29
g30
sg31
S'1 - Harmloest'
p55
sba(irunmatrix
M3Element
p56
(dp57
g3
Nsg4
S'Lite sannsynlig, Mulig'
p58
sg6
S'white'
p59
sg8
(lp60
sg10
S'Possible'
p61
sg12
S'Isolated'
p62
sg14
g15
sg16
I1
sg17
S'Nat'
p63
sg19
S'Naturlig utloest'
p64
sg21
Nsg22
S'100'
p65
sg24
S'300'
p66
sg26
S'Isolerte faresoner'
p67
sg28
Nsg29
g30
sg31
S'1 - Harmloest'
p68
sba(irunmatrix
M3Element
p69
(dp70
g3
Nsg4
S'Sannsynlig, Meget sannsynlig'
p71
sg6
S'gray'
p72
sg8
(lp73
sg10
S'Likely'
p74
sg12
S'Isolated'
p75
sg14
S'gray'
p76
sg16
I0
sg17
S'High'
p77
sg19
S'Stor tilleggsbelastning'
p78
sg21
Nsg22
S'100'
p79
sg24
S'400'
p80
sg26
S'Isolerte faresoner'
p81
sg28
Nsg29
g30
sg31
S'1 - Harmloest'
p82
sba(irunmatrix
M3Element
p83
(dp84
g3
Nsg4
S'Sannsynlig, Meget sannsynlig'
p85
sg6
S'gray'
p86
sg8
(lp87
sg10
S'Likely'
p88
sg12
S'Isolated'
p89
sg14
g76
sg16
I0
sg17
S'Low'
p90
sg19
S'Liten tilleggsbelastning'
p91
sg21
Nsg22
S'100'
p92
sg24
S'500'
p93
sg26
S'Isolerte faresoner'
p94
sg28
Nsg29
g30
sg31
S'1 - Harmloest'
p95
sba(irunmatrix
M3Element
p96
(dp97
g3
Nsg4
S'Sannsynlig, Meget sannsynlig'
p98
sg6
S'gray'
p99
sg8
(lp100
sg10
S'Likely'
p101
sg12
S'Isolated'
p102
sg14
g76
sg16
I0
sg17
S'Nat'
p103
sg19
S'Naturlig utloest'
p104
sg21
Nsg22
S'100'
p105
sg24
S'600'
p106
sg26
S'Isolerte faresoner'
p107
sg28
Nsg29
g30
sg31
S'1 - Harmloest'
p108
sba(irunmatrix
M3Element
p109
(dp110
g3
F1.0
sg4
S'Lite sannsynlig, Mulig'
p111
sg6
S'#ccff66'
p112
sg8
(lp113
I1
asg10
S'Possible'
p114
sg12
S'Some'
p115
sg14
g15
sg16
I1
sg17
S'High'
p116
sg19
S'Stor tilleggsbelastning'
p117
sg21
I1
sg22
S'100'
p118
sg24
S'700'
p119
sg26
S'Noen bratte heng'
p120
sg28
g45
(g49
S'\x00\x00\x00\x00\x00\x00\x00\x00'
p121
tp122
Rp123
sg29
g30
sg31
S'1 - Harmloest'
p124
sba(irunmatrix
M3Element
p125
(dp126
g3
F2.0
sg4
S'Lite sannsynlig, Mulig'
p127
sg6
g36
sg8
(lp128
I2
asg10
S'Possible'
p129
sg12
S'Some'
p130
sg14
g15
sg16
I1
sg17
S'Low'
p131
sg19
S'Liten tilleggsbelastning'
p132
sg21
I1
sg22
S'100'
p133
sg24
S'800'
p134
sg26
S'Noen bratte heng'
p135
sg28
g45
(g49
S'\x00\x00\x00\x00\x00\x00\x00\x00'
p136
tp137
Rp138
sg29
g30
sg31
S'1 - Harmloest'
p139
sba(irunmatrix
M3Element
p140
(dp141
g3
Nsg4
S'Lite sannsynlig, Mulig'
p142
sg6
S'white'
p143
sg8
(lp144
sg10
S'Possible'
p145
sg12
S'Some'
p146
sg14
g15
sg16
I1
sg17
S'Nat'
p147
sg19
S'Naturlig utloest'
p148
sg21
Nsg22
S'100'
p149
sg24
S'900'
p150
sg26
S'Noen bratte heng'
p151
sg28
Nsg29
g30
sg31
S'1 - Harmloest'
p152
sba(irunmatrix
M3Element
p153
(dp154
g3
Nsg4
S'Sannsynlig, Meget sannsynlig'
p155
sg6
S'gray'
p156
sg8
(lp157
sg10
S'Likely'
p158
sg12
S'Some'
p159
sg14
g76
sg16
I0
sg17
S'High'
p160
sg19
S'Stor tilleggsbelastning'
p161
sg21
Nsg22
S'100'
p162
sg24
S'1000'
p163
sg26
S'Noen bratte heng'
p164
sg28
Nsg29
g30
sg31
S'1 - Harmloest'
p165
sba(irunmatrix
M3Element
p166
(dp167
g3
Nsg4
S'Sannsynlig, Meget sannsynlig'
p168
sg6
S'gray'
p169
sg8
(lp170
sg10
S'Likely'
p171
sg12
S'Some'
p172
sg14
g76
sg16
I0
sg17
S'Low'
p173
sg19
S'Liten tilleggsbelastning'
p174
sg21
Nsg22
S'100'
p175
sg24
S'1100'
p176
sg26
S'Noen bratte heng'
p177
sg28
Nsg29
g30
sg31
S'1 - Harmloest'
p178
sba(irunmatrix
M3Element
p179
(dp180
g3
Nsg4
S'Sannsynlig, Meget sannsynlig'
p181
sg6
S'white'
p182
sg8
(lp183
sg10
S'Likely'
p184
sg12
S'Some'
p185
sg14
g15
sg16
I1
sg17
S'Nat'
p186
sg19
S'Naturlig utloest'
p187
sg21
Nsg22
S'100'
p188
sg24
S'1200'
p189
sg26
S'Noen bratte heng'
p190
sg28
Nsg29
g30
sg31
S'1 - Harmloest'
p191
sba(irunmatrix
M3Element
p192
(dp193
g3
Nsg4
S'Lite sannsynlig, Mulig'
p194
sg6
S'gray'
p195
sg8
(lp196
sg10
S'Possible'
p197
sg12
S'Many'
p198
sg14
g76
sg16
I0
sg17
S'High'
p199
sg19
S'Stor tilleggsbelastning'
p200
sg21
Nsg22
S'100'
p201
sg24
S'1300'
p202
sg26
S'Mange bratte heng'
p203
sg28
Nsg29
g30
sg31
S'1 - Harmloest'
p204
sba(irunmatrix
M3Element
p205
(dp206
g3
Nsg4
S'Lite sannsynlig, Mulig'
p207
sg6
S'white'
p208
sg8
(lp209
sg10
S'Possible'
p210
sg12
S'Many'
p211
sg14
g15
sg16
I1
sg17
S'Low'
p212
sg19
S'Liten tilleggsbelastning'
p213
sg21
Nsg22
S'100'
p214
sg24
S'1400'
p215
sg26
S'Mange bratte heng'
p216
sg28
Nsg29
g30
sg31
S'1 - Harmloest'
p217
sba(irunmatrix
M3Element
p218
(dp219
g3
Nsg4
S'Lite sannsynlig, Mulig'
p220
sg6
S'gray'
p221
sg8
(lp222
sg10
S'Possible'
p223
sg12
S'Many'
p224
sg14
g76
sg16
I0
sg17
S'Nat'
p225
sg19
S'Naturlig utloest'
p226
sg21
Nsg22
S'100'
p227
sg24
S'1500'
p228
sg26
S'Mange bratte heng'
p229
sg28
Nsg29
g30
sg31
S'1 - Harmloest'
p230
sba(irunmatrix
M3Element
p231
(dp232
g3
Nsg4
S'Sannsynlig, Meget sannsynlig'
p233
sg6
S'gray'
p234
sg8
(lp235
sg10
S'Likely'
p236
sg12
S'Many'
p237
sg14
g76
sg16
I0
sg17
S'High'
p238
sg19
S'Stor tilleggsbelastning'
p239
sg21
Nsg22
S'100'
p240
sg24
S'1600'
p241
sg26
S'Mange bratte heng'
p242
sg28
Nsg29
g30
sg31
S'1 - Harmloest'
p243
sba(irunmatrix
M3Element
p244
(dp245
g3
Nsg4
S'Sannsynlig, Meget sannsynlig'
p246
sg6
S'white'
p247
sg8
(lp248
sg10
S'Likely'
p249
sg12
S'Many'
p250
sg14
S'#ffff00'
p251
sg16
I2
sg17
S'Low'
p252
sg19
S'Liten tilleggsbelastning'
p253
sg21
Nsg22
S'100'
p254
sg24
S'1700'
p255
sg26
S'Mange bratte heng'
p256
sg28
Nsg29
g30
sg31
S'1 - Harmloest'
p257
sba(irunmatrix
M3Element
p258
(dp259
g3
Nsg4
S'Sannsynlig, Meget sannsynlig'
p260
sg6
S'white'
p261
sg8
(lp262
sg10
S'Likely'
p263
sg12
S'Many'
p264
sg14
g251
sg16
I2
sg17
S'Nat'
p265
sg19
S'Naturlig utloest'
p266
sg21
Nsg22
S'100'
p267
sg24
S'1800'
p268
sg26
S'Mange bratte heng'
p269
sg28
Nsg29
g30
sg31
S'1 - Harmloest'
p270
sba(irunmatrix
M3Element
p271
(dp272
g3
Nsg4
S'Lite sannsynlig, Mulig'
p273
sg6
S'gray'
p274
sg8
(lp275
sg10
S'Possible'
p276
sg12
S'Most'
p277
sg14
g76
sg16
I0
sg17
S'High'
p278
sg19
S'Stor tilleggsbelastning'
p279
sg21
Nsg22
S'100'
p280
sg24
S'1900'
p281
sg26
S'De fleste bratte heng, Ogsaa i mindre bratt terreng'
p282
sg28
Nsg29
g30
sg31
S'1 - Harmloest'
p283
sba(irunmatrix
M3Element
p284
(dp285
g3
Nsg4
S'Lite sannsynlig, Mulig'
p286
sg6
S'gray'
p287
sg8
(lp288
sg10
S'Possible'
p289
sg12
S'Most'
p290
sg14
g76
sg16
I0
sg17
S'Low'
p291
sg19
S'Liten tilleggsbelastning'
p292
sg21
Nsg22
S'100'
p293
sg24
S'2000'
p294
sg26
S'De fleste bratte heng, Ogsaa i mindre bratt terreng'
p295
sg28
Nsg29
g30
sg31
S'1 - Harmloest'
p296
sba(irunmatrix
M3Element
p297
(dp298
g3
Nsg4
S'Lite sannsynlig, Mulig'
p299
sg6
S'gray'
p300
sg8
(lp301
sg10
S'Possible'
p302
sg12
S'Most'
p303
sg14
g76
sg16
I0
sg17
S'Nat'
p304
sg19
S'Naturlig utloest'
p305
sg21
Nsg22
S'100'
p306
sg24
S'2100'
p307
sg26
S'De fleste bratte heng, Ogsaa i mindre bratt terreng'
p308
sg28
Nsg29
g30
sg31
S'1 - Harmloest'
p309
sba(irunmatrix
M3Element
p310
(dp311
g3
Nsg4
S'Sannsynlig, Meget sannsynlig'
p312
sg6
S'gray'
p313
sg8
(lp314
sg10
S'Likely'
p315
sg12
S'Most'
p316
sg14
g76
sg16
I0
sg17
S'High'
p317
sg19
S'Stor tilleggsbelastning'
p318
sg21
Nsg22
S'100'
p319
sg24
S'2200'
p320
sg26
S'De fleste bratte heng, Ogsaa i mindre bratt terreng'
p321
sg28
Nsg29
g30
sg31
S'1 - Harmloest'
p322
sba(irunmatrix
M3Element
p323
(dp324
g3
Nsg4
S'Sannsynlig, Meget sannsynlig'
p325
sg6
S'gray'
p326
sg8
(lp327
sg10
S'Likely'
p328
sg12
S'Most'
p329
sg14
g76
sg16
I0
sg17
S'Low'
p330
sg19
S'Liten tilleggsbelastning'
p331
sg21
Nsg22
S'100'
p332
sg24
S'2300'
p333
sg26
S'De fleste bratte heng, Ogsaa i mindre bratt terreng'
p334
sg28
Nsg29
g30
sg31
S'1 - Harmloest'
p335
sba(irunmatrix
M3Element
p336
(dp337
g3
Nsg4
S'Sannsynlig, Meget sannsynlig'
p338
sg6
S'white'
p339
sg8
(lp340
sg10
S'Likely'
p341
sg12
S'Most'
p342
sg14
g76
sg16
I0
sg17
S'Nat'
p343
sg19
S'Naturlig utloest'
p344
sg21
Nsg22
S'100'
p345
sg24
S'2400'
p346
sg26
S'De fleste bratte heng, Ogsaa i mindre bratt terreng'
p347
sg28
Nsg29
S'2'
p348
sg31
S'1 - Harmloest'
p349
sba(irunmatrix
M3Element
p350
(dp351
g3
Nsg4
S'Lite sannsynlig, Mulig'
p352
sg6
S'white'
p353
sg8
(lp354
sg10
S'Possible'
p355
sg12
S'Isolated'
p356
sg14
g15
sg16
I1
sg17
S'High'
p357
sg19
S'Stor tilleggsbelastning'
p358
sg21
Nsg22
S'200'
p359
sg24
S'100'
p360
sg26
S'Isolerte faresoner'
p361
sg28
Nsg29
g348
sg31
S'2 - Smaa'
p362
sba(irunmatrix
M3Element
p363
(dp364
g3
F1.5
sg4
S'Lite sannsynlig, Mulig'
p365
sg6
g36
sg8
(lp366
I1
aI2
asg10
S'Possible'
p367
sg12
S'Isolated'
p368
sg14
g15
sg16
I1
sg17
S'Low'
p369
sg19
S'Liten tilleggsbelastning'
p370
sg21
I2
sg22
S'200'
p371
sg24
S'200'
p372
sg26
S'Isolerte faresoner'
p373
sg28
g45
(g49
S'\x00\x00\x00\x00\x00\x00\xe0?'
p374
tp375
Rp376
sg29
g348
sg31
S'2 - Smaa'
p377
sba(irunmatrix
M3Element
p378
(dp379
g3
Nsg4
S'Lite sannsynlig, Mulig'
p380
sg6
S'white'
p381
sg8
(lp382
sg10
S'Possible'
p383
sg12
S'Isolated'
p384
sg14
g15
sg16
I1
sg17
S'Nat'
p385
sg19
S'Naturlig utloest'
p386
sg21
Nsg22
S'200'
p387
sg24
S'300'
p388
sg26
S'Isolerte faresoner'
p389
sg28
Nsg29
g348
sg31
S'2 - Smaa'
p390
sba(irunmatrix
M3Element
p391
(dp392
g3
Nsg4
S'Sannsynlig, Meget sannsynlig'
p393
sg6
S'gray'
p394
sg8
(lp395
sg10
S'Likely'
p396
sg12
S'Isolated'
p397
sg14
g76
sg16
I0
sg17
S'High'
p398
sg19
S'Stor tilleggsbelastning'
p399
sg21
Nsg22
S'200'
p400
sg24
S'400'
p401
sg26
S'Isolerte faresoner'
p402
sg28
Nsg29
g348
sg31
S'2 - Smaa'
p403
sba(irunmatrix
M3Element
p404
(dp405
g3
Nsg4
S'Sannsynlig, Meget sannsynlig'
p406
sg6
S'gray'
p407
sg8
(lp408
sg10
S'Likely'
p409
sg12
S'Isolated'
p410
sg14
g76
sg16
I0
sg17
S'Low'
p411
sg19
S'Liten tilleggsbelastning'
p412
sg21
Nsg22
S'200'
p413
sg24
S'500'
p414
sg26
S'Isolerte faresoner'
p415
sg28
Nsg29
g348
sg31
S'2 - Smaa'
p416
sba(irunmatrix
M3Element
p417
(dp418
g3
Nsg4
S'Sannsynlig, Meget sannsynlig'
p419
sg6
S'gray'
p420
sg8
(lp421
sg10
S'Likely'
p422
sg12
S'Isolated'
p423
sg14
g76
sg16
I0
sg17
S'Nat'
p424
sg19
S'Naturlig utloest'
p425
sg21
Nsg22
S'200'
p426
sg24
S'600'
p427
sg26
S'Isolerte faresoner'
p428
sg28
Nsg29
g348
sg31
S'2 - Smaa'
p429
sba(irunmatrix
M3Element
p430
(dp431
g3
F2.0
sg4
S'Lite sannsynlig, Mulig'
p432
sg6
g36
sg8
(lp433
I2
asg10
S'Possible'
p434
sg12
S'Some'
p435
sg14
g251
sg16
I2
sg17
S'High'
p436
sg19
S'Stor tilleggsbelastning'
p437
sg21
I1
sg22
S'200'
p438
sg24
S'700'
p439
sg26
S'Noen bratte heng'
p440
sg28
g45
(g49
S'\x00\x00\x00\x00\x00\x00\x00\x00'
p441
tp442
Rp443
sg29
g348
sg31
S'2 - Smaa'
p444
sba(irunmatrix
M3Element
p445
(dp446
g3
F2.0588235294117645
sg4
S'Lite sannsynlig, Mulig'
p447
sg6
g36
sg8
(lp448
I2
aI2
aI2
aI2
aI2
aI2
aI2
aI2
aI3
aI2
aI2
aI2
aI2
aI3
aI3
aI2
aI2
aI2
aI2
aI2
aI2
aI2
aI2
aI2
aI2
aI2
aI2
aI2
aI2
aI2
aI2
aI2
aI2
aI2
aI2
aI2
aI2
aI2
aI2
aI2
aI2
aI2
aI2
aI2
aI2
aI2
aI2
aI2
aI2
aI2
aI2
asg10
S'Possible'
p449
sg12
S'Some'
p450
sg14
g251
sg16
I2
sg17
S'Low'
p451
sg19
S'Liten tilleggsbelastning'
p452
sg21
I51
sg22
S'200'
p453
sg24
S'800'
p454
sg26
S'Noen bratte heng'
p455
sg28
g45
(g49
S'\x1d\x1e\x1e\x1e\x1e\x1e\xce?'
p456
tp457
Rp458
sg29
g348
sg31
S'2 - Smaa'
p459
sba(irunmatrix
M3Element
p460
(dp461
g3
F2.0
sg4
S'Lite sannsynlig, Mulig'
p462
sg6
g36
sg8
(lp463
I2
aI2
aI2
aI2
aI2
aI2
aI2
aI2
aI2
aI2
aI2
asg10
S'Possible'
p464
sg12
S'Some'
p465
sg14
g251
sg16
I2
sg17
S'Nat'
p466
sg19
S'Naturlig utloest'
p467
sg21
I11
sg22
S'200'
p468
sg24
S'900'
p469
sg26
S'Noen bratte heng'
p470
sg28
g45
(g49
S'\x00\x00\x00\x00\x00\x00\x00\x00'
p471
tp472
Rp473
sg29
g348
sg31
S'2 - Smaa'
p474
sba(irunmatrix
M3Element
p475
(dp476
g3
Nsg4
S'Sannsynlig, Meget sannsynlig'
p477
sg6
S'gray'
p478
sg8
(lp479
sg10
S'Likely'
p480
sg12
S'Some'
p481
sg14
g76
sg16
I0
sg17
S'High'
p482
sg19
S'Stor tilleggsbelastning'
p483
sg21
Nsg22
S'200'
p484
sg24
S'1000'
p485
sg26
S'Noen bratte heng'
p486
sg28
Nsg29
g348
sg31
S'2 - Smaa'
p487
sba(irunmatrix
M3Element
p488
(dp489
g3
Nsg4
S'Sannsynlig, Meget sannsynlig'
p490
sg6
S'gray'
p491
sg8
(lp492
sg10
S'Likely'
p493
sg12
S'Some'
p494
sg14
g76
sg16
I0
sg17
S'Low'
p495
sg19
S'Liten tilleggsbelastning'
p496
sg21
Nsg22
S'200'
p497
sg24
S'1100'
p498
sg26
S'Noen bratte heng'
p499
sg28
Nsg29
g348
sg31
S'2 - Smaa'
p500
sba(irunmatrix
M3Element
p501
(dp502
g3
Nsg4
S'Sannsynlig, Meget sannsynlig'
p503
sg6
S'white'
p504
sg8
(lp505
sg10
S'Likely'
p506
sg12
S'Some'
p507
sg14
S'#ff9900'
p508
sg16
I3
sg17
S'Nat'
p509
sg19
S'Naturlig utloest'
p510
sg21
Nsg22
S'200'
p511
sg24
S'1200'
p512
sg26
S'Noen bratte heng'
p513
sg28
Nsg29
g348
sg31
S'2 - Smaa'
p514
sba(irunmatrix
M3Element
p515
(dp516
g3
Nsg4
S'Lite sannsynlig, Mulig'
p517
sg6
S'gray'
p518
sg8
(lp519
sg10
S'Possible'
p520
sg12
S'Many'
p521
sg14
g76
sg16
I0
sg17
S'High'
p522
sg19
S'Stor tilleggsbelastning'
p523
sg21
Nsg22
S'200'
p524
sg24
S'1300'
p525
sg26
S'Mange bratte heng'
p526
sg28
Nsg29
g348
sg31
S'2 - Smaa'
p527
sba(irunmatrix
M3Element
p528
(dp529
g3
Nsg4
S'Lite sannsynlig, Mulig'
p530
sg6
S'white'
p531
sg8
(lp532
sg10
S'Possible'
p533
sg12
S'Many'
p534
sg14
g508
sg16
I3
sg17
S'Low'
p535
sg19
S'Liten tilleggsbelastning'
p536
sg21
Nsg22
S'200'
p537
sg24
S'1400'
p538
sg26
S'Mange bratte heng'
p539
sg28
Nsg29
g348
sg31
S'2 - Smaa'
p540
sba(irunmatrix
M3Element
p541
(dp542
g3
Nsg4
S'Lite sannsynlig, Mulig'
p543
sg6
S'gray'
p544
sg8
(lp545
sg10
S'Possible'
p546
sg12
S'Many'
p547
sg14
g76
sg16
I0
sg17
S'Nat'
p548
sg19
S'Naturlig utloest'
p549
sg21
Nsg22
S'200'
p550
sg24
S'1500'
p551
sg26
S'Mange bratte heng'
p552
sg28
Nsg29
g348
sg31
S'2 - Smaa'
p553
sba(irunmatrix
M3Element
p554
(dp555
g3
Nsg4
S'Sannsynlig, Meget sannsynlig'
p556
sg6
S'gray'
p557
sg8
(lp558
sg10
S'Likely'
p559
sg12
S'Many'
p560
sg14
g76
sg16
I0
sg17
S'High'
p561
sg19
S'Stor tilleggsbelastning'
p562
sg21
Nsg22
S'200'
p563
sg24
S'1600'
p564
sg26
S'Mange bratte heng'
p565
sg28
Nsg29
g348
sg31
S'2 - Smaa'
p566
sba(irunmatrix
M3Element
p567
(dp568
g3
Nsg4
S'Sannsynlig, Meget sannsynlig'
p569
sg6
S'white'
p570
sg8
(lp571
sg10
S'Likely'
p572
sg12
S'Many'
p573
sg14
S'#ff0000'
p574
sg16
I4
sg17
S'Low'
p575
sg19
S'Liten tilleggsbelastning'
p576
sg21
Nsg22
S'200'
p577
sg24
S'1700'
p578
sg26
S'Mange bratte heng'
p579
sg28
Nsg29
g348
sg31
S'2 - Smaa'
p580
sba(irunmatrix
M3Element
p581
(dp582
g3
Nsg4
S'Sannsynlig, Meget sannsynlig'
p583
sg6
S'white'
p584
sg8
(lp585
sg10
S'Likely'
p586
sg12
S'Many'
p587
sg14
g574
sg16
I4
sg17
S'Nat'
p588
sg19
S'Naturlig utloest'
p589
sg21
Nsg22
S'200'
p590
sg24
S'1800'
p591
sg26
S'Mange bratte heng'
p592
sg28
Nsg29
g348
sg31
S'2 - Smaa'
p593
sba(irunmatrix
M3Element
p594
(dp595
g3
Nsg4
S'Lite sannsynlig, Mulig'
p596
sg6
S'gray'
p597
sg8
(lp598
sg10
S'Possible'
p599
sg12
S'Most'
p600
sg14
g76
sg16
I0
sg17
S'High'
p601
sg19
S'Stor tilleggsbelastning'
p602
sg21
Nsg22
S'200'
p603
sg24
S'1900'
p604
sg26
S'De fleste bratte heng, Ogsaa i mindre bratt terreng'
p605
sg28
Nsg29
g348
sg31
S'2 - Smaa'
p606
sba(irunmatrix
M3Element
p607
(dp608
g3
Nsg4
S'Lite sannsynlig, Mulig'
p609
sg6
S'gray'
p610
sg8
(lp611
sg10
S'Possible'
p612
sg12
S'Most'
p613
sg14
g76
sg16
I0
sg17
S'Low'
p614
sg19
S'Liten tilleggsbelastning'
p615
sg21
Nsg22
S'200'
p616
sg24
S'2000'
p617
sg26
S'De fleste bratte heng, Ogsaa i mindre bratt terreng'
p618
sg28
Nsg29
g348
sg31
S'2 - Smaa'
p619
sba(irunmatrix
M3Element
p620
(dp621
g3
Nsg4
S'Lite sannsynlig, Mulig'
p622
sg6
S'gray'
p623
sg8
(lp624
sg10
S'Possible'
p625
sg12
S'Most'
p626
sg14
g76
sg16
I0
sg17
S'Nat'
p627
sg19
S'Naturlig utloest'
p628
sg21
Nsg22
S'200'
p629
sg24
S'2100'
p630
sg26
S'De fleste bratte heng, Ogsaa i mindre bratt terreng'
p631
sg28
Nsg29
g348
sg31
S'2 - Smaa'
p632
sba(irunmatrix
M3Element
p633
(dp634
g3
Nsg4
S'Sannsynlig, Meget sannsynlig'
p635
sg6
S'gray'
p636
sg8
(lp637
sg10
S'Likely'
p638
sg12
S'Most'
p639
sg14
g76
sg16
I0
sg17
S'High'
p640
sg19
S'Stor tilleggsbelastning'
p641
sg21
Nsg22
S'200'
p642
sg24
S'2200'
p643
sg26
S'De fleste bratte heng, Ogsaa i mindre bratt terreng'
p644
sg28
Nsg29
g348
sg31
S'2 - Smaa'
p645
sba(irunmatrix
M3Element
p646
(dp647
g3
Nsg4
S'Sannsynlig, Meget sannsynlig'
p648
sg6
S'gray'
p649
sg8
(lp650
sg10
S'Likely'
p651
sg12
S'Most'
p652
sg14
g76
sg16
I0
sg17
S'Low'
p653
sg19
S'Liten tilleggsbelastning'
p654
sg21
Nsg22
S'200'
p655
sg24
S'2300'
p656
sg26
S'De fleste bratte heng, Ogsaa i mindre bratt terreng'
p657
sg28
Nsg29
g348
sg31
S'2 - Smaa'
p658
sba(irunmatrix
M3Element
p659
(dp660
g3
Nsg4
S'Sannsynlig, Meget sannsynlig'
p661
sg6
S'white'
p662
sg8
(lp663
sg10
S'Likely'
p664
sg12
S'Most'
p665
sg14
g76
sg16
I0
sg17
S'Nat'
p666
sg19
S'Naturlig utloest'
p667
sg21
Nsg22
S'200'
p668
sg24
S'2400'
p669
sg26
S'De fleste bratte heng, Ogsaa i mindre bratt terreng'
p670
sg28
Nsg29
g348
sg31
S'2 - Smaa'
p671
sba(irunmatrix
M3Element
p672
(dp673
g3
Nsg4
S'Lite sannsynlig, Mulig'
p674
sg6
S'white'
p675
sg8
(lp676
sg10
S'Possible'
p677
sg12
S'Isolated'
p678
sg14
g15
sg16
I1
sg17
S'High'
p679
sg19
S'Stor tilleggsbelastning'
p680
sg21
Nsg22
S'300'
p681
sg24
S'100'
p682
sg26
S'Isolerte faresoner'
p683
sg28
Nsg29
S'3'
p684
sg31
S'3 - Middels'
p685
sba(irunmatrix
M3Element
p686
(dp687
g3
F2.0
sg4
S'Lite sannsynlig, Mulig'
p688
sg6
g36
sg8
(lp689
I2
aI2
asg10
S'Possible'
p690
sg12
S'Isolated'
p691
sg14
g251
sg16
I2
sg17
S'Low'
p692
sg19
S'Liten tilleggsbelastning'
p693
sg21
I2
sg22
S'300'
p694
sg24
S'200'
p695
sg26
S'Isolerte faresoner'
p696
sg28
g45
(g49
S'\x00\x00\x00\x00\x00\x00\x00\x00'
p697
tp698
Rp699
sg29
g684
sg31
S'3 - Middels'
p700
sba(irunmatrix
M3Element
p701
(dp702
g3
F1.4
sg4
S'Lite sannsynlig, Mulig'
p703
sg6
g112
sg8
(lp704
I2
aI2
aI1
aI1
aI1
asg10
S'Possible'
p705
sg12
S'Isolated'
p706
sg14
g251
sg16
I2
sg17
S'Nat'
p707
sg19
S'Naturlig utloest'
p708
sg21
I5
sg22
S'300'
p709
sg24
S'300'
p710
sg26
S'Isolerte faresoner'
p711
sg28
g45
(g49
S'Jh\xdb\xec|Z\xdf?'
p712
tp713
Rp714
sg29
g684
sg31
S'3 - Middels'
p715
sba(irunmatrix
M3Element
p716
(dp717
g3
Nsg4
S'Sannsynlig, Meget sannsynlig'
p718
sg6
S'gray'
p719
sg8
(lp720
sg10
S'Likely'
p721
sg12
S'Isolated'
p722
sg14
g76
sg16
I0
sg17
S'High'
p723
sg19
S'Stor tilleggsbelastning'
p724
sg21
Nsg22
S'300'
p725
sg24
S'400'
p726
sg26
S'Isolerte faresoner'
p727
sg28
Nsg29
g684
sg31
S'3 - Middels'
p728
sba(irunmatrix
M3Element
p729
(dp730
g3
Nsg4
S'Sannsynlig, Meget sannsynlig'
p731
sg6
S'gray'
p732
sg8
(lp733
sg10
S'Likely'
p734
sg12
S'Isolated'
p735
sg14
g76
sg16
I0
sg17
S'Low'
p736
sg19
S'Liten tilleggsbelastning'
p737
sg21
Nsg22
S'300'
p738
sg24
S'500'
p739
sg26
S'Isolerte faresoner'
p740
sg28
Nsg29
g684
sg31
S'3 - Middels'
p741
sba(irunmatrix
M3Element
p742
(dp743
g3
Nsg4
S'Sannsynlig, Meget sannsynlig'
p744
sg6
S'gray'
p745
sg8
(lp746
sg10
S'Likely'
p747
sg12
S'Isolated'
p748
sg14
g76
sg16
I0
sg17
S'Nat'
p749
sg19
S'Naturlig utloest'
p750
sg21
Nsg22
S'300'
p751
sg24
S'600'
p752
sg26
S'Isolerte faresoner'
p753
sg28
Nsg29
g684
sg31
S'3 - Middels'
p754
sba(irunmatrix
M3Element
p755
(dp756
g3
Nsg4
S'Lite sannsynlig, Mulig'
p757
sg6
S'white'
p758
sg8
(lp759
sg10
S'Possible'
p760
sg12
S'Some'
p761
sg14
g251
sg16
I2
sg17
S'High'
p762
sg19
S'Stor tilleggsbelastning'
p763
sg21
Nsg22
S'300'
p764
sg24
S'700'
p765
sg26
S'Noen bratte heng'
p766
sg28
Nsg29
g684
sg31
S'3 - Middels'
p767
sba(irunmatrix
M3Element
p768
(dp769
g3
F3.0
sg4
S'Lite sannsynlig, Mulig'
p770
sg6
S'#ff9900'
p771
sg8
(lp772
I3
aI3
aI3
aI3
aI3
aI3
aI3
aI3
aI3
aI3
aI3
aI3
aI3
aI3
aI3
aI3
aI3
aI3
aI3
aI3
aI3
aI3
aI3
aI3
aI3
aI3
aI3
aI3
asg10
S'Possible'
p773
sg12
S'Some'
p774
sg14
g508
sg16
I3
sg17
S'Low'
p775
sg19
S'Liten tilleggsbelastning'
p776
sg21
I28
sg22
S'300'
p777
sg24
S'800'
p778
sg26
S'Noen bratte heng'
p779
sg28
g45
(g49
S'\x00\x00\x00\x00\x00\x00\x00\x00'
p780
tp781
Rp782
sg29
g684
sg31
S'3 - Middels'
p783
sba(irunmatrix
M3Element
p784
(dp785
g3
Nsg4
S'Lite sannsynlig, Mulig'
p786
sg6
S'white'
p787
sg8
(lp788
sg10
S'Possible'
p789
sg12
S'Some'
p790
sg14
g508
sg16
I3
sg17
S'Nat'
p791
sg19
S'Naturlig utloest'
p792
sg21
Nsg22
S'300'
p793
sg24
S'900'
p794
sg26
S'Noen bratte heng'
p795
sg28
Nsg29
g684
sg31
S'3 - Middels'
p796
sba(irunmatrix
M3Element
p797
(dp798
g3
Nsg4
S'Sannsynlig, Meget sannsynlig'
p799
sg6
S'gray'
p800
sg8
(lp801
sg10
S'Likely'
p802
sg12
S'Some'
p803
sg14
g76
sg16
I0
sg17
S'High'
p804
sg19
S'Stor tilleggsbelastning'
p805
sg21
Nsg22
S'300'
p806
sg24
S'1000'
p807
sg26
S'Noen bratte heng'
p808
sg28
Nsg29
g684
sg31
S'3 - Middels'
p809
sba(irunmatrix
M3Element
p810
(dp811
g3
Nsg4
S'Sannsynlig, Meget sannsynlig'
p812
sg6
S'gray'
p813
sg8
(lp814
sg10
S'Likely'
p815
sg12
S'Some'
p816
sg14
g76
sg16
I0
sg17
S'Low'
p817
sg19
S'Liten tilleggsbelastning'
p818
sg21
Nsg22
S'300'
p819
sg24
S'1100'
p820
sg26
S'Noen bratte heng'
p821
sg28
Nsg29
g684
sg31
S'3 - Middels'
p822
sba(irunmatrix
M3Element
p823
(dp824
g3
Nsg4
S'Sannsynlig, Meget sannsynlig'
p825
sg6
S'white'
p826
sg8
(lp827
sg10
S'Likely'
p828
sg12
S'Some'
p829
sg14
g574
sg16
I4
sg17
S'Nat'
p830
sg19
S'Naturlig utloest'
p831
sg21
Nsg22
S'300'
p832
sg24
S'1200'
p833
sg26
S'Noen bratte heng'
p834
sg28
Nsg29
g684
sg31
S'3 - Middels'
p835
sba(irunmatrix
M3Element
p836
(dp837
g3
Nsg4
S'Lite sannsynlig, Mulig'
p838
sg6
S'gray'
p839
sg8
(lp840
sg10
S'Possible'
p841
sg12
S'Many'
p842
sg14
g76
sg16
I0
sg17
S'High'
p843
sg19
S'Stor tilleggsbelastning'
p844
sg21
Nsg22
S'300'
p845
sg24
S'1300'
p846
sg26
S'Mange bratte heng'
p847
sg28
Nsg29
g684
sg31
S'3 - Middels'
p848
sba(irunmatrix
M3Element
p849
(dp850
g3
Nsg4
S'Lite sannsynlig, Mulig'
p851
sg6
S'white'
p852
sg8
(lp853
sg10
S'Possible'
p854
sg12
S'Many'
p855
sg14
g574
sg16
I4
sg17
S'Low'
p856
sg19
S'Liten tilleggsbelastning'
p857
sg21
Nsg22
S'300'
p858
sg24
S'1400'
p859
sg26
S'Mange bratte heng'
p860
sg28
Nsg29
g684
sg31
S'3 - Middels'
p861
sba(irunmatrix
M3Element
p862
(dp863
g3
Nsg4
S'Lite sannsynlig, Mulig'
p864
sg6
S'gray'
p865
sg8
(lp866
sg10
S'Possible'
p867
sg12
S'Many'
p868
sg14
g76
sg16
I0
sg17
S'Nat'
p869
sg19
S'Naturlig utloest'
p870
sg21
Nsg22
S'300'
p871
sg24
S'1500'
p872
sg26
S'Mange bratte heng'
p873
sg28
Nsg29
g684
sg31
S'3 - Middels'
p874
sba(irunmatrix
M3Element
p875
(dp876
g3
Nsg4
S'Sannsynlig, Meget sannsynlig'
p877
sg6
S'gray'
p878
sg8
(lp879
sg10
S'Likely'
p880
sg12
S'Many'
p881
sg14
g76
sg16
I0
sg17
S'High'
p882
sg19
S'Stor tilleggsbelastning'
p883
sg21
Nsg22
S'300'
p884
sg24
S'1600'
p885
sg26
S'Mange bratte heng'
p886
sg28
Nsg29
g684
sg31
S'3 - Middels'
p887
sba(irunmatrix
M3Element
p888
(dp889
g3
Nsg4
S'Sannsynlig, Meget sannsynlig'
p890
sg6
S'white'
p891
sg8
(lp892
sg10
S'Likely'
p893
sg12
S'Many'
p894
sg14
g574
sg16
I4
sg17
S'Low'
p895
sg19
S'Liten tilleggsbelastning'
p896
sg21
Nsg22
S'300'
p897
sg24
S'1700'
p898
sg26
S'Mange bratte heng'
p899
sg28
Nsg29
g684
sg31
S'3 - Middels'
p900
sba(irunmatrix
M3Element
p901
(dp902
g3
Nsg4
S'Sannsynlig, Meget sannsynlig'
p903
sg6
S'white'
p904
sg8
(lp905
sg10
S'Likely'
p906
sg12
S'Many'
p907
sg14
g574
sg16
I4
sg17
S'Nat'
p908
sg19
S'Naturlig utloest'
p909
sg21
Nsg22
S'300'
p910
sg24
S'1800'
p911
sg26
S'Mange bratte heng'
p912
sg28
Nsg29
g684
sg31
S'3 - Middels'
p913
sba(irunmatrix
M3Element
p914
(dp915
g3
Nsg4
S'Lite sannsynlig, Mulig'
p916
sg6
S'gray'
p917
sg8
(lp918
sg10
S'Possible'
p919
sg12
S'Most'
p920
sg14
g76
sg16
I0
sg17
S'High'
p921
sg19
S'Stor tilleggsbelastning'
p922
sg21
Nsg22
S'300'
p923
sg24
S'1900'
p924
sg26
S'De fleste bratte heng, Ogsaa i mindre bratt terreng'
p925
sg28
Nsg29
g684
sg31
S'3 - Middels'
p926
sba(irunmatrix
M3Element
p927
(dp928
g3
Nsg4
S'Lite sannsynlig, Mulig'
p929
sg6
S'gray'
p930
sg8
(lp931
sg10
S'Possible'
p932
sg12
S'Most'
p933
sg14
g76
sg16
I0
sg17
S'Low'
p934
sg19
S'Liten tilleggsbelastning'
p935
sg21
Nsg22
S'300'
p936
sg24
S'2000'
p937
sg26
S'De fleste bratte heng, Ogsaa i mindre bratt terreng'
p938
sg28
Nsg29
g684
sg31
S'3 - Middels'
p939
sba(irunmatrix
M3Element
p940
(dp941
g3
Nsg4
S'Lite sannsynlig, Mulig'
p942
sg6
S'gray'
p943
sg8
(lp944
sg10
S'Possible'
p945
sg12
S'Most'
p946
sg14
g76
sg16
I0
sg17
S'Nat'
p947
sg19
S'Naturlig utloest'
p948
sg21
Nsg22
S'300'
p949
sg24
S'2100'
p950
sg26
S'De fleste bratte heng, Ogsaa i mindre bratt terreng'
p951
sg28
Nsg29
g684
sg31
S'3 - Middels'
p952
sba(irunmatrix
M3Element
p953
(dp954
g3
Nsg4
S'Sannsynlig, Meget sannsynlig'
p955
sg6
S'gray'
p956
sg8
(lp957
sg10
S'Likely'
p958
sg12
S'Most'
p959
sg14
g76
sg16
I0
sg17
S'High'
p960
sg19
S'Stor tilleggsbelastning'
p961
sg21
Nsg22
S'300'
p962
sg24
S'2200'
p963
sg26
S'De fleste bratte heng, Ogsaa i mindre bratt terreng'
p964
sg28
Nsg29
g684
sg31
S'3 - Middels'
p965
sba(irunmatrix
M3Element
p966
(dp967
g3
Nsg4
S'Sannsynlig, Meget sannsynlig'
p968
sg6
S'gray'
p969
sg8
(lp970
sg10
S'Likely'
p971
sg12
S'Most'
p972
sg14
g76
sg16
I0
sg17
S'Low'
p973
sg19
S'Liten tilleggsbelastning'
p974
sg21
Nsg22
S'300'
p975
sg24
S'2300'
p976
sg26
S'De fleste bratte heng, Ogsaa i mindre bratt terreng'
p977
sg28
Nsg29
g684
sg31
S'3 - Middels'
p978
sba(irunmatrix
M3Element
p979
(dp980
g3
Nsg4
S'Sannsynlig, Meget sannsynlig'
p981
sg6
S'white'
p982
sg8
(lp983
sg10
S'Likely'
p984
sg12
S'Most'
p985
sg14
g76
sg16
I0
sg17
S'Nat'
p986
sg19
S'Naturlig utloest'
p987
sg21
Nsg22
S'300'
p988
sg24
S'2400'
p989
sg26
S'De fleste bratte heng, Ogsaa i mindre bratt terreng'
p990
sg28
Nsg29
g684
sg31
S'3 - Middels'
p991
sba(irunmatrix
M3Element
p992
(dp993
g3
Nsg4
S'Lite sannsynlig, Mulig'
p994
sg6
S'white'
p995
sg8
(lp996
sg10
S'Possible'
p997
sg12
S'Isolated'
p998
sg14
g251
sg16
I2
sg17
S'High'
p999
sg19
S'Stor tilleggsbelastning'
p1000
sg21
Nsg22
S'400'
p1001
sg24
S'100'
p1002
sg26
S'Isolerte faresoner'
p1003
sg28
Nsg29
S'4'
p1004
sg31
S'4 - Store'
p1005
sba(irunmatrix
M3Element
p1006
(dp1007
g3
Nsg4
S'Lite sannsynlig, Mulig'
p1008
sg6
S'white'
p1009
sg8
(lp1010
sg10
S'Possible'
p1011
sg12
S'Isolated'
p1012
sg14
g508
sg16
I3
sg17
S'Low'
p1013
sg19
S'Liten tilleggsbelastning'
p1014
sg21
Nsg22
S'400'
p1015
sg24
S'200'
p1016
sg26
S'Isolerte faresoner'
p1017
sg28
Nsg29
g1004
sg31
S'4 - Store'
p1018
sba(irunmatrix
M3Element
p1019
(dp1020
g3
Nsg4
S'Lite sannsynlig, Mulig'
p1021
sg6
S'white'
p1022
sg8
(lp1023
sg10
S'Possible'
p1024
sg12
S'Isolated'
p1025
sg14
g508
sg16
I3
sg17
S'Nat'
p1026
sg19
S'Naturlig utloest'
p1027
sg21
Nsg22
S'400'
p1028
sg24
S'300'
p1029
sg26
S'Isolerte faresoner'
p1030
sg28
Nsg29
g1004
sg31
S'4 - Store'
p1031
sba(irunmatrix
M3Element
p1032
(dp1033
g3
Nsg4
S'Sannsynlig, Meget sannsynlig'
p1034
sg6
S'gray'
p1035
sg8
(lp1036
sg10
S'Likely'
p1037
sg12
S'Isolated'
p1038
sg14
g76
sg16
I0
sg17
S'High'
p1039
sg19
S'Stor tilleggsbelastning'
p1040
sg21
Nsg22
S'400'
p1041
sg24
S'400'
p1042
sg26
S'Isolerte faresoner'
p1043
sg28
Nsg29
g1004
sg31
S'4 - Store'
p1044
sba(irunmatrix
M3Element
p1045
(dp1046
g3
Nsg4
S'Sannsynlig, Meget sannsynlig'
p1047
sg6
S'gray'
p1048
sg8
(lp1049
sg10
S'Likely'
p1050
sg12
S'Isolated'
p1051
sg14
g76
sg16
I0
sg17
S'Low'
p1052
sg19
S'Liten tilleggsbelastning'
p1053
sg21
Nsg22
S'400'
p1054
sg24
S'500'
p1055
sg26
S'Isolerte faresoner'
p1056
sg28
Nsg29
g1004
sg31
S'4 - Store'
p1057
sba(irunmatrix
M3Element
p1058
(dp1059
g3
Nsg4
S'Sannsynlig, Meget sannsynlig'
p1060
sg6
S'gray'
p1061
sg8
(lp1062
sg10
S'Likely'
p1063
sg12
S'Isolated'
p1064
sg14
g76
sg16
I0
sg17
S'Nat'
p1065
sg19
S'Naturlig utloest'
p1066
sg21
Nsg22
S'400'
p1067
sg24
S'600'
p1068
sg26
S'Isolerte faresoner'
p1069
sg28
Nsg29
g1004
sg31
S'4 - Store'
p1070
sba(irunmatrix
M3Element
p1071
(dp1072
g3
Nsg4
S'Lite sannsynlig, Mulig'
p1073
sg6
S'white'
p1074
sg8
(lp1075
sg10
S'Possible'
p1076
sg12
S'Some'
p1077
sg14
g508
sg16
I3
sg17
S'High'
p1078
sg19
S'Stor tilleggsbelastning'
p1079
sg21
Nsg22
S'400'
p1080
sg24
S'700'
p1081
sg26
S'Noen bratte heng'
p1082
sg28
Nsg29
g1004
sg31
S'4 - Store'
p1083
sba(irunmatrix
M3Element
p1084
(dp1085
g3
Nsg4
S'Lite sannsynlig, Mulig'
p1086
sg6
S'white'
p1087
sg8
(lp1088
sg10
S'Possible'
p1089
sg12
S'Some'
p1090
sg14
g574
sg16
I4
sg17
S'Low'
p1091
sg19
S'Liten tilleggsbelastning'
p1092
sg21
Nsg22
S'400'
p1093
sg24
S'800'
p1094
sg26
S'Noen bratte heng'
p1095
sg28
Nsg29
g1004
sg31
S'4 - Store'
p1096
sba(irunmatrix
M3Element
p1097
(dp1098
g3
F4.0
sg4
S'Lite sannsynlig, Mulig'
p1099
sg6
S'#ff0000'
p1100
sg8
(lp1101
I4
asg10
S'Possible'
p1102
sg12
S'Some'
p1103
sg14
g574
sg16
I4
sg17
S'Nat'
p1104
sg19
S'Naturlig utloest'
p1105
sg21
I1
sg22
S'400'
p1106
sg24
S'900'
p1107
sg26
S'Noen bratte heng'
p1108
sg28
g45
(g49
S'\x00\x00\x00\x00\x00\x00\x00\x00'
p1109
tp1110
Rp1111
sg29
g1004
sg31
S'4 - Store'
p1112
sba(irunmatrix
M3Element
p1113
(dp1114
g3
Nsg4
S'Sannsynlig, Meget sannsynlig'
p1115
sg6
S'gray'
p1116
sg8
(lp1117
sg10
S'Likely'
p1118
sg12
S'Some'
p1119
sg14
g76
sg16
I0
sg17
S'High'
p1120
sg19
S'Stor tilleggsbelastning'
p1121
sg21
Nsg22
S'400'
p1122
sg24
S'1000'
p1123
sg26
S'Noen bratte heng'
p1124
sg28
Nsg29
g1004
sg31
S'4 - Store'
p1125
sba(irunmatrix
M3Element
p1126
(dp1127
g3
Nsg4
S'Sannsynlig, Meget sannsynlig'
p1128
sg6
S'gray'
p1129
sg8
(lp1130
sg10
S'Likely'
p1131
sg12
S'Some'
p1132
sg14
g76
sg16
I0
sg17
S'Low'
p1133
sg19
S'Liten tilleggsbelastning'
p1134
sg21
Nsg22
S'400'
p1135
sg24
S'1100'
p1136
sg26
S'Noen bratte heng'
p1137
sg28
Nsg29
g1004
sg31
S'4 - Store'
p1138
sba(irunmatrix
M3Element
p1139
(dp1140
g3
Nsg4
S'Sannsynlig, Meget sannsynlig'
p1141
sg6
S'white'
p1142
sg8
(lp1143
sg10
S'Likely'
p1144
sg12
S'Some'
p1145
sg14
g574
sg16
I4
sg17
S'Nat'
p1146
sg19
S'Naturlig utloest'
p1147
sg21
Nsg22
S'400'
p1148
sg24
S'1200'
p1149
sg26
S'Noen bratte heng'
p1150
sg28
Nsg29
g1004
sg31
S'4 - Store'
p1151
sba(irunmatrix
M3Element
p1152
(dp1153
g3
Nsg4
S'Lite sannsynlig, Mulig'
p1154
sg6
S'gray'
p1155
sg8
(lp1156
sg10
S'Possible'
p1157
sg12
S'Many'
p1158
sg14
g76
sg16
I0
sg17
S'High'
p1159
sg19
S'Stor tilleggsbelastning'
p1160
sg21
Nsg22
S'400'
p1161
sg24
S'1300'
p1162
sg26
S'Mange bratte heng'
p1163
sg28
Nsg29
g1004
sg31
S'4 - Store'
p1164
sba(irunmatrix
M3Element
p1165
(dp1166
g3
Nsg4
S'Lite sannsynlig, Mulig'
p1167
sg6
S'white'
p1168
sg8
(lp1169
sg10
S'Possible'
p1170
sg12
S'Many'
p1171
sg14
g76
sg16
I0
sg17
S'Low'
p1172
sg19
S'Liten tilleggsbelastning'
p1173
sg21
Nsg22
S'400'
p1174
sg24
S'1400'
p1175
sg26
S'Mange bratte heng'
p1176
sg28
Nsg29
g1004
sg31
S'4 - Store'
p1177
sba(irunmatrix
M3Element
p1178
(dp1179
g3
Nsg4
S'Lite sannsynlig, Mulig'
p1180
sg6
S'gray'
p1181
sg8
(lp1182
sg10
S'Possible'
p1183
sg12
S'Many'
p1184
sg14
g76
sg16
I0
sg17
S'Nat'
p1185
sg19
S'Naturlig utloest'
p1186
sg21
Nsg22
S'400'
p1187
sg24
S'1500'
p1188
sg26
S'Mange bratte heng'
p1189
sg28
Nsg29
g1004
sg31
S'4 - Store'
p1190
sba(irunmatrix
M3Element
p1191
(dp1192
g3
Nsg4
S'Sannsynlig, Meget sannsynlig'
p1193
sg6
S'gray'
p1194
sg8
(lp1195
sg10
S'Likely'
p1196
sg12
S'Many'
p1197
sg14
g76
sg16
I0
sg17
S'High'
p1198
sg19
S'Stor tilleggsbelastning'
p1199
sg21
Nsg22
S'400'
p1200
sg24
S'1600'
p1201
sg26
S'Mange bratte heng'
p1202
sg28
Nsg29
g1004
sg31
S'4 - Store'
p1203
sba(irunmatrix
M3Element
p1204
(dp1205
g3
Nsg4
S'Sannsynlig, Meget sannsynlig'
p1206
sg6
S'white'
p1207
sg8
(lp1208
sg10
S'Likely'
p1209
sg12
S'Many'
p1210
sg14
g76
sg16
I0
sg17
S'Low'
p1211
sg19
S'Liten tilleggsbelastning'
p1212
sg21
Nsg22
S'400'
p1213
sg24
S'1700'
p1214
sg26
S'Mange bratte heng'
p1215
sg28
Nsg29
g1004
sg31
S'4 - Store'
p1216
sba(irunmatrix
M3Element
p1217
(dp1218
g3
Nsg4
S'Sannsynlig, Meget sannsynlig'
p1219
sg6
S'white'
p1220
sg8
(lp1221
sg10
S'Likely'
p1222
sg12
S'Many'
p1223
sg14
S'k'
p1224
sg16
I5
sg17
S'Nat'
p1225
sg19
S'Naturlig utloest'
p1226
sg21
Nsg22
S'400'
p1227
sg24
S'1800'
p1228
sg26
S'Mange bratte heng'
p1229
sg28
Nsg29
g1004
sg31
S'4 - Store'
p1230
sba(irunmatrix
M3Element
p1231
(dp1232
g3
Nsg4
S'Lite sannsynlig, Mulig'
p1233
sg6
S'gray'
p1234
sg8
(lp1235
sg10
S'Possible'
p1236
sg12
S'Most'
p1237
sg14
g76
sg16
I0
sg17
S'High'
p1238
sg19
S'Stor tilleggsbelastning'
p1239
sg21
Nsg22
S'400'
p1240
sg24
S'1900'
p1241
sg26
S'De fleste bratte heng, Ogsaa i mindre bratt terreng'
p1242
sg28
Nsg29
g1004
sg31
S'4 - Store'
p1243
sba(irunmatrix
M3Element
p1244
(dp1245
g3
Nsg4
S'Lite sannsynlig, Mulig'
p1246
sg6
S'gray'
p1247
sg8
(lp1248
sg10
S'Possible'
p1249
sg12
S'Most'
p1250
sg14
g76
sg16
I0
sg17
S'Low'
p1251
sg19
S'Liten tilleggsbelastning'
p1252
sg21
Nsg22
S'400'
p1253
sg24
S'2000'
p1254
sg26
S'De fleste bratte heng, Ogsaa i mindre bratt terreng'
p1255
sg28
Nsg29
g1004
sg31
S'4 - Store'
p1256
sba(irunmatrix
M3Element
p1257
(dp1258
g3
Nsg4
S'Lite sannsynlig, Mulig'
p1259
sg6
S'gray'
p1260
sg8
(lp1261
sg10
S'Possible'
p1262
sg12
S'Most'
p1263
sg14
g76
sg16
I0
sg17
S'Nat'
p1264
sg19
S'Naturlig utloest'
p1265
sg21
Nsg22
S'400'
p1266
sg24
S'2100'
p1267
sg26
S'De fleste bratte heng, Ogsaa i mindre bratt terreng'
p1268
sg28
Nsg29
g1004
sg31
S'4 - Store'
p1269
sba(irunmatrix
M3Element
p1270
(dp1271
g3
Nsg4
S'Sannsynlig, Meget sannsynlig'
p1272
sg6
S'gray'
p1273
sg8
(lp1274
sg10
S'Likely'
p1275
sg12
S'Most'
p1276
sg14
g76
sg16
I0
sg17
S'High'
p1277
sg19
S'Stor tilleggsbelastning'
p1278
sg21
Nsg22
S'400'
p1279
sg24
S'2200'
p1280
sg26
S'De fleste bratte heng, Ogsaa i mindre bratt terreng'
p1281
sg28
Nsg29
g1004
sg31
S'4 - Store'
p1282
sba(irunmatrix
M3Element
p1283
(dp1284
g3
Nsg4
S'Sannsynlig, Meget sannsynlig'
p1285
sg6
S'gray'
p1286
sg8
(lp1287
sg10
S'Likely'
p1288
sg12
S'Most'
p1289
sg14
g76
sg16
I0
sg17
S'Low'
p1290
sg19
S'Liten tilleggsbelastning'
p1291
sg21
Nsg22
S'400'
p1292
sg24
S'2300'
p1293
sg26
S'De fleste bratte heng, Ogsaa i mindre bratt terreng'
p1294
sg28
Nsg29
g1004
sg31
S'4 - Store'
p1295
sba(irunmatrix
M3Element
p1296
(dp1297
g3
Nsg4
S'Sannsynlig, Meget sannsynlig'
p1298
sg6
S'white'
p1299
sg8
(lp1300
sg10
S'Likely'
p1301
sg12
S'Most'
p1302
sg14
g76
sg16
I0
sg17
S'Nat'
p1303
sg19
S'Naturlig utloest'
p1304
sg21
Nsg22
S'400'
p1305
sg24
S'2400'
p1306
sg26
S'De fleste bratte heng, Ogsaa i mindre bratt terreng'
p1307
sg28
Nsg29
g1004
sg31
S'4 - Store'
p1308
sba(irunmatrix
M3Element
p1309
(dp1310
g3
Nsg4
S'Lite sannsynlig, Mulig'
p1311
sg6
S'white'
p1312
sg8
(lp1313
sg10
S'Possible'
p1314
sg12
S'Isolated'
p1315
sg14
g76
sg16
I0
sg17
S'High'
p1316
sg19
S'Stor tilleggsbelastning'
p1317
sg21
Nsg22
S'500'
p1318
sg24
S'100'
p1319
sg26
S'Isolerte faresoner'
p1320
sg28
Nsg29
S'5'
p1321
sg31
S'5 - Svaert store'
p1322
sba(irunmatrix
M3Element
p1323
(dp1324
g3
Nsg4
S'Lite sannsynlig, Mulig'
p1325
sg6
S'white'
p1326
sg8
(lp1327
sg10
S'Possible'
p1328
sg12
S'Isolated'
p1329
sg14
g76
sg16
I0
sg17
S'Low'
p1330
sg19
S'Liten tilleggsbelastning'
p1331
sg21
Nsg22
S'500'
p1332
sg24
S'200'
p1333
sg26
S'Isolerte faresoner'
p1334
sg28
Nsg29
g1321
sg31
S'5 - Svaert store'
p1335
sba(irunmatrix
M3Element
p1336
(dp1337
g3
Nsg4
S'Lite sannsynlig, Mulig'
p1338
sg6
S'white'
p1339
sg8
(lp1340
sg10
S'Possible'
p1341
sg12
S'Isolated'
p1342
sg14
g76
sg16
I0
sg17
S'Nat'
p1343
sg19
S'Naturlig utloest'
p1344
sg21
Nsg22
S'500'
p1345
sg24
S'300'
p1346
sg26
S'Isolerte faresoner'
p1347
sg28
Nsg29
g1321
sg31
S'5 - Svaert store'
p1348
sba(irunmatrix
M3Element
p1349
(dp1350
g3
Nsg4
S'Sannsynlig, Meget sannsynlig'
p1351
sg6
S'gray'
p1352
sg8
(lp1353
sg10
S'Likely'
p1354
sg12
S'Isolated'
p1355
sg14
g76
sg16
I0
sg17
S'High'
p1356
sg19
S'Stor tilleggsbelastning'
p1357
sg21
Nsg22
S'500'
p1358
sg24
S'400'
p1359
sg26
S'Isolerte faresoner'
p1360
sg28
Nsg29
g1321
sg31
S'5 - Svaert store'
p1361
sba(irunmatrix
M3Element
p1362
(dp1363
g3
Nsg4
S'Sannsynlig, Meget sannsynlig'
p1364
sg6
S'gray'
p1365
sg8
(lp1366
sg10
S'Likely'
p1367
sg12
S'Isolated'
p1368
sg14
g76
sg16
I0
sg17
S'Low'
p1369
sg19
S'Liten tilleggsbelastning'
p1370
sg21
Nsg22
S'500'
p1371
sg24
S'500'
p1372
sg26
S'Isolerte faresoner'
p1373
sg28
Nsg29
g1321
sg31
S'5 - Svaert store'
p1374
sba(irunmatrix
M3Element
p1375
(dp1376
g3
Nsg4
S'Sannsynlig, Meget sannsynlig'
p1377
sg6
S'gray'
p1378
sg8
(lp1379
sg10
S'Likely'
p1380
sg12
S'Isolated'
p1381
sg14
g76
sg16
I0
sg17
S'Nat'
p1382
sg19
S'Naturlig utloest'
p1383
sg21
Nsg22
S'500'
p1384
sg24
S'600'
p1385
sg26
S'Isolerte faresoner'
p1386
sg28
Nsg29
g1321
sg31
S'5 - Svaert store'
p1387
sba(irunmatrix
M3Element
p1388
(dp1389
g3
Nsg4
S'Lite sannsynlig, Mulig'
p1390
sg6
S'white'
p1391
sg8
(lp1392
sg10
S'Possible'
p1393
sg12
S'Some'
p1394
sg14
g76
sg16
I0
sg17
S'High'
p1395
sg19
S'Stor tilleggsbelastning'
p1396
sg21
Nsg22
S'500'
p1397
sg24
S'700'
p1398
sg26
S'Noen bratte heng'
p1399
sg28
Nsg29
g1321
sg31
S'5 - Svaert store'
p1400
sba(irunmatrix
M3Element
p1401
(dp1402
g3
Nsg4
S'Lite sannsynlig, Mulig'
p1403
sg6
S'white'
p1404
sg8
(lp1405
sg10
S'Possible'
p1406
sg12
S'Some'
p1407
sg14
g76
sg16
I0
sg17
S'Low'
p1408
sg19
S'Liten tilleggsbelastning'
p1409
sg21
Nsg22
S'500'
p1410
sg24
S'800'
p1411
sg26
S'Noen bratte heng'
p1412
sg28
Nsg29
g1321
sg31
S'5 - Svaert store'
p1413
sba(irunmatrix
M3Element
p1414
(dp1415
g3
Nsg4
S'Lite sannsynlig, Mulig'
p1416
sg6
S'white'
p1417
sg8
(lp1418
sg10
S'Possible'
p1419
sg12
S'Some'
p1420
sg14
g76
sg16
I0
sg17
S'Nat'
p1421
sg19
S'Naturlig utloest'
p1422
sg21
Nsg22
S'500'
p1423
sg24
S'900'
p1424
sg26
S'Noen bratte heng'
p1425
sg28
Nsg29
g1321
sg31
S'5 - Svaert store'
p1426
sba(irunmatrix
M3Element
p1427
(dp1428
g3
Nsg4
S'Sannsynlig, Meget sannsynlig'
p1429
sg6
S'gray'
p1430
sg8
(lp1431
sg10
S'Likely'
p1432
sg12
S'Some'
p1433
sg14
g76
sg16
I0
sg17
S'High'
p1434
sg19
S'Stor tilleggsbelastning'
p1435
sg21
Nsg22
S'500'
p1436
sg24
S'1000'
p1437
sg26
S'Noen bratte heng'
p1438
sg28
Nsg29
g1321
sg31
S'5 - Svaert store'
p1439
sba(irunmatrix
M3Element
p1440
(dp1441
g3
Nsg4
S'Sannsynlig, Meget sannsynlig'
p1442
sg6
S'gray'
p1443
sg8
(lp1444
sg10
S'Likely'
p1445
sg12
S'Some'
p1446
sg14
g76
sg16
I0
sg17
S'Low'
p1447
sg19
S'Liten tilleggsbelastning'
p1448
sg21
Nsg22
S'500'
p1449
sg24
S'1100'
p1450
sg26
S'Noen bratte heng'
p1451
sg28
Nsg29
g1321
sg31
S'5 - Svaert store'
p1452
sba(irunmatrix
M3Element
p1453
(dp1454
g3
Nsg4
S'Sannsynlig, Meget sannsynlig'
p1455
sg6
S'white'
p1456
sg8
(lp1457
sg10
S'Likely'
p1458
sg12
S'Some'
p1459
sg14
g76
sg16
I0
sg17
S'Nat'
p1460
sg19
S'Naturlig utloest'
p1461
sg21
Nsg22
S'500'
p1462
sg24
S'1200'
p1463
sg26
S'Noen bratte heng'
p1464
sg28
Nsg29
g1321
sg31
S'5 - Svaert store'
p1465
sba(irunmatrix
M3Element
p1466
(dp1467
g3
Nsg4
S'Lite sannsynlig, Mulig'
p1468
sg6
S'gray'
p1469
sg8
(lp1470
sg10
S'Possible'
p1471
sg12
S'Many'
p1472
sg14
g76
sg16
I0
sg17
S'High'
p1473
sg19
S'Stor tilleggsbelastning'
p1474
sg21
Nsg22
S'500'
p1475
sg24
S'1300'
p1476
sg26
S'Mange bratte heng'
p1477
sg28
Nsg29
g1321
sg31
S'5 - Svaert store'
p1478
sba(irunmatrix
M3Element
p1479
(dp1480
g3
Nsg4
S'Lite sannsynlig, Mulig'
p1481
sg6
S'white'
p1482
sg8
(lp1483
sg10
S'Possible'
p1484
sg12
S'Many'
p1485
sg14
g76
sg16
I0
sg17
S'Low'
p1486
sg19
S'Liten tilleggsbelastning'
p1487
sg21
Nsg22
S'500'
p1488
sg24
S'1400'
p1489
sg26
S'Mange bratte heng'
p1490
sg28
Nsg29
g1321
sg31
S'5 - Svaert store'
p1491
sba(irunmatrix
M3Element
p1492
(dp1493
g3
Nsg4
S'Lite sannsynlig, Mulig'
p1494
sg6
S'gray'
p1495
sg8
(lp1496
sg10
S'Possible'
p1497
sg12
S'Many'
p1498
sg14
g76
sg16
I0
sg17
S'Nat'
p1499
sg19
S'Naturlig utloest'
p1500
sg21
Nsg22
S'500'
p1501
sg24
S'1500'
p1502
sg26
S'Mange bratte heng'
p1503
sg28
Nsg29
g1321
sg31
S'5 - Svaert store'
p1504
sba(irunmatrix
M3Element
p1505
(dp1506
g3
Nsg4
S'Sannsynlig, Meget sannsynlig'
p1507
sg6
S'gray'
p1508
sg8
(lp1509
sg10
S'Likely'
p1510
sg12
S'Many'
p1511
sg14
g76
sg16
I0
sg17
S'High'
p1512
sg19
S'Stor tilleggsbelastning'
p1513
sg21
Nsg22
S'500'
p1514
sg24
S'1600'
p1515
sg26
S'Mange bratte heng'
p1516
sg28
Nsg29
g1321
sg31
S'5 - Svaert store'
p1517
sba(irunmatrix
M3Element
p1518
(dp1519
g3
Nsg4
S'Sannsynlig, Meget sannsynlig'
p1520
sg6
S'white'
p1521
sg8
(lp1522
sg10
S'Likely'
p1523
sg12
S'Many'
p1524
sg14
g76
sg16
I0
sg17
S'Low'
p1525
sg19
S'Liten tilleggsbelastning'
p1526
sg21
Nsg22
S'500'
p1527
sg24
S'1700'
p1528
sg26
S'Mange bratte heng'
p1529
sg28
Nsg29
g1321
sg31
S'5 - Svaert store'
p1530
sba(irunmatrix
M3Element
p1531
(dp1532
g3
Nsg4
S'Sannsynlig, Meget sannsynlig'
p1533
sg6
S'white'
p1534
sg8
(lp1535
sg10
S'Likely'
p1536
sg12
S'Many'
p1537
sg14
g1224
sg16
I5
sg17
S'Nat'
p1538
sg19
S'Naturlig utloest'
p1539
sg21
Nsg22
S'500'
p1540
sg24
S'1800'
p1541
sg26
S'Mange bratte heng'
p1542
sg28
Nsg29
g1321
sg31
S'5 - Svaert store'
p1543
sba(irunmatrix
M3Element
p1544
(dp1545
g3
Nsg4
S'Lite sannsynlig, Mulig'
p1546
sg6
S'gray'
p1547
sg8
(lp1548
sg10
S'Possible'
p1549
sg12
S'Most'
p1550
sg14
g76
sg16
I0
sg17
S'High'
p1551
sg19
S'Stor tilleggsbelastning'
p1552
sg21
Nsg22
S'500'
p1553
sg24
S'1900'
p1554
sg26
S'De fleste bratte heng, Ogsaa i mindre bratt terreng'
p1555
sg28
Nsg29
g1321
sg31
S'5 - Svaert store'
p1556
sba(irunmatrix
M3Element
p1557
(dp1558
g3
Nsg4
S'Lite sannsynlig, Mulig'
p1559
sg6
S'gray'
p1560
sg8
(lp1561
sg10
S'Possible'
p1562
sg12
S'Most'
p1563
sg14
g76
sg16
I0
sg17
S'Low'
p1564
sg19
S'Liten tilleggsbelastning'
p1565
sg21
Nsg22
S'500'
p1566
sg24
S'2000'
p1567
sg26
S'De fleste bratte heng, Ogsaa i mindre bratt terreng'
p1568
sg28
Nsg29
g1321
sg31
S'5 - Svaert store'
p1569
sba(irunmatrix
M3Element
p1570
(dp1571
g3
Nsg4
S'Lite sannsynlig, Mulig'
p1572
sg6
S'gray'
p1573
sg8
(lp1574
sg10
S'Possible'
p1575
sg12
S'Most'
p1576
sg14
g76
sg16
I0
sg17
S'Nat'
p1577
sg19
S'Naturlig utloest'
p1578
sg21
Nsg22
S'500'
p1579
sg24
S'2100'
p1580
sg26
S'De fleste bratte heng, Ogsaa i mindre bratt terreng'
p1581
sg28
Nsg29
g1321
sg31
S'5 - Svaert store'
p1582
sba(irunmatrix
M3Element
p1583
(dp1584
g3
Nsg4
S'Sannsynlig, Meget sannsynlig'
p1585
sg6
S'gray'
p1586
sg8
(lp1587
sg10
S'Likely'
p1588
sg12
S'Most'
p1589
sg14
g76
sg16
I0
sg17
S'High'
p1590
sg19
S'Stor tilleggsbelastning'
p1591
sg21
Nsg22
S'500'
p1592
sg24
S'2200'
p1593
sg26
S'De fleste bratte heng, Ogsaa i mindre bratt terreng'
p1594
sg28
Nsg29
g1321
sg31
S'5 - Svaert store'
p1595
sba(irunmatrix
M3Element
p1596
(dp1597
g3
Nsg4
S'Sannsynlig, Meget sannsynlig'
p1598
sg6
S'gray'
p1599
sg8
(lp1600
sg10
S'Likely'
p1601
sg12
S'Most'
p1602
sg14
g76
sg16
I0
sg17
S'Low'
p1603
sg19
S'Liten tilleggsbelastning'
p1604
sg21
Nsg22
S'500'
p1605
sg24
S'2300'
p1606
sg26
S'De fleste bratte heng, Ogsaa i mindre bratt terreng'
p1607
sg28
Nsg29
g1321
sg31
S'5 - Svaert store'
p1608
sba(irunmatrix
M3Element
p1609
(dp1610
g3
Nsg4
S'Sannsynlig, Meget sannsynlig'
p1611
sg6
S'white'
p1612
sg8
(lp1613
sg10
S'Likely'
p1614
sg12
S'Most'
p1615
sg14
g76
sg16
I0
sg17
S'Nat'
p1616
sg19
S'Naturlig utloest'
p1617
sg21
Nsg22
S'500'
p1618
sg24
S'2400'
p1619
sg26
S'De fleste bratte heng, Ogsaa i mindre bratt terreng'
p1620
sg28
Nsg29
g1321
sg31
S'5 - Svaert store'
p1621
sba.