(lp0
(irunmatrix
M3Element
p1
(dp2
S'danger_level_average'
p3
NsS'probability'
p4
S'Lite sannsynlig, Mulig'
p5
sS'colour'
p6
S'white'
p7
sS'danger_level_list'
p8
(lp9
sS'label_probalility'
p10
S'Possible'
p11
sS'label_distribution'
p12
S'Isolated'
p13
sS'recomended_colour'
p14
S'#ccff66'
p15
sS'recomended_danger_level'
p16
I1
sS'label_trigger'
p17
S'High'
p18
sS'trigger'
p19
S'Stor tilleggsbelastning'
p20
sS'occurrences'
p21
NsS'y'
p22
S'100'
p23
sS'x'
p24
S'100'
p25
sS'distribution'
p26
S'Isolerte faresoner'
p27
sS'danger_level_standard_dev'
p28
NsS'label_size'
p29
S'1'
p30
sS'avalanche_size'
p31
S'1 - Harmloest'
p32
sba(irunmatrix
M3Element
p33
(dp34
g3
Nsg4
S'Lite sannsynlig, Mulig'
p35
sg6
S'white'
p36
sg8
(lp37
sg10
S'Possible'
p38
sg12
S'Isolated'
p39
sg14
g15
sg16
I1
sg17
S'Low'
p40
sg19
S'Liten tilleggsbelastning'
p41
sg21
Nsg22
S'100'
p42
sg24
S'200'
p43
sg26
S'Isolerte faresoner'
p44
sg28
Nsg29
g30
sg31
S'1 - Harmloest'
p45
sba(irunmatrix
M3Element
p46
(dp47
g3
Nsg4
S'Lite sannsynlig, Mulig'
p48
sg6
S'white'
p49
sg8
(lp50
sg10
S'Possible'
p51
sg12
S'Isolated'
p52
sg14
g15
sg16
I1
sg17
S'Nat'
p53
sg19
S'Naturlig utloest'
p54
sg21
Nsg22
S'100'
p55
sg24
S'300'
p56
sg26
S'Isolerte faresoner'
p57
sg28
Nsg29
g30
sg31
S'1 - Harmloest'
p58
sba(irunmatrix
M3Element
p59
(dp60
g3
Nsg4
S'Sannsynlig, Meget sannsynlig'
p61
sg6
S'gray'
p62
sg8
(lp63
sg10
S'Likely'
p64
sg12
S'Isolated'
p65
sg14
S'gray'
p66
sg16
I0
sg17
S'High'
p67
sg19
S'Stor tilleggsbelastning'
p68
sg21
Nsg22
S'100'
p69
sg24
S'400'
p70
sg26
S'Isolerte faresoner'
p71
sg28
Nsg29
g30
sg31
S'1 - Harmloest'
p72
sba(irunmatrix
M3Element
p73
(dp74
g3
Nsg4
S'Sannsynlig, Meget sannsynlig'
p75
sg6
S'gray'
p76
sg8
(lp77
sg10
S'Likely'
p78
sg12
S'Isolated'
p79
sg14
g66
sg16
I0
sg17
S'Low'
p80
sg19
S'Liten tilleggsbelastning'
p81
sg21
Nsg22
S'100'
p82
sg24
S'500'
p83
sg26
S'Isolerte faresoner'
p84
sg28
Nsg29
g30
sg31
S'1 - Harmloest'
p85
sba(irunmatrix
M3Element
p86
(dp87
g3
Nsg4
S'Sannsynlig, Meget sannsynlig'
p88
sg6
S'gray'
p89
sg8
(lp90
sg10
S'Likely'
p91
sg12
S'Isolated'
p92
sg14
g66
sg16
I0
sg17
S'Nat'
p93
sg19
S'Naturlig utloest'
p94
sg21
Nsg22
S'100'
p95
sg24
S'600'
p96
sg26
S'Isolerte faresoner'
p97
sg28
Nsg29
g30
sg31
S'1 - Harmloest'
p98
sba(irunmatrix
M3Element
p99
(dp100
g3
Nsg4
S'Lite sannsynlig, Mulig'
p101
sg6
S'white'
p102
sg8
(lp103
sg10
S'Possible'
p104
sg12
S'Some'
p105
sg14
g15
sg16
I1
sg17
S'High'
p106
sg19
S'Stor tilleggsbelastning'
p107
sg21
Nsg22
S'100'
p108
sg24
S'700'
p109
sg26
S'Noen bratte heng'
p110
sg28
Nsg29
g30
sg31
S'1 - Harmloest'
p111
sba(irunmatrix
M3Element
p112
(dp113
g3
Nsg4
S'Lite sannsynlig, Mulig'
p114
sg6
S'white'
p115
sg8
(lp116
sg10
S'Possible'
p117
sg12
S'Some'
p118
sg14
g15
sg16
I1
sg17
S'Low'
p119
sg19
S'Liten tilleggsbelastning'
p120
sg21
Nsg22
S'100'
p121
sg24
S'800'
p122
sg26
S'Noen bratte heng'
p123
sg28
Nsg29
g30
sg31
S'1 - Harmloest'
p124
sba(irunmatrix
M3Element
p125
(dp126
g3
Nsg4
S'Lite sannsynlig, Mulig'
p127
sg6
S'white'
p128
sg8
(lp129
sg10
S'Possible'
p130
sg12
S'Some'
p131
sg14
g15
sg16
I1
sg17
S'Nat'
p132
sg19
S'Naturlig utloest'
p133
sg21
Nsg22
S'100'
p134
sg24
S'900'
p135
sg26
S'Noen bratte heng'
p136
sg28
Nsg29
g30
sg31
S'1 - Harmloest'
p137
sba(irunmatrix
M3Element
p138
(dp139
g3
Nsg4
S'Sannsynlig, Meget sannsynlig'
p140
sg6
S'gray'
p141
sg8
(lp142
sg10
S'Likely'
p143
sg12
S'Some'
p144
sg14
g66
sg16
I0
sg17
S'High'
p145
sg19
S'Stor tilleggsbelastning'
p146
sg21
Nsg22
S'100'
p147
sg24
S'1000'
p148
sg26
S'Noen bratte heng'
p149
sg28
Nsg29
g30
sg31
S'1 - Harmloest'
p150
sba(irunmatrix
M3Element
p151
(dp152
g3
Nsg4
S'Sannsynlig, Meget sannsynlig'
p153
sg6
S'gray'
p154
sg8
(lp155
sg10
S'Likely'
p156
sg12
S'Some'
p157
sg14
g66
sg16
I0
sg17
S'Low'
p158
sg19
S'Liten tilleggsbelastning'
p159
sg21
Nsg22
S'100'
p160
sg24
S'1100'
p161
sg26
S'Noen bratte heng'
p162
sg28
Nsg29
g30
sg31
S'1 - Harmloest'
p163
sba(irunmatrix
M3Element
p164
(dp165
g3
Nsg4
S'Sannsynlig, Meget sannsynlig'
p166
sg6
S'white'
p167
sg8
(lp168
sg10
S'Likely'
p169
sg12
S'Some'
p170
sg14
g15
sg16
I1
sg17
S'Nat'
p171
sg19
S'Naturlig utloest'
p172
sg21
Nsg22
S'100'
p173
sg24
S'1200'
p174
sg26
S'Noen bratte heng'
p175
sg28
Nsg29
g30
sg31
S'1 - Harmloest'
p176
sba(irunmatrix
M3Element
p177
(dp178
g3
Nsg4
S'Lite sannsynlig, Mulig'
p179
sg6
S'gray'
p180
sg8
(lp181
sg10
S'Possible'
p182
sg12
S'Many'
p183
sg14
g66
sg16
I0
sg17
S'High'
p184
sg19
S'Stor tilleggsbelastning'
p185
sg21
Nsg22
S'100'
p186
sg24
S'1300'
p187
sg26
S'Mange bratte heng'
p188
sg28
Nsg29
g30
sg31
S'1 - Harmloest'
p189
sba(irunmatrix
M3Element
p190
(dp191
g3
Nsg4
S'Lite sannsynlig, Mulig'
p192
sg6
S'white'
p193
sg8
(lp194
sg10
S'Possible'
p195
sg12
S'Many'
p196
sg14
g15
sg16
I1
sg17
S'Low'
p197
sg19
S'Liten tilleggsbelastning'
p198
sg21
Nsg22
S'100'
p199
sg24
S'1400'
p200
sg26
S'Mange bratte heng'
p201
sg28
Nsg29
g30
sg31
S'1 - Harmloest'
p202
sba(irunmatrix
M3Element
p203
(dp204
g3
Nsg4
S'Lite sannsynlig, Mulig'
p205
sg6
S'gray'
p206
sg8
(lp207
sg10
S'Possible'
p208
sg12
S'Many'
p209
sg14
g66
sg16
I0
sg17
S'Nat'
p210
sg19
S'Naturlig utloest'
p211
sg21
Nsg22
S'100'
p212
sg24
S'1500'
p213
sg26
S'Mange bratte heng'
p214
sg28
Nsg29
g30
sg31
S'1 - Harmloest'
p215
sba(irunmatrix
M3Element
p216
(dp217
g3
Nsg4
S'Sannsynlig, Meget sannsynlig'
p218
sg6
S'gray'
p219
sg8
(lp220
sg10
S'Likely'
p221
sg12
S'Many'
p222
sg14
g66
sg16
I0
sg17
S'High'
p223
sg19
S'Stor tilleggsbelastning'
p224
sg21
Nsg22
S'100'
p225
sg24
S'1600'
p226
sg26
S'Mange bratte heng'
p227
sg28
Nsg29
g30
sg31
S'1 - Harmloest'
p228
sba(irunmatrix
M3Element
p229
(dp230
g3
Nsg4
S'Sannsynlig, Meget sannsynlig'
p231
sg6
S'white'
p232
sg8
(lp233
sg10
S'Likely'
p234
sg12
S'Many'
p235
sg14
S'#ffff00'
p236
sg16
I2
sg17
S'Low'
p237
sg19
S'Liten tilleggsbelastning'
p238
sg21
Nsg22
S'100'
p239
sg24
S'1700'
p240
sg26
S'Mange bratte heng'
p241
sg28
Nsg29
g30
sg31
S'1 - Harmloest'
p242
sba(irunmatrix
M3Element
p243
(dp244
g3
Nsg4
S'Sannsynlig, Meget sannsynlig'
p245
sg6
S'white'
p246
sg8
(lp247
sg10
S'Likely'
p248
sg12
S'Many'
p249
sg14
g236
sg16
I2
sg17
S'Nat'
p250
sg19
S'Naturlig utloest'
p251
sg21
Nsg22
S'100'
p252
sg24
S'1800'
p253
sg26
S'Mange bratte heng'
p254
sg28
Nsg29
g30
sg31
S'1 - Harmloest'
p255
sba(irunmatrix
M3Element
p256
(dp257
g3
Nsg4
S'Lite sannsynlig, Mulig'
p258
sg6
S'gray'
p259
sg8
(lp260
sg10
S'Possible'
p261
sg12
S'Most'
p262
sg14
g66
sg16
I0
sg17
S'High'
p263
sg19
S'Stor tilleggsbelastning'
p264
sg21
Nsg22
S'100'
p265
sg24
S'1900'
p266
sg26
S'De fleste bratte heng, Ogsaa i mindre bratt terreng'
p267
sg28
Nsg29
g30
sg31
S'1 - Harmloest'
p268
sba(irunmatrix
M3Element
p269
(dp270
g3
Nsg4
S'Lite sannsynlig, Mulig'
p271
sg6
S'gray'
p272
sg8
(lp273
sg10
S'Possible'
p274
sg12
S'Most'
p275
sg14
g66
sg16
I0
sg17
S'Low'
p276
sg19
S'Liten tilleggsbelastning'
p277
sg21
Nsg22
S'100'
p278
sg24
S'2000'
p279
sg26
S'De fleste bratte heng, Ogsaa i mindre bratt terreng'
p280
sg28
Nsg29
g30
sg31
S'1 - Harmloest'
p281
sba(irunmatrix
M3Element
p282
(dp283
g3
Nsg4
S'Lite sannsynlig, Mulig'
p284
sg6
S'gray'
p285
sg8
(lp286
sg10
S'Possible'
p287
sg12
S'Most'
p288
sg14
g66
sg16
I0
sg17
S'Nat'
p289
sg19
S'Naturlig utloest'
p290
sg21
Nsg22
S'100'
p291
sg24
S'2100'
p292
sg26
S'De fleste bratte heng, Ogsaa i mindre bratt terreng'
p293
sg28
Nsg29
g30
sg31
S'1 - Harmloest'
p294
sba(irunmatrix
M3Element
p295
(dp296
g3
Nsg4
S'Sannsynlig, Meget sannsynlig'
p297
sg6
S'gray'
p298
sg8
(lp299
sg10
S'Likely'
p300
sg12
S'Most'
p301
sg14
g66
sg16
I0
sg17
S'High'
p302
sg19
S'Stor tilleggsbelastning'
p303
sg21
Nsg22
S'100'
p304
sg24
S'2200'
p305
sg26
S'De fleste bratte heng, Ogsaa i mindre bratt terreng'
p306
sg28
Nsg29
g30
sg31
S'1 - Harmloest'
p307
sba(irunmatrix
M3Element
p308
(dp309
g3
Nsg4
S'Sannsynlig, Meget sannsynlig'
p310
sg6
S'gray'
p311
sg8
(lp312
sg10
S'Likely'
p313
sg12
S'Most'
p314
sg14
g66
sg16
I0
sg17
S'Low'
p315
sg19
S'Liten tilleggsbelastning'
p316
sg21
Nsg22
S'100'
p317
sg24
S'2300'
p318
sg26
S'De fleste bratte heng, Ogsaa i mindre bratt terreng'
p319
sg28
Nsg29
g30
sg31
S'1 - Harmloest'
p320
sba(irunmatrix
M3Element
p321
(dp322
g3
Nsg4
S'Sannsynlig, Meget sannsynlig'
p323
sg6
S'white'
p324
sg8
(lp325
sg10
S'Likely'
p326
sg12
S'Most'
p327
sg14
g66
sg16
I0
sg17
S'Nat'
p328
sg19
S'Naturlig utloest'
p329
sg21
Nsg22
S'100'
p330
sg24
S'2400'
p331
sg26
S'De fleste bratte heng, Ogsaa i mindre bratt terreng'
p332
sg28
Nsg29
S'2'
p333
sg31
S'1 - Harmloest'
p334
sba(irunmatrix
M3Element
p335
(dp336
g3
Nsg4
S'Lite sannsynlig, Mulig'
p337
sg6
S'white'
p338
sg8
(lp339
sg10
S'Possible'
p340
sg12
S'Isolated'
p341
sg14
g15
sg16
I1
sg17
S'High'
p342
sg19
S'Stor tilleggsbelastning'
p343
sg21
Nsg22
S'200'
p344
sg24
S'100'
p345
sg26
S'Isolerte faresoner'
p346
sg28
Nsg29
g333
sg31
S'2 - Smaa'
p347
sba(irunmatrix
M3Element
p348
(dp349
g3
Nsg4
S'Lite sannsynlig, Mulig'
p350
sg6
S'white'
p351
sg8
(lp352
sg10
S'Possible'
p353
sg12
S'Isolated'
p354
sg14
g15
sg16
I1
sg17
S'Low'
p355
sg19
S'Liten tilleggsbelastning'
p356
sg21
Nsg22
S'200'
p357
sg24
S'200'
p358
sg26
S'Isolerte faresoner'
p359
sg28
Nsg29
g333
sg31
S'2 - Smaa'
p360
sba(irunmatrix
M3Element
p361
(dp362
g3
Nsg4
S'Lite sannsynlig, Mulig'
p363
sg6
S'white'
p364
sg8
(lp365
sg10
S'Possible'
p366
sg12
S'Isolated'
p367
sg14
g15
sg16
I1
sg17
S'Nat'
p368
sg19
S'Naturlig utloest'
p369
sg21
Nsg22
S'200'
p370
sg24
S'300'
p371
sg26
S'Isolerte faresoner'
p372
sg28
Nsg29
g333
sg31
S'2 - Smaa'
p373
sba(irunmatrix
M3Element
p374
(dp375
g3
Nsg4
S'Sannsynlig, Meget sannsynlig'
p376
sg6
S'gray'
p377
sg8
(lp378
sg10
S'Likely'
p379
sg12
S'Isolated'
p380
sg14
g66
sg16
I0
sg17
S'High'
p381
sg19
S'Stor tilleggsbelastning'
p382
sg21
Nsg22
S'200'
p383
sg24
S'400'
p384
sg26
S'Isolerte faresoner'
p385
sg28
Nsg29
g333
sg31
S'2 - Smaa'
p386
sba(irunmatrix
M3Element
p387
(dp388
g3
Nsg4
S'Sannsynlig, Meget sannsynlig'
p389
sg6
S'gray'
p390
sg8
(lp391
sg10
S'Likely'
p392
sg12
S'Isolated'
p393
sg14
g66
sg16
I0
sg17
S'Low'
p394
sg19
S'Liten tilleggsbelastning'
p395
sg21
Nsg22
S'200'
p396
sg24
S'500'
p397
sg26
S'Isolerte faresoner'
p398
sg28
Nsg29
g333
sg31
S'2 - Smaa'
p399
sba(irunmatrix
M3Element
p400
(dp401
g3
Nsg4
S'Sannsynlig, Meget sannsynlig'
p402
sg6
S'gray'
p403
sg8
(lp404
sg10
S'Likely'
p405
sg12
S'Isolated'
p406
sg14
g66
sg16
I0
sg17
S'Nat'
p407
sg19
S'Naturlig utloest'
p408
sg21
Nsg22
S'200'
p409
sg24
S'600'
p410
sg26
S'Isolerte faresoner'
p411
sg28
Nsg29
g333
sg31
S'2 - Smaa'
p412
sba(irunmatrix
M3Element
p413
(dp414
g3
F2.0
sg4
S'Lite sannsynlig, Mulig'
p415
sg6
S'#ffff00'
p416
sg8
(lp417
I2
aI2
aI2
aI2
aI2
asg10
S'Possible'
p418
sg12
S'Some'
p419
sg14
g236
sg16
I2
sg17
S'High'
p420
sg19
S'Stor tilleggsbelastning'
p421
sg21
I5
sg22
S'200'
p422
sg24
S'700'
p423
sg26
S'Noen bratte heng'
p424
sg28
cnumpy.core.multiarray
scalar
p425
(cnumpy
dtype
p426
(S'f8'
p427
I0
I1
tp428
Rp429
(I3
S'<'
p430
NNNI-1
I-1
I0
tp431
bS'\x00\x00\x00\x00\x00\x00\x00\x00'
p432
tp433
Rp434
sg29
g333
sg31
S'2 - Smaa'
p435
sba(irunmatrix
M3Element
p436
(dp437
g3
F2.0
sg4
S'Lite sannsynlig, Mulig'
p438
sg6
g416
sg8
(lp439
I2
aI2
aI2
aI2
aI2
asg10
S'Possible'
p440
sg12
S'Some'
p441
sg14
g236
sg16
I2
sg17
S'Low'
p442
sg19
S'Liten tilleggsbelastning'
p443
sg21
I5
sg22
S'200'
p444
sg24
S'800'
p445
sg26
S'Noen bratte heng'
p446
sg28
g425
(g429
S'\x00\x00\x00\x00\x00\x00\x00\x00'
p447
tp448
Rp449
sg29
g333
sg31
S'2 - Smaa'
p450
sba(irunmatrix
M3Element
p451
(dp452
g3
Nsg4
S'Lite sannsynlig, Mulig'
p453
sg6
S'white'
p454
sg8
(lp455
sg10
S'Possible'
p456
sg12
S'Some'
p457
sg14
g236
sg16
I2
sg17
S'Nat'
p458
sg19
S'Naturlig utloest'
p459
sg21
Nsg22
S'200'
p460
sg24
S'900'
p461
sg26
S'Noen bratte heng'
p462
sg28
Nsg29
g333
sg31
S'2 - Smaa'
p463
sba(irunmatrix
M3Element
p464
(dp465
g3
Nsg4
S'Sannsynlig, Meget sannsynlig'
p466
sg6
S'gray'
p467
sg8
(lp468
sg10
S'Likely'
p469
sg12
S'Some'
p470
sg14
g66
sg16
I0
sg17
S'High'
p471
sg19
S'Stor tilleggsbelastning'
p472
sg21
Nsg22
S'200'
p473
sg24
S'1000'
p474
sg26
S'Noen bratte heng'
p475
sg28
Nsg29
g333
sg31
S'2 - Smaa'
p476
sba(irunmatrix
M3Element
p477
(dp478
g3
Nsg4
S'Sannsynlig, Meget sannsynlig'
p479
sg6
S'gray'
p480
sg8
(lp481
sg10
S'Likely'
p482
sg12
S'Some'
p483
sg14
g66
sg16
I0
sg17
S'Low'
p484
sg19
S'Liten tilleggsbelastning'
p485
sg21
Nsg22
S'200'
p486
sg24
S'1100'
p487
sg26
S'Noen bratte heng'
p488
sg28
Nsg29
g333
sg31
S'2 - Smaa'
p489
sba(irunmatrix
M3Element
p490
(dp491
g3
Nsg4
S'Sannsynlig, Meget sannsynlig'
p492
sg6
S'white'
p493
sg8
(lp494
sg10
S'Likely'
p495
sg12
S'Some'
p496
sg14
S'#ff9900'
p497
sg16
I3
sg17
S'Nat'
p498
sg19
S'Naturlig utloest'
p499
sg21
Nsg22
S'200'
p500
sg24
S'1200'
p501
sg26
S'Noen bratte heng'
p502
sg28
Nsg29
g333
sg31
S'2 - Smaa'
p503
sba(irunmatrix
M3Element
p504
(dp505
g3
Nsg4
S'Lite sannsynlig, Mulig'
p506
sg6
S'gray'
p507
sg8
(lp508
sg10
S'Possible'
p509
sg12
S'Many'
p510
sg14
g66
sg16
I0
sg17
S'High'
p511
sg19
S'Stor tilleggsbelastning'
p512
sg21
Nsg22
S'200'
p513
sg24
S'1300'
p514
sg26
S'Mange bratte heng'
p515
sg28
Nsg29
g333
sg31
S'2 - Smaa'
p516
sba(irunmatrix
M3Element
p517
(dp518
g3
Nsg4
S'Lite sannsynlig, Mulig'
p519
sg6
S'white'
p520
sg8
(lp521
sg10
S'Possible'
p522
sg12
S'Many'
p523
sg14
g497
sg16
I3
sg17
S'Low'
p524
sg19
S'Liten tilleggsbelastning'
p525
sg21
Nsg22
S'200'
p526
sg24
S'1400'
p527
sg26
S'Mange bratte heng'
p528
sg28
Nsg29
g333
sg31
S'2 - Smaa'
p529
sba(irunmatrix
M3Element
p530
(dp531
g3
Nsg4
S'Lite sannsynlig, Mulig'
p532
sg6
S'gray'
p533
sg8
(lp534
sg10
S'Possible'
p535
sg12
S'Many'
p536
sg14
g66
sg16
I0
sg17
S'Nat'
p537
sg19
S'Naturlig utloest'
p538
sg21
Nsg22
S'200'
p539
sg24
S'1500'
p540
sg26
S'Mange bratte heng'
p541
sg28
Nsg29
g333
sg31
S'2 - Smaa'
p542
sba(irunmatrix
M3Element
p543
(dp544
g3
Nsg4
S'Sannsynlig, Meget sannsynlig'
p545
sg6
S'gray'
p546
sg8
(lp547
sg10
S'Likely'
p548
sg12
S'Many'
p549
sg14
g66
sg16
I0
sg17
S'High'
p550
sg19
S'Stor tilleggsbelastning'
p551
sg21
Nsg22
S'200'
p552
sg24
S'1600'
p553
sg26
S'Mange bratte heng'
p554
sg28
Nsg29
g333
sg31
S'2 - Smaa'
p555
sba(irunmatrix
M3Element
p556
(dp557
g3
Nsg4
S'Sannsynlig, Meget sannsynlig'
p558
sg6
S'white'
p559
sg8
(lp560
sg10
S'Likely'
p561
sg12
S'Many'
p562
sg14
S'#ff0000'
p563
sg16
I4
sg17
S'Low'
p564
sg19
S'Liten tilleggsbelastning'
p565
sg21
Nsg22
S'200'
p566
sg24
S'1700'
p567
sg26
S'Mange bratte heng'
p568
sg28
Nsg29
g333
sg31
S'2 - Smaa'
p569
sba(irunmatrix
M3Element
p570
(dp571
g3
Nsg4
S'Sannsynlig, Meget sannsynlig'
p572
sg6
S'white'
p573
sg8
(lp574
sg10
S'Likely'
p575
sg12
S'Many'
p576
sg14
g563
sg16
I4
sg17
S'Nat'
p577
sg19
S'Naturlig utloest'
p578
sg21
Nsg22
S'200'
p579
sg24
S'1800'
p580
sg26
S'Mange bratte heng'
p581
sg28
Nsg29
g333
sg31
S'2 - Smaa'
p582
sba(irunmatrix
M3Element
p583
(dp584
g3
Nsg4
S'Lite sannsynlig, Mulig'
p585
sg6
S'gray'
p586
sg8
(lp587
sg10
S'Possible'
p588
sg12
S'Most'
p589
sg14
g66
sg16
I0
sg17
S'High'
p590
sg19
S'Stor tilleggsbelastning'
p591
sg21
Nsg22
S'200'
p592
sg24
S'1900'
p593
sg26
S'De fleste bratte heng, Ogsaa i mindre bratt terreng'
p594
sg28
Nsg29
g333
sg31
S'2 - Smaa'
p595
sba(irunmatrix
M3Element
p596
(dp597
g3
Nsg4
S'Lite sannsynlig, Mulig'
p598
sg6
S'gray'
p599
sg8
(lp600
sg10
S'Possible'
p601
sg12
S'Most'
p602
sg14
g66
sg16
I0
sg17
S'Low'
p603
sg19
S'Liten tilleggsbelastning'
p604
sg21
Nsg22
S'200'
p605
sg24
S'2000'
p606
sg26
S'De fleste bratte heng, Ogsaa i mindre bratt terreng'
p607
sg28
Nsg29
g333
sg31
S'2 - Smaa'
p608
sba(irunmatrix
M3Element
p609
(dp610
g3
Nsg4
S'Lite sannsynlig, Mulig'
p611
sg6
S'gray'
p612
sg8
(lp613
sg10
S'Possible'
p614
sg12
S'Most'
p615
sg14
g66
sg16
I0
sg17
S'Nat'
p616
sg19
S'Naturlig utloest'
p617
sg21
Nsg22
S'200'
p618
sg24
S'2100'
p619
sg26
S'De fleste bratte heng, Ogsaa i mindre bratt terreng'
p620
sg28
Nsg29
g333
sg31
S'2 - Smaa'
p621
sba(irunmatrix
M3Element
p622
(dp623
g3
Nsg4
S'Sannsynlig, Meget sannsynlig'
p624
sg6
S'gray'
p625
sg8
(lp626
sg10
S'Likely'
p627
sg12
S'Most'
p628
sg14
g66
sg16
I0
sg17
S'High'
p629
sg19
S'Stor tilleggsbelastning'
p630
sg21
Nsg22
S'200'
p631
sg24
S'2200'
p632
sg26
S'De fleste bratte heng, Ogsaa i mindre bratt terreng'
p633
sg28
Nsg29
g333
sg31
S'2 - Smaa'
p634
sba(irunmatrix
M3Element
p635
(dp636
g3
Nsg4
S'Sannsynlig, Meget sannsynlig'
p637
sg6
S'gray'
p638
sg8
(lp639
sg10
S'Likely'
p640
sg12
S'Most'
p641
sg14
g66
sg16
I0
sg17
S'Low'
p642
sg19
S'Liten tilleggsbelastning'
p643
sg21
Nsg22
S'200'
p644
sg24
S'2300'
p645
sg26
S'De fleste bratte heng, Ogsaa i mindre bratt terreng'
p646
sg28
Nsg29
g333
sg31
S'2 - Smaa'
p647
sba(irunmatrix
M3Element
p648
(dp649
g3
Nsg4
S'Sannsynlig, Meget sannsynlig'
p650
sg6
S'white'
p651
sg8
(lp652
sg10
S'Likely'
p653
sg12
S'Most'
p654
sg14
g66
sg16
I0
sg17
S'Nat'
p655
sg19
S'Naturlig utloest'
p656
sg21
Nsg22
S'200'
p657
sg24
S'2400'
p658
sg26
S'De fleste bratte heng, Ogsaa i mindre bratt terreng'
p659
sg28
Nsg29
g333
sg31
S'2 - Smaa'
p660
sba(irunmatrix
M3Element
p661
(dp662
g3
Nsg4
S'Lite sannsynlig, Mulig'
p663
sg6
S'white'
p664
sg8
(lp665
sg10
S'Possible'
p666
sg12
S'Isolated'
p667
sg14
g15
sg16
I1
sg17
S'High'
p668
sg19
S'Stor tilleggsbelastning'
p669
sg21
Nsg22
S'300'
p670
sg24
S'100'
p671
sg26
S'Isolerte faresoner'
p672
sg28
Nsg29
S'3'
p673
sg31
S'3 - Middels'
p674
sba(irunmatrix
M3Element
p675
(dp676
g3
Nsg4
S'Lite sannsynlig, Mulig'
p677
sg6
S'white'
p678
sg8
(lp679
sg10
S'Possible'
p680
sg12
S'Isolated'
p681
sg14
g236
sg16
I2
sg17
S'Low'
p682
sg19
S'Liten tilleggsbelastning'
p683
sg21
Nsg22
S'300'
p684
sg24
S'200'
p685
sg26
S'Isolerte faresoner'
p686
sg28
Nsg29
g673
sg31
S'3 - Middels'
p687
sba(irunmatrix
M3Element
p688
(dp689
g3
Nsg4
S'Lite sannsynlig, Mulig'
p690
sg6
S'white'
p691
sg8
(lp692
sg10
S'Possible'
p693
sg12
S'Isolated'
p694
sg14
g236
sg16
I2
sg17
S'Nat'
p695
sg19
S'Naturlig utloest'
p696
sg21
Nsg22
S'300'
p697
sg24
S'300'
p698
sg26
S'Isolerte faresoner'
p699
sg28
Nsg29
g673
sg31
S'3 - Middels'
p700
sba(irunmatrix
M3Element
p701
(dp702
g3
Nsg4
S'Sannsynlig, Meget sannsynlig'
p703
sg6
S'gray'
p704
sg8
(lp705
sg10
S'Likely'
p706
sg12
S'Isolated'
p707
sg14
g66
sg16
I0
sg17
S'High'
p708
sg19
S'Stor tilleggsbelastning'
p709
sg21
Nsg22
S'300'
p710
sg24
S'400'
p711
sg26
S'Isolerte faresoner'
p712
sg28
Nsg29
g673
sg31
S'3 - Middels'
p713
sba(irunmatrix
M3Element
p714
(dp715
g3
Nsg4
S'Sannsynlig, Meget sannsynlig'
p716
sg6
S'gray'
p717
sg8
(lp718
sg10
S'Likely'
p719
sg12
S'Isolated'
p720
sg14
g66
sg16
I0
sg17
S'Low'
p721
sg19
S'Liten tilleggsbelastning'
p722
sg21
Nsg22
S'300'
p723
sg24
S'500'
p724
sg26
S'Isolerte faresoner'
p725
sg28
Nsg29
g673
sg31
S'3 - Middels'
p726
sba(irunmatrix
M3Element
p727
(dp728
g3
Nsg4
S'Sannsynlig, Meget sannsynlig'
p729
sg6
S'gray'
p730
sg8
(lp731
sg10
S'Likely'
p732
sg12
S'Isolated'
p733
sg14
g66
sg16
I0
sg17
S'Nat'
p734
sg19
S'Naturlig utloest'
p735
sg21
Nsg22
S'300'
p736
sg24
S'600'
p737
sg26
S'Isolerte faresoner'
p738
sg28
Nsg29
g673
sg31
S'3 - Middels'
p739
sba(irunmatrix
M3Element
p740
(dp741
g3
F2.0
sg4
S'Lite sannsynlig, Mulig'
p742
sg6
g416
sg8
(lp743
I2
aI2
aI2
aI2
aI2
aI2
aI2
asg10
S'Possible'
p744
sg12
S'Some'
p745
sg14
g236
sg16
I2
sg17
S'High'
p746
sg19
S'Stor tilleggsbelastning'
p747
sg21
I7
sg22
S'300'
p748
sg24
S'700'
p749
sg26
S'Noen bratte heng'
p750
sg28
g425
(g429
S'\x00\x00\x00\x00\x00\x00\x00\x00'
p751
tp752
Rp753
sg29
g673
sg31
S'3 - Middels'
p754
sba(irunmatrix
M3Element
p755
(dp756
g3
F3.0
sg4
S'Lite sannsynlig, Mulig'
p757
sg6
S'#ff9900'
p758
sg8
(lp759
I3
aI3
aI3
asg10
S'Possible'
p760
sg12
S'Some'
p761
sg14
g497
sg16
I3
sg17
S'Low'
p762
sg19
S'Liten tilleggsbelastning'
p763
sg21
I3
sg22
S'300'
p764
sg24
S'800'
p765
sg26
S'Noen bratte heng'
p766
sg28
g425
(g429
S'\x00\x00\x00\x00\x00\x00\x00\x00'
p767
tp768
Rp769
sg29
g673
sg31
S'3 - Middels'
p770
sba(irunmatrix
M3Element
p771
(dp772
g3
Nsg4
S'Lite sannsynlig, Mulig'
p773
sg6
S'white'
p774
sg8
(lp775
sg10
S'Possible'
p776
sg12
S'Some'
p777
sg14
g497
sg16
I3
sg17
S'Nat'
p778
sg19
S'Naturlig utloest'
p779
sg21
Nsg22
S'300'
p780
sg24
S'900'
p781
sg26
S'Noen bratte heng'
p782
sg28
Nsg29
g673
sg31
S'3 - Middels'
p783
sba(irunmatrix
M3Element
p784
(dp785
g3
Nsg4
S'Sannsynlig, Meget sannsynlig'
p786
sg6
S'gray'
p787
sg8
(lp788
sg10
S'Likely'
p789
sg12
S'Some'
p790
sg14
g66
sg16
I0
sg17
S'High'
p791
sg19
S'Stor tilleggsbelastning'
p792
sg21
Nsg22
S'300'
p793
sg24
S'1000'
p794
sg26
S'Noen bratte heng'
p795
sg28
Nsg29
g673
sg31
S'3 - Middels'
p796
sba(irunmatrix
M3Element
p797
(dp798
g3
Nsg4
S'Sannsynlig, Meget sannsynlig'
p799
sg6
S'gray'
p800
sg8
(lp801
sg10
S'Likely'
p802
sg12
S'Some'
p803
sg14
g66
sg16
I0
sg17
S'Low'
p804
sg19
S'Liten tilleggsbelastning'
p805
sg21
Nsg22
S'300'
p806
sg24
S'1100'
p807
sg26
S'Noen bratte heng'
p808
sg28
Nsg29
g673
sg31
S'3 - Middels'
p809
sba(irunmatrix
M3Element
p810
(dp811
g3
Nsg4
S'Sannsynlig, Meget sannsynlig'
p812
sg6
S'white'
p813
sg8
(lp814
sg10
S'Likely'
p815
sg12
S'Some'
p816
sg14
g563
sg16
I4
sg17
S'Nat'
p817
sg19
S'Naturlig utloest'
p818
sg21
Nsg22
S'300'
p819
sg24
S'1200'
p820
sg26
S'Noen bratte heng'
p821
sg28
Nsg29
g673
sg31
S'3 - Middels'
p822
sba(irunmatrix
M3Element
p823
(dp824
g3
Nsg4
S'Lite sannsynlig, Mulig'
p825
sg6
S'gray'
p826
sg8
(lp827
sg10
S'Possible'
p828
sg12
S'Many'
p829
sg14
g66
sg16
I0
sg17
S'High'
p830
sg19
S'Stor tilleggsbelastning'
p831
sg21
Nsg22
S'300'
p832
sg24
S'1300'
p833
sg26
S'Mange bratte heng'
p834
sg28
Nsg29
g673
sg31
S'3 - Middels'
p835
sba(irunmatrix
M3Element
p836
(dp837
g3
Nsg4
S'Lite sannsynlig, Mulig'
p838
sg6
S'white'
p839
sg8
(lp840
sg10
S'Possible'
p841
sg12
S'Many'
p842
sg14
g563
sg16
I4
sg17
S'Low'
p843
sg19
S'Liten tilleggsbelastning'
p844
sg21
Nsg22
S'300'
p845
sg24
S'1400'
p846
sg26
S'Mange bratte heng'
p847
sg28
Nsg29
g673
sg31
S'3 - Middels'
p848
sba(irunmatrix
M3Element
p849
(dp850
g3
Nsg4
S'Lite sannsynlig, Mulig'
p851
sg6
S'gray'
p852
sg8
(lp853
sg10
S'Possible'
p854
sg12
S'Many'
p855
sg14
g66
sg16
I0
sg17
S'Nat'
p856
sg19
S'Naturlig utloest'
p857
sg21
Nsg22
S'300'
p858
sg24
S'1500'
p859
sg26
S'Mange bratte heng'
p860
sg28
Nsg29
g673
sg31
S'3 - Middels'
p861
sba(irunmatrix
M3Element
p862
(dp863
g3
Nsg4
S'Sannsynlig, Meget sannsynlig'
p864
sg6
S'gray'
p865
sg8
(lp866
sg10
S'Likely'
p867
sg12
S'Many'
p868
sg14
g66
sg16
I0
sg17
S'High'
p869
sg19
S'Stor tilleggsbelastning'
p870
sg21
Nsg22
S'300'
p871
sg24
S'1600'
p872
sg26
S'Mange bratte heng'
p873
sg28
Nsg29
g673
sg31
S'3 - Middels'
p874
sba(irunmatrix
M3Element
p875
(dp876
g3
Nsg4
S'Sannsynlig, Meget sannsynlig'
p877
sg6
S'white'
p878
sg8
(lp879
sg10
S'Likely'
p880
sg12
S'Many'
p881
sg14
g563
sg16
I4
sg17
S'Low'
p882
sg19
S'Liten tilleggsbelastning'
p883
sg21
Nsg22
S'300'
p884
sg24
S'1700'
p885
sg26
S'Mange bratte heng'
p886
sg28
Nsg29
g673
sg31
S'3 - Middels'
p887
sba(irunmatrix
M3Element
p888
(dp889
g3
Nsg4
S'Sannsynlig, Meget sannsynlig'
p890
sg6
S'white'
p891
sg8
(lp892
sg10
S'Likely'
p893
sg12
S'Many'
p894
sg14
g563
sg16
I4
sg17
S'Nat'
p895
sg19
S'Naturlig utloest'
p896
sg21
Nsg22
S'300'
p897
sg24
S'1800'
p898
sg26
S'Mange bratte heng'
p899
sg28
Nsg29
g673
sg31
S'3 - Middels'
p900
sba(irunmatrix
M3Element
p901
(dp902
g3
Nsg4
S'Lite sannsynlig, Mulig'
p903
sg6
S'gray'
p904
sg8
(lp905
sg10
S'Possible'
p906
sg12
S'Most'
p907
sg14
g66
sg16
I0
sg17
S'High'
p908
sg19
S'Stor tilleggsbelastning'
p909
sg21
Nsg22
S'300'
p910
sg24
S'1900'
p911
sg26
S'De fleste bratte heng, Ogsaa i mindre bratt terreng'
p912
sg28
Nsg29
g673
sg31
S'3 - Middels'
p913
sba(irunmatrix
M3Element
p914
(dp915
g3
Nsg4
S'Lite sannsynlig, Mulig'
p916
sg6
S'gray'
p917
sg8
(lp918
sg10
S'Possible'
p919
sg12
S'Most'
p920
sg14
g66
sg16
I0
sg17
S'Low'
p921
sg19
S'Liten tilleggsbelastning'
p922
sg21
Nsg22
S'300'
p923
sg24
S'2000'
p924
sg26
S'De fleste bratte heng, Ogsaa i mindre bratt terreng'
p925
sg28
Nsg29
g673
sg31
S'3 - Middels'
p926
sba(irunmatrix
M3Element
p927
(dp928
g3
Nsg4
S'Lite sannsynlig, Mulig'
p929
sg6
S'gray'
p930
sg8
(lp931
sg10
S'Possible'
p932
sg12
S'Most'
p933
sg14
g66
sg16
I0
sg17
S'Nat'
p934
sg19
S'Naturlig utloest'
p935
sg21
Nsg22
S'300'
p936
sg24
S'2100'
p937
sg26
S'De fleste bratte heng, Ogsaa i mindre bratt terreng'
p938
sg28
Nsg29
g673
sg31
S'3 - Middels'
p939
sba(irunmatrix
M3Element
p940
(dp941
g3
Nsg4
S'Sannsynlig, Meget sannsynlig'
p942
sg6
S'gray'
p943
sg8
(lp944
sg10
S'Likely'
p945
sg12
S'Most'
p946
sg14
g66
sg16
I0
sg17
S'High'
p947
sg19
S'Stor tilleggsbelastning'
p948
sg21
Nsg22
S'300'
p949
sg24
S'2200'
p950
sg26
S'De fleste bratte heng, Ogsaa i mindre bratt terreng'
p951
sg28
Nsg29
g673
sg31
S'3 - Middels'
p952
sba(irunmatrix
M3Element
p953
(dp954
g3
Nsg4
S'Sannsynlig, Meget sannsynlig'
p955
sg6
S'gray'
p956
sg8
(lp957
sg10
S'Likely'
p958
sg12
S'Most'
p959
sg14
g66
sg16
I0
sg17
S'Low'
p960
sg19
S'Liten tilleggsbelastning'
p961
sg21
Nsg22
S'300'
p962
sg24
S'2300'
p963
sg26
S'De fleste bratte heng, Ogsaa i mindre bratt terreng'
p964
sg28
Nsg29
g673
sg31
S'3 - Middels'
p965
sba(irunmatrix
M3Element
p966
(dp967
g3
Nsg4
S'Sannsynlig, Meget sannsynlig'
p968
sg6
S'white'
p969
sg8
(lp970
sg10
S'Likely'
p971
sg12
S'Most'
p972
sg14
g66
sg16
I0
sg17
S'Nat'
p973
sg19
S'Naturlig utloest'
p974
sg21
Nsg22
S'300'
p975
sg24
S'2400'
p976
sg26
S'De fleste bratte heng, Ogsaa i mindre bratt terreng'
p977
sg28
Nsg29
g673
sg31
S'3 - Middels'
p978
sba(irunmatrix
M3Element
p979
(dp980
g3
Nsg4
S'Lite sannsynlig, Mulig'
p981
sg6
S'white'
p982
sg8
(lp983
sg10
S'Possible'
p984
sg12
S'Isolated'
p985
sg14
g236
sg16
I2
sg17
S'High'
p986
sg19
S'Stor tilleggsbelastning'
p987
sg21
Nsg22
S'400'
p988
sg24
S'100'
p989
sg26
S'Isolerte faresoner'
p990
sg28
Nsg29
S'4'
p991
sg31
S'4 - Store'
p992
sba(irunmatrix
M3Element
p993
(dp994
g3
Nsg4
S'Lite sannsynlig, Mulig'
p995
sg6
S'white'
p996
sg8
(lp997
sg10
S'Possible'
p998
sg12
S'Isolated'
p999
sg14
g497
sg16
I3
sg17
S'Low'
p1000
sg19
S'Liten tilleggsbelastning'
p1001
sg21
Nsg22
S'400'
p1002
sg24
S'200'
p1003
sg26
S'Isolerte faresoner'
p1004
sg28
Nsg29
g991
sg31
S'4 - Store'
p1005
sba(irunmatrix
M3Element
p1006
(dp1007
g3
Nsg4
S'Lite sannsynlig, Mulig'
p1008
sg6
S'white'
p1009
sg8
(lp1010
sg10
S'Possible'
p1011
sg12
S'Isolated'
p1012
sg14
g497
sg16
I3
sg17
S'Nat'
p1013
sg19
S'Naturlig utloest'
p1014
sg21
Nsg22
S'400'
p1015
sg24
S'300'
p1016
sg26
S'Isolerte faresoner'
p1017
sg28
Nsg29
g991
sg31
S'4 - Store'
p1018
sba(irunmatrix
M3Element
p1019
(dp1020
g3
Nsg4
S'Sannsynlig, Meget sannsynlig'
p1021
sg6
S'gray'
p1022
sg8
(lp1023
sg10
S'Likely'
p1024
sg12
S'Isolated'
p1025
sg14
g66
sg16
I0
sg17
S'High'
p1026
sg19
S'Stor tilleggsbelastning'
p1027
sg21
Nsg22
S'400'
p1028
sg24
S'400'
p1029
sg26
S'Isolerte faresoner'
p1030
sg28
Nsg29
g991
sg31
S'4 - Store'
p1031
sba(irunmatrix
M3Element
p1032
(dp1033
g3
Nsg4
S'Sannsynlig, Meget sannsynlig'
p1034
sg6
S'gray'
p1035
sg8
(lp1036
sg10
S'Likely'
p1037
sg12
S'Isolated'
p1038
sg14
g66
sg16
I0
sg17
S'Low'
p1039
sg19
S'Liten tilleggsbelastning'
p1040
sg21
Nsg22
S'400'
p1041
sg24
S'500'
p1042
sg26
S'Isolerte faresoner'
p1043
sg28
Nsg29
g991
sg31
S'4 - Store'
p1044
sba(irunmatrix
M3Element
p1045
(dp1046
g3
Nsg4
S'Sannsynlig, Meget sannsynlig'
p1047
sg6
S'gray'
p1048
sg8
(lp1049
sg10
S'Likely'
p1050
sg12
S'Isolated'
p1051
sg14
g66
sg16
I0
sg17
S'Nat'
p1052
sg19
S'Naturlig utloest'
p1053
sg21
Nsg22
S'400'
p1054
sg24
S'600'
p1055
sg26
S'Isolerte faresoner'
p1056
sg28
Nsg29
g991
sg31
S'4 - Store'
p1057
sba(irunmatrix
M3Element
p1058
(dp1059
g3
Nsg4
S'Lite sannsynlig, Mulig'
p1060
sg6
S'white'
p1061
sg8
(lp1062
sg10
S'Possible'
p1063
sg12
S'Some'
p1064
sg14
g497
sg16
I3
sg17
S'High'
p1065
sg19
S'Stor tilleggsbelastning'
p1066
sg21
Nsg22
S'400'
p1067
sg24
S'700'
p1068
sg26
S'Noen bratte heng'
p1069
sg28
Nsg29
g991
sg31
S'4 - Store'
p1070
sba(irunmatrix
M3Element
p1071
(dp1072
g3
Nsg4
S'Lite sannsynlig, Mulig'
p1073
sg6
S'white'
p1074
sg8
(lp1075
sg10
S'Possible'
p1076
sg12
S'Some'
p1077
sg14
g563
sg16
I4
sg17
S'Low'
p1078
sg19
S'Liten tilleggsbelastning'
p1079
sg21
Nsg22
S'400'
p1080
sg24
S'800'
p1081
sg26
S'Noen bratte heng'
p1082
sg28
Nsg29
g991
sg31
S'4 - Store'
p1083
sba(irunmatrix
M3Element
p1084
(dp1085
g3
Nsg4
S'Lite sannsynlig, Mulig'
p1086
sg6
S'white'
p1087
sg8
(lp1088
sg10
S'Possible'
p1089
sg12
S'Some'
p1090
sg14
g563
sg16
I4
sg17
S'Nat'
p1091
sg19
S'Naturlig utloest'
p1092
sg21
Nsg22
S'400'
p1093
sg24
S'900'
p1094
sg26
S'Noen bratte heng'
p1095
sg28
Nsg29
g991
sg31
S'4 - Store'
p1096
sba(irunmatrix
M3Element
p1097
(dp1098
g3
Nsg4
S'Sannsynlig, Meget sannsynlig'
p1099
sg6
S'gray'
p1100
sg8
(lp1101
sg10
S'Likely'
p1102
sg12
S'Some'
p1103
sg14
g66
sg16
I0
sg17
S'High'
p1104
sg19
S'Stor tilleggsbelastning'
p1105
sg21
Nsg22
S'400'
p1106
sg24
S'1000'
p1107
sg26
S'Noen bratte heng'
p1108
sg28
Nsg29
g991
sg31
S'4 - Store'
p1109
sba(irunmatrix
M3Element
p1110
(dp1111
g3
Nsg4
S'Sannsynlig, Meget sannsynlig'
p1112
sg6
S'gray'
p1113
sg8
(lp1114
sg10
S'Likely'
p1115
sg12
S'Some'
p1116
sg14
g66
sg16
I0
sg17
S'Low'
p1117
sg19
S'Liten tilleggsbelastning'
p1118
sg21
Nsg22
S'400'
p1119
sg24
S'1100'
p1120
sg26
S'Noen bratte heng'
p1121
sg28
Nsg29
g991
sg31
S'4 - Store'
p1122
sba(irunmatrix
M3Element
p1123
(dp1124
g3
Nsg4
S'Sannsynlig, Meget sannsynlig'
p1125
sg6
S'white'
p1126
sg8
(lp1127
sg10
S'Likely'
p1128
sg12
S'Some'
p1129
sg14
g563
sg16
I4
sg17
S'Nat'
p1130
sg19
S'Naturlig utloest'
p1131
sg21
Nsg22
S'400'
p1132
sg24
S'1200'
p1133
sg26
S'Noen bratte heng'
p1134
sg28
Nsg29
g991
sg31
S'4 - Store'
p1135
sba(irunmatrix
M3Element
p1136
(dp1137
g3
Nsg4
S'Lite sannsynlig, Mulig'
p1138
sg6
S'gray'
p1139
sg8
(lp1140
sg10
S'Possible'
p1141
sg12
S'Many'
p1142
sg14
g66
sg16
I0
sg17
S'High'
p1143
sg19
S'Stor tilleggsbelastning'
p1144
sg21
Nsg22
S'400'
p1145
sg24
S'1300'
p1146
sg26
S'Mange bratte heng'
p1147
sg28
Nsg29
g991
sg31
S'4 - Store'
p1148
sba(irunmatrix
M3Element
p1149
(dp1150
g3
Nsg4
S'Lite sannsynlig, Mulig'
p1151
sg6
S'white'
p1152
sg8
(lp1153
sg10
S'Possible'
p1154
sg12
S'Many'
p1155
sg14
g66
sg16
I0
sg17
S'Low'
p1156
sg19
S'Liten tilleggsbelastning'
p1157
sg21
Nsg22
S'400'
p1158
sg24
S'1400'
p1159
sg26
S'Mange bratte heng'
p1160
sg28
Nsg29
g991
sg31
S'4 - Store'
p1161
sba(irunmatrix
M3Element
p1162
(dp1163
g3
Nsg4
S'Lite sannsynlig, Mulig'
p1164
sg6
S'gray'
p1165
sg8
(lp1166
sg10
S'Possible'
p1167
sg12
S'Many'
p1168
sg14
g66
sg16
I0
sg17
S'Nat'
p1169
sg19
S'Naturlig utloest'
p1170
sg21
Nsg22
S'400'
p1171
sg24
S'1500'
p1172
sg26
S'Mange bratte heng'
p1173
sg28
Nsg29
g991
sg31
S'4 - Store'
p1174
sba(irunmatrix
M3Element
p1175
(dp1176
g3
Nsg4
S'Sannsynlig, Meget sannsynlig'
p1177
sg6
S'gray'
p1178
sg8
(lp1179
sg10
S'Likely'
p1180
sg12
S'Many'
p1181
sg14
g66
sg16
I0
sg17
S'High'
p1182
sg19
S'Stor tilleggsbelastning'
p1183
sg21
Nsg22
S'400'
p1184
sg24
S'1600'
p1185
sg26
S'Mange bratte heng'
p1186
sg28
Nsg29
g991
sg31
S'4 - Store'
p1187
sba(irunmatrix
M3Element
p1188
(dp1189
g3
Nsg4
S'Sannsynlig, Meget sannsynlig'
p1190
sg6
S'white'
p1191
sg8
(lp1192
sg10
S'Likely'
p1193
sg12
S'Many'
p1194
sg14
g66
sg16
I0
sg17
S'Low'
p1195
sg19
S'Liten tilleggsbelastning'
p1196
sg21
Nsg22
S'400'
p1197
sg24
S'1700'
p1198
sg26
S'Mange bratte heng'
p1199
sg28
Nsg29
g991
sg31
S'4 - Store'
p1200
sba(irunmatrix
M3Element
p1201
(dp1202
g3
Nsg4
S'Sannsynlig, Meget sannsynlig'
p1203
sg6
S'white'
p1204
sg8
(lp1205
sg10
S'Likely'
p1206
sg12
S'Many'
p1207
sg14
S'k'
p1208
sg16
I5
sg17
S'Nat'
p1209
sg19
S'Naturlig utloest'
p1210
sg21
Nsg22
S'400'
p1211
sg24
S'1800'
p1212
sg26
S'Mange bratte heng'
p1213
sg28
Nsg29
g991
sg31
S'4 - Store'
p1214
sba(irunmatrix
M3Element
p1215
(dp1216
g3
Nsg4
S'Lite sannsynlig, Mulig'
p1217
sg6
S'gray'
p1218
sg8
(lp1219
sg10
S'Possible'
p1220
sg12
S'Most'
p1221
sg14
g66
sg16
I0
sg17
S'High'
p1222
sg19
S'Stor tilleggsbelastning'
p1223
sg21
Nsg22
S'400'
p1224
sg24
S'1900'
p1225
sg26
S'De fleste bratte heng, Ogsaa i mindre bratt terreng'
p1226
sg28
Nsg29
g991
sg31
S'4 - Store'
p1227
sba(irunmatrix
M3Element
p1228
(dp1229
g3
Nsg4
S'Lite sannsynlig, Mulig'
p1230
sg6
S'gray'
p1231
sg8
(lp1232
sg10
S'Possible'
p1233
sg12
S'Most'
p1234
sg14
g66
sg16
I0
sg17
S'Low'
p1235
sg19
S'Liten tilleggsbelastning'
p1236
sg21
Nsg22
S'400'
p1237
sg24
S'2000'
p1238
sg26
S'De fleste bratte heng, Ogsaa i mindre bratt terreng'
p1239
sg28
Nsg29
g991
sg31
S'4 - Store'
p1240
sba(irunmatrix
M3Element
p1241
(dp1242
g3
Nsg4
S'Lite sannsynlig, Mulig'
p1243
sg6
S'gray'
p1244
sg8
(lp1245
sg10
S'Possible'
p1246
sg12
S'Most'
p1247
sg14
g66
sg16
I0
sg17
S'Nat'
p1248
sg19
S'Naturlig utloest'
p1249
sg21
Nsg22
S'400'
p1250
sg24
S'2100'
p1251
sg26
S'De fleste bratte heng, Ogsaa i mindre bratt terreng'
p1252
sg28
Nsg29
g991
sg31
S'4 - Store'
p1253
sba(irunmatrix
M3Element
p1254
(dp1255
g3
Nsg4
S'Sannsynlig, Meget sannsynlig'
p1256
sg6
S'gray'
p1257
sg8
(lp1258
sg10
S'Likely'
p1259
sg12
S'Most'
p1260
sg14
g66
sg16
I0
sg17
S'High'
p1261
sg19
S'Stor tilleggsbelastning'
p1262
sg21
Nsg22
S'400'
p1263
sg24
S'2200'
p1264
sg26
S'De fleste bratte heng, Ogsaa i mindre bratt terreng'
p1265
sg28
Nsg29
g991
sg31
S'4 - Store'
p1266
sba(irunmatrix
M3Element
p1267
(dp1268
g3
Nsg4
S'Sannsynlig, Meget sannsynlig'
p1269
sg6
S'gray'
p1270
sg8
(lp1271
sg10
S'Likely'
p1272
sg12
S'Most'
p1273
sg14
g66
sg16
I0
sg17
S'Low'
p1274
sg19
S'Liten tilleggsbelastning'
p1275
sg21
Nsg22
S'400'
p1276
sg24
S'2300'
p1277
sg26
S'De fleste bratte heng, Ogsaa i mindre bratt terreng'
p1278
sg28
Nsg29
g991
sg31
S'4 - Store'
p1279
sba(irunmatrix
M3Element
p1280
(dp1281
g3
Nsg4
S'Sannsynlig, Meget sannsynlig'
p1282
sg6
S'white'
p1283
sg8
(lp1284
sg10
S'Likely'
p1285
sg12
S'Most'
p1286
sg14
g66
sg16
I0
sg17
S'Nat'
p1287
sg19
S'Naturlig utloest'
p1288
sg21
Nsg22
S'400'
p1289
sg24
S'2400'
p1290
sg26
S'De fleste bratte heng, Ogsaa i mindre bratt terreng'
p1291
sg28
Nsg29
g991
sg31
S'4 - Store'
p1292
sba(irunmatrix
M3Element
p1293
(dp1294
g3
Nsg4
S'Lite sannsynlig, Mulig'
p1295
sg6
S'white'
p1296
sg8
(lp1297
sg10
S'Possible'
p1298
sg12
S'Isolated'
p1299
sg14
g66
sg16
I0
sg17
S'High'
p1300
sg19
S'Stor tilleggsbelastning'
p1301
sg21
Nsg22
S'500'
p1302
sg24
S'100'
p1303
sg26
S'Isolerte faresoner'
p1304
sg28
Nsg29
S'5'
p1305
sg31
S'5 - Svaert store'
p1306
sba(irunmatrix
M3Element
p1307
(dp1308
g3
Nsg4
S'Lite sannsynlig, Mulig'
p1309
sg6
S'white'
p1310
sg8
(lp1311
sg10
S'Possible'
p1312
sg12
S'Isolated'
p1313
sg14
g66
sg16
I0
sg17
S'Low'
p1314
sg19
S'Liten tilleggsbelastning'
p1315
sg21
Nsg22
S'500'
p1316
sg24
S'200'
p1317
sg26
S'Isolerte faresoner'
p1318
sg28
Nsg29
g1305
sg31
S'5 - Svaert store'
p1319
sba(irunmatrix
M3Element
p1320
(dp1321
g3
Nsg4
S'Lite sannsynlig, Mulig'
p1322
sg6
S'white'
p1323
sg8
(lp1324
sg10
S'Possible'
p1325
sg12
S'Isolated'
p1326
sg14
g66
sg16
I0
sg17
S'Nat'
p1327
sg19
S'Naturlig utloest'
p1328
sg21
Nsg22
S'500'
p1329
sg24
S'300'
p1330
sg26
S'Isolerte faresoner'
p1331
sg28
Nsg29
g1305
sg31
S'5 - Svaert store'
p1332
sba(irunmatrix
M3Element
p1333
(dp1334
g3
Nsg4
S'Sannsynlig, Meget sannsynlig'
p1335
sg6
S'gray'
p1336
sg8
(lp1337
sg10
S'Likely'
p1338
sg12
S'Isolated'
p1339
sg14
g66
sg16
I0
sg17
S'High'
p1340
sg19
S'Stor tilleggsbelastning'
p1341
sg21
Nsg22
S'500'
p1342
sg24
S'400'
p1343
sg26
S'Isolerte faresoner'
p1344
sg28
Nsg29
g1305
sg31
S'5 - Svaert store'
p1345
sba(irunmatrix
M3Element
p1346
(dp1347
g3
Nsg4
S'Sannsynlig, Meget sannsynlig'
p1348
sg6
S'gray'
p1349
sg8
(lp1350
sg10
S'Likely'
p1351
sg12
S'Isolated'
p1352
sg14
g66
sg16
I0
sg17
S'Low'
p1353
sg19
S'Liten tilleggsbelastning'
p1354
sg21
Nsg22
S'500'
p1355
sg24
S'500'
p1356
sg26
S'Isolerte faresoner'
p1357
sg28
Nsg29
g1305
sg31
S'5 - Svaert store'
p1358
sba(irunmatrix
M3Element
p1359
(dp1360
g3
Nsg4
S'Sannsynlig, Meget sannsynlig'
p1361
sg6
S'gray'
p1362
sg8
(lp1363
sg10
S'Likely'
p1364
sg12
S'Isolated'
p1365
sg14
g66
sg16
I0
sg17
S'Nat'
p1366
sg19
S'Naturlig utloest'
p1367
sg21
Nsg22
S'500'
p1368
sg24
S'600'
p1369
sg26
S'Isolerte faresoner'
p1370
sg28
Nsg29
g1305
sg31
S'5 - Svaert store'
p1371
sba(irunmatrix
M3Element
p1372
(dp1373
g3
Nsg4
S'Lite sannsynlig, Mulig'
p1374
sg6
S'white'
p1375
sg8
(lp1376
sg10
S'Possible'
p1377
sg12
S'Some'
p1378
sg14
g66
sg16
I0
sg17
S'High'
p1379
sg19
S'Stor tilleggsbelastning'
p1380
sg21
Nsg22
S'500'
p1381
sg24
S'700'
p1382
sg26
S'Noen bratte heng'
p1383
sg28
Nsg29
g1305
sg31
S'5 - Svaert store'
p1384
sba(irunmatrix
M3Element
p1385
(dp1386
g3
Nsg4
S'Lite sannsynlig, Mulig'
p1387
sg6
S'white'
p1388
sg8
(lp1389
sg10
S'Possible'
p1390
sg12
S'Some'
p1391
sg14
g66
sg16
I0
sg17
S'Low'
p1392
sg19
S'Liten tilleggsbelastning'
p1393
sg21
Nsg22
S'500'
p1394
sg24
S'800'
p1395
sg26
S'Noen bratte heng'
p1396
sg28
Nsg29
g1305
sg31
S'5 - Svaert store'
p1397
sba(irunmatrix
M3Element
p1398
(dp1399
g3
Nsg4
S'Lite sannsynlig, Mulig'
p1400
sg6
S'white'
p1401
sg8
(lp1402
sg10
S'Possible'
p1403
sg12
S'Some'
p1404
sg14
g66
sg16
I0
sg17
S'Nat'
p1405
sg19
S'Naturlig utloest'
p1406
sg21
Nsg22
S'500'
p1407
sg24
S'900'
p1408
sg26
S'Noen bratte heng'
p1409
sg28
Nsg29
g1305
sg31
S'5 - Svaert store'
p1410
sba(irunmatrix
M3Element
p1411
(dp1412
g3
Nsg4
S'Sannsynlig, Meget sannsynlig'
p1413
sg6
S'gray'
p1414
sg8
(lp1415
sg10
S'Likely'
p1416
sg12
S'Some'
p1417
sg14
g66
sg16
I0
sg17
S'High'
p1418
sg19
S'Stor tilleggsbelastning'
p1419
sg21
Nsg22
S'500'
p1420
sg24
S'1000'
p1421
sg26
S'Noen bratte heng'
p1422
sg28
Nsg29
g1305
sg31
S'5 - Svaert store'
p1423
sba(irunmatrix
M3Element
p1424
(dp1425
g3
Nsg4
S'Sannsynlig, Meget sannsynlig'
p1426
sg6
S'gray'
p1427
sg8
(lp1428
sg10
S'Likely'
p1429
sg12
S'Some'
p1430
sg14
g66
sg16
I0
sg17
S'Low'
p1431
sg19
S'Liten tilleggsbelastning'
p1432
sg21
Nsg22
S'500'
p1433
sg24
S'1100'
p1434
sg26
S'Noen bratte heng'
p1435
sg28
Nsg29
g1305
sg31
S'5 - Svaert store'
p1436
sba(irunmatrix
M3Element
p1437
(dp1438
g3
Nsg4
S'Sannsynlig, Meget sannsynlig'
p1439
sg6
S'white'
p1440
sg8
(lp1441
sg10
S'Likely'
p1442
sg12
S'Some'
p1443
sg14
g66
sg16
I0
sg17
S'Nat'
p1444
sg19
S'Naturlig utloest'
p1445
sg21
Nsg22
S'500'
p1446
sg24
S'1200'
p1447
sg26
S'Noen bratte heng'
p1448
sg28
Nsg29
g1305
sg31
S'5 - Svaert store'
p1449
sba(irunmatrix
M3Element
p1450
(dp1451
g3
Nsg4
S'Lite sannsynlig, Mulig'
p1452
sg6
S'gray'
p1453
sg8
(lp1454
sg10
S'Possible'
p1455
sg12
S'Many'
p1456
sg14
g66
sg16
I0
sg17
S'High'
p1457
sg19
S'Stor tilleggsbelastning'
p1458
sg21
Nsg22
S'500'
p1459
sg24
S'1300'
p1460
sg26
S'Mange bratte heng'
p1461
sg28
Nsg29
g1305
sg31
S'5 - Svaert store'
p1462
sba(irunmatrix
M3Element
p1463
(dp1464
g3
Nsg4
S'Lite sannsynlig, Mulig'
p1465
sg6
S'white'
p1466
sg8
(lp1467
sg10
S'Possible'
p1468
sg12
S'Many'
p1469
sg14
g66
sg16
I0
sg17
S'Low'
p1470
sg19
S'Liten tilleggsbelastning'
p1471
sg21
Nsg22
S'500'
p1472
sg24
S'1400'
p1473
sg26
S'Mange bratte heng'
p1474
sg28
Nsg29
g1305
sg31
S'5 - Svaert store'
p1475
sba(irunmatrix
M3Element
p1476
(dp1477
g3
Nsg4
S'Lite sannsynlig, Mulig'
p1478
sg6
S'gray'
p1479
sg8
(lp1480
sg10
S'Possible'
p1481
sg12
S'Many'
p1482
sg14
g66
sg16
I0
sg17
S'Nat'
p1483
sg19
S'Naturlig utloest'
p1484
sg21
Nsg22
S'500'
p1485
sg24
S'1500'
p1486
sg26
S'Mange bratte heng'
p1487
sg28
Nsg29
g1305
sg31
S'5 - Svaert store'
p1488
sba(irunmatrix
M3Element
p1489
(dp1490
g3
Nsg4
S'Sannsynlig, Meget sannsynlig'
p1491
sg6
S'gray'
p1492
sg8
(lp1493
sg10
S'Likely'
p1494
sg12
S'Many'
p1495
sg14
g66
sg16
I0
sg17
S'High'
p1496
sg19
S'Stor tilleggsbelastning'
p1497
sg21
Nsg22
S'500'
p1498
sg24
S'1600'
p1499
sg26
S'Mange bratte heng'
p1500
sg28
Nsg29
g1305
sg31
S'5 - Svaert store'
p1501
sba(irunmatrix
M3Element
p1502
(dp1503
g3
Nsg4
S'Sannsynlig, Meget sannsynlig'
p1504
sg6
S'white'
p1505
sg8
(lp1506
sg10
S'Likely'
p1507
sg12
S'Many'
p1508
sg14
g66
sg16
I0
sg17
S'Low'
p1509
sg19
S'Liten tilleggsbelastning'
p1510
sg21
Nsg22
S'500'
p1511
sg24
S'1700'
p1512
sg26
S'Mange bratte heng'
p1513
sg28
Nsg29
g1305
sg31
S'5 - Svaert store'
p1514
sba(irunmatrix
M3Element
p1515
(dp1516
g3
Nsg4
S'Sannsynlig, Meget sannsynlig'
p1517
sg6
S'white'
p1518
sg8
(lp1519
sg10
S'Likely'
p1520
sg12
S'Many'
p1521
sg14
g1208
sg16
I5
sg17
S'Nat'
p1522
sg19
S'Naturlig utloest'
p1523
sg21
Nsg22
S'500'
p1524
sg24
S'1800'
p1525
sg26
S'Mange bratte heng'
p1526
sg28
Nsg29
g1305
sg31
S'5 - Svaert store'
p1527
sba(irunmatrix
M3Element
p1528
(dp1529
g3
Nsg4
S'Lite sannsynlig, Mulig'
p1530
sg6
S'gray'
p1531
sg8
(lp1532
sg10
S'Possible'
p1533
sg12
S'Most'
p1534
sg14
g66
sg16
I0
sg17
S'High'
p1535
sg19
S'Stor tilleggsbelastning'
p1536
sg21
Nsg22
S'500'
p1537
sg24
S'1900'
p1538
sg26
S'De fleste bratte heng, Ogsaa i mindre bratt terreng'
p1539
sg28
Nsg29
g1305
sg31
S'5 - Svaert store'
p1540
sba(irunmatrix
M3Element
p1541
(dp1542
g3
Nsg4
S'Lite sannsynlig, Mulig'
p1543
sg6
S'gray'
p1544
sg8
(lp1545
sg10
S'Possible'
p1546
sg12
S'Most'
p1547
sg14
g66
sg16
I0
sg17
S'Low'
p1548
sg19
S'Liten tilleggsbelastning'
p1549
sg21
Nsg22
S'500'
p1550
sg24
S'2000'
p1551
sg26
S'De fleste bratte heng, Ogsaa i mindre bratt terreng'
p1552
sg28
Nsg29
g1305
sg31
S'5 - Svaert store'
p1553
sba(irunmatrix
M3Element
p1554
(dp1555
g3
Nsg4
S'Lite sannsynlig, Mulig'
p1556
sg6
S'gray'
p1557
sg8
(lp1558
sg10
S'Possible'
p1559
sg12
S'Most'
p1560
sg14
g66
sg16
I0
sg17
S'Nat'
p1561
sg19
S'Naturlig utloest'
p1562
sg21
Nsg22
S'500'
p1563
sg24
S'2100'
p1564
sg26
S'De fleste bratte heng, Ogsaa i mindre bratt terreng'
p1565
sg28
Nsg29
g1305
sg31
S'5 - Svaert store'
p1566
sba(irunmatrix
M3Element
p1567
(dp1568
g3
Nsg4
S'Sannsynlig, Meget sannsynlig'
p1569
sg6
S'gray'
p1570
sg8
(lp1571
sg10
S'Likely'
p1572
sg12
S'Most'
p1573
sg14
g66
sg16
I0
sg17
S'High'
p1574
sg19
S'Stor tilleggsbelastning'
p1575
sg21
Nsg22
S'500'
p1576
sg24
S'2200'
p1577
sg26
S'De fleste bratte heng, Ogsaa i mindre bratt terreng'
p1578
sg28
Nsg29
g1305
sg31
S'5 - Svaert store'
p1579
sba(irunmatrix
M3Element
p1580
(dp1581
g3
Nsg4
S'Sannsynlig, Meget sannsynlig'
p1582
sg6
S'gray'
p1583
sg8
(lp1584
sg10
S'Likely'
p1585
sg12
S'Most'
p1586
sg14
g66
sg16
I0
sg17
S'Low'
p1587
sg19
S'Liten tilleggsbelastning'
p1588
sg21
Nsg22
S'500'
p1589
sg24
S'2300'
p1590
sg26
S'De fleste bratte heng, Ogsaa i mindre bratt terreng'
p1591
sg28
Nsg29
g1305
sg31
S'5 - Svaert store'
p1592
sba(irunmatrix
M3Element
p1593
(dp1594
g3
Nsg4
S'Sannsynlig, Meget sannsynlig'
p1595
sg6
S'white'
p1596
sg8
(lp1597
sg10
S'Likely'
p1598
sg12
S'Most'
p1599
sg14
g66
sg16
I0
sg17
S'Nat'
p1600
sg19
S'Naturlig utloest'
p1601
sg21
Nsg22
S'500'
p1602
sg24
S'2400'
p1603
sg26
S'De fleste bratte heng, Ogsaa i mindre bratt terreng'
p1604
sg28
Nsg29
g1305
sg31
S'5 - Svaert store'
p1605
sba.