(lp0
(irunmatrix
M3Element
p1
(dp2
S'danger_level_average'
p3
NsS'probability'
p4
S'Lite sannsynlig, Mulig'
p5
sS'colour'
p6
S'white'
p7
sS'danger_level_list'
p8
(lp9
sS'label_probalility'
p10
S'Possible'
p11
sS'label_distribution'
p12
S'Isolated'
p13
sS'recomended_colour'
p14
S'#ccff66'
p15
sS'recomended_danger_level'
p16
I1
sS'label_trigger'
p17
S'High'
p18
sS'trigger'
p19
S'Stor tilleggsbelastning'
p20
sS'occurrences'
p21
NsS'y'
p22
S'100'
p23
sS'x'
p24
S'100'
p25
sS'distribution'
p26
S'Isolerte faresoner'
p27
sS'danger_level_standard_dev'
p28
NsS'label_size'
p29
S'1'
p30
sS'avalanche_size'
p31
S'1 - Harmloest'
p32
sba(irunmatrix
M3Element
p33
(dp34
g3
Nsg4
S'Lite sannsynlig, Mulig'
p35
sg6
S'white'
p36
sg8
(lp37
sg10
S'Possible'
p38
sg12
S'Isolated'
p39
sg14
g15
sg16
I1
sg17
S'Low'
p40
sg19
S'Liten tilleggsbelastning'
p41
sg21
Nsg22
S'100'
p42
sg24
S'200'
p43
sg26
S'Isolerte faresoner'
p44
sg28
Nsg29
g30
sg31
S'1 - Harmloest'
p45
sba(irunmatrix
M3Element
p46
(dp47
g3
Nsg4
S'Lite sannsynlig, Mulig'
p48
sg6
S'white'
p49
sg8
(lp50
sg10
S'Possible'
p51
sg12
S'Isolated'
p52
sg14
g15
sg16
I1
sg17
S'Nat'
p53
sg19
S'Naturlig utloest'
p54
sg21
Nsg22
S'100'
p55
sg24
S'300'
p56
sg26
S'Isolerte faresoner'
p57
sg28
Nsg29
g30
sg31
S'1 - Harmloest'
p58
sba(irunmatrix
M3Element
p59
(dp60
g3
Nsg4
S'Sannsynlig, Meget sannsynlig'
p61
sg6
S'gray'
p62
sg8
(lp63
sg10
S'Likely'
p64
sg12
S'Isolated'
p65
sg14
S'gray'
p66
sg16
I0
sg17
S'High'
p67
sg19
S'Stor tilleggsbelastning'
p68
sg21
Nsg22
S'100'
p69
sg24
S'400'
p70
sg26
S'Isolerte faresoner'
p71
sg28
Nsg29
g30
sg31
S'1 - Harmloest'
p72
sba(irunmatrix
M3Element
p73
(dp74
g3
Nsg4
S'Sannsynlig, Meget sannsynlig'
p75
sg6
S'gray'
p76
sg8
(lp77
sg10
S'Likely'
p78
sg12
S'Isolated'
p79
sg14
g66
sg16
I0
sg17
S'Low'
p80
sg19
S'Liten tilleggsbelastning'
p81
sg21
Nsg22
S'100'
p82
sg24
S'500'
p83
sg26
S'Isolerte faresoner'
p84
sg28
Nsg29
g30
sg31
S'1 - Harmloest'
p85
sba(irunmatrix
M3Element
p86
(dp87
g3
Nsg4
S'Sannsynlig, Meget sannsynlig'
p88
sg6
S'gray'
p89
sg8
(lp90
sg10
S'Likely'
p91
sg12
S'Isolated'
p92
sg14
g66
sg16
I0
sg17
S'Nat'
p93
sg19
S'Naturlig utloest'
p94
sg21
Nsg22
S'100'
p95
sg24
S'600'
p96
sg26
S'Isolerte faresoner'
p97
sg28
Nsg29
g30
sg31
S'1 - Harmloest'
p98
sba(irunmatrix
M3Element
p99
(dp100
g3
F1.0
sg4
S'Lite sannsynlig, Mulig'
p101
sg6
S'#ccff66'
p102
sg8
(lp103
I1
aI1
asg10
S'Possible'
p104
sg12
S'Some'
p105
sg14
g15
sg16
I1
sg17
S'High'
p106
sg19
S'Stor tilleggsbelastning'
p107
sg21
I2
sg22
S'100'
p108
sg24
S'700'
p109
sg26
S'Noen bratte heng'
p110
sg28
cnumpy.core.multiarray
scalar
p111
(cnumpy
dtype
p112
(S'f8'
p113
I0
I1
tp114
Rp115
(I3
S'<'
p116
NNNI-1
I-1
I0
tp117
bS'\x00\x00\x00\x00\x00\x00\x00\x00'
p118
tp119
Rp120
sg29
g30
sg31
S'1 - Harmloest'
p121
sba(irunmatrix
M3Element
p122
(dp123
g3
Nsg4
S'Lite sannsynlig, Mulig'
p124
sg6
S'white'
p125
sg8
(lp126
sg10
S'Possible'
p127
sg12
S'Some'
p128
sg14
g15
sg16
I1
sg17
S'Low'
p129
sg19
S'Liten tilleggsbelastning'
p130
sg21
Nsg22
S'100'
p131
sg24
S'800'
p132
sg26
S'Noen bratte heng'
p133
sg28
Nsg29
g30
sg31
S'1 - Harmloest'
p134
sba(irunmatrix
M3Element
p135
(dp136
g3
F2.0
sg4
S'Lite sannsynlig, Mulig'
p137
sg6
S'#ffff00'
p138
sg8
(lp139
I2
asg10
S'Possible'
p140
sg12
S'Some'
p141
sg14
g15
sg16
I1
sg17
S'Nat'
p142
sg19
S'Naturlig utloest'
p143
sg21
I1
sg22
S'100'
p144
sg24
S'900'
p145
sg26
S'Noen bratte heng'
p146
sg28
g111
(g115
S'\x00\x00\x00\x00\x00\x00\x00\x00'
p147
tp148
Rp149
sg29
g30
sg31
S'1 - Harmloest'
p150
sba(irunmatrix
M3Element
p151
(dp152
g3
Nsg4
S'Sannsynlig, Meget sannsynlig'
p153
sg6
S'gray'
p154
sg8
(lp155
sg10
S'Likely'
p156
sg12
S'Some'
p157
sg14
g66
sg16
I0
sg17
S'High'
p158
sg19
S'Stor tilleggsbelastning'
p159
sg21
Nsg22
S'100'
p160
sg24
S'1000'
p161
sg26
S'Noen bratte heng'
p162
sg28
Nsg29
g30
sg31
S'1 - Harmloest'
p163
sba(irunmatrix
M3Element
p164
(dp165
g3
Nsg4
S'Sannsynlig, Meget sannsynlig'
p166
sg6
S'gray'
p167
sg8
(lp168
sg10
S'Likely'
p169
sg12
S'Some'
p170
sg14
g66
sg16
I0
sg17
S'Low'
p171
sg19
S'Liten tilleggsbelastning'
p172
sg21
Nsg22
S'100'
p173
sg24
S'1100'
p174
sg26
S'Noen bratte heng'
p175
sg28
Nsg29
g30
sg31
S'1 - Harmloest'
p176
sba(irunmatrix
M3Element
p177
(dp178
g3
Nsg4
S'Sannsynlig, Meget sannsynlig'
p179
sg6
S'white'
p180
sg8
(lp181
sg10
S'Likely'
p182
sg12
S'Some'
p183
sg14
g15
sg16
I1
sg17
S'Nat'
p184
sg19
S'Naturlig utloest'
p185
sg21
Nsg22
S'100'
p186
sg24
S'1200'
p187
sg26
S'Noen bratte heng'
p188
sg28
Nsg29
g30
sg31
S'1 - Harmloest'
p189
sba(irunmatrix
M3Element
p190
(dp191
g3
Nsg4
S'Lite sannsynlig, Mulig'
p192
sg6
S'gray'
p193
sg8
(lp194
sg10
S'Possible'
p195
sg12
S'Many'
p196
sg14
g66
sg16
I0
sg17
S'High'
p197
sg19
S'Stor tilleggsbelastning'
p198
sg21
Nsg22
S'100'
p199
sg24
S'1300'
p200
sg26
S'Mange bratte heng'
p201
sg28
Nsg29
g30
sg31
S'1 - Harmloest'
p202
sba(irunmatrix
M3Element
p203
(dp204
g3
Nsg4
S'Lite sannsynlig, Mulig'
p205
sg6
S'white'
p206
sg8
(lp207
sg10
S'Possible'
p208
sg12
S'Many'
p209
sg14
g15
sg16
I1
sg17
S'Low'
p210
sg19
S'Liten tilleggsbelastning'
p211
sg21
Nsg22
S'100'
p212
sg24
S'1400'
p213
sg26
S'Mange bratte heng'
p214
sg28
Nsg29
g30
sg31
S'1 - Harmloest'
p215
sba(irunmatrix
M3Element
p216
(dp217
g3
Nsg4
S'Lite sannsynlig, Mulig'
p218
sg6
S'gray'
p219
sg8
(lp220
sg10
S'Possible'
p221
sg12
S'Many'
p222
sg14
g66
sg16
I0
sg17
S'Nat'
p223
sg19
S'Naturlig utloest'
p224
sg21
Nsg22
S'100'
p225
sg24
S'1500'
p226
sg26
S'Mange bratte heng'
p227
sg28
Nsg29
g30
sg31
S'1 - Harmloest'
p228
sba(irunmatrix
M3Element
p229
(dp230
g3
Nsg4
S'Sannsynlig, Meget sannsynlig'
p231
sg6
S'gray'
p232
sg8
(lp233
sg10
S'Likely'
p234
sg12
S'Many'
p235
sg14
g66
sg16
I0
sg17
S'High'
p236
sg19
S'Stor tilleggsbelastning'
p237
sg21
Nsg22
S'100'
p238
sg24
S'1600'
p239
sg26
S'Mange bratte heng'
p240
sg28
Nsg29
g30
sg31
S'1 - Harmloest'
p241
sba(irunmatrix
M3Element
p242
(dp243
g3
Nsg4
S'Sannsynlig, Meget sannsynlig'
p244
sg6
S'white'
p245
sg8
(lp246
sg10
S'Likely'
p247
sg12
S'Many'
p248
sg14
S'#ffff00'
p249
sg16
I2
sg17
S'Low'
p250
sg19
S'Liten tilleggsbelastning'
p251
sg21
Nsg22
S'100'
p252
sg24
S'1700'
p253
sg26
S'Mange bratte heng'
p254
sg28
Nsg29
g30
sg31
S'1 - Harmloest'
p255
sba(irunmatrix
M3Element
p256
(dp257
g3
Nsg4
S'Sannsynlig, Meget sannsynlig'
p258
sg6
S'white'
p259
sg8
(lp260
sg10
S'Likely'
p261
sg12
S'Many'
p262
sg14
g249
sg16
I2
sg17
S'Nat'
p263
sg19
S'Naturlig utloest'
p264
sg21
Nsg22
S'100'
p265
sg24
S'1800'
p266
sg26
S'Mange bratte heng'
p267
sg28
Nsg29
g30
sg31
S'1 - Harmloest'
p268
sba(irunmatrix
M3Element
p269
(dp270
g3
Nsg4
S'Lite sannsynlig, Mulig'
p271
sg6
S'gray'
p272
sg8
(lp273
sg10
S'Possible'
p274
sg12
S'Most'
p275
sg14
g66
sg16
I0
sg17
S'High'
p276
sg19
S'Stor tilleggsbelastning'
p277
sg21
Nsg22
S'100'
p278
sg24
S'1900'
p279
sg26
S'De fleste bratte heng, Ogsaa i mindre bratt terreng'
p280
sg28
Nsg29
g30
sg31
S'1 - Harmloest'
p281
sba(irunmatrix
M3Element
p282
(dp283
g3
Nsg4
S'Lite sannsynlig, Mulig'
p284
sg6
S'gray'
p285
sg8
(lp286
sg10
S'Possible'
p287
sg12
S'Most'
p288
sg14
g66
sg16
I0
sg17
S'Low'
p289
sg19
S'Liten tilleggsbelastning'
p290
sg21
Nsg22
S'100'
p291
sg24
S'2000'
p292
sg26
S'De fleste bratte heng, Ogsaa i mindre bratt terreng'
p293
sg28
Nsg29
g30
sg31
S'1 - Harmloest'
p294
sba(irunmatrix
M3Element
p295
(dp296
g3
Nsg4
S'Lite sannsynlig, Mulig'
p297
sg6
S'gray'
p298
sg8
(lp299
sg10
S'Possible'
p300
sg12
S'Most'
p301
sg14
g66
sg16
I0
sg17
S'Nat'
p302
sg19
S'Naturlig utloest'
p303
sg21
Nsg22
S'100'
p304
sg24
S'2100'
p305
sg26
S'De fleste bratte heng, Ogsaa i mindre bratt terreng'
p306
sg28
Nsg29
g30
sg31
S'1 - Harmloest'
p307
sba(irunmatrix
M3Element
p308
(dp309
g3
Nsg4
S'Sannsynlig, Meget sannsynlig'
p310
sg6
S'gray'
p311
sg8
(lp312
sg10
S'Likely'
p313
sg12
S'Most'
p314
sg14
g66
sg16
I0
sg17
S'High'
p315
sg19
S'Stor tilleggsbelastning'
p316
sg21
Nsg22
S'100'
p317
sg24
S'2200'
p318
sg26
S'De fleste bratte heng, Ogsaa i mindre bratt terreng'
p319
sg28
Nsg29
g30
sg31
S'1 - Harmloest'
p320
sba(irunmatrix
M3Element
p321
(dp322
g3
Nsg4
S'Sannsynlig, Meget sannsynlig'
p323
sg6
S'gray'
p324
sg8
(lp325
sg10
S'Likely'
p326
sg12
S'Most'
p327
sg14
g66
sg16
I0
sg17
S'Low'
p328
sg19
S'Liten tilleggsbelastning'
p329
sg21
Nsg22
S'100'
p330
sg24
S'2300'
p331
sg26
S'De fleste bratte heng, Ogsaa i mindre bratt terreng'
p332
sg28
Nsg29
g30
sg31
S'1 - Harmloest'
p333
sba(irunmatrix
M3Element
p334
(dp335
g3
Nsg4
S'Sannsynlig, Meget sannsynlig'
p336
sg6
S'white'
p337
sg8
(lp338
sg10
S'Likely'
p339
sg12
S'Most'
p340
sg14
g66
sg16
I0
sg17
S'Nat'
p341
sg19
S'Naturlig utloest'
p342
sg21
Nsg22
S'100'
p343
sg24
S'2400'
p344
sg26
S'De fleste bratte heng, Ogsaa i mindre bratt terreng'
p345
sg28
Nsg29
S'2'
p346
sg31
S'1 - Harmloest'
p347
sba(irunmatrix
M3Element
p348
(dp349
g3
Nsg4
S'Lite sannsynlig, Mulig'
p350
sg6
S'white'
p351
sg8
(lp352
sg10
S'Possible'
p353
sg12
S'Isolated'
p354
sg14
g15
sg16
I1
sg17
S'High'
p355
sg19
S'Stor tilleggsbelastning'
p356
sg21
Nsg22
S'200'
p357
sg24
S'100'
p358
sg26
S'Isolerte faresoner'
p359
sg28
Nsg29
g346
sg31
S'2 - Smaa'
p360
sba(irunmatrix
M3Element
p361
(dp362
g3
Nsg4
S'Lite sannsynlig, Mulig'
p363
sg6
S'white'
p364
sg8
(lp365
sg10
S'Possible'
p366
sg12
S'Isolated'
p367
sg14
g15
sg16
I1
sg17
S'Low'
p368
sg19
S'Liten tilleggsbelastning'
p369
sg21
Nsg22
S'200'
p370
sg24
S'200'
p371
sg26
S'Isolerte faresoner'
p372
sg28
Nsg29
g346
sg31
S'2 - Smaa'
p373
sba(irunmatrix
M3Element
p374
(dp375
g3
Nsg4
S'Lite sannsynlig, Mulig'
p376
sg6
S'white'
p377
sg8
(lp378
sg10
S'Possible'
p379
sg12
S'Isolated'
p380
sg14
g15
sg16
I1
sg17
S'Nat'
p381
sg19
S'Naturlig utloest'
p382
sg21
Nsg22
S'200'
p383
sg24
S'300'
p384
sg26
S'Isolerte faresoner'
p385
sg28
Nsg29
g346
sg31
S'2 - Smaa'
p386
sba(irunmatrix
M3Element
p387
(dp388
g3
Nsg4
S'Sannsynlig, Meget sannsynlig'
p389
sg6
S'gray'
p390
sg8
(lp391
sg10
S'Likely'
p392
sg12
S'Isolated'
p393
sg14
g66
sg16
I0
sg17
S'High'
p394
sg19
S'Stor tilleggsbelastning'
p395
sg21
Nsg22
S'200'
p396
sg24
S'400'
p397
sg26
S'Isolerte faresoner'
p398
sg28
Nsg29
g346
sg31
S'2 - Smaa'
p399
sba(irunmatrix
M3Element
p400
(dp401
g3
Nsg4
S'Sannsynlig, Meget sannsynlig'
p402
sg6
S'gray'
p403
sg8
(lp404
sg10
S'Likely'
p405
sg12
S'Isolated'
p406
sg14
g66
sg16
I0
sg17
S'Low'
p407
sg19
S'Liten tilleggsbelastning'
p408
sg21
Nsg22
S'200'
p409
sg24
S'500'
p410
sg26
S'Isolerte faresoner'
p411
sg28
Nsg29
g346
sg31
S'2 - Smaa'
p412
sba(irunmatrix
M3Element
p413
(dp414
g3
Nsg4
S'Sannsynlig, Meget sannsynlig'
p415
sg6
S'gray'
p416
sg8
(lp417
sg10
S'Likely'
p418
sg12
S'Isolated'
p419
sg14
g66
sg16
I0
sg17
S'Nat'
p420
sg19
S'Naturlig utloest'
p421
sg21
Nsg22
S'200'
p422
sg24
S'600'
p423
sg26
S'Isolerte faresoner'
p424
sg28
Nsg29
g346
sg31
S'2 - Smaa'
p425
sba(irunmatrix
M3Element
p426
(dp427
g3
Nsg4
S'Lite sannsynlig, Mulig'
p428
sg6
S'white'
p429
sg8
(lp430
sg10
S'Possible'
p431
sg12
S'Some'
p432
sg14
g249
sg16
I2
sg17
S'High'
p433
sg19
S'Stor tilleggsbelastning'
p434
sg21
Nsg22
S'200'
p435
sg24
S'700'
p436
sg26
S'Noen bratte heng'
p437
sg28
Nsg29
g346
sg31
S'2 - Smaa'
p438
sba(irunmatrix
M3Element
p439
(dp440
g3
F2.0
sg4
S'Lite sannsynlig, Mulig'
p441
sg6
g138
sg8
(lp442
I2
aI2
aI2
aI2
aI2
aI2
aI2
aI2
aI2
aI2
aI2
aI2
aI2
aI2
aI2
aI2
aI2
aI2
aI2
aI2
aI2
aI2
aI2
aI2
aI2
aI2
aI2
aI2
aI2
aI2
aI2
aI2
aI2
aI2
asg10
S'Possible'
p443
sg12
S'Some'
p444
sg14
g249
sg16
I2
sg17
S'Low'
p445
sg19
S'Liten tilleggsbelastning'
p446
sg21
I34
sg22
S'200'
p447
sg24
S'800'
p448
sg26
S'Noen bratte heng'
p449
sg28
g111
(g115
S'\x00\x00\x00\x00\x00\x00\x00\x00'
p450
tp451
Rp452
sg29
g346
sg31
S'2 - Smaa'
p453
sba(irunmatrix
M3Element
p454
(dp455
g3
Nsg4
S'Lite sannsynlig, Mulig'
p456
sg6
S'white'
p457
sg8
(lp458
sg10
S'Possible'
p459
sg12
S'Some'
p460
sg14
g249
sg16
I2
sg17
S'Nat'
p461
sg19
S'Naturlig utloest'
p462
sg21
Nsg22
S'200'
p463
sg24
S'900'
p464
sg26
S'Noen bratte heng'
p465
sg28
Nsg29
g346
sg31
S'2 - Smaa'
p466
sba(irunmatrix
M3Element
p467
(dp468
g3
Nsg4
S'Sannsynlig, Meget sannsynlig'
p469
sg6
S'gray'
p470
sg8
(lp471
sg10
S'Likely'
p472
sg12
S'Some'
p473
sg14
g66
sg16
I0
sg17
S'High'
p474
sg19
S'Stor tilleggsbelastning'
p475
sg21
Nsg22
S'200'
p476
sg24
S'1000'
p477
sg26
S'Noen bratte heng'
p478
sg28
Nsg29
g346
sg31
S'2 - Smaa'
p479
sba(irunmatrix
M3Element
p480
(dp481
g3
Nsg4
S'Sannsynlig, Meget sannsynlig'
p482
sg6
S'gray'
p483
sg8
(lp484
sg10
S'Likely'
p485
sg12
S'Some'
p486
sg14
g66
sg16
I0
sg17
S'Low'
p487
sg19
S'Liten tilleggsbelastning'
p488
sg21
Nsg22
S'200'
p489
sg24
S'1100'
p490
sg26
S'Noen bratte heng'
p491
sg28
Nsg29
g346
sg31
S'2 - Smaa'
p492
sba(irunmatrix
M3Element
p493
(dp494
g3
F3.0
sg4
S'Sannsynlig, Meget sannsynlig'
p495
sg6
S'#ff9900'
p496
sg8
(lp497
I3
aI3
aI3
aI3
aI3
asg10
S'Likely'
p498
sg12
S'Some'
p499
sg14
S'#ff9900'
p500
sg16
I3
sg17
S'Nat'
p501
sg19
S'Naturlig utloest'
p502
sg21
I5
sg22
S'200'
p503
sg24
S'1200'
p504
sg26
S'Noen bratte heng'
p505
sg28
g111
(g115
S'\x00\x00\x00\x00\x00\x00\x00\x00'
p506
tp507
Rp508
sg29
g346
sg31
S'2 - Smaa'
p509
sba(irunmatrix
M3Element
p510
(dp511
g3
Nsg4
S'Lite sannsynlig, Mulig'
p512
sg6
S'gray'
p513
sg8
(lp514
sg10
S'Possible'
p515
sg12
S'Many'
p516
sg14
g66
sg16
I0
sg17
S'High'
p517
sg19
S'Stor tilleggsbelastning'
p518
sg21
Nsg22
S'200'
p519
sg24
S'1300'
p520
sg26
S'Mange bratte heng'
p521
sg28
Nsg29
g346
sg31
S'2 - Smaa'
p522
sba(irunmatrix
M3Element
p523
(dp524
g3
Nsg4
S'Lite sannsynlig, Mulig'
p525
sg6
S'white'
p526
sg8
(lp527
sg10
S'Possible'
p528
sg12
S'Many'
p529
sg14
g500
sg16
I3
sg17
S'Low'
p530
sg19
S'Liten tilleggsbelastning'
p531
sg21
Nsg22
S'200'
p532
sg24
S'1400'
p533
sg26
S'Mange bratte heng'
p534
sg28
Nsg29
g346
sg31
S'2 - Smaa'
p535
sba(irunmatrix
M3Element
p536
(dp537
g3
Nsg4
S'Lite sannsynlig, Mulig'
p538
sg6
S'gray'
p539
sg8
(lp540
sg10
S'Possible'
p541
sg12
S'Many'
p542
sg14
g66
sg16
I0
sg17
S'Nat'
p543
sg19
S'Naturlig utloest'
p544
sg21
Nsg22
S'200'
p545
sg24
S'1500'
p546
sg26
S'Mange bratte heng'
p547
sg28
Nsg29
g346
sg31
S'2 - Smaa'
p548
sba(irunmatrix
M3Element
p549
(dp550
g3
Nsg4
S'Sannsynlig, Meget sannsynlig'
p551
sg6
S'gray'
p552
sg8
(lp553
sg10
S'Likely'
p554
sg12
S'Many'
p555
sg14
g66
sg16
I0
sg17
S'High'
p556
sg19
S'Stor tilleggsbelastning'
p557
sg21
Nsg22
S'200'
p558
sg24
S'1600'
p559
sg26
S'Mange bratte heng'
p560
sg28
Nsg29
g346
sg31
S'2 - Smaa'
p561
sba(irunmatrix
M3Element
p562
(dp563
g3
Nsg4
S'Sannsynlig, Meget sannsynlig'
p564
sg6
S'white'
p565
sg8
(lp566
sg10
S'Likely'
p567
sg12
S'Many'
p568
sg14
S'#ff0000'
p569
sg16
I4
sg17
S'Low'
p570
sg19
S'Liten tilleggsbelastning'
p571
sg21
Nsg22
S'200'
p572
sg24
S'1700'
p573
sg26
S'Mange bratte heng'
p574
sg28
Nsg29
g346
sg31
S'2 - Smaa'
p575
sba(irunmatrix
M3Element
p576
(dp577
g3
Nsg4
S'Sannsynlig, Meget sannsynlig'
p578
sg6
S'white'
p579
sg8
(lp580
sg10
S'Likely'
p581
sg12
S'Many'
p582
sg14
g569
sg16
I4
sg17
S'Nat'
p583
sg19
S'Naturlig utloest'
p584
sg21
Nsg22
S'200'
p585
sg24
S'1800'
p586
sg26
S'Mange bratte heng'
p587
sg28
Nsg29
g346
sg31
S'2 - Smaa'
p588
sba(irunmatrix
M3Element
p589
(dp590
g3
Nsg4
S'Lite sannsynlig, Mulig'
p591
sg6
S'gray'
p592
sg8
(lp593
sg10
S'Possible'
p594
sg12
S'Most'
p595
sg14
g66
sg16
I0
sg17
S'High'
p596
sg19
S'Stor tilleggsbelastning'
p597
sg21
Nsg22
S'200'
p598
sg24
S'1900'
p599
sg26
S'De fleste bratte heng, Ogsaa i mindre bratt terreng'
p600
sg28
Nsg29
g346
sg31
S'2 - Smaa'
p601
sba(irunmatrix
M3Element
p602
(dp603
g3
Nsg4
S'Lite sannsynlig, Mulig'
p604
sg6
S'gray'
p605
sg8
(lp606
sg10
S'Possible'
p607
sg12
S'Most'
p608
sg14
g66
sg16
I0
sg17
S'Low'
p609
sg19
S'Liten tilleggsbelastning'
p610
sg21
Nsg22
S'200'
p611
sg24
S'2000'
p612
sg26
S'De fleste bratte heng, Ogsaa i mindre bratt terreng'
p613
sg28
Nsg29
g346
sg31
S'2 - Smaa'
p614
sba(irunmatrix
M3Element
p615
(dp616
g3
Nsg4
S'Lite sannsynlig, Mulig'
p617
sg6
S'gray'
p618
sg8
(lp619
sg10
S'Possible'
p620
sg12
S'Most'
p621
sg14
g66
sg16
I0
sg17
S'Nat'
p622
sg19
S'Naturlig utloest'
p623
sg21
Nsg22
S'200'
p624
sg24
S'2100'
p625
sg26
S'De fleste bratte heng, Ogsaa i mindre bratt terreng'
p626
sg28
Nsg29
g346
sg31
S'2 - Smaa'
p627
sba(irunmatrix
M3Element
p628
(dp629
g3
Nsg4
S'Sannsynlig, Meget sannsynlig'
p630
sg6
S'gray'
p631
sg8
(lp632
sg10
S'Likely'
p633
sg12
S'Most'
p634
sg14
g66
sg16
I0
sg17
S'High'
p635
sg19
S'Stor tilleggsbelastning'
p636
sg21
Nsg22
S'200'
p637
sg24
S'2200'
p638
sg26
S'De fleste bratte heng, Ogsaa i mindre bratt terreng'
p639
sg28
Nsg29
g346
sg31
S'2 - Smaa'
p640
sba(irunmatrix
M3Element
p641
(dp642
g3
Nsg4
S'Sannsynlig, Meget sannsynlig'
p643
sg6
S'gray'
p644
sg8
(lp645
sg10
S'Likely'
p646
sg12
S'Most'
p647
sg14
g66
sg16
I0
sg17
S'Low'
p648
sg19
S'Liten tilleggsbelastning'
p649
sg21
Nsg22
S'200'
p650
sg24
S'2300'
p651
sg26
S'De fleste bratte heng, Ogsaa i mindre bratt terreng'
p652
sg28
Nsg29
g346
sg31
S'2 - Smaa'
p653
sba(irunmatrix
M3Element
p654
(dp655
g3
Nsg4
S'Sannsynlig, Meget sannsynlig'
p656
sg6
S'white'
p657
sg8
(lp658
sg10
S'Likely'
p659
sg12
S'Most'
p660
sg14
g66
sg16
I0
sg17
S'Nat'
p661
sg19
S'Naturlig utloest'
p662
sg21
Nsg22
S'200'
p663
sg24
S'2400'
p664
sg26
S'De fleste bratte heng, Ogsaa i mindre bratt terreng'
p665
sg28
Nsg29
g346
sg31
S'2 - Smaa'
p666
sba(irunmatrix
M3Element
p667
(dp668
g3
Nsg4
S'Lite sannsynlig, Mulig'
p669
sg6
S'white'
p670
sg8
(lp671
sg10
S'Possible'
p672
sg12
S'Isolated'
p673
sg14
g15
sg16
I1
sg17
S'High'
p674
sg19
S'Stor tilleggsbelastning'
p675
sg21
Nsg22
S'300'
p676
sg24
S'100'
p677
sg26
S'Isolerte faresoner'
p678
sg28
Nsg29
S'3'
p679
sg31
S'3 - Middels'
p680
sba(irunmatrix
M3Element
p681
(dp682
g3
Nsg4
S'Lite sannsynlig, Mulig'
p683
sg6
S'white'
p684
sg8
(lp685
sg10
S'Possible'
p686
sg12
S'Isolated'
p687
sg14
g249
sg16
I2
sg17
S'Low'
p688
sg19
S'Liten tilleggsbelastning'
p689
sg21
Nsg22
S'300'
p690
sg24
S'200'
p691
sg26
S'Isolerte faresoner'
p692
sg28
Nsg29
g679
sg31
S'3 - Middels'
p693
sba(irunmatrix
M3Element
p694
(dp695
g3
Nsg4
S'Lite sannsynlig, Mulig'
p696
sg6
S'white'
p697
sg8
(lp698
sg10
S'Possible'
p699
sg12
S'Isolated'
p700
sg14
g249
sg16
I2
sg17
S'Nat'
p701
sg19
S'Naturlig utloest'
p702
sg21
Nsg22
S'300'
p703
sg24
S'300'
p704
sg26
S'Isolerte faresoner'
p705
sg28
Nsg29
g679
sg31
S'3 - Middels'
p706
sba(irunmatrix
M3Element
p707
(dp708
g3
Nsg4
S'Sannsynlig, Meget sannsynlig'
p709
sg6
S'gray'
p710
sg8
(lp711
sg10
S'Likely'
p712
sg12
S'Isolated'
p713
sg14
g66
sg16
I0
sg17
S'High'
p714
sg19
S'Stor tilleggsbelastning'
p715
sg21
Nsg22
S'300'
p716
sg24
S'400'
p717
sg26
S'Isolerte faresoner'
p718
sg28
Nsg29
g679
sg31
S'3 - Middels'
p719
sba(irunmatrix
M3Element
p720
(dp721
g3
Nsg4
S'Sannsynlig, Meget sannsynlig'
p722
sg6
S'gray'
p723
sg8
(lp724
sg10
S'Likely'
p725
sg12
S'Isolated'
p726
sg14
g66
sg16
I0
sg17
S'Low'
p727
sg19
S'Liten tilleggsbelastning'
p728
sg21
Nsg22
S'300'
p729
sg24
S'500'
p730
sg26
S'Isolerte faresoner'
p731
sg28
Nsg29
g679
sg31
S'3 - Middels'
p732
sba(irunmatrix
M3Element
p733
(dp734
g3
Nsg4
S'Sannsynlig, Meget sannsynlig'
p735
sg6
S'gray'
p736
sg8
(lp737
sg10
S'Likely'
p738
sg12
S'Isolated'
p739
sg14
g66
sg16
I0
sg17
S'Nat'
p740
sg19
S'Naturlig utloest'
p741
sg21
Nsg22
S'300'
p742
sg24
S'600'
p743
sg26
S'Isolerte faresoner'
p744
sg28
Nsg29
g679
sg31
S'3 - Middels'
p745
sba(irunmatrix
M3Element
p746
(dp747
g3
Nsg4
S'Lite sannsynlig, Mulig'
p748
sg6
S'white'
p749
sg8
(lp750
sg10
S'Possible'
p751
sg12
S'Some'
p752
sg14
g249
sg16
I2
sg17
S'High'
p753
sg19
S'Stor tilleggsbelastning'
p754
sg21
Nsg22
S'300'
p755
sg24
S'700'
p756
sg26
S'Noen bratte heng'
p757
sg28
Nsg29
g679
sg31
S'3 - Middels'
p758
sba(irunmatrix
M3Element
p759
(dp760
g3
F3.0
sg4
S'Lite sannsynlig, Mulig'
p761
sg6
g496
sg8
(lp762
I3
aI3
aI3
aI3
aI3
aI3
asg10
S'Possible'
p763
sg12
S'Some'
p764
sg14
g500
sg16
I3
sg17
S'Low'
p765
sg19
S'Liten tilleggsbelastning'
p766
sg21
I6
sg22
S'300'
p767
sg24
S'800'
p768
sg26
S'Noen bratte heng'
p769
sg28
g111
(g115
S'\x00\x00\x00\x00\x00\x00\x00\x00'
p770
tp771
Rp772
sg29
g679
sg31
S'3 - Middels'
p773
sba(irunmatrix
M3Element
p774
(dp775
g3
Nsg4
S'Lite sannsynlig, Mulig'
p776
sg6
S'white'
p777
sg8
(lp778
sg10
S'Possible'
p779
sg12
S'Some'
p780
sg14
g500
sg16
I3
sg17
S'Nat'
p781
sg19
S'Naturlig utloest'
p782
sg21
Nsg22
S'300'
p783
sg24
S'900'
p784
sg26
S'Noen bratte heng'
p785
sg28
Nsg29
g679
sg31
S'3 - Middels'
p786
sba(irunmatrix
M3Element
p787
(dp788
g3
Nsg4
S'Sannsynlig, Meget sannsynlig'
p789
sg6
S'gray'
p790
sg8
(lp791
sg10
S'Likely'
p792
sg12
S'Some'
p793
sg14
g66
sg16
I0
sg17
S'High'
p794
sg19
S'Stor tilleggsbelastning'
p795
sg21
Nsg22
S'300'
p796
sg24
S'1000'
p797
sg26
S'Noen bratte heng'
p798
sg28
Nsg29
g679
sg31
S'3 - Middels'
p799
sba(irunmatrix
M3Element
p800
(dp801
g3
Nsg4
S'Sannsynlig, Meget sannsynlig'
p802
sg6
S'gray'
p803
sg8
(lp804
sg10
S'Likely'
p805
sg12
S'Some'
p806
sg14
g66
sg16
I0
sg17
S'Low'
p807
sg19
S'Liten tilleggsbelastning'
p808
sg21
Nsg22
S'300'
p809
sg24
S'1100'
p810
sg26
S'Noen bratte heng'
p811
sg28
Nsg29
g679
sg31
S'3 - Middels'
p812
sba(irunmatrix
M3Element
p813
(dp814
g3
Nsg4
S'Sannsynlig, Meget sannsynlig'
p815
sg6
S'white'
p816
sg8
(lp817
sg10
S'Likely'
p818
sg12
S'Some'
p819
sg14
g569
sg16
I4
sg17
S'Nat'
p820
sg19
S'Naturlig utloest'
p821
sg21
Nsg22
S'300'
p822
sg24
S'1200'
p823
sg26
S'Noen bratte heng'
p824
sg28
Nsg29
g679
sg31
S'3 - Middels'
p825
sba(irunmatrix
M3Element
p826
(dp827
g3
Nsg4
S'Lite sannsynlig, Mulig'
p828
sg6
S'gray'
p829
sg8
(lp830
sg10
S'Possible'
p831
sg12
S'Many'
p832
sg14
g66
sg16
I0
sg17
S'High'
p833
sg19
S'Stor tilleggsbelastning'
p834
sg21
Nsg22
S'300'
p835
sg24
S'1300'
p836
sg26
S'Mange bratte heng'
p837
sg28
Nsg29
g679
sg31
S'3 - Middels'
p838
sba(irunmatrix
M3Element
p839
(dp840
g3
Nsg4
S'Lite sannsynlig, Mulig'
p841
sg6
S'white'
p842
sg8
(lp843
sg10
S'Possible'
p844
sg12
S'Many'
p845
sg14
g569
sg16
I4
sg17
S'Low'
p846
sg19
S'Liten tilleggsbelastning'
p847
sg21
Nsg22
S'300'
p848
sg24
S'1400'
p849
sg26
S'Mange bratte heng'
p850
sg28
Nsg29
g679
sg31
S'3 - Middels'
p851
sba(irunmatrix
M3Element
p852
(dp853
g3
Nsg4
S'Lite sannsynlig, Mulig'
p854
sg6
S'gray'
p855
sg8
(lp856
sg10
S'Possible'
p857
sg12
S'Many'
p858
sg14
g66
sg16
I0
sg17
S'Nat'
p859
sg19
S'Naturlig utloest'
p860
sg21
Nsg22
S'300'
p861
sg24
S'1500'
p862
sg26
S'Mange bratte heng'
p863
sg28
Nsg29
g679
sg31
S'3 - Middels'
p864
sba(irunmatrix
M3Element
p865
(dp866
g3
Nsg4
S'Sannsynlig, Meget sannsynlig'
p867
sg6
S'gray'
p868
sg8
(lp869
sg10
S'Likely'
p870
sg12
S'Many'
p871
sg14
g66
sg16
I0
sg17
S'High'
p872
sg19
S'Stor tilleggsbelastning'
p873
sg21
Nsg22
S'300'
p874
sg24
S'1600'
p875
sg26
S'Mange bratte heng'
p876
sg28
Nsg29
g679
sg31
S'3 - Middels'
p877
sba(irunmatrix
M3Element
p878
(dp879
g3
Nsg4
S'Sannsynlig, Meget sannsynlig'
p880
sg6
S'white'
p881
sg8
(lp882
sg10
S'Likely'
p883
sg12
S'Many'
p884
sg14
g569
sg16
I4
sg17
S'Low'
p885
sg19
S'Liten tilleggsbelastning'
p886
sg21
Nsg22
S'300'
p887
sg24
S'1700'
p888
sg26
S'Mange bratte heng'
p889
sg28
Nsg29
g679
sg31
S'3 - Middels'
p890
sba(irunmatrix
M3Element
p891
(dp892
g3
Nsg4
S'Sannsynlig, Meget sannsynlig'
p893
sg6
S'white'
p894
sg8
(lp895
sg10
S'Likely'
p896
sg12
S'Many'
p897
sg14
g569
sg16
I4
sg17
S'Nat'
p898
sg19
S'Naturlig utloest'
p899
sg21
Nsg22
S'300'
p900
sg24
S'1800'
p901
sg26
S'Mange bratte heng'
p902
sg28
Nsg29
g679
sg31
S'3 - Middels'
p903
sba(irunmatrix
M3Element
p904
(dp905
g3
Nsg4
S'Lite sannsynlig, Mulig'
p906
sg6
S'gray'
p907
sg8
(lp908
sg10
S'Possible'
p909
sg12
S'Most'
p910
sg14
g66
sg16
I0
sg17
S'High'
p911
sg19
S'Stor tilleggsbelastning'
p912
sg21
Nsg22
S'300'
p913
sg24
S'1900'
p914
sg26
S'De fleste bratte heng, Ogsaa i mindre bratt terreng'
p915
sg28
Nsg29
g679
sg31
S'3 - Middels'
p916
sba(irunmatrix
M3Element
p917
(dp918
g3
Nsg4
S'Lite sannsynlig, Mulig'
p919
sg6
S'gray'
p920
sg8
(lp921
sg10
S'Possible'
p922
sg12
S'Most'
p923
sg14
g66
sg16
I0
sg17
S'Low'
p924
sg19
S'Liten tilleggsbelastning'
p925
sg21
Nsg22
S'300'
p926
sg24
S'2000'
p927
sg26
S'De fleste bratte heng, Ogsaa i mindre bratt terreng'
p928
sg28
Nsg29
g679
sg31
S'3 - Middels'
p929
sba(irunmatrix
M3Element
p930
(dp931
g3
Nsg4
S'Lite sannsynlig, Mulig'
p932
sg6
S'gray'
p933
sg8
(lp934
sg10
S'Possible'
p935
sg12
S'Most'
p936
sg14
g66
sg16
I0
sg17
S'Nat'
p937
sg19
S'Naturlig utloest'
p938
sg21
Nsg22
S'300'
p939
sg24
S'2100'
p940
sg26
S'De fleste bratte heng, Ogsaa i mindre bratt terreng'
p941
sg28
Nsg29
g679
sg31
S'3 - Middels'
p942
sba(irunmatrix
M3Element
p943
(dp944
g3
Nsg4
S'Sannsynlig, Meget sannsynlig'
p945
sg6
S'gray'
p946
sg8
(lp947
sg10
S'Likely'
p948
sg12
S'Most'
p949
sg14
g66
sg16
I0
sg17
S'High'
p950
sg19
S'Stor tilleggsbelastning'
p951
sg21
Nsg22
S'300'
p952
sg24
S'2200'
p953
sg26
S'De fleste bratte heng, Ogsaa i mindre bratt terreng'
p954
sg28
Nsg29
g679
sg31
S'3 - Middels'
p955
sba(irunmatrix
M3Element
p956
(dp957
g3
Nsg4
S'Sannsynlig, Meget sannsynlig'
p958
sg6
S'gray'
p959
sg8
(lp960
sg10
S'Likely'
p961
sg12
S'Most'
p962
sg14
g66
sg16
I0
sg17
S'Low'
p963
sg19
S'Liten tilleggsbelastning'
p964
sg21
Nsg22
S'300'
p965
sg24
S'2300'
p966
sg26
S'De fleste bratte heng, Ogsaa i mindre bratt terreng'
p967
sg28
Nsg29
g679
sg31
S'3 - Middels'
p968
sba(irunmatrix
M3Element
p969
(dp970
g3
Nsg4
S'Sannsynlig, Meget sannsynlig'
p971
sg6
S'white'
p972
sg8
(lp973
sg10
S'Likely'
p974
sg12
S'Most'
p975
sg14
g66
sg16
I0
sg17
S'Nat'
p976
sg19
S'Naturlig utloest'
p977
sg21
Nsg22
S'300'
p978
sg24
S'2400'
p979
sg26
S'De fleste bratte heng, Ogsaa i mindre bratt terreng'
p980
sg28
Nsg29
g679
sg31
S'3 - Middels'
p981
sba(irunmatrix
M3Element
p982
(dp983
g3
Nsg4
S'Lite sannsynlig, Mulig'
p984
sg6
S'white'
p985
sg8
(lp986
sg10
S'Possible'
p987
sg12
S'Isolated'
p988
sg14
g249
sg16
I2
sg17
S'High'
p989
sg19
S'Stor tilleggsbelastning'
p990
sg21
Nsg22
S'400'
p991
sg24
S'100'
p992
sg26
S'Isolerte faresoner'
p993
sg28
Nsg29
S'4'
p994
sg31
S'4 - Store'
p995
sba(irunmatrix
M3Element
p996
(dp997
g3
Nsg4
S'Lite sannsynlig, Mulig'
p998
sg6
S'white'
p999
sg8
(lp1000
sg10
S'Possible'
p1001
sg12
S'Isolated'
p1002
sg14
g500
sg16
I3
sg17
S'Low'
p1003
sg19
S'Liten tilleggsbelastning'
p1004
sg21
Nsg22
S'400'
p1005
sg24
S'200'
p1006
sg26
S'Isolerte faresoner'
p1007
sg28
Nsg29
g994
sg31
S'4 - Store'
p1008
sba(irunmatrix
M3Element
p1009
(dp1010
g3
Nsg4
S'Lite sannsynlig, Mulig'
p1011
sg6
S'white'
p1012
sg8
(lp1013
sg10
S'Possible'
p1014
sg12
S'Isolated'
p1015
sg14
g500
sg16
I3
sg17
S'Nat'
p1016
sg19
S'Naturlig utloest'
p1017
sg21
Nsg22
S'400'
p1018
sg24
S'300'
p1019
sg26
S'Isolerte faresoner'
p1020
sg28
Nsg29
g994
sg31
S'4 - Store'
p1021
sba(irunmatrix
M3Element
p1022
(dp1023
g3
Nsg4
S'Sannsynlig, Meget sannsynlig'
p1024
sg6
S'gray'
p1025
sg8
(lp1026
sg10
S'Likely'
p1027
sg12
S'Isolated'
p1028
sg14
g66
sg16
I0
sg17
S'High'
p1029
sg19
S'Stor tilleggsbelastning'
p1030
sg21
Nsg22
S'400'
p1031
sg24
S'400'
p1032
sg26
S'Isolerte faresoner'
p1033
sg28
Nsg29
g994
sg31
S'4 - Store'
p1034
sba(irunmatrix
M3Element
p1035
(dp1036
g3
Nsg4
S'Sannsynlig, Meget sannsynlig'
p1037
sg6
S'gray'
p1038
sg8
(lp1039
sg10
S'Likely'
p1040
sg12
S'Isolated'
p1041
sg14
g66
sg16
I0
sg17
S'Low'
p1042
sg19
S'Liten tilleggsbelastning'
p1043
sg21
Nsg22
S'400'
p1044
sg24
S'500'
p1045
sg26
S'Isolerte faresoner'
p1046
sg28
Nsg29
g994
sg31
S'4 - Store'
p1047
sba(irunmatrix
M3Element
p1048
(dp1049
g3
Nsg4
S'Sannsynlig, Meget sannsynlig'
p1050
sg6
S'gray'
p1051
sg8
(lp1052
sg10
S'Likely'
p1053
sg12
S'Isolated'
p1054
sg14
g66
sg16
I0
sg17
S'Nat'
p1055
sg19
S'Naturlig utloest'
p1056
sg21
Nsg22
S'400'
p1057
sg24
S'600'
p1058
sg26
S'Isolerte faresoner'
p1059
sg28
Nsg29
g994
sg31
S'4 - Store'
p1060
sba(irunmatrix
M3Element
p1061
(dp1062
g3
Nsg4
S'Lite sannsynlig, Mulig'
p1063
sg6
S'white'
p1064
sg8
(lp1065
sg10
S'Possible'
p1066
sg12
S'Some'
p1067
sg14
g500
sg16
I3
sg17
S'High'
p1068
sg19
S'Stor tilleggsbelastning'
p1069
sg21
Nsg22
S'400'
p1070
sg24
S'700'
p1071
sg26
S'Noen bratte heng'
p1072
sg28
Nsg29
g994
sg31
S'4 - Store'
p1073
sba(irunmatrix
M3Element
p1074
(dp1075
g3
Nsg4
S'Lite sannsynlig, Mulig'
p1076
sg6
S'white'
p1077
sg8
(lp1078
sg10
S'Possible'
p1079
sg12
S'Some'
p1080
sg14
g569
sg16
I4
sg17
S'Low'
p1081
sg19
S'Liten tilleggsbelastning'
p1082
sg21
Nsg22
S'400'
p1083
sg24
S'800'
p1084
sg26
S'Noen bratte heng'
p1085
sg28
Nsg29
g994
sg31
S'4 - Store'
p1086
sba(irunmatrix
M3Element
p1087
(dp1088
g3
Nsg4
S'Lite sannsynlig, Mulig'
p1089
sg6
S'white'
p1090
sg8
(lp1091
sg10
S'Possible'
p1092
sg12
S'Some'
p1093
sg14
g569
sg16
I4
sg17
S'Nat'
p1094
sg19
S'Naturlig utloest'
p1095
sg21
Nsg22
S'400'
p1096
sg24
S'900'
p1097
sg26
S'Noen bratte heng'
p1098
sg28
Nsg29
g994
sg31
S'4 - Store'
p1099
sba(irunmatrix
M3Element
p1100
(dp1101
g3
Nsg4
S'Sannsynlig, Meget sannsynlig'
p1102
sg6
S'gray'
p1103
sg8
(lp1104
sg10
S'Likely'
p1105
sg12
S'Some'
p1106
sg14
g66
sg16
I0
sg17
S'High'
p1107
sg19
S'Stor tilleggsbelastning'
p1108
sg21
Nsg22
S'400'
p1109
sg24
S'1000'
p1110
sg26
S'Noen bratte heng'
p1111
sg28
Nsg29
g994
sg31
S'4 - Store'
p1112
sba(irunmatrix
M3Element
p1113
(dp1114
g3
Nsg4
S'Sannsynlig, Meget sannsynlig'
p1115
sg6
S'gray'
p1116
sg8
(lp1117
sg10
S'Likely'
p1118
sg12
S'Some'
p1119
sg14
g66
sg16
I0
sg17
S'Low'
p1120
sg19
S'Liten tilleggsbelastning'
p1121
sg21
Nsg22
S'400'
p1122
sg24
S'1100'
p1123
sg26
S'Noen bratte heng'
p1124
sg28
Nsg29
g994
sg31
S'4 - Store'
p1125
sba(irunmatrix
M3Element
p1126
(dp1127
g3
Nsg4
S'Sannsynlig, Meget sannsynlig'
p1128
sg6
S'white'
p1129
sg8
(lp1130
sg10
S'Likely'
p1131
sg12
S'Some'
p1132
sg14
g569
sg16
I4
sg17
S'Nat'
p1133
sg19
S'Naturlig utloest'
p1134
sg21
Nsg22
S'400'
p1135
sg24
S'1200'
p1136
sg26
S'Noen bratte heng'
p1137
sg28
Nsg29
g994
sg31
S'4 - Store'
p1138
sba(irunmatrix
M3Element
p1139
(dp1140
g3
Nsg4
S'Lite sannsynlig, Mulig'
p1141
sg6
S'gray'
p1142
sg8
(lp1143
sg10
S'Possible'
p1144
sg12
S'Many'
p1145
sg14
g66
sg16
I0
sg17
S'High'
p1146
sg19
S'Stor tilleggsbelastning'
p1147
sg21
Nsg22
S'400'
p1148
sg24
S'1300'
p1149
sg26
S'Mange bratte heng'
p1150
sg28
Nsg29
g994
sg31
S'4 - Store'
p1151
sba(irunmatrix
M3Element
p1152
(dp1153
g3
Nsg4
S'Lite sannsynlig, Mulig'
p1154
sg6
S'white'
p1155
sg8
(lp1156
sg10
S'Possible'
p1157
sg12
S'Many'
p1158
sg14
g66
sg16
I0
sg17
S'Low'
p1159
sg19
S'Liten tilleggsbelastning'
p1160
sg21
Nsg22
S'400'
p1161
sg24
S'1400'
p1162
sg26
S'Mange bratte heng'
p1163
sg28
Nsg29
g994
sg31
S'4 - Store'
p1164
sba(irunmatrix
M3Element
p1165
(dp1166
g3
Nsg4
S'Lite sannsynlig, Mulig'
p1167
sg6
S'gray'
p1168
sg8
(lp1169
sg10
S'Possible'
p1170
sg12
S'Many'
p1171
sg14
g66
sg16
I0
sg17
S'Nat'
p1172
sg19
S'Naturlig utloest'
p1173
sg21
Nsg22
S'400'
p1174
sg24
S'1500'
p1175
sg26
S'Mange bratte heng'
p1176
sg28
Nsg29
g994
sg31
S'4 - Store'
p1177
sba(irunmatrix
M3Element
p1178
(dp1179
g3
Nsg4
S'Sannsynlig, Meget sannsynlig'
p1180
sg6
S'gray'
p1181
sg8
(lp1182
sg10
S'Likely'
p1183
sg12
S'Many'
p1184
sg14
g66
sg16
I0
sg17
S'High'
p1185
sg19
S'Stor tilleggsbelastning'
p1186
sg21
Nsg22
S'400'
p1187
sg24
S'1600'
p1188
sg26
S'Mange bratte heng'
p1189
sg28
Nsg29
g994
sg31
S'4 - Store'
p1190
sba(irunmatrix
M3Element
p1191
(dp1192
g3
Nsg4
S'Sannsynlig, Meget sannsynlig'
p1193
sg6
S'white'
p1194
sg8
(lp1195
sg10
S'Likely'
p1196
sg12
S'Many'
p1197
sg14
g66
sg16
I0
sg17
S'Low'
p1198
sg19
S'Liten tilleggsbelastning'
p1199
sg21
Nsg22
S'400'
p1200
sg24
S'1700'
p1201
sg26
S'Mange bratte heng'
p1202
sg28
Nsg29
g994
sg31
S'4 - Store'
p1203
sba(irunmatrix
M3Element
p1204
(dp1205
g3
Nsg4
S'Sannsynlig, Meget sannsynlig'
p1206
sg6
S'white'
p1207
sg8
(lp1208
sg10
S'Likely'
p1209
sg12
S'Many'
p1210
sg14
S'k'
p1211
sg16
I5
sg17
S'Nat'
p1212
sg19
S'Naturlig utloest'
p1213
sg21
Nsg22
S'400'
p1214
sg24
S'1800'
p1215
sg26
S'Mange bratte heng'
p1216
sg28
Nsg29
g994
sg31
S'4 - Store'
p1217
sba(irunmatrix
M3Element
p1218
(dp1219
g3
Nsg4
S'Lite sannsynlig, Mulig'
p1220
sg6
S'gray'
p1221
sg8
(lp1222
sg10
S'Possible'
p1223
sg12
S'Most'
p1224
sg14
g66
sg16
I0
sg17
S'High'
p1225
sg19
S'Stor tilleggsbelastning'
p1226
sg21
Nsg22
S'400'
p1227
sg24
S'1900'
p1228
sg26
S'De fleste bratte heng, Ogsaa i mindre bratt terreng'
p1229
sg28
Nsg29
g994
sg31
S'4 - Store'
p1230
sba(irunmatrix
M3Element
p1231
(dp1232
g3
Nsg4
S'Lite sannsynlig, Mulig'
p1233
sg6
S'gray'
p1234
sg8
(lp1235
sg10
S'Possible'
p1236
sg12
S'Most'
p1237
sg14
g66
sg16
I0
sg17
S'Low'
p1238
sg19
S'Liten tilleggsbelastning'
p1239
sg21
Nsg22
S'400'
p1240
sg24
S'2000'
p1241
sg26
S'De fleste bratte heng, Ogsaa i mindre bratt terreng'
p1242
sg28
Nsg29
g994
sg31
S'4 - Store'
p1243
sba(irunmatrix
M3Element
p1244
(dp1245
g3
Nsg4
S'Lite sannsynlig, Mulig'
p1246
sg6
S'gray'
p1247
sg8
(lp1248
sg10
S'Possible'
p1249
sg12
S'Most'
p1250
sg14
g66
sg16
I0
sg17
S'Nat'
p1251
sg19
S'Naturlig utloest'
p1252
sg21
Nsg22
S'400'
p1253
sg24
S'2100'
p1254
sg26
S'De fleste bratte heng, Ogsaa i mindre bratt terreng'
p1255
sg28
Nsg29
g994
sg31
S'4 - Store'
p1256
sba(irunmatrix
M3Element
p1257
(dp1258
g3
Nsg4
S'Sannsynlig, Meget sannsynlig'
p1259
sg6
S'gray'
p1260
sg8
(lp1261
sg10
S'Likely'
p1262
sg12
S'Most'
p1263
sg14
g66
sg16
I0
sg17
S'High'
p1264
sg19
S'Stor tilleggsbelastning'
p1265
sg21
Nsg22
S'400'
p1266
sg24
S'2200'
p1267
sg26
S'De fleste bratte heng, Ogsaa i mindre bratt terreng'
p1268
sg28
Nsg29
g994
sg31
S'4 - Store'
p1269
sba(irunmatrix
M3Element
p1270
(dp1271
g3
Nsg4
S'Sannsynlig, Meget sannsynlig'
p1272
sg6
S'gray'
p1273
sg8
(lp1274
sg10
S'Likely'
p1275
sg12
S'Most'
p1276
sg14
g66
sg16
I0
sg17
S'Low'
p1277
sg19
S'Liten tilleggsbelastning'
p1278
sg21
Nsg22
S'400'
p1279
sg24
S'2300'
p1280
sg26
S'De fleste bratte heng, Ogsaa i mindre bratt terreng'
p1281
sg28
Nsg29
g994
sg31
S'4 - Store'
p1282
sba(irunmatrix
M3Element
p1283
(dp1284
g3
Nsg4
S'Sannsynlig, Meget sannsynlig'
p1285
sg6
S'white'
p1286
sg8
(lp1287
sg10
S'Likely'
p1288
sg12
S'Most'
p1289
sg14
g66
sg16
I0
sg17
S'Nat'
p1290
sg19
S'Naturlig utloest'
p1291
sg21
Nsg22
S'400'
p1292
sg24
S'2400'
p1293
sg26
S'De fleste bratte heng, Ogsaa i mindre bratt terreng'
p1294
sg28
Nsg29
g994
sg31
S'4 - Store'
p1295
sba(irunmatrix
M3Element
p1296
(dp1297
g3
Nsg4
S'Lite sannsynlig, Mulig'
p1298
sg6
S'white'
p1299
sg8
(lp1300
sg10
S'Possible'
p1301
sg12
S'Isolated'
p1302
sg14
g66
sg16
I0
sg17
S'High'
p1303
sg19
S'Stor tilleggsbelastning'
p1304
sg21
Nsg22
S'500'
p1305
sg24
S'100'
p1306
sg26
S'Isolerte faresoner'
p1307
sg28
Nsg29
S'5'
p1308
sg31
S'5 - Svaert store'
p1309
sba(irunmatrix
M3Element
p1310
(dp1311
g3
Nsg4
S'Lite sannsynlig, Mulig'
p1312
sg6
S'white'
p1313
sg8
(lp1314
sg10
S'Possible'
p1315
sg12
S'Isolated'
p1316
sg14
g66
sg16
I0
sg17
S'Low'
p1317
sg19
S'Liten tilleggsbelastning'
p1318
sg21
Nsg22
S'500'
p1319
sg24
S'200'
p1320
sg26
S'Isolerte faresoner'
p1321
sg28
Nsg29
g1308
sg31
S'5 - Svaert store'
p1322
sba(irunmatrix
M3Element
p1323
(dp1324
g3
Nsg4
S'Lite sannsynlig, Mulig'
p1325
sg6
S'white'
p1326
sg8
(lp1327
sg10
S'Possible'
p1328
sg12
S'Isolated'
p1329
sg14
g66
sg16
I0
sg17
S'Nat'
p1330
sg19
S'Naturlig utloest'
p1331
sg21
Nsg22
S'500'
p1332
sg24
S'300'
p1333
sg26
S'Isolerte faresoner'
p1334
sg28
Nsg29
g1308
sg31
S'5 - Svaert store'
p1335
sba(irunmatrix
M3Element
p1336
(dp1337
g3
Nsg4
S'Sannsynlig, Meget sannsynlig'
p1338
sg6
S'gray'
p1339
sg8
(lp1340
sg10
S'Likely'
p1341
sg12
S'Isolated'
p1342
sg14
g66
sg16
I0
sg17
S'High'
p1343
sg19
S'Stor tilleggsbelastning'
p1344
sg21
Nsg22
S'500'
p1345
sg24
S'400'
p1346
sg26
S'Isolerte faresoner'
p1347
sg28
Nsg29
g1308
sg31
S'5 - Svaert store'
p1348
sba(irunmatrix
M3Element
p1349
(dp1350
g3
Nsg4
S'Sannsynlig, Meget sannsynlig'
p1351
sg6
S'gray'
p1352
sg8
(lp1353
sg10
S'Likely'
p1354
sg12
S'Isolated'
p1355
sg14
g66
sg16
I0
sg17
S'Low'
p1356
sg19
S'Liten tilleggsbelastning'
p1357
sg21
Nsg22
S'500'
p1358
sg24
S'500'
p1359
sg26
S'Isolerte faresoner'
p1360
sg28
Nsg29
g1308
sg31
S'5 - Svaert store'
p1361
sba(irunmatrix
M3Element
p1362
(dp1363
g3
Nsg4
S'Sannsynlig, Meget sannsynlig'
p1364
sg6
S'gray'
p1365
sg8
(lp1366
sg10
S'Likely'
p1367
sg12
S'Isolated'
p1368
sg14
g66
sg16
I0
sg17
S'Nat'
p1369
sg19
S'Naturlig utloest'
p1370
sg21
Nsg22
S'500'
p1371
sg24
S'600'
p1372
sg26
S'Isolerte faresoner'
p1373
sg28
Nsg29
g1308
sg31
S'5 - Svaert store'
p1374
sba(irunmatrix
M3Element
p1375
(dp1376
g3
Nsg4
S'Lite sannsynlig, Mulig'
p1377
sg6
S'white'
p1378
sg8
(lp1379
sg10
S'Possible'
p1380
sg12
S'Some'
p1381
sg14
g66
sg16
I0
sg17
S'High'
p1382
sg19
S'Stor tilleggsbelastning'
p1383
sg21
Nsg22
S'500'
p1384
sg24
S'700'
p1385
sg26
S'Noen bratte heng'
p1386
sg28
Nsg29
g1308
sg31
S'5 - Svaert store'
p1387
sba(irunmatrix
M3Element
p1388
(dp1389
g3
Nsg4
S'Lite sannsynlig, Mulig'
p1390
sg6
S'white'
p1391
sg8
(lp1392
sg10
S'Possible'
p1393
sg12
S'Some'
p1394
sg14
g66
sg16
I0
sg17
S'Low'
p1395
sg19
S'Liten tilleggsbelastning'
p1396
sg21
Nsg22
S'500'
p1397
sg24
S'800'
p1398
sg26
S'Noen bratte heng'
p1399
sg28
Nsg29
g1308
sg31
S'5 - Svaert store'
p1400
sba(irunmatrix
M3Element
p1401
(dp1402
g3
Nsg4
S'Lite sannsynlig, Mulig'
p1403
sg6
S'white'
p1404
sg8
(lp1405
sg10
S'Possible'
p1406
sg12
S'Some'
p1407
sg14
g66
sg16
I0
sg17
S'Nat'
p1408
sg19
S'Naturlig utloest'
p1409
sg21
Nsg22
S'500'
p1410
sg24
S'900'
p1411
sg26
S'Noen bratte heng'
p1412
sg28
Nsg29
g1308
sg31
S'5 - Svaert store'
p1413
sba(irunmatrix
M3Element
p1414
(dp1415
g3
Nsg4
S'Sannsynlig, Meget sannsynlig'
p1416
sg6
S'gray'
p1417
sg8
(lp1418
sg10
S'Likely'
p1419
sg12
S'Some'
p1420
sg14
g66
sg16
I0
sg17
S'High'
p1421
sg19
S'Stor tilleggsbelastning'
p1422
sg21
Nsg22
S'500'
p1423
sg24
S'1000'
p1424
sg26
S'Noen bratte heng'
p1425
sg28
Nsg29
g1308
sg31
S'5 - Svaert store'
p1426
sba(irunmatrix
M3Element
p1427
(dp1428
g3
Nsg4
S'Sannsynlig, Meget sannsynlig'
p1429
sg6
S'gray'
p1430
sg8
(lp1431
sg10
S'Likely'
p1432
sg12
S'Some'
p1433
sg14
g66
sg16
I0
sg17
S'Low'
p1434
sg19
S'Liten tilleggsbelastning'
p1435
sg21
Nsg22
S'500'
p1436
sg24
S'1100'
p1437
sg26
S'Noen bratte heng'
p1438
sg28
Nsg29
g1308
sg31
S'5 - Svaert store'
p1439
sba(irunmatrix
M3Element
p1440
(dp1441
g3
Nsg4
S'Sannsynlig, Meget sannsynlig'
p1442
sg6
S'white'
p1443
sg8
(lp1444
sg10
S'Likely'
p1445
sg12
S'Some'
p1446
sg14
g66
sg16
I0
sg17
S'Nat'
p1447
sg19
S'Naturlig utloest'
p1448
sg21
Nsg22
S'500'
p1449
sg24
S'1200'
p1450
sg26
S'Noen bratte heng'
p1451
sg28
Nsg29
g1308
sg31
S'5 - Svaert store'
p1452
sba(irunmatrix
M3Element
p1453
(dp1454
g3
Nsg4
S'Lite sannsynlig, Mulig'
p1455
sg6
S'gray'
p1456
sg8
(lp1457
sg10
S'Possible'
p1458
sg12
S'Many'
p1459
sg14
g66
sg16
I0
sg17
S'High'
p1460
sg19
S'Stor tilleggsbelastning'
p1461
sg21
Nsg22
S'500'
p1462
sg24
S'1300'
p1463
sg26
S'Mange bratte heng'
p1464
sg28
Nsg29
g1308
sg31
S'5 - Svaert store'
p1465
sba(irunmatrix
M3Element
p1466
(dp1467
g3
Nsg4
S'Lite sannsynlig, Mulig'
p1468
sg6
S'white'
p1469
sg8
(lp1470
sg10
S'Possible'
p1471
sg12
S'Many'
p1472
sg14
g66
sg16
I0
sg17
S'Low'
p1473
sg19
S'Liten tilleggsbelastning'
p1474
sg21
Nsg22
S'500'
p1475
sg24
S'1400'
p1476
sg26
S'Mange bratte heng'
p1477
sg28
Nsg29
g1308
sg31
S'5 - Svaert store'
p1478
sba(irunmatrix
M3Element
p1479
(dp1480
g3
Nsg4
S'Lite sannsynlig, Mulig'
p1481
sg6
S'gray'
p1482
sg8
(lp1483
sg10
S'Possible'
p1484
sg12
S'Many'
p1485
sg14
g66
sg16
I0
sg17
S'Nat'
p1486
sg19
S'Naturlig utloest'
p1487
sg21
Nsg22
S'500'
p1488
sg24
S'1500'
p1489
sg26
S'Mange bratte heng'
p1490
sg28
Nsg29
g1308
sg31
S'5 - Svaert store'
p1491
sba(irunmatrix
M3Element
p1492
(dp1493
g3
Nsg4
S'Sannsynlig, Meget sannsynlig'
p1494
sg6
S'gray'
p1495
sg8
(lp1496
sg10
S'Likely'
p1497
sg12
S'Many'
p1498
sg14
g66
sg16
I0
sg17
S'High'
p1499
sg19
S'Stor tilleggsbelastning'
p1500
sg21
Nsg22
S'500'
p1501
sg24
S'1600'
p1502
sg26
S'Mange bratte heng'
p1503
sg28
Nsg29
g1308
sg31
S'5 - Svaert store'
p1504
sba(irunmatrix
M3Element
p1505
(dp1506
g3
Nsg4
S'Sannsynlig, Meget sannsynlig'
p1507
sg6
S'white'
p1508
sg8
(lp1509
sg10
S'Likely'
p1510
sg12
S'Many'
p1511
sg14
g66
sg16
I0
sg17
S'Low'
p1512
sg19
S'Liten tilleggsbelastning'
p1513
sg21
Nsg22
S'500'
p1514
sg24
S'1700'
p1515
sg26
S'Mange bratte heng'
p1516
sg28
Nsg29
g1308
sg31
S'5 - Svaert store'
p1517
sba(irunmatrix
M3Element
p1518
(dp1519
g3
Nsg4
S'Sannsynlig, Meget sannsynlig'
p1520
sg6
S'white'
p1521
sg8
(lp1522
sg10
S'Likely'
p1523
sg12
S'Many'
p1524
sg14
g1211
sg16
I5
sg17
S'Nat'
p1525
sg19
S'Naturlig utloest'
p1526
sg21
Nsg22
S'500'
p1527
sg24
S'1800'
p1528
sg26
S'Mange bratte heng'
p1529
sg28
Nsg29
g1308
sg31
S'5 - Svaert store'
p1530
sba(irunmatrix
M3Element
p1531
(dp1532
g3
Nsg4
S'Lite sannsynlig, Mulig'
p1533
sg6
S'gray'
p1534
sg8
(lp1535
sg10
S'Possible'
p1536
sg12
S'Most'
p1537
sg14
g66
sg16
I0
sg17
S'High'
p1538
sg19
S'Stor tilleggsbelastning'
p1539
sg21
Nsg22
S'500'
p1540
sg24
S'1900'
p1541
sg26
S'De fleste bratte heng, Ogsaa i mindre bratt terreng'
p1542
sg28
Nsg29
g1308
sg31
S'5 - Svaert store'
p1543
sba(irunmatrix
M3Element
p1544
(dp1545
g3
Nsg4
S'Lite sannsynlig, Mulig'
p1546
sg6
S'gray'
p1547
sg8
(lp1548
sg10
S'Possible'
p1549
sg12
S'Most'
p1550
sg14
g66
sg16
I0
sg17
S'Low'
p1551
sg19
S'Liten tilleggsbelastning'
p1552
sg21
Nsg22
S'500'
p1553
sg24
S'2000'
p1554
sg26
S'De fleste bratte heng, Ogsaa i mindre bratt terreng'
p1555
sg28
Nsg29
g1308
sg31
S'5 - Svaert store'
p1556
sba(irunmatrix
M3Element
p1557
(dp1558
g3
Nsg4
S'Lite sannsynlig, Mulig'
p1559
sg6
S'gray'
p1560
sg8
(lp1561
sg10
S'Possible'
p1562
sg12
S'Most'
p1563
sg14
g66
sg16
I0
sg17
S'Nat'
p1564
sg19
S'Naturlig utloest'
p1565
sg21
Nsg22
S'500'
p1566
sg24
S'2100'
p1567
sg26
S'De fleste bratte heng, Ogsaa i mindre bratt terreng'
p1568
sg28
Nsg29
g1308
sg31
S'5 - Svaert store'
p1569
sba(irunmatrix
M3Element
p1570
(dp1571
g3
Nsg4
S'Sannsynlig, Meget sannsynlig'
p1572
sg6
S'gray'
p1573
sg8
(lp1574
sg10
S'Likely'
p1575
sg12
S'Most'
p1576
sg14
g66
sg16
I0
sg17
S'High'
p1577
sg19
S'Stor tilleggsbelastning'
p1578
sg21
Nsg22
S'500'
p1579
sg24
S'2200'
p1580
sg26
S'De fleste bratte heng, Ogsaa i mindre bratt terreng'
p1581
sg28
Nsg29
g1308
sg31
S'5 - Svaert store'
p1582
sba(irunmatrix
M3Element
p1583
(dp1584
g3
Nsg4
S'Sannsynlig, Meget sannsynlig'
p1585
sg6
S'gray'
p1586
sg8
(lp1587
sg10
S'Likely'
p1588
sg12
S'Most'
p1589
sg14
g66
sg16
I0
sg17
S'Low'
p1590
sg19
S'Liten tilleggsbelastning'
p1591
sg21
Nsg22
S'500'
p1592
sg24
S'2300'
p1593
sg26
S'De fleste bratte heng, Ogsaa i mindre bratt terreng'
p1594
sg28
Nsg29
g1308
sg31
S'5 - Svaert store'
p1595
sba(irunmatrix
M3Element
p1596
(dp1597
g3
Nsg4
S'Sannsynlig, Meget sannsynlig'
p1598
sg6
S'white'
p1599
sg8
(lp1600
sg10
S'Likely'
p1601
sg12
S'Most'
p1602
sg14
g66
sg16
I0
sg17
S'Nat'
p1603
sg19
S'Naturlig utloest'
p1604
sg21
Nsg22
S'500'
p1605
sg24
S'2400'
p1606
sg26
S'De fleste bratte heng, Ogsaa i mindre bratt terreng'
p1607
sg28
Nsg29
g1308
sg31
S'5 - Svaert store'
p1608
sba.