(dp0
S'trigger'
p1
(dp2
S'keys'
p3
(lp4
S'Stor tilleggsbelastning'
p5
aS'Liten tilleggsbelastning'
p6
aS'Naturlig utloest'
p7
asS'colors'
p8
(lp9
S'0.7'
p10
asS'values'
p11
(lp12
S'Liten tilleggsbelastning'
p13
aS'Liten tilleggsbelastning'
p14
aS'Liten tilleggsbelastning'
p15
aS'Liten tilleggsbelastning'
p16
aS'Liten tilleggsbelastning'
p17
aS'Liten tilleggsbelastning'
p18
aS'Liten tilleggsbelastning'
p19
aS'Liten tilleggsbelastning'
p20
aS'Liten tilleggsbelastning'
p21
aS'Liten tilleggsbelastning'
p22
aS'Liten tilleggsbelastning'
p23
aS'Liten tilleggsbelastning'
p24
aS'Liten tilleggsbelastning'
p25
aS'Liten tilleggsbelastning'
p26
aS'Liten tilleggsbelastning'
p27
aS'Liten tilleggsbelastning'
p28
aS'Liten tilleggsbelastning'
p29
aS'Liten tilleggsbelastning'
p30
aS'Liten tilleggsbelastning'
p31
aS'Liten tilleggsbelastning'
p32
aS'Stor tilleggsbelastning'
p33
aS'Stor tilleggsbelastning'
p34
aS'Liten tilleggsbelastning'
p35
aS'Liten tilleggsbelastning'
p36
aS'Liten tilleggsbelastning'
p37
aS'Liten tilleggsbelastning'
p38
assS'distribution'
p39
(dp40
g3
(lp41
S'Isolerte faresoner'
p42
aS'Noen bratte heng'
p43
aS'Mange bratte heng'
p44
aS'De fleste bratte heng'
p45
aS'Ogsaa i mindre bratt terreng'
p46
asg8
(lp47
g10
asg11
(lp48
S'Noen bratte heng'
p49
aS'Noen bratte heng'
p50
aS'Noen bratte heng'
p51
aS'Noen bratte heng'
p52
aS'Noen bratte heng'
p53
aS'Noen bratte heng'
p54
aS'Noen bratte heng'
p55
aS'Noen bratte heng'
p56
aS'Noen bratte heng'
p57
aS'Noen bratte heng'
p58
aS'Noen bratte heng'
p59
aS'Noen bratte heng'
p60
aS'Noen bratte heng'
p61
aS'Noen bratte heng'
p62
aS'Noen bratte heng'
p63
aS'Noen bratte heng'
p64
aS'Noen bratte heng'
p65
aS'Noen bratte heng'
p66
aS'Noen bratte heng'
p67
aS'Noen bratte heng'
p68
aS'Isolerte faresoner'
p69
aS'Isolerte faresoner'
p70
aS'Noen bratte heng'
p71
aS'Noen bratte heng'
p72
aS'Noen bratte heng'
p73
aS'Noen bratte heng'
p74
assS'size'
p75
(dp76
g3
(lp77
S'1 - Harmloest'
p78
aS'2 - Smaa'
p79
aS'3 - Middels'
p80
aS'4 - Store'
p81
aS'5 - Svaert store'
p82
aS'Ukjent'
p83
asg8
(lp84
g10
asg11
(lp85
S'2 - Smaa'
p86
aS'2 - Smaa'
p87
aS'2 - Smaa'
p88
aS'3 - Middels'
p89
aS'3 - Middels'
p90
aS'3 - Middels'
p91
aS'2 - Smaa'
p92
aS'2 - Smaa'
p93
aS'2 - Smaa'
p94
aS'2 - Smaa'
p95
aS'2 - Smaa'
p96
aS'2 - Smaa'
p97
aS'2 - Smaa'
p98
aS'2 - Smaa'
p99
aS'2 - Smaa'
p100
aS'2 - Smaa'
p101
aS'2 - Smaa'
p102
aS'2 - Smaa'
p103
aS'2 - Smaa'
p104
aS'2 - Smaa'
p105
aS'2 - Smaa'
p106
aS'2 - Smaa'
p107
aS'2 - Smaa'
p108
aS'2 - Smaa'
p109
aS'2 - Smaa'
p110
aS'2 - Smaa'
p111
assS'probability'
p112
(dp113
g3
(lp114
S'Lite sannsynlig'
p115
aS'Mulig'
p116
aS'Sannsynlig'
p117
aS'Meget sannsynlig'
p118
asg8
(lp119
g10
asg11
(lp120
S'Mulig'
p121
aS'Mulig'
p122
aS'Mulig'
p123
aS'Mulig'
p124
aS'Mulig'
p125
aS'Mulig'
p126
aS'Mulig'
p127
aS'Mulig'
p128
aS'Mulig'
p129
aS'Mulig'
p130
aS'Mulig'
p131
aS'Mulig'
p132
aS'Mulig'
p133
aS'Mulig'
p134
aS'Mulig'
p135
aS'Mulig'
p136
aS'Mulig'
p137
aS'Mulig'
p138
aS'Mulig'
p139
aS'Mulig'
p140
aS'Mulig'
p141
aS'Mulig'
p142
aS'Mulig'
p143
aS'Mulig'
p144
aS'Mulig'
p145
aS'Mulig'
p146
assS'level'
p147
(dp148
g3
(lp149
I1
aI2
aI3
aI4
aI5
asg8
(lp150
S'#ccff66'
p151
aS'#ffff00'
p152
aS'#ff9900'
p153
aS'#ff0000'
p154
aS'k'
p155
asg11
(lp156
I2
aI2
aI2
aI3
aI3
aI3
aI2
aI2
aI2
aI2
aI2
aI2
aI2
aI2
aI2
aI2
aI2
aI2
aI2
aI2
aI1
aI1
aI2
aI2
aI2
aI2
ass.