(lp0
(i__main__
M3Element
p1
(dp2
S'danger_level_average'
p3
F1.0
sS'probability'
p4
S'Lite sannsynlig, Mulig'
p5
sS'colour'
p6
S'#ccff66'
p7
sS'danger_level_list'
p8
(lp9
I1
aI1
aI1
aI1
aI1
aI1
aI1
aI1
aI1
aI1
aI1
aI1
aI1
aI1
aI1
aI1
aI1
aI1
aI1
aI1
aI1
aI1
aI1
aI1
aI1
aI1
aI1
aI1
aI1
aI1
aI1
aI1
aI1
aI1
aI1
aI1
aI1
aI1
aI1
aI1
aI1
aI1
aI1
aI1
aI1
aI1
aI1
aI1
aI1
aI1
aI1
aI1
asS'label_probalility'
p10
S'Possible'
p11
sS'label_distribution'
p12
S'Isolated'
p13
sS'recomended_colour'
p14
S'#ccff66'
p15
sS'recomended_danger_level'
p16
I1
sS'label_trigger'
p17
S'High'
p18
sS'trigger'
p19
S'Stor tilleggsbelastning'
p20
sS'occurrences'
p21
I52
sS'y'
p22
S'100'
p23
sS'x'
p24
S'100'
p25
sS'distribution'
p26
S'Isolerte faresoner'
p27
sS'danger_level_standard_dev'
p28
cnumpy.core.multiarray
scalar
p29
(cnumpy
dtype
p30
(S'f8'
p31
I0
I1
tp32
Rp33
(I3
S'<'
p34
NNNI-1
I-1
I0
tp35
bS'\x00\x00\x00\x00\x00\x00\x00\x00'
p36
tp37
Rp38
sS'label_size'
p39
S'1'
p40
sS'avalanche_size'
p41
S'1 - Harmloest'
p42
sba(i__main__
M3Element
p43
(dp44
g3
F1.1044776119402986
sg4
S'Lite sannsynlig, Mulig'
p45
sg6
g7
sg8
(lp46
I1
aI1
aI1
aI2
aI1
aI1
aI1
aI1
aI1
aI2
aI1
aI1
aI1
aI1
aI1
aI1
aI1
aI1
aI1
aI1
aI1
aI1
aI1
aI1
aI1
aI1
aI1
aI2
aI1
aI1
aI1
aI1
aI1
aI1
aI1
aI1
aI1
aI1
aI1
aI1
aI2
aI1
aI1
aI1
aI1
aI1
aI1
aI1
aI1
aI1
aI1
aI2
aI1
aI1
aI1
aI1
aI1
aI2
aI1
aI1
aI1
aI1
aI1
aI1
aI1
aI2
aI1
asg10
S'Possible'
p47
sg12
S'Isolated'
p48
sg14
g15
sg16
I1
sg17
S'Low'
p49
sg19
S'Liten tilleggsbelastning'
p50
sg21
I67
sg22
S'100'
p51
sg24
S'200'
p52
sg26
S'Isolerte faresoner'
p53
sg28
g29
(g33
S'\xc2\xa5\x1d\x0c\x86\x93\xd3?'
p54
tp55
Rp56
sg39
g40
sg41
S'1 - Harmloest'
p57
sba(i__main__
M3Element
p58
(dp59
g3
F1.1794871794871795
sg4
S'Lite sannsynlig, Mulig'
p60
sg6
g7
sg8
(lp61
I1
aI1
aI2
aI1
aI1
aI2
aI1
aI1
aI1
aI1
aI1
aI2
aI1
aI1
aI1
aI1
aI1
aI1
aI1
aI1
aI1
aI1
aI1
aI1
aI1
aI1
aI2
aI2
aI1
aI1
aI1
aI2
aI2
aI1
aI1
aI1
aI1
aI1
aI1
asg10
S'Possible'
p62
sg12
S'Isolated'
p63
sg14
g15
sg16
I1
sg17
S'Nat'
p64
sg19
S'Naturlig utloest'
p65
sg21
I39
sg22
S'100'
p66
sg24
S'300'
p67
sg26
S'Isolerte faresoner'
p68
sg28
g29
(g33
S'^-\x97\xfa\x84\x8f\xd8?'
p69
tp70
Rp71
sg39
g40
sg41
S'1 - Harmloest'
p72
sba(i__main__
M3Element
p73
(dp74
g3
Nsg4
S'Sannsynlig, Meget sannsynlig'
p75
sg6
S'gray'
p76
sg8
(lp77
sg10
S'Likely'
p78
sg12
S'Isolated'
p79
sg14
S'gray'
p80
sg16
I0
sg17
S'High'
p81
sg19
S'Stor tilleggsbelastning'
p82
sg21
Nsg22
S'100'
p83
sg24
S'400'
p84
sg26
S'Isolerte faresoner'
p85
sg28
Nsg39
g40
sg41
S'1 - Harmloest'
p86
sba(i__main__
M3Element
p87
(dp88
g3
Nsg4
S'Sannsynlig, Meget sannsynlig'
p89
sg6
S'gray'
p90
sg8
(lp91
sg10
S'Likely'
p92
sg12
S'Isolated'
p93
sg14
g80
sg16
I0
sg17
S'Low'
p94
sg19
S'Liten tilleggsbelastning'
p95
sg21
Nsg22
S'100'
p96
sg24
S'500'
p97
sg26
S'Isolerte faresoner'
p98
sg28
Nsg39
g40
sg41
S'1 - Harmloest'
p99
sba(i__main__
M3Element
p100
(dp101
g3
Nsg4
S'Sannsynlig, Meget sannsynlig'
p102
sg6
S'gray'
p103
sg8
(lp104
sg10
S'Likely'
p105
sg12
S'Isolated'
p106
sg14
g80
sg16
I0
sg17
S'Nat'
p107
sg19
S'Naturlig utloest'
p108
sg21
Nsg22
S'100'
p109
sg24
S'600'
p110
sg26
S'Isolerte faresoner'
p111
sg28
Nsg39
g40
sg41
S'1 - Harmloest'
p112
sba(i__main__
M3Element
p113
(dp114
g3
F1.5
sg4
S'Lite sannsynlig, Mulig'
p115
sg6
S'#ffff00'
p116
sg8
(lp117
I1
aI1
aI1
aI1
aI1
aI2
aI2
aI1
aI2
aI2
aI2
aI2
asg10
S'Possible'
p118
sg12
S'Some'
p119
sg14
g15
sg16
I1
sg17
S'High'
p120
sg19
S'Stor tilleggsbelastning'
p121
sg21
I12
sg22
S'100'
p122
sg24
S'700'
p123
sg26
S'Noen bratte heng'
p124
sg28
g29
(g33
S'\x00\x00\x00\x00\x00\x00\xe0?'
p125
tp126
Rp127
sg39
g40
sg41
S'1 - Harmloest'
p128
sba(i__main__
M3Element
p129
(dp130
g3
F1.2916666666666667
sg4
S'Lite sannsynlig, Mulig'
p131
sg6
g7
sg8
(lp132
I1
aI2
aI1
aI1
aI1
aI1
aI1
aI2
aI1
aI1
aI1
aI1
aI1
aI1
aI2
aI1
aI1
aI1
aI1
aI1
aI2
aI2
aI2
aI1
aI1
aI1
aI1
aI1
aI1
aI1
aI1
aI2
aI2
aI2
aI1
aI1
aI1
aI1
aI1
aI1
aI1
aI1
aI2
aI1
aI2
aI2
aI1
aI1
aI1
aI1
aI1
aI1
aI1
aI2
aI2
aI2
aI2
aI1
aI1
aI1
aI1
aI1
aI2
aI2
aI2
aI2
aI2
aI2
aI2
aI2
aI2
aI1
aI1
aI1
aI1
aI1
aI1
aI1
aI1
aI1
aI1
aI1
aI1
aI1
aI1
aI2
aI2
aI2
aI1
aI1
aI1
aI1
aI1
aI1
aI1
aI1
asg10
S'Possible'
p133
sg12
S'Some'
p134
sg14
g15
sg16
I1
sg17
S'Low'
p135
sg19
S'Liten tilleggsbelastning'
p136
sg21
I96
sg22
S'100'
p137
sg24
S'800'
p138
sg26
S'Noen bratte heng'
p139
sg28
g29
(g33
S'\x00=z\x9e\x03\x17\xdd?'
p140
tp141
Rp142
sg39
g40
sg41
S'1 - Harmloest'
p143
sba(i__main__
M3Element
p144
(dp145
g3
F1.3157894736842106
sg4
S'Lite sannsynlig, Mulig'
p146
sg6
g7
sg8
(lp147
I1
aI1
aI2
aI1
aI1
aI1
aI2
aI1
aI1
aI2
aI2
aI1
aI1
aI1
aI1
aI2
aI1
aI1
aI2
aI1
aI1
aI2
aI2
aI2
aI1
aI2
aI2
aI1
aI1
aI1
aI1
aI1
aI1
aI1
aI1
aI1
aI2
aI1
asg10
S'Possible'
p148
sg12
S'Some'
p149
sg14
g15
sg16
I1
sg17
S'Nat'
p150
sg19
S'Naturlig utloest'
p151
sg21
I38
sg22
S'100'
p152
sg24
S'900'
p153
sg26
S'Noen bratte heng'
p154
sg28
g29
(g33
S'\xea\x95\xe1O\xc4\xbf\xdd?'
p155
tp156
Rp157
sg39
g40
sg41
S'1 - Harmloest'
p158
sba(i__main__
M3Element
p159
(dp160
g3
Nsg4
S'Sannsynlig, Meget sannsynlig'
p161
sg6
S'gray'
p162
sg8
(lp163
sg10
S'Likely'
p164
sg12
S'Some'
p165
sg14
g80
sg16
I0
sg17
S'High'
p166
sg19
S'Stor tilleggsbelastning'
p167
sg21
Nsg22
S'100'
p168
sg24
S'1000'
p169
sg26
S'Noen bratte heng'
p170
sg28
Nsg39
g40
sg41
S'1 - Harmloest'
p171
sba(i__main__
M3Element
p172
(dp173
g3
Nsg4
S'Sannsynlig, Meget sannsynlig'
p174
sg6
S'gray'
p175
sg8
(lp176
sg10
S'Likely'
p177
sg12
S'Some'
p178
sg14
g80
sg16
I0
sg17
S'Low'
p179
sg19
S'Liten tilleggsbelastning'
p180
sg21
Nsg22
S'100'
p181
sg24
S'1100'
p182
sg26
S'Noen bratte heng'
p183
sg28
Nsg39
g40
sg41
S'1 - Harmloest'
p184
sba(i__main__
M3Element
p185
(dp186
g3
F1.75
sg4
S'Sannsynlig, Meget sannsynlig'
p187
sg6
g116
sg8
(lp188
I2
aI2
aI1
aI2
asg10
S'Likely'
p189
sg12
S'Some'
p190
sg14
g15
sg16
I1
sg17
S'Nat'
p191
sg19
S'Naturlig utloest'
p192
sg21
I4
sg22
S'100'
p193
sg24
S'1200'
p194
sg26
S'Noen bratte heng'
p195
sg28
g29
(g33
S'\xaaLX\xe8z\xb6\xdb?'
p196
tp197
Rp198
sg39
g40
sg41
S'1 - Harmloest'
p199
sba(i__main__
M3Element
p200
(dp201
g3
Nsg4
S'Lite sannsynlig, Mulig'
p202
sg6
S'gray'
p203
sg8
(lp204
sg10
S'Possible'
p205
sg12
S'Many'
p206
sg14
g80
sg16
I0
sg17
S'High'
p207
sg19
S'Stor tilleggsbelastning'
p208
sg21
Nsg22
S'100'
p209
sg24
S'1300'
p210
sg26
S'Mange bratte heng'
p211
sg28
Nsg39
g40
sg41
S'1 - Harmloest'
p212
sba(i__main__
M3Element
p213
(dp214
g3
F1.4615384615384615
sg4
S'Lite sannsynlig, Mulig'
p215
sg6
g7
sg8
(lp216
I2
aI1
aI2
aI2
aI1
aI1
aI2
aI2
aI1
aI1
aI2
aI1
aI1
asg10
S'Possible'
p217
sg12
S'Many'
p218
sg14
g15
sg16
I1
sg17
S'Low'
p219
sg19
S'Liten tilleggsbelastning'
p220
sg21
I13
sg22
S'100'
p221
sg24
S'1400'
p222
sg26
S'Mange bratte heng'
p223
sg28
g29
(g33
S'\xa1\x16\xe03\xba\xe7\xdf?'
p224
tp225
Rp226
sg39
g40
sg41
S'1 - Harmloest'
p227
sba(i__main__
M3Element
p228
(dp229
g3
F1.8
sg4
S'Lite sannsynlig, Mulig'
p230
sg6
g116
sg8
(lp231
I2
aI2
aI1
aI2
aI2
aI2
aI2
aI1
aI2
aI2
asg10
S'Possible'
p232
sg12
S'Many'
p233
sg14
g80
sg16
I0
sg17
S'Nat'
p234
sg19
S'Naturlig utloest'
p235
sg21
I10
sg22
S'100'
p236
sg24
S'1500'
p237
sg26
S'Mange bratte heng'
p238
sg28
g29
(g33
S'\x9a\x99\x99\x99\x99\x99\xd9?'
p239
tp240
Rp241
sg39
g40
sg41
S'1 - Harmloest'
p242
sba(i__main__
M3Element
p243
(dp244
g3
Nsg4
S'Sannsynlig, Meget sannsynlig'
p245
sg6
S'gray'
p246
sg8
(lp247
sg10
S'Likely'
p248
sg12
S'Many'
p249
sg14
g80
sg16
I0
sg17
S'High'
p250
sg19
S'Stor tilleggsbelastning'
p251
sg21
Nsg22
S'100'
p252
sg24
S'1600'
p253
sg26
S'Mange bratte heng'
p254
sg28
Nsg39
g40
sg41
S'1 - Harmloest'
p255
sba(i__main__
M3Element
p256
(dp257
g3
Nsg4
S'Sannsynlig, Meget sannsynlig'
p258
sg6
S'white'
p259
sg8
(lp260
sg10
S'Likely'
p261
sg12
S'Many'
p262
sg14
S'#ffff00'
p263
sg16
I2
sg17
S'Low'
p264
sg19
S'Liten tilleggsbelastning'
p265
sg21
Nsg22
S'100'
p266
sg24
S'1700'
p267
sg26
S'Mange bratte heng'
p268
sg28
Nsg39
g40
sg41
S'1 - Harmloest'
p269
sba(i__main__
M3Element
p270
(dp271
g3
F1.8571428571428572
sg4
S'Sannsynlig, Meget sannsynlig'
p272
sg6
g116
sg8
(lp273
I2
aI2
aI2
aI2
aI1
aI2
aI2
asg10
S'Likely'
p274
sg12
S'Many'
p275
sg14
g263
sg16
I2
sg17
S'Nat'
p276
sg19
S'Naturlig utloest'
p277
sg21
I7
sg22
S'100'
p278
sg24
S'1800'
p279
sg26
S'Mange bratte heng'
p280
sg28
g29
(g33
S'Z\x01/\xa94e\xd6?'
p281
tp282
Rp283
sg39
g40
sg41
S'1 - Harmloest'
p284
sba(i__main__
M3Element
p285
(dp286
g3
Nsg4
S'Lite sannsynlig, Mulig'
p287
sg6
S'gray'
p288
sg8
(lp289
sg10
S'Possible'
p290
sg12
S'Most'
p291
sg14
g80
sg16
I0
sg17
S'High'
p292
sg19
S'Stor tilleggsbelastning'
p293
sg21
Nsg22
S'100'
p294
sg24
S'1900'
p295
sg26
S'De fleste bratte heng, Ogsaa i mindre bratt terreng'
p296
sg28
Nsg39
g40
sg41
S'1 - Harmloest'
p297
sba(i__main__
M3Element
p298
(dp299
g3
Nsg4
S'Lite sannsynlig, Mulig'
p300
sg6
S'gray'
p301
sg8
(lp302
sg10
S'Possible'
p303
sg12
S'Most'
p304
sg14
g80
sg16
I0
sg17
S'Low'
p305
sg19
S'Liten tilleggsbelastning'
p306
sg21
Nsg22
S'100'
p307
sg24
S'2000'
p308
sg26
S'De fleste bratte heng, Ogsaa i mindre bratt terreng'
p309
sg28
Nsg39
g40
sg41
S'1 - Harmloest'
p310
sba(i__main__
M3Element
p311
(dp312
g3
Nsg4
S'Lite sannsynlig, Mulig'
p313
sg6
S'gray'
p314
sg8
(lp315
sg10
S'Possible'
p316
sg12
S'Most'
p317
sg14
g80
sg16
I0
sg17
S'Nat'
p318
sg19
S'Naturlig utloest'
p319
sg21
Nsg22
S'100'
p320
sg24
S'2100'
p321
sg26
S'De fleste bratte heng, Ogsaa i mindre bratt terreng'
p322
sg28
Nsg39
g40
sg41
S'1 - Harmloest'
p323
sba(i__main__
M3Element
p324
(dp325
g3
Nsg4
S'Sannsynlig, Meget sannsynlig'
p326
sg6
S'gray'
p327
sg8
(lp328
sg10
S'Likely'
p329
sg12
S'Most'
p330
sg14
g80
sg16
I0
sg17
S'High'
p331
sg19
S'Stor tilleggsbelastning'
p332
sg21
Nsg22
S'100'
p333
sg24
S'2200'
p334
sg26
S'De fleste bratte heng, Ogsaa i mindre bratt terreng'
p335
sg28
Nsg39
g40
sg41
S'1 - Harmloest'
p336
sba(i__main__
M3Element
p337
(dp338
g3
Nsg4
S'Sannsynlig, Meget sannsynlig'
p339
sg6
S'gray'
p340
sg8
(lp341
sg10
S'Likely'
p342
sg12
S'Most'
p343
sg14
g80
sg16
I0
sg17
S'Low'
p344
sg19
S'Liten tilleggsbelastning'
p345
sg21
Nsg22
S'100'
p346
sg24
S'2300'
p347
sg26
S'De fleste bratte heng, Ogsaa i mindre bratt terreng'
p348
sg28
Nsg39
g40
sg41
S'1 - Harmloest'
p349
sba(i__main__
M3Element
p350
(dp351
g3
Nsg4
S'Sannsynlig, Meget sannsynlig'
p352
sg6
S'white'
p353
sg8
(lp354
sg10
S'Likely'
p355
sg12
S'Most'
p356
sg14
g80
sg16
I0
sg17
S'Nat'
p357
sg19
S'Naturlig utloest'
p358
sg21
Nsg22
S'100'
p359
sg24
S'2400'
p360
sg26
S'De fleste bratte heng, Ogsaa i mindre bratt terreng'
p361
sg28
Nsg39
S'2'
p362
sg41
S'1 - Harmloest'
p363
sba(i__main__
M3Element
p364
(dp365
g3
F1.3905817174515236
sg4
S'Lite sannsynlig, Mulig'
p366
sg6
g7
sg8
(lp367
I1
aI1
aI1
aI1
aI1
aI2
aI1
aI1
aI1
aI1
aI1
aI1
aI1
aI1
aI1
aI1
aI2
aI2
aI2
aI2
aI2
aI2
aI1
aI1
aI1
aI1
aI1
aI1
aI1
aI1
aI1
aI1
aI2
aI2
aI2
aI2
aI2
aI2
aI2
aI2
aI2
aI2
aI1
aI1
aI1
aI1
aI1
aI1
aI1
aI1
aI1
aI2
aI2
aI2
aI2
aI2
aI2
aI1
aI1
aI1
aI1
aI1
aI1
aI1
aI1
aI1
aI1
aI1
aI1
aI1
aI1
aI1
aI1
aI1
aI1
aI1
aI1
aI1
aI1
aI2
aI2
aI2
aI2
aI1
aI1
aI1
aI1
aI1
aI1
aI1
aI1
aI1
aI1
aI1
aI1
aI1
aI1
aI1
aI1
aI1
aI1
aI1
aI2
aI2
aI2
aI2
aI2
aI1
aI1
aI1
aI1
aI1
aI1
aI1
aI1
aI1
aI1
aI1
aI1
aI1
aI1
aI1
aI1
aI2
aI2
aI1
aI1
aI1
aI2
aI2
aI2
aI1
aI1
aI1
aI2
aI2
aI2
aI1
aI1
aI1
aI2
aI1
aI1
aI1
aI1
aI1
aI1
aI1
aI1
aI1
aI2
aI2
aI2
aI2
aI1
aI1
aI1
aI1
aI1
aI1
aI2
aI2
aI2
aI2
aI1
aI1
aI1
aI1
aI2
aI2
aI2
aI2
aI2
aI2
aI2
aI3
aI2
aI2
aI2
aI2
aI1
aI1
aI1
aI1
aI2
aI2
aI2
aI2
aI1
aI2
aI1
aI1
aI1
aI1
aI1
aI1
aI2
aI2
aI2
aI1
aI1
aI1
aI2
aI1
aI1
aI1
aI1
aI1
aI2
aI1
aI2
aI1
aI2
aI2
aI2
aI2
aI2
aI2
aI2
aI2
aI2
aI2
aI2
aI2
aI2
aI1
aI1
aI2
aI1
aI1
aI1
aI2
aI2
aI1
aI2
aI2
aI2
aI2
aI2
aI2
aI2
aI2
aI2
aI2
aI2
aI1
aI1
aI2
aI2
aI1
aI1
aI1
aI2
aI2
aI2
aI2
aI1
aI1
aI2
aI2
aI2
aI2
aI1
aI2
aI2
aI2
aI2
aI2
aI2
aI1
aI2
aI2
aI1
aI1
aI2
aI2
aI1
aI1
aI2
aI1
aI1
aI1
aI1
aI1
aI1
aI1
aI1
aI1
aI1
aI1
aI1
aI1
aI1
aI1
aI1
aI1
aI1
aI1
aI1
aI2
aI1
aI1
aI1
aI1
aI1
aI1
aI1
aI1
aI1
aI1
aI2
aI2
aI2
aI2
aI2
aI2
aI1
aI1
aI2
aI1
aI1
aI1
aI1
aI1
aI1
aI1
aI2
aI2
aI2
aI3
aI2
aI1
aI1
aI1
aI2
aI1
aI1
aI2
aI1
aI1
aI1
aI1
aI1
aI1
aI1
aI1
aI1
aI1
aI2
aI1
aI1
aI1
aI1
aI2
aI1
aI2
aI2
aI1
aI1
aI1
aI1
asg10
S'Possible'
p368
sg12
S'Isolated'
p369
sg14
g15
sg16
I1
sg17
S'High'
p370
sg19
S'Stor tilleggsbelastning'
p371
sg21
I361
sg22
S'200'
p372
sg24
S'100'
p373
sg26
S'Isolerte faresoner'
p374
sg28
g29
(g33
S'F\xfa&8_\xf1\xdf?'
p375
tp376
Rp377
sg39
g362
sg41
S'2 - Smaa'
p378
sba(i__main__
M3Element
p379
(dp380
g3
F1.969298245614035
sg4
S'Lite sannsynlig, Mulig'
p381
sg6
g116
sg8
(lp382
I2
aI1
aI2
aI2
aI2
aI2
aI2
aI2
aI2
aI2
aI2
aI2
aI2
aI2
aI2
aI2
aI2
aI2
aI3
aI3
aI2
aI2
aI2
aI2
aI2
aI2
aI2
aI2
aI2
aI2
aI2
aI2
aI1
aI1
aI2
aI2
aI2
aI2
aI2
aI2
aI2
aI2
aI2
aI2
aI2
aI2
aI2
aI2
aI2
aI2
aI2
aI2
aI2
aI2
aI2
aI2
aI2
aI2
aI2
aI2
aI2
aI2
aI2
aI2
aI2
aI2
aI2
aI2
aI2
aI2
aI2
aI2
aI2
aI2
aI2
aI2
aI2
aI2
aI2
aI2
aI2
aI2
aI2
aI2
aI2
aI2
aI2
aI2
aI2
aI2
aI2
aI2
aI2
aI2
aI2
aI2
aI2
aI2
aI2
aI2
aI2
aI2
aI2
aI2
aI2
aI3
aI3
aI2
aI2
aI2
aI2
aI2
aI2
aI2
aI2
aI2
aI2
aI2
aI2
aI2
aI2
aI2
aI2
aI2
aI2
aI2
aI2
aI2
aI2
aI2
aI2
aI2
aI2
aI2
aI2
aI2
aI2
aI2
aI2
aI2
aI2
aI2
aI2
aI2
aI2
aI2
aI2
aI2
aI2
aI2
aI2
aI2
aI2
aI2
aI2
aI2
aI2
aI2
aI2
aI2
aI2
aI2
aI2
aI2
aI2
aI2
aI2
aI2
aI2
aI2
aI2
aI2
aI2
aI2
aI2
aI2
aI2
aI2
aI2
aI2
aI2
aI2
aI1
aI2
aI2
aI2
aI2
aI2
aI2
aI2
aI2
aI2
aI2
aI2
aI2
aI2
aI2
aI2
aI2
aI2
aI2
aI2
aI2
aI2
aI2
aI2
aI2
aI2
aI2
aI2
aI2
aI2
aI3
aI2
aI2
aI2
aI2
aI2
aI2
aI2
aI2
aI2
aI2
aI2
aI1
aI1
aI2
aI2
aI2
aI2
aI2
aI2
aI3
aI2
aI1
aI1
aI2
aI2
aI2
aI2
aI2
aI2
aI2
aI2
aI2
aI2
aI2
aI1
aI2
aI2
aI2
aI2
aI2
aI2
aI2
aI2
aI2
aI2
aI2
aI2
aI2
aI2
aI2
aI2
aI2
aI1
aI1
aI2
aI2
aI2
aI2
aI2
aI2
aI2
aI2
aI2
aI2
aI2
aI2
aI2
aI2
aI2
aI2
aI2
aI2
aI2
aI2
aI2
aI2
aI1
aI1
aI2
aI2
aI2
aI2
aI2
aI2
aI3
aI2
aI2
aI2
aI2
aI2
aI2
aI2
aI2
aI2
aI2
aI2
aI2
aI2
aI2
aI2
aI3
aI2
aI2
aI2
aI2
aI2
aI2
aI2
aI2
aI2
aI2
aI2
aI2
aI2
aI2
aI2
aI2
aI2
aI1
aI1
aI2
aI2
aI2
aI2
aI2
aI2
aI2
aI2
aI2
aI2
aI2
aI2
aI2
aI2
aI2
aI2
aI2
aI2
aI3
aI2
aI2
aI2
aI2
aI2
aI2
aI2
aI2
aI2
aI2
aI2
aI2
aI2
aI2
aI2
aI2
aI2
aI2
aI1
aI2
aI2
aI2
aI2
aI2
aI2
aI2
aI2
aI2
aI2
aI2
aI2
aI2
aI2
aI2
aI1
aI1
aI2
aI2
aI2
aI2
aI2
aI2
aI2
aI2
aI2
aI2
aI2
aI2
aI2
aI2
aI2
aI2
aI2
aI2
aI2
aI2
aI2
aI2
aI2
aI1
aI2
aI2
aI2
aI2
aI2
aI2
aI2
aI2
aI2
aI2
aI2
aI2
aI2
aI2
aI2
aI2
aI2
aI2
aI1
aI2
aI2
aI2
aI2
aI2
aI2
aI2
aI2
aI2
aI2
aI1
aI1
aI2
aI2
aI2
aI2
aI2
aI2
aI2
aI2
aI2
aI2
aI2
aI2
aI1
asg10
S'Possible'
p383
sg12
S'Isolated'
p384
sg14
g15
sg16
I1
sg17
S'Low'
p385
sg19
S'Liten tilleggsbelastning'
p386
sg21
I456
sg22
S'200'
p387
sg24
S'200'
p388
sg26
S'Isolerte faresoner'
p389
sg28
g29
(g33
S'q$8\xe6\xfa\xd6\xd0?'
p390
tp391
Rp392
sg39
g362
sg41
S'2 - Smaa'
p393
sba(i__main__
M3Element
p394
(dp395
g3
F1.446808510638298
sg4
S'Lite sannsynlig, Mulig'
p396
sg6
g7
sg8
(lp397
I1
aI1
aI1
aI1
aI1
aI2
aI1
aI2
aI1
aI1
aI2
aI1
aI1
aI1
aI1
aI2
aI1
aI2
aI1
aI2
aI1
aI2
aI2
aI2
aI2
aI2
aI2
aI2
aI2
aI2
aI2
aI2
aI2
aI1
aI1
aI2
aI2
aI1
aI2
aI1
aI1
aI1
aI1
aI1
aI1
aI1
aI1
asg10
S'Possible'
p398
sg12
S'Isolated'
p399
sg14
g15
sg16
I1
sg17
S'Nat'
p400
sg19
S'Naturlig utloest'
p401
sg21
I47
sg22
S'200'
p402
sg24
S'300'
p403
sg26
S'Isolerte faresoner'
p404
sg28
g29
(g33
S'\n\xb0\xbc$\x83\xd1\xdf?'
p405
tp406
Rp407
sg39
g362
sg41
S'2 - Smaa'
p408
sba(i__main__
M3Element
p409
(dp410
g3
Nsg4
S'Sannsynlig, Meget sannsynlig'
p411
sg6
S'gray'
p412
sg8
(lp413
sg10
S'Likely'
p414
sg12
S'Isolated'
p415
sg14
g80
sg16
I0
sg17
S'High'
p416
sg19
S'Stor tilleggsbelastning'
p417
sg21
Nsg22
S'200'
p418
sg24
S'400'
p419
sg26
S'Isolerte faresoner'
p420
sg28
Nsg39
g362
sg41
S'2 - Smaa'
p421
sba(i__main__
M3Element
p422
(dp423
g3
Nsg4
S'Sannsynlig, Meget sannsynlig'
p424
sg6
S'gray'
p425
sg8
(lp426
sg10
S'Likely'
p427
sg12
S'Isolated'
p428
sg14
g80
sg16
I0
sg17
S'Low'
p429
sg19
S'Liten tilleggsbelastning'
p430
sg21
Nsg22
S'200'
p431
sg24
S'500'
p432
sg26
S'Isolerte faresoner'
p433
sg28
Nsg39
g362
sg41
S'2 - Smaa'
p434
sba(i__main__
M3Element
p435
(dp436
g3
Nsg4
S'Sannsynlig, Meget sannsynlig'
p437
sg6
S'gray'
p438
sg8
(lp439
sg10
S'Likely'
p440
sg12
S'Isolated'
p441
sg14
g80
sg16
I0
sg17
S'Nat'
p442
sg19
S'Naturlig utloest'
p443
sg21
Nsg22
S'200'
p444
sg24
S'600'
p445
sg26
S'Isolerte faresoner'
p446
sg28
Nsg39
g362
sg41
S'2 - Smaa'
p447
sba(i__main__
M3Element
p448
(dp449
g3
F1.9971830985915493
sg4
S'Lite sannsynlig, Mulig'
p450
sg6
g116
sg8
(lp451
I2
aI2
aI2
aI2
aI2
aI2
aI2
aI2
aI2
aI2
aI2
aI2
aI2
aI2
aI2
aI2
aI2
aI2
aI2
aI2
aI2
aI2
aI2
aI2
aI2
aI2
aI2
aI2
aI2
aI2
aI2
aI2
aI2
aI2
aI2
aI2
aI2
aI2
aI2
aI2
aI2
aI2
aI2
aI2
aI2
aI2
aI2
aI2
aI2
aI2
aI2
aI2
aI2
aI2
aI2
aI2
aI1
aI2
aI2
aI2
aI2
aI2
aI2
aI2
aI2
aI2
aI2
aI2
aI2
aI2
aI2
aI2
aI2
aI2
aI2
aI2
aI2
aI2
aI1
aI2
aI2
aI2
aI2
aI2
aI2
aI2
aI2
aI2
aI2
aI2
aI2
aI2
aI2
aI2
aI2
aI2
aI3
aI2
aI2
aI2
aI2
aI2
aI2
aI2
aI2
aI2
aI2
aI2
aI2
aI2
aI2
aI2
aI2
aI2
aI2
aI2
aI2
aI2
aI2
aI2
aI2
aI2
aI2
aI2
aI2
aI2
aI2
aI2
aI2
aI2
aI2
aI2
aI2
aI2
aI2
aI2
aI2
aI2
aI2
aI2
aI2
aI2
aI2
aI2
aI2
aI2
aI2
aI2
aI2
aI2
aI2
aI2
aI2
aI2
aI2
aI2
aI2
aI2
aI2
aI2
aI2
aI2
aI2
aI2
aI2
aI2
aI2
aI2
aI2
aI2
aI2
aI1
aI1
aI2
aI2
aI2
aI2
aI2
aI2
aI2
aI2
aI2
aI2
aI2
aI2
aI2
aI2
aI2
aI2
aI2
aI2
aI2
aI2
aI2
aI2
aI3
aI3
aI2
aI2
aI2
aI2
aI2
aI2
aI2
aI2
aI2
aI2
aI2
aI2
aI2
aI2
aI2
aI2
aI2
aI2
aI2
aI2
aI2
aI2
aI2
aI2
aI2
aI2
aI2
aI2
aI2
aI2
aI2
aI2
aI2
aI2
aI2
aI2
aI2
aI2
aI2
aI2
aI2
aI2
aI2
aI2
aI2
aI2
aI2
aI2
aI2
aI2
aI2
aI2
aI2
aI2
aI2
aI2
aI2
aI2
aI2
aI1
aI1
aI2
aI2
aI2
aI2
aI2
aI2
aI2
aI2
aI2
aI2
aI2
aI2
aI3
aI2
aI2
aI2
aI2
aI2
aI2
aI2
aI2
aI2
aI2
aI2
aI2
aI2
aI2
aI2
aI2
aI2
aI2
aI2
aI2
aI2
aI2
aI2
aI2
aI2
aI2
aI2
aI2
aI2
aI2
aI2
aI2
aI2
aI2
aI2
aI2
aI2
aI2
aI2
aI2
aI2
aI2
aI2
aI2
aI2
aI2
aI2
aI2
aI2
aI2
aI2
aI2
aI2
aI2
aI2
aI2
aI2
aI2
aI2
aI2
aI2
aI2
aI2
aI2
aI2
aI2
aI2
aI2
aI2
aI2
aI2
aI2
aI2
aI2
aI2
aI2
aI2
aI2
aI2
aI2
aI2
aI2
aI3
aI2
aI2
aI2
aI2
aI2
aI2
aI2
aI2
aI2
aI2
aI2
aI2
aI2
aI2
aI2
aI2
aI2
aI2
aI2
aI2
aI2
aI2
aI2
aI2
aI2
aI2
aI2
aI2
aI2
aI2
aI2
aI2
aI2
aI2
aI2
aI2
aI2
aI2
aI2
aI2
aI2
aI2
aI2
aI2
aI2
aI2
aI2
aI2
aI2
aI2
aI2
aI2
aI2
aI2
aI2
aI2
aI2
aI2
aI2
aI2
aI2
aI2
aI2
aI2
aI2
aI2
aI2
aI2
aI2
aI2
aI2
aI2
aI2
aI2
aI2
aI2
aI2
aI2
aI2
aI2
aI2
aI2
aI2
aI2
aI2
aI2
aI2
aI2
aI2
aI2
aI2
aI2
aI2
aI2
aI2
aI2
aI2
aI2
aI2
aI2
aI2
aI2
aI2
aI2
aI2
aI2
aI2
aI2
aI2
aI2
aI2
aI2
aI2
aI2
aI2
aI2
aI2
aI2
aI2
aI2
aI2
aI2
aI2
aI2
aI2
aI2
aI2
aI2
aI2
aI2
aI2
aI2
aI2
aI2
aI2
aI2
aI2
aI2
aI2
aI2
aI2
aI2
aI3
aI2
aI2
aI2
aI2
aI2
aI2
aI2
aI2
aI2
aI2
aI2
aI2
aI2
aI2
aI2
aI2
aI2
aI2
aI2
aI2
aI2
aI2
aI2
aI2
aI2
aI2
aI2
aI2
aI2
aI2
aI2
aI2
aI2
aI2
aI3
aI2
aI2
aI2
aI2
aI2
aI2
aI2
aI2
aI2
aI2
aI2
aI2
aI2
aI2
aI2
aI2
aI2
aI2
aI2
aI2
aI2
aI2
aI2
aI2
aI2
aI2
aI2
aI2
aI2
aI2
aI2
aI2
aI2
aI2
aI2
aI2
aI2
aI2
aI2
aI2
aI2
aI2
aI2
aI2
aI2
aI2
aI2
aI1
aI2
aI2
aI2
aI2
aI2
aI2
aI2
aI2
aI2
aI2
aI2
aI2
aI2
aI2
aI2
aI2
aI2
aI2
aI1
aI1
aI2
aI2
aI2
aI2
aI2
aI2
aI2
aI2
aI2
aI2
aI2
aI2
aI2
aI2
aI2
aI2
aI2
aI2
aI2
aI2
aI2
aI2
aI2
aI2
aI2
aI2
aI2
aI2
aI2
aI2
aI2
aI2
aI2
aI2
aI2
aI2
aI2
aI2
aI2
aI2
aI2
aI2
aI2
aI2
aI2
aI2
aI2
aI2
aI2
aI2
aI2
aI2
aI2
aI2
aI2
aI2
aI2
aI2
aI2
aI2
aI2
aI2
aI2
aI2
aI2
aI2
aI2
aI2
aI2
aI2
aI2
aI2
aI2
aI2
aI2
aI2
aI2
aI2
aI2
aI2
aI2
aI2
aI2
aI2
aI2
aI2
aI2
aI2
aI2
aI2
aI2
aI2
aI2
aI2
aI2
aI2
aI2
aI2
aI2
aI2
aI2
aI2
aI2
aI2
aI2
aI2
aI2
aI2
aI2
aI2
asg10
S'Possible'
p452
sg12
S'Some'
p453
sg14
g263
sg16
I2
sg17
S'High'
p454
sg19
S'Stor tilleggsbelastning'
p455
sg21
I710
sg22
S'200'
p456
sg24
S'700'
p457
sg26
S'Noen bratte heng'
p458
sg28
g29
(g33
S'zZ\xaa\xab-6\xc3?'
p459
tp460
Rp461
sg39
g362
sg41
S'2 - Smaa'
p462
sba(i__main__
M3Element
p463
(dp464
g3
F2.295880149812734
sg4
S'Lite sannsynlig, Mulig'
p465
sg6
g116
sg8
(lp466
I2
aI2
aI2
aI2
aI2
aI2
aI2
aI3
aI2
aI2
aI2
aI2
aI2
aI2
aI2
aI2
aI2
aI2
aI2
aI2
aI3
aI3
aI3
aI3
aI3
aI3
aI3
aI2
aI2
aI2
aI2
aI1
aI2
aI2
aI2
aI2
aI2
aI2
aI2
aI2
aI3
aI2
aI2
aI2
aI2
aI2
aI2
aI3
aI3
aI2
aI2
aI2
aI2
aI3
aI3
aI3
aI2
aI3
aI3
aI3
aI3
aI3
aI2
aI2
aI2
aI2
aI2
aI1
aI1
aI2
aI2
aI2
aI2
aI2
aI2
aI2
aI2
aI2
aI3
aI3
aI3
aI3
aI3
aI3
aI2
aI2
aI2
aI2
aI3
aI3
aI3
aI2
aI2
aI2
aI2
aI2
aI2
aI2
aI2
aI3
aI2
aI2
aI2
aI2
aI2
aI3
aI2
aI2
aI2
aI3
aI3
aI3
aI2
aI2
aI2
aI2
aI2
aI2
aI2
aI2
aI2
aI2
aI2
aI2
aI2
aI2
aI2
aI2
aI2
aI2
aI2
aI2
aI2
aI3
aI3
aI3
aI3
aI3
aI3
aI2
aI2
aI3
aI3
aI2
aI2
aI3
aI2
aI2
aI3
aI2
aI2
aI2
aI2
aI2
aI2
aI2
aI2
aI3
aI3
aI2
aI2
aI2
aI2
aI2
aI2
aI2
aI2
aI2
aI3
aI3
aI3
aI3
aI3
aI3
aI2
aI2
aI2
aI2
aI1
aI1
aI3
aI2
aI2
aI2
aI3
aI3
aI2
aI2
aI2
aI2
aI2
aI2
aI2
aI2
aI2
aI2
aI2
aI2
aI3
aI3
aI3
aI3
aI3
aI3
aI3
aI3
aI2
aI2
aI2
aI3
aI3
aI3
aI2
aI2
aI3
aI2
aI3
aI3
aI2
aI3
aI2
aI2
aI2
aI2
aI2
aI2
aI2
aI2
aI2
aI2
aI2
aI2
aI3
aI3
aI3
aI3
aI2
aI2
aI3
aI2
aI3
aI2
aI3
aI3
aI2
aI2
aI2
aI2
aI2
aI2
aI2
aI2
aI2
aI2
aI2
aI2
aI2
aI3
aI2
aI2
aI2
aI2
aI2
aI2
aI3
aI2
aI3
aI2
aI2
aI3
aI3
aI3
aI3
aI3
aI3
aI3
aI2
aI2
aI2
aI2
aI2
aI3
aI3
aI2
aI2
aI2
aI2
aI2
aI2
aI2
aI2
aI2
aI2
aI2
aI2
aI2
aI2
aI2
aI2
aI2
aI2
aI2
aI2
aI2
aI2
aI3
aI2
aI2
aI2
aI3
aI3
aI3
aI2
aI2
aI2
aI2
aI2
aI2
aI3
aI3
aI3
aI2
aI2
aI2
aI2
aI2
aI2
aI2
aI2
aI2
aI2
aI2
aI3
aI3
aI3
aI3
aI2
aI2
aI2
aI2
aI2
aI3
aI3
aI2
aI2
aI2
aI2
aI3
aI3
aI3
aI2
aI2
aI2
aI3
aI2
aI2
aI2
aI2
aI2
aI2
aI2
aI2
aI3
aI2
aI2
aI3
aI3
aI3
aI3
aI3
aI3
aI3
aI2
aI2
aI2
aI2
aI2
aI3
aI3
aI2
aI2
aI2
aI2
aI2
aI2
aI2
aI2
aI2
aI2
aI3
aI3
aI3
aI3
aI2
aI2
aI3
aI3
aI3
aI2
aI2
aI2
aI2
aI2
aI3
aI3
aI3
aI2
aI3
aI2
aI3
aI3
aI3
aI2
aI2
aI2
aI2
aI2
aI2
aI3
aI3
aI3
aI2
aI2
aI3
aI2
aI2
aI2
aI3
aI2
aI2
aI3
aI3
aI3
aI3
aI3
aI2
aI2
aI2
aI3
aI3
aI3
aI2
aI2
aI2
aI2
aI2
aI2
aI2
aI3
aI3
aI3
aI3
aI2
aI2
aI2
aI3
aI3
aI2
aI2
aI3
aI3
aI3
aI3
aI2
aI2
aI2
aI3
aI2
aI3
aI3
aI2
aI2
aI3
aI2
aI2
aI3
aI2
aI3
aI3
aI3
aI2
aI2
aI2
aI2
aI2
aI3
aI3
aI3
aI3
aI2
aI2
aI2
aI2
aI2
aI2
aI3
aI3
aI3
aI3
aI3
aI3
aI2
aI2
aI2
aI2
aI3
aI3
aI3
aI2
aI2
aI2
aI2
aI2
aI2
aI2
aI2
aI3
aI2
aI2
aI2
aI2
aI2
aI2
aI2
aI2
aI2
aI2
aI2
aI2
aI2
aI2
aI2
aI2
aI2
aI2
aI2
aI3
aI2
aI2
aI3
aI3
aI2
aI2
aI2
aI2
aI3
aI3
aI2
aI2
aI2
aI2
aI2
aI2
aI2
aI2
aI2
aI2
aI2
aI3
aI2
aI2
aI2
aI2
aI2
aI2
aI2
aI3
aI3
aI2
aI2
aI3
aI3
aI2
aI3
aI3
aI3
aI3
aI3
aI2
aI3
aI3
aI3
aI3
aI2
aI2
aI3
aI2
aI3
aI3
aI3
aI2
aI2
aI2
aI2
aI2
aI3
aI2
aI2
aI2
aI2
aI2
aI3
aI3
aI3
aI3
aI3
aI2
aI2
aI2
aI2
aI3
aI2
aI2
aI2
aI2
aI2
aI3
aI2
aI2
aI2
aI2
aI2
aI2
aI2
aI2
aI2
aI2
aI3
aI2
aI2
aI2
aI3
aI2
aI2
aI2
aI2
aI2
aI2
aI3
aI2
aI2
aI2
aI2
aI2
aI2
aI2
aI2
aI2
aI2
aI2
aI2
aI2
aI3
aI3
aI2
aI3
aI3
aI2
aI2
aI2
aI2
aI2
aI2
aI2
aI2
aI2
aI2
aI2
aI2
aI2
aI2
aI2
aI3
aI2
aI3
aI3
aI2
aI2
aI2
aI2
aI2
aI3
aI3
aI3
aI2
aI2
aI3
aI2
aI2
aI2
aI2
aI2
aI2
aI3
aI3
aI2
aI2
aI2
aI2
aI2
aI2
aI2
aI2
aI3
aI3
aI3
aI3
aI3
aI3
aI3
aI3
aI3
aI3
aI3
aI2
aI2
aI2
aI2
aI2
aI2
aI2
aI2
aI2
aI2
aI2
aI2
aI2
aI2
aI2
aI2
aI2
aI2
aI3
aI2
aI2
aI2
aI2
aI2
aI2
aI2
aI2
aI2
aI2
aI2
aI2
aI2
aI2
aI2
aI2
aI2
aI2
aI2
aI3
aI3
aI2
aI2
aI2
aI2
aI2
aI2
aI2
aI2
aI2
aI2
aI2
aI2
aI2
aI2
aI3
aI2
aI2
aI3
aI3
aI2
aI2
aI2
aI2
aI3
aI3
aI2
aI2
aI2
aI2
aI2
aI2
aI2
aI2
aI2
aI2
aI2
aI2
aI2
aI2
aI2
aI2
aI2
aI2
aI2
aI3
aI2
aI2
asg10
S'Possible'
p467
sg12
S'Some'
p468
sg14
g263
sg16
I2
sg17
S'Low'
p469
sg19
S'Liten tilleggsbelastning'
p470
sg21
I801
sg22
S'200'
p471
sg24
S'800'
p472
sg26
S'Noen bratte heng'
p473
sg28
g29
(g33
S'/w\x13\x92\x13\x13\xde?'
p474
tp475
Rp476
sg39
g362
sg41
S'2 - Smaa'
p477
sba(i__main__
M3Element
p478
(dp479
g3
F2.0407407407407407
sg4
S'Lite sannsynlig, Mulig'
p480
sg6
g116
sg8
(lp481
I3
aI2
aI2
aI2
aI2
aI2
aI2
aI2
aI2
aI2
aI2
aI2
aI3
aI2
aI2
aI2
aI2
aI3
aI3
aI2
aI2
aI2
aI2
aI2
aI2
aI2
aI2
aI2
aI3
aI3
aI2
aI2
aI2
aI2
aI2
aI2
aI2
aI2
aI2
aI2
aI2
aI2
aI2
aI2
aI2
aI2
aI3
aI2
aI2
aI2
aI2
aI2
aI2
aI2
aI2
aI2
aI2
aI3
aI2
aI2
aI2
aI2
aI2
aI2
aI2
aI2
aI2
aI2
aI2
aI2
aI2
aI3
aI2
aI2
aI2
aI2
aI2
aI1
aI2
aI2
aI2
aI3
aI2
aI2
aI3
aI3
aI2
aI2
aI2
aI2
aI2
aI2
aI2
aI2
aI2
aI3
aI3
aI2
aI2
aI2
aI2
aI1
aI1
aI2
aI2
aI2
aI3
aI2
aI2
aI2
aI2
aI1
aI2
aI2
aI1
aI2
aI2
aI2
aI2
aI2
aI2
aI2
aI2
aI3
aI2
aI2
aI2
aI2
aI2
aI2
aI2
aI3
aI2
aI2
aI2
aI2
aI3
aI2
aI2
aI2
aI2
aI2
aI2
aI1
aI2
aI2
aI2
aI2
aI2
aI2
aI2
aI2
aI2
aI2
aI2
aI2
aI2
aI2
aI2
aI1
aI1
aI2
aI2
aI2
aI2
aI2
aI2
aI2
aI2
aI2
aI2
aI2
aI2
aI2
aI2
aI2
aI2
aI2
aI2
aI2
aI2
aI2
aI2
aI2
aI2
aI2
aI2
aI2
aI2
aI2
aI2
aI2
aI2
aI2
aI2
aI2
aI1
aI2
aI2
aI2
aI2
aI2
aI2
aI2
aI2
aI2
aI2
aI2
aI2
aI2
aI2
aI3
aI3
aI3
aI2
aI2
aI2
aI2
aI2
aI2
aI2
aI2
aI2
aI2
aI2
aI2
aI2
aI2
aI2
aI2
aI2
aI1
aI1
aI1
aI2
aI2
aI2
aI2
aI2
aI2
aI2
aI2
aI3
aI2
aI2
aI2
aI2
aI2
aI3
aI3
aI2
aI2
aI2
aI1
aI2
aI2
aI3
aI2
aI2
aI2
aI2
aI2
aI2
aI2
aI2
aI1
aI2
aI2
aI2
aI2
asg10
S'Possible'
p482
sg12
S'Some'
p483
sg14
g263
sg16
I2
sg17
S'Nat'
p484
sg19
S'Naturlig utloest'
p485
sg21
I270
sg22
S'200'
p486
sg24
S'900'
p487
sg26
S'Noen bratte heng'
p488
sg28
g29
(g33
S'r4\x96\x8b\xff.\xd8?'
p489
tp490
Rp491
sg39
g362
sg41
S'2 - Smaa'
p492
sba(i__main__
M3Element
p493
(dp494
g3
F2.0
sg4
S'Sannsynlig, Meget sannsynlig'
p495
sg6
g116
sg8
(lp496
I2
aI2
asg10
S'Likely'
p497
sg12
S'Some'
p498
sg14
g80
sg16
I0
sg17
S'High'
p499
sg19
S'Stor tilleggsbelastning'
p500
sg21
I2
sg22
S'200'
p501
sg24
S'1000'
p502
sg26
S'Noen bratte heng'
p503
sg28
g29
(g33
S'\x00\x00\x00\x00\x00\x00\x00\x00'
p504
tp505
Rp506
sg39
g362
sg41
S'2 - Smaa'
p507
sba(i__main__
M3Element
p508
(dp509
g3
F2.9166666666666665
sg4
S'Sannsynlig, Meget sannsynlig'
p510
sg6
S'#ff9900'
p511
sg8
(lp512
I3
aI3
aI3
aI3
aI3
aI3
aI3
aI3
aI3
aI3
aI3
aI3
aI3
aI3
aI3
aI3
aI3
aI3
aI3
aI3
aI3
aI3
aI3
aI3
aI3
aI3
aI3
aI3
aI3
aI2
aI2
aI3
aI3
aI3
aI2
aI3
asg10
S'Likely'
p513
sg12
S'Some'
p514
sg14
g80
sg16
I0
sg17
S'Low'
p515
sg19
S'Liten tilleggsbelastning'
p516
sg21
I36
sg22
S'200'
p517
sg24
S'1100'
p518
sg26
S'Noen bratte heng'
p519
sg28
g29
(g33
S'\xce\xf4\xa8bL\xb0\xd1?'
p520
tp521
Rp522
sg39
g362
sg41
S'2 - Smaa'
p523
sba(i__main__
M3Element
p524
(dp525
g3
F2.0
sg4
S'Sannsynlig, Meget sannsynlig'
p526
sg6
g116
sg8
(lp527
I2
aI2
aI2
aI2
aI2
aI2
aI2
aI2
aI2
aI2
aI2
asg10
S'Likely'
p528
sg12
S'Some'
p529
sg14
S'#ff9900'
p530
sg16
I3
sg17
S'Nat'
p531
sg19
S'Naturlig utloest'
p532
sg21
I11
sg22
S'200'
p533
sg24
S'1200'
p534
sg26
S'Noen bratte heng'
p535
sg28
g29
(g33
S'\x00\x00\x00\x00\x00\x00\x00\x00'
p536
tp537
Rp538
sg39
g362
sg41
S'2 - Smaa'
p539
sba(i__main__
M3Element
p540
(dp541
g3
F2.0
sg4
S'Lite sannsynlig, Mulig'
p542
sg6
g116
sg8
(lp543
I2
aI2
aI2
aI2
aI2
aI2
aI2
aI2
aI2
aI2
aI2
aI2
aI2
aI2
asg10
S'Possible'
p544
sg12
S'Many'
p545
sg14
g80
sg16
I0
sg17
S'High'
p546
sg19
S'Stor tilleggsbelastning'
p547
sg21
I14
sg22
S'200'
p548
sg24
S'1300'
p549
sg26
S'Mange bratte heng'
p550
sg28
g29
(g33
S'\x00\x00\x00\x00\x00\x00\x00\x00'
p551
tp552
Rp553
sg39
g362
sg41
S'2 - Smaa'
p554
sba(i__main__
M3Element
p555
(dp556
g3
F2.917525773195876
sg4
S'Lite sannsynlig, Mulig'
p557
sg6
g511
sg8
(lp558
I3
aI3
aI3
aI3
aI3
aI3
aI3
aI3
aI2
aI2
aI3
aI3
aI3
aI3
aI3
aI3
aI3
aI3
aI3
aI3
aI3
aI3
aI3
aI3
aI3
aI3
aI3
aI3
aI3
aI3
aI3
aI3
aI3
aI3
aI3
aI3
aI3
aI3
aI3
aI3
aI2
aI3
aI3
aI3
aI3
aI3
aI2
aI3
aI3
aI2
aI2
aI3
aI3
aI3
aI3
aI3
aI3
aI3
aI3
aI3
aI3
aI3
aI3
aI3
aI3
aI3
aI3
aI3
aI2
aI3
aI3
aI3
aI3
aI3
aI3
aI3
aI3
aI3
aI3
aI3
aI3
aI3
aI3
aI3
aI3
aI3
aI3
aI3
aI3
aI3
aI3
aI3
aI3
aI3
aI3
aI3
aI2
asg10
S'Possible'
p559
sg12
S'Many'
p560
sg14
g530
sg16
I3
sg17
S'Low'
p561
sg19
S'Liten tilleggsbelastning'
p562
sg21
I97
sg22
S'200'
p563
sg24
S'1400'
p564
sg26
S'Mange bratte heng'
p565
sg28
g29
(g33
S'K\xf0\xd7\xb5\x01\x9b\xd1?'
p566
tp567
Rp568
sg39
g362
sg41
S'2 - Smaa'
p569
sba(i__main__
M3Element
p570
(dp571
g3
F2.4444444444444446
sg4
S'Lite sannsynlig, Mulig'
p572
sg6
g116
sg8
(lp573
I3
aI3
aI3
aI3
aI3
aI3
aI3
aI3
aI2
aI2
aI2
aI2
aI2
aI2
aI2
aI2
aI2
aI2
aI2
aI2
aI3
aI2
aI3
aI3
aI2
aI3
aI2
asg10
S'Possible'
p574
sg12
S'Many'
p575
sg14
g80
sg16
I0
sg17
S'Nat'
p576
sg19
S'Naturlig utloest'
p577
sg21
I27
sg22
S'200'
p578
sg24
S'1500'
p579
sg26
S'Mange bratte heng'
p580
sg28
g29
(g33
S'\xef\xb2\xf1iF\xcd\xdf?'
p581
tp582
Rp583
sg39
g362
sg41
S'2 - Smaa'
p584
sba(i__main__
M3Element
p585
(dp586
g3
Nsg4
S'Sannsynlig, Meget sannsynlig'
p587
sg6
S'gray'
p588
sg8
(lp589
sg10
S'Likely'
p590
sg12
S'Many'
p591
sg14
g80
sg16
I0
sg17
S'High'
p592
sg19
S'Stor tilleggsbelastning'
p593
sg21
Nsg22
S'200'
p594
sg24
S'1600'
p595
sg26
S'Mange bratte heng'
p596
sg28
Nsg39
g362
sg41
S'2 - Smaa'
p597
sba(i__main__
M3Element
p598
(dp599
g3
Nsg4
S'Sannsynlig, Meget sannsynlig'
p600
sg6
S'white'
p601
sg8
(lp602
sg10
S'Likely'
p603
sg12
S'Many'
p604
sg14
S'#ff0000'
p605
sg16
I4
sg17
S'Low'
p606
sg19
S'Liten tilleggsbelastning'
p607
sg21
Nsg22
S'200'
p608
sg24
S'1700'
p609
sg26
S'Mange bratte heng'
p610
sg28
Nsg39
g362
sg41
S'2 - Smaa'
p611
sba(i__main__
M3Element
p612
(dp613
g3
F2.5
sg4
S'Sannsynlig, Meget sannsynlig'
p614
sg6
g511
sg8
(lp615
I2
aI2
aI3
aI2
aI3
aI3
aI4
aI2
aI2
aI2
asg10
S'Likely'
p616
sg12
S'Many'
p617
sg14
g605
sg16
I4
sg17
S'Nat'
p618
sg19
S'Naturlig utloest'
p619
sg21
I10
sg22
S'200'
p620
sg24
S'1800'
p621
sg26
S'Mange bratte heng'
p622
sg28
g29
(g33
S'c\xf2OT\\w\xe5?'
p623
tp624
Rp625
sg39
g362
sg41
S'2 - Smaa'
p626
sba(i__main__
M3Element
p627
(dp628
g3
Nsg4
S'Lite sannsynlig, Mulig'
p629
sg6
S'gray'
p630
sg8
(lp631
sg10
S'Possible'
p632
sg12
S'Most'
p633
sg14
g80
sg16
I0
sg17
S'High'
p634
sg19
S'Stor tilleggsbelastning'
p635
sg21
Nsg22
S'200'
p636
sg24
S'1900'
p637
sg26
S'De fleste bratte heng, Ogsaa i mindre bratt terreng'
p638
sg28
Nsg39
g362
sg41
S'2 - Smaa'
p639
sba(i__main__
M3Element
p640
(dp641
g3
Nsg4
S'Lite sannsynlig, Mulig'
p642
sg6
S'gray'
p643
sg8
(lp644
sg10
S'Possible'
p645
sg12
S'Most'
p646
sg14
g80
sg16
I0
sg17
S'Low'
p647
sg19
S'Liten tilleggsbelastning'
p648
sg21
Nsg22
S'200'
p649
sg24
S'2000'
p650
sg26
S'De fleste bratte heng, Ogsaa i mindre bratt terreng'
p651
sg28
Nsg39
g362
sg41
S'2 - Smaa'
p652
sba(i__main__
M3Element
p653
(dp654
g3
Nsg4
S'Lite sannsynlig, Mulig'
p655
sg6
S'gray'
p656
sg8
(lp657
sg10
S'Possible'
p658
sg12
S'Most'
p659
sg14
g80
sg16
I0
sg17
S'Nat'
p660
sg19
S'Naturlig utloest'
p661
sg21
Nsg22
S'200'
p662
sg24
S'2100'
p663
sg26
S'De fleste bratte heng, Ogsaa i mindre bratt terreng'
p664
sg28
Nsg39
g362
sg41
S'2 - Smaa'
p665
sba(i__main__
M3Element
p666
(dp667
g3
Nsg4
S'Sannsynlig, Meget sannsynlig'
p668
sg6
S'gray'
p669
sg8
(lp670
sg10
S'Likely'
p671
sg12
S'Most'
p672
sg14
g80
sg16
I0
sg17
S'High'
p673
sg19
S'Stor tilleggsbelastning'
p674
sg21
Nsg22
S'200'
p675
sg24
S'2200'
p676
sg26
S'De fleste bratte heng, Ogsaa i mindre bratt terreng'
p677
sg28
Nsg39
g362
sg41
S'2 - Smaa'
p678
sba(i__main__
M3Element
p679
(dp680
g3
Nsg4
S'Sannsynlig, Meget sannsynlig'
p681
sg6
S'gray'
p682
sg8
(lp683
sg10
S'Likely'
p684
sg12
S'Most'
p685
sg14
g80
sg16
I0
sg17
S'Low'
p686
sg19
S'Liten tilleggsbelastning'
p687
sg21
Nsg22
S'200'
p688
sg24
S'2300'
p689
sg26
S'De fleste bratte heng, Ogsaa i mindre bratt terreng'
p690
sg28
Nsg39
g362
sg41
S'2 - Smaa'
p691
sba(i__main__
M3Element
p692
(dp693
g3
Nsg4
S'Sannsynlig, Meget sannsynlig'
p694
sg6
S'white'
p695
sg8
(lp696
sg10
S'Likely'
p697
sg12
S'Most'
p698
sg14
g80
sg16
I0
sg17
S'Nat'
p699
sg19
S'Naturlig utloest'
p700
sg21
Nsg22
S'200'
p701
sg24
S'2400'
p702
sg26
S'De fleste bratte heng, Ogsaa i mindre bratt terreng'
p703
sg28
Nsg39
g362
sg41
S'2 - Smaa'
p704
sba(i__main__
M3Element
p705
(dp706
g3
F2.1176470588235294
sg4
S'Lite sannsynlig, Mulig'
p707
sg6
g116
sg8
(lp708
I2
aI2
aI2
aI2
aI2
aI3
aI2
aI2
aI2
aI2
aI2
aI2
aI2
aI3
aI2
aI2
aI2
aI2
aI2
aI2
aI2
aI2
aI2
aI2
aI2
aI2
aI2
aI2
aI2
aI2
aI2
aI2
aI3
aI3
asg10
S'Possible'
p709
sg12
S'Isolated'
p710
sg14
g15
sg16
I1
sg17
S'High'
p711
sg19
S'Stor tilleggsbelastning'
p712
sg21
I34
sg22
S'300'
p713
sg24
S'100'
p714
sg26
S'Isolerte faresoner'
p715
sg28
g29
(g33
S';\x05\xca\xb6\xc1\x9e\xd4?'
p716
tp717
Rp718
sg39
S'3'
p719
sg41
S'3 - Middels'
p720
sba(i__main__
M3Element
p721
(dp722
g3
F2.769230769230769
sg4
S'Lite sannsynlig, Mulig'
p723
sg6
g511
sg8
(lp724
I2
aI2
aI3
aI3
aI3
aI3
aI3
aI3
aI3
aI3
aI3
aI3
aI2
asg10
S'Possible'
p725
sg12
S'Isolated'
p726
sg14
g263
sg16
I2
sg17
S'Low'
p727
sg19
S'Liten tilleggsbelastning'
p728
sg21
I13
sg22
S'300'
p729
sg24
S'200'
p730
sg26
S'Isolerte faresoner'
p731
sg28
g29
(g33
S'\x9dU~Q\xfd\xf6\xda?'
p732
tp733
Rp734
sg39
g719
sg41
S'3 - Middels'
p735
sba(i__main__
M3Element
p736
(dp737
g3
F2.119047619047619
sg4
S'Lite sannsynlig, Mulig'
p738
sg6
g116
sg8
(lp739
I2
aI2
aI2
aI2
aI3
aI3
aI2
aI2
aI2
aI2
aI2
aI2
aI2
aI2
aI3
aI2
aI2
aI2
aI2
aI2
aI2
aI2
aI2
aI2
aI3
aI3
aI2
aI2
aI2
aI2
aI2
aI2
aI2
aI2
aI2
aI2
aI2
aI2
aI2
aI2
aI2
aI2
asg10
S'Possible'
p740
sg12
S'Isolated'
p741
sg14
g263
sg16
I2
sg17
S'Nat'
p742
sg19
S'Naturlig utloest'
p743
sg21
I42
sg22
S'300'
p744
sg24
S'300'
p745
sg26
S'Isolerte faresoner'
p746
sg28
g29
(g33
S'\xb9\x90\xb1n\xde\xb9\xd4?'
p747
tp748
Rp749
sg39
g719
sg41
S'3 - Middels'
p750
sba(i__main__
M3Element
p751
(dp752
g3
Nsg4
S'Sannsynlig, Meget sannsynlig'
p753
sg6
S'gray'
p754
sg8
(lp755
sg10
S'Likely'
p756
sg12
S'Isolated'
p757
sg14
g80
sg16
I0
sg17
S'High'
p758
sg19
S'Stor tilleggsbelastning'
p759
sg21
Nsg22
S'300'
p760
sg24
S'400'
p761
sg26
S'Isolerte faresoner'
p762
sg28
Nsg39
g719
sg41
S'3 - Middels'
p763
sba(i__main__
M3Element
p764
(dp765
g3
Nsg4
S'Sannsynlig, Meget sannsynlig'
p766
sg6
S'gray'
p767
sg8
(lp768
sg10
S'Likely'
p769
sg12
S'Isolated'
p770
sg14
g80
sg16
I0
sg17
S'Low'
p771
sg19
S'Liten tilleggsbelastning'
p772
sg21
Nsg22
S'300'
p773
sg24
S'500'
p774
sg26
S'Isolerte faresoner'
p775
sg28
Nsg39
g719
sg41
S'3 - Middels'
p776
sba(i__main__
M3Element
p777
(dp778
g3
Nsg4
S'Sannsynlig, Meget sannsynlig'
p779
sg6
S'gray'
p780
sg8
(lp781
sg10
S'Likely'
p782
sg12
S'Isolated'
p783
sg14
g80
sg16
I0
sg17
S'Nat'
p784
sg19
S'Naturlig utloest'
p785
sg21
Nsg22
S'300'
p786
sg24
S'600'
p787
sg26
S'Isolerte faresoner'
p788
sg28
Nsg39
g719
sg41
S'3 - Middels'
p789
sba(i__main__
M3Element
p790
(dp791
g3
F2.189189189189189
sg4
S'Lite sannsynlig, Mulig'
p792
sg6
g116
sg8
(lp793
I3
aI2
aI2
aI2
aI2
aI2
aI2
aI2
aI2
aI2
aI2
aI2
aI2
aI2
aI2
aI2
aI2
aI2
aI2
aI2
aI2
aI2
aI2
aI2
aI2
aI2
aI2
aI2
aI2
aI2
aI2
aI3
aI2
aI2
aI2
aI2
aI2
aI2
aI3
aI2
aI2
aI3
aI3
aI2
aI2
aI2
aI2
aI2
aI2
aI2
aI2
aI2
aI2
aI2
aI2
aI2
aI2
aI2
aI2
aI2
aI2
aI2
aI2
aI2
aI2
aI3
aI3
aI2
aI3
aI2
aI3
aI2
aI3
aI3
aI3
aI3
aI3
aI2
aI3
aI2
aI2
aI2
aI2
aI3
aI2
aI3
aI2
aI2
aI2
aI2
aI2
aI2
aI2
aI2
aI2
aI2
aI3
aI2
aI2
aI2
aI2
aI2
aI2
aI3
aI3
aI2
aI2
aI2
aI2
aI3
aI3
aI3
aI2
aI3
aI2
aI2
aI2
aI2
aI2
aI2
aI2
aI2
aI2
aI2
aI2
aI2
aI2
aI2
aI2
aI3
aI2
aI2
aI2
aI2
aI2
aI2
aI2
aI2
aI2
aI2
aI2
aI3
aI2
aI3
aI3
aI2
aI2
aI2
asg10
S'Possible'
p794
sg12
S'Some'
p795
sg14
g263
sg16
I2
sg17
S'High'
p796
sg19
S'Stor tilleggsbelastning'
p797
sg21
I148
sg22
S'300'
p798
sg24
S'700'
p799
sg26
S'Noen bratte heng'
p800
sg28
g29
(g33
S']d\x8f3\xf0\x10\xd9?'
p801
tp802
Rp803
sg39
g719
sg41
S'3 - Middels'
p804
sba(i__main__
M3Element
p805
(dp806
g3
F3.0
sg4
S'Lite sannsynlig, Mulig'
p807
sg6
g511
sg8
(lp808
I3
aI3
aI3
aI3
aI3
aI3
aI3
aI3
aI3
aI3
aI3
aI3
aI3
aI3
aI3
aI3
aI3
aI3
aI3
aI3
aI3
aI3
aI3
aI3
aI3
aI3
aI3
aI3
aI3
aI3
aI3
aI3
aI3
aI3
aI3
aI3
aI3
aI3
aI3
aI3
aI3
aI3
aI3
aI3
aI3
aI3
aI3
aI3
aI3
aI3
aI3
aI3
aI3
aI3
aI3
aI3
aI3
aI3
aI3
aI3
aI3
aI3
aI3
aI3
aI3
aI3
aI3
aI3
aI3
aI3
aI3
aI3
aI3
aI3
aI3
aI3
aI3
aI3
aI3
aI3
aI3
aI3
aI3
aI3
aI3
aI3
aI3
aI3
aI3
aI3
aI3
aI3
aI3
aI3
aI3
aI3
aI3
aI3
aI3
aI3
aI3
aI3
aI3
aI3
aI3
aI3
aI3
aI3
aI3
aI3
aI3
aI3
aI3
aI3
aI3
aI3
aI3
aI3
aI3
aI3
aI3
aI3
aI3
aI3
aI3
aI3
aI3
aI3
aI3
aI3
aI3
aI3
aI3
aI3
aI3
aI3
aI3
aI3
aI3
aI3
aI3
aI3
aI3
aI3
aI3
aI3
aI3
aI3
aI3
aI3
aI3
aI3
aI3
aI3
aI3
aI3
aI3
aI3
aI3
aI3
aI3
aI3
aI3
aI3
aI3
aI3
aI3
aI3
aI3
aI3
aI3
aI3
aI3
aI3
aI3
aI3
aI3
aI3
aI3
aI3
aI3
aI3
aI3
aI3
aI3
aI3
aI3
aI3
aI3
aI3
aI3
aI3
aI3
aI3
aI3
aI3
aI3
aI3
aI3
aI3
aI3
aI3
aI3
aI3
aI3
aI3
aI3
aI3
aI3
aI3
aI3
aI3
aI3
aI3
aI3
aI3
aI3
aI3
aI3
aI3
asg10
S'Possible'
p809
sg12
S'Some'
p810
sg14
g530
sg16
I3
sg17
S'Low'
p811
sg19
S'Liten tilleggsbelastning'
p812
sg21
I220
sg22
S'300'
p813
sg24
S'800'
p814
sg26
S'Noen bratte heng'
p815
sg28
g29
(g33
S'\x00\x00\x00\x00\x00\x00\x00\x00'
p816
tp817
Rp818
sg39
g719
sg41
S'3 - Middels'
p819
sba(i__main__
M3Element
p820
(dp821
g3
F2.9743589743589745
sg4
S'Lite sannsynlig, Mulig'
p822
sg6
g511
sg8
(lp823
I3
aI3
aI3
aI3
aI3
aI3
aI3
aI3
aI3
aI3
aI3
aI3
aI3
aI3
aI3
aI3
aI3
aI3
aI3
aI3
aI3
aI3
aI3
aI3
aI3
aI3
aI3
aI3
aI3
aI3
aI3
aI3
aI3
aI3
aI3
aI3
aI3
aI3
aI4
aI3
aI3
aI3
aI3
aI3
aI3
aI3
aI2
aI3
aI3
aI3
aI3
aI3
aI3
aI2
aI3
aI3
aI3
aI3
aI3
aI3
aI3
aI3
aI3
aI3
aI3
aI3
aI3
aI3
aI3
aI3
aI2
aI3
aI4
aI3
aI3
aI3
aI3
aI3
aI3
aI3
aI3
aI3
aI3
aI3
aI3
aI3
aI3
aI3
aI3
aI3
aI3
aI3
aI3
aI3
aI3
aI3
aI3
aI3
aI3
aI3
aI3
aI3
aI3
aI3
aI3
aI2
aI3
aI3
aI3
aI3
aI3
aI3
aI3
aI3
aI3
aI3
aI3
aI3
aI3
aI3
aI3
aI3
aI3
aI3
aI3
aI3
aI3
aI3
aI3
aI3
aI3
aI3
aI3
aI3
aI3
aI3
aI3
aI3
aI3
aI3
aI3
aI3
aI3
aI3
aI3
aI3
aI3
aI3
aI2
aI3
aI3
aI3
aI3
aI3
aI3
aI2
asg10
S'Possible'
p824
sg12
S'Some'
p825
sg14
g530
sg16
I3
sg17
S'Nat'
p826
sg19
S'Naturlig utloest'
p827
sg21
I156
sg22
S'300'
p828
sg24
S'900'
p829
sg26
S'Noen bratte heng'
p830
sg28
g29
(g33
S'\x07\xb1\xd6#\xc5\xcc\xcc?'
p831
tp832
Rp833
sg39
g719
sg41
S'3 - Middels'
p834
sba(i__main__
M3Element
p835
(dp836
g3
Nsg4
S'Sannsynlig, Meget sannsynlig'
p837
sg6
S'gray'
p838
sg8
(lp839
sg10
S'Likely'
p840
sg12
S'Some'
p841
sg14
g80
sg16
I0
sg17
S'High'
p842
sg19
S'Stor tilleggsbelastning'
p843
sg21
Nsg22
S'300'
p844
sg24
S'1000'
p845
sg26
S'Noen bratte heng'
p846
sg28
Nsg39
g719
sg41
S'3 - Middels'
p847
sba(i__main__
M3Element
p848
(dp849
g3
F3.0
sg4
S'Sannsynlig, Meget sannsynlig'
p850
sg6
g511
sg8
(lp851
I3
aI3
aI3
aI3
aI3
aI3
aI3
aI3
aI3
aI3
aI3
asg10
S'Likely'
p852
sg12
S'Some'
p853
sg14
g80
sg16
I0
sg17
S'Low'
p854
sg19
S'Liten tilleggsbelastning'
p855
sg21
I11
sg22
S'300'
p856
sg24
S'1100'
p857
sg26
S'Noen bratte heng'
p858
sg28
g29
(g33
S'\x00\x00\x00\x00\x00\x00\x00\x00'
p859
tp860
Rp861
sg39
g719
sg41
S'3 - Middels'
p862
sba(i__main__
M3Element
p863
(dp864
g3
F3.5238095238095237
sg4
S'Sannsynlig, Meget sannsynlig'
p865
sg6
S'#ff0000'
p866
sg8
(lp867
I3
aI3
aI3
aI4
aI4
aI4
aI3
aI3
aI3
aI4
aI3
aI3
aI3
aI4
aI4
aI4
aI4
aI4
aI3
aI4
aI4
asg10
S'Likely'
p868
sg12
S'Some'
p869
sg14
g605
sg16
I4
sg17
S'Nat'
p870
sg19
S'Naturlig utloest'
p871
sg21
I21
sg22
S'300'
p872
sg24
S'1200'
p873
sg26
S'Noen bratte heng'
p874
sg28
g29
(g33
S'd\xd6\\\xed\xb4\xf6\xdf?'
p875
tp876
Rp877
sg39
g719
sg41
S'3 - Middels'
p878
sba(i__main__
M3Element
p879
(dp880
g3
F2.0588235294117645
sg4
S'Lite sannsynlig, Mulig'
p881
sg6
g116
sg8
(lp882
I2
aI2
aI2
aI2
aI2
aI2
aI2
aI2
aI2
aI2
aI2
aI2
aI2
aI2
aI2
aI2
aI3
asg10
S'Possible'
p883
sg12
S'Many'
p884
sg14
g80
sg16
I0
sg17
S'High'
p885
sg19
S'Stor tilleggsbelastning'
p886
sg21
I17
sg22
S'300'
p887
sg24
S'1300'
p888
sg26
S'Mange bratte heng'
p889
sg28
g29
(g33
S'\x1e\x1e\x1e\x1e\x1e\x1e\xce?'
p890
tp891
Rp892
sg39
g719
sg41
S'3 - Middels'
p893
sba(i__main__
M3Element
p894
(dp895
g3
F3.0
sg4
S'Lite sannsynlig, Mulig'
p896
sg6
g511
sg8
(lp897
I3
aI3
aI3
aI3
aI3
aI3
aI3
aI3
aI3
aI3
aI3
aI3
aI3
aI3
aI3
aI3
aI3
aI3
aI3
aI3
aI3
aI3
aI3
aI3
aI3
aI3
aI3
aI3
aI3
aI3
aI3
aI3
aI3
aI3
aI3
aI3
aI3
aI3
aI3
aI3
aI3
aI3
aI3
aI3
aI3
aI3
aI3
aI3
aI3
aI3
aI3
aI3
aI3
aI3
aI3
aI3
aI3
aI3
aI3
aI3
aI3
aI3
aI3
aI3
aI3
aI3
aI3
aI3
aI3
aI3
aI3
aI3
aI3
aI3
aI3
aI3
aI3
aI3
aI3
aI3
aI3
aI3
aI3
aI3
aI3
aI3
aI3
aI3
aI3
aI3
aI3
aI3
aI3
aI3
aI3
aI3
aI3
aI3
aI3
aI3
aI3
aI3
aI3
aI3
aI3
aI3
aI3
asg10
S'Possible'
p898
sg12
S'Many'
p899
sg14
g605
sg16
I4
sg17
S'Low'
p900
sg19
S'Liten tilleggsbelastning'
p901
sg21
I107
sg22
S'300'
p902
sg24
S'1400'
p903
sg26
S'Mange bratte heng'
p904
sg28
g29
(g33
S'\x00\x00\x00\x00\x00\x00\x00\x00'
p905
tp906
Rp907
sg39
g719
sg41
S'3 - Middels'
p908
sba(i__main__
M3Element
p909
(dp910
g3
F3.2162162162162162
sg4
S'Lite sannsynlig, Mulig'
p911
sg6
g511
sg8
(lp912
I3
aI3
aI3
aI3
aI4
aI4
aI3
aI4
aI4
aI3
aI3
aI3
aI4
aI3
aI3
aI3
aI3
aI3
aI3
aI3
aI3
aI3
aI3
aI3
aI3
aI4
aI4
aI3
aI3
aI4
aI3
aI3
aI3
aI3
aI3
aI3
aI3
asg10
S'Possible'
p913
sg12
S'Many'
p914
sg14
g80
sg16
I0
sg17
S'Nat'
p915
sg19
S'Naturlig utloest'
p916
sg21
I37
sg22
S'300'
p917
sg24
S'1500'
p918
sg26
S'Mange bratte heng'
p919
sg28
g29
(g33
S'2;\xf0}\xb1X\xda?'
p920
tp921
Rp922
sg39
g719
sg41
S'3 - Middels'
p923
sba(i__main__
M3Element
p924
(dp925
g3
Nsg4
S'Sannsynlig, Meget sannsynlig'
p926
sg6
S'gray'
p927
sg8
(lp928
sg10
S'Likely'
p929
sg12
S'Many'
p930
sg14
g80
sg16
I0
sg17
S'High'
p931
sg19
S'Stor tilleggsbelastning'
p932
sg21
Nsg22
S'300'
p933
sg24
S'1600'
p934
sg26
S'Mange bratte heng'
p935
sg28
Nsg39
g719
sg41
S'3 - Middels'
p936
sba(i__main__
M3Element
p937
(dp938
g3
F3.375
sg4
S'Sannsynlig, Meget sannsynlig'
p939
sg6
g511
sg8
(lp940
I3
aI4
aI3
aI3
aI3
aI3
aI3
aI4
aI3
aI3
aI4
aI4
aI4
aI4
aI3
aI3
asg10
S'Likely'
p941
sg12
S'Many'
p942
sg14
g605
sg16
I4
sg17
S'Low'
p943
sg19
S'Liten tilleggsbelastning'
p944
sg21
I16
sg22
S'300'
p945
sg24
S'1700'
p946
sg26
S'Mange bratte heng'
p947
sg28
g29
(g33
S'\xdaNO\xb1\xde\xfb\xde?'
p948
tp949
Rp950
sg39
g719
sg41
S'3 - Middels'
p951
sba(i__main__
M3Element
p952
(dp953
g3
F4.0
sg4
S'Sannsynlig, Meget sannsynlig'
p954
sg6
g866
sg8
(lp955
I4
aI4
aI4
aI4
aI4
aI4
aI4
aI4
aI4
aI4
aI4
aI4
aI4
aI4
aI4
aI4
aI4
aI4
aI4
aI4
aI4
aI4
aI4
aI4
aI4
aI4
aI4
aI4
aI4
aI4
aI4
aI4
aI4
aI4
aI4
aI4
aI4
aI4
aI4
asg10
S'Likely'
p956
sg12
S'Many'
p957
sg14
g605
sg16
I4
sg17
S'Nat'
p958
sg19
S'Naturlig utloest'
p959
sg21
I39
sg22
S'300'
p960
sg24
S'1800'
p961
sg26
S'Mange bratte heng'
p962
sg28
g29
(g33
S'\x00\x00\x00\x00\x00\x00\x00\x00'
p963
tp964
Rp965
sg39
g719
sg41
S'3 - Middels'
p966
sba(i__main__
M3Element
p967
(dp968
g3
Nsg4
S'Lite sannsynlig, Mulig'
p969
sg6
S'gray'
p970
sg8
(lp971
sg10
S'Possible'
p972
sg12
S'Most'
p973
sg14
g80
sg16
I0
sg17
S'High'
p974
sg19
S'Stor tilleggsbelastning'
p975
sg21
Nsg22
S'300'
p976
sg24
S'1900'
p977
sg26
S'De fleste bratte heng, Ogsaa i mindre bratt terreng'
p978
sg28
Nsg39
g719
sg41
S'3 - Middels'
p979
sba(i__main__
M3Element
p980
(dp981
g3
Nsg4
S'Lite sannsynlig, Mulig'
p982
sg6
S'gray'
p983
sg8
(lp984
sg10
S'Possible'
p985
sg12
S'Most'
p986
sg14
g80
sg16
I0
sg17
S'Low'
p987
sg19
S'Liten tilleggsbelastning'
p988
sg21
Nsg22
S'300'
p989
sg24
S'2000'
p990
sg26
S'De fleste bratte heng, Ogsaa i mindre bratt terreng'
p991
sg28
Nsg39
g719
sg41
S'3 - Middels'
p992
sba(i__main__
M3Element
p993
(dp994
g3
Nsg4
S'Lite sannsynlig, Mulig'
p995
sg6
S'gray'
p996
sg8
(lp997
sg10
S'Possible'
p998
sg12
S'Most'
p999
sg14
g80
sg16
I0
sg17
S'Nat'
p1000
sg19
S'Naturlig utloest'
p1001
sg21
Nsg22
S'300'
p1002
sg24
S'2100'
p1003
sg26
S'De fleste bratte heng, Ogsaa i mindre bratt terreng'
p1004
sg28
Nsg39
g719
sg41
S'3 - Middels'
p1005
sba(i__main__
M3Element
p1006
(dp1007
g3
Nsg4
S'Sannsynlig, Meget sannsynlig'
p1008
sg6
S'gray'
p1009
sg8
(lp1010
sg10
S'Likely'
p1011
sg12
S'Most'
p1012
sg14
g80
sg16
I0
sg17
S'High'
p1013
sg19
S'Stor tilleggsbelastning'
p1014
sg21
Nsg22
S'300'
p1015
sg24
S'2200'
p1016
sg26
S'De fleste bratte heng, Ogsaa i mindre bratt terreng'
p1017
sg28
Nsg39
g719
sg41
S'3 - Middels'
p1018
sba(i__main__
M3Element
p1019
(dp1020
g3
Nsg4
S'Sannsynlig, Meget sannsynlig'
p1021
sg6
S'gray'
p1022
sg8
(lp1023
sg10
S'Likely'
p1024
sg12
S'Most'
p1025
sg14
g80
sg16
I0
sg17
S'Low'
p1026
sg19
S'Liten tilleggsbelastning'
p1027
sg21
Nsg22
S'300'
p1028
sg24
S'2300'
p1029
sg26
S'De fleste bratte heng, Ogsaa i mindre bratt terreng'
p1030
sg28
Nsg39
g719
sg41
S'3 - Middels'
p1031
sba(i__main__
M3Element
p1032
(dp1033
g3
Nsg4
S'Sannsynlig, Meget sannsynlig'
p1034
sg6
S'white'
p1035
sg8
(lp1036
sg10
S'Likely'
p1037
sg12
S'Most'
p1038
sg14
g80
sg16
I0
sg17
S'Nat'
p1039
sg19
S'Naturlig utloest'
p1040
sg21
Nsg22
S'300'
p1041
sg24
S'2400'
p1042
sg26
S'De fleste bratte heng, Ogsaa i mindre bratt terreng'
p1043
sg28
Nsg39
g719
sg41
S'3 - Middels'
p1044
sba(i__main__
M3Element
p1045
(dp1046
g3
Nsg4
S'Lite sannsynlig, Mulig'
p1047
sg6
S'white'
p1048
sg8
(lp1049
sg10
S'Possible'
p1050
sg12
S'Isolated'
p1051
sg14
g263
sg16
I2
sg17
S'High'
p1052
sg19
S'Stor tilleggsbelastning'
p1053
sg21
Nsg22
S'400'
p1054
sg24
S'100'
p1055
sg26
S'Isolerte faresoner'
p1056
sg28
Nsg39
S'4'
p1057
sg41
S'4 - Store'
p1058
sba(i__main__
M3Element
p1059
(dp1060
g3
Nsg4
S'Lite sannsynlig, Mulig'
p1061
sg6
S'white'
p1062
sg8
(lp1063
sg10
S'Possible'
p1064
sg12
S'Isolated'
p1065
sg14
g530
sg16
I3
sg17
S'Low'
p1066
sg19
S'Liten tilleggsbelastning'
p1067
sg21
Nsg22
S'400'
p1068
sg24
S'200'
p1069
sg26
S'Isolerte faresoner'
p1070
sg28
Nsg39
g1057
sg41
S'4 - Store'
p1071
sba(i__main__
M3Element
p1072
(dp1073
g3
F3.0
sg4
S'Lite sannsynlig, Mulig'
p1074
sg6
g511
sg8
(lp1075
I3
asg10
S'Possible'
p1076
sg12
S'Isolated'
p1077
sg14
g530
sg16
I3
sg17
S'Nat'
p1078
sg19
S'Naturlig utloest'
p1079
sg21
I1
sg22
S'400'
p1080
sg24
S'300'
p1081
sg26
S'Isolerte faresoner'
p1082
sg28
g29
(g33
S'\x00\x00\x00\x00\x00\x00\x00\x00'
p1083
tp1084
Rp1085
sg39
g1057
sg41
S'4 - Store'
p1086
sba(i__main__
M3Element
p1087
(dp1088
g3
Nsg4
S'Sannsynlig, Meget sannsynlig'
p1089
sg6
S'gray'
p1090
sg8
(lp1091
sg10
S'Likely'
p1092
sg12
S'Isolated'
p1093
sg14
g80
sg16
I0
sg17
S'High'
p1094
sg19
S'Stor tilleggsbelastning'
p1095
sg21
Nsg22
S'400'
p1096
sg24
S'400'
p1097
sg26
S'Isolerte faresoner'
p1098
sg28
Nsg39
g1057
sg41
S'4 - Store'
p1099
sba(i__main__
M3Element
p1100
(dp1101
g3
Nsg4
S'Sannsynlig, Meget sannsynlig'
p1102
sg6
S'gray'
p1103
sg8
(lp1104
sg10
S'Likely'
p1105
sg12
S'Isolated'
p1106
sg14
g80
sg16
I0
sg17
S'Low'
p1107
sg19
S'Liten tilleggsbelastning'
p1108
sg21
Nsg22
S'400'
p1109
sg24
S'500'
p1110
sg26
S'Isolerte faresoner'
p1111
sg28
Nsg39
g1057
sg41
S'4 - Store'
p1112
sba(i__main__
M3Element
p1113
(dp1114
g3
Nsg4
S'Sannsynlig, Meget sannsynlig'
p1115
sg6
S'gray'
p1116
sg8
(lp1117
sg10
S'Likely'
p1118
sg12
S'Isolated'
p1119
sg14
g80
sg16
I0
sg17
S'Nat'
p1120
sg19
S'Naturlig utloest'
p1121
sg21
Nsg22
S'400'
p1122
sg24
S'600'
p1123
sg26
S'Isolerte faresoner'
p1124
sg28
Nsg39
g1057
sg41
S'4 - Store'
p1125
sba(i__main__
M3Element
p1126
(dp1127
g3
F2.5
sg4
S'Lite sannsynlig, Mulig'
p1128
sg6
g511
sg8
(lp1129
I3
aI3
aI2
aI2
asg10
S'Possible'
p1130
sg12
S'Some'
p1131
sg14
g530
sg16
I3
sg17
S'High'
p1132
sg19
S'Stor tilleggsbelastning'
p1133
sg21
I4
sg22
S'400'
p1134
sg24
S'700'
p1135
sg26
S'Noen bratte heng'
p1136
sg28
g29
(g33
S'\x00\x00\x00\x00\x00\x00\xe0?'
p1137
tp1138
Rp1139
sg39
g1057
sg41
S'4 - Store'
p1140
sba(i__main__
M3Element
p1141
(dp1142
g3
F3.0
sg4
S'Lite sannsynlig, Mulig'
p1143
sg6
g511
sg8
(lp1144
I3
aI3
aI3
aI3
aI3
asg10
S'Possible'
p1145
sg12
S'Some'
p1146
sg14
g605
sg16
I4
sg17
S'Low'
p1147
sg19
S'Liten tilleggsbelastning'
p1148
sg21
I5
sg22
S'400'
p1149
sg24
S'800'
p1150
sg26
S'Noen bratte heng'
p1151
sg28
g29
(g33
S'\x00\x00\x00\x00\x00\x00\x00\x00'
p1152
tp1153
Rp1154
sg39
g1057
sg41
S'4 - Store'
p1155
sba(i__main__
M3Element
p1156
(dp1157
g3
F3.3333333333333335
sg4
S'Lite sannsynlig, Mulig'
p1158
sg6
g511
sg8
(lp1159
I4
aI3
aI3
aI3
aI4
aI3
aI3
aI3
aI3
aI3
aI4
aI4
asg10
S'Possible'
p1160
sg12
S'Some'
p1161
sg14
g605
sg16
I4
sg17
S'Nat'
p1162
sg19
S'Naturlig utloest'
p1163
sg21
I12
sg22
S'400'
p1164
sg24
S'900'
p1165
sg26
S'Noen bratte heng'
p1166
sg28
g29
(g33
S'f\xfa\xfe\xdd}+\xde?'
p1167
tp1168
Rp1169
sg39
g1057
sg41
S'4 - Store'
p1170
sba(i__main__
M3Element
p1171
(dp1172
g3
Nsg4
S'Sannsynlig, Meget sannsynlig'
p1173
sg6
S'gray'
p1174
sg8
(lp1175
sg10
S'Likely'
p1176
sg12
S'Some'
p1177
sg14
g80
sg16
I0
sg17
S'High'
p1178
sg19
S'Stor tilleggsbelastning'
p1179
sg21
Nsg22
S'400'
p1180
sg24
S'1000'
p1181
sg26
S'Noen bratte heng'
p1182
sg28
Nsg39
g1057
sg41
S'4 - Store'
p1183
sba(i__main__
M3Element
p1184
(dp1185
g3
Nsg4
S'Sannsynlig, Meget sannsynlig'
p1186
sg6
S'gray'
p1187
sg8
(lp1188
sg10
S'Likely'
p1189
sg12
S'Some'
p1190
sg14
g80
sg16
I0
sg17
S'Low'
p1191
sg19
S'Liten tilleggsbelastning'
p1192
sg21
Nsg22
S'400'
p1193
sg24
S'1100'
p1194
sg26
S'Noen bratte heng'
p1195
sg28
Nsg39
g1057
sg41
S'4 - Store'
p1196
sba(i__main__
M3Element
p1197
(dp1198
g3
Nsg4
S'Sannsynlig, Meget sannsynlig'
p1199
sg6
S'white'
p1200
sg8
(lp1201
sg10
S'Likely'
p1202
sg12
S'Some'
p1203
sg14
g605
sg16
I4
sg17
S'Nat'
p1204
sg19
S'Naturlig utloest'
p1205
sg21
Nsg22
S'400'
p1206
sg24
S'1200'
p1207
sg26
S'Noen bratte heng'
p1208
sg28
Nsg39
g1057
sg41
S'4 - Store'
p1209
sba(i__main__
M3Element
p1210
(dp1211
g3
Nsg4
S'Lite sannsynlig, Mulig'
p1212
sg6
S'gray'
p1213
sg8
(lp1214
sg10
S'Possible'
p1215
sg12
S'Many'
p1216
sg14
g80
sg16
I0
sg17
S'High'
p1217
sg19
S'Stor tilleggsbelastning'
p1218
sg21
Nsg22
S'400'
p1219
sg24
S'1300'
p1220
sg26
S'Mange bratte heng'
p1221
sg28
Nsg39
g1057
sg41
S'4 - Store'
p1222
sba(i__main__
M3Element
p1223
(dp1224
g3
Nsg4
S'Lite sannsynlig, Mulig'
p1225
sg6
S'white'
p1226
sg8
(lp1227
sg10
S'Possible'
p1228
sg12
S'Many'
p1229
sg14
g80
sg16
I0
sg17
S'Low'
p1230
sg19
S'Liten tilleggsbelastning'
p1231
sg21
Nsg22
S'400'
p1232
sg24
S'1400'
p1233
sg26
S'Mange bratte heng'
p1234
sg28
Nsg39
g1057
sg41
S'4 - Store'
p1235
sba(i__main__
M3Element
p1236
(dp1237
g3
F4.0
sg4
S'Lite sannsynlig, Mulig'
p1238
sg6
g866
sg8
(lp1239
I4
aI4
aI4
aI4
aI4
aI4
aI4
aI4
asg10
S'Possible'
p1240
sg12
S'Many'
p1241
sg14
g80
sg16
I0
sg17
S'Nat'
p1242
sg19
S'Naturlig utloest'
p1243
sg21
I8
sg22
S'400'
p1244
sg24
S'1500'
p1245
sg26
S'Mange bratte heng'
p1246
sg28
g29
(g33
S'\x00\x00\x00\x00\x00\x00\x00\x00'
p1247
tp1248
Rp1249
sg39
g1057
sg41
S'4 - Store'
p1250
sba(i__main__
M3Element
p1251
(dp1252
g3
Nsg4
S'Sannsynlig, Meget sannsynlig'
p1253
sg6
S'gray'
p1254
sg8
(lp1255
sg10
S'Likely'
p1256
sg12
S'Many'
p1257
sg14
g80
sg16
I0
sg17
S'High'
p1258
sg19
S'Stor tilleggsbelastning'
p1259
sg21
Nsg22
S'400'
p1260
sg24
S'1600'
p1261
sg26
S'Mange bratte heng'
p1262
sg28
Nsg39
g1057
sg41
S'4 - Store'
p1263
sba(i__main__
M3Element
p1264
(dp1265
g3
Nsg4
S'Sannsynlig, Meget sannsynlig'
p1266
sg6
S'white'
p1267
sg8
(lp1268
sg10
S'Likely'
p1269
sg12
S'Many'
p1270
sg14
g80
sg16
I0
sg17
S'Low'
p1271
sg19
S'Liten tilleggsbelastning'
p1272
sg21
Nsg22
S'400'
p1273
sg24
S'1700'
p1274
sg26
S'Mange bratte heng'
p1275
sg28
Nsg39
g1057
sg41
S'4 - Store'
p1276
sba(i__main__
M3Element
p1277
(dp1278
g3
Nsg4
S'Sannsynlig, Meget sannsynlig'
p1279
sg6
S'white'
p1280
sg8
(lp1281
sg10
S'Likely'
p1282
sg12
S'Many'
p1283
sg14
S'k'
p1284
sg16
I5
sg17
S'Nat'
p1285
sg19
S'Naturlig utloest'
p1286
sg21
Nsg22
S'400'
p1287
sg24
S'1800'
p1288
sg26
S'Mange bratte heng'
p1289
sg28
Nsg39
g1057
sg41
S'4 - Store'
p1290
sba(i__main__
M3Element
p1291
(dp1292
g3
Nsg4
S'Lite sannsynlig, Mulig'
p1293
sg6
S'gray'
p1294
sg8
(lp1295
sg10
S'Possible'
p1296
sg12
S'Most'
p1297
sg14
g80
sg16
I0
sg17
S'High'
p1298
sg19
S'Stor tilleggsbelastning'
p1299
sg21
Nsg22
S'400'
p1300
sg24
S'1900'
p1301
sg26
S'De fleste bratte heng, Ogsaa i mindre bratt terreng'
p1302
sg28
Nsg39
g1057
sg41
S'4 - Store'
p1303
sba(i__main__
M3Element
p1304
(dp1305
g3
Nsg4
S'Lite sannsynlig, Mulig'
p1306
sg6
S'gray'
p1307
sg8
(lp1308
sg10
S'Possible'
p1309
sg12
S'Most'
p1310
sg14
g80
sg16
I0
sg17
S'Low'
p1311
sg19
S'Liten tilleggsbelastning'
p1312
sg21
Nsg22
S'400'
p1313
sg24
S'2000'
p1314
sg26
S'De fleste bratte heng, Ogsaa i mindre bratt terreng'
p1315
sg28
Nsg39
g1057
sg41
S'4 - Store'
p1316
sba(i__main__
M3Element
p1317
(dp1318
g3
Nsg4
S'Lite sannsynlig, Mulig'
p1319
sg6
S'gray'
p1320
sg8
(lp1321
sg10
S'Possible'
p1322
sg12
S'Most'
p1323
sg14
g80
sg16
I0
sg17
S'Nat'
p1324
sg19
S'Naturlig utloest'
p1325
sg21
Nsg22
S'400'
p1326
sg24
S'2100'
p1327
sg26
S'De fleste bratte heng, Ogsaa i mindre bratt terreng'
p1328
sg28
Nsg39
g1057
sg41
S'4 - Store'
p1329
sba(i__main__
M3Element
p1330
(dp1331
g3
Nsg4
S'Sannsynlig, Meget sannsynlig'
p1332
sg6
S'gray'
p1333
sg8
(lp1334
sg10
S'Likely'
p1335
sg12
S'Most'
p1336
sg14
g80
sg16
I0
sg17
S'High'
p1337
sg19
S'Stor tilleggsbelastning'
p1338
sg21
Nsg22
S'400'
p1339
sg24
S'2200'
p1340
sg26
S'De fleste bratte heng, Ogsaa i mindre bratt terreng'
p1341
sg28
Nsg39
g1057
sg41
S'4 - Store'
p1342
sba(i__main__
M3Element
p1343
(dp1344
g3
Nsg4
S'Sannsynlig, Meget sannsynlig'
p1345
sg6
S'gray'
p1346
sg8
(lp1347
sg10
S'Likely'
p1348
sg12
S'Most'
p1349
sg14
g80
sg16
I0
sg17
S'Low'
p1350
sg19
S'Liten tilleggsbelastning'
p1351
sg21
Nsg22
S'400'
p1352
sg24
S'2300'
p1353
sg26
S'De fleste bratte heng, Ogsaa i mindre bratt terreng'
p1354
sg28
Nsg39
g1057
sg41
S'4 - Store'
p1355
sba(i__main__
M3Element
p1356
(dp1357
g3
Nsg4
S'Sannsynlig, Meget sannsynlig'
p1358
sg6
S'white'
p1359
sg8
(lp1360
sg10
S'Likely'
p1361
sg12
S'Most'
p1362
sg14
g80
sg16
I0
sg17
S'Nat'
p1363
sg19
S'Naturlig utloest'
p1364
sg21
Nsg22
S'400'
p1365
sg24
S'2400'
p1366
sg26
S'De fleste bratte heng, Ogsaa i mindre bratt terreng'
p1367
sg28
Nsg39
g1057
sg41
S'4 - Store'
p1368
sba(i__main__
M3Element
p1369
(dp1370
g3
Nsg4
S'Lite sannsynlig, Mulig'
p1371
sg6
S'white'
p1372
sg8
(lp1373
sg10
S'Possible'
p1374
sg12
S'Isolated'
p1375
sg14
g80
sg16
I0
sg17
S'High'
p1376
sg19
S'Stor tilleggsbelastning'
p1377
sg21
Nsg22
S'500'
p1378
sg24
S'100'
p1379
sg26
S'Isolerte faresoner'
p1380
sg28
Nsg39
S'5'
p1381
sg41
S'5 - Svaert store'
p1382
sba(i__main__
M3Element
p1383
(dp1384
g3
Nsg4
S'Lite sannsynlig, Mulig'
p1385
sg6
S'white'
p1386
sg8
(lp1387
sg10
S'Possible'
p1388
sg12
S'Isolated'
p1389
sg14
g80
sg16
I0
sg17
S'Low'
p1390
sg19
S'Liten tilleggsbelastning'
p1391
sg21
Nsg22
S'500'
p1392
sg24
S'200'
p1393
sg26
S'Isolerte faresoner'
p1394
sg28
Nsg39
g1381
sg41
S'5 - Svaert store'
p1395
sba(i__main__
M3Element
p1396
(dp1397
g3
Nsg4
S'Lite sannsynlig, Mulig'
p1398
sg6
S'white'
p1399
sg8
(lp1400
sg10
S'Possible'
p1401
sg12
S'Isolated'
p1402
sg14
g80
sg16
I0
sg17
S'Nat'
p1403
sg19
S'Naturlig utloest'
p1404
sg21
Nsg22
S'500'
p1405
sg24
S'300'
p1406
sg26
S'Isolerte faresoner'
p1407
sg28
Nsg39
g1381
sg41
S'5 - Svaert store'
p1408
sba(i__main__
M3Element
p1409
(dp1410
g3
Nsg4
S'Sannsynlig, Meget sannsynlig'
p1411
sg6
S'gray'
p1412
sg8
(lp1413
sg10
S'Likely'
p1414
sg12
S'Isolated'
p1415
sg14
g80
sg16
I0
sg17
S'High'
p1416
sg19
S'Stor tilleggsbelastning'
p1417
sg21
Nsg22
S'500'
p1418
sg24
S'400'
p1419
sg26
S'Isolerte faresoner'
p1420
sg28
Nsg39
g1381
sg41
S'5 - Svaert store'
p1421
sba(i__main__
M3Element
p1422
(dp1423
g3
Nsg4
S'Sannsynlig, Meget sannsynlig'
p1424
sg6
S'gray'
p1425
sg8
(lp1426
sg10
S'Likely'
p1427
sg12
S'Isolated'
p1428
sg14
g80
sg16
I0
sg17
S'Low'
p1429
sg19
S'Liten tilleggsbelastning'
p1430
sg21
Nsg22
S'500'
p1431
sg24
S'500'
p1432
sg26
S'Isolerte faresoner'
p1433
sg28
Nsg39
g1381
sg41
S'5 - Svaert store'
p1434
sba(i__main__
M3Element
p1435
(dp1436
g3
Nsg4
S'Sannsynlig, Meget sannsynlig'
p1437
sg6
S'gray'
p1438
sg8
(lp1439
sg10
S'Likely'
p1440
sg12
S'Isolated'
p1441
sg14
g80
sg16
I0
sg17
S'Nat'
p1442
sg19
S'Naturlig utloest'
p1443
sg21
Nsg22
S'500'
p1444
sg24
S'600'
p1445
sg26
S'Isolerte faresoner'
p1446
sg28
Nsg39
g1381
sg41
S'5 - Svaert store'
p1447
sba(i__main__
M3Element
p1448
(dp1449
g3
Nsg4
S'Lite sannsynlig, Mulig'
p1450
sg6
S'white'
p1451
sg8
(lp1452
sg10
S'Possible'
p1453
sg12
S'Some'
p1454
sg14
g80
sg16
I0
sg17
S'High'
p1455
sg19
S'Stor tilleggsbelastning'
p1456
sg21
Nsg22
S'500'
p1457
sg24
S'700'
p1458
sg26
S'Noen bratte heng'
p1459
sg28
Nsg39
g1381
sg41
S'5 - Svaert store'
p1460
sba(i__main__
M3Element
p1461
(dp1462
g3
Nsg4
S'Lite sannsynlig, Mulig'
p1463
sg6
S'white'
p1464
sg8
(lp1465
sg10
S'Possible'
p1466
sg12
S'Some'
p1467
sg14
g80
sg16
I0
sg17
S'Low'
p1468
sg19
S'Liten tilleggsbelastning'
p1469
sg21
Nsg22
S'500'
p1470
sg24
S'800'
p1471
sg26
S'Noen bratte heng'
p1472
sg28
Nsg39
g1381
sg41
S'5 - Svaert store'
p1473
sba(i__main__
M3Element
p1474
(dp1475
g3
Nsg4
S'Lite sannsynlig, Mulig'
p1476
sg6
S'white'
p1477
sg8
(lp1478
sg10
S'Possible'
p1479
sg12
S'Some'
p1480
sg14
g80
sg16
I0
sg17
S'Nat'
p1481
sg19
S'Naturlig utloest'
p1482
sg21
Nsg22
S'500'
p1483
sg24
S'900'
p1484
sg26
S'Noen bratte heng'
p1485
sg28
Nsg39
g1381
sg41
S'5 - Svaert store'
p1486
sba(i__main__
M3Element
p1487
(dp1488
g3
Nsg4
S'Sannsynlig, Meget sannsynlig'
p1489
sg6
S'gray'
p1490
sg8
(lp1491
sg10
S'Likely'
p1492
sg12
S'Some'
p1493
sg14
g80
sg16
I0
sg17
S'High'
p1494
sg19
S'Stor tilleggsbelastning'
p1495
sg21
Nsg22
S'500'
p1496
sg24
S'1000'
p1497
sg26
S'Noen bratte heng'
p1498
sg28
Nsg39
g1381
sg41
S'5 - Svaert store'
p1499
sba(i__main__
M3Element
p1500
(dp1501
g3
Nsg4
S'Sannsynlig, Meget sannsynlig'
p1502
sg6
S'gray'
p1503
sg8
(lp1504
sg10
S'Likely'
p1505
sg12
S'Some'
p1506
sg14
g80
sg16
I0
sg17
S'Low'
p1507
sg19
S'Liten tilleggsbelastning'
p1508
sg21
Nsg22
S'500'
p1509
sg24
S'1100'
p1510
sg26
S'Noen bratte heng'
p1511
sg28
Nsg39
g1381
sg41
S'5 - Svaert store'
p1512
sba(i__main__
M3Element
p1513
(dp1514
g3
Nsg4
S'Sannsynlig, Meget sannsynlig'
p1515
sg6
S'white'
p1516
sg8
(lp1517
sg10
S'Likely'
p1518
sg12
S'Some'
p1519
sg14
g80
sg16
I0
sg17
S'Nat'
p1520
sg19
S'Naturlig utloest'
p1521
sg21
Nsg22
S'500'
p1522
sg24
S'1200'
p1523
sg26
S'Noen bratte heng'
p1524
sg28
Nsg39
g1381
sg41
S'5 - Svaert store'
p1525
sba(i__main__
M3Element
p1526
(dp1527
g3
Nsg4
S'Lite sannsynlig, Mulig'
p1528
sg6
S'gray'
p1529
sg8
(lp1530
sg10
S'Possible'
p1531
sg12
S'Many'
p1532
sg14
g80
sg16
I0
sg17
S'High'
p1533
sg19
S'Stor tilleggsbelastning'
p1534
sg21
Nsg22
S'500'
p1535
sg24
S'1300'
p1536
sg26
S'Mange bratte heng'
p1537
sg28
Nsg39
g1381
sg41
S'5 - Svaert store'
p1538
sba(i__main__
M3Element
p1539
(dp1540
g3
Nsg4
S'Lite sannsynlig, Mulig'
p1541
sg6
S'white'
p1542
sg8
(lp1543
sg10
S'Possible'
p1544
sg12
S'Many'
p1545
sg14
g80
sg16
I0
sg17
S'Low'
p1546
sg19
S'Liten tilleggsbelastning'
p1547
sg21
Nsg22
S'500'
p1548
sg24
S'1400'
p1549
sg26
S'Mange bratte heng'
p1550
sg28
Nsg39
g1381
sg41
S'5 - Svaert store'
p1551
sba(i__main__
M3Element
p1552
(dp1553
g3
Nsg4
S'Lite sannsynlig, Mulig'
p1554
sg6
S'gray'
p1555
sg8
(lp1556
sg10
S'Possible'
p1557
sg12
S'Many'
p1558
sg14
g80
sg16
I0
sg17
S'Nat'
p1559
sg19
S'Naturlig utloest'
p1560
sg21
Nsg22
S'500'
p1561
sg24
S'1500'
p1562
sg26
S'Mange bratte heng'
p1563
sg28
Nsg39
g1381
sg41
S'5 - Svaert store'
p1564
sba(i__main__
M3Element
p1565
(dp1566
g3
Nsg4
S'Sannsynlig, Meget sannsynlig'
p1567
sg6
S'gray'
p1568
sg8
(lp1569
sg10
S'Likely'
p1570
sg12
S'Many'
p1571
sg14
g80
sg16
I0
sg17
S'High'
p1572
sg19
S'Stor tilleggsbelastning'
p1573
sg21
Nsg22
S'500'
p1574
sg24
S'1600'
p1575
sg26
S'Mange bratte heng'
p1576
sg28
Nsg39
g1381
sg41
S'5 - Svaert store'
p1577
sba(i__main__
M3Element
p1578
(dp1579
g3
Nsg4
S'Sannsynlig, Meget sannsynlig'
p1580
sg6
S'white'
p1581
sg8
(lp1582
sg10
S'Likely'
p1583
sg12
S'Many'
p1584
sg14
g80
sg16
I0
sg17
S'Low'
p1585
sg19
S'Liten tilleggsbelastning'
p1586
sg21
Nsg22
S'500'
p1587
sg24
S'1700'
p1588
sg26
S'Mange bratte heng'
p1589
sg28
Nsg39
g1381
sg41
S'5 - Svaert store'
p1590
sba(i__main__
M3Element
p1591
(dp1592
g3
Nsg4
S'Sannsynlig, Meget sannsynlig'
p1593
sg6
S'white'
p1594
sg8
(lp1595
sg10
S'Likely'
p1596
sg12
S'Many'
p1597
sg14
g1284
sg16
I5
sg17
S'Nat'
p1598
sg19
S'Naturlig utloest'
p1599
sg21
Nsg22
S'500'
p1600
sg24
S'1800'
p1601
sg26
S'Mange bratte heng'
p1602
sg28
Nsg39
g1381
sg41
S'5 - Svaert store'
p1603
sba(i__main__
M3Element
p1604
(dp1605
g3
Nsg4
S'Lite sannsynlig, Mulig'
p1606
sg6
S'gray'
p1607
sg8
(lp1608
sg10
S'Possible'
p1609
sg12
S'Most'
p1610
sg14
g80
sg16
I0
sg17
S'High'
p1611
sg19
S'Stor tilleggsbelastning'
p1612
sg21
Nsg22
S'500'
p1613
sg24
S'1900'
p1614
sg26
S'De fleste bratte heng, Ogsaa i mindre bratt terreng'
p1615
sg28
Nsg39
g1381
sg41
S'5 - Svaert store'
p1616
sba(i__main__
M3Element
p1617
(dp1618
g3
Nsg4
S'Lite sannsynlig, Mulig'
p1619
sg6
S'gray'
p1620
sg8
(lp1621
sg10
S'Possible'
p1622
sg12
S'Most'
p1623
sg14
g80
sg16
I0
sg17
S'Low'
p1624
sg19
S'Liten tilleggsbelastning'
p1625
sg21
Nsg22
S'500'
p1626
sg24
S'2000'
p1627
sg26
S'De fleste bratte heng, Ogsaa i mindre bratt terreng'
p1628
sg28
Nsg39
g1381
sg41
S'5 - Svaert store'
p1629
sba(i__main__
M3Element
p1630
(dp1631
g3
Nsg4
S'Lite sannsynlig, Mulig'
p1632
sg6
S'gray'
p1633
sg8
(lp1634
sg10
S'Possible'
p1635
sg12
S'Most'
p1636
sg14
g80
sg16
I0
sg17
S'Nat'
p1637
sg19
S'Naturlig utloest'
p1638
sg21
Nsg22
S'500'
p1639
sg24
S'2100'
p1640
sg26
S'De fleste bratte heng, Ogsaa i mindre bratt terreng'
p1641
sg28
Nsg39
g1381
sg41
S'5 - Svaert store'
p1642
sba(i__main__
M3Element
p1643
(dp1644
g3
Nsg4
S'Sannsynlig, Meget sannsynlig'
p1645
sg6
S'gray'
p1646
sg8
(lp1647
sg10
S'Likely'
p1648
sg12
S'Most'
p1649
sg14
g80
sg16
I0
sg17
S'High'
p1650
sg19
S'Stor tilleggsbelastning'
p1651
sg21
Nsg22
S'500'
p1652
sg24
S'2200'
p1653
sg26
S'De fleste bratte heng, Ogsaa i mindre bratt terreng'
p1654
sg28
Nsg39
g1381
sg41
S'5 - Svaert store'
p1655
sba(i__main__
M3Element
p1656
(dp1657
g3
Nsg4
S'Sannsynlig, Meget sannsynlig'
p1658
sg6
S'gray'
p1659
sg8
(lp1660
sg10
S'Likely'
p1661
sg12
S'Most'
p1662
sg14
g80
sg16
I0
sg17
S'Low'
p1663
sg19
S'Liten tilleggsbelastning'
p1664
sg21
Nsg22
S'500'
p1665
sg24
S'2300'
p1666
sg26
S'De fleste bratte heng, Ogsaa i mindre bratt terreng'
p1667
sg28
Nsg39
g1381
sg41
S'5 - Svaert store'
p1668
sba(i__main__
M3Element
p1669
(dp1670
g3
Nsg4
S'Sannsynlig, Meget sannsynlig'
p1671
sg6
S'white'
p1672
sg8
(lp1673
sg10
S'Likely'
p1674
sg12
S'Most'
p1675
sg14
g80
sg16
I0
sg17
S'Nat'
p1676
sg19
S'Naturlig utloest'
p1677
sg21
Nsg22
S'500'
p1678
sg24
S'2400'
p1679
sg26
S'De fleste bratte heng, Ogsaa i mindre bratt terreng'
p1680
sg28
Nsg39
g1381
sg41
S'5 - Svaert store'
p1681
sba.