(lp0
(irunmatrix
M3Element
p1
(dp2
S'danger_level_average'
p3
NsS'probability'
p4
S'Lite sannsynlig, Mulig'
p5
sS'colour'
p6
S'white'
p7
sS'danger_level_list'
p8
(lp9
sS'label_probalility'
p10
S'Possible'
p11
sS'label_distribution'
p12
S'Isolated'
p13
sS'recomended_colour'
p14
S'#ccff66'
p15
sS'recomended_danger_level'
p16
I1
sS'label_trigger'
p17
S'High'
p18
sS'trigger'
p19
S'Stor tilleggsbelastning'
p20
sS'occurrences'
p21
NsS'y'
p22
S'100'
p23
sS'x'
p24
S'100'
p25
sS'distribution'
p26
S'Isolerte faresoner'
p27
sS'danger_level_standard_dev'
p28
NsS'label_size'
p29
S'1'
p30
sS'avalanche_size'
p31
S'1 - Harmloest'
p32
sba(irunmatrix
M3Element
p33
(dp34
g3
Nsg4
S'Lite sannsynlig, Mulig'
p35
sg6
S'white'
p36
sg8
(lp37
sg10
S'Possible'
p38
sg12
S'Isolated'
p39
sg14
g15
sg16
I1
sg17
S'Low'
p40
sg19
S'Liten tilleggsbelastning'
p41
sg21
Nsg22
S'100'
p42
sg24
S'200'
p43
sg26
S'Isolerte faresoner'
p44
sg28
Nsg29
g30
sg31
S'1 - Harmloest'
p45
sba(irunmatrix
M3Element
p46
(dp47
g3
Nsg4
S'Lite sannsynlig, Mulig'
p48
sg6
S'white'
p49
sg8
(lp50
sg10
S'Possible'
p51
sg12
S'Isolated'
p52
sg14
g15
sg16
I1
sg17
S'Nat'
p53
sg19
S'Naturlig utloest'
p54
sg21
Nsg22
S'100'
p55
sg24
S'300'
p56
sg26
S'Isolerte faresoner'
p57
sg28
Nsg29
g30
sg31
S'1 - Harmloest'
p58
sba(irunmatrix
M3Element
p59
(dp60
g3
Nsg4
S'Sannsynlig, Meget sannsynlig'
p61
sg6
S'gray'
p62
sg8
(lp63
sg10
S'Likely'
p64
sg12
S'Isolated'
p65
sg14
S'gray'
p66
sg16
I0
sg17
S'High'
p67
sg19
S'Stor tilleggsbelastning'
p68
sg21
Nsg22
S'100'
p69
sg24
S'400'
p70
sg26
S'Isolerte faresoner'
p71
sg28
Nsg29
g30
sg31
S'1 - Harmloest'
p72
sba(irunmatrix
M3Element
p73
(dp74
g3
Nsg4
S'Sannsynlig, Meget sannsynlig'
p75
sg6
S'gray'
p76
sg8
(lp77
sg10
S'Likely'
p78
sg12
S'Isolated'
p79
sg14
g66
sg16
I0
sg17
S'Low'
p80
sg19
S'Liten tilleggsbelastning'
p81
sg21
Nsg22
S'100'
p82
sg24
S'500'
p83
sg26
S'Isolerte faresoner'
p84
sg28
Nsg29
g30
sg31
S'1 - Harmloest'
p85
sba(irunmatrix
M3Element
p86
(dp87
g3
Nsg4
S'Sannsynlig, Meget sannsynlig'
p88
sg6
S'gray'
p89
sg8
(lp90
sg10
S'Likely'
p91
sg12
S'Isolated'
p92
sg14
g66
sg16
I0
sg17
S'Nat'
p93
sg19
S'Naturlig utloest'
p94
sg21
Nsg22
S'100'
p95
sg24
S'600'
p96
sg26
S'Isolerte faresoner'
p97
sg28
Nsg29
g30
sg31
S'1 - Harmloest'
p98
sba(irunmatrix
M3Element
p99
(dp100
g3
F1.0
sg4
S'Lite sannsynlig, Mulig'
p101
sg6
S'#ccff66'
p102
sg8
(lp103
I1
aI1
asg10
S'Possible'
p104
sg12
S'Some'
p105
sg14
g15
sg16
I1
sg17
S'High'
p106
sg19
S'Stor tilleggsbelastning'
p107
sg21
I2
sg22
S'100'
p108
sg24
S'700'
p109
sg26
S'Noen bratte heng'
p110
sg28
cnumpy.core.multiarray
scalar
p111
(cnumpy
dtype
p112
(S'f8'
p113
I0
I1
tp114
Rp115
(I3
S'<'
p116
NNNI-1
I-1
I0
tp117
bS'\x00\x00\x00\x00\x00\x00\x00\x00'
p118
tp119
Rp120
sg29
g30
sg31
S'1 - Harmloest'
p121
sba(irunmatrix
M3Element
p122
(dp123
g3
Nsg4
S'Lite sannsynlig, Mulig'
p124
sg6
S'white'
p125
sg8
(lp126
sg10
S'Possible'
p127
sg12
S'Some'
p128
sg14
g15
sg16
I1
sg17
S'Low'
p129
sg19
S'Liten tilleggsbelastning'
p130
sg21
Nsg22
S'100'
p131
sg24
S'800'
p132
sg26
S'Noen bratte heng'
p133
sg28
Nsg29
g30
sg31
S'1 - Harmloest'
p134
sba(irunmatrix
M3Element
p135
(dp136
g3
F2.0
sg4
S'Lite sannsynlig, Mulig'
p137
sg6
S'#ffff00'
p138
sg8
(lp139
I2
asg10
S'Possible'
p140
sg12
S'Some'
p141
sg14
g15
sg16
I1
sg17
S'Nat'
p142
sg19
S'Naturlig utloest'
p143
sg21
I1
sg22
S'100'
p144
sg24
S'900'
p145
sg26
S'Noen bratte heng'
p146
sg28
g111
(g115
S'\x00\x00\x00\x00\x00\x00\x00\x00'
p147
tp148
Rp149
sg29
g30
sg31
S'1 - Harmloest'
p150
sba(irunmatrix
M3Element
p151
(dp152
g3
Nsg4
S'Sannsynlig, Meget sannsynlig'
p153
sg6
S'gray'
p154
sg8
(lp155
sg10
S'Likely'
p156
sg12
S'Some'
p157
sg14
g66
sg16
I0
sg17
S'High'
p158
sg19
S'Stor tilleggsbelastning'
p159
sg21
Nsg22
S'100'
p160
sg24
S'1000'
p161
sg26
S'Noen bratte heng'
p162
sg28
Nsg29
g30
sg31
S'1 - Harmloest'
p163
sba(irunmatrix
M3Element
p164
(dp165
g3
Nsg4
S'Sannsynlig, Meget sannsynlig'
p166
sg6
S'gray'
p167
sg8
(lp168
sg10
S'Likely'
p169
sg12
S'Some'
p170
sg14
g66
sg16
I0
sg17
S'Low'
p171
sg19
S'Liten tilleggsbelastning'
p172
sg21
Nsg22
S'100'
p173
sg24
S'1100'
p174
sg26
S'Noen bratte heng'
p175
sg28
Nsg29
g30
sg31
S'1 - Harmloest'
p176
sba(irunmatrix
M3Element
p177
(dp178
g3
Nsg4
S'Sannsynlig, Meget sannsynlig'
p179
sg6
S'white'
p180
sg8
(lp181
sg10
S'Likely'
p182
sg12
S'Some'
p183
sg14
g15
sg16
I1
sg17
S'Nat'
p184
sg19
S'Naturlig utloest'
p185
sg21
Nsg22
S'100'
p186
sg24
S'1200'
p187
sg26
S'Noen bratte heng'
p188
sg28
Nsg29
g30
sg31
S'1 - Harmloest'
p189
sba(irunmatrix
M3Element
p190
(dp191
g3
Nsg4
S'Lite sannsynlig, Mulig'
p192
sg6
S'gray'
p193
sg8
(lp194
sg10
S'Possible'
p195
sg12
S'Many'
p196
sg14
g66
sg16
I0
sg17
S'High'
p197
sg19
S'Stor tilleggsbelastning'
p198
sg21
Nsg22
S'100'
p199
sg24
S'1300'
p200
sg26
S'Mange bratte heng'
p201
sg28
Nsg29
g30
sg31
S'1 - Harmloest'
p202
sba(irunmatrix
M3Element
p203
(dp204
g3
Nsg4
S'Lite sannsynlig, Mulig'
p205
sg6
S'white'
p206
sg8
(lp207
sg10
S'Possible'
p208
sg12
S'Many'
p209
sg14
g15
sg16
I1
sg17
S'Low'
p210
sg19
S'Liten tilleggsbelastning'
p211
sg21
Nsg22
S'100'
p212
sg24
S'1400'
p213
sg26
S'Mange bratte heng'
p214
sg28
Nsg29
g30
sg31
S'1 - Harmloest'
p215
sba(irunmatrix
M3Element
p216
(dp217
g3
Nsg4
S'Lite sannsynlig, Mulig'
p218
sg6
S'gray'
p219
sg8
(lp220
sg10
S'Possible'
p221
sg12
S'Many'
p222
sg14
g66
sg16
I0
sg17
S'Nat'
p223
sg19
S'Naturlig utloest'
p224
sg21
Nsg22
S'100'
p225
sg24
S'1500'
p226
sg26
S'Mange bratte heng'
p227
sg28
Nsg29
g30
sg31
S'1 - Harmloest'
p228
sba(irunmatrix
M3Element
p229
(dp230
g3
Nsg4
S'Sannsynlig, Meget sannsynlig'
p231
sg6
S'gray'
p232
sg8
(lp233
sg10
S'Likely'
p234
sg12
S'Many'
p235
sg14
g66
sg16
I0
sg17
S'High'
p236
sg19
S'Stor tilleggsbelastning'
p237
sg21
Nsg22
S'100'
p238
sg24
S'1600'
p239
sg26
S'Mange bratte heng'
p240
sg28
Nsg29
g30
sg31
S'1 - Harmloest'
p241
sba(irunmatrix
M3Element
p242
(dp243
g3
Nsg4
S'Sannsynlig, Meget sannsynlig'
p244
sg6
S'white'
p245
sg8
(lp246
sg10
S'Likely'
p247
sg12
S'Many'
p248
sg14
S'#ffff00'
p249
sg16
I2
sg17
S'Low'
p250
sg19
S'Liten tilleggsbelastning'
p251
sg21
Nsg22
S'100'
p252
sg24
S'1700'
p253
sg26
S'Mange bratte heng'
p254
sg28
Nsg29
g30
sg31
S'1 - Harmloest'
p255
sba(irunmatrix
M3Element
p256
(dp257
g3
Nsg4
S'Sannsynlig, Meget sannsynlig'
p258
sg6
S'white'
p259
sg8
(lp260
sg10
S'Likely'
p261
sg12
S'Many'
p262
sg14
g249
sg16
I2
sg17
S'Nat'
p263
sg19
S'Naturlig utloest'
p264
sg21
Nsg22
S'100'
p265
sg24
S'1800'
p266
sg26
S'Mange bratte heng'
p267
sg28
Nsg29
g30
sg31
S'1 - Harmloest'
p268
sba(irunmatrix
M3Element
p269
(dp270
g3
Nsg4
S'Lite sannsynlig, Mulig'
p271
sg6
S'gray'
p272
sg8
(lp273
sg10
S'Possible'
p274
sg12
S'Most'
p275
sg14
g66
sg16
I0
sg17
S'High'
p276
sg19
S'Stor tilleggsbelastning'
p277
sg21
Nsg22
S'100'
p278
sg24
S'1900'
p279
sg26
S'De fleste bratte heng, Ogsaa i mindre bratt terreng'
p280
sg28
Nsg29
g30
sg31
S'1 - Harmloest'
p281
sba(irunmatrix
M3Element
p282
(dp283
g3
Nsg4
S'Lite sannsynlig, Mulig'
p284
sg6
S'gray'
p285
sg8
(lp286
sg10
S'Possible'
p287
sg12
S'Most'
p288
sg14
g66
sg16
I0
sg17
S'Low'
p289
sg19
S'Liten tilleggsbelastning'
p290
sg21
Nsg22
S'100'
p291
sg24
S'2000'
p292
sg26
S'De fleste bratte heng, Ogsaa i mindre bratt terreng'
p293
sg28
Nsg29
g30
sg31
S'1 - Harmloest'
p294
sba(irunmatrix
M3Element
p295
(dp296
g3
Nsg4
S'Lite sannsynlig, Mulig'
p297
sg6
S'gray'
p298
sg8
(lp299
sg10
S'Possible'
p300
sg12
S'Most'
p301
sg14
g66
sg16
I0
sg17
S'Nat'
p302
sg19
S'Naturlig utloest'
p303
sg21
Nsg22
S'100'
p304
sg24
S'2100'
p305
sg26
S'De fleste bratte heng, Ogsaa i mindre bratt terreng'
p306
sg28
Nsg29
g30
sg31
S'1 - Harmloest'
p307
sba(irunmatrix
M3Element
p308
(dp309
g3
Nsg4
S'Sannsynlig, Meget sannsynlig'
p310
sg6
S'gray'
p311
sg8
(lp312
sg10
S'Likely'
p313
sg12
S'Most'
p314
sg14
g66
sg16
I0
sg17
S'High'
p315
sg19
S'Stor tilleggsbelastning'
p316
sg21
Nsg22
S'100'
p317
sg24
S'2200'
p318
sg26
S'De fleste bratte heng, Ogsaa i mindre bratt terreng'
p319
sg28
Nsg29
g30
sg31
S'1 - Harmloest'
p320
sba(irunmatrix
M3Element
p321
(dp322
g3
Nsg4
S'Sannsynlig, Meget sannsynlig'
p323
sg6
S'gray'
p324
sg8
(lp325
sg10
S'Likely'
p326
sg12
S'Most'
p327
sg14
g66
sg16
I0
sg17
S'Low'
p328
sg19
S'Liten tilleggsbelastning'
p329
sg21
Nsg22
S'100'
p330
sg24
S'2300'
p331
sg26
S'De fleste bratte heng, Ogsaa i mindre bratt terreng'
p332
sg28
Nsg29
g30
sg31
S'1 - Harmloest'
p333
sba(irunmatrix
M3Element
p334
(dp335
g3
Nsg4
S'Sannsynlig, Meget sannsynlig'
p336
sg6
S'white'
p337
sg8
(lp338
sg10
S'Likely'
p339
sg12
S'Most'
p340
sg14
g66
sg16
I0
sg17
S'Nat'
p341
sg19
S'Naturlig utloest'
p342
sg21
Nsg22
S'100'
p343
sg24
S'2400'
p344
sg26
S'De fleste bratte heng, Ogsaa i mindre bratt terreng'
p345
sg28
Nsg29
S'2'
p346
sg31
S'1 - Harmloest'
p347
sba(irunmatrix
M3Element
p348
(dp349
g3
Nsg4
S'Lite sannsynlig, Mulig'
p350
sg6
S'white'
p351
sg8
(lp352
sg10
S'Possible'
p353
sg12
S'Isolated'
p354
sg14
g15
sg16
I1
sg17
S'High'
p355
sg19
S'Stor tilleggsbelastning'
p356
sg21
Nsg22
S'200'
p357
sg24
S'100'
p358
sg26
S'Isolerte faresoner'
p359
sg28
Nsg29
g346
sg31
S'2 - Smaa'
p360
sba(irunmatrix
M3Element
p361
(dp362
g3
Nsg4
S'Lite sannsynlig, Mulig'
p363
sg6
S'white'
p364
sg8
(lp365
sg10
S'Possible'
p366
sg12
S'Isolated'
p367
sg14
g15
sg16
I1
sg17
S'Low'
p368
sg19
S'Liten tilleggsbelastning'
p369
sg21
Nsg22
S'200'
p370
sg24
S'200'
p371
sg26
S'Isolerte faresoner'
p372
sg28
Nsg29
g346
sg31
S'2 - Smaa'
p373
sba(irunmatrix
M3Element
p374
(dp375
g3
Nsg4
S'Lite sannsynlig, Mulig'
p376
sg6
S'white'
p377
sg8
(lp378
sg10
S'Possible'
p379
sg12
S'Isolated'
p380
sg14
g15
sg16
I1
sg17
S'Nat'
p381
sg19
S'Naturlig utloest'
p382
sg21
Nsg22
S'200'
p383
sg24
S'300'
p384
sg26
S'Isolerte faresoner'
p385
sg28
Nsg29
g346
sg31
S'2 - Smaa'
p386
sba(irunmatrix
M3Element
p387
(dp388
g3
Nsg4
S'Sannsynlig, Meget sannsynlig'
p389
sg6
S'gray'
p390
sg8
(lp391
sg10
S'Likely'
p392
sg12
S'Isolated'
p393
sg14
g66
sg16
I0
sg17
S'High'
p394
sg19
S'Stor tilleggsbelastning'
p395
sg21
Nsg22
S'200'
p396
sg24
S'400'
p397
sg26
S'Isolerte faresoner'
p398
sg28
Nsg29
g346
sg31
S'2 - Smaa'
p399
sba(irunmatrix
M3Element
p400
(dp401
g3
Nsg4
S'Sannsynlig, Meget sannsynlig'
p402
sg6
S'gray'
p403
sg8
(lp404
sg10
S'Likely'
p405
sg12
S'Isolated'
p406
sg14
g66
sg16
I0
sg17
S'Low'
p407
sg19
S'Liten tilleggsbelastning'
p408
sg21
Nsg22
S'200'
p409
sg24
S'500'
p410
sg26
S'Isolerte faresoner'
p411
sg28
Nsg29
g346
sg31
S'2 - Smaa'
p412
sba(irunmatrix
M3Element
p413
(dp414
g3
Nsg4
S'Sannsynlig, Meget sannsynlig'
p415
sg6
S'gray'
p416
sg8
(lp417
sg10
S'Likely'
p418
sg12
S'Isolated'
p419
sg14
g66
sg16
I0
sg17
S'Nat'
p420
sg19
S'Naturlig utloest'
p421
sg21
Nsg22
S'200'
p422
sg24
S'600'
p423
sg26
S'Isolerte faresoner'
p424
sg28
Nsg29
g346
sg31
S'2 - Smaa'
p425
sba(irunmatrix
M3Element
p426
(dp427
g3
Nsg4
S'Lite sannsynlig, Mulig'
p428
sg6
S'white'
p429
sg8
(lp430
sg10
S'Possible'
p431
sg12
S'Some'
p432
sg14
g249
sg16
I2
sg17
S'High'
p433
sg19
S'Stor tilleggsbelastning'
p434
sg21
Nsg22
S'200'
p435
sg24
S'700'
p436
sg26
S'Noen bratte heng'
p437
sg28
Nsg29
g346
sg31
S'2 - Smaa'
p438
sba(irunmatrix
M3Element
p439
(dp440
g3
F2.0
sg4
S'Lite sannsynlig, Mulig'
p441
sg6
g138
sg8
(lp442
I2
aI2
aI2
aI2
aI2
aI2
aI2
aI2
aI2
aI2
aI2
aI2
aI2
aI2
aI2
aI2
aI2
aI2
aI2
aI2
aI2
aI2
aI2
aI2
aI2
aI2
aI2
aI2
aI2
aI2
aI2
aI2
aI2
aI2
aI2
aI2
asg10
S'Possible'
p443
sg12
S'Some'
p444
sg14
g249
sg16
I2
sg17
S'Low'
p445
sg19
S'Liten tilleggsbelastning'
p446
sg21
I36
sg22
S'200'
p447
sg24
S'800'
p448
sg26
S'Noen bratte heng'
p449
sg28
g111
(g115
S'\x00\x00\x00\x00\x00\x00\x00\x00'
p450
tp451
Rp452
sg29
g346
sg31
S'2 - Smaa'
p453
sba(irunmatrix
M3Element
p454
(dp455
g3
F3.0
sg4
S'Lite sannsynlig, Mulig'
p456
sg6
S'#ff9900'
p457
sg8
(lp458
I3
asg10
S'Possible'
p459
sg12
S'Some'
p460
sg14
g249
sg16
I2
sg17
S'Nat'
p461
sg19
S'Naturlig utloest'
p462
sg21
I1
sg22
S'200'
p463
sg24
S'900'
p464
sg26
S'Noen bratte heng'
p465
sg28
g111
(g115
S'\x00\x00\x00\x00\x00\x00\x00\x00'
p466
tp467
Rp468
sg29
g346
sg31
S'2 - Smaa'
p469
sba(irunmatrix
M3Element
p470
(dp471
g3
Nsg4
S'Sannsynlig, Meget sannsynlig'
p472
sg6
S'gray'
p473
sg8
(lp474
sg10
S'Likely'
p475
sg12
S'Some'
p476
sg14
g66
sg16
I0
sg17
S'High'
p477
sg19
S'Stor tilleggsbelastning'
p478
sg21
Nsg22
S'200'
p479
sg24
S'1000'
p480
sg26
S'Noen bratte heng'
p481
sg28
Nsg29
g346
sg31
S'2 - Smaa'
p482
sba(irunmatrix
M3Element
p483
(dp484
g3
Nsg4
S'Sannsynlig, Meget sannsynlig'
p485
sg6
S'gray'
p486
sg8
(lp487
sg10
S'Likely'
p488
sg12
S'Some'
p489
sg14
g66
sg16
I0
sg17
S'Low'
p490
sg19
S'Liten tilleggsbelastning'
p491
sg21
Nsg22
S'200'
p492
sg24
S'1100'
p493
sg26
S'Noen bratte heng'
p494
sg28
Nsg29
g346
sg31
S'2 - Smaa'
p495
sba(irunmatrix
M3Element
p496
(dp497
g3
F2.6
sg4
S'Sannsynlig, Meget sannsynlig'
p498
sg6
g457
sg8
(lp499
I3
aI3
aI3
aI2
aI2
aI3
aI3
aI3
aI3
aI2
aI2
aI3
aI3
aI2
aI2
asg10
S'Likely'
p500
sg12
S'Some'
p501
sg14
S'#ff9900'
p502
sg16
I3
sg17
S'Nat'
p503
sg19
S'Naturlig utloest'
p504
sg21
I15
sg22
S'200'
p505
sg24
S'1200'
p506
sg26
S'Noen bratte heng'
p507
sg28
g111
(g115
S'Kh\xdb\xec|Z\xdf?'
p508
tp509
Rp510
sg29
g346
sg31
S'2 - Smaa'
p511
sba(irunmatrix
M3Element
p512
(dp513
g3
Nsg4
S'Lite sannsynlig, Mulig'
p514
sg6
S'gray'
p515
sg8
(lp516
sg10
S'Possible'
p517
sg12
S'Many'
p518
sg14
g66
sg16
I0
sg17
S'High'
p519
sg19
S'Stor tilleggsbelastning'
p520
sg21
Nsg22
S'200'
p521
sg24
S'1300'
p522
sg26
S'Mange bratte heng'
p523
sg28
Nsg29
g346
sg31
S'2 - Smaa'
p524
sba(irunmatrix
M3Element
p525
(dp526
g3
Nsg4
S'Lite sannsynlig, Mulig'
p527
sg6
S'white'
p528
sg8
(lp529
sg10
S'Possible'
p530
sg12
S'Many'
p531
sg14
g502
sg16
I3
sg17
S'Low'
p532
sg19
S'Liten tilleggsbelastning'
p533
sg21
Nsg22
S'200'
p534
sg24
S'1400'
p535
sg26
S'Mange bratte heng'
p536
sg28
Nsg29
g346
sg31
S'2 - Smaa'
p537
sba(irunmatrix
M3Element
p538
(dp539
g3
Nsg4
S'Lite sannsynlig, Mulig'
p540
sg6
S'gray'
p541
sg8
(lp542
sg10
S'Possible'
p543
sg12
S'Many'
p544
sg14
g66
sg16
I0
sg17
S'Nat'
p545
sg19
S'Naturlig utloest'
p546
sg21
Nsg22
S'200'
p547
sg24
S'1500'
p548
sg26
S'Mange bratte heng'
p549
sg28
Nsg29
g346
sg31
S'2 - Smaa'
p550
sba(irunmatrix
M3Element
p551
(dp552
g3
Nsg4
S'Sannsynlig, Meget sannsynlig'
p553
sg6
S'gray'
p554
sg8
(lp555
sg10
S'Likely'
p556
sg12
S'Many'
p557
sg14
g66
sg16
I0
sg17
S'High'
p558
sg19
S'Stor tilleggsbelastning'
p559
sg21
Nsg22
S'200'
p560
sg24
S'1600'
p561
sg26
S'Mange bratte heng'
p562
sg28
Nsg29
g346
sg31
S'2 - Smaa'
p563
sba(irunmatrix
M3Element
p564
(dp565
g3
Nsg4
S'Sannsynlig, Meget sannsynlig'
p566
sg6
S'white'
p567
sg8
(lp568
sg10
S'Likely'
p569
sg12
S'Many'
p570
sg14
S'#ff0000'
p571
sg16
I4
sg17
S'Low'
p572
sg19
S'Liten tilleggsbelastning'
p573
sg21
Nsg22
S'200'
p574
sg24
S'1700'
p575
sg26
S'Mange bratte heng'
p576
sg28
Nsg29
g346
sg31
S'2 - Smaa'
p577
sba(irunmatrix
M3Element
p578
(dp579
g3
Nsg4
S'Sannsynlig, Meget sannsynlig'
p580
sg6
S'white'
p581
sg8
(lp582
sg10
S'Likely'
p583
sg12
S'Many'
p584
sg14
g571
sg16
I4
sg17
S'Nat'
p585
sg19
S'Naturlig utloest'
p586
sg21
Nsg22
S'200'
p587
sg24
S'1800'
p588
sg26
S'Mange bratte heng'
p589
sg28
Nsg29
g346
sg31
S'2 - Smaa'
p590
sba(irunmatrix
M3Element
p591
(dp592
g3
Nsg4
S'Lite sannsynlig, Mulig'
p593
sg6
S'gray'
p594
sg8
(lp595
sg10
S'Possible'
p596
sg12
S'Most'
p597
sg14
g66
sg16
I0
sg17
S'High'
p598
sg19
S'Stor tilleggsbelastning'
p599
sg21
Nsg22
S'200'
p600
sg24
S'1900'
p601
sg26
S'De fleste bratte heng, Ogsaa i mindre bratt terreng'
p602
sg28
Nsg29
g346
sg31
S'2 - Smaa'
p603
sba(irunmatrix
M3Element
p604
(dp605
g3
Nsg4
S'Lite sannsynlig, Mulig'
p606
sg6
S'gray'
p607
sg8
(lp608
sg10
S'Possible'
p609
sg12
S'Most'
p610
sg14
g66
sg16
I0
sg17
S'Low'
p611
sg19
S'Liten tilleggsbelastning'
p612
sg21
Nsg22
S'200'
p613
sg24
S'2000'
p614
sg26
S'De fleste bratte heng, Ogsaa i mindre bratt terreng'
p615
sg28
Nsg29
g346
sg31
S'2 - Smaa'
p616
sba(irunmatrix
M3Element
p617
(dp618
g3
Nsg4
S'Lite sannsynlig, Mulig'
p619
sg6
S'gray'
p620
sg8
(lp621
sg10
S'Possible'
p622
sg12
S'Most'
p623
sg14
g66
sg16
I0
sg17
S'Nat'
p624
sg19
S'Naturlig utloest'
p625
sg21
Nsg22
S'200'
p626
sg24
S'2100'
p627
sg26
S'De fleste bratte heng, Ogsaa i mindre bratt terreng'
p628
sg28
Nsg29
g346
sg31
S'2 - Smaa'
p629
sba(irunmatrix
M3Element
p630
(dp631
g3
Nsg4
S'Sannsynlig, Meget sannsynlig'
p632
sg6
S'gray'
p633
sg8
(lp634
sg10
S'Likely'
p635
sg12
S'Most'
p636
sg14
g66
sg16
I0
sg17
S'High'
p637
sg19
S'Stor tilleggsbelastning'
p638
sg21
Nsg22
S'200'
p639
sg24
S'2200'
p640
sg26
S'De fleste bratte heng, Ogsaa i mindre bratt terreng'
p641
sg28
Nsg29
g346
sg31
S'2 - Smaa'
p642
sba(irunmatrix
M3Element
p643
(dp644
g3
Nsg4
S'Sannsynlig, Meget sannsynlig'
p645
sg6
S'gray'
p646
sg8
(lp647
sg10
S'Likely'
p648
sg12
S'Most'
p649
sg14
g66
sg16
I0
sg17
S'Low'
p650
sg19
S'Liten tilleggsbelastning'
p651
sg21
Nsg22
S'200'
p652
sg24
S'2300'
p653
sg26
S'De fleste bratte heng, Ogsaa i mindre bratt terreng'
p654
sg28
Nsg29
g346
sg31
S'2 - Smaa'
p655
sba(irunmatrix
M3Element
p656
(dp657
g3
Nsg4
S'Sannsynlig, Meget sannsynlig'
p658
sg6
S'white'
p659
sg8
(lp660
sg10
S'Likely'
p661
sg12
S'Most'
p662
sg14
g66
sg16
I0
sg17
S'Nat'
p663
sg19
S'Naturlig utloest'
p664
sg21
Nsg22
S'200'
p665
sg24
S'2400'
p666
sg26
S'De fleste bratte heng, Ogsaa i mindre bratt terreng'
p667
sg28
Nsg29
g346
sg31
S'2 - Smaa'
p668
sba(irunmatrix
M3Element
p669
(dp670
g3
Nsg4
S'Lite sannsynlig, Mulig'
p671
sg6
S'white'
p672
sg8
(lp673
sg10
S'Possible'
p674
sg12
S'Isolated'
p675
sg14
g15
sg16
I1
sg17
S'High'
p676
sg19
S'Stor tilleggsbelastning'
p677
sg21
Nsg22
S'300'
p678
sg24
S'100'
p679
sg26
S'Isolerte faresoner'
p680
sg28
Nsg29
S'3'
p681
sg31
S'3 - Middels'
p682
sba(irunmatrix
M3Element
p683
(dp684
g3
Nsg4
S'Lite sannsynlig, Mulig'
p685
sg6
S'white'
p686
sg8
(lp687
sg10
S'Possible'
p688
sg12
S'Isolated'
p689
sg14
g249
sg16
I2
sg17
S'Low'
p690
sg19
S'Liten tilleggsbelastning'
p691
sg21
Nsg22
S'300'
p692
sg24
S'200'
p693
sg26
S'Isolerte faresoner'
p694
sg28
Nsg29
g681
sg31
S'3 - Middels'
p695
sba(irunmatrix
M3Element
p696
(dp697
g3
Nsg4
S'Lite sannsynlig, Mulig'
p698
sg6
S'white'
p699
sg8
(lp700
sg10
S'Possible'
p701
sg12
S'Isolated'
p702
sg14
g249
sg16
I2
sg17
S'Nat'
p703
sg19
S'Naturlig utloest'
p704
sg21
Nsg22
S'300'
p705
sg24
S'300'
p706
sg26
S'Isolerte faresoner'
p707
sg28
Nsg29
g681
sg31
S'3 - Middels'
p708
sba(irunmatrix
M3Element
p709
(dp710
g3
Nsg4
S'Sannsynlig, Meget sannsynlig'
p711
sg6
S'gray'
p712
sg8
(lp713
sg10
S'Likely'
p714
sg12
S'Isolated'
p715
sg14
g66
sg16
I0
sg17
S'High'
p716
sg19
S'Stor tilleggsbelastning'
p717
sg21
Nsg22
S'300'
p718
sg24
S'400'
p719
sg26
S'Isolerte faresoner'
p720
sg28
Nsg29
g681
sg31
S'3 - Middels'
p721
sba(irunmatrix
M3Element
p722
(dp723
g3
Nsg4
S'Sannsynlig, Meget sannsynlig'
p724
sg6
S'gray'
p725
sg8
(lp726
sg10
S'Likely'
p727
sg12
S'Isolated'
p728
sg14
g66
sg16
I0
sg17
S'Low'
p729
sg19
S'Liten tilleggsbelastning'
p730
sg21
Nsg22
S'300'
p731
sg24
S'500'
p732
sg26
S'Isolerte faresoner'
p733
sg28
Nsg29
g681
sg31
S'3 - Middels'
p734
sba(irunmatrix
M3Element
p735
(dp736
g3
Nsg4
S'Sannsynlig, Meget sannsynlig'
p737
sg6
S'gray'
p738
sg8
(lp739
sg10
S'Likely'
p740
sg12
S'Isolated'
p741
sg14
g66
sg16
I0
sg17
S'Nat'
p742
sg19
S'Naturlig utloest'
p743
sg21
Nsg22
S'300'
p744
sg24
S'600'
p745
sg26
S'Isolerte faresoner'
p746
sg28
Nsg29
g681
sg31
S'3 - Middels'
p747
sba(irunmatrix
M3Element
p748
(dp749
g3
Nsg4
S'Lite sannsynlig, Mulig'
p750
sg6
S'white'
p751
sg8
(lp752
sg10
S'Possible'
p753
sg12
S'Some'
p754
sg14
g249
sg16
I2
sg17
S'High'
p755
sg19
S'Stor tilleggsbelastning'
p756
sg21
Nsg22
S'300'
p757
sg24
S'700'
p758
sg26
S'Noen bratte heng'
p759
sg28
Nsg29
g681
sg31
S'3 - Middels'
p760
sba(irunmatrix
M3Element
p761
(dp762
g3
F3.0
sg4
S'Lite sannsynlig, Mulig'
p763
sg6
g457
sg8
(lp764
I3
aI3
aI3
aI3
aI3
aI3
asg10
S'Possible'
p765
sg12
S'Some'
p766
sg14
g502
sg16
I3
sg17
S'Low'
p767
sg19
S'Liten tilleggsbelastning'
p768
sg21
I6
sg22
S'300'
p769
sg24
S'800'
p770
sg26
S'Noen bratte heng'
p771
sg28
g111
(g115
S'\x00\x00\x00\x00\x00\x00\x00\x00'
p772
tp773
Rp774
sg29
g681
sg31
S'3 - Middels'
p775
sba(irunmatrix
M3Element
p776
(dp777
g3
Nsg4
S'Lite sannsynlig, Mulig'
p778
sg6
S'white'
p779
sg8
(lp780
sg10
S'Possible'
p781
sg12
S'Some'
p782
sg14
g502
sg16
I3
sg17
S'Nat'
p783
sg19
S'Naturlig utloest'
p784
sg21
Nsg22
S'300'
p785
sg24
S'900'
p786
sg26
S'Noen bratte heng'
p787
sg28
Nsg29
g681
sg31
S'3 - Middels'
p788
sba(irunmatrix
M3Element
p789
(dp790
g3
Nsg4
S'Sannsynlig, Meget sannsynlig'
p791
sg6
S'gray'
p792
sg8
(lp793
sg10
S'Likely'
p794
sg12
S'Some'
p795
sg14
g66
sg16
I0
sg17
S'High'
p796
sg19
S'Stor tilleggsbelastning'
p797
sg21
Nsg22
S'300'
p798
sg24
S'1000'
p799
sg26
S'Noen bratte heng'
p800
sg28
Nsg29
g681
sg31
S'3 - Middels'
p801
sba(irunmatrix
M3Element
p802
(dp803
g3
Nsg4
S'Sannsynlig, Meget sannsynlig'
p804
sg6
S'gray'
p805
sg8
(lp806
sg10
S'Likely'
p807
sg12
S'Some'
p808
sg14
g66
sg16
I0
sg17
S'Low'
p809
sg19
S'Liten tilleggsbelastning'
p810
sg21
Nsg22
S'300'
p811
sg24
S'1100'
p812
sg26
S'Noen bratte heng'
p813
sg28
Nsg29
g681
sg31
S'3 - Middels'
p814
sba(irunmatrix
M3Element
p815
(dp816
g3
Nsg4
S'Sannsynlig, Meget sannsynlig'
p817
sg6
S'white'
p818
sg8
(lp819
sg10
S'Likely'
p820
sg12
S'Some'
p821
sg14
g571
sg16
I4
sg17
S'Nat'
p822
sg19
S'Naturlig utloest'
p823
sg21
Nsg22
S'300'
p824
sg24
S'1200'
p825
sg26
S'Noen bratte heng'
p826
sg28
Nsg29
g681
sg31
S'3 - Middels'
p827
sba(irunmatrix
M3Element
p828
(dp829
g3
Nsg4
S'Lite sannsynlig, Mulig'
p830
sg6
S'gray'
p831
sg8
(lp832
sg10
S'Possible'
p833
sg12
S'Many'
p834
sg14
g66
sg16
I0
sg17
S'High'
p835
sg19
S'Stor tilleggsbelastning'
p836
sg21
Nsg22
S'300'
p837
sg24
S'1300'
p838
sg26
S'Mange bratte heng'
p839
sg28
Nsg29
g681
sg31
S'3 - Middels'
p840
sba(irunmatrix
M3Element
p841
(dp842
g3
Nsg4
S'Lite sannsynlig, Mulig'
p843
sg6
S'white'
p844
sg8
(lp845
sg10
S'Possible'
p846
sg12
S'Many'
p847
sg14
g571
sg16
I4
sg17
S'Low'
p848
sg19
S'Liten tilleggsbelastning'
p849
sg21
Nsg22
S'300'
p850
sg24
S'1400'
p851
sg26
S'Mange bratte heng'
p852
sg28
Nsg29
g681
sg31
S'3 - Middels'
p853
sba(irunmatrix
M3Element
p854
(dp855
g3
Nsg4
S'Lite sannsynlig, Mulig'
p856
sg6
S'gray'
p857
sg8
(lp858
sg10
S'Possible'
p859
sg12
S'Many'
p860
sg14
g66
sg16
I0
sg17
S'Nat'
p861
sg19
S'Naturlig utloest'
p862
sg21
Nsg22
S'300'
p863
sg24
S'1500'
p864
sg26
S'Mange bratte heng'
p865
sg28
Nsg29
g681
sg31
S'3 - Middels'
p866
sba(irunmatrix
M3Element
p867
(dp868
g3
Nsg4
S'Sannsynlig, Meget sannsynlig'
p869
sg6
S'gray'
p870
sg8
(lp871
sg10
S'Likely'
p872
sg12
S'Many'
p873
sg14
g66
sg16
I0
sg17
S'High'
p874
sg19
S'Stor tilleggsbelastning'
p875
sg21
Nsg22
S'300'
p876
sg24
S'1600'
p877
sg26
S'Mange bratte heng'
p878
sg28
Nsg29
g681
sg31
S'3 - Middels'
p879
sba(irunmatrix
M3Element
p880
(dp881
g3
Nsg4
S'Sannsynlig, Meget sannsynlig'
p882
sg6
S'white'
p883
sg8
(lp884
sg10
S'Likely'
p885
sg12
S'Many'
p886
sg14
g571
sg16
I4
sg17
S'Low'
p887
sg19
S'Liten tilleggsbelastning'
p888
sg21
Nsg22
S'300'
p889
sg24
S'1700'
p890
sg26
S'Mange bratte heng'
p891
sg28
Nsg29
g681
sg31
S'3 - Middels'
p892
sba(irunmatrix
M3Element
p893
(dp894
g3
Nsg4
S'Sannsynlig, Meget sannsynlig'
p895
sg6
S'white'
p896
sg8
(lp897
sg10
S'Likely'
p898
sg12
S'Many'
p899
sg14
g571
sg16
I4
sg17
S'Nat'
p900
sg19
S'Naturlig utloest'
p901
sg21
Nsg22
S'300'
p902
sg24
S'1800'
p903
sg26
S'Mange bratte heng'
p904
sg28
Nsg29
g681
sg31
S'3 - Middels'
p905
sba(irunmatrix
M3Element
p906
(dp907
g3
Nsg4
S'Lite sannsynlig, Mulig'
p908
sg6
S'gray'
p909
sg8
(lp910
sg10
S'Possible'
p911
sg12
S'Most'
p912
sg14
g66
sg16
I0
sg17
S'High'
p913
sg19
S'Stor tilleggsbelastning'
p914
sg21
Nsg22
S'300'
p915
sg24
S'1900'
p916
sg26
S'De fleste bratte heng, Ogsaa i mindre bratt terreng'
p917
sg28
Nsg29
g681
sg31
S'3 - Middels'
p918
sba(irunmatrix
M3Element
p919
(dp920
g3
Nsg4
S'Lite sannsynlig, Mulig'
p921
sg6
S'gray'
p922
sg8
(lp923
sg10
S'Possible'
p924
sg12
S'Most'
p925
sg14
g66
sg16
I0
sg17
S'Low'
p926
sg19
S'Liten tilleggsbelastning'
p927
sg21
Nsg22
S'300'
p928
sg24
S'2000'
p929
sg26
S'De fleste bratte heng, Ogsaa i mindre bratt terreng'
p930
sg28
Nsg29
g681
sg31
S'3 - Middels'
p931
sba(irunmatrix
M3Element
p932
(dp933
g3
Nsg4
S'Lite sannsynlig, Mulig'
p934
sg6
S'gray'
p935
sg8
(lp936
sg10
S'Possible'
p937
sg12
S'Most'
p938
sg14
g66
sg16
I0
sg17
S'Nat'
p939
sg19
S'Naturlig utloest'
p940
sg21
Nsg22
S'300'
p941
sg24
S'2100'
p942
sg26
S'De fleste bratte heng, Ogsaa i mindre bratt terreng'
p943
sg28
Nsg29
g681
sg31
S'3 - Middels'
p944
sba(irunmatrix
M3Element
p945
(dp946
g3
Nsg4
S'Sannsynlig, Meget sannsynlig'
p947
sg6
S'gray'
p948
sg8
(lp949
sg10
S'Likely'
p950
sg12
S'Most'
p951
sg14
g66
sg16
I0
sg17
S'High'
p952
sg19
S'Stor tilleggsbelastning'
p953
sg21
Nsg22
S'300'
p954
sg24
S'2200'
p955
sg26
S'De fleste bratte heng, Ogsaa i mindre bratt terreng'
p956
sg28
Nsg29
g681
sg31
S'3 - Middels'
p957
sba(irunmatrix
M3Element
p958
(dp959
g3
Nsg4
S'Sannsynlig, Meget sannsynlig'
p960
sg6
S'gray'
p961
sg8
(lp962
sg10
S'Likely'
p963
sg12
S'Most'
p964
sg14
g66
sg16
I0
sg17
S'Low'
p965
sg19
S'Liten tilleggsbelastning'
p966
sg21
Nsg22
S'300'
p967
sg24
S'2300'
p968
sg26
S'De fleste bratte heng, Ogsaa i mindre bratt terreng'
p969
sg28
Nsg29
g681
sg31
S'3 - Middels'
p970
sba(irunmatrix
M3Element
p971
(dp972
g3
Nsg4
S'Sannsynlig, Meget sannsynlig'
p973
sg6
S'white'
p974
sg8
(lp975
sg10
S'Likely'
p976
sg12
S'Most'
p977
sg14
g66
sg16
I0
sg17
S'Nat'
p978
sg19
S'Naturlig utloest'
p979
sg21
Nsg22
S'300'
p980
sg24
S'2400'
p981
sg26
S'De fleste bratte heng, Ogsaa i mindre bratt terreng'
p982
sg28
Nsg29
g681
sg31
S'3 - Middels'
p983
sba(irunmatrix
M3Element
p984
(dp985
g3
Nsg4
S'Lite sannsynlig, Mulig'
p986
sg6
S'white'
p987
sg8
(lp988
sg10
S'Possible'
p989
sg12
S'Isolated'
p990
sg14
g249
sg16
I2
sg17
S'High'
p991
sg19
S'Stor tilleggsbelastning'
p992
sg21
Nsg22
S'400'
p993
sg24
S'100'
p994
sg26
S'Isolerte faresoner'
p995
sg28
Nsg29
S'4'
p996
sg31
S'4 - Store'
p997
sba(irunmatrix
M3Element
p998
(dp999
g3
Nsg4
S'Lite sannsynlig, Mulig'
p1000
sg6
S'white'
p1001
sg8
(lp1002
sg10
S'Possible'
p1003
sg12
S'Isolated'
p1004
sg14
g502
sg16
I3
sg17
S'Low'
p1005
sg19
S'Liten tilleggsbelastning'
p1006
sg21
Nsg22
S'400'
p1007
sg24
S'200'
p1008
sg26
S'Isolerte faresoner'
p1009
sg28
Nsg29
g996
sg31
S'4 - Store'
p1010
sba(irunmatrix
M3Element
p1011
(dp1012
g3
Nsg4
S'Lite sannsynlig, Mulig'
p1013
sg6
S'white'
p1014
sg8
(lp1015
sg10
S'Possible'
p1016
sg12
S'Isolated'
p1017
sg14
g502
sg16
I3
sg17
S'Nat'
p1018
sg19
S'Naturlig utloest'
p1019
sg21
Nsg22
S'400'
p1020
sg24
S'300'
p1021
sg26
S'Isolerte faresoner'
p1022
sg28
Nsg29
g996
sg31
S'4 - Store'
p1023
sba(irunmatrix
M3Element
p1024
(dp1025
g3
Nsg4
S'Sannsynlig, Meget sannsynlig'
p1026
sg6
S'gray'
p1027
sg8
(lp1028
sg10
S'Likely'
p1029
sg12
S'Isolated'
p1030
sg14
g66
sg16
I0
sg17
S'High'
p1031
sg19
S'Stor tilleggsbelastning'
p1032
sg21
Nsg22
S'400'
p1033
sg24
S'400'
p1034
sg26
S'Isolerte faresoner'
p1035
sg28
Nsg29
g996
sg31
S'4 - Store'
p1036
sba(irunmatrix
M3Element
p1037
(dp1038
g3
Nsg4
S'Sannsynlig, Meget sannsynlig'
p1039
sg6
S'gray'
p1040
sg8
(lp1041
sg10
S'Likely'
p1042
sg12
S'Isolated'
p1043
sg14
g66
sg16
I0
sg17
S'Low'
p1044
sg19
S'Liten tilleggsbelastning'
p1045
sg21
Nsg22
S'400'
p1046
sg24
S'500'
p1047
sg26
S'Isolerte faresoner'
p1048
sg28
Nsg29
g996
sg31
S'4 - Store'
p1049
sba(irunmatrix
M3Element
p1050
(dp1051
g3
Nsg4
S'Sannsynlig, Meget sannsynlig'
p1052
sg6
S'gray'
p1053
sg8
(lp1054
sg10
S'Likely'
p1055
sg12
S'Isolated'
p1056
sg14
g66
sg16
I0
sg17
S'Nat'
p1057
sg19
S'Naturlig utloest'
p1058
sg21
Nsg22
S'400'
p1059
sg24
S'600'
p1060
sg26
S'Isolerte faresoner'
p1061
sg28
Nsg29
g996
sg31
S'4 - Store'
p1062
sba(irunmatrix
M3Element
p1063
(dp1064
g3
Nsg4
S'Lite sannsynlig, Mulig'
p1065
sg6
S'white'
p1066
sg8
(lp1067
sg10
S'Possible'
p1068
sg12
S'Some'
p1069
sg14
g502
sg16
I3
sg17
S'High'
p1070
sg19
S'Stor tilleggsbelastning'
p1071
sg21
Nsg22
S'400'
p1072
sg24
S'700'
p1073
sg26
S'Noen bratte heng'
p1074
sg28
Nsg29
g996
sg31
S'4 - Store'
p1075
sba(irunmatrix
M3Element
p1076
(dp1077
g3
Nsg4
S'Lite sannsynlig, Mulig'
p1078
sg6
S'white'
p1079
sg8
(lp1080
sg10
S'Possible'
p1081
sg12
S'Some'
p1082
sg14
g571
sg16
I4
sg17
S'Low'
p1083
sg19
S'Liten tilleggsbelastning'
p1084
sg21
Nsg22
S'400'
p1085
sg24
S'800'
p1086
sg26
S'Noen bratte heng'
p1087
sg28
Nsg29
g996
sg31
S'4 - Store'
p1088
sba(irunmatrix
M3Element
p1089
(dp1090
g3
Nsg4
S'Lite sannsynlig, Mulig'
p1091
sg6
S'white'
p1092
sg8
(lp1093
sg10
S'Possible'
p1094
sg12
S'Some'
p1095
sg14
g571
sg16
I4
sg17
S'Nat'
p1096
sg19
S'Naturlig utloest'
p1097
sg21
Nsg22
S'400'
p1098
sg24
S'900'
p1099
sg26
S'Noen bratte heng'
p1100
sg28
Nsg29
g996
sg31
S'4 - Store'
p1101
sba(irunmatrix
M3Element
p1102
(dp1103
g3
Nsg4
S'Sannsynlig, Meget sannsynlig'
p1104
sg6
S'gray'
p1105
sg8
(lp1106
sg10
S'Likely'
p1107
sg12
S'Some'
p1108
sg14
g66
sg16
I0
sg17
S'High'
p1109
sg19
S'Stor tilleggsbelastning'
p1110
sg21
Nsg22
S'400'
p1111
sg24
S'1000'
p1112
sg26
S'Noen bratte heng'
p1113
sg28
Nsg29
g996
sg31
S'4 - Store'
p1114
sba(irunmatrix
M3Element
p1115
(dp1116
g3
Nsg4
S'Sannsynlig, Meget sannsynlig'
p1117
sg6
S'gray'
p1118
sg8
(lp1119
sg10
S'Likely'
p1120
sg12
S'Some'
p1121
sg14
g66
sg16
I0
sg17
S'Low'
p1122
sg19
S'Liten tilleggsbelastning'
p1123
sg21
Nsg22
S'400'
p1124
sg24
S'1100'
p1125
sg26
S'Noen bratte heng'
p1126
sg28
Nsg29
g996
sg31
S'4 - Store'
p1127
sba(irunmatrix
M3Element
p1128
(dp1129
g3
Nsg4
S'Sannsynlig, Meget sannsynlig'
p1130
sg6
S'white'
p1131
sg8
(lp1132
sg10
S'Likely'
p1133
sg12
S'Some'
p1134
sg14
g571
sg16
I4
sg17
S'Nat'
p1135
sg19
S'Naturlig utloest'
p1136
sg21
Nsg22
S'400'
p1137
sg24
S'1200'
p1138
sg26
S'Noen bratte heng'
p1139
sg28
Nsg29
g996
sg31
S'4 - Store'
p1140
sba(irunmatrix
M3Element
p1141
(dp1142
g3
Nsg4
S'Lite sannsynlig, Mulig'
p1143
sg6
S'gray'
p1144
sg8
(lp1145
sg10
S'Possible'
p1146
sg12
S'Many'
p1147
sg14
g66
sg16
I0
sg17
S'High'
p1148
sg19
S'Stor tilleggsbelastning'
p1149
sg21
Nsg22
S'400'
p1150
sg24
S'1300'
p1151
sg26
S'Mange bratte heng'
p1152
sg28
Nsg29
g996
sg31
S'4 - Store'
p1153
sba(irunmatrix
M3Element
p1154
(dp1155
g3
Nsg4
S'Lite sannsynlig, Mulig'
p1156
sg6
S'white'
p1157
sg8
(lp1158
sg10
S'Possible'
p1159
sg12
S'Many'
p1160
sg14
g66
sg16
I0
sg17
S'Low'
p1161
sg19
S'Liten tilleggsbelastning'
p1162
sg21
Nsg22
S'400'
p1163
sg24
S'1400'
p1164
sg26
S'Mange bratte heng'
p1165
sg28
Nsg29
g996
sg31
S'4 - Store'
p1166
sba(irunmatrix
M3Element
p1167
(dp1168
g3
Nsg4
S'Lite sannsynlig, Mulig'
p1169
sg6
S'gray'
p1170
sg8
(lp1171
sg10
S'Possible'
p1172
sg12
S'Many'
p1173
sg14
g66
sg16
I0
sg17
S'Nat'
p1174
sg19
S'Naturlig utloest'
p1175
sg21
Nsg22
S'400'
p1176
sg24
S'1500'
p1177
sg26
S'Mange bratte heng'
p1178
sg28
Nsg29
g996
sg31
S'4 - Store'
p1179
sba(irunmatrix
M3Element
p1180
(dp1181
g3
Nsg4
S'Sannsynlig, Meget sannsynlig'
p1182
sg6
S'gray'
p1183
sg8
(lp1184
sg10
S'Likely'
p1185
sg12
S'Many'
p1186
sg14
g66
sg16
I0
sg17
S'High'
p1187
sg19
S'Stor tilleggsbelastning'
p1188
sg21
Nsg22
S'400'
p1189
sg24
S'1600'
p1190
sg26
S'Mange bratte heng'
p1191
sg28
Nsg29
g996
sg31
S'4 - Store'
p1192
sba(irunmatrix
M3Element
p1193
(dp1194
g3
Nsg4
S'Sannsynlig, Meget sannsynlig'
p1195
sg6
S'white'
p1196
sg8
(lp1197
sg10
S'Likely'
p1198
sg12
S'Many'
p1199
sg14
g66
sg16
I0
sg17
S'Low'
p1200
sg19
S'Liten tilleggsbelastning'
p1201
sg21
Nsg22
S'400'
p1202
sg24
S'1700'
p1203
sg26
S'Mange bratte heng'
p1204
sg28
Nsg29
g996
sg31
S'4 - Store'
p1205
sba(irunmatrix
M3Element
p1206
(dp1207
g3
Nsg4
S'Sannsynlig, Meget sannsynlig'
p1208
sg6
S'white'
p1209
sg8
(lp1210
sg10
S'Likely'
p1211
sg12
S'Many'
p1212
sg14
S'k'
p1213
sg16
I5
sg17
S'Nat'
p1214
sg19
S'Naturlig utloest'
p1215
sg21
Nsg22
S'400'
p1216
sg24
S'1800'
p1217
sg26
S'Mange bratte heng'
p1218
sg28
Nsg29
g996
sg31
S'4 - Store'
p1219
sba(irunmatrix
M3Element
p1220
(dp1221
g3
Nsg4
S'Lite sannsynlig, Mulig'
p1222
sg6
S'gray'
p1223
sg8
(lp1224
sg10
S'Possible'
p1225
sg12
S'Most'
p1226
sg14
g66
sg16
I0
sg17
S'High'
p1227
sg19
S'Stor tilleggsbelastning'
p1228
sg21
Nsg22
S'400'
p1229
sg24
S'1900'
p1230
sg26
S'De fleste bratte heng, Ogsaa i mindre bratt terreng'
p1231
sg28
Nsg29
g996
sg31
S'4 - Store'
p1232
sba(irunmatrix
M3Element
p1233
(dp1234
g3
Nsg4
S'Lite sannsynlig, Mulig'
p1235
sg6
S'gray'
p1236
sg8
(lp1237
sg10
S'Possible'
p1238
sg12
S'Most'
p1239
sg14
g66
sg16
I0
sg17
S'Low'
p1240
sg19
S'Liten tilleggsbelastning'
p1241
sg21
Nsg22
S'400'
p1242
sg24
S'2000'
p1243
sg26
S'De fleste bratte heng, Ogsaa i mindre bratt terreng'
p1244
sg28
Nsg29
g996
sg31
S'4 - Store'
p1245
sba(irunmatrix
M3Element
p1246
(dp1247
g3
Nsg4
S'Lite sannsynlig, Mulig'
p1248
sg6
S'gray'
p1249
sg8
(lp1250
sg10
S'Possible'
p1251
sg12
S'Most'
p1252
sg14
g66
sg16
I0
sg17
S'Nat'
p1253
sg19
S'Naturlig utloest'
p1254
sg21
Nsg22
S'400'
p1255
sg24
S'2100'
p1256
sg26
S'De fleste bratte heng, Ogsaa i mindre bratt terreng'
p1257
sg28
Nsg29
g996
sg31
S'4 - Store'
p1258
sba(irunmatrix
M3Element
p1259
(dp1260
g3
Nsg4
S'Sannsynlig, Meget sannsynlig'
p1261
sg6
S'gray'
p1262
sg8
(lp1263
sg10
S'Likely'
p1264
sg12
S'Most'
p1265
sg14
g66
sg16
I0
sg17
S'High'
p1266
sg19
S'Stor tilleggsbelastning'
p1267
sg21
Nsg22
S'400'
p1268
sg24
S'2200'
p1269
sg26
S'De fleste bratte heng, Ogsaa i mindre bratt terreng'
p1270
sg28
Nsg29
g996
sg31
S'4 - Store'
p1271
sba(irunmatrix
M3Element
p1272
(dp1273
g3
Nsg4
S'Sannsynlig, Meget sannsynlig'
p1274
sg6
S'gray'
p1275
sg8
(lp1276
sg10
S'Likely'
p1277
sg12
S'Most'
p1278
sg14
g66
sg16
I0
sg17
S'Low'
p1279
sg19
S'Liten tilleggsbelastning'
p1280
sg21
Nsg22
S'400'
p1281
sg24
S'2300'
p1282
sg26
S'De fleste bratte heng, Ogsaa i mindre bratt terreng'
p1283
sg28
Nsg29
g996
sg31
S'4 - Store'
p1284
sba(irunmatrix
M3Element
p1285
(dp1286
g3
Nsg4
S'Sannsynlig, Meget sannsynlig'
p1287
sg6
S'white'
p1288
sg8
(lp1289
sg10
S'Likely'
p1290
sg12
S'Most'
p1291
sg14
g66
sg16
I0
sg17
S'Nat'
p1292
sg19
S'Naturlig utloest'
p1293
sg21
Nsg22
S'400'
p1294
sg24
S'2400'
p1295
sg26
S'De fleste bratte heng, Ogsaa i mindre bratt terreng'
p1296
sg28
Nsg29
g996
sg31
S'4 - Store'
p1297
sba(irunmatrix
M3Element
p1298
(dp1299
g3
Nsg4
S'Lite sannsynlig, Mulig'
p1300
sg6
S'white'
p1301
sg8
(lp1302
sg10
S'Possible'
p1303
sg12
S'Isolated'
p1304
sg14
g66
sg16
I0
sg17
S'High'
p1305
sg19
S'Stor tilleggsbelastning'
p1306
sg21
Nsg22
S'500'
p1307
sg24
S'100'
p1308
sg26
S'Isolerte faresoner'
p1309
sg28
Nsg29
S'5'
p1310
sg31
S'5 - Svaert store'
p1311
sba(irunmatrix
M3Element
p1312
(dp1313
g3
Nsg4
S'Lite sannsynlig, Mulig'
p1314
sg6
S'white'
p1315
sg8
(lp1316
sg10
S'Possible'
p1317
sg12
S'Isolated'
p1318
sg14
g66
sg16
I0
sg17
S'Low'
p1319
sg19
S'Liten tilleggsbelastning'
p1320
sg21
Nsg22
S'500'
p1321
sg24
S'200'
p1322
sg26
S'Isolerte faresoner'
p1323
sg28
Nsg29
g1310
sg31
S'5 - Svaert store'
p1324
sba(irunmatrix
M3Element
p1325
(dp1326
g3
Nsg4
S'Lite sannsynlig, Mulig'
p1327
sg6
S'white'
p1328
sg8
(lp1329
sg10
S'Possible'
p1330
sg12
S'Isolated'
p1331
sg14
g66
sg16
I0
sg17
S'Nat'
p1332
sg19
S'Naturlig utloest'
p1333
sg21
Nsg22
S'500'
p1334
sg24
S'300'
p1335
sg26
S'Isolerte faresoner'
p1336
sg28
Nsg29
g1310
sg31
S'5 - Svaert store'
p1337
sba(irunmatrix
M3Element
p1338
(dp1339
g3
Nsg4
S'Sannsynlig, Meget sannsynlig'
p1340
sg6
S'gray'
p1341
sg8
(lp1342
sg10
S'Likely'
p1343
sg12
S'Isolated'
p1344
sg14
g66
sg16
I0
sg17
S'High'
p1345
sg19
S'Stor tilleggsbelastning'
p1346
sg21
Nsg22
S'500'
p1347
sg24
S'400'
p1348
sg26
S'Isolerte faresoner'
p1349
sg28
Nsg29
g1310
sg31
S'5 - Svaert store'
p1350
sba(irunmatrix
M3Element
p1351
(dp1352
g3
Nsg4
S'Sannsynlig, Meget sannsynlig'
p1353
sg6
S'gray'
p1354
sg8
(lp1355
sg10
S'Likely'
p1356
sg12
S'Isolated'
p1357
sg14
g66
sg16
I0
sg17
S'Low'
p1358
sg19
S'Liten tilleggsbelastning'
p1359
sg21
Nsg22
S'500'
p1360
sg24
S'500'
p1361
sg26
S'Isolerte faresoner'
p1362
sg28
Nsg29
g1310
sg31
S'5 - Svaert store'
p1363
sba(irunmatrix
M3Element
p1364
(dp1365
g3
Nsg4
S'Sannsynlig, Meget sannsynlig'
p1366
sg6
S'gray'
p1367
sg8
(lp1368
sg10
S'Likely'
p1369
sg12
S'Isolated'
p1370
sg14
g66
sg16
I0
sg17
S'Nat'
p1371
sg19
S'Naturlig utloest'
p1372
sg21
Nsg22
S'500'
p1373
sg24
S'600'
p1374
sg26
S'Isolerte faresoner'
p1375
sg28
Nsg29
g1310
sg31
S'5 - Svaert store'
p1376
sba(irunmatrix
M3Element
p1377
(dp1378
g3
Nsg4
S'Lite sannsynlig, Mulig'
p1379
sg6
S'white'
p1380
sg8
(lp1381
sg10
S'Possible'
p1382
sg12
S'Some'
p1383
sg14
g66
sg16
I0
sg17
S'High'
p1384
sg19
S'Stor tilleggsbelastning'
p1385
sg21
Nsg22
S'500'
p1386
sg24
S'700'
p1387
sg26
S'Noen bratte heng'
p1388
sg28
Nsg29
g1310
sg31
S'5 - Svaert store'
p1389
sba(irunmatrix
M3Element
p1390
(dp1391
g3
Nsg4
S'Lite sannsynlig, Mulig'
p1392
sg6
S'white'
p1393
sg8
(lp1394
sg10
S'Possible'
p1395
sg12
S'Some'
p1396
sg14
g66
sg16
I0
sg17
S'Low'
p1397
sg19
S'Liten tilleggsbelastning'
p1398
sg21
Nsg22
S'500'
p1399
sg24
S'800'
p1400
sg26
S'Noen bratte heng'
p1401
sg28
Nsg29
g1310
sg31
S'5 - Svaert store'
p1402
sba(irunmatrix
M3Element
p1403
(dp1404
g3
Nsg4
S'Lite sannsynlig, Mulig'
p1405
sg6
S'white'
p1406
sg8
(lp1407
sg10
S'Possible'
p1408
sg12
S'Some'
p1409
sg14
g66
sg16
I0
sg17
S'Nat'
p1410
sg19
S'Naturlig utloest'
p1411
sg21
Nsg22
S'500'
p1412
sg24
S'900'
p1413
sg26
S'Noen bratte heng'
p1414
sg28
Nsg29
g1310
sg31
S'5 - Svaert store'
p1415
sba(irunmatrix
M3Element
p1416
(dp1417
g3
Nsg4
S'Sannsynlig, Meget sannsynlig'
p1418
sg6
S'gray'
p1419
sg8
(lp1420
sg10
S'Likely'
p1421
sg12
S'Some'
p1422
sg14
g66
sg16
I0
sg17
S'High'
p1423
sg19
S'Stor tilleggsbelastning'
p1424
sg21
Nsg22
S'500'
p1425
sg24
S'1000'
p1426
sg26
S'Noen bratte heng'
p1427
sg28
Nsg29
g1310
sg31
S'5 - Svaert store'
p1428
sba(irunmatrix
M3Element
p1429
(dp1430
g3
Nsg4
S'Sannsynlig, Meget sannsynlig'
p1431
sg6
S'gray'
p1432
sg8
(lp1433
sg10
S'Likely'
p1434
sg12
S'Some'
p1435
sg14
g66
sg16
I0
sg17
S'Low'
p1436
sg19
S'Liten tilleggsbelastning'
p1437
sg21
Nsg22
S'500'
p1438
sg24
S'1100'
p1439
sg26
S'Noen bratte heng'
p1440
sg28
Nsg29
g1310
sg31
S'5 - Svaert store'
p1441
sba(irunmatrix
M3Element
p1442
(dp1443
g3
Nsg4
S'Sannsynlig, Meget sannsynlig'
p1444
sg6
S'white'
p1445
sg8
(lp1446
sg10
S'Likely'
p1447
sg12
S'Some'
p1448
sg14
g66
sg16
I0
sg17
S'Nat'
p1449
sg19
S'Naturlig utloest'
p1450
sg21
Nsg22
S'500'
p1451
sg24
S'1200'
p1452
sg26
S'Noen bratte heng'
p1453
sg28
Nsg29
g1310
sg31
S'5 - Svaert store'
p1454
sba(irunmatrix
M3Element
p1455
(dp1456
g3
Nsg4
S'Lite sannsynlig, Mulig'
p1457
sg6
S'gray'
p1458
sg8
(lp1459
sg10
S'Possible'
p1460
sg12
S'Many'
p1461
sg14
g66
sg16
I0
sg17
S'High'
p1462
sg19
S'Stor tilleggsbelastning'
p1463
sg21
Nsg22
S'500'
p1464
sg24
S'1300'
p1465
sg26
S'Mange bratte heng'
p1466
sg28
Nsg29
g1310
sg31
S'5 - Svaert store'
p1467
sba(irunmatrix
M3Element
p1468
(dp1469
g3
Nsg4
S'Lite sannsynlig, Mulig'
p1470
sg6
S'white'
p1471
sg8
(lp1472
sg10
S'Possible'
p1473
sg12
S'Many'
p1474
sg14
g66
sg16
I0
sg17
S'Low'
p1475
sg19
S'Liten tilleggsbelastning'
p1476
sg21
Nsg22
S'500'
p1477
sg24
S'1400'
p1478
sg26
S'Mange bratte heng'
p1479
sg28
Nsg29
g1310
sg31
S'5 - Svaert store'
p1480
sba(irunmatrix
M3Element
p1481
(dp1482
g3
Nsg4
S'Lite sannsynlig, Mulig'
p1483
sg6
S'gray'
p1484
sg8
(lp1485
sg10
S'Possible'
p1486
sg12
S'Many'
p1487
sg14
g66
sg16
I0
sg17
S'Nat'
p1488
sg19
S'Naturlig utloest'
p1489
sg21
Nsg22
S'500'
p1490
sg24
S'1500'
p1491
sg26
S'Mange bratte heng'
p1492
sg28
Nsg29
g1310
sg31
S'5 - Svaert store'
p1493
sba(irunmatrix
M3Element
p1494
(dp1495
g3
Nsg4
S'Sannsynlig, Meget sannsynlig'
p1496
sg6
S'gray'
p1497
sg8
(lp1498
sg10
S'Likely'
p1499
sg12
S'Many'
p1500
sg14
g66
sg16
I0
sg17
S'High'
p1501
sg19
S'Stor tilleggsbelastning'
p1502
sg21
Nsg22
S'500'
p1503
sg24
S'1600'
p1504
sg26
S'Mange bratte heng'
p1505
sg28
Nsg29
g1310
sg31
S'5 - Svaert store'
p1506
sba(irunmatrix
M3Element
p1507
(dp1508
g3
Nsg4
S'Sannsynlig, Meget sannsynlig'
p1509
sg6
S'white'
p1510
sg8
(lp1511
sg10
S'Likely'
p1512
sg12
S'Many'
p1513
sg14
g66
sg16
I0
sg17
S'Low'
p1514
sg19
S'Liten tilleggsbelastning'
p1515
sg21
Nsg22
S'500'
p1516
sg24
S'1700'
p1517
sg26
S'Mange bratte heng'
p1518
sg28
Nsg29
g1310
sg31
S'5 - Svaert store'
p1519
sba(irunmatrix
M3Element
p1520
(dp1521
g3
Nsg4
S'Sannsynlig, Meget sannsynlig'
p1522
sg6
S'white'
p1523
sg8
(lp1524
sg10
S'Likely'
p1525
sg12
S'Many'
p1526
sg14
g1213
sg16
I5
sg17
S'Nat'
p1527
sg19
S'Naturlig utloest'
p1528
sg21
Nsg22
S'500'
p1529
sg24
S'1800'
p1530
sg26
S'Mange bratte heng'
p1531
sg28
Nsg29
g1310
sg31
S'5 - Svaert store'
p1532
sba(irunmatrix
M3Element
p1533
(dp1534
g3
Nsg4
S'Lite sannsynlig, Mulig'
p1535
sg6
S'gray'
p1536
sg8
(lp1537
sg10
S'Possible'
p1538
sg12
S'Most'
p1539
sg14
g66
sg16
I0
sg17
S'High'
p1540
sg19
S'Stor tilleggsbelastning'
p1541
sg21
Nsg22
S'500'
p1542
sg24
S'1900'
p1543
sg26
S'De fleste bratte heng, Ogsaa i mindre bratt terreng'
p1544
sg28
Nsg29
g1310
sg31
S'5 - Svaert store'
p1545
sba(irunmatrix
M3Element
p1546
(dp1547
g3
Nsg4
S'Lite sannsynlig, Mulig'
p1548
sg6
S'gray'
p1549
sg8
(lp1550
sg10
S'Possible'
p1551
sg12
S'Most'
p1552
sg14
g66
sg16
I0
sg17
S'Low'
p1553
sg19
S'Liten tilleggsbelastning'
p1554
sg21
Nsg22
S'500'
p1555
sg24
S'2000'
p1556
sg26
S'De fleste bratte heng, Ogsaa i mindre bratt terreng'
p1557
sg28
Nsg29
g1310
sg31
S'5 - Svaert store'
p1558
sba(irunmatrix
M3Element
p1559
(dp1560
g3
Nsg4
S'Lite sannsynlig, Mulig'
p1561
sg6
S'gray'
p1562
sg8
(lp1563
sg10
S'Possible'
p1564
sg12
S'Most'
p1565
sg14
g66
sg16
I0
sg17
S'Nat'
p1566
sg19
S'Naturlig utloest'
p1567
sg21
Nsg22
S'500'
p1568
sg24
S'2100'
p1569
sg26
S'De fleste bratte heng, Ogsaa i mindre bratt terreng'
p1570
sg28
Nsg29
g1310
sg31
S'5 - Svaert store'
p1571
sba(irunmatrix
M3Element
p1572
(dp1573
g3
Nsg4
S'Sannsynlig, Meget sannsynlig'
p1574
sg6
S'gray'
p1575
sg8
(lp1576
sg10
S'Likely'
p1577
sg12
S'Most'
p1578
sg14
g66
sg16
I0
sg17
S'High'
p1579
sg19
S'Stor tilleggsbelastning'
p1580
sg21
Nsg22
S'500'
p1581
sg24
S'2200'
p1582
sg26
S'De fleste bratte heng, Ogsaa i mindre bratt terreng'
p1583
sg28
Nsg29
g1310
sg31
S'5 - Svaert store'
p1584
sba(irunmatrix
M3Element
p1585
(dp1586
g3
Nsg4
S'Sannsynlig, Meget sannsynlig'
p1587
sg6
S'gray'
p1588
sg8
(lp1589
sg10
S'Likely'
p1590
sg12
S'Most'
p1591
sg14
g66
sg16
I0
sg17
S'Low'
p1592
sg19
S'Liten tilleggsbelastning'
p1593
sg21
Nsg22
S'500'
p1594
sg24
S'2300'
p1595
sg26
S'De fleste bratte heng, Ogsaa i mindre bratt terreng'
p1596
sg28
Nsg29
g1310
sg31
S'5 - Svaert store'
p1597
sba(irunmatrix
M3Element
p1598
(dp1599
g3
Nsg4
S'Sannsynlig, Meget sannsynlig'
p1600
sg6
S'white'
p1601
sg8
(lp1602
sg10
S'Likely'
p1603
sg12
S'Most'
p1604
sg14
g66
sg16
I0
sg17
S'Nat'
p1605
sg19
S'Naturlig utloest'
p1606
sg21
Nsg22
S'500'
p1607
sg24
S'2400'
p1608
sg26
S'De fleste bratte heng, Ogsaa i mindre bratt terreng'
p1609
sg28
Nsg29
g1310
sg31
S'5 - Svaert store'
p1610
sba.