(dp0
S'trigger'
p1
(dp2
S'keys'
p3
(lp4
S'Stor tilleggsbelastning'
p5
aS'Liten tilleggsbelastning'
p6
aS'Naturlig utloest'
p7
asS'colors'
p8
(lp9
S'0.7'
p10
asS'values'
p11
(lp12
S'Liten tilleggsbelastning'
p13
aS'Liten tilleggsbelastning'
p14
aS'Liten tilleggsbelastning'
p15
aS'Liten tilleggsbelastning'
p16
aS'Stor tilleggsbelastning'
p17
aS'Liten tilleggsbelastning'
p18
aS'Liten tilleggsbelastning'
p19
aS'Liten tilleggsbelastning'
p20
aS'Stor tilleggsbelastning'
p21
aS'Liten tilleggsbelastning'
p22
aS'Stor tilleggsbelastning'
p23
aS'Stor tilleggsbelastning'
p24
aS'Liten tilleggsbelastning'
p25
aS'Liten tilleggsbelastning'
p26
aS'Liten tilleggsbelastning'
p27
aS'Liten tilleggsbelastning'
p28
aS'Liten tilleggsbelastning'
p29
aS'Liten tilleggsbelastning'
p30
aS'Liten tilleggsbelastning'
p31
aS'Stor tilleggsbelastning'
p32
aS'Stor tilleggsbelastning'
p33
aS'Stor tilleggsbelastning'
p34
aS'Stor tilleggsbelastning'
p35
aS'Stor tilleggsbelastning'
p36
aS'Stor tilleggsbelastning'
p37
aS'Liten tilleggsbelastning'
p38
aS'Liten tilleggsbelastning'
p39
aS'Naturlig utloest'
p40
aS'Naturlig utloest'
p41
aS'Naturlig utloest'
p42
aS'Naturlig utloest'
p43
aS'Naturlig utloest'
p44
aS'Naturlig utloest'
p45
aS'Naturlig utloest'
p46
aS'Stor tilleggsbelastning'
p47
aS'Stor tilleggsbelastning'
p48
aS'Naturlig utloest'
p49
aS'Naturlig utloest'
p50
aS'Naturlig utloest'
p51
aS'Naturlig utloest'
p52
aS'Naturlig utloest'
p53
aS'Naturlig utloest'
p54
aS'Naturlig utloest'
p55
aS'Naturlig utloest'
p56
aS'Naturlig utloest'
p57
aS'Naturlig utloest'
p58
aS'Naturlig utloest'
p59
aS'Naturlig utloest'
p60
aS'Naturlig utloest'
p61
aS'Naturlig utloest'
p62
aS'Liten tilleggsbelastning'
p63
aS'Liten tilleggsbelastning'
p64
aS'Naturlig utloest'
p65
aS'Naturlig utloest'
p66
aS'Naturlig utloest'
p67
aS'Naturlig utloest'
p68
aS'Naturlig utloest'
p69
aS'Naturlig utloest'
p70
aS'Naturlig utloest'
p71
aS'Naturlig utloest'
p72
assS'distribution'
p73
(dp74
g3
(lp75
S'Isolerte faresoner'
p76
aS'Noen bratte heng'
p77
aS'Mange bratte heng'
p78
aS'De fleste bratte heng'
p79
aS'Ogsaa i mindre bratt terreng'
p80
asg8
(lp81
g10
asg11
(lp82
S'Noen bratte heng'
p83
aS'Noen bratte heng'
p84
aS'Noen bratte heng'
p85
aS'Noen bratte heng'
p86
aS'Noen bratte heng'
p87
aS'Isolerte faresoner'
p88
aS'Noen bratte heng'
p89
aS'Isolerte faresoner'
p90
aS'Noen bratte heng'
p91
aS'Noen bratte heng'
p92
aS'Noen bratte heng'
p93
aS'Isolerte faresoner'
p94
aS'Isolerte faresoner'
p95
aS'Isolerte faresoner'
p96
aS'Isolerte faresoner'
p97
aS'Noen bratte heng'
p98
aS'Noen bratte heng'
p99
aS'Isolerte faresoner'
p100
aS'Isolerte faresoner'
p101
aS'Noen bratte heng'
p102
aS'Noen bratte heng'
p103
aS'Noen bratte heng'
p104
aS'Noen bratte heng'
p105
aS'Noen bratte heng'
p106
aS'Isolerte faresoner'
p107
aS'Noen bratte heng'
p108
aS'Noen bratte heng'
p109
aS'Noen bratte heng'
p110
aS'Noen bratte heng'
p111
aS'Noen bratte heng'
p112
aS'Noen bratte heng'
p113
aS'Noen bratte heng'
p114
aS'Noen bratte heng'
p115
aS'Noen bratte heng'
p116
aS'Noen bratte heng'
p117
aS'Noen bratte heng'
p118
aS'Noen bratte heng'
p119
aS'Noen bratte heng'
p120
aS'Noen bratte heng'
p121
aS'Noen bratte heng'
p122
aS'Noen bratte heng'
p123
aS'Noen bratte heng'
p124
aS'Noen bratte heng'
p125
aS'Noen bratte heng'
p126
aS'Noen bratte heng'
p127
aS'Noen bratte heng'
p128
aS'Noen bratte heng'
p129
aS'Noen bratte heng'
p130
aS'Noen bratte heng'
p131
aS'Noen bratte heng'
p132
aS'Isolerte faresoner'
p133
aS'Isolerte faresoner'
p134
aS'Noen bratte heng'
p135
aS'Noen bratte heng'
p136
aS'Noen bratte heng'
p137
aS'Noen bratte heng'
p138
aS'Noen bratte heng'
p139
aS'Noen bratte heng'
p140
aS'Noen bratte heng'
p141
aS'Noen bratte heng'
p142
assS'size'
p143
(dp144
g3
(lp145
S'1 - Harmloest'
p146
aS'2 - Smaa'
p147
aS'3 - Middels'
p148
aS'4 - Store'
p149
aS'5 - Svaert store'
p150
aS'Ukjent'
p151
asg8
(lp152
g10
asg11
(lp153
S'2 - Smaa'
p154
aS'3 - Middels'
p155
aS'2 - Smaa'
p156
aS'2 - Smaa'
p157
aS'3 - Middels'
p158
aS'1 - Harmloest'
p159
aS'2 - Smaa'
p160
aS'1 - Harmloest'
p161
aS'2 - Smaa'
p162
aS'2 - Smaa'
p163
aS'2 - Smaa'
p164
aS'2 - Smaa'
p165
aS'1 - Harmloest'
p166
aS'1 - Harmloest'
p167
aS'1 - Harmloest'
p168
aS'1 - Harmloest'
p169
aS'2 - Smaa'
p170
aS'2 - Smaa'
p171
aS'2 - Smaa'
p172
aS'2 - Smaa'
p173
aS'2 - Smaa'
p174
aS'2 - Smaa'
p175
aS'2 - Smaa'
p176
aS'2 - Smaa'
p177
aS'2 - Smaa'
p178
aS'2 - Smaa'
p179
aS'2 - Smaa'
p180
aS'1 - Harmloest'
p181
aS'1 - Harmloest'
p182
aS'1 - Harmloest'
p183
aS'1 - Harmloest'
p184
aS'1 - Harmloest'
p185
aS'1 - Harmloest'
p186
aS'1 - Harmloest'
p187
aS'2 - Smaa'
p188
aS'2 - Smaa'
p189
aS'1 - Harmloest'
p190
aS'1 - Harmloest'
p191
aS'1 - Harmloest'
p192
aS'1 - Harmloest'
p193
aS'1 - Harmloest'
p194
aS'1 - Harmloest'
p195
aS'1 - Harmloest'
p196
aS'1 - Harmloest'
p197
aS'1 - Harmloest'
p198
aS'1 - Harmloest'
p199
aS'1 - Harmloest'
p200
aS'1 - Harmloest'
p201
aS'1 - Harmloest'
p202
aS'1 - Harmloest'
p203
aS'2 - Smaa'
p204
aS'2 - Smaa'
p205
aS'1 - Harmloest'
p206
aS'1 - Harmloest'
p207
aS'1 - Harmloest'
p208
aS'2 - Smaa'
p209
aS'2 - Smaa'
p210
aS'1 - Harmloest'
p211
aS'2 - Smaa'
p212
aS'2 - Smaa'
p213
assS'probability'
p214
(dp215
g3
(lp216
S'Lite sannsynlig'
p217
aS'Mulig'
p218
aS'Sannsynlig'
p219
aS'Meget sannsynlig'
p220
asg8
(lp221
g10
asg11
(lp222
S'Mulig'
p223
aS'Mulig'
p224
aS'Mulig'
p225
aS'Mulig'
p226
aS'Mulig'
p227
aS'Mulig'
p228
aS'Mulig'
p229
aS'Mulig'
p230
aS'Lite sannsynlig'
p231
aS'Mulig'
p232
aS'Mulig'
p233
aS'Mulig'
p234
aS'Mulig'
p235
aS'Mulig'
p236
aS'Mulig'
p237
aS'Mulig'
p238
aS'Mulig'
p239
aS'Mulig'
p240
aS'Mulig'
p241
aS'Mulig'
p242
aS'Mulig'
p243
aS'Mulig'
p244
aS'Mulig'
p245
aS'Mulig'
p246
aS'Mulig'
p247
aS'Mulig'
p248
aS'Mulig'
p249
aS'Sannsynlig'
p250
aS'Mulig'
p251
aS'Sannsynlig'
p252
aS'Sannsynlig'
p253
aS'Sannsynlig'
p254
aS'Sannsynlig'
p255
aS'Sannsynlig'
p256
aS'Mulig'
p257
aS'Mulig'
p258
aS'Mulig'
p259
aS'Mulig'
p260
aS'Mulig'
p261
aS'Mulig'
p262
aS'Mulig'
p263
aS'Mulig'
p264
aS'Mulig'
p265
aS'Mulig'
p266
aS'Mulig'
p267
aS'Mulig'
p268
aS'Mulig'
p269
aS'Mulig'
p270
aS'Mulig'
p271
aS'Mulig'
p272
aS'Mulig'
p273
aS'Mulig'
p274
aS'Mulig'
p275
aS'Mulig'
p276
aS'Mulig'
p277
aS'Mulig'
p278
aS'Mulig'
p279
aS'Mulig'
p280
aS'Mulig'
p281
aS'Mulig'
p282
assS'level'
p283
(dp284
g3
(lp285
I1
aI2
aI3
aI4
aI5
asg8
(lp286
S'#ccff66'
p287
aS'#ffff00'
p288
aS'#ff9900'
p289
aS'#ff0000'
p290
aS'k'
p291
asg11
(lp292
I2
aI2
aI2
aI3
aI2
aI1
aI2
aI1
aI1
aI2
aI2
aI1
aI1
aI1
aI1
aI1
aI2
aI2
aI2
aI2
aI2
aI2
aI2
aI2
aI2
aI2
aI2
aI1
aI2
aI1
aI1
aI1
aI1
aI1
aI2
aI2
aI1
aI1
aI1
aI1
aI1
aI1
aI1
aI1
aI1
aI1
aI1
aI2
aI2
aI1
aI2
aI2
aI1
aI1
aI1
aI1
aI1
aI1
aI2
aI2
ass.