(lp0
(irunmatrix
M3Element
p1
(dp2
S'danger_level_average'
p3
NsS'probability'
p4
S'Lite sannsynlig, Mulig'
p5
sS'colour'
p6
S'white'
p7
sS'danger_level_list'
p8
(lp9
sS'label_probalility'
p10
S'Possible'
p11
sS'label_distribution'
p12
S'Isolated'
p13
sS'recomended_colour'
p14
S'#ccff66'
p15
sS'recomended_danger_level'
p16
I1
sS'label_trigger'
p17
S'High'
p18
sS'trigger'
p19
S'Stor tilleggsbelastning'
p20
sS'occurrences'
p21
NsS'y'
p22
S'100'
p23
sS'x'
p24
S'100'
p25
sS'distribution'
p26
S'Isolerte faresoner'
p27
sS'danger_level_standard_dev'
p28
NsS'label_size'
p29
S'1'
p30
sS'avalanche_size'
p31
S'1 - Harmloest'
p32
sba(irunmatrix
M3Element
p33
(dp34
g3
F1.0
sg4
S'Lite sannsynlig, Mulig'
p35
sg6
S'#ccff66'
p36
sg8
(lp37
I1
aI1
aI1
asg10
S'Possible'
p38
sg12
S'Isolated'
p39
sg14
g15
sg16
I1
sg17
S'Low'
p40
sg19
S'Liten tilleggsbelastning'
p41
sg21
I3
sg22
S'100'
p42
sg24
S'200'
p43
sg26
S'Isolerte faresoner'
p44
sg28
cnumpy.core.multiarray
scalar
p45
(cnumpy
dtype
p46
(S'f8'
p47
I0
I1
tp48
Rp49
(I3
S'<'
p50
NNNI-1
I-1
I0
tp51
bS'\x00\x00\x00\x00\x00\x00\x00\x00'
p52
tp53
Rp54
sg29
g30
sg31
S'1 - Harmloest'
p55
sba(irunmatrix
M3Element
p56
(dp57
g3
Nsg4
S'Lite sannsynlig, Mulig'
p58
sg6
S'white'
p59
sg8
(lp60
sg10
S'Possible'
p61
sg12
S'Isolated'
p62
sg14
g15
sg16
I1
sg17
S'Nat'
p63
sg19
S'Naturlig utloest'
p64
sg21
Nsg22
S'100'
p65
sg24
S'300'
p66
sg26
S'Isolerte faresoner'
p67
sg28
Nsg29
g30
sg31
S'1 - Harmloest'
p68
sba(irunmatrix
M3Element
p69
(dp70
g3
Nsg4
S'Sannsynlig, Meget sannsynlig'
p71
sg6
S'gray'
p72
sg8
(lp73
sg10
S'Likely'
p74
sg12
S'Isolated'
p75
sg14
S'gray'
p76
sg16
I0
sg17
S'High'
p77
sg19
S'Stor tilleggsbelastning'
p78
sg21
Nsg22
S'100'
p79
sg24
S'400'
p80
sg26
S'Isolerte faresoner'
p81
sg28
Nsg29
g30
sg31
S'1 - Harmloest'
p82
sba(irunmatrix
M3Element
p83
(dp84
g3
Nsg4
S'Sannsynlig, Meget sannsynlig'
p85
sg6
S'gray'
p86
sg8
(lp87
sg10
S'Likely'
p88
sg12
S'Isolated'
p89
sg14
g76
sg16
I0
sg17
S'Low'
p90
sg19
S'Liten tilleggsbelastning'
p91
sg21
Nsg22
S'100'
p92
sg24
S'500'
p93
sg26
S'Isolerte faresoner'
p94
sg28
Nsg29
g30
sg31
S'1 - Harmloest'
p95
sba(irunmatrix
M3Element
p96
(dp97
g3
Nsg4
S'Sannsynlig, Meget sannsynlig'
p98
sg6
S'gray'
p99
sg8
(lp100
sg10
S'Likely'
p101
sg12
S'Isolated'
p102
sg14
g76
sg16
I0
sg17
S'Nat'
p103
sg19
S'Naturlig utloest'
p104
sg21
Nsg22
S'100'
p105
sg24
S'600'
p106
sg26
S'Isolerte faresoner'
p107
sg28
Nsg29
g30
sg31
S'1 - Harmloest'
p108
sba(irunmatrix
M3Element
p109
(dp110
g3
Nsg4
S'Lite sannsynlig, Mulig'
p111
sg6
S'white'
p112
sg8
(lp113
sg10
S'Possible'
p114
sg12
S'Some'
p115
sg14
g15
sg16
I1
sg17
S'High'
p116
sg19
S'Stor tilleggsbelastning'
p117
sg21
Nsg22
S'100'
p118
sg24
S'700'
p119
sg26
S'Noen bratte heng'
p120
sg28
Nsg29
g30
sg31
S'1 - Harmloest'
p121
sba(irunmatrix
M3Element
p122
(dp123
g3
Nsg4
S'Lite sannsynlig, Mulig'
p124
sg6
S'white'
p125
sg8
(lp126
sg10
S'Possible'
p127
sg12
S'Some'
p128
sg14
g15
sg16
I1
sg17
S'Low'
p129
sg19
S'Liten tilleggsbelastning'
p130
sg21
Nsg22
S'100'
p131
sg24
S'800'
p132
sg26
S'Noen bratte heng'
p133
sg28
Nsg29
g30
sg31
S'1 - Harmloest'
p134
sba(irunmatrix
M3Element
p135
(dp136
g3
F2.0
sg4
S'Lite sannsynlig, Mulig'
p137
sg6
S'#ffff00'
p138
sg8
(lp139
I2
asg10
S'Possible'
p140
sg12
S'Some'
p141
sg14
g15
sg16
I1
sg17
S'Nat'
p142
sg19
S'Naturlig utloest'
p143
sg21
I1
sg22
S'100'
p144
sg24
S'900'
p145
sg26
S'Noen bratte heng'
p146
sg28
g45
(g49
S'\x00\x00\x00\x00\x00\x00\x00\x00'
p147
tp148
Rp149
sg29
g30
sg31
S'1 - Harmloest'
p150
sba(irunmatrix
M3Element
p151
(dp152
g3
Nsg4
S'Sannsynlig, Meget sannsynlig'
p153
sg6
S'gray'
p154
sg8
(lp155
sg10
S'Likely'
p156
sg12
S'Some'
p157
sg14
g76
sg16
I0
sg17
S'High'
p158
sg19
S'Stor tilleggsbelastning'
p159
sg21
Nsg22
S'100'
p160
sg24
S'1000'
p161
sg26
S'Noen bratte heng'
p162
sg28
Nsg29
g30
sg31
S'1 - Harmloest'
p163
sba(irunmatrix
M3Element
p164
(dp165
g3
Nsg4
S'Sannsynlig, Meget sannsynlig'
p166
sg6
S'gray'
p167
sg8
(lp168
sg10
S'Likely'
p169
sg12
S'Some'
p170
sg14
g76
sg16
I0
sg17
S'Low'
p171
sg19
S'Liten tilleggsbelastning'
p172
sg21
Nsg22
S'100'
p173
sg24
S'1100'
p174
sg26
S'Noen bratte heng'
p175
sg28
Nsg29
g30
sg31
S'1 - Harmloest'
p176
sba(irunmatrix
M3Element
p177
(dp178
g3
Nsg4
S'Sannsynlig, Meget sannsynlig'
p179
sg6
S'white'
p180
sg8
(lp181
sg10
S'Likely'
p182
sg12
S'Some'
p183
sg14
g15
sg16
I1
sg17
S'Nat'
p184
sg19
S'Naturlig utloest'
p185
sg21
Nsg22
S'100'
p186
sg24
S'1200'
p187
sg26
S'Noen bratte heng'
p188
sg28
Nsg29
g30
sg31
S'1 - Harmloest'
p189
sba(irunmatrix
M3Element
p190
(dp191
g3
Nsg4
S'Lite sannsynlig, Mulig'
p192
sg6
S'gray'
p193
sg8
(lp194
sg10
S'Possible'
p195
sg12
S'Many'
p196
sg14
g76
sg16
I0
sg17
S'High'
p197
sg19
S'Stor tilleggsbelastning'
p198
sg21
Nsg22
S'100'
p199
sg24
S'1300'
p200
sg26
S'Mange bratte heng'
p201
sg28
Nsg29
g30
sg31
S'1 - Harmloest'
p202
sba(irunmatrix
M3Element
p203
(dp204
g3
Nsg4
S'Lite sannsynlig, Mulig'
p205
sg6
S'white'
p206
sg8
(lp207
sg10
S'Possible'
p208
sg12
S'Many'
p209
sg14
g15
sg16
I1
sg17
S'Low'
p210
sg19
S'Liten tilleggsbelastning'
p211
sg21
Nsg22
S'100'
p212
sg24
S'1400'
p213
sg26
S'Mange bratte heng'
p214
sg28
Nsg29
g30
sg31
S'1 - Harmloest'
p215
sba(irunmatrix
M3Element
p216
(dp217
g3
Nsg4
S'Lite sannsynlig, Mulig'
p218
sg6
S'gray'
p219
sg8
(lp220
sg10
S'Possible'
p221
sg12
S'Many'
p222
sg14
g76
sg16
I0
sg17
S'Nat'
p223
sg19
S'Naturlig utloest'
p224
sg21
Nsg22
S'100'
p225
sg24
S'1500'
p226
sg26
S'Mange bratte heng'
p227
sg28
Nsg29
g30
sg31
S'1 - Harmloest'
p228
sba(irunmatrix
M3Element
p229
(dp230
g3
Nsg4
S'Sannsynlig, Meget sannsynlig'
p231
sg6
S'gray'
p232
sg8
(lp233
sg10
S'Likely'
p234
sg12
S'Many'
p235
sg14
g76
sg16
I0
sg17
S'High'
p236
sg19
S'Stor tilleggsbelastning'
p237
sg21
Nsg22
S'100'
p238
sg24
S'1600'
p239
sg26
S'Mange bratte heng'
p240
sg28
Nsg29
g30
sg31
S'1 - Harmloest'
p241
sba(irunmatrix
M3Element
p242
(dp243
g3
Nsg4
S'Sannsynlig, Meget sannsynlig'
p244
sg6
S'white'
p245
sg8
(lp246
sg10
S'Likely'
p247
sg12
S'Many'
p248
sg14
S'#ffff00'
p249
sg16
I2
sg17
S'Low'
p250
sg19
S'Liten tilleggsbelastning'
p251
sg21
Nsg22
S'100'
p252
sg24
S'1700'
p253
sg26
S'Mange bratte heng'
p254
sg28
Nsg29
g30
sg31
S'1 - Harmloest'
p255
sba(irunmatrix
M3Element
p256
(dp257
g3
Nsg4
S'Sannsynlig, Meget sannsynlig'
p258
sg6
S'white'
p259
sg8
(lp260
sg10
S'Likely'
p261
sg12
S'Many'
p262
sg14
g249
sg16
I2
sg17
S'Nat'
p263
sg19
S'Naturlig utloest'
p264
sg21
Nsg22
S'100'
p265
sg24
S'1800'
p266
sg26
S'Mange bratte heng'
p267
sg28
Nsg29
g30
sg31
S'1 - Harmloest'
p268
sba(irunmatrix
M3Element
p269
(dp270
g3
Nsg4
S'Lite sannsynlig, Mulig'
p271
sg6
S'gray'
p272
sg8
(lp273
sg10
S'Possible'
p274
sg12
S'Most'
p275
sg14
g76
sg16
I0
sg17
S'High'
p276
sg19
S'Stor tilleggsbelastning'
p277
sg21
Nsg22
S'100'
p278
sg24
S'1900'
p279
sg26
S'De fleste bratte heng, Ogsaa i mindre bratt terreng'
p280
sg28
Nsg29
g30
sg31
S'1 - Harmloest'
p281
sba(irunmatrix
M3Element
p282
(dp283
g3
Nsg4
S'Lite sannsynlig, Mulig'
p284
sg6
S'gray'
p285
sg8
(lp286
sg10
S'Possible'
p287
sg12
S'Most'
p288
sg14
g76
sg16
I0
sg17
S'Low'
p289
sg19
S'Liten tilleggsbelastning'
p290
sg21
Nsg22
S'100'
p291
sg24
S'2000'
p292
sg26
S'De fleste bratte heng, Ogsaa i mindre bratt terreng'
p293
sg28
Nsg29
g30
sg31
S'1 - Harmloest'
p294
sba(irunmatrix
M3Element
p295
(dp296
g3
Nsg4
S'Lite sannsynlig, Mulig'
p297
sg6
S'gray'
p298
sg8
(lp299
sg10
S'Possible'
p300
sg12
S'Most'
p301
sg14
g76
sg16
I0
sg17
S'Nat'
p302
sg19
S'Naturlig utloest'
p303
sg21
Nsg22
S'100'
p304
sg24
S'2100'
p305
sg26
S'De fleste bratte heng, Ogsaa i mindre bratt terreng'
p306
sg28
Nsg29
g30
sg31
S'1 - Harmloest'
p307
sba(irunmatrix
M3Element
p308
(dp309
g3
Nsg4
S'Sannsynlig, Meget sannsynlig'
p310
sg6
S'gray'
p311
sg8
(lp312
sg10
S'Likely'
p313
sg12
S'Most'
p314
sg14
g76
sg16
I0
sg17
S'High'
p315
sg19
S'Stor tilleggsbelastning'
p316
sg21
Nsg22
S'100'
p317
sg24
S'2200'
p318
sg26
S'De fleste bratte heng, Ogsaa i mindre bratt terreng'
p319
sg28
Nsg29
g30
sg31
S'1 - Harmloest'
p320
sba(irunmatrix
M3Element
p321
(dp322
g3
Nsg4
S'Sannsynlig, Meget sannsynlig'
p323
sg6
S'gray'
p324
sg8
(lp325
sg10
S'Likely'
p326
sg12
S'Most'
p327
sg14
g76
sg16
I0
sg17
S'Low'
p328
sg19
S'Liten tilleggsbelastning'
p329
sg21
Nsg22
S'100'
p330
sg24
S'2300'
p331
sg26
S'De fleste bratte heng, Ogsaa i mindre bratt terreng'
p332
sg28
Nsg29
g30
sg31
S'1 - Harmloest'
p333
sba(irunmatrix
M3Element
p334
(dp335
g3
Nsg4
S'Sannsynlig, Meget sannsynlig'
p336
sg6
S'white'
p337
sg8
(lp338
sg10
S'Likely'
p339
sg12
S'Most'
p340
sg14
g76
sg16
I0
sg17
S'Nat'
p341
sg19
S'Naturlig utloest'
p342
sg21
Nsg22
S'100'
p343
sg24
S'2400'
p344
sg26
S'De fleste bratte heng, Ogsaa i mindre bratt terreng'
p345
sg28
Nsg29
S'2'
p346
sg31
S'1 - Harmloest'
p347
sba(irunmatrix
M3Element
p348
(dp349
g3
F1.5
sg4
S'Lite sannsynlig, Mulig'
p350
sg6
g138
sg8
(lp351
I2
aI2
aI2
aI1
aI1
aI1
asg10
S'Possible'
p352
sg12
S'Isolated'
p353
sg14
g15
sg16
I1
sg17
S'High'
p354
sg19
S'Stor tilleggsbelastning'
p355
sg21
I6
sg22
S'200'
p356
sg24
S'100'
p357
sg26
S'Isolerte faresoner'
p358
sg28
g45
(g49
S'\x00\x00\x00\x00\x00\x00\xe0?'
p359
tp360
Rp361
sg29
g346
sg31
S'2 - Smaa'
p362
sba(irunmatrix
M3Element
p363
(dp364
g3
F1.5
sg4
S'Lite sannsynlig, Mulig'
p365
sg6
g138
sg8
(lp366
I2
aI1
aI1
aI2
asg10
S'Possible'
p367
sg12
S'Isolated'
p368
sg14
g15
sg16
I1
sg17
S'Low'
p369
sg19
S'Liten tilleggsbelastning'
p370
sg21
I4
sg22
S'200'
p371
sg24
S'200'
p372
sg26
S'Isolerte faresoner'
p373
sg28
g45
(g49
S'\x00\x00\x00\x00\x00\x00\xe0?'
p374
tp375
Rp376
sg29
g346
sg31
S'2 - Smaa'
p377
sba(irunmatrix
M3Element
p378
(dp379
g3
Nsg4
S'Lite sannsynlig, Mulig'
p380
sg6
S'white'
p381
sg8
(lp382
sg10
S'Possible'
p383
sg12
S'Isolated'
p384
sg14
g15
sg16
I1
sg17
S'Nat'
p385
sg19
S'Naturlig utloest'
p386
sg21
Nsg22
S'200'
p387
sg24
S'300'
p388
sg26
S'Isolerte faresoner'
p389
sg28
Nsg29
g346
sg31
S'2 - Smaa'
p390
sba(irunmatrix
M3Element
p391
(dp392
g3
Nsg4
S'Sannsynlig, Meget sannsynlig'
p393
sg6
S'gray'
p394
sg8
(lp395
sg10
S'Likely'
p396
sg12
S'Isolated'
p397
sg14
g76
sg16
I0
sg17
S'High'
p398
sg19
S'Stor tilleggsbelastning'
p399
sg21
Nsg22
S'200'
p400
sg24
S'400'
p401
sg26
S'Isolerte faresoner'
p402
sg28
Nsg29
g346
sg31
S'2 - Smaa'
p403
sba(irunmatrix
M3Element
p404
(dp405
g3
Nsg4
S'Sannsynlig, Meget sannsynlig'
p406
sg6
S'gray'
p407
sg8
(lp408
sg10
S'Likely'
p409
sg12
S'Isolated'
p410
sg14
g76
sg16
I0
sg17
S'Low'
p411
sg19
S'Liten tilleggsbelastning'
p412
sg21
Nsg22
S'200'
p413
sg24
S'500'
p414
sg26
S'Isolerte faresoner'
p415
sg28
Nsg29
g346
sg31
S'2 - Smaa'
p416
sba(irunmatrix
M3Element
p417
(dp418
g3
Nsg4
S'Sannsynlig, Meget sannsynlig'
p419
sg6
S'gray'
p420
sg8
(lp421
sg10
S'Likely'
p422
sg12
S'Isolated'
p423
sg14
g76
sg16
I0
sg17
S'Nat'
p424
sg19
S'Naturlig utloest'
p425
sg21
Nsg22
S'200'
p426
sg24
S'600'
p427
sg26
S'Isolerte faresoner'
p428
sg28
Nsg29
g346
sg31
S'2 - Smaa'
p429
sba(irunmatrix
M3Element
p430
(dp431
g3
F2.0
sg4
S'Lite sannsynlig, Mulig'
p432
sg6
g138
sg8
(lp433
I2
aI2
aI2
aI2
asg10
S'Possible'
p434
sg12
S'Some'
p435
sg14
g249
sg16
I2
sg17
S'High'
p436
sg19
S'Stor tilleggsbelastning'
p437
sg21
I4
sg22
S'200'
p438
sg24
S'700'
p439
sg26
S'Noen bratte heng'
p440
sg28
g45
(g49
S'\x00\x00\x00\x00\x00\x00\x00\x00'
p441
tp442
Rp443
sg29
g346
sg31
S'2 - Smaa'
p444
sba(irunmatrix
M3Element
p445
(dp446
g3
F2.1
sg4
S'Lite sannsynlig, Mulig'
p447
sg6
g138
sg8
(lp448
I3
aI3
aI2
aI2
aI2
aI2
aI2
aI2
aI2
aI2
aI2
aI2
aI2
aI2
aI2
aI2
aI2
aI2
aI2
aI2
asg10
S'Possible'
p449
sg12
S'Some'
p450
sg14
g249
sg16
I2
sg17
S'Low'
p451
sg19
S'Liten tilleggsbelastning'
p452
sg21
I20
sg22
S'200'
p453
sg24
S'800'
p454
sg26
S'Noen bratte heng'
p455
sg28
g45
(g49
S'333333\xd3?'
p456
tp457
Rp458
sg29
g346
sg31
S'2 - Smaa'
p459
sba(irunmatrix
M3Element
p460
(dp461
g3
F2.5
sg4
S'Lite sannsynlig, Mulig'
p462
sg6
S'#ff9900'
p463
sg8
(lp464
I3
aI2
aI2
aI3
asg10
S'Possible'
p465
sg12
S'Some'
p466
sg14
g249
sg16
I2
sg17
S'Nat'
p467
sg19
S'Naturlig utloest'
p468
sg21
I4
sg22
S'200'
p469
sg24
S'900'
p470
sg26
S'Noen bratte heng'
p471
sg28
g45
(g49
S'\x00\x00\x00\x00\x00\x00\xe0?'
p472
tp473
Rp474
sg29
g346
sg31
S'2 - Smaa'
p475
sba(irunmatrix
M3Element
p476
(dp477
g3
Nsg4
S'Sannsynlig, Meget sannsynlig'
p478
sg6
S'gray'
p479
sg8
(lp480
sg10
S'Likely'
p481
sg12
S'Some'
p482
sg14
g76
sg16
I0
sg17
S'High'
p483
sg19
S'Stor tilleggsbelastning'
p484
sg21
Nsg22
S'200'
p485
sg24
S'1000'
p486
sg26
S'Noen bratte heng'
p487
sg28
Nsg29
g346
sg31
S'2 - Smaa'
p488
sba(irunmatrix
M3Element
p489
(dp490
g3
F3.0
sg4
S'Sannsynlig, Meget sannsynlig'
p491
sg6
g463
sg8
(lp492
I3
asg10
S'Likely'
p493
sg12
S'Some'
p494
sg14
g76
sg16
I0
sg17
S'Low'
p495
sg19
S'Liten tilleggsbelastning'
p496
sg21
I1
sg22
S'200'
p497
sg24
S'1100'
p498
sg26
S'Noen bratte heng'
p499
sg28
g45
(g49
S'\x00\x00\x00\x00\x00\x00\x00\x00'
p500
tp501
Rp502
sg29
g346
sg31
S'2 - Smaa'
p503
sba(irunmatrix
M3Element
p504
(dp505
g3
Nsg4
S'Sannsynlig, Meget sannsynlig'
p506
sg6
S'white'
p507
sg8
(lp508
sg10
S'Likely'
p509
sg12
S'Some'
p510
sg14
S'#ff9900'
p511
sg16
I3
sg17
S'Nat'
p512
sg19
S'Naturlig utloest'
p513
sg21
Nsg22
S'200'
p514
sg24
S'1200'
p515
sg26
S'Noen bratte heng'
p516
sg28
Nsg29
g346
sg31
S'2 - Smaa'
p517
sba(irunmatrix
M3Element
p518
(dp519
g3
Nsg4
S'Lite sannsynlig, Mulig'
p520
sg6
S'gray'
p521
sg8
(lp522
sg10
S'Possible'
p523
sg12
S'Many'
p524
sg14
g76
sg16
I0
sg17
S'High'
p525
sg19
S'Stor tilleggsbelastning'
p526
sg21
Nsg22
S'200'
p527
sg24
S'1300'
p528
sg26
S'Mange bratte heng'
p529
sg28
Nsg29
g346
sg31
S'2 - Smaa'
p530
sba(irunmatrix
M3Element
p531
(dp532
g3
Nsg4
S'Lite sannsynlig, Mulig'
p533
sg6
S'white'
p534
sg8
(lp535
sg10
S'Possible'
p536
sg12
S'Many'
p537
sg14
g511
sg16
I3
sg17
S'Low'
p538
sg19
S'Liten tilleggsbelastning'
p539
sg21
Nsg22
S'200'
p540
sg24
S'1400'
p541
sg26
S'Mange bratte heng'
p542
sg28
Nsg29
g346
sg31
S'2 - Smaa'
p543
sba(irunmatrix
M3Element
p544
(dp545
g3
Nsg4
S'Lite sannsynlig, Mulig'
p546
sg6
S'gray'
p547
sg8
(lp548
sg10
S'Possible'
p549
sg12
S'Many'
p550
sg14
g76
sg16
I0
sg17
S'Nat'
p551
sg19
S'Naturlig utloest'
p552
sg21
Nsg22
S'200'
p553
sg24
S'1500'
p554
sg26
S'Mange bratte heng'
p555
sg28
Nsg29
g346
sg31
S'2 - Smaa'
p556
sba(irunmatrix
M3Element
p557
(dp558
g3
Nsg4
S'Sannsynlig, Meget sannsynlig'
p559
sg6
S'gray'
p560
sg8
(lp561
sg10
S'Likely'
p562
sg12
S'Many'
p563
sg14
g76
sg16
I0
sg17
S'High'
p564
sg19
S'Stor tilleggsbelastning'
p565
sg21
Nsg22
S'200'
p566
sg24
S'1600'
p567
sg26
S'Mange bratte heng'
p568
sg28
Nsg29
g346
sg31
S'2 - Smaa'
p569
sba(irunmatrix
M3Element
p570
(dp571
g3
Nsg4
S'Sannsynlig, Meget sannsynlig'
p572
sg6
S'white'
p573
sg8
(lp574
sg10
S'Likely'
p575
sg12
S'Many'
p576
sg14
S'#ff0000'
p577
sg16
I4
sg17
S'Low'
p578
sg19
S'Liten tilleggsbelastning'
p579
sg21
Nsg22
S'200'
p580
sg24
S'1700'
p581
sg26
S'Mange bratte heng'
p582
sg28
Nsg29
g346
sg31
S'2 - Smaa'
p583
sba(irunmatrix
M3Element
p584
(dp585
g3
Nsg4
S'Sannsynlig, Meget sannsynlig'
p586
sg6
S'white'
p587
sg8
(lp588
sg10
S'Likely'
p589
sg12
S'Many'
p590
sg14
g577
sg16
I4
sg17
S'Nat'
p591
sg19
S'Naturlig utloest'
p592
sg21
Nsg22
S'200'
p593
sg24
S'1800'
p594
sg26
S'Mange bratte heng'
p595
sg28
Nsg29
g346
sg31
S'2 - Smaa'
p596
sba(irunmatrix
M3Element
p597
(dp598
g3
Nsg4
S'Lite sannsynlig, Mulig'
p599
sg6
S'gray'
p600
sg8
(lp601
sg10
S'Possible'
p602
sg12
S'Most'
p603
sg14
g76
sg16
I0
sg17
S'High'
p604
sg19
S'Stor tilleggsbelastning'
p605
sg21
Nsg22
S'200'
p606
sg24
S'1900'
p607
sg26
S'De fleste bratte heng, Ogsaa i mindre bratt terreng'
p608
sg28
Nsg29
g346
sg31
S'2 - Smaa'
p609
sba(irunmatrix
M3Element
p610
(dp611
g3
Nsg4
S'Lite sannsynlig, Mulig'
p612
sg6
S'gray'
p613
sg8
(lp614
sg10
S'Possible'
p615
sg12
S'Most'
p616
sg14
g76
sg16
I0
sg17
S'Low'
p617
sg19
S'Liten tilleggsbelastning'
p618
sg21
Nsg22
S'200'
p619
sg24
S'2000'
p620
sg26
S'De fleste bratte heng, Ogsaa i mindre bratt terreng'
p621
sg28
Nsg29
g346
sg31
S'2 - Smaa'
p622
sba(irunmatrix
M3Element
p623
(dp624
g3
Nsg4
S'Lite sannsynlig, Mulig'
p625
sg6
S'gray'
p626
sg8
(lp627
sg10
S'Possible'
p628
sg12
S'Most'
p629
sg14
g76
sg16
I0
sg17
S'Nat'
p630
sg19
S'Naturlig utloest'
p631
sg21
Nsg22
S'200'
p632
sg24
S'2100'
p633
sg26
S'De fleste bratte heng, Ogsaa i mindre bratt terreng'
p634
sg28
Nsg29
g346
sg31
S'2 - Smaa'
p635
sba(irunmatrix
M3Element
p636
(dp637
g3
Nsg4
S'Sannsynlig, Meget sannsynlig'
p638
sg6
S'gray'
p639
sg8
(lp640
sg10
S'Likely'
p641
sg12
S'Most'
p642
sg14
g76
sg16
I0
sg17
S'High'
p643
sg19
S'Stor tilleggsbelastning'
p644
sg21
Nsg22
S'200'
p645
sg24
S'2200'
p646
sg26
S'De fleste bratte heng, Ogsaa i mindre bratt terreng'
p647
sg28
Nsg29
g346
sg31
S'2 - Smaa'
p648
sba(irunmatrix
M3Element
p649
(dp650
g3
Nsg4
S'Sannsynlig, Meget sannsynlig'
p651
sg6
S'gray'
p652
sg8
(lp653
sg10
S'Likely'
p654
sg12
S'Most'
p655
sg14
g76
sg16
I0
sg17
S'Low'
p656
sg19
S'Liten tilleggsbelastning'
p657
sg21
Nsg22
S'200'
p658
sg24
S'2300'
p659
sg26
S'De fleste bratte heng, Ogsaa i mindre bratt terreng'
p660
sg28
Nsg29
g346
sg31
S'2 - Smaa'
p661
sba(irunmatrix
M3Element
p662
(dp663
g3
Nsg4
S'Sannsynlig, Meget sannsynlig'
p664
sg6
S'white'
p665
sg8
(lp666
sg10
S'Likely'
p667
sg12
S'Most'
p668
sg14
g76
sg16
I0
sg17
S'Nat'
p669
sg19
S'Naturlig utloest'
p670
sg21
Nsg22
S'200'
p671
sg24
S'2400'
p672
sg26
S'De fleste bratte heng, Ogsaa i mindre bratt terreng'
p673
sg28
Nsg29
g346
sg31
S'2 - Smaa'
p674
sba(irunmatrix
M3Element
p675
(dp676
g3
Nsg4
S'Lite sannsynlig, Mulig'
p677
sg6
S'white'
p678
sg8
(lp679
sg10
S'Possible'
p680
sg12
S'Isolated'
p681
sg14
g15
sg16
I1
sg17
S'High'
p682
sg19
S'Stor tilleggsbelastning'
p683
sg21
Nsg22
S'300'
p684
sg24
S'100'
p685
sg26
S'Isolerte faresoner'
p686
sg28
Nsg29
S'3'
p687
sg31
S'3 - Middels'
p688
sba(irunmatrix
M3Element
p689
(dp690
g3
Nsg4
S'Lite sannsynlig, Mulig'
p691
sg6
S'white'
p692
sg8
(lp693
sg10
S'Possible'
p694
sg12
S'Isolated'
p695
sg14
g249
sg16
I2
sg17
S'Low'
p696
sg19
S'Liten tilleggsbelastning'
p697
sg21
Nsg22
S'300'
p698
sg24
S'200'
p699
sg26
S'Isolerte faresoner'
p700
sg28
Nsg29
g687
sg31
S'3 - Middels'
p701
sba(irunmatrix
M3Element
p702
(dp703
g3
Nsg4
S'Lite sannsynlig, Mulig'
p704
sg6
S'white'
p705
sg8
(lp706
sg10
S'Possible'
p707
sg12
S'Isolated'
p708
sg14
g249
sg16
I2
sg17
S'Nat'
p709
sg19
S'Naturlig utloest'
p710
sg21
Nsg22
S'300'
p711
sg24
S'300'
p712
sg26
S'Isolerte faresoner'
p713
sg28
Nsg29
g687
sg31
S'3 - Middels'
p714
sba(irunmatrix
M3Element
p715
(dp716
g3
Nsg4
S'Sannsynlig, Meget sannsynlig'
p717
sg6
S'gray'
p718
sg8
(lp719
sg10
S'Likely'
p720
sg12
S'Isolated'
p721
sg14
g76
sg16
I0
sg17
S'High'
p722
sg19
S'Stor tilleggsbelastning'
p723
sg21
Nsg22
S'300'
p724
sg24
S'400'
p725
sg26
S'Isolerte faresoner'
p726
sg28
Nsg29
g687
sg31
S'3 - Middels'
p727
sba(irunmatrix
M3Element
p728
(dp729
g3
Nsg4
S'Sannsynlig, Meget sannsynlig'
p730
sg6
S'gray'
p731
sg8
(lp732
sg10
S'Likely'
p733
sg12
S'Isolated'
p734
sg14
g76
sg16
I0
sg17
S'Low'
p735
sg19
S'Liten tilleggsbelastning'
p736
sg21
Nsg22
S'300'
p737
sg24
S'500'
p738
sg26
S'Isolerte faresoner'
p739
sg28
Nsg29
g687
sg31
S'3 - Middels'
p740
sba(irunmatrix
M3Element
p741
(dp742
g3
Nsg4
S'Sannsynlig, Meget sannsynlig'
p743
sg6
S'gray'
p744
sg8
(lp745
sg10
S'Likely'
p746
sg12
S'Isolated'
p747
sg14
g76
sg16
I0
sg17
S'Nat'
p748
sg19
S'Naturlig utloest'
p749
sg21
Nsg22
S'300'
p750
sg24
S'600'
p751
sg26
S'Isolerte faresoner'
p752
sg28
Nsg29
g687
sg31
S'3 - Middels'
p753
sba(irunmatrix
M3Element
p754
(dp755
g3
F2.0
sg4
S'Lite sannsynlig, Mulig'
p756
sg6
g138
sg8
(lp757
I2
aI2
aI2
aI2
aI2
aI2
aI2
aI2
aI2
aI2
aI2
aI2
aI2
aI2
aI2
asg10
S'Possible'
p758
sg12
S'Some'
p759
sg14
g249
sg16
I2
sg17
S'High'
p760
sg19
S'Stor tilleggsbelastning'
p761
sg21
I15
sg22
S'300'
p762
sg24
S'700'
p763
sg26
S'Noen bratte heng'
p764
sg28
g45
(g49
S'\x00\x00\x00\x00\x00\x00\x00\x00'
p765
tp766
Rp767
sg29
g687
sg31
S'3 - Middels'
p768
sba(irunmatrix
M3Element
p769
(dp770
g3
F3.0
sg4
S'Lite sannsynlig, Mulig'
p771
sg6
g463
sg8
(lp772
I3
aI3
aI3
aI3
aI3
aI3
aI3
aI3
aI3
aI3
aI3
aI3
aI3
aI3
aI3
aI3
aI3
aI3
aI3
aI3
aI3
aI3
aI3
aI3
aI3
aI3
aI3
aI3
aI3
aI3
asg10
S'Possible'
p773
sg12
S'Some'
p774
sg14
g511
sg16
I3
sg17
S'Low'
p775
sg19
S'Liten tilleggsbelastning'
p776
sg21
I30
sg22
S'300'
p777
sg24
S'800'
p778
sg26
S'Noen bratte heng'
p779
sg28
g45
(g49
S'\x00\x00\x00\x00\x00\x00\x00\x00'
p780
tp781
Rp782
sg29
g687
sg31
S'3 - Middels'
p783
sba(irunmatrix
M3Element
p784
(dp785
g3
F2.6666666666666665
sg4
S'Lite sannsynlig, Mulig'
p786
sg6
g463
sg8
(lp787
I3
aI3
aI2
asg10
S'Possible'
p788
sg12
S'Some'
p789
sg14
g511
sg16
I3
sg17
S'Nat'
p790
sg19
S'Naturlig utloest'
p791
sg21
I3
sg22
S'300'
p792
sg24
S'900'
p793
sg26
S'Noen bratte heng'
p794
sg28
g45
(g49
S'f\xfa\xfe\xdd}+\xde?'
p795
tp796
Rp797
sg29
g687
sg31
S'3 - Middels'
p798
sba(irunmatrix
M3Element
p799
(dp800
g3
Nsg4
S'Sannsynlig, Meget sannsynlig'
p801
sg6
S'gray'
p802
sg8
(lp803
sg10
S'Likely'
p804
sg12
S'Some'
p805
sg14
g76
sg16
I0
sg17
S'High'
p806
sg19
S'Stor tilleggsbelastning'
p807
sg21
Nsg22
S'300'
p808
sg24
S'1000'
p809
sg26
S'Noen bratte heng'
p810
sg28
Nsg29
g687
sg31
S'3 - Middels'
p811
sba(irunmatrix
M3Element
p812
(dp813
g3
Nsg4
S'Sannsynlig, Meget sannsynlig'
p814
sg6
S'gray'
p815
sg8
(lp816
sg10
S'Likely'
p817
sg12
S'Some'
p818
sg14
g76
sg16
I0
sg17
S'Low'
p819
sg19
S'Liten tilleggsbelastning'
p820
sg21
Nsg22
S'300'
p821
sg24
S'1100'
p822
sg26
S'Noen bratte heng'
p823
sg28
Nsg29
g687
sg31
S'3 - Middels'
p824
sba(irunmatrix
M3Element
p825
(dp826
g3
Nsg4
S'Sannsynlig, Meget sannsynlig'
p827
sg6
S'white'
p828
sg8
(lp829
sg10
S'Likely'
p830
sg12
S'Some'
p831
sg14
g577
sg16
I4
sg17
S'Nat'
p832
sg19
S'Naturlig utloest'
p833
sg21
Nsg22
S'300'
p834
sg24
S'1200'
p835
sg26
S'Noen bratte heng'
p836
sg28
Nsg29
g687
sg31
S'3 - Middels'
p837
sba(irunmatrix
M3Element
p838
(dp839
g3
F3.0
sg4
S'Lite sannsynlig, Mulig'
p840
sg6
g463
sg8
(lp841
I3
aI3
asg10
S'Possible'
p842
sg12
S'Many'
p843
sg14
g76
sg16
I0
sg17
S'High'
p844
sg19
S'Stor tilleggsbelastning'
p845
sg21
I2
sg22
S'300'
p846
sg24
S'1300'
p847
sg26
S'Mange bratte heng'
p848
sg28
g45
(g49
S'\x00\x00\x00\x00\x00\x00\x00\x00'
p849
tp850
Rp851
sg29
g687
sg31
S'3 - Middels'
p852
sba(irunmatrix
M3Element
p853
(dp854
g3
F3.0
sg4
S'Lite sannsynlig, Mulig'
p855
sg6
g463
sg8
(lp856
I3
aI3
aI3
aI3
aI3
asg10
S'Possible'
p857
sg12
S'Many'
p858
sg14
g577
sg16
I4
sg17
S'Low'
p859
sg19
S'Liten tilleggsbelastning'
p860
sg21
I5
sg22
S'300'
p861
sg24
S'1400'
p862
sg26
S'Mange bratte heng'
p863
sg28
g45
(g49
S'\x00\x00\x00\x00\x00\x00\x00\x00'
p864
tp865
Rp866
sg29
g687
sg31
S'3 - Middels'
p867
sba(irunmatrix
M3Element
p868
(dp869
g3
F3.75
sg4
S'Lite sannsynlig, Mulig'
p870
sg6
S'#ff0000'
p871
sg8
(lp872
I3
aI4
aI4
aI4
asg10
S'Possible'
p873
sg12
S'Many'
p874
sg14
g76
sg16
I0
sg17
S'Nat'
p875
sg19
S'Naturlig utloest'
p876
sg21
I4
sg22
S'300'
p877
sg24
S'1500'
p878
sg26
S'Mange bratte heng'
p879
sg28
g45
(g49
S'\xaaLX\xe8z\xb6\xdb?'
p880
tp881
Rp882
sg29
g687
sg31
S'3 - Middels'
p883
sba(irunmatrix
M3Element
p884
(dp885
g3
Nsg4
S'Sannsynlig, Meget sannsynlig'
p886
sg6
S'gray'
p887
sg8
(lp888
sg10
S'Likely'
p889
sg12
S'Many'
p890
sg14
g76
sg16
I0
sg17
S'High'
p891
sg19
S'Stor tilleggsbelastning'
p892
sg21
Nsg22
S'300'
p893
sg24
S'1600'
p894
sg26
S'Mange bratte heng'
p895
sg28
Nsg29
g687
sg31
S'3 - Middels'
p896
sba(irunmatrix
M3Element
p897
(dp898
g3
Nsg4
S'Sannsynlig, Meget sannsynlig'
p899
sg6
S'white'
p900
sg8
(lp901
sg10
S'Likely'
p902
sg12
S'Many'
p903
sg14
g577
sg16
I4
sg17
S'Low'
p904
sg19
S'Liten tilleggsbelastning'
p905
sg21
Nsg22
S'300'
p906
sg24
S'1700'
p907
sg26
S'Mange bratte heng'
p908
sg28
Nsg29
g687
sg31
S'3 - Middels'
p909
sba(irunmatrix
M3Element
p910
(dp911
g3
Nsg4
S'Sannsynlig, Meget sannsynlig'
p912
sg6
S'white'
p913
sg8
(lp914
sg10
S'Likely'
p915
sg12
S'Many'
p916
sg14
g577
sg16
I4
sg17
S'Nat'
p917
sg19
S'Naturlig utloest'
p918
sg21
Nsg22
S'300'
p919
sg24
S'1800'
p920
sg26
S'Mange bratte heng'
p921
sg28
Nsg29
g687
sg31
S'3 - Middels'
p922
sba(irunmatrix
M3Element
p923
(dp924
g3
Nsg4
S'Lite sannsynlig, Mulig'
p925
sg6
S'gray'
p926
sg8
(lp927
sg10
S'Possible'
p928
sg12
S'Most'
p929
sg14
g76
sg16
I0
sg17
S'High'
p930
sg19
S'Stor tilleggsbelastning'
p931
sg21
Nsg22
S'300'
p932
sg24
S'1900'
p933
sg26
S'De fleste bratte heng, Ogsaa i mindre bratt terreng'
p934
sg28
Nsg29
g687
sg31
S'3 - Middels'
p935
sba(irunmatrix
M3Element
p936
(dp937
g3
Nsg4
S'Lite sannsynlig, Mulig'
p938
sg6
S'gray'
p939
sg8
(lp940
sg10
S'Possible'
p941
sg12
S'Most'
p942
sg14
g76
sg16
I0
sg17
S'Low'
p943
sg19
S'Liten tilleggsbelastning'
p944
sg21
Nsg22
S'300'
p945
sg24
S'2000'
p946
sg26
S'De fleste bratte heng, Ogsaa i mindre bratt terreng'
p947
sg28
Nsg29
g687
sg31
S'3 - Middels'
p948
sba(irunmatrix
M3Element
p949
(dp950
g3
Nsg4
S'Lite sannsynlig, Mulig'
p951
sg6
S'gray'
p952
sg8
(lp953
sg10
S'Possible'
p954
sg12
S'Most'
p955
sg14
g76
sg16
I0
sg17
S'Nat'
p956
sg19
S'Naturlig utloest'
p957
sg21
Nsg22
S'300'
p958
sg24
S'2100'
p959
sg26
S'De fleste bratte heng, Ogsaa i mindre bratt terreng'
p960
sg28
Nsg29
g687
sg31
S'3 - Middels'
p961
sba(irunmatrix
M3Element
p962
(dp963
g3
Nsg4
S'Sannsynlig, Meget sannsynlig'
p964
sg6
S'gray'
p965
sg8
(lp966
sg10
S'Likely'
p967
sg12
S'Most'
p968
sg14
g76
sg16
I0
sg17
S'High'
p969
sg19
S'Stor tilleggsbelastning'
p970
sg21
Nsg22
S'300'
p971
sg24
S'2200'
p972
sg26
S'De fleste bratte heng, Ogsaa i mindre bratt terreng'
p973
sg28
Nsg29
g687
sg31
S'3 - Middels'
p974
sba(irunmatrix
M3Element
p975
(dp976
g3
Nsg4
S'Sannsynlig, Meget sannsynlig'
p977
sg6
S'gray'
p978
sg8
(lp979
sg10
S'Likely'
p980
sg12
S'Most'
p981
sg14
g76
sg16
I0
sg17
S'Low'
p982
sg19
S'Liten tilleggsbelastning'
p983
sg21
Nsg22
S'300'
p984
sg24
S'2300'
p985
sg26
S'De fleste bratte heng, Ogsaa i mindre bratt terreng'
p986
sg28
Nsg29
g687
sg31
S'3 - Middels'
p987
sba(irunmatrix
M3Element
p988
(dp989
g3
Nsg4
S'Sannsynlig, Meget sannsynlig'
p990
sg6
S'white'
p991
sg8
(lp992
sg10
S'Likely'
p993
sg12
S'Most'
p994
sg14
g76
sg16
I0
sg17
S'Nat'
p995
sg19
S'Naturlig utloest'
p996
sg21
Nsg22
S'300'
p997
sg24
S'2400'
p998
sg26
S'De fleste bratte heng, Ogsaa i mindre bratt terreng'
p999
sg28
Nsg29
g687
sg31
S'3 - Middels'
p1000
sba(irunmatrix
M3Element
p1001
(dp1002
g3
Nsg4
S'Lite sannsynlig, Mulig'
p1003
sg6
S'white'
p1004
sg8
(lp1005
sg10
S'Possible'
p1006
sg12
S'Isolated'
p1007
sg14
g249
sg16
I2
sg17
S'High'
p1008
sg19
S'Stor tilleggsbelastning'
p1009
sg21
Nsg22
S'400'
p1010
sg24
S'100'
p1011
sg26
S'Isolerte faresoner'
p1012
sg28
Nsg29
S'4'
p1013
sg31
S'4 - Store'
p1014
sba(irunmatrix
M3Element
p1015
(dp1016
g3
Nsg4
S'Lite sannsynlig, Mulig'
p1017
sg6
S'white'
p1018
sg8
(lp1019
sg10
S'Possible'
p1020
sg12
S'Isolated'
p1021
sg14
g511
sg16
I3
sg17
S'Low'
p1022
sg19
S'Liten tilleggsbelastning'
p1023
sg21
Nsg22
S'400'
p1024
sg24
S'200'
p1025
sg26
S'Isolerte faresoner'
p1026
sg28
Nsg29
g1013
sg31
S'4 - Store'
p1027
sba(irunmatrix
M3Element
p1028
(dp1029
g3
Nsg4
S'Lite sannsynlig, Mulig'
p1030
sg6
S'white'
p1031
sg8
(lp1032
sg10
S'Possible'
p1033
sg12
S'Isolated'
p1034
sg14
g511
sg16
I3
sg17
S'Nat'
p1035
sg19
S'Naturlig utloest'
p1036
sg21
Nsg22
S'400'
p1037
sg24
S'300'
p1038
sg26
S'Isolerte faresoner'
p1039
sg28
Nsg29
g1013
sg31
S'4 - Store'
p1040
sba(irunmatrix
M3Element
p1041
(dp1042
g3
Nsg4
S'Sannsynlig, Meget sannsynlig'
p1043
sg6
S'gray'
p1044
sg8
(lp1045
sg10
S'Likely'
p1046
sg12
S'Isolated'
p1047
sg14
g76
sg16
I0
sg17
S'High'
p1048
sg19
S'Stor tilleggsbelastning'
p1049
sg21
Nsg22
S'400'
p1050
sg24
S'400'
p1051
sg26
S'Isolerte faresoner'
p1052
sg28
Nsg29
g1013
sg31
S'4 - Store'
p1053
sba(irunmatrix
M3Element
p1054
(dp1055
g3
Nsg4
S'Sannsynlig, Meget sannsynlig'
p1056
sg6
S'gray'
p1057
sg8
(lp1058
sg10
S'Likely'
p1059
sg12
S'Isolated'
p1060
sg14
g76
sg16
I0
sg17
S'Low'
p1061
sg19
S'Liten tilleggsbelastning'
p1062
sg21
Nsg22
S'400'
p1063
sg24
S'500'
p1064
sg26
S'Isolerte faresoner'
p1065
sg28
Nsg29
g1013
sg31
S'4 - Store'
p1066
sba(irunmatrix
M3Element
p1067
(dp1068
g3
Nsg4
S'Sannsynlig, Meget sannsynlig'
p1069
sg6
S'gray'
p1070
sg8
(lp1071
sg10
S'Likely'
p1072
sg12
S'Isolated'
p1073
sg14
g76
sg16
I0
sg17
S'Nat'
p1074
sg19
S'Naturlig utloest'
p1075
sg21
Nsg22
S'400'
p1076
sg24
S'600'
p1077
sg26
S'Isolerte faresoner'
p1078
sg28
Nsg29
g1013
sg31
S'4 - Store'
p1079
sba(irunmatrix
M3Element
p1080
(dp1081
g3
Nsg4
S'Lite sannsynlig, Mulig'
p1082
sg6
S'white'
p1083
sg8
(lp1084
sg10
S'Possible'
p1085
sg12
S'Some'
p1086
sg14
g511
sg16
I3
sg17
S'High'
p1087
sg19
S'Stor tilleggsbelastning'
p1088
sg21
Nsg22
S'400'
p1089
sg24
S'700'
p1090
sg26
S'Noen bratte heng'
p1091
sg28
Nsg29
g1013
sg31
S'4 - Store'
p1092
sba(irunmatrix
M3Element
p1093
(dp1094
g3
Nsg4
S'Lite sannsynlig, Mulig'
p1095
sg6
S'white'
p1096
sg8
(lp1097
sg10
S'Possible'
p1098
sg12
S'Some'
p1099
sg14
g577
sg16
I4
sg17
S'Low'
p1100
sg19
S'Liten tilleggsbelastning'
p1101
sg21
Nsg22
S'400'
p1102
sg24
S'800'
p1103
sg26
S'Noen bratte heng'
p1104
sg28
Nsg29
g1013
sg31
S'4 - Store'
p1105
sba(irunmatrix
M3Element
p1106
(dp1107
g3
Nsg4
S'Lite sannsynlig, Mulig'
p1108
sg6
S'white'
p1109
sg8
(lp1110
sg10
S'Possible'
p1111
sg12
S'Some'
p1112
sg14
g577
sg16
I4
sg17
S'Nat'
p1113
sg19
S'Naturlig utloest'
p1114
sg21
Nsg22
S'400'
p1115
sg24
S'900'
p1116
sg26
S'Noen bratte heng'
p1117
sg28
Nsg29
g1013
sg31
S'4 - Store'
p1118
sba(irunmatrix
M3Element
p1119
(dp1120
g3
Nsg4
S'Sannsynlig, Meget sannsynlig'
p1121
sg6
S'gray'
p1122
sg8
(lp1123
sg10
S'Likely'
p1124
sg12
S'Some'
p1125
sg14
g76
sg16
I0
sg17
S'High'
p1126
sg19
S'Stor tilleggsbelastning'
p1127
sg21
Nsg22
S'400'
p1128
sg24
S'1000'
p1129
sg26
S'Noen bratte heng'
p1130
sg28
Nsg29
g1013
sg31
S'4 - Store'
p1131
sba(irunmatrix
M3Element
p1132
(dp1133
g3
Nsg4
S'Sannsynlig, Meget sannsynlig'
p1134
sg6
S'gray'
p1135
sg8
(lp1136
sg10
S'Likely'
p1137
sg12
S'Some'
p1138
sg14
g76
sg16
I0
sg17
S'Low'
p1139
sg19
S'Liten tilleggsbelastning'
p1140
sg21
Nsg22
S'400'
p1141
sg24
S'1100'
p1142
sg26
S'Noen bratte heng'
p1143
sg28
Nsg29
g1013
sg31
S'4 - Store'
p1144
sba(irunmatrix
M3Element
p1145
(dp1146
g3
Nsg4
S'Sannsynlig, Meget sannsynlig'
p1147
sg6
S'white'
p1148
sg8
(lp1149
sg10
S'Likely'
p1150
sg12
S'Some'
p1151
sg14
g577
sg16
I4
sg17
S'Nat'
p1152
sg19
S'Naturlig utloest'
p1153
sg21
Nsg22
S'400'
p1154
sg24
S'1200'
p1155
sg26
S'Noen bratte heng'
p1156
sg28
Nsg29
g1013
sg31
S'4 - Store'
p1157
sba(irunmatrix
M3Element
p1158
(dp1159
g3
Nsg4
S'Lite sannsynlig, Mulig'
p1160
sg6
S'gray'
p1161
sg8
(lp1162
sg10
S'Possible'
p1163
sg12
S'Many'
p1164
sg14
g76
sg16
I0
sg17
S'High'
p1165
sg19
S'Stor tilleggsbelastning'
p1166
sg21
Nsg22
S'400'
p1167
sg24
S'1300'
p1168
sg26
S'Mange bratte heng'
p1169
sg28
Nsg29
g1013
sg31
S'4 - Store'
p1170
sba(irunmatrix
M3Element
p1171
(dp1172
g3
Nsg4
S'Lite sannsynlig, Mulig'
p1173
sg6
S'white'
p1174
sg8
(lp1175
sg10
S'Possible'
p1176
sg12
S'Many'
p1177
sg14
g76
sg16
I0
sg17
S'Low'
p1178
sg19
S'Liten tilleggsbelastning'
p1179
sg21
Nsg22
S'400'
p1180
sg24
S'1400'
p1181
sg26
S'Mange bratte heng'
p1182
sg28
Nsg29
g1013
sg31
S'4 - Store'
p1183
sba(irunmatrix
M3Element
p1184
(dp1185
g3
Nsg4
S'Lite sannsynlig, Mulig'
p1186
sg6
S'gray'
p1187
sg8
(lp1188
sg10
S'Possible'
p1189
sg12
S'Many'
p1190
sg14
g76
sg16
I0
sg17
S'Nat'
p1191
sg19
S'Naturlig utloest'
p1192
sg21
Nsg22
S'400'
p1193
sg24
S'1500'
p1194
sg26
S'Mange bratte heng'
p1195
sg28
Nsg29
g1013
sg31
S'4 - Store'
p1196
sba(irunmatrix
M3Element
p1197
(dp1198
g3
Nsg4
S'Sannsynlig, Meget sannsynlig'
p1199
sg6
S'gray'
p1200
sg8
(lp1201
sg10
S'Likely'
p1202
sg12
S'Many'
p1203
sg14
g76
sg16
I0
sg17
S'High'
p1204
sg19
S'Stor tilleggsbelastning'
p1205
sg21
Nsg22
S'400'
p1206
sg24
S'1600'
p1207
sg26
S'Mange bratte heng'
p1208
sg28
Nsg29
g1013
sg31
S'4 - Store'
p1209
sba(irunmatrix
M3Element
p1210
(dp1211
g3
Nsg4
S'Sannsynlig, Meget sannsynlig'
p1212
sg6
S'white'
p1213
sg8
(lp1214
sg10
S'Likely'
p1215
sg12
S'Many'
p1216
sg14
g76
sg16
I0
sg17
S'Low'
p1217
sg19
S'Liten tilleggsbelastning'
p1218
sg21
Nsg22
S'400'
p1219
sg24
S'1700'
p1220
sg26
S'Mange bratte heng'
p1221
sg28
Nsg29
g1013
sg31
S'4 - Store'
p1222
sba(irunmatrix
M3Element
p1223
(dp1224
g3
Nsg4
S'Sannsynlig, Meget sannsynlig'
p1225
sg6
S'white'
p1226
sg8
(lp1227
sg10
S'Likely'
p1228
sg12
S'Many'
p1229
sg14
S'k'
p1230
sg16
I5
sg17
S'Nat'
p1231
sg19
S'Naturlig utloest'
p1232
sg21
Nsg22
S'400'
p1233
sg24
S'1800'
p1234
sg26
S'Mange bratte heng'
p1235
sg28
Nsg29
g1013
sg31
S'4 - Store'
p1236
sba(irunmatrix
M3Element
p1237
(dp1238
g3
Nsg4
S'Lite sannsynlig, Mulig'
p1239
sg6
S'gray'
p1240
sg8
(lp1241
sg10
S'Possible'
p1242
sg12
S'Most'
p1243
sg14
g76
sg16
I0
sg17
S'High'
p1244
sg19
S'Stor tilleggsbelastning'
p1245
sg21
Nsg22
S'400'
p1246
sg24
S'1900'
p1247
sg26
S'De fleste bratte heng, Ogsaa i mindre bratt terreng'
p1248
sg28
Nsg29
g1013
sg31
S'4 - Store'
p1249
sba(irunmatrix
M3Element
p1250
(dp1251
g3
Nsg4
S'Lite sannsynlig, Mulig'
p1252
sg6
S'gray'
p1253
sg8
(lp1254
sg10
S'Possible'
p1255
sg12
S'Most'
p1256
sg14
g76
sg16
I0
sg17
S'Low'
p1257
sg19
S'Liten tilleggsbelastning'
p1258
sg21
Nsg22
S'400'
p1259
sg24
S'2000'
p1260
sg26
S'De fleste bratte heng, Ogsaa i mindre bratt terreng'
p1261
sg28
Nsg29
g1013
sg31
S'4 - Store'
p1262
sba(irunmatrix
M3Element
p1263
(dp1264
g3
Nsg4
S'Lite sannsynlig, Mulig'
p1265
sg6
S'gray'
p1266
sg8
(lp1267
sg10
S'Possible'
p1268
sg12
S'Most'
p1269
sg14
g76
sg16
I0
sg17
S'Nat'
p1270
sg19
S'Naturlig utloest'
p1271
sg21
Nsg22
S'400'
p1272
sg24
S'2100'
p1273
sg26
S'De fleste bratte heng, Ogsaa i mindre bratt terreng'
p1274
sg28
Nsg29
g1013
sg31
S'4 - Store'
p1275
sba(irunmatrix
M3Element
p1276
(dp1277
g3
Nsg4
S'Sannsynlig, Meget sannsynlig'
p1278
sg6
S'gray'
p1279
sg8
(lp1280
sg10
S'Likely'
p1281
sg12
S'Most'
p1282
sg14
g76
sg16
I0
sg17
S'High'
p1283
sg19
S'Stor tilleggsbelastning'
p1284
sg21
Nsg22
S'400'
p1285
sg24
S'2200'
p1286
sg26
S'De fleste bratte heng, Ogsaa i mindre bratt terreng'
p1287
sg28
Nsg29
g1013
sg31
S'4 - Store'
p1288
sba(irunmatrix
M3Element
p1289
(dp1290
g3
Nsg4
S'Sannsynlig, Meget sannsynlig'
p1291
sg6
S'gray'
p1292
sg8
(lp1293
sg10
S'Likely'
p1294
sg12
S'Most'
p1295
sg14
g76
sg16
I0
sg17
S'Low'
p1296
sg19
S'Liten tilleggsbelastning'
p1297
sg21
Nsg22
S'400'
p1298
sg24
S'2300'
p1299
sg26
S'De fleste bratte heng, Ogsaa i mindre bratt terreng'
p1300
sg28
Nsg29
g1013
sg31
S'4 - Store'
p1301
sba(irunmatrix
M3Element
p1302
(dp1303
g3
Nsg4
S'Sannsynlig, Meget sannsynlig'
p1304
sg6
S'white'
p1305
sg8
(lp1306
sg10
S'Likely'
p1307
sg12
S'Most'
p1308
sg14
g76
sg16
I0
sg17
S'Nat'
p1309
sg19
S'Naturlig utloest'
p1310
sg21
Nsg22
S'400'
p1311
sg24
S'2400'
p1312
sg26
S'De fleste bratte heng, Ogsaa i mindre bratt terreng'
p1313
sg28
Nsg29
g1013
sg31
S'4 - Store'
p1314
sba(irunmatrix
M3Element
p1315
(dp1316
g3
Nsg4
S'Lite sannsynlig, Mulig'
p1317
sg6
S'white'
p1318
sg8
(lp1319
sg10
S'Possible'
p1320
sg12
S'Isolated'
p1321
sg14
g76
sg16
I0
sg17
S'High'
p1322
sg19
S'Stor tilleggsbelastning'
p1323
sg21
Nsg22
S'500'
p1324
sg24
S'100'
p1325
sg26
S'Isolerte faresoner'
p1326
sg28
Nsg29
S'5'
p1327
sg31
S'5 - Svaert store'
p1328
sba(irunmatrix
M3Element
p1329
(dp1330
g3
Nsg4
S'Lite sannsynlig, Mulig'
p1331
sg6
S'white'
p1332
sg8
(lp1333
sg10
S'Possible'
p1334
sg12
S'Isolated'
p1335
sg14
g76
sg16
I0
sg17
S'Low'
p1336
sg19
S'Liten tilleggsbelastning'
p1337
sg21
Nsg22
S'500'
p1338
sg24
S'200'
p1339
sg26
S'Isolerte faresoner'
p1340
sg28
Nsg29
g1327
sg31
S'5 - Svaert store'
p1341
sba(irunmatrix
M3Element
p1342
(dp1343
g3
Nsg4
S'Lite sannsynlig, Mulig'
p1344
sg6
S'white'
p1345
sg8
(lp1346
sg10
S'Possible'
p1347
sg12
S'Isolated'
p1348
sg14
g76
sg16
I0
sg17
S'Nat'
p1349
sg19
S'Naturlig utloest'
p1350
sg21
Nsg22
S'500'
p1351
sg24
S'300'
p1352
sg26
S'Isolerte faresoner'
p1353
sg28
Nsg29
g1327
sg31
S'5 - Svaert store'
p1354
sba(irunmatrix
M3Element
p1355
(dp1356
g3
Nsg4
S'Sannsynlig, Meget sannsynlig'
p1357
sg6
S'gray'
p1358
sg8
(lp1359
sg10
S'Likely'
p1360
sg12
S'Isolated'
p1361
sg14
g76
sg16
I0
sg17
S'High'
p1362
sg19
S'Stor tilleggsbelastning'
p1363
sg21
Nsg22
S'500'
p1364
sg24
S'400'
p1365
sg26
S'Isolerte faresoner'
p1366
sg28
Nsg29
g1327
sg31
S'5 - Svaert store'
p1367
sba(irunmatrix
M3Element
p1368
(dp1369
g3
Nsg4
S'Sannsynlig, Meget sannsynlig'
p1370
sg6
S'gray'
p1371
sg8
(lp1372
sg10
S'Likely'
p1373
sg12
S'Isolated'
p1374
sg14
g76
sg16
I0
sg17
S'Low'
p1375
sg19
S'Liten tilleggsbelastning'
p1376
sg21
Nsg22
S'500'
p1377
sg24
S'500'
p1378
sg26
S'Isolerte faresoner'
p1379
sg28
Nsg29
g1327
sg31
S'5 - Svaert store'
p1380
sba(irunmatrix
M3Element
p1381
(dp1382
g3
Nsg4
S'Sannsynlig, Meget sannsynlig'
p1383
sg6
S'gray'
p1384
sg8
(lp1385
sg10
S'Likely'
p1386
sg12
S'Isolated'
p1387
sg14
g76
sg16
I0
sg17
S'Nat'
p1388
sg19
S'Naturlig utloest'
p1389
sg21
Nsg22
S'500'
p1390
sg24
S'600'
p1391
sg26
S'Isolerte faresoner'
p1392
sg28
Nsg29
g1327
sg31
S'5 - Svaert store'
p1393
sba(irunmatrix
M3Element
p1394
(dp1395
g3
Nsg4
S'Lite sannsynlig, Mulig'
p1396
sg6
S'white'
p1397
sg8
(lp1398
sg10
S'Possible'
p1399
sg12
S'Some'
p1400
sg14
g76
sg16
I0
sg17
S'High'
p1401
sg19
S'Stor tilleggsbelastning'
p1402
sg21
Nsg22
S'500'
p1403
sg24
S'700'
p1404
sg26
S'Noen bratte heng'
p1405
sg28
Nsg29
g1327
sg31
S'5 - Svaert store'
p1406
sba(irunmatrix
M3Element
p1407
(dp1408
g3
Nsg4
S'Lite sannsynlig, Mulig'
p1409
sg6
S'white'
p1410
sg8
(lp1411
sg10
S'Possible'
p1412
sg12
S'Some'
p1413
sg14
g76
sg16
I0
sg17
S'Low'
p1414
sg19
S'Liten tilleggsbelastning'
p1415
sg21
Nsg22
S'500'
p1416
sg24
S'800'
p1417
sg26
S'Noen bratte heng'
p1418
sg28
Nsg29
g1327
sg31
S'5 - Svaert store'
p1419
sba(irunmatrix
M3Element
p1420
(dp1421
g3
Nsg4
S'Lite sannsynlig, Mulig'
p1422
sg6
S'white'
p1423
sg8
(lp1424
sg10
S'Possible'
p1425
sg12
S'Some'
p1426
sg14
g76
sg16
I0
sg17
S'Nat'
p1427
sg19
S'Naturlig utloest'
p1428
sg21
Nsg22
S'500'
p1429
sg24
S'900'
p1430
sg26
S'Noen bratte heng'
p1431
sg28
Nsg29
g1327
sg31
S'5 - Svaert store'
p1432
sba(irunmatrix
M3Element
p1433
(dp1434
g3
Nsg4
S'Sannsynlig, Meget sannsynlig'
p1435
sg6
S'gray'
p1436
sg8
(lp1437
sg10
S'Likely'
p1438
sg12
S'Some'
p1439
sg14
g76
sg16
I0
sg17
S'High'
p1440
sg19
S'Stor tilleggsbelastning'
p1441
sg21
Nsg22
S'500'
p1442
sg24
S'1000'
p1443
sg26
S'Noen bratte heng'
p1444
sg28
Nsg29
g1327
sg31
S'5 - Svaert store'
p1445
sba(irunmatrix
M3Element
p1446
(dp1447
g3
Nsg4
S'Sannsynlig, Meget sannsynlig'
p1448
sg6
S'gray'
p1449
sg8
(lp1450
sg10
S'Likely'
p1451
sg12
S'Some'
p1452
sg14
g76
sg16
I0
sg17
S'Low'
p1453
sg19
S'Liten tilleggsbelastning'
p1454
sg21
Nsg22
S'500'
p1455
sg24
S'1100'
p1456
sg26
S'Noen bratte heng'
p1457
sg28
Nsg29
g1327
sg31
S'5 - Svaert store'
p1458
sba(irunmatrix
M3Element
p1459
(dp1460
g3
Nsg4
S'Sannsynlig, Meget sannsynlig'
p1461
sg6
S'white'
p1462
sg8
(lp1463
sg10
S'Likely'
p1464
sg12
S'Some'
p1465
sg14
g76
sg16
I0
sg17
S'Nat'
p1466
sg19
S'Naturlig utloest'
p1467
sg21
Nsg22
S'500'
p1468
sg24
S'1200'
p1469
sg26
S'Noen bratte heng'
p1470
sg28
Nsg29
g1327
sg31
S'5 - Svaert store'
p1471
sba(irunmatrix
M3Element
p1472
(dp1473
g3
Nsg4
S'Lite sannsynlig, Mulig'
p1474
sg6
S'gray'
p1475
sg8
(lp1476
sg10
S'Possible'
p1477
sg12
S'Many'
p1478
sg14
g76
sg16
I0
sg17
S'High'
p1479
sg19
S'Stor tilleggsbelastning'
p1480
sg21
Nsg22
S'500'
p1481
sg24
S'1300'
p1482
sg26
S'Mange bratte heng'
p1483
sg28
Nsg29
g1327
sg31
S'5 - Svaert store'
p1484
sba(irunmatrix
M3Element
p1485
(dp1486
g3
Nsg4
S'Lite sannsynlig, Mulig'
p1487
sg6
S'white'
p1488
sg8
(lp1489
sg10
S'Possible'
p1490
sg12
S'Many'
p1491
sg14
g76
sg16
I0
sg17
S'Low'
p1492
sg19
S'Liten tilleggsbelastning'
p1493
sg21
Nsg22
S'500'
p1494
sg24
S'1400'
p1495
sg26
S'Mange bratte heng'
p1496
sg28
Nsg29
g1327
sg31
S'5 - Svaert store'
p1497
sba(irunmatrix
M3Element
p1498
(dp1499
g3
Nsg4
S'Lite sannsynlig, Mulig'
p1500
sg6
S'gray'
p1501
sg8
(lp1502
sg10
S'Possible'
p1503
sg12
S'Many'
p1504
sg14
g76
sg16
I0
sg17
S'Nat'
p1505
sg19
S'Naturlig utloest'
p1506
sg21
Nsg22
S'500'
p1507
sg24
S'1500'
p1508
sg26
S'Mange bratte heng'
p1509
sg28
Nsg29
g1327
sg31
S'5 - Svaert store'
p1510
sba(irunmatrix
M3Element
p1511
(dp1512
g3
Nsg4
S'Sannsynlig, Meget sannsynlig'
p1513
sg6
S'gray'
p1514
sg8
(lp1515
sg10
S'Likely'
p1516
sg12
S'Many'
p1517
sg14
g76
sg16
I0
sg17
S'High'
p1518
sg19
S'Stor tilleggsbelastning'
p1519
sg21
Nsg22
S'500'
p1520
sg24
S'1600'
p1521
sg26
S'Mange bratte heng'
p1522
sg28
Nsg29
g1327
sg31
S'5 - Svaert store'
p1523
sba(irunmatrix
M3Element
p1524
(dp1525
g3
Nsg4
S'Sannsynlig, Meget sannsynlig'
p1526
sg6
S'white'
p1527
sg8
(lp1528
sg10
S'Likely'
p1529
sg12
S'Many'
p1530
sg14
g76
sg16
I0
sg17
S'Low'
p1531
sg19
S'Liten tilleggsbelastning'
p1532
sg21
Nsg22
S'500'
p1533
sg24
S'1700'
p1534
sg26
S'Mange bratte heng'
p1535
sg28
Nsg29
g1327
sg31
S'5 - Svaert store'
p1536
sba(irunmatrix
M3Element
p1537
(dp1538
g3
Nsg4
S'Sannsynlig, Meget sannsynlig'
p1539
sg6
S'white'
p1540
sg8
(lp1541
sg10
S'Likely'
p1542
sg12
S'Many'
p1543
sg14
g1230
sg16
I5
sg17
S'Nat'
p1544
sg19
S'Naturlig utloest'
p1545
sg21
Nsg22
S'500'
p1546
sg24
S'1800'
p1547
sg26
S'Mange bratte heng'
p1548
sg28
Nsg29
g1327
sg31
S'5 - Svaert store'
p1549
sba(irunmatrix
M3Element
p1550
(dp1551
g3
Nsg4
S'Lite sannsynlig, Mulig'
p1552
sg6
S'gray'
p1553
sg8
(lp1554
sg10
S'Possible'
p1555
sg12
S'Most'
p1556
sg14
g76
sg16
I0
sg17
S'High'
p1557
sg19
S'Stor tilleggsbelastning'
p1558
sg21
Nsg22
S'500'
p1559
sg24
S'1900'
p1560
sg26
S'De fleste bratte heng, Ogsaa i mindre bratt terreng'
p1561
sg28
Nsg29
g1327
sg31
S'5 - Svaert store'
p1562
sba(irunmatrix
M3Element
p1563
(dp1564
g3
Nsg4
S'Lite sannsynlig, Mulig'
p1565
sg6
S'gray'
p1566
sg8
(lp1567
sg10
S'Possible'
p1568
sg12
S'Most'
p1569
sg14
g76
sg16
I0
sg17
S'Low'
p1570
sg19
S'Liten tilleggsbelastning'
p1571
sg21
Nsg22
S'500'
p1572
sg24
S'2000'
p1573
sg26
S'De fleste bratte heng, Ogsaa i mindre bratt terreng'
p1574
sg28
Nsg29
g1327
sg31
S'5 - Svaert store'
p1575
sba(irunmatrix
M3Element
p1576
(dp1577
g3
Nsg4
S'Lite sannsynlig, Mulig'
p1578
sg6
S'gray'
p1579
sg8
(lp1580
sg10
S'Possible'
p1581
sg12
S'Most'
p1582
sg14
g76
sg16
I0
sg17
S'Nat'
p1583
sg19
S'Naturlig utloest'
p1584
sg21
Nsg22
S'500'
p1585
sg24
S'2100'
p1586
sg26
S'De fleste bratte heng, Ogsaa i mindre bratt terreng'
p1587
sg28
Nsg29
g1327
sg31
S'5 - Svaert store'
p1588
sba(irunmatrix
M3Element
p1589
(dp1590
g3
Nsg4
S'Sannsynlig, Meget sannsynlig'
p1591
sg6
S'gray'
p1592
sg8
(lp1593
sg10
S'Likely'
p1594
sg12
S'Most'
p1595
sg14
g76
sg16
I0
sg17
S'High'
p1596
sg19
S'Stor tilleggsbelastning'
p1597
sg21
Nsg22
S'500'
p1598
sg24
S'2200'
p1599
sg26
S'De fleste bratte heng, Ogsaa i mindre bratt terreng'
p1600
sg28
Nsg29
g1327
sg31
S'5 - Svaert store'
p1601
sba(irunmatrix
M3Element
p1602
(dp1603
g3
Nsg4
S'Sannsynlig, Meget sannsynlig'
p1604
sg6
S'gray'
p1605
sg8
(lp1606
sg10
S'Likely'
p1607
sg12
S'Most'
p1608
sg14
g76
sg16
I0
sg17
S'Low'
p1609
sg19
S'Liten tilleggsbelastning'
p1610
sg21
Nsg22
S'500'
p1611
sg24
S'2300'
p1612
sg26
S'De fleste bratte heng, Ogsaa i mindre bratt terreng'
p1613
sg28
Nsg29
g1327
sg31
S'5 - Svaert store'
p1614
sba(irunmatrix
M3Element
p1615
(dp1616
g3
Nsg4
S'Sannsynlig, Meget sannsynlig'
p1617
sg6
S'white'
p1618
sg8
(lp1619
sg10
S'Likely'
p1620
sg12
S'Most'
p1621
sg14
g76
sg16
I0
sg17
S'Nat'
p1622
sg19
S'Naturlig utloest'
p1623
sg21
Nsg22
S'500'
p1624
sg24
S'2400'
p1625
sg26
S'De fleste bratte heng, Ogsaa i mindre bratt terreng'
p1626
sg28
Nsg29
g1327
sg31
S'5 - Svaert store'
p1627
sba.