(lp0
(irunmatrix
M3Element
p1
(dp2
S'danger_level_average'
p3
NsS'probability'
p4
S'Lite sannsynlig, Mulig'
p5
sS'colour'
p6
S'white'
p7
sS'danger_level_list'
p8
(lp9
sS'label_probalility'
p10
S'Possible'
p11
sS'label_distribution'
p12
S'Isolated'
p13
sS'recomended_colour'
p14
S'#ccff66'
p15
sS'recomended_danger_level'
p16
I1
sS'label_trigger'
p17
S'High'
p18
sS'trigger'
p19
S'Stor tilleggsbelastning'
p20
sS'occurrences'
p21
NsS'y'
p22
S'100'
p23
sS'x'
p24
S'100'
p25
sS'distribution'
p26
S'Isolerte faresoner'
p27
sS'danger_level_standard_dev'
p28
NsS'label_size'
p29
S'1'
p30
sS'avalanche_size'
p31
S'1 - Harmloest'
p32
sba(irunmatrix
M3Element
p33
(dp34
g3
Nsg4
S'Lite sannsynlig, Mulig'
p35
sg6
S'white'
p36
sg8
(lp37
sg10
S'Possible'
p38
sg12
S'Isolated'
p39
sg14
g15
sg16
I1
sg17
S'Low'
p40
sg19
S'Liten tilleggsbelastning'
p41
sg21
Nsg22
S'100'
p42
sg24
S'200'
p43
sg26
S'Isolerte faresoner'
p44
sg28
Nsg29
g30
sg31
S'1 - Harmloest'
p45
sba(irunmatrix
M3Element
p46
(dp47
g3
Nsg4
S'Lite sannsynlig, Mulig'
p48
sg6
S'white'
p49
sg8
(lp50
sg10
S'Possible'
p51
sg12
S'Isolated'
p52
sg14
g15
sg16
I1
sg17
S'Nat'
p53
sg19
S'Naturlig utloest'
p54
sg21
Nsg22
S'100'
p55
sg24
S'300'
p56
sg26
S'Isolerte faresoner'
p57
sg28
Nsg29
g30
sg31
S'1 - Harmloest'
p58
sba(irunmatrix
M3Element
p59
(dp60
g3
Nsg4
S'Sannsynlig, Meget sannsynlig'
p61
sg6
S'gray'
p62
sg8
(lp63
sg10
S'Likely'
p64
sg12
S'Isolated'
p65
sg14
S'gray'
p66
sg16
I0
sg17
S'High'
p67
sg19
S'Stor tilleggsbelastning'
p68
sg21
Nsg22
S'100'
p69
sg24
S'400'
p70
sg26
S'Isolerte faresoner'
p71
sg28
Nsg29
g30
sg31
S'1 - Harmloest'
p72
sba(irunmatrix
M3Element
p73
(dp74
g3
Nsg4
S'Sannsynlig, Meget sannsynlig'
p75
sg6
S'gray'
p76
sg8
(lp77
sg10
S'Likely'
p78
sg12
S'Isolated'
p79
sg14
g66
sg16
I0
sg17
S'Low'
p80
sg19
S'Liten tilleggsbelastning'
p81
sg21
Nsg22
S'100'
p82
sg24
S'500'
p83
sg26
S'Isolerte faresoner'
p84
sg28
Nsg29
g30
sg31
S'1 - Harmloest'
p85
sba(irunmatrix
M3Element
p86
(dp87
g3
Nsg4
S'Sannsynlig, Meget sannsynlig'
p88
sg6
S'gray'
p89
sg8
(lp90
sg10
S'Likely'
p91
sg12
S'Isolated'
p92
sg14
g66
sg16
I0
sg17
S'Nat'
p93
sg19
S'Naturlig utloest'
p94
sg21
Nsg22
S'100'
p95
sg24
S'600'
p96
sg26
S'Isolerte faresoner'
p97
sg28
Nsg29
g30
sg31
S'1 - Harmloest'
p98
sba(irunmatrix
M3Element
p99
(dp100
g3
Nsg4
S'Lite sannsynlig, Mulig'
p101
sg6
S'white'
p102
sg8
(lp103
sg10
S'Possible'
p104
sg12
S'Some'
p105
sg14
g15
sg16
I1
sg17
S'High'
p106
sg19
S'Stor tilleggsbelastning'
p107
sg21
Nsg22
S'100'
p108
sg24
S'700'
p109
sg26
S'Noen bratte heng'
p110
sg28
Nsg29
g30
sg31
S'1 - Harmloest'
p111
sba(irunmatrix
M3Element
p112
(dp113
g3
Nsg4
S'Lite sannsynlig, Mulig'
p114
sg6
S'white'
p115
sg8
(lp116
sg10
S'Possible'
p117
sg12
S'Some'
p118
sg14
g15
sg16
I1
sg17
S'Low'
p119
sg19
S'Liten tilleggsbelastning'
p120
sg21
Nsg22
S'100'
p121
sg24
S'800'
p122
sg26
S'Noen bratte heng'
p123
sg28
Nsg29
g30
sg31
S'1 - Harmloest'
p124
sba(irunmatrix
M3Element
p125
(dp126
g3
F1.0909090909090908
sg4
S'Lite sannsynlig, Mulig'
p127
sg6
S'#ccff66'
p128
sg8
(lp129
I2
aI1
aI1
aI1
aI1
aI1
aI1
aI1
aI1
aI1
aI1
asg10
S'Possible'
p130
sg12
S'Some'
p131
sg14
g15
sg16
I1
sg17
S'Nat'
p132
sg19
S'Naturlig utloest'
p133
sg21
I11
sg22
S'100'
p134
sg24
S'900'
p135
sg26
S'Noen bratte heng'
p136
sg28
cnumpy.core.multiarray
scalar
p137
(cnumpy
dtype
p138
(S'f8'
p139
I0
I1
tp140
Rp141
(I3
S'<'
p142
NNNI-1
I-1
I0
tp143
bS'\xf6p*\x9f\x11f\xd2?'
p144
tp145
Rp146
sg29
g30
sg31
S'1 - Harmloest'
p147
sba(irunmatrix
M3Element
p148
(dp149
g3
Nsg4
S'Sannsynlig, Meget sannsynlig'
p150
sg6
S'gray'
p151
sg8
(lp152
sg10
S'Likely'
p153
sg12
S'Some'
p154
sg14
g66
sg16
I0
sg17
S'High'
p155
sg19
S'Stor tilleggsbelastning'
p156
sg21
Nsg22
S'100'
p157
sg24
S'1000'
p158
sg26
S'Noen bratte heng'
p159
sg28
Nsg29
g30
sg31
S'1 - Harmloest'
p160
sba(irunmatrix
M3Element
p161
(dp162
g3
Nsg4
S'Sannsynlig, Meget sannsynlig'
p163
sg6
S'gray'
p164
sg8
(lp165
sg10
S'Likely'
p166
sg12
S'Some'
p167
sg14
g66
sg16
I0
sg17
S'Low'
p168
sg19
S'Liten tilleggsbelastning'
p169
sg21
Nsg22
S'100'
p170
sg24
S'1100'
p171
sg26
S'Noen bratte heng'
p172
sg28
Nsg29
g30
sg31
S'1 - Harmloest'
p173
sba(irunmatrix
M3Element
p174
(dp175
g3
Nsg4
S'Sannsynlig, Meget sannsynlig'
p176
sg6
S'white'
p177
sg8
(lp178
sg10
S'Likely'
p179
sg12
S'Some'
p180
sg14
g15
sg16
I1
sg17
S'Nat'
p181
sg19
S'Naturlig utloest'
p182
sg21
Nsg22
S'100'
p183
sg24
S'1200'
p184
sg26
S'Noen bratte heng'
p185
sg28
Nsg29
g30
sg31
S'1 - Harmloest'
p186
sba(irunmatrix
M3Element
p187
(dp188
g3
Nsg4
S'Lite sannsynlig, Mulig'
p189
sg6
S'gray'
p190
sg8
(lp191
sg10
S'Possible'
p192
sg12
S'Many'
p193
sg14
g66
sg16
I0
sg17
S'High'
p194
sg19
S'Stor tilleggsbelastning'
p195
sg21
Nsg22
S'100'
p196
sg24
S'1300'
p197
sg26
S'Mange bratte heng'
p198
sg28
Nsg29
g30
sg31
S'1 - Harmloest'
p199
sba(irunmatrix
M3Element
p200
(dp201
g3
Nsg4
S'Lite sannsynlig, Mulig'
p202
sg6
S'white'
p203
sg8
(lp204
sg10
S'Possible'
p205
sg12
S'Many'
p206
sg14
g15
sg16
I1
sg17
S'Low'
p207
sg19
S'Liten tilleggsbelastning'
p208
sg21
Nsg22
S'100'
p209
sg24
S'1400'
p210
sg26
S'Mange bratte heng'
p211
sg28
Nsg29
g30
sg31
S'1 - Harmloest'
p212
sba(irunmatrix
M3Element
p213
(dp214
g3
Nsg4
S'Lite sannsynlig, Mulig'
p215
sg6
S'gray'
p216
sg8
(lp217
sg10
S'Possible'
p218
sg12
S'Many'
p219
sg14
g66
sg16
I0
sg17
S'Nat'
p220
sg19
S'Naturlig utloest'
p221
sg21
Nsg22
S'100'
p222
sg24
S'1500'
p223
sg26
S'Mange bratte heng'
p224
sg28
Nsg29
g30
sg31
S'1 - Harmloest'
p225
sba(irunmatrix
M3Element
p226
(dp227
g3
Nsg4
S'Sannsynlig, Meget sannsynlig'
p228
sg6
S'gray'
p229
sg8
(lp230
sg10
S'Likely'
p231
sg12
S'Many'
p232
sg14
g66
sg16
I0
sg17
S'High'
p233
sg19
S'Stor tilleggsbelastning'
p234
sg21
Nsg22
S'100'
p235
sg24
S'1600'
p236
sg26
S'Mange bratte heng'
p237
sg28
Nsg29
g30
sg31
S'1 - Harmloest'
p238
sba(irunmatrix
M3Element
p239
(dp240
g3
Nsg4
S'Sannsynlig, Meget sannsynlig'
p241
sg6
S'white'
p242
sg8
(lp243
sg10
S'Likely'
p244
sg12
S'Many'
p245
sg14
S'#ffff00'
p246
sg16
I2
sg17
S'Low'
p247
sg19
S'Liten tilleggsbelastning'
p248
sg21
Nsg22
S'100'
p249
sg24
S'1700'
p250
sg26
S'Mange bratte heng'
p251
sg28
Nsg29
g30
sg31
S'1 - Harmloest'
p252
sba(irunmatrix
M3Element
p253
(dp254
g3
Nsg4
S'Sannsynlig, Meget sannsynlig'
p255
sg6
S'white'
p256
sg8
(lp257
sg10
S'Likely'
p258
sg12
S'Many'
p259
sg14
g246
sg16
I2
sg17
S'Nat'
p260
sg19
S'Naturlig utloest'
p261
sg21
Nsg22
S'100'
p262
sg24
S'1800'
p263
sg26
S'Mange bratte heng'
p264
sg28
Nsg29
g30
sg31
S'1 - Harmloest'
p265
sba(irunmatrix
M3Element
p266
(dp267
g3
Nsg4
S'Lite sannsynlig, Mulig'
p268
sg6
S'gray'
p269
sg8
(lp270
sg10
S'Possible'
p271
sg12
S'Most'
p272
sg14
g66
sg16
I0
sg17
S'High'
p273
sg19
S'Stor tilleggsbelastning'
p274
sg21
Nsg22
S'100'
p275
sg24
S'1900'
p276
sg26
S'De fleste bratte heng, Ogsaa i mindre bratt terreng'
p277
sg28
Nsg29
g30
sg31
S'1 - Harmloest'
p278
sba(irunmatrix
M3Element
p279
(dp280
g3
Nsg4
S'Lite sannsynlig, Mulig'
p281
sg6
S'gray'
p282
sg8
(lp283
sg10
S'Possible'
p284
sg12
S'Most'
p285
sg14
g66
sg16
I0
sg17
S'Low'
p286
sg19
S'Liten tilleggsbelastning'
p287
sg21
Nsg22
S'100'
p288
sg24
S'2000'
p289
sg26
S'De fleste bratte heng, Ogsaa i mindre bratt terreng'
p290
sg28
Nsg29
g30
sg31
S'1 - Harmloest'
p291
sba(irunmatrix
M3Element
p292
(dp293
g3
Nsg4
S'Lite sannsynlig, Mulig'
p294
sg6
S'gray'
p295
sg8
(lp296
sg10
S'Possible'
p297
sg12
S'Most'
p298
sg14
g66
sg16
I0
sg17
S'Nat'
p299
sg19
S'Naturlig utloest'
p300
sg21
Nsg22
S'100'
p301
sg24
S'2100'
p302
sg26
S'De fleste bratte heng, Ogsaa i mindre bratt terreng'
p303
sg28
Nsg29
g30
sg31
S'1 - Harmloest'
p304
sba(irunmatrix
M3Element
p305
(dp306
g3
Nsg4
S'Sannsynlig, Meget sannsynlig'
p307
sg6
S'gray'
p308
sg8
(lp309
sg10
S'Likely'
p310
sg12
S'Most'
p311
sg14
g66
sg16
I0
sg17
S'High'
p312
sg19
S'Stor tilleggsbelastning'
p313
sg21
Nsg22
S'100'
p314
sg24
S'2200'
p315
sg26
S'De fleste bratte heng, Ogsaa i mindre bratt terreng'
p316
sg28
Nsg29
g30
sg31
S'1 - Harmloest'
p317
sba(irunmatrix
M3Element
p318
(dp319
g3
Nsg4
S'Sannsynlig, Meget sannsynlig'
p320
sg6
S'gray'
p321
sg8
(lp322
sg10
S'Likely'
p323
sg12
S'Most'
p324
sg14
g66
sg16
I0
sg17
S'Low'
p325
sg19
S'Liten tilleggsbelastning'
p326
sg21
Nsg22
S'100'
p327
sg24
S'2300'
p328
sg26
S'De fleste bratte heng, Ogsaa i mindre bratt terreng'
p329
sg28
Nsg29
g30
sg31
S'1 - Harmloest'
p330
sba(irunmatrix
M3Element
p331
(dp332
g3
Nsg4
S'Sannsynlig, Meget sannsynlig'
p333
sg6
S'white'
p334
sg8
(lp335
sg10
S'Likely'
p336
sg12
S'Most'
p337
sg14
g66
sg16
I0
sg17
S'Nat'
p338
sg19
S'Naturlig utloest'
p339
sg21
Nsg22
S'100'
p340
sg24
S'2400'
p341
sg26
S'De fleste bratte heng, Ogsaa i mindre bratt terreng'
p342
sg28
Nsg29
S'2'
p343
sg31
S'1 - Harmloest'
p344
sba(irunmatrix
M3Element
p345
(dp346
g3
F1.0
sg4
S'Lite sannsynlig, Mulig'
p347
sg6
g128
sg8
(lp348
I1
aI1
aI1
asg10
S'Possible'
p349
sg12
S'Isolated'
p350
sg14
g15
sg16
I1
sg17
S'High'
p351
sg19
S'Stor tilleggsbelastning'
p352
sg21
I3
sg22
S'200'
p353
sg24
S'100'
p354
sg26
S'Isolerte faresoner'
p355
sg28
g137
(g141
S'\x00\x00\x00\x00\x00\x00\x00\x00'
p356
tp357
Rp358
sg29
g343
sg31
S'2 - Smaa'
p359
sba(irunmatrix
M3Element
p360
(dp361
g3
F1.0
sg4
S'Lite sannsynlig, Mulig'
p362
sg6
g128
sg8
(lp363
I1
aI1
aI1
asg10
S'Possible'
p364
sg12
S'Isolated'
p365
sg14
g15
sg16
I1
sg17
S'Low'
p366
sg19
S'Liten tilleggsbelastning'
p367
sg21
I3
sg22
S'200'
p368
sg24
S'200'
p369
sg26
S'Isolerte faresoner'
p370
sg28
g137
(g141
S'\x00\x00\x00\x00\x00\x00\x00\x00'
p371
tp372
Rp373
sg29
g343
sg31
S'2 - Smaa'
p374
sba(irunmatrix
M3Element
p375
(dp376
g3
F1.0
sg4
S'Lite sannsynlig, Mulig'
p377
sg6
g128
sg8
(lp378
I1
aI1
aI1
aI1
aI1
asg10
S'Possible'
p379
sg12
S'Isolated'
p380
sg14
g15
sg16
I1
sg17
S'Nat'
p381
sg19
S'Naturlig utloest'
p382
sg21
I5
sg22
S'200'
p383
sg24
S'300'
p384
sg26
S'Isolerte faresoner'
p385
sg28
g137
(g141
S'\x00\x00\x00\x00\x00\x00\x00\x00'
p386
tp387
Rp388
sg29
g343
sg31
S'2 - Smaa'
p389
sba(irunmatrix
M3Element
p390
(dp391
g3
Nsg4
S'Sannsynlig, Meget sannsynlig'
p392
sg6
S'gray'
p393
sg8
(lp394
sg10
S'Likely'
p395
sg12
S'Isolated'
p396
sg14
g66
sg16
I0
sg17
S'High'
p397
sg19
S'Stor tilleggsbelastning'
p398
sg21
Nsg22
S'200'
p399
sg24
S'400'
p400
sg26
S'Isolerte faresoner'
p401
sg28
Nsg29
g343
sg31
S'2 - Smaa'
p402
sba(irunmatrix
M3Element
p403
(dp404
g3
Nsg4
S'Sannsynlig, Meget sannsynlig'
p405
sg6
S'gray'
p406
sg8
(lp407
sg10
S'Likely'
p408
sg12
S'Isolated'
p409
sg14
g66
sg16
I0
sg17
S'Low'
p410
sg19
S'Liten tilleggsbelastning'
p411
sg21
Nsg22
S'200'
p412
sg24
S'500'
p413
sg26
S'Isolerte faresoner'
p414
sg28
Nsg29
g343
sg31
S'2 - Smaa'
p415
sba(irunmatrix
M3Element
p416
(dp417
g3
Nsg4
S'Sannsynlig, Meget sannsynlig'
p418
sg6
S'gray'
p419
sg8
(lp420
sg10
S'Likely'
p421
sg12
S'Isolated'
p422
sg14
g66
sg16
I0
sg17
S'Nat'
p423
sg19
S'Naturlig utloest'
p424
sg21
Nsg22
S'200'
p425
sg24
S'600'
p426
sg26
S'Isolerte faresoner'
p427
sg28
Nsg29
g343
sg31
S'2 - Smaa'
p428
sba(irunmatrix
M3Element
p429
(dp430
g3
F2.0
sg4
S'Lite sannsynlig, Mulig'
p431
sg6
S'#ffff00'
p432
sg8
(lp433
I2
aI2
aI2
aI2
aI2
aI2
aI2
aI2
aI2
aI2
aI2
asg10
S'Possible'
p434
sg12
S'Some'
p435
sg14
g246
sg16
I2
sg17
S'High'
p436
sg19
S'Stor tilleggsbelastning'
p437
sg21
I11
sg22
S'200'
p438
sg24
S'700'
p439
sg26
S'Noen bratte heng'
p440
sg28
g137
(g141
S'\x00\x00\x00\x00\x00\x00\x00\x00'
p441
tp442
Rp443
sg29
g343
sg31
S'2 - Smaa'
p444
sba(irunmatrix
M3Element
p445
(dp446
g3
F2.0727272727272728
sg4
S'Lite sannsynlig, Mulig'
p447
sg6
g432
sg8
(lp448
I2
aI2
aI3
aI2
aI2
aI2
aI3
aI3
aI3
aI2
aI2
aI2
aI2
aI2
aI2
aI2
aI2
aI2
aI2
aI2
aI2
aI2
aI2
aI2
aI2
aI2
aI2
aI2
aI2
aI2
aI2
aI2
aI2
aI2
aI2
aI2
aI2
aI2
aI2
aI2
aI2
aI2
aI2
aI2
aI2
aI2
aI2
aI2
aI2
aI2
aI2
aI2
aI2
aI2
aI2
asg10
S'Possible'
p449
sg12
S'Some'
p450
sg14
g246
sg16
I2
sg17
S'Low'
p451
sg19
S'Liten tilleggsbelastning'
p452
sg21
I55
sg22
S'200'
p453
sg24
S'800'
p454
sg26
S'Noen bratte heng'
p455
sg28
g137
(g141
S';{\xe2\xb3\xbb\x9e\xd0?'
p456
tp457
Rp458
sg29
g343
sg31
S'2 - Smaa'
p459
sba(irunmatrix
M3Element
p460
(dp461
g3
F2.0
sg4
S'Lite sannsynlig, Mulig'
p462
sg6
g432
sg8
(lp463
I2
aI2
asg10
S'Possible'
p464
sg12
S'Some'
p465
sg14
g246
sg16
I2
sg17
S'Nat'
p466
sg19
S'Naturlig utloest'
p467
sg21
I2
sg22
S'200'
p468
sg24
S'900'
p469
sg26
S'Noen bratte heng'
p470
sg28
g137
(g141
S'\x00\x00\x00\x00\x00\x00\x00\x00'
p471
tp472
Rp473
sg29
g343
sg31
S'2 - Smaa'
p474
sba(irunmatrix
M3Element
p475
(dp476
g3
Nsg4
S'Sannsynlig, Meget sannsynlig'
p477
sg6
S'gray'
p478
sg8
(lp479
sg10
S'Likely'
p480
sg12
S'Some'
p481
sg14
g66
sg16
I0
sg17
S'High'
p482
sg19
S'Stor tilleggsbelastning'
p483
sg21
Nsg22
S'200'
p484
sg24
S'1000'
p485
sg26
S'Noen bratte heng'
p486
sg28
Nsg29
g343
sg31
S'2 - Smaa'
p487
sba(irunmatrix
M3Element
p488
(dp489
g3
Nsg4
S'Sannsynlig, Meget sannsynlig'
p490
sg6
S'gray'
p491
sg8
(lp492
sg10
S'Likely'
p493
sg12
S'Some'
p494
sg14
g66
sg16
I0
sg17
S'Low'
p495
sg19
S'Liten tilleggsbelastning'
p496
sg21
Nsg22
S'200'
p497
sg24
S'1100'
p498
sg26
S'Noen bratte heng'
p499
sg28
Nsg29
g343
sg31
S'2 - Smaa'
p500
sba(irunmatrix
M3Element
p501
(dp502
g3
Nsg4
S'Sannsynlig, Meget sannsynlig'
p503
sg6
S'white'
p504
sg8
(lp505
sg10
S'Likely'
p506
sg12
S'Some'
p507
sg14
S'#ff9900'
p508
sg16
I3
sg17
S'Nat'
p509
sg19
S'Naturlig utloest'
p510
sg21
Nsg22
S'200'
p511
sg24
S'1200'
p512
sg26
S'Noen bratte heng'
p513
sg28
Nsg29
g343
sg31
S'2 - Smaa'
p514
sba(irunmatrix
M3Element
p515
(dp516
g3
Nsg4
S'Lite sannsynlig, Mulig'
p517
sg6
S'gray'
p518
sg8
(lp519
sg10
S'Possible'
p520
sg12
S'Many'
p521
sg14
g66
sg16
I0
sg17
S'High'
p522
sg19
S'Stor tilleggsbelastning'
p523
sg21
Nsg22
S'200'
p524
sg24
S'1300'
p525
sg26
S'Mange bratte heng'
p526
sg28
Nsg29
g343
sg31
S'2 - Smaa'
p527
sba(irunmatrix
M3Element
p528
(dp529
g3
F3.0
sg4
S'Lite sannsynlig, Mulig'
p530
sg6
S'#ff9900'
p531
sg8
(lp532
I3
asg10
S'Possible'
p533
sg12
S'Many'
p534
sg14
g508
sg16
I3
sg17
S'Low'
p535
sg19
S'Liten tilleggsbelastning'
p536
sg21
I1
sg22
S'200'
p537
sg24
S'1400'
p538
sg26
S'Mange bratte heng'
p539
sg28
g137
(g141
S'\x00\x00\x00\x00\x00\x00\x00\x00'
p540
tp541
Rp542
sg29
g343
sg31
S'2 - Smaa'
p543
sba(irunmatrix
M3Element
p544
(dp545
g3
F2.0
sg4
S'Lite sannsynlig, Mulig'
p546
sg6
g432
sg8
(lp547
I2
aI2
asg10
S'Possible'
p548
sg12
S'Many'
p549
sg14
g66
sg16
I0
sg17
S'Nat'
p550
sg19
S'Naturlig utloest'
p551
sg21
I2
sg22
S'200'
p552
sg24
S'1500'
p553
sg26
S'Mange bratte heng'
p554
sg28
g137
(g141
S'\x00\x00\x00\x00\x00\x00\x00\x00'
p555
tp556
Rp557
sg29
g343
sg31
S'2 - Smaa'
p558
sba(irunmatrix
M3Element
p559
(dp560
g3
Nsg4
S'Sannsynlig, Meget sannsynlig'
p561
sg6
S'gray'
p562
sg8
(lp563
sg10
S'Likely'
p564
sg12
S'Many'
p565
sg14
g66
sg16
I0
sg17
S'High'
p566
sg19
S'Stor tilleggsbelastning'
p567
sg21
Nsg22
S'200'
p568
sg24
S'1600'
p569
sg26
S'Mange bratte heng'
p570
sg28
Nsg29
g343
sg31
S'2 - Smaa'
p571
sba(irunmatrix
M3Element
p572
(dp573
g3
Nsg4
S'Sannsynlig, Meget sannsynlig'
p574
sg6
S'white'
p575
sg8
(lp576
sg10
S'Likely'
p577
sg12
S'Many'
p578
sg14
S'#ff0000'
p579
sg16
I4
sg17
S'Low'
p580
sg19
S'Liten tilleggsbelastning'
p581
sg21
Nsg22
S'200'
p582
sg24
S'1700'
p583
sg26
S'Mange bratte heng'
p584
sg28
Nsg29
g343
sg31
S'2 - Smaa'
p585
sba(irunmatrix
M3Element
p586
(dp587
g3
Nsg4
S'Sannsynlig, Meget sannsynlig'
p588
sg6
S'white'
p589
sg8
(lp590
sg10
S'Likely'
p591
sg12
S'Many'
p592
sg14
g579
sg16
I4
sg17
S'Nat'
p593
sg19
S'Naturlig utloest'
p594
sg21
Nsg22
S'200'
p595
sg24
S'1800'
p596
sg26
S'Mange bratte heng'
p597
sg28
Nsg29
g343
sg31
S'2 - Smaa'
p598
sba(irunmatrix
M3Element
p599
(dp600
g3
Nsg4
S'Lite sannsynlig, Mulig'
p601
sg6
S'gray'
p602
sg8
(lp603
sg10
S'Possible'
p604
sg12
S'Most'
p605
sg14
g66
sg16
I0
sg17
S'High'
p606
sg19
S'Stor tilleggsbelastning'
p607
sg21
Nsg22
S'200'
p608
sg24
S'1900'
p609
sg26
S'De fleste bratte heng, Ogsaa i mindre bratt terreng'
p610
sg28
Nsg29
g343
sg31
S'2 - Smaa'
p611
sba(irunmatrix
M3Element
p612
(dp613
g3
Nsg4
S'Lite sannsynlig, Mulig'
p614
sg6
S'gray'
p615
sg8
(lp616
sg10
S'Possible'
p617
sg12
S'Most'
p618
sg14
g66
sg16
I0
sg17
S'Low'
p619
sg19
S'Liten tilleggsbelastning'
p620
sg21
Nsg22
S'200'
p621
sg24
S'2000'
p622
sg26
S'De fleste bratte heng, Ogsaa i mindre bratt terreng'
p623
sg28
Nsg29
g343
sg31
S'2 - Smaa'
p624
sba(irunmatrix
M3Element
p625
(dp626
g3
Nsg4
S'Lite sannsynlig, Mulig'
p627
sg6
S'gray'
p628
sg8
(lp629
sg10
S'Possible'
p630
sg12
S'Most'
p631
sg14
g66
sg16
I0
sg17
S'Nat'
p632
sg19
S'Naturlig utloest'
p633
sg21
Nsg22
S'200'
p634
sg24
S'2100'
p635
sg26
S'De fleste bratte heng, Ogsaa i mindre bratt terreng'
p636
sg28
Nsg29
g343
sg31
S'2 - Smaa'
p637
sba(irunmatrix
M3Element
p638
(dp639
g3
Nsg4
S'Sannsynlig, Meget sannsynlig'
p640
sg6
S'gray'
p641
sg8
(lp642
sg10
S'Likely'
p643
sg12
S'Most'
p644
sg14
g66
sg16
I0
sg17
S'High'
p645
sg19
S'Stor tilleggsbelastning'
p646
sg21
Nsg22
S'200'
p647
sg24
S'2200'
p648
sg26
S'De fleste bratte heng, Ogsaa i mindre bratt terreng'
p649
sg28
Nsg29
g343
sg31
S'2 - Smaa'
p650
sba(irunmatrix
M3Element
p651
(dp652
g3
Nsg4
S'Sannsynlig, Meget sannsynlig'
p653
sg6
S'gray'
p654
sg8
(lp655
sg10
S'Likely'
p656
sg12
S'Most'
p657
sg14
g66
sg16
I0
sg17
S'Low'
p658
sg19
S'Liten tilleggsbelastning'
p659
sg21
Nsg22
S'200'
p660
sg24
S'2300'
p661
sg26
S'De fleste bratte heng, Ogsaa i mindre bratt terreng'
p662
sg28
Nsg29
g343
sg31
S'2 - Smaa'
p663
sba(irunmatrix
M3Element
p664
(dp665
g3
Nsg4
S'Sannsynlig, Meget sannsynlig'
p666
sg6
S'white'
p667
sg8
(lp668
sg10
S'Likely'
p669
sg12
S'Most'
p670
sg14
g66
sg16
I0
sg17
S'Nat'
p671
sg19
S'Naturlig utloest'
p672
sg21
Nsg22
S'200'
p673
sg24
S'2400'
p674
sg26
S'De fleste bratte heng, Ogsaa i mindre bratt terreng'
p675
sg28
Nsg29
g343
sg31
S'2 - Smaa'
p676
sba(irunmatrix
M3Element
p677
(dp678
g3
F2.0
sg4
S'Lite sannsynlig, Mulig'
p679
sg6
g432
sg8
(lp680
I2
asg10
S'Possible'
p681
sg12
S'Isolated'
p682
sg14
g15
sg16
I1
sg17
S'High'
p683
sg19
S'Stor tilleggsbelastning'
p684
sg21
I1
sg22
S'300'
p685
sg24
S'100'
p686
sg26
S'Isolerte faresoner'
p687
sg28
g137
(g141
S'\x00\x00\x00\x00\x00\x00\x00\x00'
p688
tp689
Rp690
sg29
S'3'
p691
sg31
S'3 - Middels'
p692
sba(irunmatrix
M3Element
p693
(dp694
g3
Nsg4
S'Lite sannsynlig, Mulig'
p695
sg6
S'white'
p696
sg8
(lp697
sg10
S'Possible'
p698
sg12
S'Isolated'
p699
sg14
g246
sg16
I2
sg17
S'Low'
p700
sg19
S'Liten tilleggsbelastning'
p701
sg21
Nsg22
S'300'
p702
sg24
S'200'
p703
sg26
S'Isolerte faresoner'
p704
sg28
Nsg29
g691
sg31
S'3 - Middels'
p705
sba(irunmatrix
M3Element
p706
(dp707
g3
Nsg4
S'Lite sannsynlig, Mulig'
p708
sg6
S'white'
p709
sg8
(lp710
sg10
S'Possible'
p711
sg12
S'Isolated'
p712
sg14
g246
sg16
I2
sg17
S'Nat'
p713
sg19
S'Naturlig utloest'
p714
sg21
Nsg22
S'300'
p715
sg24
S'300'
p716
sg26
S'Isolerte faresoner'
p717
sg28
Nsg29
g691
sg31
S'3 - Middels'
p718
sba(irunmatrix
M3Element
p719
(dp720
g3
Nsg4
S'Sannsynlig, Meget sannsynlig'
p721
sg6
S'gray'
p722
sg8
(lp723
sg10
S'Likely'
p724
sg12
S'Isolated'
p725
sg14
g66
sg16
I0
sg17
S'High'
p726
sg19
S'Stor tilleggsbelastning'
p727
sg21
Nsg22
S'300'
p728
sg24
S'400'
p729
sg26
S'Isolerte faresoner'
p730
sg28
Nsg29
g691
sg31
S'3 - Middels'
p731
sba(irunmatrix
M3Element
p732
(dp733
g3
Nsg4
S'Sannsynlig, Meget sannsynlig'
p734
sg6
S'gray'
p735
sg8
(lp736
sg10
S'Likely'
p737
sg12
S'Isolated'
p738
sg14
g66
sg16
I0
sg17
S'Low'
p739
sg19
S'Liten tilleggsbelastning'
p740
sg21
Nsg22
S'300'
p741
sg24
S'500'
p742
sg26
S'Isolerte faresoner'
p743
sg28
Nsg29
g691
sg31
S'3 - Middels'
p744
sba(irunmatrix
M3Element
p745
(dp746
g3
Nsg4
S'Sannsynlig, Meget sannsynlig'
p747
sg6
S'gray'
p748
sg8
(lp749
sg10
S'Likely'
p750
sg12
S'Isolated'
p751
sg14
g66
sg16
I0
sg17
S'Nat'
p752
sg19
S'Naturlig utloest'
p753
sg21
Nsg22
S'300'
p754
sg24
S'600'
p755
sg26
S'Isolerte faresoner'
p756
sg28
Nsg29
g691
sg31
S'3 - Middels'
p757
sba(irunmatrix
M3Element
p758
(dp759
g3
F2.0
sg4
S'Lite sannsynlig, Mulig'
p760
sg6
g432
sg8
(lp761
I2
aI2
aI2
asg10
S'Possible'
p762
sg12
S'Some'
p763
sg14
g246
sg16
I2
sg17
S'High'
p764
sg19
S'Stor tilleggsbelastning'
p765
sg21
I3
sg22
S'300'
p766
sg24
S'700'
p767
sg26
S'Noen bratte heng'
p768
sg28
g137
(g141
S'\x00\x00\x00\x00\x00\x00\x00\x00'
p769
tp770
Rp771
sg29
g691
sg31
S'3 - Middels'
p772
sba(irunmatrix
M3Element
p773
(dp774
g3
F3.0
sg4
S'Lite sannsynlig, Mulig'
p775
sg6
g531
sg8
(lp776
I3
aI3
aI3
aI3
aI3
aI3
aI3
aI3
aI3
aI3
aI3
aI3
asg10
S'Possible'
p777
sg12
S'Some'
p778
sg14
g508
sg16
I3
sg17
S'Low'
p779
sg19
S'Liten tilleggsbelastning'
p780
sg21
I12
sg22
S'300'
p781
sg24
S'800'
p782
sg26
S'Noen bratte heng'
p783
sg28
g137
(g141
S'\x00\x00\x00\x00\x00\x00\x00\x00'
p784
tp785
Rp786
sg29
g691
sg31
S'3 - Middels'
p787
sba(irunmatrix
M3Element
p788
(dp789
g3
F3.0
sg4
S'Lite sannsynlig, Mulig'
p790
sg6
g531
sg8
(lp791
I3
asg10
S'Possible'
p792
sg12
S'Some'
p793
sg14
g508
sg16
I3
sg17
S'Nat'
p794
sg19
S'Naturlig utloest'
p795
sg21
I1
sg22
S'300'
p796
sg24
S'900'
p797
sg26
S'Noen bratte heng'
p798
sg28
g137
(g141
S'\x00\x00\x00\x00\x00\x00\x00\x00'
p799
tp800
Rp801
sg29
g691
sg31
S'3 - Middels'
p802
sba(irunmatrix
M3Element
p803
(dp804
g3
Nsg4
S'Sannsynlig, Meget sannsynlig'
p805
sg6
S'gray'
p806
sg8
(lp807
sg10
S'Likely'
p808
sg12
S'Some'
p809
sg14
g66
sg16
I0
sg17
S'High'
p810
sg19
S'Stor tilleggsbelastning'
p811
sg21
Nsg22
S'300'
p812
sg24
S'1000'
p813
sg26
S'Noen bratte heng'
p814
sg28
Nsg29
g691
sg31
S'3 - Middels'
p815
sba(irunmatrix
M3Element
p816
(dp817
g3
Nsg4
S'Sannsynlig, Meget sannsynlig'
p818
sg6
S'gray'
p819
sg8
(lp820
sg10
S'Likely'
p821
sg12
S'Some'
p822
sg14
g66
sg16
I0
sg17
S'Low'
p823
sg19
S'Liten tilleggsbelastning'
p824
sg21
Nsg22
S'300'
p825
sg24
S'1100'
p826
sg26
S'Noen bratte heng'
p827
sg28
Nsg29
g691
sg31
S'3 - Middels'
p828
sba(irunmatrix
M3Element
p829
(dp830
g3
Nsg4
S'Sannsynlig, Meget sannsynlig'
p831
sg6
S'white'
p832
sg8
(lp833
sg10
S'Likely'
p834
sg12
S'Some'
p835
sg14
g579
sg16
I4
sg17
S'Nat'
p836
sg19
S'Naturlig utloest'
p837
sg21
Nsg22
S'300'
p838
sg24
S'1200'
p839
sg26
S'Noen bratte heng'
p840
sg28
Nsg29
g691
sg31
S'3 - Middels'
p841
sba(irunmatrix
M3Element
p842
(dp843
g3
Nsg4
S'Lite sannsynlig, Mulig'
p844
sg6
S'gray'
p845
sg8
(lp846
sg10
S'Possible'
p847
sg12
S'Many'
p848
sg14
g66
sg16
I0
sg17
S'High'
p849
sg19
S'Stor tilleggsbelastning'
p850
sg21
Nsg22
S'300'
p851
sg24
S'1300'
p852
sg26
S'Mange bratte heng'
p853
sg28
Nsg29
g691
sg31
S'3 - Middels'
p854
sba(irunmatrix
M3Element
p855
(dp856
g3
Nsg4
S'Lite sannsynlig, Mulig'
p857
sg6
S'white'
p858
sg8
(lp859
sg10
S'Possible'
p860
sg12
S'Many'
p861
sg14
g579
sg16
I4
sg17
S'Low'
p862
sg19
S'Liten tilleggsbelastning'
p863
sg21
Nsg22
S'300'
p864
sg24
S'1400'
p865
sg26
S'Mange bratte heng'
p866
sg28
Nsg29
g691
sg31
S'3 - Middels'
p867
sba(irunmatrix
M3Element
p868
(dp869
g3
Nsg4
S'Lite sannsynlig, Mulig'
p870
sg6
S'gray'
p871
sg8
(lp872
sg10
S'Possible'
p873
sg12
S'Many'
p874
sg14
g66
sg16
I0
sg17
S'Nat'
p875
sg19
S'Naturlig utloest'
p876
sg21
Nsg22
S'300'
p877
sg24
S'1500'
p878
sg26
S'Mange bratte heng'
p879
sg28
Nsg29
g691
sg31
S'3 - Middels'
p880
sba(irunmatrix
M3Element
p881
(dp882
g3
Nsg4
S'Sannsynlig, Meget sannsynlig'
p883
sg6
S'gray'
p884
sg8
(lp885
sg10
S'Likely'
p886
sg12
S'Many'
p887
sg14
g66
sg16
I0
sg17
S'High'
p888
sg19
S'Stor tilleggsbelastning'
p889
sg21
Nsg22
S'300'
p890
sg24
S'1600'
p891
sg26
S'Mange bratte heng'
p892
sg28
Nsg29
g691
sg31
S'3 - Middels'
p893
sba(irunmatrix
M3Element
p894
(dp895
g3
Nsg4
S'Sannsynlig, Meget sannsynlig'
p896
sg6
S'white'
p897
sg8
(lp898
sg10
S'Likely'
p899
sg12
S'Many'
p900
sg14
g579
sg16
I4
sg17
S'Low'
p901
sg19
S'Liten tilleggsbelastning'
p902
sg21
Nsg22
S'300'
p903
sg24
S'1700'
p904
sg26
S'Mange bratte heng'
p905
sg28
Nsg29
g691
sg31
S'3 - Middels'
p906
sba(irunmatrix
M3Element
p907
(dp908
g3
Nsg4
S'Sannsynlig, Meget sannsynlig'
p909
sg6
S'white'
p910
sg8
(lp911
sg10
S'Likely'
p912
sg12
S'Many'
p913
sg14
g579
sg16
I4
sg17
S'Nat'
p914
sg19
S'Naturlig utloest'
p915
sg21
Nsg22
S'300'
p916
sg24
S'1800'
p917
sg26
S'Mange bratte heng'
p918
sg28
Nsg29
g691
sg31
S'3 - Middels'
p919
sba(irunmatrix
M3Element
p920
(dp921
g3
Nsg4
S'Lite sannsynlig, Mulig'
p922
sg6
S'gray'
p923
sg8
(lp924
sg10
S'Possible'
p925
sg12
S'Most'
p926
sg14
g66
sg16
I0
sg17
S'High'
p927
sg19
S'Stor tilleggsbelastning'
p928
sg21
Nsg22
S'300'
p929
sg24
S'1900'
p930
sg26
S'De fleste bratte heng, Ogsaa i mindre bratt terreng'
p931
sg28
Nsg29
g691
sg31
S'3 - Middels'
p932
sba(irunmatrix
M3Element
p933
(dp934
g3
Nsg4
S'Lite sannsynlig, Mulig'
p935
sg6
S'gray'
p936
sg8
(lp937
sg10
S'Possible'
p938
sg12
S'Most'
p939
sg14
g66
sg16
I0
sg17
S'Low'
p940
sg19
S'Liten tilleggsbelastning'
p941
sg21
Nsg22
S'300'
p942
sg24
S'2000'
p943
sg26
S'De fleste bratte heng, Ogsaa i mindre bratt terreng'
p944
sg28
Nsg29
g691
sg31
S'3 - Middels'
p945
sba(irunmatrix
M3Element
p946
(dp947
g3
Nsg4
S'Lite sannsynlig, Mulig'
p948
sg6
S'gray'
p949
sg8
(lp950
sg10
S'Possible'
p951
sg12
S'Most'
p952
sg14
g66
sg16
I0
sg17
S'Nat'
p953
sg19
S'Naturlig utloest'
p954
sg21
Nsg22
S'300'
p955
sg24
S'2100'
p956
sg26
S'De fleste bratte heng, Ogsaa i mindre bratt terreng'
p957
sg28
Nsg29
g691
sg31
S'3 - Middels'
p958
sba(irunmatrix
M3Element
p959
(dp960
g3
Nsg4
S'Sannsynlig, Meget sannsynlig'
p961
sg6
S'gray'
p962
sg8
(lp963
sg10
S'Likely'
p964
sg12
S'Most'
p965
sg14
g66
sg16
I0
sg17
S'High'
p966
sg19
S'Stor tilleggsbelastning'
p967
sg21
Nsg22
S'300'
p968
sg24
S'2200'
p969
sg26
S'De fleste bratte heng, Ogsaa i mindre bratt terreng'
p970
sg28
Nsg29
g691
sg31
S'3 - Middels'
p971
sba(irunmatrix
M3Element
p972
(dp973
g3
Nsg4
S'Sannsynlig, Meget sannsynlig'
p974
sg6
S'gray'
p975
sg8
(lp976
sg10
S'Likely'
p977
sg12
S'Most'
p978
sg14
g66
sg16
I0
sg17
S'Low'
p979
sg19
S'Liten tilleggsbelastning'
p980
sg21
Nsg22
S'300'
p981
sg24
S'2300'
p982
sg26
S'De fleste bratte heng, Ogsaa i mindre bratt terreng'
p983
sg28
Nsg29
g691
sg31
S'3 - Middels'
p984
sba(irunmatrix
M3Element
p985
(dp986
g3
Nsg4
S'Sannsynlig, Meget sannsynlig'
p987
sg6
S'white'
p988
sg8
(lp989
sg10
S'Likely'
p990
sg12
S'Most'
p991
sg14
g66
sg16
I0
sg17
S'Nat'
p992
sg19
S'Naturlig utloest'
p993
sg21
Nsg22
S'300'
p994
sg24
S'2400'
p995
sg26
S'De fleste bratte heng, Ogsaa i mindre bratt terreng'
p996
sg28
Nsg29
g691
sg31
S'3 - Middels'
p997
sba(irunmatrix
M3Element
p998
(dp999
g3
Nsg4
S'Lite sannsynlig, Mulig'
p1000
sg6
S'white'
p1001
sg8
(lp1002
sg10
S'Possible'
p1003
sg12
S'Isolated'
p1004
sg14
g246
sg16
I2
sg17
S'High'
p1005
sg19
S'Stor tilleggsbelastning'
p1006
sg21
Nsg22
S'400'
p1007
sg24
S'100'
p1008
sg26
S'Isolerte faresoner'
p1009
sg28
Nsg29
S'4'
p1010
sg31
S'4 - Store'
p1011
sba(irunmatrix
M3Element
p1012
(dp1013
g3
Nsg4
S'Lite sannsynlig, Mulig'
p1014
sg6
S'white'
p1015
sg8
(lp1016
sg10
S'Possible'
p1017
sg12
S'Isolated'
p1018
sg14
g508
sg16
I3
sg17
S'Low'
p1019
sg19
S'Liten tilleggsbelastning'
p1020
sg21
Nsg22
S'400'
p1021
sg24
S'200'
p1022
sg26
S'Isolerte faresoner'
p1023
sg28
Nsg29
g1010
sg31
S'4 - Store'
p1024
sba(irunmatrix
M3Element
p1025
(dp1026
g3
Nsg4
S'Lite sannsynlig, Mulig'
p1027
sg6
S'white'
p1028
sg8
(lp1029
sg10
S'Possible'
p1030
sg12
S'Isolated'
p1031
sg14
g508
sg16
I3
sg17
S'Nat'
p1032
sg19
S'Naturlig utloest'
p1033
sg21
Nsg22
S'400'
p1034
sg24
S'300'
p1035
sg26
S'Isolerte faresoner'
p1036
sg28
Nsg29
g1010
sg31
S'4 - Store'
p1037
sba(irunmatrix
M3Element
p1038
(dp1039
g3
Nsg4
S'Sannsynlig, Meget sannsynlig'
p1040
sg6
S'gray'
p1041
sg8
(lp1042
sg10
S'Likely'
p1043
sg12
S'Isolated'
p1044
sg14
g66
sg16
I0
sg17
S'High'
p1045
sg19
S'Stor tilleggsbelastning'
p1046
sg21
Nsg22
S'400'
p1047
sg24
S'400'
p1048
sg26
S'Isolerte faresoner'
p1049
sg28
Nsg29
g1010
sg31
S'4 - Store'
p1050
sba(irunmatrix
M3Element
p1051
(dp1052
g3
Nsg4
S'Sannsynlig, Meget sannsynlig'
p1053
sg6
S'gray'
p1054
sg8
(lp1055
sg10
S'Likely'
p1056
sg12
S'Isolated'
p1057
sg14
g66
sg16
I0
sg17
S'Low'
p1058
sg19
S'Liten tilleggsbelastning'
p1059
sg21
Nsg22
S'400'
p1060
sg24
S'500'
p1061
sg26
S'Isolerte faresoner'
p1062
sg28
Nsg29
g1010
sg31
S'4 - Store'
p1063
sba(irunmatrix
M3Element
p1064
(dp1065
g3
Nsg4
S'Sannsynlig, Meget sannsynlig'
p1066
sg6
S'gray'
p1067
sg8
(lp1068
sg10
S'Likely'
p1069
sg12
S'Isolated'
p1070
sg14
g66
sg16
I0
sg17
S'Nat'
p1071
sg19
S'Naturlig utloest'
p1072
sg21
Nsg22
S'400'
p1073
sg24
S'600'
p1074
sg26
S'Isolerte faresoner'
p1075
sg28
Nsg29
g1010
sg31
S'4 - Store'
p1076
sba(irunmatrix
M3Element
p1077
(dp1078
g3
Nsg4
S'Lite sannsynlig, Mulig'
p1079
sg6
S'white'
p1080
sg8
(lp1081
sg10
S'Possible'
p1082
sg12
S'Some'
p1083
sg14
g508
sg16
I3
sg17
S'High'
p1084
sg19
S'Stor tilleggsbelastning'
p1085
sg21
Nsg22
S'400'
p1086
sg24
S'700'
p1087
sg26
S'Noen bratte heng'
p1088
sg28
Nsg29
g1010
sg31
S'4 - Store'
p1089
sba(irunmatrix
M3Element
p1090
(dp1091
g3
Nsg4
S'Lite sannsynlig, Mulig'
p1092
sg6
S'white'
p1093
sg8
(lp1094
sg10
S'Possible'
p1095
sg12
S'Some'
p1096
sg14
g579
sg16
I4
sg17
S'Low'
p1097
sg19
S'Liten tilleggsbelastning'
p1098
sg21
Nsg22
S'400'
p1099
sg24
S'800'
p1100
sg26
S'Noen bratte heng'
p1101
sg28
Nsg29
g1010
sg31
S'4 - Store'
p1102
sba(irunmatrix
M3Element
p1103
(dp1104
g3
Nsg4
S'Lite sannsynlig, Mulig'
p1105
sg6
S'white'
p1106
sg8
(lp1107
sg10
S'Possible'
p1108
sg12
S'Some'
p1109
sg14
g579
sg16
I4
sg17
S'Nat'
p1110
sg19
S'Naturlig utloest'
p1111
sg21
Nsg22
S'400'
p1112
sg24
S'900'
p1113
sg26
S'Noen bratte heng'
p1114
sg28
Nsg29
g1010
sg31
S'4 - Store'
p1115
sba(irunmatrix
M3Element
p1116
(dp1117
g3
Nsg4
S'Sannsynlig, Meget sannsynlig'
p1118
sg6
S'gray'
p1119
sg8
(lp1120
sg10
S'Likely'
p1121
sg12
S'Some'
p1122
sg14
g66
sg16
I0
sg17
S'High'
p1123
sg19
S'Stor tilleggsbelastning'
p1124
sg21
Nsg22
S'400'
p1125
sg24
S'1000'
p1126
sg26
S'Noen bratte heng'
p1127
sg28
Nsg29
g1010
sg31
S'4 - Store'
p1128
sba(irunmatrix
M3Element
p1129
(dp1130
g3
Nsg4
S'Sannsynlig, Meget sannsynlig'
p1131
sg6
S'gray'
p1132
sg8
(lp1133
sg10
S'Likely'
p1134
sg12
S'Some'
p1135
sg14
g66
sg16
I0
sg17
S'Low'
p1136
sg19
S'Liten tilleggsbelastning'
p1137
sg21
Nsg22
S'400'
p1138
sg24
S'1100'
p1139
sg26
S'Noen bratte heng'
p1140
sg28
Nsg29
g1010
sg31
S'4 - Store'
p1141
sba(irunmatrix
M3Element
p1142
(dp1143
g3
Nsg4
S'Sannsynlig, Meget sannsynlig'
p1144
sg6
S'white'
p1145
sg8
(lp1146
sg10
S'Likely'
p1147
sg12
S'Some'
p1148
sg14
g579
sg16
I4
sg17
S'Nat'
p1149
sg19
S'Naturlig utloest'
p1150
sg21
Nsg22
S'400'
p1151
sg24
S'1200'
p1152
sg26
S'Noen bratte heng'
p1153
sg28
Nsg29
g1010
sg31
S'4 - Store'
p1154
sba(irunmatrix
M3Element
p1155
(dp1156
g3
Nsg4
S'Lite sannsynlig, Mulig'
p1157
sg6
S'gray'
p1158
sg8
(lp1159
sg10
S'Possible'
p1160
sg12
S'Many'
p1161
sg14
g66
sg16
I0
sg17
S'High'
p1162
sg19
S'Stor tilleggsbelastning'
p1163
sg21
Nsg22
S'400'
p1164
sg24
S'1300'
p1165
sg26
S'Mange bratte heng'
p1166
sg28
Nsg29
g1010
sg31
S'4 - Store'
p1167
sba(irunmatrix
M3Element
p1168
(dp1169
g3
Nsg4
S'Lite sannsynlig, Mulig'
p1170
sg6
S'white'
p1171
sg8
(lp1172
sg10
S'Possible'
p1173
sg12
S'Many'
p1174
sg14
g66
sg16
I0
sg17
S'Low'
p1175
sg19
S'Liten tilleggsbelastning'
p1176
sg21
Nsg22
S'400'
p1177
sg24
S'1400'
p1178
sg26
S'Mange bratte heng'
p1179
sg28
Nsg29
g1010
sg31
S'4 - Store'
p1180
sba(irunmatrix
M3Element
p1181
(dp1182
g3
Nsg4
S'Lite sannsynlig, Mulig'
p1183
sg6
S'gray'
p1184
sg8
(lp1185
sg10
S'Possible'
p1186
sg12
S'Many'
p1187
sg14
g66
sg16
I0
sg17
S'Nat'
p1188
sg19
S'Naturlig utloest'
p1189
sg21
Nsg22
S'400'
p1190
sg24
S'1500'
p1191
sg26
S'Mange bratte heng'
p1192
sg28
Nsg29
g1010
sg31
S'4 - Store'
p1193
sba(irunmatrix
M3Element
p1194
(dp1195
g3
Nsg4
S'Sannsynlig, Meget sannsynlig'
p1196
sg6
S'gray'
p1197
sg8
(lp1198
sg10
S'Likely'
p1199
sg12
S'Many'
p1200
sg14
g66
sg16
I0
sg17
S'High'
p1201
sg19
S'Stor tilleggsbelastning'
p1202
sg21
Nsg22
S'400'
p1203
sg24
S'1600'
p1204
sg26
S'Mange bratte heng'
p1205
sg28
Nsg29
g1010
sg31
S'4 - Store'
p1206
sba(irunmatrix
M3Element
p1207
(dp1208
g3
Nsg4
S'Sannsynlig, Meget sannsynlig'
p1209
sg6
S'white'
p1210
sg8
(lp1211
sg10
S'Likely'
p1212
sg12
S'Many'
p1213
sg14
g66
sg16
I0
sg17
S'Low'
p1214
sg19
S'Liten tilleggsbelastning'
p1215
sg21
Nsg22
S'400'
p1216
sg24
S'1700'
p1217
sg26
S'Mange bratte heng'
p1218
sg28
Nsg29
g1010
sg31
S'4 - Store'
p1219
sba(irunmatrix
M3Element
p1220
(dp1221
g3
Nsg4
S'Sannsynlig, Meget sannsynlig'
p1222
sg6
S'white'
p1223
sg8
(lp1224
sg10
S'Likely'
p1225
sg12
S'Many'
p1226
sg14
S'k'
p1227
sg16
I5
sg17
S'Nat'
p1228
sg19
S'Naturlig utloest'
p1229
sg21
Nsg22
S'400'
p1230
sg24
S'1800'
p1231
sg26
S'Mange bratte heng'
p1232
sg28
Nsg29
g1010
sg31
S'4 - Store'
p1233
sba(irunmatrix
M3Element
p1234
(dp1235
g3
Nsg4
S'Lite sannsynlig, Mulig'
p1236
sg6
S'gray'
p1237
sg8
(lp1238
sg10
S'Possible'
p1239
sg12
S'Most'
p1240
sg14
g66
sg16
I0
sg17
S'High'
p1241
sg19
S'Stor tilleggsbelastning'
p1242
sg21
Nsg22
S'400'
p1243
sg24
S'1900'
p1244
sg26
S'De fleste bratte heng, Ogsaa i mindre bratt terreng'
p1245
sg28
Nsg29
g1010
sg31
S'4 - Store'
p1246
sba(irunmatrix
M3Element
p1247
(dp1248
g3
Nsg4
S'Lite sannsynlig, Mulig'
p1249
sg6
S'gray'
p1250
sg8
(lp1251
sg10
S'Possible'
p1252
sg12
S'Most'
p1253
sg14
g66
sg16
I0
sg17
S'Low'
p1254
sg19
S'Liten tilleggsbelastning'
p1255
sg21
Nsg22
S'400'
p1256
sg24
S'2000'
p1257
sg26
S'De fleste bratte heng, Ogsaa i mindre bratt terreng'
p1258
sg28
Nsg29
g1010
sg31
S'4 - Store'
p1259
sba(irunmatrix
M3Element
p1260
(dp1261
g3
Nsg4
S'Lite sannsynlig, Mulig'
p1262
sg6
S'gray'
p1263
sg8
(lp1264
sg10
S'Possible'
p1265
sg12
S'Most'
p1266
sg14
g66
sg16
I0
sg17
S'Nat'
p1267
sg19
S'Naturlig utloest'
p1268
sg21
Nsg22
S'400'
p1269
sg24
S'2100'
p1270
sg26
S'De fleste bratte heng, Ogsaa i mindre bratt terreng'
p1271
sg28
Nsg29
g1010
sg31
S'4 - Store'
p1272
sba(irunmatrix
M3Element
p1273
(dp1274
g3
Nsg4
S'Sannsynlig, Meget sannsynlig'
p1275
sg6
S'gray'
p1276
sg8
(lp1277
sg10
S'Likely'
p1278
sg12
S'Most'
p1279
sg14
g66
sg16
I0
sg17
S'High'
p1280
sg19
S'Stor tilleggsbelastning'
p1281
sg21
Nsg22
S'400'
p1282
sg24
S'2200'
p1283
sg26
S'De fleste bratte heng, Ogsaa i mindre bratt terreng'
p1284
sg28
Nsg29
g1010
sg31
S'4 - Store'
p1285
sba(irunmatrix
M3Element
p1286
(dp1287
g3
Nsg4
S'Sannsynlig, Meget sannsynlig'
p1288
sg6
S'gray'
p1289
sg8
(lp1290
sg10
S'Likely'
p1291
sg12
S'Most'
p1292
sg14
g66
sg16
I0
sg17
S'Low'
p1293
sg19
S'Liten tilleggsbelastning'
p1294
sg21
Nsg22
S'400'
p1295
sg24
S'2300'
p1296
sg26
S'De fleste bratte heng, Ogsaa i mindre bratt terreng'
p1297
sg28
Nsg29
g1010
sg31
S'4 - Store'
p1298
sba(irunmatrix
M3Element
p1299
(dp1300
g3
Nsg4
S'Sannsynlig, Meget sannsynlig'
p1301
sg6
S'white'
p1302
sg8
(lp1303
sg10
S'Likely'
p1304
sg12
S'Most'
p1305
sg14
g66
sg16
I0
sg17
S'Nat'
p1306
sg19
S'Naturlig utloest'
p1307
sg21
Nsg22
S'400'
p1308
sg24
S'2400'
p1309
sg26
S'De fleste bratte heng, Ogsaa i mindre bratt terreng'
p1310
sg28
Nsg29
g1010
sg31
S'4 - Store'
p1311
sba(irunmatrix
M3Element
p1312
(dp1313
g3
Nsg4
S'Lite sannsynlig, Mulig'
p1314
sg6
S'white'
p1315
sg8
(lp1316
sg10
S'Possible'
p1317
sg12
S'Isolated'
p1318
sg14
g66
sg16
I0
sg17
S'High'
p1319
sg19
S'Stor tilleggsbelastning'
p1320
sg21
Nsg22
S'500'
p1321
sg24
S'100'
p1322
sg26
S'Isolerte faresoner'
p1323
sg28
Nsg29
S'5'
p1324
sg31
S'5 - Svaert store'
p1325
sba(irunmatrix
M3Element
p1326
(dp1327
g3
Nsg4
S'Lite sannsynlig, Mulig'
p1328
sg6
S'white'
p1329
sg8
(lp1330
sg10
S'Possible'
p1331
sg12
S'Isolated'
p1332
sg14
g66
sg16
I0
sg17
S'Low'
p1333
sg19
S'Liten tilleggsbelastning'
p1334
sg21
Nsg22
S'500'
p1335
sg24
S'200'
p1336
sg26
S'Isolerte faresoner'
p1337
sg28
Nsg29
g1324
sg31
S'5 - Svaert store'
p1338
sba(irunmatrix
M3Element
p1339
(dp1340
g3
Nsg4
S'Lite sannsynlig, Mulig'
p1341
sg6
S'white'
p1342
sg8
(lp1343
sg10
S'Possible'
p1344
sg12
S'Isolated'
p1345
sg14
g66
sg16
I0
sg17
S'Nat'
p1346
sg19
S'Naturlig utloest'
p1347
sg21
Nsg22
S'500'
p1348
sg24
S'300'
p1349
sg26
S'Isolerte faresoner'
p1350
sg28
Nsg29
g1324
sg31
S'5 - Svaert store'
p1351
sba(irunmatrix
M3Element
p1352
(dp1353
g3
Nsg4
S'Sannsynlig, Meget sannsynlig'
p1354
sg6
S'gray'
p1355
sg8
(lp1356
sg10
S'Likely'
p1357
sg12
S'Isolated'
p1358
sg14
g66
sg16
I0
sg17
S'High'
p1359
sg19
S'Stor tilleggsbelastning'
p1360
sg21
Nsg22
S'500'
p1361
sg24
S'400'
p1362
sg26
S'Isolerte faresoner'
p1363
sg28
Nsg29
g1324
sg31
S'5 - Svaert store'
p1364
sba(irunmatrix
M3Element
p1365
(dp1366
g3
Nsg4
S'Sannsynlig, Meget sannsynlig'
p1367
sg6
S'gray'
p1368
sg8
(lp1369
sg10
S'Likely'
p1370
sg12
S'Isolated'
p1371
sg14
g66
sg16
I0
sg17
S'Low'
p1372
sg19
S'Liten tilleggsbelastning'
p1373
sg21
Nsg22
S'500'
p1374
sg24
S'500'
p1375
sg26
S'Isolerte faresoner'
p1376
sg28
Nsg29
g1324
sg31
S'5 - Svaert store'
p1377
sba(irunmatrix
M3Element
p1378
(dp1379
g3
Nsg4
S'Sannsynlig, Meget sannsynlig'
p1380
sg6
S'gray'
p1381
sg8
(lp1382
sg10
S'Likely'
p1383
sg12
S'Isolated'
p1384
sg14
g66
sg16
I0
sg17
S'Nat'
p1385
sg19
S'Naturlig utloest'
p1386
sg21
Nsg22
S'500'
p1387
sg24
S'600'
p1388
sg26
S'Isolerte faresoner'
p1389
sg28
Nsg29
g1324
sg31
S'5 - Svaert store'
p1390
sba(irunmatrix
M3Element
p1391
(dp1392
g3
Nsg4
S'Lite sannsynlig, Mulig'
p1393
sg6
S'white'
p1394
sg8
(lp1395
sg10
S'Possible'
p1396
sg12
S'Some'
p1397
sg14
g66
sg16
I0
sg17
S'High'
p1398
sg19
S'Stor tilleggsbelastning'
p1399
sg21
Nsg22
S'500'
p1400
sg24
S'700'
p1401
sg26
S'Noen bratte heng'
p1402
sg28
Nsg29
g1324
sg31
S'5 - Svaert store'
p1403
sba(irunmatrix
M3Element
p1404
(dp1405
g3
Nsg4
S'Lite sannsynlig, Mulig'
p1406
sg6
S'white'
p1407
sg8
(lp1408
sg10
S'Possible'
p1409
sg12
S'Some'
p1410
sg14
g66
sg16
I0
sg17
S'Low'
p1411
sg19
S'Liten tilleggsbelastning'
p1412
sg21
Nsg22
S'500'
p1413
sg24
S'800'
p1414
sg26
S'Noen bratte heng'
p1415
sg28
Nsg29
g1324
sg31
S'5 - Svaert store'
p1416
sba(irunmatrix
M3Element
p1417
(dp1418
g3
Nsg4
S'Lite sannsynlig, Mulig'
p1419
sg6
S'white'
p1420
sg8
(lp1421
sg10
S'Possible'
p1422
sg12
S'Some'
p1423
sg14
g66
sg16
I0
sg17
S'Nat'
p1424
sg19
S'Naturlig utloest'
p1425
sg21
Nsg22
S'500'
p1426
sg24
S'900'
p1427
sg26
S'Noen bratte heng'
p1428
sg28
Nsg29
g1324
sg31
S'5 - Svaert store'
p1429
sba(irunmatrix
M3Element
p1430
(dp1431
g3
Nsg4
S'Sannsynlig, Meget sannsynlig'
p1432
sg6
S'gray'
p1433
sg8
(lp1434
sg10
S'Likely'
p1435
sg12
S'Some'
p1436
sg14
g66
sg16
I0
sg17
S'High'
p1437
sg19
S'Stor tilleggsbelastning'
p1438
sg21
Nsg22
S'500'
p1439
sg24
S'1000'
p1440
sg26
S'Noen bratte heng'
p1441
sg28
Nsg29
g1324
sg31
S'5 - Svaert store'
p1442
sba(irunmatrix
M3Element
p1443
(dp1444
g3
Nsg4
S'Sannsynlig, Meget sannsynlig'
p1445
sg6
S'gray'
p1446
sg8
(lp1447
sg10
S'Likely'
p1448
sg12
S'Some'
p1449
sg14
g66
sg16
I0
sg17
S'Low'
p1450
sg19
S'Liten tilleggsbelastning'
p1451
sg21
Nsg22
S'500'
p1452
sg24
S'1100'
p1453
sg26
S'Noen bratte heng'
p1454
sg28
Nsg29
g1324
sg31
S'5 - Svaert store'
p1455
sba(irunmatrix
M3Element
p1456
(dp1457
g3
Nsg4
S'Sannsynlig, Meget sannsynlig'
p1458
sg6
S'white'
p1459
sg8
(lp1460
sg10
S'Likely'
p1461
sg12
S'Some'
p1462
sg14
g66
sg16
I0
sg17
S'Nat'
p1463
sg19
S'Naturlig utloest'
p1464
sg21
Nsg22
S'500'
p1465
sg24
S'1200'
p1466
sg26
S'Noen bratte heng'
p1467
sg28
Nsg29
g1324
sg31
S'5 - Svaert store'
p1468
sba(irunmatrix
M3Element
p1469
(dp1470
g3
Nsg4
S'Lite sannsynlig, Mulig'
p1471
sg6
S'gray'
p1472
sg8
(lp1473
sg10
S'Possible'
p1474
sg12
S'Many'
p1475
sg14
g66
sg16
I0
sg17
S'High'
p1476
sg19
S'Stor tilleggsbelastning'
p1477
sg21
Nsg22
S'500'
p1478
sg24
S'1300'
p1479
sg26
S'Mange bratte heng'
p1480
sg28
Nsg29
g1324
sg31
S'5 - Svaert store'
p1481
sba(irunmatrix
M3Element
p1482
(dp1483
g3
Nsg4
S'Lite sannsynlig, Mulig'
p1484
sg6
S'white'
p1485
sg8
(lp1486
sg10
S'Possible'
p1487
sg12
S'Many'
p1488
sg14
g66
sg16
I0
sg17
S'Low'
p1489
sg19
S'Liten tilleggsbelastning'
p1490
sg21
Nsg22
S'500'
p1491
sg24
S'1400'
p1492
sg26
S'Mange bratte heng'
p1493
sg28
Nsg29
g1324
sg31
S'5 - Svaert store'
p1494
sba(irunmatrix
M3Element
p1495
(dp1496
g3
Nsg4
S'Lite sannsynlig, Mulig'
p1497
sg6
S'gray'
p1498
sg8
(lp1499
sg10
S'Possible'
p1500
sg12
S'Many'
p1501
sg14
g66
sg16
I0
sg17
S'Nat'
p1502
sg19
S'Naturlig utloest'
p1503
sg21
Nsg22
S'500'
p1504
sg24
S'1500'
p1505
sg26
S'Mange bratte heng'
p1506
sg28
Nsg29
g1324
sg31
S'5 - Svaert store'
p1507
sba(irunmatrix
M3Element
p1508
(dp1509
g3
Nsg4
S'Sannsynlig, Meget sannsynlig'
p1510
sg6
S'gray'
p1511
sg8
(lp1512
sg10
S'Likely'
p1513
sg12
S'Many'
p1514
sg14
g66
sg16
I0
sg17
S'High'
p1515
sg19
S'Stor tilleggsbelastning'
p1516
sg21
Nsg22
S'500'
p1517
sg24
S'1600'
p1518
sg26
S'Mange bratte heng'
p1519
sg28
Nsg29
g1324
sg31
S'5 - Svaert store'
p1520
sba(irunmatrix
M3Element
p1521
(dp1522
g3
Nsg4
S'Sannsynlig, Meget sannsynlig'
p1523
sg6
S'white'
p1524
sg8
(lp1525
sg10
S'Likely'
p1526
sg12
S'Many'
p1527
sg14
g66
sg16
I0
sg17
S'Low'
p1528
sg19
S'Liten tilleggsbelastning'
p1529
sg21
Nsg22
S'500'
p1530
sg24
S'1700'
p1531
sg26
S'Mange bratte heng'
p1532
sg28
Nsg29
g1324
sg31
S'5 - Svaert store'
p1533
sba(irunmatrix
M3Element
p1534
(dp1535
g3
Nsg4
S'Sannsynlig, Meget sannsynlig'
p1536
sg6
S'white'
p1537
sg8
(lp1538
sg10
S'Likely'
p1539
sg12
S'Many'
p1540
sg14
g1227
sg16
I5
sg17
S'Nat'
p1541
sg19
S'Naturlig utloest'
p1542
sg21
Nsg22
S'500'
p1543
sg24
S'1800'
p1544
sg26
S'Mange bratte heng'
p1545
sg28
Nsg29
g1324
sg31
S'5 - Svaert store'
p1546
sba(irunmatrix
M3Element
p1547
(dp1548
g3
Nsg4
S'Lite sannsynlig, Mulig'
p1549
sg6
S'gray'
p1550
sg8
(lp1551
sg10
S'Possible'
p1552
sg12
S'Most'
p1553
sg14
g66
sg16
I0
sg17
S'High'
p1554
sg19
S'Stor tilleggsbelastning'
p1555
sg21
Nsg22
S'500'
p1556
sg24
S'1900'
p1557
sg26
S'De fleste bratte heng, Ogsaa i mindre bratt terreng'
p1558
sg28
Nsg29
g1324
sg31
S'5 - Svaert store'
p1559
sba(irunmatrix
M3Element
p1560
(dp1561
g3
Nsg4
S'Lite sannsynlig, Mulig'
p1562
sg6
S'gray'
p1563
sg8
(lp1564
sg10
S'Possible'
p1565
sg12
S'Most'
p1566
sg14
g66
sg16
I0
sg17
S'Low'
p1567
sg19
S'Liten tilleggsbelastning'
p1568
sg21
Nsg22
S'500'
p1569
sg24
S'2000'
p1570
sg26
S'De fleste bratte heng, Ogsaa i mindre bratt terreng'
p1571
sg28
Nsg29
g1324
sg31
S'5 - Svaert store'
p1572
sba(irunmatrix
M3Element
p1573
(dp1574
g3
Nsg4
S'Lite sannsynlig, Mulig'
p1575
sg6
S'gray'
p1576
sg8
(lp1577
sg10
S'Possible'
p1578
sg12
S'Most'
p1579
sg14
g66
sg16
I0
sg17
S'Nat'
p1580
sg19
S'Naturlig utloest'
p1581
sg21
Nsg22
S'500'
p1582
sg24
S'2100'
p1583
sg26
S'De fleste bratte heng, Ogsaa i mindre bratt terreng'
p1584
sg28
Nsg29
g1324
sg31
S'5 - Svaert store'
p1585
sba(irunmatrix
M3Element
p1586
(dp1587
g3
Nsg4
S'Sannsynlig, Meget sannsynlig'
p1588
sg6
S'gray'
p1589
sg8
(lp1590
sg10
S'Likely'
p1591
sg12
S'Most'
p1592
sg14
g66
sg16
I0
sg17
S'High'
p1593
sg19
S'Stor tilleggsbelastning'
p1594
sg21
Nsg22
S'500'
p1595
sg24
S'2200'
p1596
sg26
S'De fleste bratte heng, Ogsaa i mindre bratt terreng'
p1597
sg28
Nsg29
g1324
sg31
S'5 - Svaert store'
p1598
sba(irunmatrix
M3Element
p1599
(dp1600
g3
Nsg4
S'Sannsynlig, Meget sannsynlig'
p1601
sg6
S'gray'
p1602
sg8
(lp1603
sg10
S'Likely'
p1604
sg12
S'Most'
p1605
sg14
g66
sg16
I0
sg17
S'Low'
p1606
sg19
S'Liten tilleggsbelastning'
p1607
sg21
Nsg22
S'500'
p1608
sg24
S'2300'
p1609
sg26
S'De fleste bratte heng, Ogsaa i mindre bratt terreng'
p1610
sg28
Nsg29
g1324
sg31
S'5 - Svaert store'
p1611
sba(irunmatrix
M3Element
p1612
(dp1613
g3
Nsg4
S'Sannsynlig, Meget sannsynlig'
p1614
sg6
S'white'
p1615
sg8
(lp1616
sg10
S'Likely'
p1617
sg12
S'Most'
p1618
sg14
g66
sg16
I0
sg17
S'Nat'
p1619
sg19
S'Naturlig utloest'
p1620
sg21
Nsg22
S'500'
p1621
sg24
S'2400'
p1622
sg26
S'De fleste bratte heng, Ogsaa i mindre bratt terreng'
p1623
sg28
Nsg29
g1324
sg31
S'5 - Svaert store'
p1624
sba.