(dp0
S'trigger'
p1
(dp2
S'keys'
p3
(lp4
S'Stor tilleggsbelastning'
p5
aS'Liten tilleggsbelastning'
p6
aS'Naturlig utloest'
p7
asS'colors'
p8
(lp9
S'0.7'
p10
asS'values'
p11
(lp12
S'Naturlig utloest'
p13
aS'Liten tilleggsbelastning'
p14
aS'Liten tilleggsbelastning'
p15
aS'Naturlig utloest'
p16
aS'Naturlig utloest'
p17
aS'Naturlig utloest'
p18
aS'Naturlig utloest'
p19
aS'Stor tilleggsbelastning'
p20
aS'Liten tilleggsbelastning'
p21
aS'Liten tilleggsbelastning'
p22
aS'Liten tilleggsbelastning'
p23
aS'Liten tilleggsbelastning'
p24
aS'Naturlig utloest'
p25
aS'Naturlig utloest'
p26
aS'Naturlig utloest'
p27
aS'Liten tilleggsbelastning'
p28
aS'Liten tilleggsbelastning'
p29
aS'Naturlig utloest'
p30
aS'Naturlig utloest'
p31
aS'Liten tilleggsbelastning'
p32
aS'Liten tilleggsbelastning'
p33
aS'Liten tilleggsbelastning'
p34
aS'Liten tilleggsbelastning'
p35
aS'Liten tilleggsbelastning'
p36
aS'Liten tilleggsbelastning'
p37
aS'Liten tilleggsbelastning'
p38
aS'Liten tilleggsbelastning'
p39
aS'Liten tilleggsbelastning'
p40
aS'Liten tilleggsbelastning'
p41
aS'Liten tilleggsbelastning'
p42
aS'Liten tilleggsbelastning'
p43
aS'Naturlig utloest'
p44
aS'Liten tilleggsbelastning'
p45
aS'Liten tilleggsbelastning'
p46
aS'Liten tilleggsbelastning'
p47
aS'Liten tilleggsbelastning'
p48
aS'Naturlig utloest'
p49
aS'Naturlig utloest'
p50
aS'Naturlig utloest'
p51
aS'Naturlig utloest'
p52
aS'Liten tilleggsbelastning'
p53
aS'Liten tilleggsbelastning'
p54
aS'Liten tilleggsbelastning'
p55
aS'Naturlig utloest'
p56
aS'Liten tilleggsbelastning'
p57
aS'Liten tilleggsbelastning'
p58
aS'Liten tilleggsbelastning'
p59
aS'Liten tilleggsbelastning'
p60
aS'Liten tilleggsbelastning'
p61
aS'Liten tilleggsbelastning'
p62
aS'Liten tilleggsbelastning'
p63
aS'Liten tilleggsbelastning'
p64
aS'Liten tilleggsbelastning'
p65
aS'Liten tilleggsbelastning'
p66
aS'Liten tilleggsbelastning'
p67
aS'Liten tilleggsbelastning'
p68
aS'Liten tilleggsbelastning'
p69
aS'Liten tilleggsbelastning'
p70
aS'Naturlig utloest'
p71
aS'Liten tilleggsbelastning'
p72
aS'Liten tilleggsbelastning'
p73
aS'Liten tilleggsbelastning'
p74
aS'Liten tilleggsbelastning'
p75
aS'Liten tilleggsbelastning'
p76
aS'Liten tilleggsbelastning'
p77
aS'Liten tilleggsbelastning'
p78
aS'Liten tilleggsbelastning'
p79
aS'Liten tilleggsbelastning'
p80
aS'Liten tilleggsbelastning'
p81
aS'Stor tilleggsbelastning'
p82
aS'Naturlig utloest'
p83
aS'Naturlig utloest'
p84
aS'Naturlig utloest'
p85
aS'Liten tilleggsbelastning'
p86
aS'Naturlig utloest'
p87
aS'Naturlig utloest'
p88
aS'Liten tilleggsbelastning'
p89
aS'Liten tilleggsbelastning'
p90
aS'Liten tilleggsbelastning'
p91
aS'Naturlig utloest'
p92
aS'Naturlig utloest'
p93
aS'Naturlig utloest'
p94
aS'Naturlig utloest'
p95
aS'Naturlig utloest'
p96
aS'Naturlig utloest'
p97
aS'Naturlig utloest'
p98
aS'Naturlig utloest'
p99
aS'Naturlig utloest'
p100
aS'Naturlig utloest'
p101
aS'Naturlig utloest'
p102
aS'Naturlig utloest'
p103
aS'Liten tilleggsbelastning'
p104
aS'Liten tilleggsbelastning'
p105
aS'Naturlig utloest'
p106
aS'Naturlig utloest'
p107
aS'Naturlig utloest'
p108
aS'Naturlig utloest'
p109
aS'Liten tilleggsbelastning'
p110
aS'Liten tilleggsbelastning'
p111
aS'Liten tilleggsbelastning'
p112
aS'Liten tilleggsbelastning'
p113
aS'Liten tilleggsbelastning'
p114
aS'Naturlig utloest'
p115
aS'Stor tilleggsbelastning'
p116
aS'Stor tilleggsbelastning'
p117
aS'Liten tilleggsbelastning'
p118
aS'Liten tilleggsbelastning'
p119
aS'Liten tilleggsbelastning'
p120
aS'Liten tilleggsbelastning'
p121
aS'Naturlig utloest'
p122
aS'Liten tilleggsbelastning'
p123
aS'Liten tilleggsbelastning'
p124
aS'Liten tilleggsbelastning'
p125
aS'Liten tilleggsbelastning'
p126
aS'Liten tilleggsbelastning'
p127
aS'Liten tilleggsbelastning'
p128
aS'Liten tilleggsbelastning'
p129
aS'Liten tilleggsbelastning'
p130
aS'Liten tilleggsbelastning'
p131
aS'Liten tilleggsbelastning'
p132
aS'Liten tilleggsbelastning'
p133
aS'Liten tilleggsbelastning'
p134
aS'Liten tilleggsbelastning'
p135
aS'Liten tilleggsbelastning'
p136
aS'Liten tilleggsbelastning'
p137
aS'Liten tilleggsbelastning'
p138
aS'Liten tilleggsbelastning'
p139
aS'Liten tilleggsbelastning'
p140
aS'Naturlig utloest'
p141
aS'Naturlig utloest'
p142
aS'Naturlig utloest'
p143
aS'Liten tilleggsbelastning'
p144
aS'Liten tilleggsbelastning'
p145
aS'Liten tilleggsbelastning'
p146
aS'Naturlig utloest'
p147
aS'Naturlig utloest'
p148
aS'Naturlig utloest'
p149
aS'Naturlig utloest'
p150
aS'Naturlig utloest'
p151
aS'Naturlig utloest'
p152
aS'Naturlig utloest'
p153
aS'Liten tilleggsbelastning'
p154
aS'Liten tilleggsbelastning'
p155
aS'Liten tilleggsbelastning'
p156
aS'Liten tilleggsbelastning'
p157
aS'Liten tilleggsbelastning'
p158
aS'Liten tilleggsbelastning'
p159
aS'Liten tilleggsbelastning'
p160
aS'Liten tilleggsbelastning'
p161
aS'Liten tilleggsbelastning'
p162
aS'Liten tilleggsbelastning'
p163
aS'Naturlig utloest'
p164
aS'Liten tilleggsbelastning'
p165
aS'Naturlig utloest'
p166
aS'Naturlig utloest'
p167
aS'Naturlig utloest'
p168
aS'Naturlig utloest'
p169
aS'Naturlig utloest'
p170
aS'Naturlig utloest'
p171
aS'Liten tilleggsbelastning'
p172
aS'Naturlig utloest'
p173
aS'Naturlig utloest'
p174
aS'Naturlig utloest'
p175
aS'Naturlig utloest'
p176
aS'Naturlig utloest'
p177
aS'Naturlig utloest'
p178
aS'Stor tilleggsbelastning'
p179
aS'Naturlig utloest'
p180
aS'Naturlig utloest'
p181
aS'Naturlig utloest'
p182
aS'Naturlig utloest'
p183
aS'Naturlig utloest'
p184
aS'Naturlig utloest'
p185
aS'Naturlig utloest'
p186
aS'Naturlig utloest'
p187
aS'Naturlig utloest'
p188
aS'Liten tilleggsbelastning'
p189
aS'Liten tilleggsbelastning'
p190
aS'Liten tilleggsbelastning'
p191
aS'Naturlig utloest'
p192
aS'Naturlig utloest'
p193
aS'Naturlig utloest'
p194
aS'Naturlig utloest'
p195
aS'Naturlig utloest'
p196
aS'Naturlig utloest'
p197
aS'Naturlig utloest'
p198
aS'Naturlig utloest'
p199
aS'Naturlig utloest'
p200
aS'Naturlig utloest'
p201
aS'Naturlig utloest'
p202
aS'Naturlig utloest'
p203
aS'Naturlig utloest'
p204
aS'Naturlig utloest'
p205
aS'Naturlig utloest'
p206
aS'Naturlig utloest'
p207
aS'Naturlig utloest'
p208
aS'Naturlig utloest'
p209
aS'Naturlig utloest'
p210
aS'Liten tilleggsbelastning'
p211
aS'Liten tilleggsbelastning'
p212
aS'Liten tilleggsbelastning'
p213
aS'Naturlig utloest'
p214
aS'Naturlig utloest'
p215
aS'Naturlig utloest'
p216
assS'distribution'
p217
(dp218
g3
(lp219
S'Isolerte faresoner'
p220
aS'Noen bratte heng'
p221
aS'Mange bratte heng'
p222
aS'De fleste bratte heng'
p223
aS'Ogsaa i mindre bratt terreng'
p224
asg8
(lp225
g10
asg11
(lp226
S'Isolerte faresoner'
p227
aS'Noen bratte heng'
p228
aS'Noen bratte heng'
p229
aS'Noen bratte heng'
p230
aS'Noen bratte heng'
p231
aS'Noen bratte heng'
p232
aS'Noen bratte heng'
p233
aS'Isolerte faresoner'
p234
aS'Noen bratte heng'
p235
aS'Noen bratte heng'
p236
aS'Noen bratte heng'
p237
aS'Noen bratte heng'
p238
aS'Noen bratte heng'
p239
aS'Noen bratte heng'
p240
aS'Noen bratte heng'
p241
aS'Noen bratte heng'
p242
aS'Noen bratte heng'
p243
aS'Noen bratte heng'
p244
aS'Noen bratte heng'
p245
aS'Noen bratte heng'
p246
aS'Noen bratte heng'
p247
aS'Noen bratte heng'
p248
aS'Noen bratte heng'
p249
aS'Noen bratte heng'
p250
aS'Mange bratte heng'
p251
aS'Mange bratte heng'
p252
aS'Mange bratte heng'
p253
aS'Mange bratte heng'
p254
aS'Noen bratte heng'
p255
aS'Noen bratte heng'
p256
aS'Noen bratte heng'
p257
aS'Isolerte faresoner'
p258
aS'Noen bratte heng'
p259
aS'Noen bratte heng'
p260
aS'Noen bratte heng'
p261
aS'Noen bratte heng'
p262
aS'Noen bratte heng'
p263
aS'Noen bratte heng'
p264
aS'Noen bratte heng'
p265
aS'Noen bratte heng'
p266
aS'Noen bratte heng'
p267
aS'Noen bratte heng'
p268
aS'Noen bratte heng'
p269
aS'Isolerte faresoner'
p270
aS'Noen bratte heng'
p271
aS'Noen bratte heng'
p272
aS'Noen bratte heng'
p273
aS'Noen bratte heng'
p274
aS'Noen bratte heng'
p275
aS'Noen bratte heng'
p276
aS'Noen bratte heng'
p277
aS'Noen bratte heng'
p278
aS'Mange bratte heng'
p279
aS'Mange bratte heng'
p280
aS'Noen bratte heng'
p281
aS'Noen bratte heng'
p282
aS'Mange bratte heng'
p283
aS'Mange bratte heng'
p284
aS'Noen bratte heng'
p285
aS'Noen bratte heng'
p286
aS'Noen bratte heng'
p287
aS'Noen bratte heng'
p288
aS'Noen bratte heng'
p289
aS'Noen bratte heng'
p290
aS'Noen bratte heng'
p291
aS'Noen bratte heng'
p292
aS'Noen bratte heng'
p293
aS'Noen bratte heng'
p294
aS'Noen bratte heng'
p295
aS'Noen bratte heng'
p296
aS'Noen bratte heng'
p297
aS'Noen bratte heng'
p298
aS'Noen bratte heng'
p299
aS'Noen bratte heng'
p300
aS'Noen bratte heng'
p301
aS'Noen bratte heng'
p302
aS'Noen bratte heng'
p303
aS'Noen bratte heng'
p304
aS'Noen bratte heng'
p305
aS'Noen bratte heng'
p306
aS'Noen bratte heng'
p307
aS'Noen bratte heng'
p308
aS'Noen bratte heng'
p309
aS'Noen bratte heng'
p310
aS'Noen bratte heng'
p311
aS'Noen bratte heng'
p312
aS'Noen bratte heng'
p313
aS'Noen bratte heng'
p314
aS'Noen bratte heng'
p315
aS'Mange bratte heng'
p316
aS'Noen bratte heng'
p317
aS'Mange bratte heng'
p318
aS'Noen bratte heng'
p319
aS'Noen bratte heng'
p320
aS'Noen bratte heng'
p321
aS'Noen bratte heng'
p322
aS'Mange bratte heng'
p323
aS'Isolerte faresoner'
p324
aS'Isolerte faresoner'
p325
aS'Isolerte faresoner'
p326
aS'Isolerte faresoner'
p327
aS'Isolerte faresoner'
p328
aS'Noen bratte heng'
p329
aS'Noen bratte heng'
p330
aS'Noen bratte heng'
p331
aS'Noen bratte heng'
p332
aS'Noen bratte heng'
p333
aS'Noen bratte heng'
p334
aS'Noen bratte heng'
p335
aS'Noen bratte heng'
p336
aS'Noen bratte heng'
p337
aS'Noen bratte heng'
p338
aS'Noen bratte heng'
p339
aS'Noen bratte heng'
p340
aS'Noen bratte heng'
p341
aS'Noen bratte heng'
p342
aS'Noen bratte heng'
p343
aS'Noen bratte heng'
p344
aS'Noen bratte heng'
p345
aS'Noen bratte heng'
p346
aS'Noen bratte heng'
p347
aS'Noen bratte heng'
p348
aS'Noen bratte heng'
p349
aS'Noen bratte heng'
p350
aS'Noen bratte heng'
p351
aS'Noen bratte heng'
p352
aS'Noen bratte heng'
p353
aS'Noen bratte heng'
p354
aS'Noen bratte heng'
p355
aS'Noen bratte heng'
p356
aS'Noen bratte heng'
p357
aS'Noen bratte heng'
p358
aS'Noen bratte heng'
p359
aS'Noen bratte heng'
p360
aS'Noen bratte heng'
p361
aS'Noen bratte heng'
p362
aS'Noen bratte heng'
p363
aS'Mange bratte heng'
p364
aS'Mange bratte heng'
p365
aS'Mange bratte heng'
p366
aS'Mange bratte heng'
p367
aS'Isolerte faresoner'
p368
aS'Isolerte faresoner'
p369
aS'Isolerte faresoner'
p370
aS'Isolerte faresoner'
p371
aS'Noen bratte heng'
p372
aS'Isolerte faresoner'
p373
aS'Isolerte faresoner'
p374
aS'Noen bratte heng'
p375
aS'Noen bratte heng'
p376
aS'Noen bratte heng'
p377
aS'Noen bratte heng'
p378
aS'Noen bratte heng'
p379
aS'Noen bratte heng'
p380
aS'Noen bratte heng'
p381
aS'Mange bratte heng'
p382
aS'Mange bratte heng'
p383
aS'Mange bratte heng'
p384
aS'Mange bratte heng'
p385
aS'Noen bratte heng'
p386
aS'Mange bratte heng'
p387
aS'Mange bratte heng'
p388
aS'Noen bratte heng'
p389
aS'Noen bratte heng'
p390
aS'Noen bratte heng'
p391
aS'Noen bratte heng'
p392
aS'Isolerte faresoner'
p393
aS'Noen bratte heng'
p394
aS'Noen bratte heng'
p395
aS'Noen bratte heng'
p396
aS'Noen bratte heng'
p397
aS'Noen bratte heng'
p398
aS'Noen bratte heng'
p399
aS'Noen bratte heng'
p400
aS'Noen bratte heng'
p401
aS'Noen bratte heng'
p402
aS'Isolerte faresoner'
p403
aS'Isolerte faresoner'
p404
aS'Isolerte faresoner'
p405
aS'Noen bratte heng'
p406
aS'Noen bratte heng'
p407
aS'Noen bratte heng'
p408
aS'Noen bratte heng'
p409
aS'Noen bratte heng'
p410
aS'Noen bratte heng'
p411
aS'Noen bratte heng'
p412
aS'Noen bratte heng'
p413
aS'Noen bratte heng'
p414
aS'Noen bratte heng'
p415
aS'Noen bratte heng'
p416
aS'Noen bratte heng'
p417
aS'Noen bratte heng'
p418
aS'Isolerte faresoner'
p419
aS'Isolerte faresoner'
p420
aS'Isolerte faresoner'
p421
aS'Noen bratte heng'
p422
aS'Noen bratte heng'
p423
aS'Noen bratte heng'
p424
aS'Isolerte faresoner'
p425
aS'Isolerte faresoner'
p426
aS'Isolerte faresoner'
p427
aS'Noen bratte heng'
p428
aS'Noen bratte heng'
p429
aS'Isolerte faresoner'
p430
assS'size'
p431
(dp432
g3
(lp433
S'1 - Harmloest'
p434
aS'2 - Smaa'
p435
aS'3 - Middels'
p436
aS'4 - Store'
p437
aS'5 - Svaert store'
p438
aS'Ukjent'
p439
asg8
(lp440
g10
asg11
(lp441
S'2 - Smaa'
p442
aS'2 - Smaa'
p443
aS'2 - Smaa'
p444
aS'3 - Middels'
p445
aS'3 - Middels'
p446
aS'3 - Middels'
p447
aS'3 - Middels'
p448
aS'2 - Smaa'
p449
aS'3 - Middels'
p450
aS'3 - Middels'
p451
aS'3 - Middels'
p452
aS'2 - Smaa'
p453
aS'3 - Middels'
p454
aS'3 - Middels'
p455
aS'3 - Middels'
p456
aS'2 - Smaa'
p457
aS'2 - Smaa'
p458
aS'3 - Middels'
p459
aS'3 - Middels'
p460
aS'3 - Middels'
p461
aS'2 - Smaa'
p462
aS'2 - Smaa'
p463
aS'2 - Smaa'
p464
aS'2 - Smaa'
p465
aS'2 - Smaa'
p466
aS'2 - Smaa'
p467
aS'2 - Smaa'
p468
aS'2 - Smaa'
p469
aS'3 - Middels'
p470
aS'3 - Middels'
p471
aS'3 - Middels'
p472
aS'3 - Middels'
p473
aS'2 - Smaa'
p474
aS'2 - Smaa'
p475
aS'2 - Smaa'
p476
aS'2 - Smaa'
p477
aS'3 - Middels'
p478
aS'3 - Middels'
p479
aS'3 - Middels'
p480
aS'3 - Middels'
p481
aS'2 - Smaa'
p482
aS'2 - Smaa'
p483
aS'2 - Smaa'
p484
aS'3 - Middels'
p485
aS'2 - Smaa'
p486
aS'2 - Smaa'
p487
aS'2 - Smaa'
p488
aS'3 - Middels'
p489
aS'2 - Smaa'
p490
aS'2 - Smaa'
p491
aS'2 - Smaa'
p492
aS'2 - Smaa'
p493
aS'2 - Smaa'
p494
aS'2 - Smaa'
p495
aS'3 - Middels'
p496
aS'2 - Smaa'
p497
aS'2 - Smaa'
p498
aS'2 - Smaa'
p499
aS'3 - Middels'
p500
aS'3 - Middels'
p501
aS'3 - Middels'
p502
aS'3 - Middels'
p503
aS'2 - Smaa'
p504
aS'3 - Middels'
p505
aS'3 - Middels'
p506
aS'3 - Middels'
p507
aS'3 - Middels'
p508
aS'3 - Middels'
p509
aS'3 - Middels'
p510
aS'2 - Smaa'
p511
aS'3 - Middels'
p512
aS'3 - Middels'
p513
aS'3 - Middels'
p514
aS'2 - Smaa'
p515
aS'3 - Middels'
p516
aS'3 - Middels'
p517
aS'2 - Smaa'
p518
aS'2 - Smaa'
p519
aS'2 - Smaa'
p520
aS'3 - Middels'
p521
aS'3 - Middels'
p522
aS'3 - Middels'
p523
aS'3 - Middels'
p524
aS'3 - Middels'
p525
aS'3 - Middels'
p526
aS'2 - Smaa'
p527
aS'2 - Smaa'
p528
aS'2 - Smaa'
p529
aS'2 - Smaa'
p530
aS'2 - Smaa'
p531
aS'2 - Smaa'
p532
aS'2 - Smaa'
p533
aS'3 - Middels'
p534
aS'3 - Middels'
p535
aS'3 - Middels'
p536
aS'3 - Middels'
p537
aS'2 - Smaa'
p538
aS'3 - Middels'
p539
aS'3 - Middels'
p540
aS'3 - Middels'
p541
aS'3 - Middels'
p542
aS'3 - Middels'
p543
aS'2 - Smaa'
p544
aS'2 - Smaa'
p545
aS'2 - Smaa'
p546
aS'2 - Smaa'
p547
aS'2 - Smaa'
p548
aS'2 - Smaa'
p549
aS'2 - Smaa'
p550
aS'2 - Smaa'
p551
aS'2 - Smaa'
p552
aS'2 - Smaa'
p553
aS'2 - Smaa'
p554
aS'2 - Smaa'
p555
aS'2 - Smaa'
p556
aS'2 - Smaa'
p557
aS'2 - Smaa'
p558
aS'2 - Smaa'
p559
aS'2 - Smaa'
p560
aS'2 - Smaa'
p561
aS'2 - Smaa'
p562
aS'2 - Smaa'
p563
aS'2 - Smaa'
p564
aS'2 - Smaa'
p565
aS'2 - Smaa'
p566
aS'2 - Smaa'
p567
aS'2 - Smaa'
p568
aS'2 - Smaa'
p569
aS'2 - Smaa'
p570
aS'2 - Smaa'
p571
aS'2 - Smaa'
p572
aS'3 - Middels'
p573
aS'3 - Middels'
p574
aS'3 - Middels'
p575
aS'2 - Smaa'
p576
aS'2 - Smaa'
p577
aS'2 - Smaa'
p578
aS'2 - Smaa'
p579
aS'2 - Smaa'
p580
aS'2 - Smaa'
p581
aS'2 - Smaa'
p582
aS'2 - Smaa'
p583
aS'2 - Smaa'
p584
aS'2 - Smaa'
p585
aS'2 - Smaa'
p586
aS'2 - Smaa'
p587
aS'2 - Smaa'
p588
aS'2 - Smaa'
p589
aS'2 - Smaa'
p590
aS'2 - Smaa'
p591
aS'2 - Smaa'
p592
aS'2 - Smaa'
p593
aS'2 - Smaa'
p594
aS'2 - Smaa'
p595
aS'2 - Smaa'
p596
aS'1 - Harmloest'
p597
aS'1 - Harmloest'
p598
aS'1 - Harmloest'
p599
aS'1 - Harmloest'
p600
aS'2 - Smaa'
p601
aS'1 - Harmloest'
p602
aS'1 - Harmloest'
p603
aS'2 - Smaa'
p604
aS'2 - Smaa'
p605
aS'2 - Smaa'
p606
aS'2 - Smaa'
p607
aS'2 - Smaa'
p608
aS'2 - Smaa'
p609
aS'2 - Smaa'
p610
aS'2 - Smaa'
p611
aS'2 - Smaa'
p612
aS'2 - Smaa'
p613
aS'2 - Smaa'
p614
aS'2 - Smaa'
p615
aS'2 - Smaa'
p616
aS'2 - Smaa'
p617
aS'2 - Smaa'
p618
aS'2 - Smaa'
p619
aS'2 - Smaa'
p620
aS'2 - Smaa'
p621
aS'2 - Smaa'
p622
aS'2 - Smaa'
p623
aS'2 - Smaa'
p624
aS'2 - Smaa'
p625
aS'2 - Smaa'
p626
aS'2 - Smaa'
p627
aS'2 - Smaa'
p628
aS'2 - Smaa'
p629
aS'2 - Smaa'
p630
aS'2 - Smaa'
p631
aS'2 - Smaa'
p632
aS'2 - Smaa'
p633
aS'2 - Smaa'
p634
aS'2 - Smaa'
p635
aS'2 - Smaa'
p636
aS'2 - Smaa'
p637
aS'2 - Smaa'
p638
aS'2 - Smaa'
p639
aS'2 - Smaa'
p640
aS'2 - Smaa'
p641
aS'2 - Smaa'
p642
aS'2 - Smaa'
p643
aS'2 - Smaa'
p644
aS'2 - Smaa'
p645
assS'probability'
p646
(dp647
g3
(lp648
S'Lite sannsynlig'
p649
aS'Mulig'
p650
aS'Sannsynlig'
p651
aS'Meget sannsynlig'
p652
asg8
(lp653
g10
asg11
(lp654
S'Mulig'
p655
aS'Mulig'
p656
aS'Mulig'
p657
aS'Mulig'
p658
aS'Mulig'
p659
aS'Mulig'
p660
aS'Mulig'
p661
aS'Mulig'
p662
aS'Mulig'
p663
aS'Mulig'
p664
aS'Mulig'
p665
aS'Mulig'
p666
aS'Mulig'
p667
aS'Mulig'
p668
aS'Mulig'
p669
aS'Mulig'
p670
aS'Mulig'
p671
aS'Mulig'
p672
aS'Mulig'
p673
aS'Mulig'
p674
aS'Mulig'
p675
aS'Mulig'
p676
aS'Mulig'
p677
aS'Mulig'
p678
aS'Mulig'
p679
aS'Mulig'
p680
aS'Mulig'
p681
aS'Mulig'
p682
aS'Mulig'
p683
aS'Mulig'
p684
aS'Mulig'
p685
aS'Mulig'
p686
aS'Mulig'
p687
aS'Mulig'
p688
aS'Mulig'
p689
aS'Mulig'
p690
aS'Lite sannsynlig'
p691
aS'Lite sannsynlig'
p692
aS'Lite sannsynlig'
p693
aS'Mulig'
p694
aS'Mulig'
p695
aS'Mulig'
p696
aS'Mulig'
p697
aS'Lite sannsynlig'
p698
aS'Mulig'
p699
aS'Mulig'
p700
aS'Mulig'
p701
aS'Mulig'
p702
aS'Mulig'
p703
aS'Mulig'
p704
aS'Mulig'
p705
aS'Mulig'
p706
aS'Mulig'
p707
aS'Mulig'
p708
aS'Mulig'
p709
aS'Mulig'
p710
aS'Sannsynlig'
p711
aS'Sannsynlig'
p712
aS'Mulig'
p713
aS'Mulig'
p714
aS'Mulig'
p715
aS'Mulig'
p716
aS'Mulig'
p717
aS'Mulig'
p718
aS'Mulig'
p719
aS'Mulig'
p720
aS'Mulig'
p721
aS'Mulig'
p722
aS'Mulig'
p723
aS'Mulig'
p724
aS'Mulig'
p725
aS'Mulig'
p726
aS'Mulig'
p727
aS'Mulig'
p728
aS'Mulig'
p729
aS'Mulig'
p730
aS'Mulig'
p731
aS'Mulig'
p732
aS'Mulig'
p733
aS'Mulig'
p734
aS'Mulig'
p735
aS'Mulig'
p736
aS'Mulig'
p737
aS'Mulig'
p738
aS'Mulig'
p739
aS'Sannsynlig'
p740
aS'Sannsynlig'
p741
aS'Sannsynlig'
p742
aS'Sannsynlig'
p743
aS'Mulig'
p744
aS'Sannsynlig'
p745
aS'Mulig'
p746
aS'Mulig'
p747
aS'Mulig'
p748
aS'Mulig'
p749
aS'Mulig'
p750
aS'Mulig'
p751
aS'Mulig'
p752
aS'Mulig'
p753
aS'Mulig'
p754
aS'Mulig'
p755
aS'Mulig'
p756
aS'Mulig'
p757
aS'Mulig'
p758
aS'Mulig'
p759
aS'Mulig'
p760
aS'Mulig'
p761
aS'Mulig'
p762
aS'Mulig'
p763
aS'Sannsynlig'
p764
aS'Mulig'
p765
aS'Mulig'
p766
aS'Mulig'
p767
aS'Mulig'
p768
aS'Mulig'
p769
aS'Mulig'
p770
aS'Mulig'
p771
aS'Mulig'
p772
aS'Mulig'
p773
aS'Mulig'
p774
aS'Mulig'
p775
aS'Mulig'
p776
aS'Mulig'
p777
aS'Mulig'
p778
aS'Mulig'
p779
aS'Mulig'
p780
aS'Mulig'
p781
aS'Mulig'
p782
aS'Mulig'
p783
aS'Mulig'
p784
aS'Mulig'
p785
aS'Mulig'
p786
aS'Mulig'
p787
aS'Mulig'
p788
aS'Mulig'
p789
aS'Mulig'
p790
aS'Mulig'
p791
aS'Mulig'
p792
aS'Mulig'
p793
aS'Mulig'
p794
aS'Mulig'
p795
aS'Mulig'
p796
aS'Mulig'
p797
aS'Mulig'
p798
aS'Mulig'
p799
aS'Mulig'
p800
aS'Mulig'
p801
aS'Mulig'
p802
aS'Mulig'
p803
aS'Mulig'
p804
aS'Mulig'
p805
aS'Mulig'
p806
aS'Mulig'
p807
aS'Mulig'
p808
aS'Mulig'
p809
aS'Sannsynlig'
p810
aS'Sannsynlig'
p811
aS'Sannsynlig'
p812
aS'Sannsynlig'
p813
aS'Mulig'
p814
aS'Sannsynlig'
p815
aS'Sannsynlig'
p816
aS'Mulig'
p817
aS'Mulig'
p818
aS'Mulig'
p819
aS'Mulig'
p820
aS'Mulig'
p821
aS'Mulig'
p822
aS'Mulig'
p823
aS'Mulig'
p824
aS'Mulig'
p825
aS'Mulig'
p826
aS'Mulig'
p827
aS'Mulig'
p828
aS'Mulig'
p829
aS'Mulig'
p830
aS'Mulig'
p831
aS'Mulig'
p832
aS'Mulig'
p833
aS'Mulig'
p834
aS'Mulig'
p835
aS'Mulig'
p836
aS'Mulig'
p837
aS'Mulig'
p838
aS'Mulig'
p839
aS'Mulig'
p840
aS'Mulig'
p841
aS'Mulig'
p842
aS'Mulig'
p843
aS'Mulig'
p844
aS'Mulig'
p845
aS'Mulig'
p846
aS'Mulig'
p847
aS'Mulig'
p848
aS'Mulig'
p849
aS'Mulig'
p850
aS'Mulig'
p851
aS'Mulig'
p852
aS'Mulig'
p853
aS'Mulig'
p854
aS'Mulig'
p855
aS'Mulig'
p856
aS'Mulig'
p857
aS'Mulig'
p858
assS'level'
p859
(dp860
g3
(lp861
I1
aI2
aI3
aI4
aI5
asg8
(lp862
S'#ccff66'
p863
aS'#ffff00'
p864
aS'#ff9900'
p865
aS'#ff0000'
p866
aS'k'
p867
asg11
(lp868
I2
aI2
aI2
aI3
aI3
aI3
aI3
aI1
aI3
aI3
aI3
aI2
aI3
aI3
aI3
aI2
aI2
aI3
aI3
aI3
aI2
aI2
aI2
aI2
aI3
aI3
aI3
aI3
aI3
aI3
aI3
aI3
aI2
aI2
aI2
aI3
aI2
aI2
aI2
aI3
aI2
aI2
aI2
aI3
aI2
aI2
aI2
aI3
aI2
aI2
aI2
aI2
aI3
aI3
aI3
aI2
aI3
aI3
aI3
aI3
aI3
aI3
aI3
aI3
aI3
aI3
aI3
aI3
aI3
aI3
aI3
aI3
aI3
aI3
aI3
aI3
aI2
aI3
aI3
aI3
aI3
aI3
aI3
aI3
aI3
aI3
aI3
aI3
aI3
aI3
aI3
aI3
aI3
aI3
aI3
aI3
aI3
aI2
aI2
aI3
aI3
aI3
aI3
aI2
aI2
aI2
aI3
aI3
aI3
aI2
aI2
aI2
aI2
aI2
aI2
aI2
aI2
aI2
aI2
aI2
aI2
aI2
aI2
aI2
aI2
aI2
aI2
aI2
aI2
aI2
aI2
aI3
aI3
aI3
aI2
aI2
aI2
aI2
aI2
aI2
aI2
aI2
aI2
aI2
aI1
aI2
aI1
aI1
aI2
aI2
aI2
aI2
aI2
aI2
aI2
aI2
aI2
aI2
aI2
aI2
aI2
aI2
aI2
aI2
aI2
aI2
aI2
aI2
aI2
aI2
aI2
aI2
aI2
aI2
aI2
aI2
aI1
aI1
aI1
aI2
aI2
aI2
aI2
aI2
aI2
aI2
aI2
aI2
aI2
aI2
aI2
aI2
aI2
aI2
aI2
aI2
aI2
aI2
aI1
aI1
aI1
aI2
aI2
aI1
ass.