(lp0
(irunmatrix
M3Element
p1
(dp2
S'danger_level_average'
p3
NsS'probability'
p4
S'Lite sannsynlig, Mulig'
p5
sS'colour'
p6
S'white'
p7
sS'danger_level_list'
p8
(lp9
sS'label_probalility'
p10
S'Possible'
p11
sS'label_distribution'
p12
S'Isolated'
p13
sS'recomended_colour'
p14
S'#ccff66'
p15
sS'recomended_danger_level'
p16
I1
sS'label_trigger'
p17
S'High'
p18
sS'trigger'
p19
S'Stor tilleggsbelastning'
p20
sS'occurrences'
p21
NsS'y'
p22
S'100'
p23
sS'x'
p24
S'100'
p25
sS'distribution'
p26
S'Isolerte faresoner'
p27
sS'danger_level_standard_dev'
p28
NsS'label_size'
p29
S'1'
p30
sS'avalanche_size'
p31
S'1 - Harmloest'
p32
sba(irunmatrix
M3Element
p33
(dp34
g3
Nsg4
S'Lite sannsynlig, Mulig'
p35
sg6
S'white'
p36
sg8
(lp37
sg10
S'Possible'
p38
sg12
S'Isolated'
p39
sg14
g15
sg16
I1
sg17
S'Low'
p40
sg19
S'Liten tilleggsbelastning'
p41
sg21
Nsg22
S'100'
p42
sg24
S'200'
p43
sg26
S'Isolerte faresoner'
p44
sg28
Nsg29
g30
sg31
S'1 - Harmloest'
p45
sba(irunmatrix
M3Element
p46
(dp47
g3
Nsg4
S'Lite sannsynlig, Mulig'
p48
sg6
S'white'
p49
sg8
(lp50
sg10
S'Possible'
p51
sg12
S'Isolated'
p52
sg14
g15
sg16
I1
sg17
S'Nat'
p53
sg19
S'Naturlig utloest'
p54
sg21
Nsg22
S'100'
p55
sg24
S'300'
p56
sg26
S'Isolerte faresoner'
p57
sg28
Nsg29
g30
sg31
S'1 - Harmloest'
p58
sba(irunmatrix
M3Element
p59
(dp60
g3
Nsg4
S'Sannsynlig, Meget sannsynlig'
p61
sg6
S'gray'
p62
sg8
(lp63
sg10
S'Likely'
p64
sg12
S'Isolated'
p65
sg14
S'gray'
p66
sg16
I0
sg17
S'High'
p67
sg19
S'Stor tilleggsbelastning'
p68
sg21
Nsg22
S'100'
p69
sg24
S'400'
p70
sg26
S'Isolerte faresoner'
p71
sg28
Nsg29
g30
sg31
S'1 - Harmloest'
p72
sba(irunmatrix
M3Element
p73
(dp74
g3
Nsg4
S'Sannsynlig, Meget sannsynlig'
p75
sg6
S'gray'
p76
sg8
(lp77
sg10
S'Likely'
p78
sg12
S'Isolated'
p79
sg14
g66
sg16
I0
sg17
S'Low'
p80
sg19
S'Liten tilleggsbelastning'
p81
sg21
Nsg22
S'100'
p82
sg24
S'500'
p83
sg26
S'Isolerte faresoner'
p84
sg28
Nsg29
g30
sg31
S'1 - Harmloest'
p85
sba(irunmatrix
M3Element
p86
(dp87
g3
Nsg4
S'Sannsynlig, Meget sannsynlig'
p88
sg6
S'gray'
p89
sg8
(lp90
sg10
S'Likely'
p91
sg12
S'Isolated'
p92
sg14
g66
sg16
I0
sg17
S'Nat'
p93
sg19
S'Naturlig utloest'
p94
sg21
Nsg22
S'100'
p95
sg24
S'600'
p96
sg26
S'Isolerte faresoner'
p97
sg28
Nsg29
g30
sg31
S'1 - Harmloest'
p98
sba(irunmatrix
M3Element
p99
(dp100
g3
Nsg4
S'Lite sannsynlig, Mulig'
p101
sg6
S'white'
p102
sg8
(lp103
sg10
S'Possible'
p104
sg12
S'Some'
p105
sg14
g15
sg16
I1
sg17
S'High'
p106
sg19
S'Stor tilleggsbelastning'
p107
sg21
Nsg22
S'100'
p108
sg24
S'700'
p109
sg26
S'Noen bratte heng'
p110
sg28
Nsg29
g30
sg31
S'1 - Harmloest'
p111
sba(irunmatrix
M3Element
p112
(dp113
g3
Nsg4
S'Lite sannsynlig, Mulig'
p114
sg6
S'white'
p115
sg8
(lp116
sg10
S'Possible'
p117
sg12
S'Some'
p118
sg14
g15
sg16
I1
sg17
S'Low'
p119
sg19
S'Liten tilleggsbelastning'
p120
sg21
Nsg22
S'100'
p121
sg24
S'800'
p122
sg26
S'Noen bratte heng'
p123
sg28
Nsg29
g30
sg31
S'1 - Harmloest'
p124
sba(irunmatrix
M3Element
p125
(dp126
g3
F1.0
sg4
S'Lite sannsynlig, Mulig'
p127
sg6
S'#ccff66'
p128
sg8
(lp129
I1
aI1
aI1
aI1
asg10
S'Possible'
p130
sg12
S'Some'
p131
sg14
g15
sg16
I1
sg17
S'Nat'
p132
sg19
S'Naturlig utloest'
p133
sg21
I4
sg22
S'100'
p134
sg24
S'900'
p135
sg26
S'Noen bratte heng'
p136
sg28
cnumpy.core.multiarray
scalar
p137
(cnumpy
dtype
p138
(S'f8'
p139
I0
I1
tp140
Rp141
(I3
S'<'
p142
NNNI-1
I-1
I0
tp143
bS'\x00\x00\x00\x00\x00\x00\x00\x00'
p144
tp145
Rp146
sg29
g30
sg31
S'1 - Harmloest'
p147
sba(irunmatrix
M3Element
p148
(dp149
g3
Nsg4
S'Sannsynlig, Meget sannsynlig'
p150
sg6
S'gray'
p151
sg8
(lp152
sg10
S'Likely'
p153
sg12
S'Some'
p154
sg14
g66
sg16
I0
sg17
S'High'
p155
sg19
S'Stor tilleggsbelastning'
p156
sg21
Nsg22
S'100'
p157
sg24
S'1000'
p158
sg26
S'Noen bratte heng'
p159
sg28
Nsg29
g30
sg31
S'1 - Harmloest'
p160
sba(irunmatrix
M3Element
p161
(dp162
g3
Nsg4
S'Sannsynlig, Meget sannsynlig'
p163
sg6
S'gray'
p164
sg8
(lp165
sg10
S'Likely'
p166
sg12
S'Some'
p167
sg14
g66
sg16
I0
sg17
S'Low'
p168
sg19
S'Liten tilleggsbelastning'
p169
sg21
Nsg22
S'100'
p170
sg24
S'1100'
p171
sg26
S'Noen bratte heng'
p172
sg28
Nsg29
g30
sg31
S'1 - Harmloest'
p173
sba(irunmatrix
M3Element
p174
(dp175
g3
Nsg4
S'Sannsynlig, Meget sannsynlig'
p176
sg6
S'white'
p177
sg8
(lp178
sg10
S'Likely'
p179
sg12
S'Some'
p180
sg14
g15
sg16
I1
sg17
S'Nat'
p181
sg19
S'Naturlig utloest'
p182
sg21
Nsg22
S'100'
p183
sg24
S'1200'
p184
sg26
S'Noen bratte heng'
p185
sg28
Nsg29
g30
sg31
S'1 - Harmloest'
p186
sba(irunmatrix
M3Element
p187
(dp188
g3
Nsg4
S'Lite sannsynlig, Mulig'
p189
sg6
S'gray'
p190
sg8
(lp191
sg10
S'Possible'
p192
sg12
S'Many'
p193
sg14
g66
sg16
I0
sg17
S'High'
p194
sg19
S'Stor tilleggsbelastning'
p195
sg21
Nsg22
S'100'
p196
sg24
S'1300'
p197
sg26
S'Mange bratte heng'
p198
sg28
Nsg29
g30
sg31
S'1 - Harmloest'
p199
sba(irunmatrix
M3Element
p200
(dp201
g3
Nsg4
S'Lite sannsynlig, Mulig'
p202
sg6
S'white'
p203
sg8
(lp204
sg10
S'Possible'
p205
sg12
S'Many'
p206
sg14
g15
sg16
I1
sg17
S'Low'
p207
sg19
S'Liten tilleggsbelastning'
p208
sg21
Nsg22
S'100'
p209
sg24
S'1400'
p210
sg26
S'Mange bratte heng'
p211
sg28
Nsg29
g30
sg31
S'1 - Harmloest'
p212
sba(irunmatrix
M3Element
p213
(dp214
g3
Nsg4
S'Lite sannsynlig, Mulig'
p215
sg6
S'gray'
p216
sg8
(lp217
sg10
S'Possible'
p218
sg12
S'Many'
p219
sg14
g66
sg16
I0
sg17
S'Nat'
p220
sg19
S'Naturlig utloest'
p221
sg21
Nsg22
S'100'
p222
sg24
S'1500'
p223
sg26
S'Mange bratte heng'
p224
sg28
Nsg29
g30
sg31
S'1 - Harmloest'
p225
sba(irunmatrix
M3Element
p226
(dp227
g3
Nsg4
S'Sannsynlig, Meget sannsynlig'
p228
sg6
S'gray'
p229
sg8
(lp230
sg10
S'Likely'
p231
sg12
S'Many'
p232
sg14
g66
sg16
I0
sg17
S'High'
p233
sg19
S'Stor tilleggsbelastning'
p234
sg21
Nsg22
S'100'
p235
sg24
S'1600'
p236
sg26
S'Mange bratte heng'
p237
sg28
Nsg29
g30
sg31
S'1 - Harmloest'
p238
sba(irunmatrix
M3Element
p239
(dp240
g3
Nsg4
S'Sannsynlig, Meget sannsynlig'
p241
sg6
S'white'
p242
sg8
(lp243
sg10
S'Likely'
p244
sg12
S'Many'
p245
sg14
S'#ffff00'
p246
sg16
I2
sg17
S'Low'
p247
sg19
S'Liten tilleggsbelastning'
p248
sg21
Nsg22
S'100'
p249
sg24
S'1700'
p250
sg26
S'Mange bratte heng'
p251
sg28
Nsg29
g30
sg31
S'1 - Harmloest'
p252
sba(irunmatrix
M3Element
p253
(dp254
g3
Nsg4
S'Sannsynlig, Meget sannsynlig'
p255
sg6
S'white'
p256
sg8
(lp257
sg10
S'Likely'
p258
sg12
S'Many'
p259
sg14
g246
sg16
I2
sg17
S'Nat'
p260
sg19
S'Naturlig utloest'
p261
sg21
Nsg22
S'100'
p262
sg24
S'1800'
p263
sg26
S'Mange bratte heng'
p264
sg28
Nsg29
g30
sg31
S'1 - Harmloest'
p265
sba(irunmatrix
M3Element
p266
(dp267
g3
Nsg4
S'Lite sannsynlig, Mulig'
p268
sg6
S'gray'
p269
sg8
(lp270
sg10
S'Possible'
p271
sg12
S'Most'
p272
sg14
g66
sg16
I0
sg17
S'High'
p273
sg19
S'Stor tilleggsbelastning'
p274
sg21
Nsg22
S'100'
p275
sg24
S'1900'
p276
sg26
S'De fleste bratte heng, Ogsaa i mindre bratt terreng'
p277
sg28
Nsg29
g30
sg31
S'1 - Harmloest'
p278
sba(irunmatrix
M3Element
p279
(dp280
g3
Nsg4
S'Lite sannsynlig, Mulig'
p281
sg6
S'gray'
p282
sg8
(lp283
sg10
S'Possible'
p284
sg12
S'Most'
p285
sg14
g66
sg16
I0
sg17
S'Low'
p286
sg19
S'Liten tilleggsbelastning'
p287
sg21
Nsg22
S'100'
p288
sg24
S'2000'
p289
sg26
S'De fleste bratte heng, Ogsaa i mindre bratt terreng'
p290
sg28
Nsg29
g30
sg31
S'1 - Harmloest'
p291
sba(irunmatrix
M3Element
p292
(dp293
g3
Nsg4
S'Lite sannsynlig, Mulig'
p294
sg6
S'gray'
p295
sg8
(lp296
sg10
S'Possible'
p297
sg12
S'Most'
p298
sg14
g66
sg16
I0
sg17
S'Nat'
p299
sg19
S'Naturlig utloest'
p300
sg21
Nsg22
S'100'
p301
sg24
S'2100'
p302
sg26
S'De fleste bratte heng, Ogsaa i mindre bratt terreng'
p303
sg28
Nsg29
g30
sg31
S'1 - Harmloest'
p304
sba(irunmatrix
M3Element
p305
(dp306
g3
Nsg4
S'Sannsynlig, Meget sannsynlig'
p307
sg6
S'gray'
p308
sg8
(lp309
sg10
S'Likely'
p310
sg12
S'Most'
p311
sg14
g66
sg16
I0
sg17
S'High'
p312
sg19
S'Stor tilleggsbelastning'
p313
sg21
Nsg22
S'100'
p314
sg24
S'2200'
p315
sg26
S'De fleste bratte heng, Ogsaa i mindre bratt terreng'
p316
sg28
Nsg29
g30
sg31
S'1 - Harmloest'
p317
sba(irunmatrix
M3Element
p318
(dp319
g3
Nsg4
S'Sannsynlig, Meget sannsynlig'
p320
sg6
S'gray'
p321
sg8
(lp322
sg10
S'Likely'
p323
sg12
S'Most'
p324
sg14
g66
sg16
I0
sg17
S'Low'
p325
sg19
S'Liten tilleggsbelastning'
p326
sg21
Nsg22
S'100'
p327
sg24
S'2300'
p328
sg26
S'De fleste bratte heng, Ogsaa i mindre bratt terreng'
p329
sg28
Nsg29
g30
sg31
S'1 - Harmloest'
p330
sba(irunmatrix
M3Element
p331
(dp332
g3
Nsg4
S'Sannsynlig, Meget sannsynlig'
p333
sg6
S'white'
p334
sg8
(lp335
sg10
S'Likely'
p336
sg12
S'Most'
p337
sg14
g66
sg16
I0
sg17
S'Nat'
p338
sg19
S'Naturlig utloest'
p339
sg21
Nsg22
S'100'
p340
sg24
S'2400'
p341
sg26
S'De fleste bratte heng, Ogsaa i mindre bratt terreng'
p342
sg28
Nsg29
S'2'
p343
sg31
S'1 - Harmloest'
p344
sba(irunmatrix
M3Element
p345
(dp346
g3
F1.5
sg4
S'Lite sannsynlig, Mulig'
p347
sg6
S'#ffff00'
p348
sg8
(lp349
I2
aI2
aI2
aI1
aI2
aI1
aI1
aI1
asg10
S'Possible'
p350
sg12
S'Isolated'
p351
sg14
g15
sg16
I1
sg17
S'High'
p352
sg19
S'Stor tilleggsbelastning'
p353
sg21
I8
sg22
S'200'
p354
sg24
S'100'
p355
sg26
S'Isolerte faresoner'
p356
sg28
g137
(g141
S'\x00\x00\x00\x00\x00\x00\xe0?'
p357
tp358
Rp359
sg29
g343
sg31
S'2 - Smaa'
p360
sba(irunmatrix
M3Element
p361
(dp362
g3
F1.375
sg4
S'Lite sannsynlig, Mulig'
p363
sg6
g128
sg8
(lp364
I2
aI2
aI1
aI1
aI1
aI1
aI1
aI2
asg10
S'Possible'
p365
sg12
S'Isolated'
p366
sg14
g15
sg16
I1
sg17
S'Low'
p367
sg19
S'Liten tilleggsbelastning'
p368
sg21
I8
sg22
S'200'
p369
sg24
S'200'
p370
sg26
S'Isolerte faresoner'
p371
sg28
g137
(g141
S'\xdaNO\xb1\xde\xfb\xde?'
p372
tp373
Rp374
sg29
g343
sg31
S'2 - Smaa'
p375
sba(irunmatrix
M3Element
p376
(dp377
g3
Nsg4
S'Lite sannsynlig, Mulig'
p378
sg6
S'white'
p379
sg8
(lp380
sg10
S'Possible'
p381
sg12
S'Isolated'
p382
sg14
g15
sg16
I1
sg17
S'Nat'
p383
sg19
S'Naturlig utloest'
p384
sg21
Nsg22
S'200'
p385
sg24
S'300'
p386
sg26
S'Isolerte faresoner'
p387
sg28
Nsg29
g343
sg31
S'2 - Smaa'
p388
sba(irunmatrix
M3Element
p389
(dp390
g3
Nsg4
S'Sannsynlig, Meget sannsynlig'
p391
sg6
S'gray'
p392
sg8
(lp393
sg10
S'Likely'
p394
sg12
S'Isolated'
p395
sg14
g66
sg16
I0
sg17
S'High'
p396
sg19
S'Stor tilleggsbelastning'
p397
sg21
Nsg22
S'200'
p398
sg24
S'400'
p399
sg26
S'Isolerte faresoner'
p400
sg28
Nsg29
g343
sg31
S'2 - Smaa'
p401
sba(irunmatrix
M3Element
p402
(dp403
g3
Nsg4
S'Sannsynlig, Meget sannsynlig'
p404
sg6
S'gray'
p405
sg8
(lp406
sg10
S'Likely'
p407
sg12
S'Isolated'
p408
sg14
g66
sg16
I0
sg17
S'Low'
p409
sg19
S'Liten tilleggsbelastning'
p410
sg21
Nsg22
S'200'
p411
sg24
S'500'
p412
sg26
S'Isolerte faresoner'
p413
sg28
Nsg29
g343
sg31
S'2 - Smaa'
p414
sba(irunmatrix
M3Element
p415
(dp416
g3
Nsg4
S'Sannsynlig, Meget sannsynlig'
p417
sg6
S'gray'
p418
sg8
(lp419
sg10
S'Likely'
p420
sg12
S'Isolated'
p421
sg14
g66
sg16
I0
sg17
S'Nat'
p422
sg19
S'Naturlig utloest'
p423
sg21
Nsg22
S'200'
p424
sg24
S'600'
p425
sg26
S'Isolerte faresoner'
p426
sg28
Nsg29
g343
sg31
S'2 - Smaa'
p427
sba(irunmatrix
M3Element
p428
(dp429
g3
F1.5
sg4
S'Lite sannsynlig, Mulig'
p430
sg6
g348
sg8
(lp431
I2
aI1
asg10
S'Possible'
p432
sg12
S'Some'
p433
sg14
g246
sg16
I2
sg17
S'High'
p434
sg19
S'Stor tilleggsbelastning'
p435
sg21
I2
sg22
S'200'
p436
sg24
S'700'
p437
sg26
S'Noen bratte heng'
p438
sg28
g137
(g141
S'\x00\x00\x00\x00\x00\x00\xe0?'
p439
tp440
Rp441
sg29
g343
sg31
S'2 - Smaa'
p442
sba(irunmatrix
M3Element
p443
(dp444
g3
F2.0
sg4
S'Lite sannsynlig, Mulig'
p445
sg6
g348
sg8
(lp446
I2
aI2
aI2
aI2
aI2
aI2
aI2
aI2
aI2
aI2
aI2
aI2
aI2
aI2
aI2
aI2
aI2
aI2
aI2
aI2
aI2
aI2
aI2
aI2
aI2
aI2
aI2
aI2
asg10
S'Possible'
p447
sg12
S'Some'
p448
sg14
g246
sg16
I2
sg17
S'Low'
p449
sg19
S'Liten tilleggsbelastning'
p450
sg21
I28
sg22
S'200'
p451
sg24
S'800'
p452
sg26
S'Noen bratte heng'
p453
sg28
g137
(g141
S'\x00\x00\x00\x00\x00\x00\x00\x00'
p454
tp455
Rp456
sg29
g343
sg31
S'2 - Smaa'
p457
sba(irunmatrix
M3Element
p458
(dp459
g3
F2.0
sg4
S'Lite sannsynlig, Mulig'
p460
sg6
g348
sg8
(lp461
I2
aI2
aI2
aI2
aI2
asg10
S'Possible'
p462
sg12
S'Some'
p463
sg14
g246
sg16
I2
sg17
S'Nat'
p464
sg19
S'Naturlig utloest'
p465
sg21
I5
sg22
S'200'
p466
sg24
S'900'
p467
sg26
S'Noen bratte heng'
p468
sg28
g137
(g141
S'\x00\x00\x00\x00\x00\x00\x00\x00'
p469
tp470
Rp471
sg29
g343
sg31
S'2 - Smaa'
p472
sba(irunmatrix
M3Element
p473
(dp474
g3
Nsg4
S'Sannsynlig, Meget sannsynlig'
p475
sg6
S'gray'
p476
sg8
(lp477
sg10
S'Likely'
p478
sg12
S'Some'
p479
sg14
g66
sg16
I0
sg17
S'High'
p480
sg19
S'Stor tilleggsbelastning'
p481
sg21
Nsg22
S'200'
p482
sg24
S'1000'
p483
sg26
S'Noen bratte heng'
p484
sg28
Nsg29
g343
sg31
S'2 - Smaa'
p485
sba(irunmatrix
M3Element
p486
(dp487
g3
Nsg4
S'Sannsynlig, Meget sannsynlig'
p488
sg6
S'gray'
p489
sg8
(lp490
sg10
S'Likely'
p491
sg12
S'Some'
p492
sg14
g66
sg16
I0
sg17
S'Low'
p493
sg19
S'Liten tilleggsbelastning'
p494
sg21
Nsg22
S'200'
p495
sg24
S'1100'
p496
sg26
S'Noen bratte heng'
p497
sg28
Nsg29
g343
sg31
S'2 - Smaa'
p498
sba(irunmatrix
M3Element
p499
(dp500
g3
F2.0
sg4
S'Sannsynlig, Meget sannsynlig'
p501
sg6
g348
sg8
(lp502
I2
aI2
asg10
S'Likely'
p503
sg12
S'Some'
p504
sg14
S'#ff9900'
p505
sg16
I3
sg17
S'Nat'
p506
sg19
S'Naturlig utloest'
p507
sg21
I2
sg22
S'200'
p508
sg24
S'1200'
p509
sg26
S'Noen bratte heng'
p510
sg28
g137
(g141
S'\x00\x00\x00\x00\x00\x00\x00\x00'
p511
tp512
Rp513
sg29
g343
sg31
S'2 - Smaa'
p514
sba(irunmatrix
M3Element
p515
(dp516
g3
Nsg4
S'Lite sannsynlig, Mulig'
p517
sg6
S'gray'
p518
sg8
(lp519
sg10
S'Possible'
p520
sg12
S'Many'
p521
sg14
g66
sg16
I0
sg17
S'High'
p522
sg19
S'Stor tilleggsbelastning'
p523
sg21
Nsg22
S'200'
p524
sg24
S'1300'
p525
sg26
S'Mange bratte heng'
p526
sg28
Nsg29
g343
sg31
S'2 - Smaa'
p527
sba(irunmatrix
M3Element
p528
(dp529
g3
Nsg4
S'Lite sannsynlig, Mulig'
p530
sg6
S'white'
p531
sg8
(lp532
sg10
S'Possible'
p533
sg12
S'Many'
p534
sg14
g505
sg16
I3
sg17
S'Low'
p535
sg19
S'Liten tilleggsbelastning'
p536
sg21
Nsg22
S'200'
p537
sg24
S'1400'
p538
sg26
S'Mange bratte heng'
p539
sg28
Nsg29
g343
sg31
S'2 - Smaa'
p540
sba(irunmatrix
M3Element
p541
(dp542
g3
Nsg4
S'Lite sannsynlig, Mulig'
p543
sg6
S'gray'
p544
sg8
(lp545
sg10
S'Possible'
p546
sg12
S'Many'
p547
sg14
g66
sg16
I0
sg17
S'Nat'
p548
sg19
S'Naturlig utloest'
p549
sg21
Nsg22
S'200'
p550
sg24
S'1500'
p551
sg26
S'Mange bratte heng'
p552
sg28
Nsg29
g343
sg31
S'2 - Smaa'
p553
sba(irunmatrix
M3Element
p554
(dp555
g3
Nsg4
S'Sannsynlig, Meget sannsynlig'
p556
sg6
S'gray'
p557
sg8
(lp558
sg10
S'Likely'
p559
sg12
S'Many'
p560
sg14
g66
sg16
I0
sg17
S'High'
p561
sg19
S'Stor tilleggsbelastning'
p562
sg21
Nsg22
S'200'
p563
sg24
S'1600'
p564
sg26
S'Mange bratte heng'
p565
sg28
Nsg29
g343
sg31
S'2 - Smaa'
p566
sba(irunmatrix
M3Element
p567
(dp568
g3
Nsg4
S'Sannsynlig, Meget sannsynlig'
p569
sg6
S'white'
p570
sg8
(lp571
sg10
S'Likely'
p572
sg12
S'Many'
p573
sg14
S'#ff0000'
p574
sg16
I4
sg17
S'Low'
p575
sg19
S'Liten tilleggsbelastning'
p576
sg21
Nsg22
S'200'
p577
sg24
S'1700'
p578
sg26
S'Mange bratte heng'
p579
sg28
Nsg29
g343
sg31
S'2 - Smaa'
p580
sba(irunmatrix
M3Element
p581
(dp582
g3
F3.0
sg4
S'Sannsynlig, Meget sannsynlig'
p583
sg6
S'#ff9900'
p584
sg8
(lp585
I3
aI3
aI3
aI3
asg10
S'Likely'
p586
sg12
S'Many'
p587
sg14
g574
sg16
I4
sg17
S'Nat'
p588
sg19
S'Naturlig utloest'
p589
sg21
I4
sg22
S'200'
p590
sg24
S'1800'
p591
sg26
S'Mange bratte heng'
p592
sg28
g137
(g141
S'\x00\x00\x00\x00\x00\x00\x00\x00'
p593
tp594
Rp595
sg29
g343
sg31
S'2 - Smaa'
p596
sba(irunmatrix
M3Element
p597
(dp598
g3
Nsg4
S'Lite sannsynlig, Mulig'
p599
sg6
S'gray'
p600
sg8
(lp601
sg10
S'Possible'
p602
sg12
S'Most'
p603
sg14
g66
sg16
I0
sg17
S'High'
p604
sg19
S'Stor tilleggsbelastning'
p605
sg21
Nsg22
S'200'
p606
sg24
S'1900'
p607
sg26
S'De fleste bratte heng, Ogsaa i mindre bratt terreng'
p608
sg28
Nsg29
g343
sg31
S'2 - Smaa'
p609
sba(irunmatrix
M3Element
p610
(dp611
g3
Nsg4
S'Lite sannsynlig, Mulig'
p612
sg6
S'gray'
p613
sg8
(lp614
sg10
S'Possible'
p615
sg12
S'Most'
p616
sg14
g66
sg16
I0
sg17
S'Low'
p617
sg19
S'Liten tilleggsbelastning'
p618
sg21
Nsg22
S'200'
p619
sg24
S'2000'
p620
sg26
S'De fleste bratte heng, Ogsaa i mindre bratt terreng'
p621
sg28
Nsg29
g343
sg31
S'2 - Smaa'
p622
sba(irunmatrix
M3Element
p623
(dp624
g3
Nsg4
S'Lite sannsynlig, Mulig'
p625
sg6
S'gray'
p626
sg8
(lp627
sg10
S'Possible'
p628
sg12
S'Most'
p629
sg14
g66
sg16
I0
sg17
S'Nat'
p630
sg19
S'Naturlig utloest'
p631
sg21
Nsg22
S'200'
p632
sg24
S'2100'
p633
sg26
S'De fleste bratte heng, Ogsaa i mindre bratt terreng'
p634
sg28
Nsg29
g343
sg31
S'2 - Smaa'
p635
sba(irunmatrix
M3Element
p636
(dp637
g3
Nsg4
S'Sannsynlig, Meget sannsynlig'
p638
sg6
S'gray'
p639
sg8
(lp640
sg10
S'Likely'
p641
sg12
S'Most'
p642
sg14
g66
sg16
I0
sg17
S'High'
p643
sg19
S'Stor tilleggsbelastning'
p644
sg21
Nsg22
S'200'
p645
sg24
S'2200'
p646
sg26
S'De fleste bratte heng, Ogsaa i mindre bratt terreng'
p647
sg28
Nsg29
g343
sg31
S'2 - Smaa'
p648
sba(irunmatrix
M3Element
p649
(dp650
g3
Nsg4
S'Sannsynlig, Meget sannsynlig'
p651
sg6
S'gray'
p652
sg8
(lp653
sg10
S'Likely'
p654
sg12
S'Most'
p655
sg14
g66
sg16
I0
sg17
S'Low'
p656
sg19
S'Liten tilleggsbelastning'
p657
sg21
Nsg22
S'200'
p658
sg24
S'2300'
p659
sg26
S'De fleste bratte heng, Ogsaa i mindre bratt terreng'
p660
sg28
Nsg29
g343
sg31
S'2 - Smaa'
p661
sba(irunmatrix
M3Element
p662
(dp663
g3
Nsg4
S'Sannsynlig, Meget sannsynlig'
p664
sg6
S'white'
p665
sg8
(lp666
sg10
S'Likely'
p667
sg12
S'Most'
p668
sg14
g66
sg16
I0
sg17
S'Nat'
p669
sg19
S'Naturlig utloest'
p670
sg21
Nsg22
S'200'
p671
sg24
S'2400'
p672
sg26
S'De fleste bratte heng, Ogsaa i mindre bratt terreng'
p673
sg28
Nsg29
g343
sg31
S'2 - Smaa'
p674
sba(irunmatrix
M3Element
p675
(dp676
g3
Nsg4
S'Lite sannsynlig, Mulig'
p677
sg6
S'white'
p678
sg8
(lp679
sg10
S'Possible'
p680
sg12
S'Isolated'
p681
sg14
g15
sg16
I1
sg17
S'High'
p682
sg19
S'Stor tilleggsbelastning'
p683
sg21
Nsg22
S'300'
p684
sg24
S'100'
p685
sg26
S'Isolerte faresoner'
p686
sg28
Nsg29
S'3'
p687
sg31
S'3 - Middels'
p688
sba(irunmatrix
M3Element
p689
(dp690
g3
Nsg4
S'Lite sannsynlig, Mulig'
p691
sg6
S'white'
p692
sg8
(lp693
sg10
S'Possible'
p694
sg12
S'Isolated'
p695
sg14
g246
sg16
I2
sg17
S'Low'
p696
sg19
S'Liten tilleggsbelastning'
p697
sg21
Nsg22
S'300'
p698
sg24
S'200'
p699
sg26
S'Isolerte faresoner'
p700
sg28
Nsg29
g687
sg31
S'3 - Middels'
p701
sba(irunmatrix
M3Element
p702
(dp703
g3
Nsg4
S'Lite sannsynlig, Mulig'
p704
sg6
S'white'
p705
sg8
(lp706
sg10
S'Possible'
p707
sg12
S'Isolated'
p708
sg14
g246
sg16
I2
sg17
S'Nat'
p709
sg19
S'Naturlig utloest'
p710
sg21
Nsg22
S'300'
p711
sg24
S'300'
p712
sg26
S'Isolerte faresoner'
p713
sg28
Nsg29
g687
sg31
S'3 - Middels'
p714
sba(irunmatrix
M3Element
p715
(dp716
g3
Nsg4
S'Sannsynlig, Meget sannsynlig'
p717
sg6
S'gray'
p718
sg8
(lp719
sg10
S'Likely'
p720
sg12
S'Isolated'
p721
sg14
g66
sg16
I0
sg17
S'High'
p722
sg19
S'Stor tilleggsbelastning'
p723
sg21
Nsg22
S'300'
p724
sg24
S'400'
p725
sg26
S'Isolerte faresoner'
p726
sg28
Nsg29
g687
sg31
S'3 - Middels'
p727
sba(irunmatrix
M3Element
p728
(dp729
g3
Nsg4
S'Sannsynlig, Meget sannsynlig'
p730
sg6
S'gray'
p731
sg8
(lp732
sg10
S'Likely'
p733
sg12
S'Isolated'
p734
sg14
g66
sg16
I0
sg17
S'Low'
p735
sg19
S'Liten tilleggsbelastning'
p736
sg21
Nsg22
S'300'
p737
sg24
S'500'
p738
sg26
S'Isolerte faresoner'
p739
sg28
Nsg29
g687
sg31
S'3 - Middels'
p740
sba(irunmatrix
M3Element
p741
(dp742
g3
Nsg4
S'Sannsynlig, Meget sannsynlig'
p743
sg6
S'gray'
p744
sg8
(lp745
sg10
S'Likely'
p746
sg12
S'Isolated'
p747
sg14
g66
sg16
I0
sg17
S'Nat'
p748
sg19
S'Naturlig utloest'
p749
sg21
Nsg22
S'300'
p750
sg24
S'600'
p751
sg26
S'Isolerte faresoner'
p752
sg28
Nsg29
g687
sg31
S'3 - Middels'
p753
sba(irunmatrix
M3Element
p754
(dp755
g3
F2.0
sg4
S'Lite sannsynlig, Mulig'
p756
sg6
g348
sg8
(lp757
I2
aI2
aI2
aI2
aI2
aI2
aI2
aI2
aI2
aI2
aI2
aI2
aI2
aI2
asg10
S'Possible'
p758
sg12
S'Some'
p759
sg14
g246
sg16
I2
sg17
S'High'
p760
sg19
S'Stor tilleggsbelastning'
p761
sg21
I14
sg22
S'300'
p762
sg24
S'700'
p763
sg26
S'Noen bratte heng'
p764
sg28
g137
(g141
S'\x00\x00\x00\x00\x00\x00\x00\x00'
p765
tp766
Rp767
sg29
g687
sg31
S'3 - Middels'
p768
sba(irunmatrix
M3Element
p769
(dp770
g3
F3.0
sg4
S'Lite sannsynlig, Mulig'
p771
sg6
g584
sg8
(lp772
I3
aI3
aI3
aI3
aI3
aI3
aI3
aI3
aI3
aI3
aI3
aI3
aI3
aI3
aI3
aI3
aI3
aI3
aI3
aI3
aI3
aI3
aI3
aI3
aI3
asg10
S'Possible'
p773
sg12
S'Some'
p774
sg14
g505
sg16
I3
sg17
S'Low'
p775
sg19
S'Liten tilleggsbelastning'
p776
sg21
I25
sg22
S'300'
p777
sg24
S'800'
p778
sg26
S'Noen bratte heng'
p779
sg28
g137
(g141
S'\x00\x00\x00\x00\x00\x00\x00\x00'
p780
tp781
Rp782
sg29
g687
sg31
S'3 - Middels'
p783
sba(irunmatrix
M3Element
p784
(dp785
g3
F3.0
sg4
S'Lite sannsynlig, Mulig'
p786
sg6
g584
sg8
(lp787
I3
asg10
S'Possible'
p788
sg12
S'Some'
p789
sg14
g505
sg16
I3
sg17
S'Nat'
p790
sg19
S'Naturlig utloest'
p791
sg21
I1
sg22
S'300'
p792
sg24
S'900'
p793
sg26
S'Noen bratte heng'
p794
sg28
g137
(g141
S'\x00\x00\x00\x00\x00\x00\x00\x00'
p795
tp796
Rp797
sg29
g687
sg31
S'3 - Middels'
p798
sba(irunmatrix
M3Element
p799
(dp800
g3
Nsg4
S'Sannsynlig, Meget sannsynlig'
p801
sg6
S'gray'
p802
sg8
(lp803
sg10
S'Likely'
p804
sg12
S'Some'
p805
sg14
g66
sg16
I0
sg17
S'High'
p806
sg19
S'Stor tilleggsbelastning'
p807
sg21
Nsg22
S'300'
p808
sg24
S'1000'
p809
sg26
S'Noen bratte heng'
p810
sg28
Nsg29
g687
sg31
S'3 - Middels'
p811
sba(irunmatrix
M3Element
p812
(dp813
g3
F3.0
sg4
S'Sannsynlig, Meget sannsynlig'
p814
sg6
g584
sg8
(lp815
I3
aI3
aI3
aI3
asg10
S'Likely'
p816
sg12
S'Some'
p817
sg14
g66
sg16
I0
sg17
S'Low'
p818
sg19
S'Liten tilleggsbelastning'
p819
sg21
I4
sg22
S'300'
p820
sg24
S'1100'
p821
sg26
S'Noen bratte heng'
p822
sg28
g137
(g141
S'\x00\x00\x00\x00\x00\x00\x00\x00'
p823
tp824
Rp825
sg29
g687
sg31
S'3 - Middels'
p826
sba(irunmatrix
M3Element
p827
(dp828
g3
Nsg4
S'Sannsynlig, Meget sannsynlig'
p829
sg6
S'white'
p830
sg8
(lp831
sg10
S'Likely'
p832
sg12
S'Some'
p833
sg14
g574
sg16
I4
sg17
S'Nat'
p834
sg19
S'Naturlig utloest'
p835
sg21
Nsg22
S'300'
p836
sg24
S'1200'
p837
sg26
S'Noen bratte heng'
p838
sg28
Nsg29
g687
sg31
S'3 - Middels'
p839
sba(irunmatrix
M3Element
p840
(dp841
g3
Nsg4
S'Lite sannsynlig, Mulig'
p842
sg6
S'gray'
p843
sg8
(lp844
sg10
S'Possible'
p845
sg12
S'Many'
p846
sg14
g66
sg16
I0
sg17
S'High'
p847
sg19
S'Stor tilleggsbelastning'
p848
sg21
Nsg22
S'300'
p849
sg24
S'1300'
p850
sg26
S'Mange bratte heng'
p851
sg28
Nsg29
g687
sg31
S'3 - Middels'
p852
sba(irunmatrix
M3Element
p853
(dp854
g3
Nsg4
S'Lite sannsynlig, Mulig'
p855
sg6
S'white'
p856
sg8
(lp857
sg10
S'Possible'
p858
sg12
S'Many'
p859
sg14
g574
sg16
I4
sg17
S'Low'
p860
sg19
S'Liten tilleggsbelastning'
p861
sg21
Nsg22
S'300'
p862
sg24
S'1400'
p863
sg26
S'Mange bratte heng'
p864
sg28
Nsg29
g687
sg31
S'3 - Middels'
p865
sba(irunmatrix
M3Element
p866
(dp867
g3
Nsg4
S'Lite sannsynlig, Mulig'
p868
sg6
S'gray'
p869
sg8
(lp870
sg10
S'Possible'
p871
sg12
S'Many'
p872
sg14
g66
sg16
I0
sg17
S'Nat'
p873
sg19
S'Naturlig utloest'
p874
sg21
Nsg22
S'300'
p875
sg24
S'1500'
p876
sg26
S'Mange bratte heng'
p877
sg28
Nsg29
g687
sg31
S'3 - Middels'
p878
sba(irunmatrix
M3Element
p879
(dp880
g3
Nsg4
S'Sannsynlig, Meget sannsynlig'
p881
sg6
S'gray'
p882
sg8
(lp883
sg10
S'Likely'
p884
sg12
S'Many'
p885
sg14
g66
sg16
I0
sg17
S'High'
p886
sg19
S'Stor tilleggsbelastning'
p887
sg21
Nsg22
S'300'
p888
sg24
S'1600'
p889
sg26
S'Mange bratte heng'
p890
sg28
Nsg29
g687
sg31
S'3 - Middels'
p891
sba(irunmatrix
M3Element
p892
(dp893
g3
Nsg4
S'Sannsynlig, Meget sannsynlig'
p894
sg6
S'white'
p895
sg8
(lp896
sg10
S'Likely'
p897
sg12
S'Many'
p898
sg14
g574
sg16
I4
sg17
S'Low'
p899
sg19
S'Liten tilleggsbelastning'
p900
sg21
Nsg22
S'300'
p901
sg24
S'1700'
p902
sg26
S'Mange bratte heng'
p903
sg28
Nsg29
g687
sg31
S'3 - Middels'
p904
sba(irunmatrix
M3Element
p905
(dp906
g3
Nsg4
S'Sannsynlig, Meget sannsynlig'
p907
sg6
S'white'
p908
sg8
(lp909
sg10
S'Likely'
p910
sg12
S'Many'
p911
sg14
g574
sg16
I4
sg17
S'Nat'
p912
sg19
S'Naturlig utloest'
p913
sg21
Nsg22
S'300'
p914
sg24
S'1800'
p915
sg26
S'Mange bratte heng'
p916
sg28
Nsg29
g687
sg31
S'3 - Middels'
p917
sba(irunmatrix
M3Element
p918
(dp919
g3
Nsg4
S'Lite sannsynlig, Mulig'
p920
sg6
S'gray'
p921
sg8
(lp922
sg10
S'Possible'
p923
sg12
S'Most'
p924
sg14
g66
sg16
I0
sg17
S'High'
p925
sg19
S'Stor tilleggsbelastning'
p926
sg21
Nsg22
S'300'
p927
sg24
S'1900'
p928
sg26
S'De fleste bratte heng, Ogsaa i mindre bratt terreng'
p929
sg28
Nsg29
g687
sg31
S'3 - Middels'
p930
sba(irunmatrix
M3Element
p931
(dp932
g3
Nsg4
S'Lite sannsynlig, Mulig'
p933
sg6
S'gray'
p934
sg8
(lp935
sg10
S'Possible'
p936
sg12
S'Most'
p937
sg14
g66
sg16
I0
sg17
S'Low'
p938
sg19
S'Liten tilleggsbelastning'
p939
sg21
Nsg22
S'300'
p940
sg24
S'2000'
p941
sg26
S'De fleste bratte heng, Ogsaa i mindre bratt terreng'
p942
sg28
Nsg29
g687
sg31
S'3 - Middels'
p943
sba(irunmatrix
M3Element
p944
(dp945
g3
Nsg4
S'Lite sannsynlig, Mulig'
p946
sg6
S'gray'
p947
sg8
(lp948
sg10
S'Possible'
p949
sg12
S'Most'
p950
sg14
g66
sg16
I0
sg17
S'Nat'
p951
sg19
S'Naturlig utloest'
p952
sg21
Nsg22
S'300'
p953
sg24
S'2100'
p954
sg26
S'De fleste bratte heng, Ogsaa i mindre bratt terreng'
p955
sg28
Nsg29
g687
sg31
S'3 - Middels'
p956
sba(irunmatrix
M3Element
p957
(dp958
g3
Nsg4
S'Sannsynlig, Meget sannsynlig'
p959
sg6
S'gray'
p960
sg8
(lp961
sg10
S'Likely'
p962
sg12
S'Most'
p963
sg14
g66
sg16
I0
sg17
S'High'
p964
sg19
S'Stor tilleggsbelastning'
p965
sg21
Nsg22
S'300'
p966
sg24
S'2200'
p967
sg26
S'De fleste bratte heng, Ogsaa i mindre bratt terreng'
p968
sg28
Nsg29
g687
sg31
S'3 - Middels'
p969
sba(irunmatrix
M3Element
p970
(dp971
g3
Nsg4
S'Sannsynlig, Meget sannsynlig'
p972
sg6
S'gray'
p973
sg8
(lp974
sg10
S'Likely'
p975
sg12
S'Most'
p976
sg14
g66
sg16
I0
sg17
S'Low'
p977
sg19
S'Liten tilleggsbelastning'
p978
sg21
Nsg22
S'300'
p979
sg24
S'2300'
p980
sg26
S'De fleste bratte heng, Ogsaa i mindre bratt terreng'
p981
sg28
Nsg29
g687
sg31
S'3 - Middels'
p982
sba(irunmatrix
M3Element
p983
(dp984
g3
Nsg4
S'Sannsynlig, Meget sannsynlig'
p985
sg6
S'white'
p986
sg8
(lp987
sg10
S'Likely'
p988
sg12
S'Most'
p989
sg14
g66
sg16
I0
sg17
S'Nat'
p990
sg19
S'Naturlig utloest'
p991
sg21
Nsg22
S'300'
p992
sg24
S'2400'
p993
sg26
S'De fleste bratte heng, Ogsaa i mindre bratt terreng'
p994
sg28
Nsg29
g687
sg31
S'3 - Middels'
p995
sba(irunmatrix
M3Element
p996
(dp997
g3
Nsg4
S'Lite sannsynlig, Mulig'
p998
sg6
S'white'
p999
sg8
(lp1000
sg10
S'Possible'
p1001
sg12
S'Isolated'
p1002
sg14
g246
sg16
I2
sg17
S'High'
p1003
sg19
S'Stor tilleggsbelastning'
p1004
sg21
Nsg22
S'400'
p1005
sg24
S'100'
p1006
sg26
S'Isolerte faresoner'
p1007
sg28
Nsg29
S'4'
p1008
sg31
S'4 - Store'
p1009
sba(irunmatrix
M3Element
p1010
(dp1011
g3
Nsg4
S'Lite sannsynlig, Mulig'
p1012
sg6
S'white'
p1013
sg8
(lp1014
sg10
S'Possible'
p1015
sg12
S'Isolated'
p1016
sg14
g505
sg16
I3
sg17
S'Low'
p1017
sg19
S'Liten tilleggsbelastning'
p1018
sg21
Nsg22
S'400'
p1019
sg24
S'200'
p1020
sg26
S'Isolerte faresoner'
p1021
sg28
Nsg29
g1008
sg31
S'4 - Store'
p1022
sba(irunmatrix
M3Element
p1023
(dp1024
g3
Nsg4
S'Lite sannsynlig, Mulig'
p1025
sg6
S'white'
p1026
sg8
(lp1027
sg10
S'Possible'
p1028
sg12
S'Isolated'
p1029
sg14
g505
sg16
I3
sg17
S'Nat'
p1030
sg19
S'Naturlig utloest'
p1031
sg21
Nsg22
S'400'
p1032
sg24
S'300'
p1033
sg26
S'Isolerte faresoner'
p1034
sg28
Nsg29
g1008
sg31
S'4 - Store'
p1035
sba(irunmatrix
M3Element
p1036
(dp1037
g3
Nsg4
S'Sannsynlig, Meget sannsynlig'
p1038
sg6
S'gray'
p1039
sg8
(lp1040
sg10
S'Likely'
p1041
sg12
S'Isolated'
p1042
sg14
g66
sg16
I0
sg17
S'High'
p1043
sg19
S'Stor tilleggsbelastning'
p1044
sg21
Nsg22
S'400'
p1045
sg24
S'400'
p1046
sg26
S'Isolerte faresoner'
p1047
sg28
Nsg29
g1008
sg31
S'4 - Store'
p1048
sba(irunmatrix
M3Element
p1049
(dp1050
g3
Nsg4
S'Sannsynlig, Meget sannsynlig'
p1051
sg6
S'gray'
p1052
sg8
(lp1053
sg10
S'Likely'
p1054
sg12
S'Isolated'
p1055
sg14
g66
sg16
I0
sg17
S'Low'
p1056
sg19
S'Liten tilleggsbelastning'
p1057
sg21
Nsg22
S'400'
p1058
sg24
S'500'
p1059
sg26
S'Isolerte faresoner'
p1060
sg28
Nsg29
g1008
sg31
S'4 - Store'
p1061
sba(irunmatrix
M3Element
p1062
(dp1063
g3
Nsg4
S'Sannsynlig, Meget sannsynlig'
p1064
sg6
S'gray'
p1065
sg8
(lp1066
sg10
S'Likely'
p1067
sg12
S'Isolated'
p1068
sg14
g66
sg16
I0
sg17
S'Nat'
p1069
sg19
S'Naturlig utloest'
p1070
sg21
Nsg22
S'400'
p1071
sg24
S'600'
p1072
sg26
S'Isolerte faresoner'
p1073
sg28
Nsg29
g1008
sg31
S'4 - Store'
p1074
sba(irunmatrix
M3Element
p1075
(dp1076
g3
Nsg4
S'Lite sannsynlig, Mulig'
p1077
sg6
S'white'
p1078
sg8
(lp1079
sg10
S'Possible'
p1080
sg12
S'Some'
p1081
sg14
g505
sg16
I3
sg17
S'High'
p1082
sg19
S'Stor tilleggsbelastning'
p1083
sg21
Nsg22
S'400'
p1084
sg24
S'700'
p1085
sg26
S'Noen bratte heng'
p1086
sg28
Nsg29
g1008
sg31
S'4 - Store'
p1087
sba(irunmatrix
M3Element
p1088
(dp1089
g3
Nsg4
S'Lite sannsynlig, Mulig'
p1090
sg6
S'white'
p1091
sg8
(lp1092
sg10
S'Possible'
p1093
sg12
S'Some'
p1094
sg14
g574
sg16
I4
sg17
S'Low'
p1095
sg19
S'Liten tilleggsbelastning'
p1096
sg21
Nsg22
S'400'
p1097
sg24
S'800'
p1098
sg26
S'Noen bratte heng'
p1099
sg28
Nsg29
g1008
sg31
S'4 - Store'
p1100
sba(irunmatrix
M3Element
p1101
(dp1102
g3
Nsg4
S'Lite sannsynlig, Mulig'
p1103
sg6
S'white'
p1104
sg8
(lp1105
sg10
S'Possible'
p1106
sg12
S'Some'
p1107
sg14
g574
sg16
I4
sg17
S'Nat'
p1108
sg19
S'Naturlig utloest'
p1109
sg21
Nsg22
S'400'
p1110
sg24
S'900'
p1111
sg26
S'Noen bratte heng'
p1112
sg28
Nsg29
g1008
sg31
S'4 - Store'
p1113
sba(irunmatrix
M3Element
p1114
(dp1115
g3
Nsg4
S'Sannsynlig, Meget sannsynlig'
p1116
sg6
S'gray'
p1117
sg8
(lp1118
sg10
S'Likely'
p1119
sg12
S'Some'
p1120
sg14
g66
sg16
I0
sg17
S'High'
p1121
sg19
S'Stor tilleggsbelastning'
p1122
sg21
Nsg22
S'400'
p1123
sg24
S'1000'
p1124
sg26
S'Noen bratte heng'
p1125
sg28
Nsg29
g1008
sg31
S'4 - Store'
p1126
sba(irunmatrix
M3Element
p1127
(dp1128
g3
Nsg4
S'Sannsynlig, Meget sannsynlig'
p1129
sg6
S'gray'
p1130
sg8
(lp1131
sg10
S'Likely'
p1132
sg12
S'Some'
p1133
sg14
g66
sg16
I0
sg17
S'Low'
p1134
sg19
S'Liten tilleggsbelastning'
p1135
sg21
Nsg22
S'400'
p1136
sg24
S'1100'
p1137
sg26
S'Noen bratte heng'
p1138
sg28
Nsg29
g1008
sg31
S'4 - Store'
p1139
sba(irunmatrix
M3Element
p1140
(dp1141
g3
Nsg4
S'Sannsynlig, Meget sannsynlig'
p1142
sg6
S'white'
p1143
sg8
(lp1144
sg10
S'Likely'
p1145
sg12
S'Some'
p1146
sg14
g574
sg16
I4
sg17
S'Nat'
p1147
sg19
S'Naturlig utloest'
p1148
sg21
Nsg22
S'400'
p1149
sg24
S'1200'
p1150
sg26
S'Noen bratte heng'
p1151
sg28
Nsg29
g1008
sg31
S'4 - Store'
p1152
sba(irunmatrix
M3Element
p1153
(dp1154
g3
Nsg4
S'Lite sannsynlig, Mulig'
p1155
sg6
S'gray'
p1156
sg8
(lp1157
sg10
S'Possible'
p1158
sg12
S'Many'
p1159
sg14
g66
sg16
I0
sg17
S'High'
p1160
sg19
S'Stor tilleggsbelastning'
p1161
sg21
Nsg22
S'400'
p1162
sg24
S'1300'
p1163
sg26
S'Mange bratte heng'
p1164
sg28
Nsg29
g1008
sg31
S'4 - Store'
p1165
sba(irunmatrix
M3Element
p1166
(dp1167
g3
Nsg4
S'Lite sannsynlig, Mulig'
p1168
sg6
S'white'
p1169
sg8
(lp1170
sg10
S'Possible'
p1171
sg12
S'Many'
p1172
sg14
g66
sg16
I0
sg17
S'Low'
p1173
sg19
S'Liten tilleggsbelastning'
p1174
sg21
Nsg22
S'400'
p1175
sg24
S'1400'
p1176
sg26
S'Mange bratte heng'
p1177
sg28
Nsg29
g1008
sg31
S'4 - Store'
p1178
sba(irunmatrix
M3Element
p1179
(dp1180
g3
Nsg4
S'Lite sannsynlig, Mulig'
p1181
sg6
S'gray'
p1182
sg8
(lp1183
sg10
S'Possible'
p1184
sg12
S'Many'
p1185
sg14
g66
sg16
I0
sg17
S'Nat'
p1186
sg19
S'Naturlig utloest'
p1187
sg21
Nsg22
S'400'
p1188
sg24
S'1500'
p1189
sg26
S'Mange bratte heng'
p1190
sg28
Nsg29
g1008
sg31
S'4 - Store'
p1191
sba(irunmatrix
M3Element
p1192
(dp1193
g3
Nsg4
S'Sannsynlig, Meget sannsynlig'
p1194
sg6
S'gray'
p1195
sg8
(lp1196
sg10
S'Likely'
p1197
sg12
S'Many'
p1198
sg14
g66
sg16
I0
sg17
S'High'
p1199
sg19
S'Stor tilleggsbelastning'
p1200
sg21
Nsg22
S'400'
p1201
sg24
S'1600'
p1202
sg26
S'Mange bratte heng'
p1203
sg28
Nsg29
g1008
sg31
S'4 - Store'
p1204
sba(irunmatrix
M3Element
p1205
(dp1206
g3
Nsg4
S'Sannsynlig, Meget sannsynlig'
p1207
sg6
S'white'
p1208
sg8
(lp1209
sg10
S'Likely'
p1210
sg12
S'Many'
p1211
sg14
g66
sg16
I0
sg17
S'Low'
p1212
sg19
S'Liten tilleggsbelastning'
p1213
sg21
Nsg22
S'400'
p1214
sg24
S'1700'
p1215
sg26
S'Mange bratte heng'
p1216
sg28
Nsg29
g1008
sg31
S'4 - Store'
p1217
sba(irunmatrix
M3Element
p1218
(dp1219
g3
Nsg4
S'Sannsynlig, Meget sannsynlig'
p1220
sg6
S'white'
p1221
sg8
(lp1222
sg10
S'Likely'
p1223
sg12
S'Many'
p1224
sg14
S'k'
p1225
sg16
I5
sg17
S'Nat'
p1226
sg19
S'Naturlig utloest'
p1227
sg21
Nsg22
S'400'
p1228
sg24
S'1800'
p1229
sg26
S'Mange bratte heng'
p1230
sg28
Nsg29
g1008
sg31
S'4 - Store'
p1231
sba(irunmatrix
M3Element
p1232
(dp1233
g3
Nsg4
S'Lite sannsynlig, Mulig'
p1234
sg6
S'gray'
p1235
sg8
(lp1236
sg10
S'Possible'
p1237
sg12
S'Most'
p1238
sg14
g66
sg16
I0
sg17
S'High'
p1239
sg19
S'Stor tilleggsbelastning'
p1240
sg21
Nsg22
S'400'
p1241
sg24
S'1900'
p1242
sg26
S'De fleste bratte heng, Ogsaa i mindre bratt terreng'
p1243
sg28
Nsg29
g1008
sg31
S'4 - Store'
p1244
sba(irunmatrix
M3Element
p1245
(dp1246
g3
Nsg4
S'Lite sannsynlig, Mulig'
p1247
sg6
S'gray'
p1248
sg8
(lp1249
sg10
S'Possible'
p1250
sg12
S'Most'
p1251
sg14
g66
sg16
I0
sg17
S'Low'
p1252
sg19
S'Liten tilleggsbelastning'
p1253
sg21
Nsg22
S'400'
p1254
sg24
S'2000'
p1255
sg26
S'De fleste bratte heng, Ogsaa i mindre bratt terreng'
p1256
sg28
Nsg29
g1008
sg31
S'4 - Store'
p1257
sba(irunmatrix
M3Element
p1258
(dp1259
g3
Nsg4
S'Lite sannsynlig, Mulig'
p1260
sg6
S'gray'
p1261
sg8
(lp1262
sg10
S'Possible'
p1263
sg12
S'Most'
p1264
sg14
g66
sg16
I0
sg17
S'Nat'
p1265
sg19
S'Naturlig utloest'
p1266
sg21
Nsg22
S'400'
p1267
sg24
S'2100'
p1268
sg26
S'De fleste bratte heng, Ogsaa i mindre bratt terreng'
p1269
sg28
Nsg29
g1008
sg31
S'4 - Store'
p1270
sba(irunmatrix
M3Element
p1271
(dp1272
g3
Nsg4
S'Sannsynlig, Meget sannsynlig'
p1273
sg6
S'gray'
p1274
sg8
(lp1275
sg10
S'Likely'
p1276
sg12
S'Most'
p1277
sg14
g66
sg16
I0
sg17
S'High'
p1278
sg19
S'Stor tilleggsbelastning'
p1279
sg21
Nsg22
S'400'
p1280
sg24
S'2200'
p1281
sg26
S'De fleste bratte heng, Ogsaa i mindre bratt terreng'
p1282
sg28
Nsg29
g1008
sg31
S'4 - Store'
p1283
sba(irunmatrix
M3Element
p1284
(dp1285
g3
Nsg4
S'Sannsynlig, Meget sannsynlig'
p1286
sg6
S'gray'
p1287
sg8
(lp1288
sg10
S'Likely'
p1289
sg12
S'Most'
p1290
sg14
g66
sg16
I0
sg17
S'Low'
p1291
sg19
S'Liten tilleggsbelastning'
p1292
sg21
Nsg22
S'400'
p1293
sg24
S'2300'
p1294
sg26
S'De fleste bratte heng, Ogsaa i mindre bratt terreng'
p1295
sg28
Nsg29
g1008
sg31
S'4 - Store'
p1296
sba(irunmatrix
M3Element
p1297
(dp1298
g3
Nsg4
S'Sannsynlig, Meget sannsynlig'
p1299
sg6
S'white'
p1300
sg8
(lp1301
sg10
S'Likely'
p1302
sg12
S'Most'
p1303
sg14
g66
sg16
I0
sg17
S'Nat'
p1304
sg19
S'Naturlig utloest'
p1305
sg21
Nsg22
S'400'
p1306
sg24
S'2400'
p1307
sg26
S'De fleste bratte heng, Ogsaa i mindre bratt terreng'
p1308
sg28
Nsg29
g1008
sg31
S'4 - Store'
p1309
sba(irunmatrix
M3Element
p1310
(dp1311
g3
Nsg4
S'Lite sannsynlig, Mulig'
p1312
sg6
S'white'
p1313
sg8
(lp1314
sg10
S'Possible'
p1315
sg12
S'Isolated'
p1316
sg14
g66
sg16
I0
sg17
S'High'
p1317
sg19
S'Stor tilleggsbelastning'
p1318
sg21
Nsg22
S'500'
p1319
sg24
S'100'
p1320
sg26
S'Isolerte faresoner'
p1321
sg28
Nsg29
S'5'
p1322
sg31
S'5 - Svaert store'
p1323
sba(irunmatrix
M3Element
p1324
(dp1325
g3
Nsg4
S'Lite sannsynlig, Mulig'
p1326
sg6
S'white'
p1327
sg8
(lp1328
sg10
S'Possible'
p1329
sg12
S'Isolated'
p1330
sg14
g66
sg16
I0
sg17
S'Low'
p1331
sg19
S'Liten tilleggsbelastning'
p1332
sg21
Nsg22
S'500'
p1333
sg24
S'200'
p1334
sg26
S'Isolerte faresoner'
p1335
sg28
Nsg29
g1322
sg31
S'5 - Svaert store'
p1336
sba(irunmatrix
M3Element
p1337
(dp1338
g3
Nsg4
S'Lite sannsynlig, Mulig'
p1339
sg6
S'white'
p1340
sg8
(lp1341
sg10
S'Possible'
p1342
sg12
S'Isolated'
p1343
sg14
g66
sg16
I0
sg17
S'Nat'
p1344
sg19
S'Naturlig utloest'
p1345
sg21
Nsg22
S'500'
p1346
sg24
S'300'
p1347
sg26
S'Isolerte faresoner'
p1348
sg28
Nsg29
g1322
sg31
S'5 - Svaert store'
p1349
sba(irunmatrix
M3Element
p1350
(dp1351
g3
Nsg4
S'Sannsynlig, Meget sannsynlig'
p1352
sg6
S'gray'
p1353
sg8
(lp1354
sg10
S'Likely'
p1355
sg12
S'Isolated'
p1356
sg14
g66
sg16
I0
sg17
S'High'
p1357
sg19
S'Stor tilleggsbelastning'
p1358
sg21
Nsg22
S'500'
p1359
sg24
S'400'
p1360
sg26
S'Isolerte faresoner'
p1361
sg28
Nsg29
g1322
sg31
S'5 - Svaert store'
p1362
sba(irunmatrix
M3Element
p1363
(dp1364
g3
Nsg4
S'Sannsynlig, Meget sannsynlig'
p1365
sg6
S'gray'
p1366
sg8
(lp1367
sg10
S'Likely'
p1368
sg12
S'Isolated'
p1369
sg14
g66
sg16
I0
sg17
S'Low'
p1370
sg19
S'Liten tilleggsbelastning'
p1371
sg21
Nsg22
S'500'
p1372
sg24
S'500'
p1373
sg26
S'Isolerte faresoner'
p1374
sg28
Nsg29
g1322
sg31
S'5 - Svaert store'
p1375
sba(irunmatrix
M3Element
p1376
(dp1377
g3
Nsg4
S'Sannsynlig, Meget sannsynlig'
p1378
sg6
S'gray'
p1379
sg8
(lp1380
sg10
S'Likely'
p1381
sg12
S'Isolated'
p1382
sg14
g66
sg16
I0
sg17
S'Nat'
p1383
sg19
S'Naturlig utloest'
p1384
sg21
Nsg22
S'500'
p1385
sg24
S'600'
p1386
sg26
S'Isolerte faresoner'
p1387
sg28
Nsg29
g1322
sg31
S'5 - Svaert store'
p1388
sba(irunmatrix
M3Element
p1389
(dp1390
g3
Nsg4
S'Lite sannsynlig, Mulig'
p1391
sg6
S'white'
p1392
sg8
(lp1393
sg10
S'Possible'
p1394
sg12
S'Some'
p1395
sg14
g66
sg16
I0
sg17
S'High'
p1396
sg19
S'Stor tilleggsbelastning'
p1397
sg21
Nsg22
S'500'
p1398
sg24
S'700'
p1399
sg26
S'Noen bratte heng'
p1400
sg28
Nsg29
g1322
sg31
S'5 - Svaert store'
p1401
sba(irunmatrix
M3Element
p1402
(dp1403
g3
Nsg4
S'Lite sannsynlig, Mulig'
p1404
sg6
S'white'
p1405
sg8
(lp1406
sg10
S'Possible'
p1407
sg12
S'Some'
p1408
sg14
g66
sg16
I0
sg17
S'Low'
p1409
sg19
S'Liten tilleggsbelastning'
p1410
sg21
Nsg22
S'500'
p1411
sg24
S'800'
p1412
sg26
S'Noen bratte heng'
p1413
sg28
Nsg29
g1322
sg31
S'5 - Svaert store'
p1414
sba(irunmatrix
M3Element
p1415
(dp1416
g3
Nsg4
S'Lite sannsynlig, Mulig'
p1417
sg6
S'white'
p1418
sg8
(lp1419
sg10
S'Possible'
p1420
sg12
S'Some'
p1421
sg14
g66
sg16
I0
sg17
S'Nat'
p1422
sg19
S'Naturlig utloest'
p1423
sg21
Nsg22
S'500'
p1424
sg24
S'900'
p1425
sg26
S'Noen bratte heng'
p1426
sg28
Nsg29
g1322
sg31
S'5 - Svaert store'
p1427
sba(irunmatrix
M3Element
p1428
(dp1429
g3
Nsg4
S'Sannsynlig, Meget sannsynlig'
p1430
sg6
S'gray'
p1431
sg8
(lp1432
sg10
S'Likely'
p1433
sg12
S'Some'
p1434
sg14
g66
sg16
I0
sg17
S'High'
p1435
sg19
S'Stor tilleggsbelastning'
p1436
sg21
Nsg22
S'500'
p1437
sg24
S'1000'
p1438
sg26
S'Noen bratte heng'
p1439
sg28
Nsg29
g1322
sg31
S'5 - Svaert store'
p1440
sba(irunmatrix
M3Element
p1441
(dp1442
g3
Nsg4
S'Sannsynlig, Meget sannsynlig'
p1443
sg6
S'gray'
p1444
sg8
(lp1445
sg10
S'Likely'
p1446
sg12
S'Some'
p1447
sg14
g66
sg16
I0
sg17
S'Low'
p1448
sg19
S'Liten tilleggsbelastning'
p1449
sg21
Nsg22
S'500'
p1450
sg24
S'1100'
p1451
sg26
S'Noen bratte heng'
p1452
sg28
Nsg29
g1322
sg31
S'5 - Svaert store'
p1453
sba(irunmatrix
M3Element
p1454
(dp1455
g3
Nsg4
S'Sannsynlig, Meget sannsynlig'
p1456
sg6
S'white'
p1457
sg8
(lp1458
sg10
S'Likely'
p1459
sg12
S'Some'
p1460
sg14
g66
sg16
I0
sg17
S'Nat'
p1461
sg19
S'Naturlig utloest'
p1462
sg21
Nsg22
S'500'
p1463
sg24
S'1200'
p1464
sg26
S'Noen bratte heng'
p1465
sg28
Nsg29
g1322
sg31
S'5 - Svaert store'
p1466
sba(irunmatrix
M3Element
p1467
(dp1468
g3
Nsg4
S'Lite sannsynlig, Mulig'
p1469
sg6
S'gray'
p1470
sg8
(lp1471
sg10
S'Possible'
p1472
sg12
S'Many'
p1473
sg14
g66
sg16
I0
sg17
S'High'
p1474
sg19
S'Stor tilleggsbelastning'
p1475
sg21
Nsg22
S'500'
p1476
sg24
S'1300'
p1477
sg26
S'Mange bratte heng'
p1478
sg28
Nsg29
g1322
sg31
S'5 - Svaert store'
p1479
sba(irunmatrix
M3Element
p1480
(dp1481
g3
Nsg4
S'Lite sannsynlig, Mulig'
p1482
sg6
S'white'
p1483
sg8
(lp1484
sg10
S'Possible'
p1485
sg12
S'Many'
p1486
sg14
g66
sg16
I0
sg17
S'Low'
p1487
sg19
S'Liten tilleggsbelastning'
p1488
sg21
Nsg22
S'500'
p1489
sg24
S'1400'
p1490
sg26
S'Mange bratte heng'
p1491
sg28
Nsg29
g1322
sg31
S'5 - Svaert store'
p1492
sba(irunmatrix
M3Element
p1493
(dp1494
g3
Nsg4
S'Lite sannsynlig, Mulig'
p1495
sg6
S'gray'
p1496
sg8
(lp1497
sg10
S'Possible'
p1498
sg12
S'Many'
p1499
sg14
g66
sg16
I0
sg17
S'Nat'
p1500
sg19
S'Naturlig utloest'
p1501
sg21
Nsg22
S'500'
p1502
sg24
S'1500'
p1503
sg26
S'Mange bratte heng'
p1504
sg28
Nsg29
g1322
sg31
S'5 - Svaert store'
p1505
sba(irunmatrix
M3Element
p1506
(dp1507
g3
Nsg4
S'Sannsynlig, Meget sannsynlig'
p1508
sg6
S'gray'
p1509
sg8
(lp1510
sg10
S'Likely'
p1511
sg12
S'Many'
p1512
sg14
g66
sg16
I0
sg17
S'High'
p1513
sg19
S'Stor tilleggsbelastning'
p1514
sg21
Nsg22
S'500'
p1515
sg24
S'1600'
p1516
sg26
S'Mange bratte heng'
p1517
sg28
Nsg29
g1322
sg31
S'5 - Svaert store'
p1518
sba(irunmatrix
M3Element
p1519
(dp1520
g3
Nsg4
S'Sannsynlig, Meget sannsynlig'
p1521
sg6
S'white'
p1522
sg8
(lp1523
sg10
S'Likely'
p1524
sg12
S'Many'
p1525
sg14
g66
sg16
I0
sg17
S'Low'
p1526
sg19
S'Liten tilleggsbelastning'
p1527
sg21
Nsg22
S'500'
p1528
sg24
S'1700'
p1529
sg26
S'Mange bratte heng'
p1530
sg28
Nsg29
g1322
sg31
S'5 - Svaert store'
p1531
sba(irunmatrix
M3Element
p1532
(dp1533
g3
Nsg4
S'Sannsynlig, Meget sannsynlig'
p1534
sg6
S'white'
p1535
sg8
(lp1536
sg10
S'Likely'
p1537
sg12
S'Many'
p1538
sg14
g1225
sg16
I5
sg17
S'Nat'
p1539
sg19
S'Naturlig utloest'
p1540
sg21
Nsg22
S'500'
p1541
sg24
S'1800'
p1542
sg26
S'Mange bratte heng'
p1543
sg28
Nsg29
g1322
sg31
S'5 - Svaert store'
p1544
sba(irunmatrix
M3Element
p1545
(dp1546
g3
Nsg4
S'Lite sannsynlig, Mulig'
p1547
sg6
S'gray'
p1548
sg8
(lp1549
sg10
S'Possible'
p1550
sg12
S'Most'
p1551
sg14
g66
sg16
I0
sg17
S'High'
p1552
sg19
S'Stor tilleggsbelastning'
p1553
sg21
Nsg22
S'500'
p1554
sg24
S'1900'
p1555
sg26
S'De fleste bratte heng, Ogsaa i mindre bratt terreng'
p1556
sg28
Nsg29
g1322
sg31
S'5 - Svaert store'
p1557
sba(irunmatrix
M3Element
p1558
(dp1559
g3
Nsg4
S'Lite sannsynlig, Mulig'
p1560
sg6
S'gray'
p1561
sg8
(lp1562
sg10
S'Possible'
p1563
sg12
S'Most'
p1564
sg14
g66
sg16
I0
sg17
S'Low'
p1565
sg19
S'Liten tilleggsbelastning'
p1566
sg21
Nsg22
S'500'
p1567
sg24
S'2000'
p1568
sg26
S'De fleste bratte heng, Ogsaa i mindre bratt terreng'
p1569
sg28
Nsg29
g1322
sg31
S'5 - Svaert store'
p1570
sba(irunmatrix
M3Element
p1571
(dp1572
g3
Nsg4
S'Lite sannsynlig, Mulig'
p1573
sg6
S'gray'
p1574
sg8
(lp1575
sg10
S'Possible'
p1576
sg12
S'Most'
p1577
sg14
g66
sg16
I0
sg17
S'Nat'
p1578
sg19
S'Naturlig utloest'
p1579
sg21
Nsg22
S'500'
p1580
sg24
S'2100'
p1581
sg26
S'De fleste bratte heng, Ogsaa i mindre bratt terreng'
p1582
sg28
Nsg29
g1322
sg31
S'5 - Svaert store'
p1583
sba(irunmatrix
M3Element
p1584
(dp1585
g3
Nsg4
S'Sannsynlig, Meget sannsynlig'
p1586
sg6
S'gray'
p1587
sg8
(lp1588
sg10
S'Likely'
p1589
sg12
S'Most'
p1590
sg14
g66
sg16
I0
sg17
S'High'
p1591
sg19
S'Stor tilleggsbelastning'
p1592
sg21
Nsg22
S'500'
p1593
sg24
S'2200'
p1594
sg26
S'De fleste bratte heng, Ogsaa i mindre bratt terreng'
p1595
sg28
Nsg29
g1322
sg31
S'5 - Svaert store'
p1596
sba(irunmatrix
M3Element
p1597
(dp1598
g3
Nsg4
S'Sannsynlig, Meget sannsynlig'
p1599
sg6
S'gray'
p1600
sg8
(lp1601
sg10
S'Likely'
p1602
sg12
S'Most'
p1603
sg14
g66
sg16
I0
sg17
S'Low'
p1604
sg19
S'Liten tilleggsbelastning'
p1605
sg21
Nsg22
S'500'
p1606
sg24
S'2300'
p1607
sg26
S'De fleste bratte heng, Ogsaa i mindre bratt terreng'
p1608
sg28
Nsg29
g1322
sg31
S'5 - Svaert store'
p1609
sba(irunmatrix
M3Element
p1610
(dp1611
g3
Nsg4
S'Sannsynlig, Meget sannsynlig'
p1612
sg6
S'white'
p1613
sg8
(lp1614
sg10
S'Likely'
p1615
sg12
S'Most'
p1616
sg14
g66
sg16
I0
sg17
S'Nat'
p1617
sg19
S'Naturlig utloest'
p1618
sg21
Nsg22
S'500'
p1619
sg24
S'2400'
p1620
sg26
S'De fleste bratte heng, Ogsaa i mindre bratt terreng'
p1621
sg28
Nsg29
g1322
sg31
S'5 - Svaert store'
p1622
sba.