(dp0
S'trigger'
p1
(dp2
S'keys'
p3
(lp4
S'Stor tilleggsbelastning'
p5
aS'Liten tilleggsbelastning'
p6
aS'Naturlig utloest'
p7
asS'colors'
p8
(lp9
S'0.7'
p10
asS'values'
p11
(lp12
S'Naturlig utloest'
p13
aS'Liten tilleggsbelastning'
p14
aS'Liten tilleggsbelastning'
p15
aS'Stor tilleggsbelastning'
p16
aS'Liten tilleggsbelastning'
p17
aS'Liten tilleggsbelastning'
p18
aS'Liten tilleggsbelastning'
p19
aS'Stor tilleggsbelastning'
p20
aS'Liten tilleggsbelastning'
p21
aS'Liten tilleggsbelastning'
p22
aS'Liten tilleggsbelastning'
p23
aS'Liten tilleggsbelastning'
p24
aS'Liten tilleggsbelastning'
p25
aS'Liten tilleggsbelastning'
p26
aS'Liten tilleggsbelastning'
p27
aS'Liten tilleggsbelastning'
p28
aS'Liten tilleggsbelastning'
p29
aS'Liten tilleggsbelastning'
p30
aS'Liten tilleggsbelastning'
p31
aS'Liten tilleggsbelastning'
p32
aS'Liten tilleggsbelastning'
p33
aS'Liten tilleggsbelastning'
p34
aS'Liten tilleggsbelastning'
p35
aS'Liten tilleggsbelastning'
p36
aS'Liten tilleggsbelastning'
p37
aS'Liten tilleggsbelastning'
p38
aS'Liten tilleggsbelastning'
p39
aS'Liten tilleggsbelastning'
p40
aS'Liten tilleggsbelastning'
p41
aS'Liten tilleggsbelastning'
p42
aS'Liten tilleggsbelastning'
p43
aS'Liten tilleggsbelastning'
p44
aS'Liten tilleggsbelastning'
p45
aS'Liten tilleggsbelastning'
p46
aS'Liten tilleggsbelastning'
p47
aS'Liten tilleggsbelastning'
p48
aS'Liten tilleggsbelastning'
p49
aS'Liten tilleggsbelastning'
p50
aS'Naturlig utloest'
p51
aS'Liten tilleggsbelastning'
p52
aS'Liten tilleggsbelastning'
p53
aS'Liten tilleggsbelastning'
p54
aS'Liten tilleggsbelastning'
p55
aS'Naturlig utloest'
p56
aS'Naturlig utloest'
p57
aS'Naturlig utloest'
p58
aS'Naturlig utloest'
p59
aS'Liten tilleggsbelastning'
p60
aS'Naturlig utloest'
p61
aS'Naturlig utloest'
p62
aS'Naturlig utloest'
p63
aS'Naturlig utloest'
p64
aS'Naturlig utloest'
p65
aS'Naturlig utloest'
p66
aS'Liten tilleggsbelastning'
p67
aS'Naturlig utloest'
p68
aS'Naturlig utloest'
p69
aS'Naturlig utloest'
p70
aS'Naturlig utloest'
p71
aS'Naturlig utloest'
p72
aS'Naturlig utloest'
p73
aS'Naturlig utloest'
p74
aS'Liten tilleggsbelastning'
p75
aS'Naturlig utloest'
p76
aS'Naturlig utloest'
p77
aS'Naturlig utloest'
p78
aS'Naturlig utloest'
p79
aS'Naturlig utloest'
p80
aS'Naturlig utloest'
p81
aS'Naturlig utloest'
p82
aS'Liten tilleggsbelastning'
p83
aS'Naturlig utloest'
p84
aS'Naturlig utloest'
p85
aS'Naturlig utloest'
p86
aS'Naturlig utloest'
p87
aS'Naturlig utloest'
p88
aS'Naturlig utloest'
p89
aS'Naturlig utloest'
p90
aS'Naturlig utloest'
p91
aS'Naturlig utloest'
p92
assS'distribution'
p93
(dp94
g3
(lp95
S'Isolerte faresoner'
p96
aS'Noen bratte heng'
p97
aS'Mange bratte heng'
p98
aS'De fleste bratte heng'
p99
aS'Ogsaa i mindre bratt terreng'
p100
asg8
(lp101
g10
asg11
(lp102
S'Noen bratte heng'
p103
aS'Noen bratte heng'
p104
aS'Noen bratte heng'
p105
aS'Noen bratte heng'
p106
aS'Noen bratte heng'
p107
aS'Noen bratte heng'
p108
aS'Noen bratte heng'
p109
aS'Noen bratte heng'
p110
aS'Noen bratte heng'
p111
aS'Noen bratte heng'
p112
aS'Noen bratte heng'
p113
aS'Noen bratte heng'
p114
aS'Noen bratte heng'
p115
aS'Noen bratte heng'
p116
aS'Noen bratte heng'
p117
aS'Noen bratte heng'
p118
aS'Noen bratte heng'
p119
aS'Noen bratte heng'
p120
aS'Noen bratte heng'
p121
aS'Noen bratte heng'
p122
aS'Noen bratte heng'
p123
aS'Noen bratte heng'
p124
aS'Noen bratte heng'
p125
aS'Noen bratte heng'
p126
aS'Noen bratte heng'
p127
aS'Noen bratte heng'
p128
aS'Noen bratte heng'
p129
aS'Noen bratte heng'
p130
aS'Noen bratte heng'
p131
aS'Noen bratte heng'
p132
aS'Noen bratte heng'
p133
aS'Noen bratte heng'
p134
aS'Noen bratte heng'
p135
aS'Noen bratte heng'
p136
aS'Noen bratte heng'
p137
aS'Noen bratte heng'
p138
aS'Noen bratte heng'
p139
aS'Noen bratte heng'
p140
aS'Noen bratte heng'
p141
aS'Noen bratte heng'
p142
aS'Noen bratte heng'
p143
aS'Noen bratte heng'
p144
aS'Noen bratte heng'
p145
aS'Noen bratte heng'
p146
aS'Noen bratte heng'
p147
aS'Noen bratte heng'
p148
aS'Noen bratte heng'
p149
aS'Noen bratte heng'
p150
aS'Noen bratte heng'
p151
aS'Noen bratte heng'
p152
aS'Noen bratte heng'
p153
aS'Noen bratte heng'
p154
aS'Noen bratte heng'
p155
aS'Noen bratte heng'
p156
aS'Noen bratte heng'
p157
aS'Noen bratte heng'
p158
aS'Noen bratte heng'
p159
aS'Noen bratte heng'
p160
aS'Noen bratte heng'
p161
aS'Noen bratte heng'
p162
aS'Noen bratte heng'
p163
aS'Noen bratte heng'
p164
aS'Noen bratte heng'
p165
aS'Noen bratte heng'
p166
aS'Noen bratte heng'
p167
aS'Noen bratte heng'
p168
aS'Noen bratte heng'
p169
aS'Noen bratte heng'
p170
aS'Noen bratte heng'
p171
aS'Noen bratte heng'
p172
aS'Noen bratte heng'
p173
aS'Noen bratte heng'
p174
aS'Noen bratte heng'
p175
aS'Noen bratte heng'
p176
aS'Noen bratte heng'
p177
aS'Noen bratte heng'
p178
aS'Noen bratte heng'
p179
aS'Isolerte faresoner'
p180
aS'Noen bratte heng'
p181
aS'Noen bratte heng'
p182
assS'size'
p183
(dp184
g3
(lp185
S'1 - Harmloest'
p186
aS'2 - Smaa'
p187
aS'3 - Middels'
p188
aS'4 - Store'
p189
aS'5 - Svaert store'
p190
aS'Ukjent'
p191
asg8
(lp192
g10
asg11
(lp193
S'2 - Smaa'
p194
aS'2 - Smaa'
p195
aS'2 - Smaa'
p196
aS'1 - Harmloest'
p197
aS'2 - Smaa'
p198
aS'3 - Middels'
p199
aS'3 - Middels'
p200
aS'1 - Harmloest'
p201
aS'3 - Middels'
p202
aS'2 - Smaa'
p203
aS'3 - Middels'
p204
aS'3 - Middels'
p205
aS'2 - Smaa'
p206
aS'2 - Smaa'
p207
aS'3 - Middels'
p208
aS'2 - Smaa'
p209
aS'2 - Smaa'
p210
aS'2 - Smaa'
p211
aS'2 - Smaa'
p212
aS'2 - Smaa'
p213
aS'2 - Smaa'
p214
aS'2 - Smaa'
p215
aS'2 - Smaa'
p216
aS'2 - Smaa'
p217
aS'2 - Smaa'
p218
aS'2 - Smaa'
p219
aS'2 - Smaa'
p220
aS'2 - Smaa'
p221
aS'2 - Smaa'
p222
aS'2 - Smaa'
p223
aS'2 - Smaa'
p224
aS'2 - Smaa'
p225
aS'2 - Smaa'
p226
aS'2 - Smaa'
p227
aS'2 - Smaa'
p228
aS'2 - Smaa'
p229
aS'2 - Smaa'
p230
aS'2 - Smaa'
p231
aS'1 - Harmloest'
p232
aS'2 - Smaa'
p233
aS'2 - Smaa'
p234
aS'2 - Smaa'
p235
aS'2 - Smaa'
p236
aS'2 - Smaa'
p237
aS'2 - Smaa'
p238
aS'2 - Smaa'
p239
aS'2 - Smaa'
p240
aS'2 - Smaa'
p241
aS'2 - Smaa'
p242
aS'2 - Smaa'
p243
aS'2 - Smaa'
p244
aS'2 - Smaa'
p245
aS'2 - Smaa'
p246
aS'2 - Smaa'
p247
aS'2 - Smaa'
p248
aS'2 - Smaa'
p249
aS'2 - Smaa'
p250
aS'2 - Smaa'
p251
aS'2 - Smaa'
p252
aS'2 - Smaa'
p253
aS'2 - Smaa'
p254
aS'2 - Smaa'
p255
aS'2 - Smaa'
p256
aS'2 - Smaa'
p257
aS'2 - Smaa'
p258
aS'2 - Smaa'
p259
aS'2 - Smaa'
p260
aS'2 - Smaa'
p261
aS'2 - Smaa'
p262
aS'2 - Smaa'
p263
aS'2 - Smaa'
p264
aS'2 - Smaa'
p265
aS'2 - Smaa'
p266
aS'2 - Smaa'
p267
aS'2 - Smaa'
p268
aS'2 - Smaa'
p269
aS'2 - Smaa'
p270
aS'1 - Harmloest'
p271
aS'2 - Smaa'
p272
aS'2 - Smaa'
p273
assS'probability'
p274
(dp275
g3
(lp276
S'Lite sannsynlig'
p277
aS'Mulig'
p278
aS'Sannsynlig'
p279
aS'Meget sannsynlig'
p280
asg8
(lp281
g10
asg11
(lp282
S'Sannsynlig'
p283
aS'Mulig'
p284
aS'Mulig'
p285
aS'Lite sannsynlig'
p286
aS'Mulig'
p287
aS'Mulig'
p288
aS'Mulig'
p289
aS'Lite sannsynlig'
p290
aS'Mulig'
p291
aS'Mulig'
p292
aS'Mulig'
p293
aS'Mulig'
p294
aS'Mulig'
p295
aS'Mulig'
p296
aS'Mulig'
p297
aS'Mulig'
p298
aS'Mulig'
p299
aS'Mulig'
p300
aS'Mulig'
p301
aS'Mulig'
p302
aS'Mulig'
p303
aS'Mulig'
p304
aS'Mulig'
p305
aS'Mulig'
p306
aS'Mulig'
p307
aS'Mulig'
p308
aS'Mulig'
p309
aS'Mulig'
p310
aS'Mulig'
p311
aS'Mulig'
p312
aS'Mulig'
p313
aS'Mulig'
p314
aS'Mulig'
p315
aS'Mulig'
p316
aS'Mulig'
p317
aS'Mulig'
p318
aS'Mulig'
p319
aS'Mulig'
p320
aS'Mulig'
p321
aS'Mulig'
p322
aS'Mulig'
p323
aS'Mulig'
p324
aS'Mulig'
p325
aS'Sannsynlig'
p326
aS'Sannsynlig'
p327
aS'Sannsynlig'
p328
aS'Sannsynlig'
p329
aS'Mulig'
p330
aS'Sannsynlig'
p331
aS'Sannsynlig'
p332
aS'Sannsynlig'
p333
aS'Sannsynlig'
p334
aS'Sannsynlig'
p335
aS'Sannsynlig'
p336
aS'Mulig'
p337
aS'Sannsynlig'
p338
aS'Sannsynlig'
p339
aS'Mulig'
p340
aS'Mulig'
p341
aS'Sannsynlig'
p342
aS'Sannsynlig'
p343
aS'Mulig'
p344
aS'Mulig'
p345
aS'Sannsynlig'
p346
aS'Sannsynlig'
p347
aS'Mulig'
p348
aS'Mulig'
p349
aS'Sannsynlig'
p350
aS'Sannsynlig'
p351
aS'Mulig'
p352
aS'Mulig'
p353
aS'Sannsynlig'
p354
aS'Sannsynlig'
p355
aS'Mulig'
p356
aS'Mulig'
p357
aS'Mulig'
p358
aS'Mulig'
p359
aS'Mulig'
p360
aS'Mulig'
p361
aS'Mulig'
p362
assS'level'
p363
(dp364
g3
(lp365
I1
aI2
aI3
aI4
aI5
asg8
(lp366
S'#ccff66'
p367
aS'#ffff00'
p368
aS'#ff9900'
p369
aS'#ff0000'
p370
aS'k'
p371
asg11
(lp372
I3
aI2
aI2
aI1
aI2
aI3
aI3
aI1
aI3
aI2
aI3
aI3
aI2
aI2
aI3
aI2
aI2
aI2
aI2
aI2
aI2
aI2
aI2
aI2
aI2
aI2
aI2
aI2
aI2
aI2
aI2
aI2
aI2
aI2
aI2
aI2
aI2
aI2
aI2
aI2
aI2
aI2
aI2
aI3
aI3
aI2
aI2
aI2
aI3
aI3
aI3
aI3
aI2
aI2
aI2
aI3
aI3
aI2
aI2
aI2
aI2
aI3
aI2
aI2
aI2
aI2
aI2
aI2
aI2
aI3
aI2
aI2
aI2
aI2
aI2
aI2
aI2
aI2
aI2
aI2
ass.