(lp0
(irunmatrix
M3Element
p1
(dp2
S'danger_level_average'
p3
NsS'probability'
p4
S'Lite sannsynlig, Mulig'
p5
sS'colour'
p6
S'white'
p7
sS'danger_level_list'
p8
(lp9
sS'label_probalility'
p10
S'Possible'
p11
sS'label_distribution'
p12
S'Isolated'
p13
sS'recomended_colour'
p14
S'#ccff66'
p15
sS'recomended_danger_level'
p16
I1
sS'label_trigger'
p17
S'High'
p18
sS'trigger'
p19
S'Stor tilleggsbelastning'
p20
sS'occurrences'
p21
NsS'y'
p22
S'100'
p23
sS'x'
p24
S'100'
p25
sS'distribution'
p26
S'Isolerte faresoner'
p27
sS'danger_level_standard_dev'
p28
NsS'label_size'
p29
S'1'
p30
sS'avalanche_size'
p31
S'1 - Harmloest'
p32
sba(irunmatrix
M3Element
p33
(dp34
g3
F1.0
sg4
S'Lite sannsynlig, Mulig'
p35
sg6
S'#ccff66'
p36
sg8
(lp37
I1
asg10
S'Possible'
p38
sg12
S'Isolated'
p39
sg14
g15
sg16
I1
sg17
S'Low'
p40
sg19
S'Liten tilleggsbelastning'
p41
sg21
I1
sg22
S'100'
p42
sg24
S'200'
p43
sg26
S'Isolerte faresoner'
p44
sg28
cnumpy.core.multiarray
scalar
p45
(cnumpy
dtype
p46
(S'f8'
p47
I0
I1
tp48
Rp49
(I3
S'<'
p50
NNNI-1
I-1
I0
tp51
bS'\x00\x00\x00\x00\x00\x00\x00\x00'
p52
tp53
Rp54
sg29
g30
sg31
S'1 - Harmloest'
p55
sba(irunmatrix
M3Element
p56
(dp57
g3
F1.0
sg4
S'Lite sannsynlig, Mulig'
p58
sg6
g36
sg8
(lp59
I1
aI1
asg10
S'Possible'
p60
sg12
S'Isolated'
p61
sg14
g15
sg16
I1
sg17
S'Nat'
p62
sg19
S'Naturlig utloest'
p63
sg21
I2
sg22
S'100'
p64
sg24
S'300'
p65
sg26
S'Isolerte faresoner'
p66
sg28
g45
(g49
S'\x00\x00\x00\x00\x00\x00\x00\x00'
p67
tp68
Rp69
sg29
g30
sg31
S'1 - Harmloest'
p70
sba(irunmatrix
M3Element
p71
(dp72
g3
Nsg4
S'Sannsynlig, Meget sannsynlig'
p73
sg6
S'gray'
p74
sg8
(lp75
sg10
S'Likely'
p76
sg12
S'Isolated'
p77
sg14
S'gray'
p78
sg16
I0
sg17
S'High'
p79
sg19
S'Stor tilleggsbelastning'
p80
sg21
Nsg22
S'100'
p81
sg24
S'400'
p82
sg26
S'Isolerte faresoner'
p83
sg28
Nsg29
g30
sg31
S'1 - Harmloest'
p84
sba(irunmatrix
M3Element
p85
(dp86
g3
Nsg4
S'Sannsynlig, Meget sannsynlig'
p87
sg6
S'gray'
p88
sg8
(lp89
sg10
S'Likely'
p90
sg12
S'Isolated'
p91
sg14
g78
sg16
I0
sg17
S'Low'
p92
sg19
S'Liten tilleggsbelastning'
p93
sg21
Nsg22
S'100'
p94
sg24
S'500'
p95
sg26
S'Isolerte faresoner'
p96
sg28
Nsg29
g30
sg31
S'1 - Harmloest'
p97
sba(irunmatrix
M3Element
p98
(dp99
g3
Nsg4
S'Sannsynlig, Meget sannsynlig'
p100
sg6
S'gray'
p101
sg8
(lp102
sg10
S'Likely'
p103
sg12
S'Isolated'
p104
sg14
g78
sg16
I0
sg17
S'Nat'
p105
sg19
S'Naturlig utloest'
p106
sg21
Nsg22
S'100'
p107
sg24
S'600'
p108
sg26
S'Isolerte faresoner'
p109
sg28
Nsg29
g30
sg31
S'1 - Harmloest'
p110
sba(irunmatrix
M3Element
p111
(dp112
g3
Nsg4
S'Lite sannsynlig, Mulig'
p113
sg6
S'white'
p114
sg8
(lp115
sg10
S'Possible'
p116
sg12
S'Some'
p117
sg14
g15
sg16
I1
sg17
S'High'
p118
sg19
S'Stor tilleggsbelastning'
p119
sg21
Nsg22
S'100'
p120
sg24
S'700'
p121
sg26
S'Noen bratte heng'
p122
sg28
Nsg29
g30
sg31
S'1 - Harmloest'
p123
sba(irunmatrix
M3Element
p124
(dp125
g3
Nsg4
S'Lite sannsynlig, Mulig'
p126
sg6
S'white'
p127
sg8
(lp128
sg10
S'Possible'
p129
sg12
S'Some'
p130
sg14
g15
sg16
I1
sg17
S'Low'
p131
sg19
S'Liten tilleggsbelastning'
p132
sg21
Nsg22
S'100'
p133
sg24
S'800'
p134
sg26
S'Noen bratte heng'
p135
sg28
Nsg29
g30
sg31
S'1 - Harmloest'
p136
sba(irunmatrix
M3Element
p137
(dp138
g3
F1.0
sg4
S'Lite sannsynlig, Mulig'
p139
sg6
g36
sg8
(lp140
I1
aI1
aI1
aI1
aI1
aI1
aI1
aI1
aI1
asg10
S'Possible'
p141
sg12
S'Some'
p142
sg14
g15
sg16
I1
sg17
S'Nat'
p143
sg19
S'Naturlig utloest'
p144
sg21
I9
sg22
S'100'
p145
sg24
S'900'
p146
sg26
S'Noen bratte heng'
p147
sg28
g45
(g49
S'\x00\x00\x00\x00\x00\x00\x00\x00'
p148
tp149
Rp150
sg29
g30
sg31
S'1 - Harmloest'
p151
sba(irunmatrix
M3Element
p152
(dp153
g3
Nsg4
S'Sannsynlig, Meget sannsynlig'
p154
sg6
S'gray'
p155
sg8
(lp156
sg10
S'Likely'
p157
sg12
S'Some'
p158
sg14
g78
sg16
I0
sg17
S'High'
p159
sg19
S'Stor tilleggsbelastning'
p160
sg21
Nsg22
S'100'
p161
sg24
S'1000'
p162
sg26
S'Noen bratte heng'
p163
sg28
Nsg29
g30
sg31
S'1 - Harmloest'
p164
sba(irunmatrix
M3Element
p165
(dp166
g3
Nsg4
S'Sannsynlig, Meget sannsynlig'
p167
sg6
S'gray'
p168
sg8
(lp169
sg10
S'Likely'
p170
sg12
S'Some'
p171
sg14
g78
sg16
I0
sg17
S'Low'
p172
sg19
S'Liten tilleggsbelastning'
p173
sg21
Nsg22
S'100'
p174
sg24
S'1100'
p175
sg26
S'Noen bratte heng'
p176
sg28
Nsg29
g30
sg31
S'1 - Harmloest'
p177
sba(irunmatrix
M3Element
p178
(dp179
g3
Nsg4
S'Sannsynlig, Meget sannsynlig'
p180
sg6
S'white'
p181
sg8
(lp182
sg10
S'Likely'
p183
sg12
S'Some'
p184
sg14
g15
sg16
I1
sg17
S'Nat'
p185
sg19
S'Naturlig utloest'
p186
sg21
Nsg22
S'100'
p187
sg24
S'1200'
p188
sg26
S'Noen bratte heng'
p189
sg28
Nsg29
g30
sg31
S'1 - Harmloest'
p190
sba(irunmatrix
M3Element
p191
(dp192
g3
Nsg4
S'Lite sannsynlig, Mulig'
p193
sg6
S'gray'
p194
sg8
(lp195
sg10
S'Possible'
p196
sg12
S'Many'
p197
sg14
g78
sg16
I0
sg17
S'High'
p198
sg19
S'Stor tilleggsbelastning'
p199
sg21
Nsg22
S'100'
p200
sg24
S'1300'
p201
sg26
S'Mange bratte heng'
p202
sg28
Nsg29
g30
sg31
S'1 - Harmloest'
p203
sba(irunmatrix
M3Element
p204
(dp205
g3
Nsg4
S'Lite sannsynlig, Mulig'
p206
sg6
S'white'
p207
sg8
(lp208
sg10
S'Possible'
p209
sg12
S'Many'
p210
sg14
g15
sg16
I1
sg17
S'Low'
p211
sg19
S'Liten tilleggsbelastning'
p212
sg21
Nsg22
S'100'
p213
sg24
S'1400'
p214
sg26
S'Mange bratte heng'
p215
sg28
Nsg29
g30
sg31
S'1 - Harmloest'
p216
sba(irunmatrix
M3Element
p217
(dp218
g3
Nsg4
S'Lite sannsynlig, Mulig'
p219
sg6
S'gray'
p220
sg8
(lp221
sg10
S'Possible'
p222
sg12
S'Many'
p223
sg14
g78
sg16
I0
sg17
S'Nat'
p224
sg19
S'Naturlig utloest'
p225
sg21
Nsg22
S'100'
p226
sg24
S'1500'
p227
sg26
S'Mange bratte heng'
p228
sg28
Nsg29
g30
sg31
S'1 - Harmloest'
p229
sba(irunmatrix
M3Element
p230
(dp231
g3
Nsg4
S'Sannsynlig, Meget sannsynlig'
p232
sg6
S'gray'
p233
sg8
(lp234
sg10
S'Likely'
p235
sg12
S'Many'
p236
sg14
g78
sg16
I0
sg17
S'High'
p237
sg19
S'Stor tilleggsbelastning'
p238
sg21
Nsg22
S'100'
p239
sg24
S'1600'
p240
sg26
S'Mange bratte heng'
p241
sg28
Nsg29
g30
sg31
S'1 - Harmloest'
p242
sba(irunmatrix
M3Element
p243
(dp244
g3
Nsg4
S'Sannsynlig, Meget sannsynlig'
p245
sg6
S'white'
p246
sg8
(lp247
sg10
S'Likely'
p248
sg12
S'Many'
p249
sg14
S'#ffff00'
p250
sg16
I2
sg17
S'Low'
p251
sg19
S'Liten tilleggsbelastning'
p252
sg21
Nsg22
S'100'
p253
sg24
S'1700'
p254
sg26
S'Mange bratte heng'
p255
sg28
Nsg29
g30
sg31
S'1 - Harmloest'
p256
sba(irunmatrix
M3Element
p257
(dp258
g3
Nsg4
S'Sannsynlig, Meget sannsynlig'
p259
sg6
S'white'
p260
sg8
(lp261
sg10
S'Likely'
p262
sg12
S'Many'
p263
sg14
g250
sg16
I2
sg17
S'Nat'
p264
sg19
S'Naturlig utloest'
p265
sg21
Nsg22
S'100'
p266
sg24
S'1800'
p267
sg26
S'Mange bratte heng'
p268
sg28
Nsg29
g30
sg31
S'1 - Harmloest'
p269
sba(irunmatrix
M3Element
p270
(dp271
g3
Nsg4
S'Lite sannsynlig, Mulig'
p272
sg6
S'gray'
p273
sg8
(lp274
sg10
S'Possible'
p275
sg12
S'Most'
p276
sg14
g78
sg16
I0
sg17
S'High'
p277
sg19
S'Stor tilleggsbelastning'
p278
sg21
Nsg22
S'100'
p279
sg24
S'1900'
p280
sg26
S'De fleste bratte heng, Ogsaa i mindre bratt terreng'
p281
sg28
Nsg29
g30
sg31
S'1 - Harmloest'
p282
sba(irunmatrix
M3Element
p283
(dp284
g3
Nsg4
S'Lite sannsynlig, Mulig'
p285
sg6
S'gray'
p286
sg8
(lp287
sg10
S'Possible'
p288
sg12
S'Most'
p289
sg14
g78
sg16
I0
sg17
S'Low'
p290
sg19
S'Liten tilleggsbelastning'
p291
sg21
Nsg22
S'100'
p292
sg24
S'2000'
p293
sg26
S'De fleste bratte heng, Ogsaa i mindre bratt terreng'
p294
sg28
Nsg29
g30
sg31
S'1 - Harmloest'
p295
sba(irunmatrix
M3Element
p296
(dp297
g3
Nsg4
S'Lite sannsynlig, Mulig'
p298
sg6
S'gray'
p299
sg8
(lp300
sg10
S'Possible'
p301
sg12
S'Most'
p302
sg14
g78
sg16
I0
sg17
S'Nat'
p303
sg19
S'Naturlig utloest'
p304
sg21
Nsg22
S'100'
p305
sg24
S'2100'
p306
sg26
S'De fleste bratte heng, Ogsaa i mindre bratt terreng'
p307
sg28
Nsg29
g30
sg31
S'1 - Harmloest'
p308
sba(irunmatrix
M3Element
p309
(dp310
g3
Nsg4
S'Sannsynlig, Meget sannsynlig'
p311
sg6
S'gray'
p312
sg8
(lp313
sg10
S'Likely'
p314
sg12
S'Most'
p315
sg14
g78
sg16
I0
sg17
S'High'
p316
sg19
S'Stor tilleggsbelastning'
p317
sg21
Nsg22
S'100'
p318
sg24
S'2200'
p319
sg26
S'De fleste bratte heng, Ogsaa i mindre bratt terreng'
p320
sg28
Nsg29
g30
sg31
S'1 - Harmloest'
p321
sba(irunmatrix
M3Element
p322
(dp323
g3
Nsg4
S'Sannsynlig, Meget sannsynlig'
p324
sg6
S'gray'
p325
sg8
(lp326
sg10
S'Likely'
p327
sg12
S'Most'
p328
sg14
g78
sg16
I0
sg17
S'Low'
p329
sg19
S'Liten tilleggsbelastning'
p330
sg21
Nsg22
S'100'
p331
sg24
S'2300'
p332
sg26
S'De fleste bratte heng, Ogsaa i mindre bratt terreng'
p333
sg28
Nsg29
g30
sg31
S'1 - Harmloest'
p334
sba(irunmatrix
M3Element
p335
(dp336
g3
Nsg4
S'Sannsynlig, Meget sannsynlig'
p337
sg6
S'white'
p338
sg8
(lp339
sg10
S'Likely'
p340
sg12
S'Most'
p341
sg14
g78
sg16
I0
sg17
S'Nat'
p342
sg19
S'Naturlig utloest'
p343
sg21
Nsg22
S'100'
p344
sg24
S'2400'
p345
sg26
S'De fleste bratte heng, Ogsaa i mindre bratt terreng'
p346
sg28
Nsg29
S'2'
p347
sg31
S'1 - Harmloest'
p348
sba(irunmatrix
M3Element
p349
(dp350
g3
F1.2
sg4
S'Lite sannsynlig, Mulig'
p351
sg6
g36
sg8
(lp352
I1
aI1
aI1
aI2
aI1
asg10
S'Possible'
p353
sg12
S'Isolated'
p354
sg14
g15
sg16
I1
sg17
S'High'
p355
sg19
S'Stor tilleggsbelastning'
p356
sg21
I5
sg22
S'200'
p357
sg24
S'100'
p358
sg26
S'Isolerte faresoner'
p359
sg28
g45
(g49
S'\x9a\x99\x99\x99\x99\x99\xd9?'
p360
tp361
Rp362
sg29
g347
sg31
S'2 - Smaa'
p363
sba(irunmatrix
M3Element
p364
(dp365
g3
F1.1304347826086956
sg4
S'Lite sannsynlig, Mulig'
p366
sg6
g36
sg8
(lp367
I1
aI1
aI1
aI1
aI1
aI1
aI2
aI2
aI1
aI1
aI2
aI1
aI1
aI1
aI1
aI1
aI1
aI1
aI1
aI1
aI1
aI1
aI1
asg10
S'Possible'
p368
sg12
S'Isolated'
p369
sg14
g15
sg16
I1
sg17
S'Low'
p370
sg19
S'Liten tilleggsbelastning'
p371
sg21
I23
sg22
S'200'
p372
sg24
S'200'
p373
sg26
S'Isolerte faresoner'
p374
sg28
g45
(g49
S'>X\x9b\x91\xd2\x8d\xd5?'
p375
tp376
Rp377
sg29
g347
sg31
S'2 - Smaa'
p378
sba(irunmatrix
M3Element
p379
(dp380
g3
F1.0
sg4
S'Lite sannsynlig, Mulig'
p381
sg6
g36
sg8
(lp382
I1
aI1
asg10
S'Possible'
p383
sg12
S'Isolated'
p384
sg14
g15
sg16
I1
sg17
S'Nat'
p385
sg19
S'Naturlig utloest'
p386
sg21
I2
sg22
S'200'
p387
sg24
S'300'
p388
sg26
S'Isolerte faresoner'
p389
sg28
g45
(g49
S'\x00\x00\x00\x00\x00\x00\x00\x00'
p390
tp391
Rp392
sg29
g347
sg31
S'2 - Smaa'
p393
sba(irunmatrix
M3Element
p394
(dp395
g3
Nsg4
S'Sannsynlig, Meget sannsynlig'
p396
sg6
S'gray'
p397
sg8
(lp398
sg10
S'Likely'
p399
sg12
S'Isolated'
p400
sg14
g78
sg16
I0
sg17
S'High'
p401
sg19
S'Stor tilleggsbelastning'
p402
sg21
Nsg22
S'200'
p403
sg24
S'400'
p404
sg26
S'Isolerte faresoner'
p405
sg28
Nsg29
g347
sg31
S'2 - Smaa'
p406
sba(irunmatrix
M3Element
p407
(dp408
g3
Nsg4
S'Sannsynlig, Meget sannsynlig'
p409
sg6
S'gray'
p410
sg8
(lp411
sg10
S'Likely'
p412
sg12
S'Isolated'
p413
sg14
g78
sg16
I0
sg17
S'Low'
p414
sg19
S'Liten tilleggsbelastning'
p415
sg21
Nsg22
S'200'
p416
sg24
S'500'
p417
sg26
S'Isolerte faresoner'
p418
sg28
Nsg29
g347
sg31
S'2 - Smaa'
p419
sba(irunmatrix
M3Element
p420
(dp421
g3
Nsg4
S'Sannsynlig, Meget sannsynlig'
p422
sg6
S'gray'
p423
sg8
(lp424
sg10
S'Likely'
p425
sg12
S'Isolated'
p426
sg14
g78
sg16
I0
sg17
S'Nat'
p427
sg19
S'Naturlig utloest'
p428
sg21
Nsg22
S'200'
p429
sg24
S'600'
p430
sg26
S'Isolerte faresoner'
p431
sg28
Nsg29
g347
sg31
S'2 - Smaa'
p432
sba(irunmatrix
M3Element
p433
(dp434
g3
F2.0
sg4
S'Lite sannsynlig, Mulig'
p435
sg6
S'#ffff00'
p436
sg8
(lp437
I2
aI2
aI2
aI2
aI2
asg10
S'Possible'
p438
sg12
S'Some'
p439
sg14
g250
sg16
I2
sg17
S'High'
p440
sg19
S'Stor tilleggsbelastning'
p441
sg21
I5
sg22
S'200'
p442
sg24
S'700'
p443
sg26
S'Noen bratte heng'
p444
sg28
g45
(g49
S'\x00\x00\x00\x00\x00\x00\x00\x00'
p445
tp446
Rp447
sg29
g347
sg31
S'2 - Smaa'
p448
sba(irunmatrix
M3Element
p449
(dp450
g3
F2.0217391304347827
sg4
S'Lite sannsynlig, Mulig'
p451
sg6
g436
sg8
(lp452
I2
aI2
aI2
aI2
aI2
aI2
aI2
aI2
aI2
aI2
aI2
aI2
aI2
aI2
aI2
aI2
aI2
aI2
aI2
aI2
aI3
aI2
aI2
aI2
aI2
aI2
aI2
aI2
aI2
aI2
aI2
aI2
aI2
aI2
aI2
aI2
aI2
aI2
aI2
aI2
aI2
aI2
aI2
aI2
aI2
aI2
asg10
S'Possible'
p453
sg12
S'Some'
p454
sg14
g250
sg16
I2
sg17
S'Low'
p455
sg19
S'Liten tilleggsbelastning'
p456
sg21
I46
sg22
S'200'
p457
sg24
S'800'
p458
sg26
S'Noen bratte heng'
p459
sg28
g45
(g49
S'`\xb1\xa9\x11\x93\xaa\xc2?'
p460
tp461
Rp462
sg29
g347
sg31
S'2 - Smaa'
p463
sba(irunmatrix
M3Element
p464
(dp465
g3
F1.0
sg4
S'Lite sannsynlig, Mulig'
p466
sg6
g36
sg8
(lp467
I1
asg10
S'Possible'
p468
sg12
S'Some'
p469
sg14
g250
sg16
I2
sg17
S'Nat'
p470
sg19
S'Naturlig utloest'
p471
sg21
I1
sg22
S'200'
p472
sg24
S'900'
p473
sg26
S'Noen bratte heng'
p474
sg28
g45
(g49
S'\x00\x00\x00\x00\x00\x00\x00\x00'
p475
tp476
Rp477
sg29
g347
sg31
S'2 - Smaa'
p478
sba(irunmatrix
M3Element
p479
(dp480
g3
Nsg4
S'Sannsynlig, Meget sannsynlig'
p481
sg6
S'gray'
p482
sg8
(lp483
sg10
S'Likely'
p484
sg12
S'Some'
p485
sg14
g78
sg16
I0
sg17
S'High'
p486
sg19
S'Stor tilleggsbelastning'
p487
sg21
Nsg22
S'200'
p488
sg24
S'1000'
p489
sg26
S'Noen bratte heng'
p490
sg28
Nsg29
g347
sg31
S'2 - Smaa'
p491
sba(irunmatrix
M3Element
p492
(dp493
g3
Nsg4
S'Sannsynlig, Meget sannsynlig'
p494
sg6
S'gray'
p495
sg8
(lp496
sg10
S'Likely'
p497
sg12
S'Some'
p498
sg14
g78
sg16
I0
sg17
S'Low'
p499
sg19
S'Liten tilleggsbelastning'
p500
sg21
Nsg22
S'200'
p501
sg24
S'1100'
p502
sg26
S'Noen bratte heng'
p503
sg28
Nsg29
g347
sg31
S'2 - Smaa'
p504
sba(irunmatrix
M3Element
p505
(dp506
g3
Nsg4
S'Sannsynlig, Meget sannsynlig'
p507
sg6
S'white'
p508
sg8
(lp509
sg10
S'Likely'
p510
sg12
S'Some'
p511
sg14
S'#ff9900'
p512
sg16
I3
sg17
S'Nat'
p513
sg19
S'Naturlig utloest'
p514
sg21
Nsg22
S'200'
p515
sg24
S'1200'
p516
sg26
S'Noen bratte heng'
p517
sg28
Nsg29
g347
sg31
S'2 - Smaa'
p518
sba(irunmatrix
M3Element
p519
(dp520
g3
Nsg4
S'Lite sannsynlig, Mulig'
p521
sg6
S'gray'
p522
sg8
(lp523
sg10
S'Possible'
p524
sg12
S'Many'
p525
sg14
g78
sg16
I0
sg17
S'High'
p526
sg19
S'Stor tilleggsbelastning'
p527
sg21
Nsg22
S'200'
p528
sg24
S'1300'
p529
sg26
S'Mange bratte heng'
p530
sg28
Nsg29
g347
sg31
S'2 - Smaa'
p531
sba(irunmatrix
M3Element
p532
(dp533
g3
F3.0
sg4
S'Lite sannsynlig, Mulig'
p534
sg6
S'#ff9900'
p535
sg8
(lp536
I3
asg10
S'Possible'
p537
sg12
S'Many'
p538
sg14
g512
sg16
I3
sg17
S'Low'
p539
sg19
S'Liten tilleggsbelastning'
p540
sg21
I1
sg22
S'200'
p541
sg24
S'1400'
p542
sg26
S'Mange bratte heng'
p543
sg28
g45
(g49
S'\x00\x00\x00\x00\x00\x00\x00\x00'
p544
tp545
Rp546
sg29
g347
sg31
S'2 - Smaa'
p547
sba(irunmatrix
M3Element
p548
(dp549
g3
Nsg4
S'Lite sannsynlig, Mulig'
p550
sg6
S'gray'
p551
sg8
(lp552
sg10
S'Possible'
p553
sg12
S'Many'
p554
sg14
g78
sg16
I0
sg17
S'Nat'
p555
sg19
S'Naturlig utloest'
p556
sg21
Nsg22
S'200'
p557
sg24
S'1500'
p558
sg26
S'Mange bratte heng'
p559
sg28
Nsg29
g347
sg31
S'2 - Smaa'
p560
sba(irunmatrix
M3Element
p561
(dp562
g3
Nsg4
S'Sannsynlig, Meget sannsynlig'
p563
sg6
S'gray'
p564
sg8
(lp565
sg10
S'Likely'
p566
sg12
S'Many'
p567
sg14
g78
sg16
I0
sg17
S'High'
p568
sg19
S'Stor tilleggsbelastning'
p569
sg21
Nsg22
S'200'
p570
sg24
S'1600'
p571
sg26
S'Mange bratte heng'
p572
sg28
Nsg29
g347
sg31
S'2 - Smaa'
p573
sba(irunmatrix
M3Element
p574
(dp575
g3
Nsg4
S'Sannsynlig, Meget sannsynlig'
p576
sg6
S'white'
p577
sg8
(lp578
sg10
S'Likely'
p579
sg12
S'Many'
p580
sg14
S'#ff0000'
p581
sg16
I4
sg17
S'Low'
p582
sg19
S'Liten tilleggsbelastning'
p583
sg21
Nsg22
S'200'
p584
sg24
S'1700'
p585
sg26
S'Mange bratte heng'
p586
sg28
Nsg29
g347
sg31
S'2 - Smaa'
p587
sba(irunmatrix
M3Element
p588
(dp589
g3
Nsg4
S'Sannsynlig, Meget sannsynlig'
p590
sg6
S'white'
p591
sg8
(lp592
sg10
S'Likely'
p593
sg12
S'Many'
p594
sg14
g581
sg16
I4
sg17
S'Nat'
p595
sg19
S'Naturlig utloest'
p596
sg21
Nsg22
S'200'
p597
sg24
S'1800'
p598
sg26
S'Mange bratte heng'
p599
sg28
Nsg29
g347
sg31
S'2 - Smaa'
p600
sba(irunmatrix
M3Element
p601
(dp602
g3
Nsg4
S'Lite sannsynlig, Mulig'
p603
sg6
S'gray'
p604
sg8
(lp605
sg10
S'Possible'
p606
sg12
S'Most'
p607
sg14
g78
sg16
I0
sg17
S'High'
p608
sg19
S'Stor tilleggsbelastning'
p609
sg21
Nsg22
S'200'
p610
sg24
S'1900'
p611
sg26
S'De fleste bratte heng, Ogsaa i mindre bratt terreng'
p612
sg28
Nsg29
g347
sg31
S'2 - Smaa'
p613
sba(irunmatrix
M3Element
p614
(dp615
g3
F3.0
sg4
S'Lite sannsynlig, Mulig'
p616
sg6
g535
sg8
(lp617
I3
asg10
S'Possible'
p618
sg12
S'Most'
p619
sg14
g78
sg16
I0
sg17
S'Low'
p620
sg19
S'Liten tilleggsbelastning'
p621
sg21
I1
sg22
S'200'
p622
sg24
S'2000'
p623
sg26
S'De fleste bratte heng, Ogsaa i mindre bratt terreng'
p624
sg28
g45
(g49
S'\x00\x00\x00\x00\x00\x00\x00\x00'
p625
tp626
Rp627
sg29
g347
sg31
S'2 - Smaa'
p628
sba(irunmatrix
M3Element
p629
(dp630
g3
Nsg4
S'Lite sannsynlig, Mulig'
p631
sg6
S'gray'
p632
sg8
(lp633
sg10
S'Possible'
p634
sg12
S'Most'
p635
sg14
g78
sg16
I0
sg17
S'Nat'
p636
sg19
S'Naturlig utloest'
p637
sg21
Nsg22
S'200'
p638
sg24
S'2100'
p639
sg26
S'De fleste bratte heng, Ogsaa i mindre bratt terreng'
p640
sg28
Nsg29
g347
sg31
S'2 - Smaa'
p641
sba(irunmatrix
M3Element
p642
(dp643
g3
Nsg4
S'Sannsynlig, Meget sannsynlig'
p644
sg6
S'gray'
p645
sg8
(lp646
sg10
S'Likely'
p647
sg12
S'Most'
p648
sg14
g78
sg16
I0
sg17
S'High'
p649
sg19
S'Stor tilleggsbelastning'
p650
sg21
Nsg22
S'200'
p651
sg24
S'2200'
p652
sg26
S'De fleste bratte heng, Ogsaa i mindre bratt terreng'
p653
sg28
Nsg29
g347
sg31
S'2 - Smaa'
p654
sba(irunmatrix
M3Element
p655
(dp656
g3
Nsg4
S'Sannsynlig, Meget sannsynlig'
p657
sg6
S'gray'
p658
sg8
(lp659
sg10
S'Likely'
p660
sg12
S'Most'
p661
sg14
g78
sg16
I0
sg17
S'Low'
p662
sg19
S'Liten tilleggsbelastning'
p663
sg21
Nsg22
S'200'
p664
sg24
S'2300'
p665
sg26
S'De fleste bratte heng, Ogsaa i mindre bratt terreng'
p666
sg28
Nsg29
g347
sg31
S'2 - Smaa'
p667
sba(irunmatrix
M3Element
p668
(dp669
g3
Nsg4
S'Sannsynlig, Meget sannsynlig'
p670
sg6
S'white'
p671
sg8
(lp672
sg10
S'Likely'
p673
sg12
S'Most'
p674
sg14
g78
sg16
I0
sg17
S'Nat'
p675
sg19
S'Naturlig utloest'
p676
sg21
Nsg22
S'200'
p677
sg24
S'2400'
p678
sg26
S'De fleste bratte heng, Ogsaa i mindre bratt terreng'
p679
sg28
Nsg29
g347
sg31
S'2 - Smaa'
p680
sba(irunmatrix
M3Element
p681
(dp682
g3
Nsg4
S'Lite sannsynlig, Mulig'
p683
sg6
S'white'
p684
sg8
(lp685
sg10
S'Possible'
p686
sg12
S'Isolated'
p687
sg14
g15
sg16
I1
sg17
S'High'
p688
sg19
S'Stor tilleggsbelastning'
p689
sg21
Nsg22
S'300'
p690
sg24
S'100'
p691
sg26
S'Isolerte faresoner'
p692
sg28
Nsg29
S'3'
p693
sg31
S'3 - Middels'
p694
sba(irunmatrix
M3Element
p695
(dp696
g3
Nsg4
S'Lite sannsynlig, Mulig'
p697
sg6
S'white'
p698
sg8
(lp699
sg10
S'Possible'
p700
sg12
S'Isolated'
p701
sg14
g250
sg16
I2
sg17
S'Low'
p702
sg19
S'Liten tilleggsbelastning'
p703
sg21
Nsg22
S'300'
p704
sg24
S'200'
p705
sg26
S'Isolerte faresoner'
p706
sg28
Nsg29
g693
sg31
S'3 - Middels'
p707
sba(irunmatrix
M3Element
p708
(dp709
g3
Nsg4
S'Lite sannsynlig, Mulig'
p710
sg6
S'white'
p711
sg8
(lp712
sg10
S'Possible'
p713
sg12
S'Isolated'
p714
sg14
g250
sg16
I2
sg17
S'Nat'
p715
sg19
S'Naturlig utloest'
p716
sg21
Nsg22
S'300'
p717
sg24
S'300'
p718
sg26
S'Isolerte faresoner'
p719
sg28
Nsg29
g693
sg31
S'3 - Middels'
p720
sba(irunmatrix
M3Element
p721
(dp722
g3
Nsg4
S'Sannsynlig, Meget sannsynlig'
p723
sg6
S'gray'
p724
sg8
(lp725
sg10
S'Likely'
p726
sg12
S'Isolated'
p727
sg14
g78
sg16
I0
sg17
S'High'
p728
sg19
S'Stor tilleggsbelastning'
p729
sg21
Nsg22
S'300'
p730
sg24
S'400'
p731
sg26
S'Isolerte faresoner'
p732
sg28
Nsg29
g693
sg31
S'3 - Middels'
p733
sba(irunmatrix
M3Element
p734
(dp735
g3
Nsg4
S'Sannsynlig, Meget sannsynlig'
p736
sg6
S'gray'
p737
sg8
(lp738
sg10
S'Likely'
p739
sg12
S'Isolated'
p740
sg14
g78
sg16
I0
sg17
S'Low'
p741
sg19
S'Liten tilleggsbelastning'
p742
sg21
Nsg22
S'300'
p743
sg24
S'500'
p744
sg26
S'Isolerte faresoner'
p745
sg28
Nsg29
g693
sg31
S'3 - Middels'
p746
sba(irunmatrix
M3Element
p747
(dp748
g3
Nsg4
S'Sannsynlig, Meget sannsynlig'
p749
sg6
S'gray'
p750
sg8
(lp751
sg10
S'Likely'
p752
sg12
S'Isolated'
p753
sg14
g78
sg16
I0
sg17
S'Nat'
p754
sg19
S'Naturlig utloest'
p755
sg21
Nsg22
S'300'
p756
sg24
S'600'
p757
sg26
S'Isolerte faresoner'
p758
sg28
Nsg29
g693
sg31
S'3 - Middels'
p759
sba(irunmatrix
M3Element
p760
(dp761
g3
F2.0
sg4
S'Lite sannsynlig, Mulig'
p762
sg6
g436
sg8
(lp763
I2
aI2
aI2
aI2
aI2
aI2
aI2
aI2
aI2
aI2
asg10
S'Possible'
p764
sg12
S'Some'
p765
sg14
g250
sg16
I2
sg17
S'High'
p766
sg19
S'Stor tilleggsbelastning'
p767
sg21
I10
sg22
S'300'
p768
sg24
S'700'
p769
sg26
S'Noen bratte heng'
p770
sg28
g45
(g49
S'\x00\x00\x00\x00\x00\x00\x00\x00'
p771
tp772
Rp773
sg29
g693
sg31
S'3 - Middels'
p774
sba(irunmatrix
M3Element
p775
(dp776
g3
F3.0
sg4
S'Lite sannsynlig, Mulig'
p777
sg6
g535
sg8
(lp778
I3
aI3
aI3
aI3
aI3
aI3
aI3
aI3
aI3
aI3
aI3
aI3
asg10
S'Possible'
p779
sg12
S'Some'
p780
sg14
g512
sg16
I3
sg17
S'Low'
p781
sg19
S'Liten tilleggsbelastning'
p782
sg21
I12
sg22
S'300'
p783
sg24
S'800'
p784
sg26
S'Noen bratte heng'
p785
sg28
g45
(g49
S'\x00\x00\x00\x00\x00\x00\x00\x00'
p786
tp787
Rp788
sg29
g693
sg31
S'3 - Middels'
p789
sba(irunmatrix
M3Element
p790
(dp791
g3
Nsg4
S'Lite sannsynlig, Mulig'
p792
sg6
S'white'
p793
sg8
(lp794
sg10
S'Possible'
p795
sg12
S'Some'
p796
sg14
g512
sg16
I3
sg17
S'Nat'
p797
sg19
S'Naturlig utloest'
p798
sg21
Nsg22
S'300'
p799
sg24
S'900'
p800
sg26
S'Noen bratte heng'
p801
sg28
Nsg29
g693
sg31
S'3 - Middels'
p802
sba(irunmatrix
M3Element
p803
(dp804
g3
Nsg4
S'Sannsynlig, Meget sannsynlig'
p805
sg6
S'gray'
p806
sg8
(lp807
sg10
S'Likely'
p808
sg12
S'Some'
p809
sg14
g78
sg16
I0
sg17
S'High'
p810
sg19
S'Stor tilleggsbelastning'
p811
sg21
Nsg22
S'300'
p812
sg24
S'1000'
p813
sg26
S'Noen bratte heng'
p814
sg28
Nsg29
g693
sg31
S'3 - Middels'
p815
sba(irunmatrix
M3Element
p816
(dp817
g3
Nsg4
S'Sannsynlig, Meget sannsynlig'
p818
sg6
S'gray'
p819
sg8
(lp820
sg10
S'Likely'
p821
sg12
S'Some'
p822
sg14
g78
sg16
I0
sg17
S'Low'
p823
sg19
S'Liten tilleggsbelastning'
p824
sg21
Nsg22
S'300'
p825
sg24
S'1100'
p826
sg26
S'Noen bratte heng'
p827
sg28
Nsg29
g693
sg31
S'3 - Middels'
p828
sba(irunmatrix
M3Element
p829
(dp830
g3
Nsg4
S'Sannsynlig, Meget sannsynlig'
p831
sg6
S'white'
p832
sg8
(lp833
sg10
S'Likely'
p834
sg12
S'Some'
p835
sg14
g581
sg16
I4
sg17
S'Nat'
p836
sg19
S'Naturlig utloest'
p837
sg21
Nsg22
S'300'
p838
sg24
S'1200'
p839
sg26
S'Noen bratte heng'
p840
sg28
Nsg29
g693
sg31
S'3 - Middels'
p841
sba(irunmatrix
M3Element
p842
(dp843
g3
F2.0
sg4
S'Lite sannsynlig, Mulig'
p844
sg6
g436
sg8
(lp845
I2
aI2
asg10
S'Possible'
p846
sg12
S'Many'
p847
sg14
g78
sg16
I0
sg17
S'High'
p848
sg19
S'Stor tilleggsbelastning'
p849
sg21
I2
sg22
S'300'
p850
sg24
S'1300'
p851
sg26
S'Mange bratte heng'
p852
sg28
g45
(g49
S'\x00\x00\x00\x00\x00\x00\x00\x00'
p853
tp854
Rp855
sg29
g693
sg31
S'3 - Middels'
p856
sba(irunmatrix
M3Element
p857
(dp858
g3
Nsg4
S'Lite sannsynlig, Mulig'
p859
sg6
S'white'
p860
sg8
(lp861
sg10
S'Possible'
p862
sg12
S'Many'
p863
sg14
g581
sg16
I4
sg17
S'Low'
p864
sg19
S'Liten tilleggsbelastning'
p865
sg21
Nsg22
S'300'
p866
sg24
S'1400'
p867
sg26
S'Mange bratte heng'
p868
sg28
Nsg29
g693
sg31
S'3 - Middels'
p869
sba(irunmatrix
M3Element
p870
(dp871
g3
Nsg4
S'Lite sannsynlig, Mulig'
p872
sg6
S'gray'
p873
sg8
(lp874
sg10
S'Possible'
p875
sg12
S'Many'
p876
sg14
g78
sg16
I0
sg17
S'Nat'
p877
sg19
S'Naturlig utloest'
p878
sg21
Nsg22
S'300'
p879
sg24
S'1500'
p880
sg26
S'Mange bratte heng'
p881
sg28
Nsg29
g693
sg31
S'3 - Middels'
p882
sba(irunmatrix
M3Element
p883
(dp884
g3
Nsg4
S'Sannsynlig, Meget sannsynlig'
p885
sg6
S'gray'
p886
sg8
(lp887
sg10
S'Likely'
p888
sg12
S'Many'
p889
sg14
g78
sg16
I0
sg17
S'High'
p890
sg19
S'Stor tilleggsbelastning'
p891
sg21
Nsg22
S'300'
p892
sg24
S'1600'
p893
sg26
S'Mange bratte heng'
p894
sg28
Nsg29
g693
sg31
S'3 - Middels'
p895
sba(irunmatrix
M3Element
p896
(dp897
g3
Nsg4
S'Sannsynlig, Meget sannsynlig'
p898
sg6
S'white'
p899
sg8
(lp900
sg10
S'Likely'
p901
sg12
S'Many'
p902
sg14
g581
sg16
I4
sg17
S'Low'
p903
sg19
S'Liten tilleggsbelastning'
p904
sg21
Nsg22
S'300'
p905
sg24
S'1700'
p906
sg26
S'Mange bratte heng'
p907
sg28
Nsg29
g693
sg31
S'3 - Middels'
p908
sba(irunmatrix
M3Element
p909
(dp910
g3
Nsg4
S'Sannsynlig, Meget sannsynlig'
p911
sg6
S'white'
p912
sg8
(lp913
sg10
S'Likely'
p914
sg12
S'Many'
p915
sg14
g581
sg16
I4
sg17
S'Nat'
p916
sg19
S'Naturlig utloest'
p917
sg21
Nsg22
S'300'
p918
sg24
S'1800'
p919
sg26
S'Mange bratte heng'
p920
sg28
Nsg29
g693
sg31
S'3 - Middels'
p921
sba(irunmatrix
M3Element
p922
(dp923
g3
Nsg4
S'Lite sannsynlig, Mulig'
p924
sg6
S'gray'
p925
sg8
(lp926
sg10
S'Possible'
p927
sg12
S'Most'
p928
sg14
g78
sg16
I0
sg17
S'High'
p929
sg19
S'Stor tilleggsbelastning'
p930
sg21
Nsg22
S'300'
p931
sg24
S'1900'
p932
sg26
S'De fleste bratte heng, Ogsaa i mindre bratt terreng'
p933
sg28
Nsg29
g693
sg31
S'3 - Middels'
p934
sba(irunmatrix
M3Element
p935
(dp936
g3
Nsg4
S'Lite sannsynlig, Mulig'
p937
sg6
S'gray'
p938
sg8
(lp939
sg10
S'Possible'
p940
sg12
S'Most'
p941
sg14
g78
sg16
I0
sg17
S'Low'
p942
sg19
S'Liten tilleggsbelastning'
p943
sg21
Nsg22
S'300'
p944
sg24
S'2000'
p945
sg26
S'De fleste bratte heng, Ogsaa i mindre bratt terreng'
p946
sg28
Nsg29
g693
sg31
S'3 - Middels'
p947
sba(irunmatrix
M3Element
p948
(dp949
g3
Nsg4
S'Lite sannsynlig, Mulig'
p950
sg6
S'gray'
p951
sg8
(lp952
sg10
S'Possible'
p953
sg12
S'Most'
p954
sg14
g78
sg16
I0
sg17
S'Nat'
p955
sg19
S'Naturlig utloest'
p956
sg21
Nsg22
S'300'
p957
sg24
S'2100'
p958
sg26
S'De fleste bratte heng, Ogsaa i mindre bratt terreng'
p959
sg28
Nsg29
g693
sg31
S'3 - Middels'
p960
sba(irunmatrix
M3Element
p961
(dp962
g3
Nsg4
S'Sannsynlig, Meget sannsynlig'
p963
sg6
S'gray'
p964
sg8
(lp965
sg10
S'Likely'
p966
sg12
S'Most'
p967
sg14
g78
sg16
I0
sg17
S'High'
p968
sg19
S'Stor tilleggsbelastning'
p969
sg21
Nsg22
S'300'
p970
sg24
S'2200'
p971
sg26
S'De fleste bratte heng, Ogsaa i mindre bratt terreng'
p972
sg28
Nsg29
g693
sg31
S'3 - Middels'
p973
sba(irunmatrix
M3Element
p974
(dp975
g3
Nsg4
S'Sannsynlig, Meget sannsynlig'
p976
sg6
S'gray'
p977
sg8
(lp978
sg10
S'Likely'
p979
sg12
S'Most'
p980
sg14
g78
sg16
I0
sg17
S'Low'
p981
sg19
S'Liten tilleggsbelastning'
p982
sg21
Nsg22
S'300'
p983
sg24
S'2300'
p984
sg26
S'De fleste bratte heng, Ogsaa i mindre bratt terreng'
p985
sg28
Nsg29
g693
sg31
S'3 - Middels'
p986
sba(irunmatrix
M3Element
p987
(dp988
g3
Nsg4
S'Sannsynlig, Meget sannsynlig'
p989
sg6
S'white'
p990
sg8
(lp991
sg10
S'Likely'
p992
sg12
S'Most'
p993
sg14
g78
sg16
I0
sg17
S'Nat'
p994
sg19
S'Naturlig utloest'
p995
sg21
Nsg22
S'300'
p996
sg24
S'2400'
p997
sg26
S'De fleste bratte heng, Ogsaa i mindre bratt terreng'
p998
sg28
Nsg29
g693
sg31
S'3 - Middels'
p999
sba(irunmatrix
M3Element
p1000
(dp1001
g3
Nsg4
S'Lite sannsynlig, Mulig'
p1002
sg6
S'white'
p1003
sg8
(lp1004
sg10
S'Possible'
p1005
sg12
S'Isolated'
p1006
sg14
g250
sg16
I2
sg17
S'High'
p1007
sg19
S'Stor tilleggsbelastning'
p1008
sg21
Nsg22
S'400'
p1009
sg24
S'100'
p1010
sg26
S'Isolerte faresoner'
p1011
sg28
Nsg29
S'4'
p1012
sg31
S'4 - Store'
p1013
sba(irunmatrix
M3Element
p1014
(dp1015
g3
Nsg4
S'Lite sannsynlig, Mulig'
p1016
sg6
S'white'
p1017
sg8
(lp1018
sg10
S'Possible'
p1019
sg12
S'Isolated'
p1020
sg14
g512
sg16
I3
sg17
S'Low'
p1021
sg19
S'Liten tilleggsbelastning'
p1022
sg21
Nsg22
S'400'
p1023
sg24
S'200'
p1024
sg26
S'Isolerte faresoner'
p1025
sg28
Nsg29
g1012
sg31
S'4 - Store'
p1026
sba(irunmatrix
M3Element
p1027
(dp1028
g3
Nsg4
S'Lite sannsynlig, Mulig'
p1029
sg6
S'white'
p1030
sg8
(lp1031
sg10
S'Possible'
p1032
sg12
S'Isolated'
p1033
sg14
g512
sg16
I3
sg17
S'Nat'
p1034
sg19
S'Naturlig utloest'
p1035
sg21
Nsg22
S'400'
p1036
sg24
S'300'
p1037
sg26
S'Isolerte faresoner'
p1038
sg28
Nsg29
g1012
sg31
S'4 - Store'
p1039
sba(irunmatrix
M3Element
p1040
(dp1041
g3
Nsg4
S'Sannsynlig, Meget sannsynlig'
p1042
sg6
S'gray'
p1043
sg8
(lp1044
sg10
S'Likely'
p1045
sg12
S'Isolated'
p1046
sg14
g78
sg16
I0
sg17
S'High'
p1047
sg19
S'Stor tilleggsbelastning'
p1048
sg21
Nsg22
S'400'
p1049
sg24
S'400'
p1050
sg26
S'Isolerte faresoner'
p1051
sg28
Nsg29
g1012
sg31
S'4 - Store'
p1052
sba(irunmatrix
M3Element
p1053
(dp1054
g3
Nsg4
S'Sannsynlig, Meget sannsynlig'
p1055
sg6
S'gray'
p1056
sg8
(lp1057
sg10
S'Likely'
p1058
sg12
S'Isolated'
p1059
sg14
g78
sg16
I0
sg17
S'Low'
p1060
sg19
S'Liten tilleggsbelastning'
p1061
sg21
Nsg22
S'400'
p1062
sg24
S'500'
p1063
sg26
S'Isolerte faresoner'
p1064
sg28
Nsg29
g1012
sg31
S'4 - Store'
p1065
sba(irunmatrix
M3Element
p1066
(dp1067
g3
Nsg4
S'Sannsynlig, Meget sannsynlig'
p1068
sg6
S'gray'
p1069
sg8
(lp1070
sg10
S'Likely'
p1071
sg12
S'Isolated'
p1072
sg14
g78
sg16
I0
sg17
S'Nat'
p1073
sg19
S'Naturlig utloest'
p1074
sg21
Nsg22
S'400'
p1075
sg24
S'600'
p1076
sg26
S'Isolerte faresoner'
p1077
sg28
Nsg29
g1012
sg31
S'4 - Store'
p1078
sba(irunmatrix
M3Element
p1079
(dp1080
g3
Nsg4
S'Lite sannsynlig, Mulig'
p1081
sg6
S'white'
p1082
sg8
(lp1083
sg10
S'Possible'
p1084
sg12
S'Some'
p1085
sg14
g512
sg16
I3
sg17
S'High'
p1086
sg19
S'Stor tilleggsbelastning'
p1087
sg21
Nsg22
S'400'
p1088
sg24
S'700'
p1089
sg26
S'Noen bratte heng'
p1090
sg28
Nsg29
g1012
sg31
S'4 - Store'
p1091
sba(irunmatrix
M3Element
p1092
(dp1093
g3
Nsg4
S'Lite sannsynlig, Mulig'
p1094
sg6
S'white'
p1095
sg8
(lp1096
sg10
S'Possible'
p1097
sg12
S'Some'
p1098
sg14
g581
sg16
I4
sg17
S'Low'
p1099
sg19
S'Liten tilleggsbelastning'
p1100
sg21
Nsg22
S'400'
p1101
sg24
S'800'
p1102
sg26
S'Noen bratte heng'
p1103
sg28
Nsg29
g1012
sg31
S'4 - Store'
p1104
sba(irunmatrix
M3Element
p1105
(dp1106
g3
Nsg4
S'Lite sannsynlig, Mulig'
p1107
sg6
S'white'
p1108
sg8
(lp1109
sg10
S'Possible'
p1110
sg12
S'Some'
p1111
sg14
g581
sg16
I4
sg17
S'Nat'
p1112
sg19
S'Naturlig utloest'
p1113
sg21
Nsg22
S'400'
p1114
sg24
S'900'
p1115
sg26
S'Noen bratte heng'
p1116
sg28
Nsg29
g1012
sg31
S'4 - Store'
p1117
sba(irunmatrix
M3Element
p1118
(dp1119
g3
Nsg4
S'Sannsynlig, Meget sannsynlig'
p1120
sg6
S'gray'
p1121
sg8
(lp1122
sg10
S'Likely'
p1123
sg12
S'Some'
p1124
sg14
g78
sg16
I0
sg17
S'High'
p1125
sg19
S'Stor tilleggsbelastning'
p1126
sg21
Nsg22
S'400'
p1127
sg24
S'1000'
p1128
sg26
S'Noen bratte heng'
p1129
sg28
Nsg29
g1012
sg31
S'4 - Store'
p1130
sba(irunmatrix
M3Element
p1131
(dp1132
g3
Nsg4
S'Sannsynlig, Meget sannsynlig'
p1133
sg6
S'gray'
p1134
sg8
(lp1135
sg10
S'Likely'
p1136
sg12
S'Some'
p1137
sg14
g78
sg16
I0
sg17
S'Low'
p1138
sg19
S'Liten tilleggsbelastning'
p1139
sg21
Nsg22
S'400'
p1140
sg24
S'1100'
p1141
sg26
S'Noen bratte heng'
p1142
sg28
Nsg29
g1012
sg31
S'4 - Store'
p1143
sba(irunmatrix
M3Element
p1144
(dp1145
g3
Nsg4
S'Sannsynlig, Meget sannsynlig'
p1146
sg6
S'white'
p1147
sg8
(lp1148
sg10
S'Likely'
p1149
sg12
S'Some'
p1150
sg14
g581
sg16
I4
sg17
S'Nat'
p1151
sg19
S'Naturlig utloest'
p1152
sg21
Nsg22
S'400'
p1153
sg24
S'1200'
p1154
sg26
S'Noen bratte heng'
p1155
sg28
Nsg29
g1012
sg31
S'4 - Store'
p1156
sba(irunmatrix
M3Element
p1157
(dp1158
g3
Nsg4
S'Lite sannsynlig, Mulig'
p1159
sg6
S'gray'
p1160
sg8
(lp1161
sg10
S'Possible'
p1162
sg12
S'Many'
p1163
sg14
g78
sg16
I0
sg17
S'High'
p1164
sg19
S'Stor tilleggsbelastning'
p1165
sg21
Nsg22
S'400'
p1166
sg24
S'1300'
p1167
sg26
S'Mange bratte heng'
p1168
sg28
Nsg29
g1012
sg31
S'4 - Store'
p1169
sba(irunmatrix
M3Element
p1170
(dp1171
g3
Nsg4
S'Lite sannsynlig, Mulig'
p1172
sg6
S'white'
p1173
sg8
(lp1174
sg10
S'Possible'
p1175
sg12
S'Many'
p1176
sg14
g78
sg16
I0
sg17
S'Low'
p1177
sg19
S'Liten tilleggsbelastning'
p1178
sg21
Nsg22
S'400'
p1179
sg24
S'1400'
p1180
sg26
S'Mange bratte heng'
p1181
sg28
Nsg29
g1012
sg31
S'4 - Store'
p1182
sba(irunmatrix
M3Element
p1183
(dp1184
g3
Nsg4
S'Lite sannsynlig, Mulig'
p1185
sg6
S'gray'
p1186
sg8
(lp1187
sg10
S'Possible'
p1188
sg12
S'Many'
p1189
sg14
g78
sg16
I0
sg17
S'Nat'
p1190
sg19
S'Naturlig utloest'
p1191
sg21
Nsg22
S'400'
p1192
sg24
S'1500'
p1193
sg26
S'Mange bratte heng'
p1194
sg28
Nsg29
g1012
sg31
S'4 - Store'
p1195
sba(irunmatrix
M3Element
p1196
(dp1197
g3
Nsg4
S'Sannsynlig, Meget sannsynlig'
p1198
sg6
S'gray'
p1199
sg8
(lp1200
sg10
S'Likely'
p1201
sg12
S'Many'
p1202
sg14
g78
sg16
I0
sg17
S'High'
p1203
sg19
S'Stor tilleggsbelastning'
p1204
sg21
Nsg22
S'400'
p1205
sg24
S'1600'
p1206
sg26
S'Mange bratte heng'
p1207
sg28
Nsg29
g1012
sg31
S'4 - Store'
p1208
sba(irunmatrix
M3Element
p1209
(dp1210
g3
Nsg4
S'Sannsynlig, Meget sannsynlig'
p1211
sg6
S'white'
p1212
sg8
(lp1213
sg10
S'Likely'
p1214
sg12
S'Many'
p1215
sg14
g78
sg16
I0
sg17
S'Low'
p1216
sg19
S'Liten tilleggsbelastning'
p1217
sg21
Nsg22
S'400'
p1218
sg24
S'1700'
p1219
sg26
S'Mange bratte heng'
p1220
sg28
Nsg29
g1012
sg31
S'4 - Store'
p1221
sba(irunmatrix
M3Element
p1222
(dp1223
g3
Nsg4
S'Sannsynlig, Meget sannsynlig'
p1224
sg6
S'white'
p1225
sg8
(lp1226
sg10
S'Likely'
p1227
sg12
S'Many'
p1228
sg14
S'k'
p1229
sg16
I5
sg17
S'Nat'
p1230
sg19
S'Naturlig utloest'
p1231
sg21
Nsg22
S'400'
p1232
sg24
S'1800'
p1233
sg26
S'Mange bratte heng'
p1234
sg28
Nsg29
g1012
sg31
S'4 - Store'
p1235
sba(irunmatrix
M3Element
p1236
(dp1237
g3
Nsg4
S'Lite sannsynlig, Mulig'
p1238
sg6
S'gray'
p1239
sg8
(lp1240
sg10
S'Possible'
p1241
sg12
S'Most'
p1242
sg14
g78
sg16
I0
sg17
S'High'
p1243
sg19
S'Stor tilleggsbelastning'
p1244
sg21
Nsg22
S'400'
p1245
sg24
S'1900'
p1246
sg26
S'De fleste bratte heng, Ogsaa i mindre bratt terreng'
p1247
sg28
Nsg29
g1012
sg31
S'4 - Store'
p1248
sba(irunmatrix
M3Element
p1249
(dp1250
g3
Nsg4
S'Lite sannsynlig, Mulig'
p1251
sg6
S'gray'
p1252
sg8
(lp1253
sg10
S'Possible'
p1254
sg12
S'Most'
p1255
sg14
g78
sg16
I0
sg17
S'Low'
p1256
sg19
S'Liten tilleggsbelastning'
p1257
sg21
Nsg22
S'400'
p1258
sg24
S'2000'
p1259
sg26
S'De fleste bratte heng, Ogsaa i mindre bratt terreng'
p1260
sg28
Nsg29
g1012
sg31
S'4 - Store'
p1261
sba(irunmatrix
M3Element
p1262
(dp1263
g3
Nsg4
S'Lite sannsynlig, Mulig'
p1264
sg6
S'gray'
p1265
sg8
(lp1266
sg10
S'Possible'
p1267
sg12
S'Most'
p1268
sg14
g78
sg16
I0
sg17
S'Nat'
p1269
sg19
S'Naturlig utloest'
p1270
sg21
Nsg22
S'400'
p1271
sg24
S'2100'
p1272
sg26
S'De fleste bratte heng, Ogsaa i mindre bratt terreng'
p1273
sg28
Nsg29
g1012
sg31
S'4 - Store'
p1274
sba(irunmatrix
M3Element
p1275
(dp1276
g3
Nsg4
S'Sannsynlig, Meget sannsynlig'
p1277
sg6
S'gray'
p1278
sg8
(lp1279
sg10
S'Likely'
p1280
sg12
S'Most'
p1281
sg14
g78
sg16
I0
sg17
S'High'
p1282
sg19
S'Stor tilleggsbelastning'
p1283
sg21
Nsg22
S'400'
p1284
sg24
S'2200'
p1285
sg26
S'De fleste bratte heng, Ogsaa i mindre bratt terreng'
p1286
sg28
Nsg29
g1012
sg31
S'4 - Store'
p1287
sba(irunmatrix
M3Element
p1288
(dp1289
g3
Nsg4
S'Sannsynlig, Meget sannsynlig'
p1290
sg6
S'gray'
p1291
sg8
(lp1292
sg10
S'Likely'
p1293
sg12
S'Most'
p1294
sg14
g78
sg16
I0
sg17
S'Low'
p1295
sg19
S'Liten tilleggsbelastning'
p1296
sg21
Nsg22
S'400'
p1297
sg24
S'2300'
p1298
sg26
S'De fleste bratte heng, Ogsaa i mindre bratt terreng'
p1299
sg28
Nsg29
g1012
sg31
S'4 - Store'
p1300
sba(irunmatrix
M3Element
p1301
(dp1302
g3
Nsg4
S'Sannsynlig, Meget sannsynlig'
p1303
sg6
S'white'
p1304
sg8
(lp1305
sg10
S'Likely'
p1306
sg12
S'Most'
p1307
sg14
g78
sg16
I0
sg17
S'Nat'
p1308
sg19
S'Naturlig utloest'
p1309
sg21
Nsg22
S'400'
p1310
sg24
S'2400'
p1311
sg26
S'De fleste bratte heng, Ogsaa i mindre bratt terreng'
p1312
sg28
Nsg29
g1012
sg31
S'4 - Store'
p1313
sba(irunmatrix
M3Element
p1314
(dp1315
g3
Nsg4
S'Lite sannsynlig, Mulig'
p1316
sg6
S'white'
p1317
sg8
(lp1318
sg10
S'Possible'
p1319
sg12
S'Isolated'
p1320
sg14
g78
sg16
I0
sg17
S'High'
p1321
sg19
S'Stor tilleggsbelastning'
p1322
sg21
Nsg22
S'500'
p1323
sg24
S'100'
p1324
sg26
S'Isolerte faresoner'
p1325
sg28
Nsg29
S'5'
p1326
sg31
S'5 - Svaert store'
p1327
sba(irunmatrix
M3Element
p1328
(dp1329
g3
Nsg4
S'Lite sannsynlig, Mulig'
p1330
sg6
S'white'
p1331
sg8
(lp1332
sg10
S'Possible'
p1333
sg12
S'Isolated'
p1334
sg14
g78
sg16
I0
sg17
S'Low'
p1335
sg19
S'Liten tilleggsbelastning'
p1336
sg21
Nsg22
S'500'
p1337
sg24
S'200'
p1338
sg26
S'Isolerte faresoner'
p1339
sg28
Nsg29
g1326
sg31
S'5 - Svaert store'
p1340
sba(irunmatrix
M3Element
p1341
(dp1342
g3
Nsg4
S'Lite sannsynlig, Mulig'
p1343
sg6
S'white'
p1344
sg8
(lp1345
sg10
S'Possible'
p1346
sg12
S'Isolated'
p1347
sg14
g78
sg16
I0
sg17
S'Nat'
p1348
sg19
S'Naturlig utloest'
p1349
sg21
Nsg22
S'500'
p1350
sg24
S'300'
p1351
sg26
S'Isolerte faresoner'
p1352
sg28
Nsg29
g1326
sg31
S'5 - Svaert store'
p1353
sba(irunmatrix
M3Element
p1354
(dp1355
g3
Nsg4
S'Sannsynlig, Meget sannsynlig'
p1356
sg6
S'gray'
p1357
sg8
(lp1358
sg10
S'Likely'
p1359
sg12
S'Isolated'
p1360
sg14
g78
sg16
I0
sg17
S'High'
p1361
sg19
S'Stor tilleggsbelastning'
p1362
sg21
Nsg22
S'500'
p1363
sg24
S'400'
p1364
sg26
S'Isolerte faresoner'
p1365
sg28
Nsg29
g1326
sg31
S'5 - Svaert store'
p1366
sba(irunmatrix
M3Element
p1367
(dp1368
g3
Nsg4
S'Sannsynlig, Meget sannsynlig'
p1369
sg6
S'gray'
p1370
sg8
(lp1371
sg10
S'Likely'
p1372
sg12
S'Isolated'
p1373
sg14
g78
sg16
I0
sg17
S'Low'
p1374
sg19
S'Liten tilleggsbelastning'
p1375
sg21
Nsg22
S'500'
p1376
sg24
S'500'
p1377
sg26
S'Isolerte faresoner'
p1378
sg28
Nsg29
g1326
sg31
S'5 - Svaert store'
p1379
sba(irunmatrix
M3Element
p1380
(dp1381
g3
Nsg4
S'Sannsynlig, Meget sannsynlig'
p1382
sg6
S'gray'
p1383
sg8
(lp1384
sg10
S'Likely'
p1385
sg12
S'Isolated'
p1386
sg14
g78
sg16
I0
sg17
S'Nat'
p1387
sg19
S'Naturlig utloest'
p1388
sg21
Nsg22
S'500'
p1389
sg24
S'600'
p1390
sg26
S'Isolerte faresoner'
p1391
sg28
Nsg29
g1326
sg31
S'5 - Svaert store'
p1392
sba(irunmatrix
M3Element
p1393
(dp1394
g3
Nsg4
S'Lite sannsynlig, Mulig'
p1395
sg6
S'white'
p1396
sg8
(lp1397
sg10
S'Possible'
p1398
sg12
S'Some'
p1399
sg14
g78
sg16
I0
sg17
S'High'
p1400
sg19
S'Stor tilleggsbelastning'
p1401
sg21
Nsg22
S'500'
p1402
sg24
S'700'
p1403
sg26
S'Noen bratte heng'
p1404
sg28
Nsg29
g1326
sg31
S'5 - Svaert store'
p1405
sba(irunmatrix
M3Element
p1406
(dp1407
g3
Nsg4
S'Lite sannsynlig, Mulig'
p1408
sg6
S'white'
p1409
sg8
(lp1410
sg10
S'Possible'
p1411
sg12
S'Some'
p1412
sg14
g78
sg16
I0
sg17
S'Low'
p1413
sg19
S'Liten tilleggsbelastning'
p1414
sg21
Nsg22
S'500'
p1415
sg24
S'800'
p1416
sg26
S'Noen bratte heng'
p1417
sg28
Nsg29
g1326
sg31
S'5 - Svaert store'
p1418
sba(irunmatrix
M3Element
p1419
(dp1420
g3
Nsg4
S'Lite sannsynlig, Mulig'
p1421
sg6
S'white'
p1422
sg8
(lp1423
sg10
S'Possible'
p1424
sg12
S'Some'
p1425
sg14
g78
sg16
I0
sg17
S'Nat'
p1426
sg19
S'Naturlig utloest'
p1427
sg21
Nsg22
S'500'
p1428
sg24
S'900'
p1429
sg26
S'Noen bratte heng'
p1430
sg28
Nsg29
g1326
sg31
S'5 - Svaert store'
p1431
sba(irunmatrix
M3Element
p1432
(dp1433
g3
Nsg4
S'Sannsynlig, Meget sannsynlig'
p1434
sg6
S'gray'
p1435
sg8
(lp1436
sg10
S'Likely'
p1437
sg12
S'Some'
p1438
sg14
g78
sg16
I0
sg17
S'High'
p1439
sg19
S'Stor tilleggsbelastning'
p1440
sg21
Nsg22
S'500'
p1441
sg24
S'1000'
p1442
sg26
S'Noen bratte heng'
p1443
sg28
Nsg29
g1326
sg31
S'5 - Svaert store'
p1444
sba(irunmatrix
M3Element
p1445
(dp1446
g3
Nsg4
S'Sannsynlig, Meget sannsynlig'
p1447
sg6
S'gray'
p1448
sg8
(lp1449
sg10
S'Likely'
p1450
sg12
S'Some'
p1451
sg14
g78
sg16
I0
sg17
S'Low'
p1452
sg19
S'Liten tilleggsbelastning'
p1453
sg21
Nsg22
S'500'
p1454
sg24
S'1100'
p1455
sg26
S'Noen bratte heng'
p1456
sg28
Nsg29
g1326
sg31
S'5 - Svaert store'
p1457
sba(irunmatrix
M3Element
p1458
(dp1459
g3
Nsg4
S'Sannsynlig, Meget sannsynlig'
p1460
sg6
S'white'
p1461
sg8
(lp1462
sg10
S'Likely'
p1463
sg12
S'Some'
p1464
sg14
g78
sg16
I0
sg17
S'Nat'
p1465
sg19
S'Naturlig utloest'
p1466
sg21
Nsg22
S'500'
p1467
sg24
S'1200'
p1468
sg26
S'Noen bratte heng'
p1469
sg28
Nsg29
g1326
sg31
S'5 - Svaert store'
p1470
sba(irunmatrix
M3Element
p1471
(dp1472
g3
Nsg4
S'Lite sannsynlig, Mulig'
p1473
sg6
S'gray'
p1474
sg8
(lp1475
sg10
S'Possible'
p1476
sg12
S'Many'
p1477
sg14
g78
sg16
I0
sg17
S'High'
p1478
sg19
S'Stor tilleggsbelastning'
p1479
sg21
Nsg22
S'500'
p1480
sg24
S'1300'
p1481
sg26
S'Mange bratte heng'
p1482
sg28
Nsg29
g1326
sg31
S'5 - Svaert store'
p1483
sba(irunmatrix
M3Element
p1484
(dp1485
g3
Nsg4
S'Lite sannsynlig, Mulig'
p1486
sg6
S'white'
p1487
sg8
(lp1488
sg10
S'Possible'
p1489
sg12
S'Many'
p1490
sg14
g78
sg16
I0
sg17
S'Low'
p1491
sg19
S'Liten tilleggsbelastning'
p1492
sg21
Nsg22
S'500'
p1493
sg24
S'1400'
p1494
sg26
S'Mange bratte heng'
p1495
sg28
Nsg29
g1326
sg31
S'5 - Svaert store'
p1496
sba(irunmatrix
M3Element
p1497
(dp1498
g3
Nsg4
S'Lite sannsynlig, Mulig'
p1499
sg6
S'gray'
p1500
sg8
(lp1501
sg10
S'Possible'
p1502
sg12
S'Many'
p1503
sg14
g78
sg16
I0
sg17
S'Nat'
p1504
sg19
S'Naturlig utloest'
p1505
sg21
Nsg22
S'500'
p1506
sg24
S'1500'
p1507
sg26
S'Mange bratte heng'
p1508
sg28
Nsg29
g1326
sg31
S'5 - Svaert store'
p1509
sba(irunmatrix
M3Element
p1510
(dp1511
g3
Nsg4
S'Sannsynlig, Meget sannsynlig'
p1512
sg6
S'gray'
p1513
sg8
(lp1514
sg10
S'Likely'
p1515
sg12
S'Many'
p1516
sg14
g78
sg16
I0
sg17
S'High'
p1517
sg19
S'Stor tilleggsbelastning'
p1518
sg21
Nsg22
S'500'
p1519
sg24
S'1600'
p1520
sg26
S'Mange bratte heng'
p1521
sg28
Nsg29
g1326
sg31
S'5 - Svaert store'
p1522
sba(irunmatrix
M3Element
p1523
(dp1524
g3
Nsg4
S'Sannsynlig, Meget sannsynlig'
p1525
sg6
S'white'
p1526
sg8
(lp1527
sg10
S'Likely'
p1528
sg12
S'Many'
p1529
sg14
g78
sg16
I0
sg17
S'Low'
p1530
sg19
S'Liten tilleggsbelastning'
p1531
sg21
Nsg22
S'500'
p1532
sg24
S'1700'
p1533
sg26
S'Mange bratte heng'
p1534
sg28
Nsg29
g1326
sg31
S'5 - Svaert store'
p1535
sba(irunmatrix
M3Element
p1536
(dp1537
g3
Nsg4
S'Sannsynlig, Meget sannsynlig'
p1538
sg6
S'white'
p1539
sg8
(lp1540
sg10
S'Likely'
p1541
sg12
S'Many'
p1542
sg14
g1229
sg16
I5
sg17
S'Nat'
p1543
sg19
S'Naturlig utloest'
p1544
sg21
Nsg22
S'500'
p1545
sg24
S'1800'
p1546
sg26
S'Mange bratte heng'
p1547
sg28
Nsg29
g1326
sg31
S'5 - Svaert store'
p1548
sba(irunmatrix
M3Element
p1549
(dp1550
g3
Nsg4
S'Lite sannsynlig, Mulig'
p1551
sg6
S'gray'
p1552
sg8
(lp1553
sg10
S'Possible'
p1554
sg12
S'Most'
p1555
sg14
g78
sg16
I0
sg17
S'High'
p1556
sg19
S'Stor tilleggsbelastning'
p1557
sg21
Nsg22
S'500'
p1558
sg24
S'1900'
p1559
sg26
S'De fleste bratte heng, Ogsaa i mindre bratt terreng'
p1560
sg28
Nsg29
g1326
sg31
S'5 - Svaert store'
p1561
sba(irunmatrix
M3Element
p1562
(dp1563
g3
Nsg4
S'Lite sannsynlig, Mulig'
p1564
sg6
S'gray'
p1565
sg8
(lp1566
sg10
S'Possible'
p1567
sg12
S'Most'
p1568
sg14
g78
sg16
I0
sg17
S'Low'
p1569
sg19
S'Liten tilleggsbelastning'
p1570
sg21
Nsg22
S'500'
p1571
sg24
S'2000'
p1572
sg26
S'De fleste bratte heng, Ogsaa i mindre bratt terreng'
p1573
sg28
Nsg29
g1326
sg31
S'5 - Svaert store'
p1574
sba(irunmatrix
M3Element
p1575
(dp1576
g3
Nsg4
S'Lite sannsynlig, Mulig'
p1577
sg6
S'gray'
p1578
sg8
(lp1579
sg10
S'Possible'
p1580
sg12
S'Most'
p1581
sg14
g78
sg16
I0
sg17
S'Nat'
p1582
sg19
S'Naturlig utloest'
p1583
sg21
Nsg22
S'500'
p1584
sg24
S'2100'
p1585
sg26
S'De fleste bratte heng, Ogsaa i mindre bratt terreng'
p1586
sg28
Nsg29
g1326
sg31
S'5 - Svaert store'
p1587
sba(irunmatrix
M3Element
p1588
(dp1589
g3
Nsg4
S'Sannsynlig, Meget sannsynlig'
p1590
sg6
S'gray'
p1591
sg8
(lp1592
sg10
S'Likely'
p1593
sg12
S'Most'
p1594
sg14
g78
sg16
I0
sg17
S'High'
p1595
sg19
S'Stor tilleggsbelastning'
p1596
sg21
Nsg22
S'500'
p1597
sg24
S'2200'
p1598
sg26
S'De fleste bratte heng, Ogsaa i mindre bratt terreng'
p1599
sg28
Nsg29
g1326
sg31
S'5 - Svaert store'
p1600
sba(irunmatrix
M3Element
p1601
(dp1602
g3
Nsg4
S'Sannsynlig, Meget sannsynlig'
p1603
sg6
S'gray'
p1604
sg8
(lp1605
sg10
S'Likely'
p1606
sg12
S'Most'
p1607
sg14
g78
sg16
I0
sg17
S'Low'
p1608
sg19
S'Liten tilleggsbelastning'
p1609
sg21
Nsg22
S'500'
p1610
sg24
S'2300'
p1611
sg26
S'De fleste bratte heng, Ogsaa i mindre bratt terreng'
p1612
sg28
Nsg29
g1326
sg31
S'5 - Svaert store'
p1613
sba(irunmatrix
M3Element
p1614
(dp1615
g3
Nsg4
S'Sannsynlig, Meget sannsynlig'
p1616
sg6
S'white'
p1617
sg8
(lp1618
sg10
S'Likely'
p1619
sg12
S'Most'
p1620
sg14
g78
sg16
I0
sg17
S'Nat'
p1621
sg19
S'Naturlig utloest'
p1622
sg21
Nsg22
S'500'
p1623
sg24
S'2400'
p1624
sg26
S'De fleste bratte heng, Ogsaa i mindre bratt terreng'
p1625
sg28
Nsg29
g1326
sg31
S'5 - Svaert store'
p1626
sba.