(lp0
(irunmatrix
M3Element
p1
(dp2
S'danger_level_average'
p3
NsS'probability'
p4
S'Lite sannsynlig, Mulig'
p5
sS'colour'
p6
S'white'
p7
sS'danger_level_list'
p8
(lp9
sS'label_probalility'
p10
S'Possible'
p11
sS'label_distribution'
p12
S'Isolated'
p13
sS'recomended_colour'
p14
S'#ccff66'
p15
sS'recomended_danger_level'
p16
I1
sS'label_trigger'
p17
S'High'
p18
sS'trigger'
p19
S'Stor tilleggsbelastning'
p20
sS'occurrences'
p21
NsS'y'
p22
S'100'
p23
sS'x'
p24
S'100'
p25
sS'distribution'
p26
S'Isolerte faresoner'
p27
sS'danger_level_standard_dev'
p28
NsS'label_size'
p29
S'1'
p30
sS'avalanche_size'
p31
S'1 - Harmloest'
p32
sba(irunmatrix
M3Element
p33
(dp34
g3
F1.0
sg4
S'Lite sannsynlig, Mulig'
p35
sg6
S'#ccff66'
p36
sg8
(lp37
I1
aI1
aI1
aI1
asg10
S'Possible'
p38
sg12
S'Isolated'
p39
sg14
g15
sg16
I1
sg17
S'Low'
p40
sg19
S'Liten tilleggsbelastning'
p41
sg21
I4
sg22
S'100'
p42
sg24
S'200'
p43
sg26
S'Isolerte faresoner'
p44
sg28
cnumpy.core.multiarray
scalar
p45
(cnumpy
dtype
p46
(S'f8'
p47
I0
I1
tp48
Rp49
(I3
S'<'
p50
NNNI-1
I-1
I0
tp51
bS'\x00\x00\x00\x00\x00\x00\x00\x00'
p52
tp53
Rp54
sg29
g30
sg31
S'1 - Harmloest'
p55
sba(irunmatrix
M3Element
p56
(dp57
g3
Nsg4
S'Lite sannsynlig, Mulig'
p58
sg6
S'white'
p59
sg8
(lp60
sg10
S'Possible'
p61
sg12
S'Isolated'
p62
sg14
g15
sg16
I1
sg17
S'Nat'
p63
sg19
S'Naturlig utloest'
p64
sg21
Nsg22
S'100'
p65
sg24
S'300'
p66
sg26
S'Isolerte faresoner'
p67
sg28
Nsg29
g30
sg31
S'1 - Harmloest'
p68
sba(irunmatrix
M3Element
p69
(dp70
g3
Nsg4
S'Sannsynlig, Meget sannsynlig'
p71
sg6
S'gray'
p72
sg8
(lp73
sg10
S'Likely'
p74
sg12
S'Isolated'
p75
sg14
S'gray'
p76
sg16
I0
sg17
S'High'
p77
sg19
S'Stor tilleggsbelastning'
p78
sg21
Nsg22
S'100'
p79
sg24
S'400'
p80
sg26
S'Isolerte faresoner'
p81
sg28
Nsg29
g30
sg31
S'1 - Harmloest'
p82
sba(irunmatrix
M3Element
p83
(dp84
g3
Nsg4
S'Sannsynlig, Meget sannsynlig'
p85
sg6
S'gray'
p86
sg8
(lp87
sg10
S'Likely'
p88
sg12
S'Isolated'
p89
sg14
g76
sg16
I0
sg17
S'Low'
p90
sg19
S'Liten tilleggsbelastning'
p91
sg21
Nsg22
S'100'
p92
sg24
S'500'
p93
sg26
S'Isolerte faresoner'
p94
sg28
Nsg29
g30
sg31
S'1 - Harmloest'
p95
sba(irunmatrix
M3Element
p96
(dp97
g3
Nsg4
S'Sannsynlig, Meget sannsynlig'
p98
sg6
S'gray'
p99
sg8
(lp100
sg10
S'Likely'
p101
sg12
S'Isolated'
p102
sg14
g76
sg16
I0
sg17
S'Nat'
p103
sg19
S'Naturlig utloest'
p104
sg21
Nsg22
S'100'
p105
sg24
S'600'
p106
sg26
S'Isolerte faresoner'
p107
sg28
Nsg29
g30
sg31
S'1 - Harmloest'
p108
sba(irunmatrix
M3Element
p109
(dp110
g3
Nsg4
S'Lite sannsynlig, Mulig'
p111
sg6
S'white'
p112
sg8
(lp113
sg10
S'Possible'
p114
sg12
S'Some'
p115
sg14
g15
sg16
I1
sg17
S'High'
p116
sg19
S'Stor tilleggsbelastning'
p117
sg21
Nsg22
S'100'
p118
sg24
S'700'
p119
sg26
S'Noen bratte heng'
p120
sg28
Nsg29
g30
sg31
S'1 - Harmloest'
p121
sba(irunmatrix
M3Element
p122
(dp123
g3
Nsg4
S'Lite sannsynlig, Mulig'
p124
sg6
S'white'
p125
sg8
(lp126
sg10
S'Possible'
p127
sg12
S'Some'
p128
sg14
g15
sg16
I1
sg17
S'Low'
p129
sg19
S'Liten tilleggsbelastning'
p130
sg21
Nsg22
S'100'
p131
sg24
S'800'
p132
sg26
S'Noen bratte heng'
p133
sg28
Nsg29
g30
sg31
S'1 - Harmloest'
p134
sba(irunmatrix
M3Element
p135
(dp136
g3
F1.0
sg4
S'Lite sannsynlig, Mulig'
p137
sg6
g36
sg8
(lp138
I1
aI1
aI1
asg10
S'Possible'
p139
sg12
S'Some'
p140
sg14
g15
sg16
I1
sg17
S'Nat'
p141
sg19
S'Naturlig utloest'
p142
sg21
I3
sg22
S'100'
p143
sg24
S'900'
p144
sg26
S'Noen bratte heng'
p145
sg28
g45
(g49
S'\x00\x00\x00\x00\x00\x00\x00\x00'
p146
tp147
Rp148
sg29
g30
sg31
S'1 - Harmloest'
p149
sba(irunmatrix
M3Element
p150
(dp151
g3
Nsg4
S'Sannsynlig, Meget sannsynlig'
p152
sg6
S'gray'
p153
sg8
(lp154
sg10
S'Likely'
p155
sg12
S'Some'
p156
sg14
g76
sg16
I0
sg17
S'High'
p157
sg19
S'Stor tilleggsbelastning'
p158
sg21
Nsg22
S'100'
p159
sg24
S'1000'
p160
sg26
S'Noen bratte heng'
p161
sg28
Nsg29
g30
sg31
S'1 - Harmloest'
p162
sba(irunmatrix
M3Element
p163
(dp164
g3
Nsg4
S'Sannsynlig, Meget sannsynlig'
p165
sg6
S'gray'
p166
sg8
(lp167
sg10
S'Likely'
p168
sg12
S'Some'
p169
sg14
g76
sg16
I0
sg17
S'Low'
p170
sg19
S'Liten tilleggsbelastning'
p171
sg21
Nsg22
S'100'
p172
sg24
S'1100'
p173
sg26
S'Noen bratte heng'
p174
sg28
Nsg29
g30
sg31
S'1 - Harmloest'
p175
sba(irunmatrix
M3Element
p176
(dp177
g3
Nsg4
S'Sannsynlig, Meget sannsynlig'
p178
sg6
S'white'
p179
sg8
(lp180
sg10
S'Likely'
p181
sg12
S'Some'
p182
sg14
g15
sg16
I1
sg17
S'Nat'
p183
sg19
S'Naturlig utloest'
p184
sg21
Nsg22
S'100'
p185
sg24
S'1200'
p186
sg26
S'Noen bratte heng'
p187
sg28
Nsg29
g30
sg31
S'1 - Harmloest'
p188
sba(irunmatrix
M3Element
p189
(dp190
g3
Nsg4
S'Lite sannsynlig, Mulig'
p191
sg6
S'gray'
p192
sg8
(lp193
sg10
S'Possible'
p194
sg12
S'Many'
p195
sg14
g76
sg16
I0
sg17
S'High'
p196
sg19
S'Stor tilleggsbelastning'
p197
sg21
Nsg22
S'100'
p198
sg24
S'1300'
p199
sg26
S'Mange bratte heng'
p200
sg28
Nsg29
g30
sg31
S'1 - Harmloest'
p201
sba(irunmatrix
M3Element
p202
(dp203
g3
Nsg4
S'Lite sannsynlig, Mulig'
p204
sg6
S'white'
p205
sg8
(lp206
sg10
S'Possible'
p207
sg12
S'Many'
p208
sg14
g15
sg16
I1
sg17
S'Low'
p209
sg19
S'Liten tilleggsbelastning'
p210
sg21
Nsg22
S'100'
p211
sg24
S'1400'
p212
sg26
S'Mange bratte heng'
p213
sg28
Nsg29
g30
sg31
S'1 - Harmloest'
p214
sba(irunmatrix
M3Element
p215
(dp216
g3
Nsg4
S'Lite sannsynlig, Mulig'
p217
sg6
S'gray'
p218
sg8
(lp219
sg10
S'Possible'
p220
sg12
S'Many'
p221
sg14
g76
sg16
I0
sg17
S'Nat'
p222
sg19
S'Naturlig utloest'
p223
sg21
Nsg22
S'100'
p224
sg24
S'1500'
p225
sg26
S'Mange bratte heng'
p226
sg28
Nsg29
g30
sg31
S'1 - Harmloest'
p227
sba(irunmatrix
M3Element
p228
(dp229
g3
Nsg4
S'Sannsynlig, Meget sannsynlig'
p230
sg6
S'gray'
p231
sg8
(lp232
sg10
S'Likely'
p233
sg12
S'Many'
p234
sg14
g76
sg16
I0
sg17
S'High'
p235
sg19
S'Stor tilleggsbelastning'
p236
sg21
Nsg22
S'100'
p237
sg24
S'1600'
p238
sg26
S'Mange bratte heng'
p239
sg28
Nsg29
g30
sg31
S'1 - Harmloest'
p240
sba(irunmatrix
M3Element
p241
(dp242
g3
Nsg4
S'Sannsynlig, Meget sannsynlig'
p243
sg6
S'white'
p244
sg8
(lp245
sg10
S'Likely'
p246
sg12
S'Many'
p247
sg14
S'#ffff00'
p248
sg16
I2
sg17
S'Low'
p249
sg19
S'Liten tilleggsbelastning'
p250
sg21
Nsg22
S'100'
p251
sg24
S'1700'
p252
sg26
S'Mange bratte heng'
p253
sg28
Nsg29
g30
sg31
S'1 - Harmloest'
p254
sba(irunmatrix
M3Element
p255
(dp256
g3
Nsg4
S'Sannsynlig, Meget sannsynlig'
p257
sg6
S'white'
p258
sg8
(lp259
sg10
S'Likely'
p260
sg12
S'Many'
p261
sg14
g248
sg16
I2
sg17
S'Nat'
p262
sg19
S'Naturlig utloest'
p263
sg21
Nsg22
S'100'
p264
sg24
S'1800'
p265
sg26
S'Mange bratte heng'
p266
sg28
Nsg29
g30
sg31
S'1 - Harmloest'
p267
sba(irunmatrix
M3Element
p268
(dp269
g3
Nsg4
S'Lite sannsynlig, Mulig'
p270
sg6
S'gray'
p271
sg8
(lp272
sg10
S'Possible'
p273
sg12
S'Most'
p274
sg14
g76
sg16
I0
sg17
S'High'
p275
sg19
S'Stor tilleggsbelastning'
p276
sg21
Nsg22
S'100'
p277
sg24
S'1900'
p278
sg26
S'De fleste bratte heng, Ogsaa i mindre bratt terreng'
p279
sg28
Nsg29
g30
sg31
S'1 - Harmloest'
p280
sba(irunmatrix
M3Element
p281
(dp282
g3
Nsg4
S'Lite sannsynlig, Mulig'
p283
sg6
S'gray'
p284
sg8
(lp285
sg10
S'Possible'
p286
sg12
S'Most'
p287
sg14
g76
sg16
I0
sg17
S'Low'
p288
sg19
S'Liten tilleggsbelastning'
p289
sg21
Nsg22
S'100'
p290
sg24
S'2000'
p291
sg26
S'De fleste bratte heng, Ogsaa i mindre bratt terreng'
p292
sg28
Nsg29
g30
sg31
S'1 - Harmloest'
p293
sba(irunmatrix
M3Element
p294
(dp295
g3
Nsg4
S'Lite sannsynlig, Mulig'
p296
sg6
S'gray'
p297
sg8
(lp298
sg10
S'Possible'
p299
sg12
S'Most'
p300
sg14
g76
sg16
I0
sg17
S'Nat'
p301
sg19
S'Naturlig utloest'
p302
sg21
Nsg22
S'100'
p303
sg24
S'2100'
p304
sg26
S'De fleste bratte heng, Ogsaa i mindre bratt terreng'
p305
sg28
Nsg29
g30
sg31
S'1 - Harmloest'
p306
sba(irunmatrix
M3Element
p307
(dp308
g3
Nsg4
S'Sannsynlig, Meget sannsynlig'
p309
sg6
S'gray'
p310
sg8
(lp311
sg10
S'Likely'
p312
sg12
S'Most'
p313
sg14
g76
sg16
I0
sg17
S'High'
p314
sg19
S'Stor tilleggsbelastning'
p315
sg21
Nsg22
S'100'
p316
sg24
S'2200'
p317
sg26
S'De fleste bratte heng, Ogsaa i mindre bratt terreng'
p318
sg28
Nsg29
g30
sg31
S'1 - Harmloest'
p319
sba(irunmatrix
M3Element
p320
(dp321
g3
Nsg4
S'Sannsynlig, Meget sannsynlig'
p322
sg6
S'gray'
p323
sg8
(lp324
sg10
S'Likely'
p325
sg12
S'Most'
p326
sg14
g76
sg16
I0
sg17
S'Low'
p327
sg19
S'Liten tilleggsbelastning'
p328
sg21
Nsg22
S'100'
p329
sg24
S'2300'
p330
sg26
S'De fleste bratte heng, Ogsaa i mindre bratt terreng'
p331
sg28
Nsg29
g30
sg31
S'1 - Harmloest'
p332
sba(irunmatrix
M3Element
p333
(dp334
g3
Nsg4
S'Sannsynlig, Meget sannsynlig'
p335
sg6
S'white'
p336
sg8
(lp337
sg10
S'Likely'
p338
sg12
S'Most'
p339
sg14
g76
sg16
I0
sg17
S'Nat'
p340
sg19
S'Naturlig utloest'
p341
sg21
Nsg22
S'100'
p342
sg24
S'2400'
p343
sg26
S'De fleste bratte heng, Ogsaa i mindre bratt terreng'
p344
sg28
Nsg29
S'2'
p345
sg31
S'1 - Harmloest'
p346
sba(irunmatrix
M3Element
p347
(dp348
g3
F1.0
sg4
S'Lite sannsynlig, Mulig'
p349
sg6
g36
sg8
(lp350
I1
aI1
asg10
S'Possible'
p351
sg12
S'Isolated'
p352
sg14
g15
sg16
I1
sg17
S'High'
p353
sg19
S'Stor tilleggsbelastning'
p354
sg21
I2
sg22
S'200'
p355
sg24
S'100'
p356
sg26
S'Isolerte faresoner'
p357
sg28
g45
(g49
S'\x00\x00\x00\x00\x00\x00\x00\x00'
p358
tp359
Rp360
sg29
g345
sg31
S'2 - Smaa'
p361
sba(irunmatrix
M3Element
p362
(dp363
g3
F1.0526315789473684
sg4
S'Lite sannsynlig, Mulig'
p364
sg6
g36
sg8
(lp365
I1
aI2
aI1
aI1
aI1
aI1
aI1
aI1
aI1
aI1
aI1
aI1
aI1
aI1
aI1
aI1
aI1
aI1
aI1
asg10
S'Possible'
p366
sg12
S'Isolated'
p367
sg14
g15
sg16
I1
sg17
S'Low'
p368
sg19
S'Liten tilleggsbelastning'
p369
sg21
I19
sg22
S'200'
p370
sg24
S'200'
p371
sg26
S'Isolerte faresoner'
p372
sg28
g45
(g49
S'\xd9\xa9\xbb\xfa\xfd\x94\xcc?'
p373
tp374
Rp375
sg29
g345
sg31
S'2 - Smaa'
p376
sba(irunmatrix
M3Element
p377
(dp378
g3
F1.0
sg4
S'Lite sannsynlig, Mulig'
p379
sg6
g36
sg8
(lp380
I1
aI1
asg10
S'Possible'
p381
sg12
S'Isolated'
p382
sg14
g15
sg16
I1
sg17
S'Nat'
p383
sg19
S'Naturlig utloest'
p384
sg21
I2
sg22
S'200'
p385
sg24
S'300'
p386
sg26
S'Isolerte faresoner'
p387
sg28
g45
(g49
S'\x00\x00\x00\x00\x00\x00\x00\x00'
p388
tp389
Rp390
sg29
g345
sg31
S'2 - Smaa'
p391
sba(irunmatrix
M3Element
p392
(dp393
g3
Nsg4
S'Sannsynlig, Meget sannsynlig'
p394
sg6
S'gray'
p395
sg8
(lp396
sg10
S'Likely'
p397
sg12
S'Isolated'
p398
sg14
g76
sg16
I0
sg17
S'High'
p399
sg19
S'Stor tilleggsbelastning'
p400
sg21
Nsg22
S'200'
p401
sg24
S'400'
p402
sg26
S'Isolerte faresoner'
p403
sg28
Nsg29
g345
sg31
S'2 - Smaa'
p404
sba(irunmatrix
M3Element
p405
(dp406
g3
Nsg4
S'Sannsynlig, Meget sannsynlig'
p407
sg6
S'gray'
p408
sg8
(lp409
sg10
S'Likely'
p410
sg12
S'Isolated'
p411
sg14
g76
sg16
I0
sg17
S'Low'
p412
sg19
S'Liten tilleggsbelastning'
p413
sg21
Nsg22
S'200'
p414
sg24
S'500'
p415
sg26
S'Isolerte faresoner'
p416
sg28
Nsg29
g345
sg31
S'2 - Smaa'
p417
sba(irunmatrix
M3Element
p418
(dp419
g3
Nsg4
S'Sannsynlig, Meget sannsynlig'
p420
sg6
S'gray'
p421
sg8
(lp422
sg10
S'Likely'
p423
sg12
S'Isolated'
p424
sg14
g76
sg16
I0
sg17
S'Nat'
p425
sg19
S'Naturlig utloest'
p426
sg21
Nsg22
S'200'
p427
sg24
S'600'
p428
sg26
S'Isolerte faresoner'
p429
sg28
Nsg29
g345
sg31
S'2 - Smaa'
p430
sba(irunmatrix
M3Element
p431
(dp432
g3
F2.0
sg4
S'Lite sannsynlig, Mulig'
p433
sg6
S'#ffff00'
p434
sg8
(lp435
I2
aI2
aI2
aI2
aI2
aI2
aI2
aI2
aI2
aI2
aI2
aI2
asg10
S'Possible'
p436
sg12
S'Some'
p437
sg14
g248
sg16
I2
sg17
S'High'
p438
sg19
S'Stor tilleggsbelastning'
p439
sg21
I12
sg22
S'200'
p440
sg24
S'700'
p441
sg26
S'Noen bratte heng'
p442
sg28
g45
(g49
S'\x00\x00\x00\x00\x00\x00\x00\x00'
p443
tp444
Rp445
sg29
g345
sg31
S'2 - Smaa'
p446
sba(irunmatrix
M3Element
p447
(dp448
g3
F2.0080645161290325
sg4
S'Lite sannsynlig, Mulig'
p449
sg6
g434
sg8
(lp450
I2
aI2
aI2
aI2
aI2
aI2
aI2
aI2
aI2
aI2
aI2
aI2
aI2
aI2
aI2
aI2
aI2
aI2
aI2
aI2
aI2
aI2
aI2
aI2
aI2
aI2
aI3
aI2
aI2
aI2
aI2
aI2
aI2
aI2
aI2
aI2
aI2
aI2
aI2
aI2
aI2
aI2
aI2
aI2
aI2
aI2
aI2
aI2
aI2
aI2
aI2
aI2
aI2
aI2
aI2
aI2
aI2
aI2
aI2
aI2
aI2
aI2
aI2
aI2
aI2
aI2
aI2
aI2
aI2
aI2
aI2
aI2
aI2
aI2
aI2
aI2
aI2
aI2
aI2
aI2
aI2
aI2
aI2
aI2
aI2
aI2
aI2
aI2
aI2
aI2
aI2
aI2
aI2
aI2
aI2
aI2
aI2
aI2
aI2
aI2
aI2
aI2
aI2
aI2
aI2
aI2
aI2
aI2
aI2
aI2
aI2
aI2
aI2
aI2
aI2
aI2
aI2
aI2
aI2
aI2
aI2
aI2
aI2
aI2
asg10
S'Possible'
p451
sg12
S'Some'
p452
sg14
g248
sg16
I2
sg17
S'Low'
p453
sg19
S'Liten tilleggsbelastning'
p454
sg21
I124
sg22
S'200'
p455
sg24
S'800'
p456
sg26
S'Noen bratte heng'
p457
sg28
g45
(g49
S'1\xee5\x05\x87\xe5\xb6?'
p458
tp459
Rp460
sg29
g345
sg31
S'2 - Smaa'
p461
sba(irunmatrix
M3Element
p462
(dp463
g3
F2.0
sg4
S'Lite sannsynlig, Mulig'
p464
sg6
g434
sg8
(lp465
I2
aI2
aI2
aI2
aI2
aI2
aI2
aI2
aI2
aI2
aI2
aI2
aI2
aI2
aI2
aI2
aI2
aI2
aI2
aI2
aI2
aI2
aI2
aI2
aI2
aI2
aI2
asg10
S'Possible'
p466
sg12
S'Some'
p467
sg14
g248
sg16
I2
sg17
S'Nat'
p468
sg19
S'Naturlig utloest'
p469
sg21
I27
sg22
S'200'
p470
sg24
S'900'
p471
sg26
S'Noen bratte heng'
p472
sg28
g45
(g49
S'\x00\x00\x00\x00\x00\x00\x00\x00'
p473
tp474
Rp475
sg29
g345
sg31
S'2 - Smaa'
p476
sba(irunmatrix
M3Element
p477
(dp478
g3
Nsg4
S'Sannsynlig, Meget sannsynlig'
p479
sg6
S'gray'
p480
sg8
(lp481
sg10
S'Likely'
p482
sg12
S'Some'
p483
sg14
g76
sg16
I0
sg17
S'High'
p484
sg19
S'Stor tilleggsbelastning'
p485
sg21
Nsg22
S'200'
p486
sg24
S'1000'
p487
sg26
S'Noen bratte heng'
p488
sg28
Nsg29
g345
sg31
S'2 - Smaa'
p489
sba(irunmatrix
M3Element
p490
(dp491
g3
Nsg4
S'Sannsynlig, Meget sannsynlig'
p492
sg6
S'gray'
p493
sg8
(lp494
sg10
S'Likely'
p495
sg12
S'Some'
p496
sg14
g76
sg16
I0
sg17
S'Low'
p497
sg19
S'Liten tilleggsbelastning'
p498
sg21
Nsg22
S'200'
p499
sg24
S'1100'
p500
sg26
S'Noen bratte heng'
p501
sg28
Nsg29
g345
sg31
S'2 - Smaa'
p502
sba(irunmatrix
M3Element
p503
(dp504
g3
Nsg4
S'Sannsynlig, Meget sannsynlig'
p505
sg6
S'white'
p506
sg8
(lp507
sg10
S'Likely'
p508
sg12
S'Some'
p509
sg14
S'#ff9900'
p510
sg16
I3
sg17
S'Nat'
p511
sg19
S'Naturlig utloest'
p512
sg21
Nsg22
S'200'
p513
sg24
S'1200'
p514
sg26
S'Noen bratte heng'
p515
sg28
Nsg29
g345
sg31
S'2 - Smaa'
p516
sba(irunmatrix
M3Element
p517
(dp518
g3
Nsg4
S'Lite sannsynlig, Mulig'
p519
sg6
S'gray'
p520
sg8
(lp521
sg10
S'Possible'
p522
sg12
S'Many'
p523
sg14
g76
sg16
I0
sg17
S'High'
p524
sg19
S'Stor tilleggsbelastning'
p525
sg21
Nsg22
S'200'
p526
sg24
S'1300'
p527
sg26
S'Mange bratte heng'
p528
sg28
Nsg29
g345
sg31
S'2 - Smaa'
p529
sba(irunmatrix
M3Element
p530
(dp531
g3
F3.0
sg4
S'Lite sannsynlig, Mulig'
p532
sg6
S'#ff9900'
p533
sg8
(lp534
I3
aI3
aI3
aI3
aI3
aI3
aI3
aI3
aI3
aI3
asg10
S'Possible'
p535
sg12
S'Many'
p536
sg14
g510
sg16
I3
sg17
S'Low'
p537
sg19
S'Liten tilleggsbelastning'
p538
sg21
I10
sg22
S'200'
p539
sg24
S'1400'
p540
sg26
S'Mange bratte heng'
p541
sg28
g45
(g49
S'\x00\x00\x00\x00\x00\x00\x00\x00'
p542
tp543
Rp544
sg29
g345
sg31
S'2 - Smaa'
p545
sba(irunmatrix
M3Element
p546
(dp547
g3
Nsg4
S'Lite sannsynlig, Mulig'
p548
sg6
S'gray'
p549
sg8
(lp550
sg10
S'Possible'
p551
sg12
S'Many'
p552
sg14
g76
sg16
I0
sg17
S'Nat'
p553
sg19
S'Naturlig utloest'
p554
sg21
Nsg22
S'200'
p555
sg24
S'1500'
p556
sg26
S'Mange bratte heng'
p557
sg28
Nsg29
g345
sg31
S'2 - Smaa'
p558
sba(irunmatrix
M3Element
p559
(dp560
g3
Nsg4
S'Sannsynlig, Meget sannsynlig'
p561
sg6
S'gray'
p562
sg8
(lp563
sg10
S'Likely'
p564
sg12
S'Many'
p565
sg14
g76
sg16
I0
sg17
S'High'
p566
sg19
S'Stor tilleggsbelastning'
p567
sg21
Nsg22
S'200'
p568
sg24
S'1600'
p569
sg26
S'Mange bratte heng'
p570
sg28
Nsg29
g345
sg31
S'2 - Smaa'
p571
sba(irunmatrix
M3Element
p572
(dp573
g3
Nsg4
S'Sannsynlig, Meget sannsynlig'
p574
sg6
S'white'
p575
sg8
(lp576
sg10
S'Likely'
p577
sg12
S'Many'
p578
sg14
S'#ff0000'
p579
sg16
I4
sg17
S'Low'
p580
sg19
S'Liten tilleggsbelastning'
p581
sg21
Nsg22
S'200'
p582
sg24
S'1700'
p583
sg26
S'Mange bratte heng'
p584
sg28
Nsg29
g345
sg31
S'2 - Smaa'
p585
sba(irunmatrix
M3Element
p586
(dp587
g3
Nsg4
S'Sannsynlig, Meget sannsynlig'
p588
sg6
S'white'
p589
sg8
(lp590
sg10
S'Likely'
p591
sg12
S'Many'
p592
sg14
g579
sg16
I4
sg17
S'Nat'
p593
sg19
S'Naturlig utloest'
p594
sg21
Nsg22
S'200'
p595
sg24
S'1800'
p596
sg26
S'Mange bratte heng'
p597
sg28
Nsg29
g345
sg31
S'2 - Smaa'
p598
sba(irunmatrix
M3Element
p599
(dp600
g3
Nsg4
S'Lite sannsynlig, Mulig'
p601
sg6
S'gray'
p602
sg8
(lp603
sg10
S'Possible'
p604
sg12
S'Most'
p605
sg14
g76
sg16
I0
sg17
S'High'
p606
sg19
S'Stor tilleggsbelastning'
p607
sg21
Nsg22
S'200'
p608
sg24
S'1900'
p609
sg26
S'De fleste bratte heng, Ogsaa i mindre bratt terreng'
p610
sg28
Nsg29
g345
sg31
S'2 - Smaa'
p611
sba(irunmatrix
M3Element
p612
(dp613
g3
Nsg4
S'Lite sannsynlig, Mulig'
p614
sg6
S'gray'
p615
sg8
(lp616
sg10
S'Possible'
p617
sg12
S'Most'
p618
sg14
g76
sg16
I0
sg17
S'Low'
p619
sg19
S'Liten tilleggsbelastning'
p620
sg21
Nsg22
S'200'
p621
sg24
S'2000'
p622
sg26
S'De fleste bratte heng, Ogsaa i mindre bratt terreng'
p623
sg28
Nsg29
g345
sg31
S'2 - Smaa'
p624
sba(irunmatrix
M3Element
p625
(dp626
g3
Nsg4
S'Lite sannsynlig, Mulig'
p627
sg6
S'gray'
p628
sg8
(lp629
sg10
S'Possible'
p630
sg12
S'Most'
p631
sg14
g76
sg16
I0
sg17
S'Nat'
p632
sg19
S'Naturlig utloest'
p633
sg21
Nsg22
S'200'
p634
sg24
S'2100'
p635
sg26
S'De fleste bratte heng, Ogsaa i mindre bratt terreng'
p636
sg28
Nsg29
g345
sg31
S'2 - Smaa'
p637
sba(irunmatrix
M3Element
p638
(dp639
g3
Nsg4
S'Sannsynlig, Meget sannsynlig'
p640
sg6
S'gray'
p641
sg8
(lp642
sg10
S'Likely'
p643
sg12
S'Most'
p644
sg14
g76
sg16
I0
sg17
S'High'
p645
sg19
S'Stor tilleggsbelastning'
p646
sg21
Nsg22
S'200'
p647
sg24
S'2200'
p648
sg26
S'De fleste bratte heng, Ogsaa i mindre bratt terreng'
p649
sg28
Nsg29
g345
sg31
S'2 - Smaa'
p650
sba(irunmatrix
M3Element
p651
(dp652
g3
Nsg4
S'Sannsynlig, Meget sannsynlig'
p653
sg6
S'gray'
p654
sg8
(lp655
sg10
S'Likely'
p656
sg12
S'Most'
p657
sg14
g76
sg16
I0
sg17
S'Low'
p658
sg19
S'Liten tilleggsbelastning'
p659
sg21
Nsg22
S'200'
p660
sg24
S'2300'
p661
sg26
S'De fleste bratte heng, Ogsaa i mindre bratt terreng'
p662
sg28
Nsg29
g345
sg31
S'2 - Smaa'
p663
sba(irunmatrix
M3Element
p664
(dp665
g3
Nsg4
S'Sannsynlig, Meget sannsynlig'
p666
sg6
S'white'
p667
sg8
(lp668
sg10
S'Likely'
p669
sg12
S'Most'
p670
sg14
g76
sg16
I0
sg17
S'Nat'
p671
sg19
S'Naturlig utloest'
p672
sg21
Nsg22
S'200'
p673
sg24
S'2400'
p674
sg26
S'De fleste bratte heng, Ogsaa i mindre bratt terreng'
p675
sg28
Nsg29
g345
sg31
S'2 - Smaa'
p676
sba(irunmatrix
M3Element
p677
(dp678
g3
Nsg4
S'Lite sannsynlig, Mulig'
p679
sg6
S'white'
p680
sg8
(lp681
sg10
S'Possible'
p682
sg12
S'Isolated'
p683
sg14
g15
sg16
I1
sg17
S'High'
p684
sg19
S'Stor tilleggsbelastning'
p685
sg21
Nsg22
S'300'
p686
sg24
S'100'
p687
sg26
S'Isolerte faresoner'
p688
sg28
Nsg29
S'3'
p689
sg31
S'3 - Middels'
p690
sba(irunmatrix
M3Element
p691
(dp692
g3
Nsg4
S'Lite sannsynlig, Mulig'
p693
sg6
S'white'
p694
sg8
(lp695
sg10
S'Possible'
p696
sg12
S'Isolated'
p697
sg14
g248
sg16
I2
sg17
S'Low'
p698
sg19
S'Liten tilleggsbelastning'
p699
sg21
Nsg22
S'300'
p700
sg24
S'200'
p701
sg26
S'Isolerte faresoner'
p702
sg28
Nsg29
g689
sg31
S'3 - Middels'
p703
sba(irunmatrix
M3Element
p704
(dp705
g3
Nsg4
S'Lite sannsynlig, Mulig'
p706
sg6
S'white'
p707
sg8
(lp708
sg10
S'Possible'
p709
sg12
S'Isolated'
p710
sg14
g248
sg16
I2
sg17
S'Nat'
p711
sg19
S'Naturlig utloest'
p712
sg21
Nsg22
S'300'
p713
sg24
S'300'
p714
sg26
S'Isolerte faresoner'
p715
sg28
Nsg29
g689
sg31
S'3 - Middels'
p716
sba(irunmatrix
M3Element
p717
(dp718
g3
Nsg4
S'Sannsynlig, Meget sannsynlig'
p719
sg6
S'gray'
p720
sg8
(lp721
sg10
S'Likely'
p722
sg12
S'Isolated'
p723
sg14
g76
sg16
I0
sg17
S'High'
p724
sg19
S'Stor tilleggsbelastning'
p725
sg21
Nsg22
S'300'
p726
sg24
S'400'
p727
sg26
S'Isolerte faresoner'
p728
sg28
Nsg29
g689
sg31
S'3 - Middels'
p729
sba(irunmatrix
M3Element
p730
(dp731
g3
Nsg4
S'Sannsynlig, Meget sannsynlig'
p732
sg6
S'gray'
p733
sg8
(lp734
sg10
S'Likely'
p735
sg12
S'Isolated'
p736
sg14
g76
sg16
I0
sg17
S'Low'
p737
sg19
S'Liten tilleggsbelastning'
p738
sg21
Nsg22
S'300'
p739
sg24
S'500'
p740
sg26
S'Isolerte faresoner'
p741
sg28
Nsg29
g689
sg31
S'3 - Middels'
p742
sba(irunmatrix
M3Element
p743
(dp744
g3
Nsg4
S'Sannsynlig, Meget sannsynlig'
p745
sg6
S'gray'
p746
sg8
(lp747
sg10
S'Likely'
p748
sg12
S'Isolated'
p749
sg14
g76
sg16
I0
sg17
S'Nat'
p750
sg19
S'Naturlig utloest'
p751
sg21
Nsg22
S'300'
p752
sg24
S'600'
p753
sg26
S'Isolerte faresoner'
p754
sg28
Nsg29
g689
sg31
S'3 - Middels'
p755
sba(irunmatrix
M3Element
p756
(dp757
g3
F2.0
sg4
S'Lite sannsynlig, Mulig'
p758
sg6
g434
sg8
(lp759
I2
aI2
aI2
aI2
aI2
asg10
S'Possible'
p760
sg12
S'Some'
p761
sg14
g248
sg16
I2
sg17
S'High'
p762
sg19
S'Stor tilleggsbelastning'
p763
sg21
I5
sg22
S'300'
p764
sg24
S'700'
p765
sg26
S'Noen bratte heng'
p766
sg28
g45
(g49
S'\x00\x00\x00\x00\x00\x00\x00\x00'
p767
tp768
Rp769
sg29
g689
sg31
S'3 - Middels'
p770
sba(irunmatrix
M3Element
p771
(dp772
g3
F3.0
sg4
S'Lite sannsynlig, Mulig'
p773
sg6
g533
sg8
(lp774
I3
aI3
aI3
aI3
aI3
aI3
aI3
aI3
aI3
aI3
aI3
aI3
aI3
aI3
aI3
aI3
asg10
S'Possible'
p775
sg12
S'Some'
p776
sg14
g510
sg16
I3
sg17
S'Low'
p777
sg19
S'Liten tilleggsbelastning'
p778
sg21
I16
sg22
S'300'
p779
sg24
S'800'
p780
sg26
S'Noen bratte heng'
p781
sg28
g45
(g49
S'\x00\x00\x00\x00\x00\x00\x00\x00'
p782
tp783
Rp784
sg29
g689
sg31
S'3 - Middels'
p785
sba(irunmatrix
M3Element
p786
(dp787
g3
F3.0
sg4
S'Lite sannsynlig, Mulig'
p788
sg6
g533
sg8
(lp789
I3
aI3
aI3
aI3
aI3
aI3
asg10
S'Possible'
p790
sg12
S'Some'
p791
sg14
g510
sg16
I3
sg17
S'Nat'
p792
sg19
S'Naturlig utloest'
p793
sg21
I6
sg22
S'300'
p794
sg24
S'900'
p795
sg26
S'Noen bratte heng'
p796
sg28
g45
(g49
S'\x00\x00\x00\x00\x00\x00\x00\x00'
p797
tp798
Rp799
sg29
g689
sg31
S'3 - Middels'
p800
sba(irunmatrix
M3Element
p801
(dp802
g3
Nsg4
S'Sannsynlig, Meget sannsynlig'
p803
sg6
S'gray'
p804
sg8
(lp805
sg10
S'Likely'
p806
sg12
S'Some'
p807
sg14
g76
sg16
I0
sg17
S'High'
p808
sg19
S'Stor tilleggsbelastning'
p809
sg21
Nsg22
S'300'
p810
sg24
S'1000'
p811
sg26
S'Noen bratte heng'
p812
sg28
Nsg29
g689
sg31
S'3 - Middels'
p813
sba(irunmatrix
M3Element
p814
(dp815
g3
Nsg4
S'Sannsynlig, Meget sannsynlig'
p816
sg6
S'gray'
p817
sg8
(lp818
sg10
S'Likely'
p819
sg12
S'Some'
p820
sg14
g76
sg16
I0
sg17
S'Low'
p821
sg19
S'Liten tilleggsbelastning'
p822
sg21
Nsg22
S'300'
p823
sg24
S'1100'
p824
sg26
S'Noen bratte heng'
p825
sg28
Nsg29
g689
sg31
S'3 - Middels'
p826
sba(irunmatrix
M3Element
p827
(dp828
g3
Nsg4
S'Sannsynlig, Meget sannsynlig'
p829
sg6
S'white'
p830
sg8
(lp831
sg10
S'Likely'
p832
sg12
S'Some'
p833
sg14
g579
sg16
I4
sg17
S'Nat'
p834
sg19
S'Naturlig utloest'
p835
sg21
Nsg22
S'300'
p836
sg24
S'1200'
p837
sg26
S'Noen bratte heng'
p838
sg28
Nsg29
g689
sg31
S'3 - Middels'
p839
sba(irunmatrix
M3Element
p840
(dp841
g3
Nsg4
S'Lite sannsynlig, Mulig'
p842
sg6
S'gray'
p843
sg8
(lp844
sg10
S'Possible'
p845
sg12
S'Many'
p846
sg14
g76
sg16
I0
sg17
S'High'
p847
sg19
S'Stor tilleggsbelastning'
p848
sg21
Nsg22
S'300'
p849
sg24
S'1300'
p850
sg26
S'Mange bratte heng'
p851
sg28
Nsg29
g689
sg31
S'3 - Middels'
p852
sba(irunmatrix
M3Element
p853
(dp854
g3
F3.0
sg4
S'Lite sannsynlig, Mulig'
p855
sg6
g533
sg8
(lp856
I3
aI3
aI3
aI3
aI3
aI3
aI3
aI3
asg10
S'Possible'
p857
sg12
S'Many'
p858
sg14
g579
sg16
I4
sg17
S'Low'
p859
sg19
S'Liten tilleggsbelastning'
p860
sg21
I8
sg22
S'300'
p861
sg24
S'1400'
p862
sg26
S'Mange bratte heng'
p863
sg28
g45
(g49
S'\x00\x00\x00\x00\x00\x00\x00\x00'
p864
tp865
Rp866
sg29
g689
sg31
S'3 - Middels'
p867
sba(irunmatrix
M3Element
p868
(dp869
g3
Nsg4
S'Lite sannsynlig, Mulig'
p870
sg6
S'gray'
p871
sg8
(lp872
sg10
S'Possible'
p873
sg12
S'Many'
p874
sg14
g76
sg16
I0
sg17
S'Nat'
p875
sg19
S'Naturlig utloest'
p876
sg21
Nsg22
S'300'
p877
sg24
S'1500'
p878
sg26
S'Mange bratte heng'
p879
sg28
Nsg29
g689
sg31
S'3 - Middels'
p880
sba(irunmatrix
M3Element
p881
(dp882
g3
Nsg4
S'Sannsynlig, Meget sannsynlig'
p883
sg6
S'gray'
p884
sg8
(lp885
sg10
S'Likely'
p886
sg12
S'Many'
p887
sg14
g76
sg16
I0
sg17
S'High'
p888
sg19
S'Stor tilleggsbelastning'
p889
sg21
Nsg22
S'300'
p890
sg24
S'1600'
p891
sg26
S'Mange bratte heng'
p892
sg28
Nsg29
g689
sg31
S'3 - Middels'
p893
sba(irunmatrix
M3Element
p894
(dp895
g3
Nsg4
S'Sannsynlig, Meget sannsynlig'
p896
sg6
S'white'
p897
sg8
(lp898
sg10
S'Likely'
p899
sg12
S'Many'
p900
sg14
g579
sg16
I4
sg17
S'Low'
p901
sg19
S'Liten tilleggsbelastning'
p902
sg21
Nsg22
S'300'
p903
sg24
S'1700'
p904
sg26
S'Mange bratte heng'
p905
sg28
Nsg29
g689
sg31
S'3 - Middels'
p906
sba(irunmatrix
M3Element
p907
(dp908
g3
Nsg4
S'Sannsynlig, Meget sannsynlig'
p909
sg6
S'white'
p910
sg8
(lp911
sg10
S'Likely'
p912
sg12
S'Many'
p913
sg14
g579
sg16
I4
sg17
S'Nat'
p914
sg19
S'Naturlig utloest'
p915
sg21
Nsg22
S'300'
p916
sg24
S'1800'
p917
sg26
S'Mange bratte heng'
p918
sg28
Nsg29
g689
sg31
S'3 - Middels'
p919
sba(irunmatrix
M3Element
p920
(dp921
g3
Nsg4
S'Lite sannsynlig, Mulig'
p922
sg6
S'gray'
p923
sg8
(lp924
sg10
S'Possible'
p925
sg12
S'Most'
p926
sg14
g76
sg16
I0
sg17
S'High'
p927
sg19
S'Stor tilleggsbelastning'
p928
sg21
Nsg22
S'300'
p929
sg24
S'1900'
p930
sg26
S'De fleste bratte heng, Ogsaa i mindre bratt terreng'
p931
sg28
Nsg29
g689
sg31
S'3 - Middels'
p932
sba(irunmatrix
M3Element
p933
(dp934
g3
Nsg4
S'Lite sannsynlig, Mulig'
p935
sg6
S'gray'
p936
sg8
(lp937
sg10
S'Possible'
p938
sg12
S'Most'
p939
sg14
g76
sg16
I0
sg17
S'Low'
p940
sg19
S'Liten tilleggsbelastning'
p941
sg21
Nsg22
S'300'
p942
sg24
S'2000'
p943
sg26
S'De fleste bratte heng, Ogsaa i mindre bratt terreng'
p944
sg28
Nsg29
g689
sg31
S'3 - Middels'
p945
sba(irunmatrix
M3Element
p946
(dp947
g3
Nsg4
S'Lite sannsynlig, Mulig'
p948
sg6
S'gray'
p949
sg8
(lp950
sg10
S'Possible'
p951
sg12
S'Most'
p952
sg14
g76
sg16
I0
sg17
S'Nat'
p953
sg19
S'Naturlig utloest'
p954
sg21
Nsg22
S'300'
p955
sg24
S'2100'
p956
sg26
S'De fleste bratte heng, Ogsaa i mindre bratt terreng'
p957
sg28
Nsg29
g689
sg31
S'3 - Middels'
p958
sba(irunmatrix
M3Element
p959
(dp960
g3
Nsg4
S'Sannsynlig, Meget sannsynlig'
p961
sg6
S'gray'
p962
sg8
(lp963
sg10
S'Likely'
p964
sg12
S'Most'
p965
sg14
g76
sg16
I0
sg17
S'High'
p966
sg19
S'Stor tilleggsbelastning'
p967
sg21
Nsg22
S'300'
p968
sg24
S'2200'
p969
sg26
S'De fleste bratte heng, Ogsaa i mindre bratt terreng'
p970
sg28
Nsg29
g689
sg31
S'3 - Middels'
p971
sba(irunmatrix
M3Element
p972
(dp973
g3
Nsg4
S'Sannsynlig, Meget sannsynlig'
p974
sg6
S'gray'
p975
sg8
(lp976
sg10
S'Likely'
p977
sg12
S'Most'
p978
sg14
g76
sg16
I0
sg17
S'Low'
p979
sg19
S'Liten tilleggsbelastning'
p980
sg21
Nsg22
S'300'
p981
sg24
S'2300'
p982
sg26
S'De fleste bratte heng, Ogsaa i mindre bratt terreng'
p983
sg28
Nsg29
g689
sg31
S'3 - Middels'
p984
sba(irunmatrix
M3Element
p985
(dp986
g3
Nsg4
S'Sannsynlig, Meget sannsynlig'
p987
sg6
S'white'
p988
sg8
(lp989
sg10
S'Likely'
p990
sg12
S'Most'
p991
sg14
g76
sg16
I0
sg17
S'Nat'
p992
sg19
S'Naturlig utloest'
p993
sg21
Nsg22
S'300'
p994
sg24
S'2400'
p995
sg26
S'De fleste bratte heng, Ogsaa i mindre bratt terreng'
p996
sg28
Nsg29
g689
sg31
S'3 - Middels'
p997
sba(irunmatrix
M3Element
p998
(dp999
g3
Nsg4
S'Lite sannsynlig, Mulig'
p1000
sg6
S'white'
p1001
sg8
(lp1002
sg10
S'Possible'
p1003
sg12
S'Isolated'
p1004
sg14
g248
sg16
I2
sg17
S'High'
p1005
sg19
S'Stor tilleggsbelastning'
p1006
sg21
Nsg22
S'400'
p1007
sg24
S'100'
p1008
sg26
S'Isolerte faresoner'
p1009
sg28
Nsg29
S'4'
p1010
sg31
S'4 - Store'
p1011
sba(irunmatrix
M3Element
p1012
(dp1013
g3
Nsg4
S'Lite sannsynlig, Mulig'
p1014
sg6
S'white'
p1015
sg8
(lp1016
sg10
S'Possible'
p1017
sg12
S'Isolated'
p1018
sg14
g510
sg16
I3
sg17
S'Low'
p1019
sg19
S'Liten tilleggsbelastning'
p1020
sg21
Nsg22
S'400'
p1021
sg24
S'200'
p1022
sg26
S'Isolerte faresoner'
p1023
sg28
Nsg29
g1010
sg31
S'4 - Store'
p1024
sba(irunmatrix
M3Element
p1025
(dp1026
g3
Nsg4
S'Lite sannsynlig, Mulig'
p1027
sg6
S'white'
p1028
sg8
(lp1029
sg10
S'Possible'
p1030
sg12
S'Isolated'
p1031
sg14
g510
sg16
I3
sg17
S'Nat'
p1032
sg19
S'Naturlig utloest'
p1033
sg21
Nsg22
S'400'
p1034
sg24
S'300'
p1035
sg26
S'Isolerte faresoner'
p1036
sg28
Nsg29
g1010
sg31
S'4 - Store'
p1037
sba(irunmatrix
M3Element
p1038
(dp1039
g3
Nsg4
S'Sannsynlig, Meget sannsynlig'
p1040
sg6
S'gray'
p1041
sg8
(lp1042
sg10
S'Likely'
p1043
sg12
S'Isolated'
p1044
sg14
g76
sg16
I0
sg17
S'High'
p1045
sg19
S'Stor tilleggsbelastning'
p1046
sg21
Nsg22
S'400'
p1047
sg24
S'400'
p1048
sg26
S'Isolerte faresoner'
p1049
sg28
Nsg29
g1010
sg31
S'4 - Store'
p1050
sba(irunmatrix
M3Element
p1051
(dp1052
g3
Nsg4
S'Sannsynlig, Meget sannsynlig'
p1053
sg6
S'gray'
p1054
sg8
(lp1055
sg10
S'Likely'
p1056
sg12
S'Isolated'
p1057
sg14
g76
sg16
I0
sg17
S'Low'
p1058
sg19
S'Liten tilleggsbelastning'
p1059
sg21
Nsg22
S'400'
p1060
sg24
S'500'
p1061
sg26
S'Isolerte faresoner'
p1062
sg28
Nsg29
g1010
sg31
S'4 - Store'
p1063
sba(irunmatrix
M3Element
p1064
(dp1065
g3
Nsg4
S'Sannsynlig, Meget sannsynlig'
p1066
sg6
S'gray'
p1067
sg8
(lp1068
sg10
S'Likely'
p1069
sg12
S'Isolated'
p1070
sg14
g76
sg16
I0
sg17
S'Nat'
p1071
sg19
S'Naturlig utloest'
p1072
sg21
Nsg22
S'400'
p1073
sg24
S'600'
p1074
sg26
S'Isolerte faresoner'
p1075
sg28
Nsg29
g1010
sg31
S'4 - Store'
p1076
sba(irunmatrix
M3Element
p1077
(dp1078
g3
Nsg4
S'Lite sannsynlig, Mulig'
p1079
sg6
S'white'
p1080
sg8
(lp1081
sg10
S'Possible'
p1082
sg12
S'Some'
p1083
sg14
g510
sg16
I3
sg17
S'High'
p1084
sg19
S'Stor tilleggsbelastning'
p1085
sg21
Nsg22
S'400'
p1086
sg24
S'700'
p1087
sg26
S'Noen bratte heng'
p1088
sg28
Nsg29
g1010
sg31
S'4 - Store'
p1089
sba(irunmatrix
M3Element
p1090
(dp1091
g3
Nsg4
S'Lite sannsynlig, Mulig'
p1092
sg6
S'white'
p1093
sg8
(lp1094
sg10
S'Possible'
p1095
sg12
S'Some'
p1096
sg14
g579
sg16
I4
sg17
S'Low'
p1097
sg19
S'Liten tilleggsbelastning'
p1098
sg21
Nsg22
S'400'
p1099
sg24
S'800'
p1100
sg26
S'Noen bratte heng'
p1101
sg28
Nsg29
g1010
sg31
S'4 - Store'
p1102
sba(irunmatrix
M3Element
p1103
(dp1104
g3
Nsg4
S'Lite sannsynlig, Mulig'
p1105
sg6
S'white'
p1106
sg8
(lp1107
sg10
S'Possible'
p1108
sg12
S'Some'
p1109
sg14
g579
sg16
I4
sg17
S'Nat'
p1110
sg19
S'Naturlig utloest'
p1111
sg21
Nsg22
S'400'
p1112
sg24
S'900'
p1113
sg26
S'Noen bratte heng'
p1114
sg28
Nsg29
g1010
sg31
S'4 - Store'
p1115
sba(irunmatrix
M3Element
p1116
(dp1117
g3
Nsg4
S'Sannsynlig, Meget sannsynlig'
p1118
sg6
S'gray'
p1119
sg8
(lp1120
sg10
S'Likely'
p1121
sg12
S'Some'
p1122
sg14
g76
sg16
I0
sg17
S'High'
p1123
sg19
S'Stor tilleggsbelastning'
p1124
sg21
Nsg22
S'400'
p1125
sg24
S'1000'
p1126
sg26
S'Noen bratte heng'
p1127
sg28
Nsg29
g1010
sg31
S'4 - Store'
p1128
sba(irunmatrix
M3Element
p1129
(dp1130
g3
Nsg4
S'Sannsynlig, Meget sannsynlig'
p1131
sg6
S'gray'
p1132
sg8
(lp1133
sg10
S'Likely'
p1134
sg12
S'Some'
p1135
sg14
g76
sg16
I0
sg17
S'Low'
p1136
sg19
S'Liten tilleggsbelastning'
p1137
sg21
Nsg22
S'400'
p1138
sg24
S'1100'
p1139
sg26
S'Noen bratte heng'
p1140
sg28
Nsg29
g1010
sg31
S'4 - Store'
p1141
sba(irunmatrix
M3Element
p1142
(dp1143
g3
Nsg4
S'Sannsynlig, Meget sannsynlig'
p1144
sg6
S'white'
p1145
sg8
(lp1146
sg10
S'Likely'
p1147
sg12
S'Some'
p1148
sg14
g579
sg16
I4
sg17
S'Nat'
p1149
sg19
S'Naturlig utloest'
p1150
sg21
Nsg22
S'400'
p1151
sg24
S'1200'
p1152
sg26
S'Noen bratte heng'
p1153
sg28
Nsg29
g1010
sg31
S'4 - Store'
p1154
sba(irunmatrix
M3Element
p1155
(dp1156
g3
Nsg4
S'Lite sannsynlig, Mulig'
p1157
sg6
S'gray'
p1158
sg8
(lp1159
sg10
S'Possible'
p1160
sg12
S'Many'
p1161
sg14
g76
sg16
I0
sg17
S'High'
p1162
sg19
S'Stor tilleggsbelastning'
p1163
sg21
Nsg22
S'400'
p1164
sg24
S'1300'
p1165
sg26
S'Mange bratte heng'
p1166
sg28
Nsg29
g1010
sg31
S'4 - Store'
p1167
sba(irunmatrix
M3Element
p1168
(dp1169
g3
Nsg4
S'Lite sannsynlig, Mulig'
p1170
sg6
S'white'
p1171
sg8
(lp1172
sg10
S'Possible'
p1173
sg12
S'Many'
p1174
sg14
g76
sg16
I0
sg17
S'Low'
p1175
sg19
S'Liten tilleggsbelastning'
p1176
sg21
Nsg22
S'400'
p1177
sg24
S'1400'
p1178
sg26
S'Mange bratte heng'
p1179
sg28
Nsg29
g1010
sg31
S'4 - Store'
p1180
sba(irunmatrix
M3Element
p1181
(dp1182
g3
Nsg4
S'Lite sannsynlig, Mulig'
p1183
sg6
S'gray'
p1184
sg8
(lp1185
sg10
S'Possible'
p1186
sg12
S'Many'
p1187
sg14
g76
sg16
I0
sg17
S'Nat'
p1188
sg19
S'Naturlig utloest'
p1189
sg21
Nsg22
S'400'
p1190
sg24
S'1500'
p1191
sg26
S'Mange bratte heng'
p1192
sg28
Nsg29
g1010
sg31
S'4 - Store'
p1193
sba(irunmatrix
M3Element
p1194
(dp1195
g3
Nsg4
S'Sannsynlig, Meget sannsynlig'
p1196
sg6
S'gray'
p1197
sg8
(lp1198
sg10
S'Likely'
p1199
sg12
S'Many'
p1200
sg14
g76
sg16
I0
sg17
S'High'
p1201
sg19
S'Stor tilleggsbelastning'
p1202
sg21
Nsg22
S'400'
p1203
sg24
S'1600'
p1204
sg26
S'Mange bratte heng'
p1205
sg28
Nsg29
g1010
sg31
S'4 - Store'
p1206
sba(irunmatrix
M3Element
p1207
(dp1208
g3
Nsg4
S'Sannsynlig, Meget sannsynlig'
p1209
sg6
S'white'
p1210
sg8
(lp1211
sg10
S'Likely'
p1212
sg12
S'Many'
p1213
sg14
g76
sg16
I0
sg17
S'Low'
p1214
sg19
S'Liten tilleggsbelastning'
p1215
sg21
Nsg22
S'400'
p1216
sg24
S'1700'
p1217
sg26
S'Mange bratte heng'
p1218
sg28
Nsg29
g1010
sg31
S'4 - Store'
p1219
sba(irunmatrix
M3Element
p1220
(dp1221
g3
Nsg4
S'Sannsynlig, Meget sannsynlig'
p1222
sg6
S'white'
p1223
sg8
(lp1224
sg10
S'Likely'
p1225
sg12
S'Many'
p1226
sg14
S'k'
p1227
sg16
I5
sg17
S'Nat'
p1228
sg19
S'Naturlig utloest'
p1229
sg21
Nsg22
S'400'
p1230
sg24
S'1800'
p1231
sg26
S'Mange bratte heng'
p1232
sg28
Nsg29
g1010
sg31
S'4 - Store'
p1233
sba(irunmatrix
M3Element
p1234
(dp1235
g3
Nsg4
S'Lite sannsynlig, Mulig'
p1236
sg6
S'gray'
p1237
sg8
(lp1238
sg10
S'Possible'
p1239
sg12
S'Most'
p1240
sg14
g76
sg16
I0
sg17
S'High'
p1241
sg19
S'Stor tilleggsbelastning'
p1242
sg21
Nsg22
S'400'
p1243
sg24
S'1900'
p1244
sg26
S'De fleste bratte heng, Ogsaa i mindre bratt terreng'
p1245
sg28
Nsg29
g1010
sg31
S'4 - Store'
p1246
sba(irunmatrix
M3Element
p1247
(dp1248
g3
Nsg4
S'Lite sannsynlig, Mulig'
p1249
sg6
S'gray'
p1250
sg8
(lp1251
sg10
S'Possible'
p1252
sg12
S'Most'
p1253
sg14
g76
sg16
I0
sg17
S'Low'
p1254
sg19
S'Liten tilleggsbelastning'
p1255
sg21
Nsg22
S'400'
p1256
sg24
S'2000'
p1257
sg26
S'De fleste bratte heng, Ogsaa i mindre bratt terreng'
p1258
sg28
Nsg29
g1010
sg31
S'4 - Store'
p1259
sba(irunmatrix
M3Element
p1260
(dp1261
g3
Nsg4
S'Lite sannsynlig, Mulig'
p1262
sg6
S'gray'
p1263
sg8
(lp1264
sg10
S'Possible'
p1265
sg12
S'Most'
p1266
sg14
g76
sg16
I0
sg17
S'Nat'
p1267
sg19
S'Naturlig utloest'
p1268
sg21
Nsg22
S'400'
p1269
sg24
S'2100'
p1270
sg26
S'De fleste bratte heng, Ogsaa i mindre bratt terreng'
p1271
sg28
Nsg29
g1010
sg31
S'4 - Store'
p1272
sba(irunmatrix
M3Element
p1273
(dp1274
g3
Nsg4
S'Sannsynlig, Meget sannsynlig'
p1275
sg6
S'gray'
p1276
sg8
(lp1277
sg10
S'Likely'
p1278
sg12
S'Most'
p1279
sg14
g76
sg16
I0
sg17
S'High'
p1280
sg19
S'Stor tilleggsbelastning'
p1281
sg21
Nsg22
S'400'
p1282
sg24
S'2200'
p1283
sg26
S'De fleste bratte heng, Ogsaa i mindre bratt terreng'
p1284
sg28
Nsg29
g1010
sg31
S'4 - Store'
p1285
sba(irunmatrix
M3Element
p1286
(dp1287
g3
Nsg4
S'Sannsynlig, Meget sannsynlig'
p1288
sg6
S'gray'
p1289
sg8
(lp1290
sg10
S'Likely'
p1291
sg12
S'Most'
p1292
sg14
g76
sg16
I0
sg17
S'Low'
p1293
sg19
S'Liten tilleggsbelastning'
p1294
sg21
Nsg22
S'400'
p1295
sg24
S'2300'
p1296
sg26
S'De fleste bratte heng, Ogsaa i mindre bratt terreng'
p1297
sg28
Nsg29
g1010
sg31
S'4 - Store'
p1298
sba(irunmatrix
M3Element
p1299
(dp1300
g3
Nsg4
S'Sannsynlig, Meget sannsynlig'
p1301
sg6
S'white'
p1302
sg8
(lp1303
sg10
S'Likely'
p1304
sg12
S'Most'
p1305
sg14
g76
sg16
I0
sg17
S'Nat'
p1306
sg19
S'Naturlig utloest'
p1307
sg21
Nsg22
S'400'
p1308
sg24
S'2400'
p1309
sg26
S'De fleste bratte heng, Ogsaa i mindre bratt terreng'
p1310
sg28
Nsg29
g1010
sg31
S'4 - Store'
p1311
sba(irunmatrix
M3Element
p1312
(dp1313
g3
Nsg4
S'Lite sannsynlig, Mulig'
p1314
sg6
S'white'
p1315
sg8
(lp1316
sg10
S'Possible'
p1317
sg12
S'Isolated'
p1318
sg14
g76
sg16
I0
sg17
S'High'
p1319
sg19
S'Stor tilleggsbelastning'
p1320
sg21
Nsg22
S'500'
p1321
sg24
S'100'
p1322
sg26
S'Isolerte faresoner'
p1323
sg28
Nsg29
S'5'
p1324
sg31
S'5 - Svaert store'
p1325
sba(irunmatrix
M3Element
p1326
(dp1327
g3
Nsg4
S'Lite sannsynlig, Mulig'
p1328
sg6
S'white'
p1329
sg8
(lp1330
sg10
S'Possible'
p1331
sg12
S'Isolated'
p1332
sg14
g76
sg16
I0
sg17
S'Low'
p1333
sg19
S'Liten tilleggsbelastning'
p1334
sg21
Nsg22
S'500'
p1335
sg24
S'200'
p1336
sg26
S'Isolerte faresoner'
p1337
sg28
Nsg29
g1324
sg31
S'5 - Svaert store'
p1338
sba(irunmatrix
M3Element
p1339
(dp1340
g3
Nsg4
S'Lite sannsynlig, Mulig'
p1341
sg6
S'white'
p1342
sg8
(lp1343
sg10
S'Possible'
p1344
sg12
S'Isolated'
p1345
sg14
g76
sg16
I0
sg17
S'Nat'
p1346
sg19
S'Naturlig utloest'
p1347
sg21
Nsg22
S'500'
p1348
sg24
S'300'
p1349
sg26
S'Isolerte faresoner'
p1350
sg28
Nsg29
g1324
sg31
S'5 - Svaert store'
p1351
sba(irunmatrix
M3Element
p1352
(dp1353
g3
Nsg4
S'Sannsynlig, Meget sannsynlig'
p1354
sg6
S'gray'
p1355
sg8
(lp1356
sg10
S'Likely'
p1357
sg12
S'Isolated'
p1358
sg14
g76
sg16
I0
sg17
S'High'
p1359
sg19
S'Stor tilleggsbelastning'
p1360
sg21
Nsg22
S'500'
p1361
sg24
S'400'
p1362
sg26
S'Isolerte faresoner'
p1363
sg28
Nsg29
g1324
sg31
S'5 - Svaert store'
p1364
sba(irunmatrix
M3Element
p1365
(dp1366
g3
Nsg4
S'Sannsynlig, Meget sannsynlig'
p1367
sg6
S'gray'
p1368
sg8
(lp1369
sg10
S'Likely'
p1370
sg12
S'Isolated'
p1371
sg14
g76
sg16
I0
sg17
S'Low'
p1372
sg19
S'Liten tilleggsbelastning'
p1373
sg21
Nsg22
S'500'
p1374
sg24
S'500'
p1375
sg26
S'Isolerte faresoner'
p1376
sg28
Nsg29
g1324
sg31
S'5 - Svaert store'
p1377
sba(irunmatrix
M3Element
p1378
(dp1379
g3
Nsg4
S'Sannsynlig, Meget sannsynlig'
p1380
sg6
S'gray'
p1381
sg8
(lp1382
sg10
S'Likely'
p1383
sg12
S'Isolated'
p1384
sg14
g76
sg16
I0
sg17
S'Nat'
p1385
sg19
S'Naturlig utloest'
p1386
sg21
Nsg22
S'500'
p1387
sg24
S'600'
p1388
sg26
S'Isolerte faresoner'
p1389
sg28
Nsg29
g1324
sg31
S'5 - Svaert store'
p1390
sba(irunmatrix
M3Element
p1391
(dp1392
g3
Nsg4
S'Lite sannsynlig, Mulig'
p1393
sg6
S'white'
p1394
sg8
(lp1395
sg10
S'Possible'
p1396
sg12
S'Some'
p1397
sg14
g76
sg16
I0
sg17
S'High'
p1398
sg19
S'Stor tilleggsbelastning'
p1399
sg21
Nsg22
S'500'
p1400
sg24
S'700'
p1401
sg26
S'Noen bratte heng'
p1402
sg28
Nsg29
g1324
sg31
S'5 - Svaert store'
p1403
sba(irunmatrix
M3Element
p1404
(dp1405
g3
Nsg4
S'Lite sannsynlig, Mulig'
p1406
sg6
S'white'
p1407
sg8
(lp1408
sg10
S'Possible'
p1409
sg12
S'Some'
p1410
sg14
g76
sg16
I0
sg17
S'Low'
p1411
sg19
S'Liten tilleggsbelastning'
p1412
sg21
Nsg22
S'500'
p1413
sg24
S'800'
p1414
sg26
S'Noen bratte heng'
p1415
sg28
Nsg29
g1324
sg31
S'5 - Svaert store'
p1416
sba(irunmatrix
M3Element
p1417
(dp1418
g3
Nsg4
S'Lite sannsynlig, Mulig'
p1419
sg6
S'white'
p1420
sg8
(lp1421
sg10
S'Possible'
p1422
sg12
S'Some'
p1423
sg14
g76
sg16
I0
sg17
S'Nat'
p1424
sg19
S'Naturlig utloest'
p1425
sg21
Nsg22
S'500'
p1426
sg24
S'900'
p1427
sg26
S'Noen bratte heng'
p1428
sg28
Nsg29
g1324
sg31
S'5 - Svaert store'
p1429
sba(irunmatrix
M3Element
p1430
(dp1431
g3
Nsg4
S'Sannsynlig, Meget sannsynlig'
p1432
sg6
S'gray'
p1433
sg8
(lp1434
sg10
S'Likely'
p1435
sg12
S'Some'
p1436
sg14
g76
sg16
I0
sg17
S'High'
p1437
sg19
S'Stor tilleggsbelastning'
p1438
sg21
Nsg22
S'500'
p1439
sg24
S'1000'
p1440
sg26
S'Noen bratte heng'
p1441
sg28
Nsg29
g1324
sg31
S'5 - Svaert store'
p1442
sba(irunmatrix
M3Element
p1443
(dp1444
g3
Nsg4
S'Sannsynlig, Meget sannsynlig'
p1445
sg6
S'gray'
p1446
sg8
(lp1447
sg10
S'Likely'
p1448
sg12
S'Some'
p1449
sg14
g76
sg16
I0
sg17
S'Low'
p1450
sg19
S'Liten tilleggsbelastning'
p1451
sg21
Nsg22
S'500'
p1452
sg24
S'1100'
p1453
sg26
S'Noen bratte heng'
p1454
sg28
Nsg29
g1324
sg31
S'5 - Svaert store'
p1455
sba(irunmatrix
M3Element
p1456
(dp1457
g3
Nsg4
S'Sannsynlig, Meget sannsynlig'
p1458
sg6
S'white'
p1459
sg8
(lp1460
sg10
S'Likely'
p1461
sg12
S'Some'
p1462
sg14
g76
sg16
I0
sg17
S'Nat'
p1463
sg19
S'Naturlig utloest'
p1464
sg21
Nsg22
S'500'
p1465
sg24
S'1200'
p1466
sg26
S'Noen bratte heng'
p1467
sg28
Nsg29
g1324
sg31
S'5 - Svaert store'
p1468
sba(irunmatrix
M3Element
p1469
(dp1470
g3
Nsg4
S'Lite sannsynlig, Mulig'
p1471
sg6
S'gray'
p1472
sg8
(lp1473
sg10
S'Possible'
p1474
sg12
S'Many'
p1475
sg14
g76
sg16
I0
sg17
S'High'
p1476
sg19
S'Stor tilleggsbelastning'
p1477
sg21
Nsg22
S'500'
p1478
sg24
S'1300'
p1479
sg26
S'Mange bratte heng'
p1480
sg28
Nsg29
g1324
sg31
S'5 - Svaert store'
p1481
sba(irunmatrix
M3Element
p1482
(dp1483
g3
Nsg4
S'Lite sannsynlig, Mulig'
p1484
sg6
S'white'
p1485
sg8
(lp1486
sg10
S'Possible'
p1487
sg12
S'Many'
p1488
sg14
g76
sg16
I0
sg17
S'Low'
p1489
sg19
S'Liten tilleggsbelastning'
p1490
sg21
Nsg22
S'500'
p1491
sg24
S'1400'
p1492
sg26
S'Mange bratte heng'
p1493
sg28
Nsg29
g1324
sg31
S'5 - Svaert store'
p1494
sba(irunmatrix
M3Element
p1495
(dp1496
g3
Nsg4
S'Lite sannsynlig, Mulig'
p1497
sg6
S'gray'
p1498
sg8
(lp1499
sg10
S'Possible'
p1500
sg12
S'Many'
p1501
sg14
g76
sg16
I0
sg17
S'Nat'
p1502
sg19
S'Naturlig utloest'
p1503
sg21
Nsg22
S'500'
p1504
sg24
S'1500'
p1505
sg26
S'Mange bratte heng'
p1506
sg28
Nsg29
g1324
sg31
S'5 - Svaert store'
p1507
sba(irunmatrix
M3Element
p1508
(dp1509
g3
Nsg4
S'Sannsynlig, Meget sannsynlig'
p1510
sg6
S'gray'
p1511
sg8
(lp1512
sg10
S'Likely'
p1513
sg12
S'Many'
p1514
sg14
g76
sg16
I0
sg17
S'High'
p1515
sg19
S'Stor tilleggsbelastning'
p1516
sg21
Nsg22
S'500'
p1517
sg24
S'1600'
p1518
sg26
S'Mange bratte heng'
p1519
sg28
Nsg29
g1324
sg31
S'5 - Svaert store'
p1520
sba(irunmatrix
M3Element
p1521
(dp1522
g3
Nsg4
S'Sannsynlig, Meget sannsynlig'
p1523
sg6
S'white'
p1524
sg8
(lp1525
sg10
S'Likely'
p1526
sg12
S'Many'
p1527
sg14
g76
sg16
I0
sg17
S'Low'
p1528
sg19
S'Liten tilleggsbelastning'
p1529
sg21
Nsg22
S'500'
p1530
sg24
S'1700'
p1531
sg26
S'Mange bratte heng'
p1532
sg28
Nsg29
g1324
sg31
S'5 - Svaert store'
p1533
sba(irunmatrix
M3Element
p1534
(dp1535
g3
Nsg4
S'Sannsynlig, Meget sannsynlig'
p1536
sg6
S'white'
p1537
sg8
(lp1538
sg10
S'Likely'
p1539
sg12
S'Many'
p1540
sg14
g1227
sg16
I5
sg17
S'Nat'
p1541
sg19
S'Naturlig utloest'
p1542
sg21
Nsg22
S'500'
p1543
sg24
S'1800'
p1544
sg26
S'Mange bratte heng'
p1545
sg28
Nsg29
g1324
sg31
S'5 - Svaert store'
p1546
sba(irunmatrix
M3Element
p1547
(dp1548
g3
Nsg4
S'Lite sannsynlig, Mulig'
p1549
sg6
S'gray'
p1550
sg8
(lp1551
sg10
S'Possible'
p1552
sg12
S'Most'
p1553
sg14
g76
sg16
I0
sg17
S'High'
p1554
sg19
S'Stor tilleggsbelastning'
p1555
sg21
Nsg22
S'500'
p1556
sg24
S'1900'
p1557
sg26
S'De fleste bratte heng, Ogsaa i mindre bratt terreng'
p1558
sg28
Nsg29
g1324
sg31
S'5 - Svaert store'
p1559
sba(irunmatrix
M3Element
p1560
(dp1561
g3
Nsg4
S'Lite sannsynlig, Mulig'
p1562
sg6
S'gray'
p1563
sg8
(lp1564
sg10
S'Possible'
p1565
sg12
S'Most'
p1566
sg14
g76
sg16
I0
sg17
S'Low'
p1567
sg19
S'Liten tilleggsbelastning'
p1568
sg21
Nsg22
S'500'
p1569
sg24
S'2000'
p1570
sg26
S'De fleste bratte heng, Ogsaa i mindre bratt terreng'
p1571
sg28
Nsg29
g1324
sg31
S'5 - Svaert store'
p1572
sba(irunmatrix
M3Element
p1573
(dp1574
g3
Nsg4
S'Lite sannsynlig, Mulig'
p1575
sg6
S'gray'
p1576
sg8
(lp1577
sg10
S'Possible'
p1578
sg12
S'Most'
p1579
sg14
g76
sg16
I0
sg17
S'Nat'
p1580
sg19
S'Naturlig utloest'
p1581
sg21
Nsg22
S'500'
p1582
sg24
S'2100'
p1583
sg26
S'De fleste bratte heng, Ogsaa i mindre bratt terreng'
p1584
sg28
Nsg29
g1324
sg31
S'5 - Svaert store'
p1585
sba(irunmatrix
M3Element
p1586
(dp1587
g3
Nsg4
S'Sannsynlig, Meget sannsynlig'
p1588
sg6
S'gray'
p1589
sg8
(lp1590
sg10
S'Likely'
p1591
sg12
S'Most'
p1592
sg14
g76
sg16
I0
sg17
S'High'
p1593
sg19
S'Stor tilleggsbelastning'
p1594
sg21
Nsg22
S'500'
p1595
sg24
S'2200'
p1596
sg26
S'De fleste bratte heng, Ogsaa i mindre bratt terreng'
p1597
sg28
Nsg29
g1324
sg31
S'5 - Svaert store'
p1598
sba(irunmatrix
M3Element
p1599
(dp1600
g3
Nsg4
S'Sannsynlig, Meget sannsynlig'
p1601
sg6
S'gray'
p1602
sg8
(lp1603
sg10
S'Likely'
p1604
sg12
S'Most'
p1605
sg14
g76
sg16
I0
sg17
S'Low'
p1606
sg19
S'Liten tilleggsbelastning'
p1607
sg21
Nsg22
S'500'
p1608
sg24
S'2300'
p1609
sg26
S'De fleste bratte heng, Ogsaa i mindre bratt terreng'
p1610
sg28
Nsg29
g1324
sg31
S'5 - Svaert store'
p1611
sba(irunmatrix
M3Element
p1612
(dp1613
g3
Nsg4
S'Sannsynlig, Meget sannsynlig'
p1614
sg6
S'white'
p1615
sg8
(lp1616
sg10
S'Likely'
p1617
sg12
S'Most'
p1618
sg14
g76
sg16
I0
sg17
S'Nat'
p1619
sg19
S'Naturlig utloest'
p1620
sg21
Nsg22
S'500'
p1621
sg24
S'2400'
p1622
sg26
S'De fleste bratte heng, Ogsaa i mindre bratt terreng'
p1623
sg28
Nsg29
g1324
sg31
S'5 - Svaert store'
p1624
sba.