(dp0
S'trigger'
p1
(dp2
S'keys'
p3
(lp4
S'Stor tilleggsbelastning'
p5
aS'Liten tilleggsbelastning'
p6
aS'Naturlig utloest'
p7
asS'colors'
p8
(lp9
S'0.7'
p10
asS'values'
p11
(lp12
S'Stor tilleggsbelastning'
p13
aS'Stor tilleggsbelastning'
p14
aS'Stor tilleggsbelastning'
p15
aS'Stor tilleggsbelastning'
p16
aS'Stor tilleggsbelastning'
p17
aS'Stor tilleggsbelastning'
p18
aS'Stor tilleggsbelastning'
p19
aS'Liten tilleggsbelastning'
p20
aS'Liten tilleggsbelastning'
p21
aS'Liten tilleggsbelastning'
p22
aS'Liten tilleggsbelastning'
p23
aS'Liten tilleggsbelastning'
p24
aS'Liten tilleggsbelastning'
p25
aS'Liten tilleggsbelastning'
p26
aS'Liten tilleggsbelastning'
p27
aS'Liten tilleggsbelastning'
p28
aS'Liten tilleggsbelastning'
p29
aS'Liten tilleggsbelastning'
p30
aS'Stor tilleggsbelastning'
p31
aS'Liten tilleggsbelastning'
p32
aS'Liten tilleggsbelastning'
p33
aS'Liten tilleggsbelastning'
p34
aS'Liten tilleggsbelastning'
p35
aS'Liten tilleggsbelastning'
p36
aS'Liten tilleggsbelastning'
p37
aS'Liten tilleggsbelastning'
p38
aS'Liten tilleggsbelastning'
p39
aS'Liten tilleggsbelastning'
p40
aS'Liten tilleggsbelastning'
p41
aS'Liten tilleggsbelastning'
p42
aS'Liten tilleggsbelastning'
p43
aS'Liten tilleggsbelastning'
p44
aS'Liten tilleggsbelastning'
p45
aS'Liten tilleggsbelastning'
p46
aS'Liten tilleggsbelastning'
p47
aS'Liten tilleggsbelastning'
p48
aS'Liten tilleggsbelastning'
p49
aS'Liten tilleggsbelastning'
p50
aS'Liten tilleggsbelastning'
p51
aS'Liten tilleggsbelastning'
p52
aS'Liten tilleggsbelastning'
p53
aS'Liten tilleggsbelastning'
p54
aS'Liten tilleggsbelastning'
p55
aS'Liten tilleggsbelastning'
p56
aS'Liten tilleggsbelastning'
p57
aS'Liten tilleggsbelastning'
p58
aS'Liten tilleggsbelastning'
p59
aS'Liten tilleggsbelastning'
p60
aS'Liten tilleggsbelastning'
p61
aS'Liten tilleggsbelastning'
p62
aS'Liten tilleggsbelastning'
p63
aS'Liten tilleggsbelastning'
p64
aS'Liten tilleggsbelastning'
p65
aS'Liten tilleggsbelastning'
p66
aS'Liten tilleggsbelastning'
p67
aS'Liten tilleggsbelastning'
p68
aS'Liten tilleggsbelastning'
p69
aS'Liten tilleggsbelastning'
p70
aS'Liten tilleggsbelastning'
p71
aS'Liten tilleggsbelastning'
p72
aS'Liten tilleggsbelastning'
p73
aS'Liten tilleggsbelastning'
p74
aS'Liten tilleggsbelastning'
p75
aS'Liten tilleggsbelastning'
p76
aS'Liten tilleggsbelastning'
p77
aS'Liten tilleggsbelastning'
p78
aS'Liten tilleggsbelastning'
p79
aS'Liten tilleggsbelastning'
p80
aS'Liten tilleggsbelastning'
p81
aS'Liten tilleggsbelastning'
p82
aS'Liten tilleggsbelastning'
p83
aS'Liten tilleggsbelastning'
p84
aS'Liten tilleggsbelastning'
p85
aS'Liten tilleggsbelastning'
p86
aS'Liten tilleggsbelastning'
p87
aS'Liten tilleggsbelastning'
p88
aS'Liten tilleggsbelastning'
p89
aS'Liten tilleggsbelastning'
p90
aS'Liten tilleggsbelastning'
p91
aS'Liten tilleggsbelastning'
p92
aS'Liten tilleggsbelastning'
p93
aS'Liten tilleggsbelastning'
p94
aS'Liten tilleggsbelastning'
p95
aS'Liten tilleggsbelastning'
p96
aS'Liten tilleggsbelastning'
p97
aS'Liten tilleggsbelastning'
p98
aS'Liten tilleggsbelastning'
p99
aS'Liten tilleggsbelastning'
p100
aS'Liten tilleggsbelastning'
p101
aS'Liten tilleggsbelastning'
p102
aS'Liten tilleggsbelastning'
p103
aS'Liten tilleggsbelastning'
p104
aS'Liten tilleggsbelastning'
p105
aS'Liten tilleggsbelastning'
p106
aS'Liten tilleggsbelastning'
p107
aS'Liten tilleggsbelastning'
p108
aS'Stor tilleggsbelastning'
p109
aS'Stor tilleggsbelastning'
p110
aS'Stor tilleggsbelastning'
p111
aS'Stor tilleggsbelastning'
p112
aS'Liten tilleggsbelastning'
p113
aS'Liten tilleggsbelastning'
p114
aS'Liten tilleggsbelastning'
p115
aS'Liten tilleggsbelastning'
p116
aS'Liten tilleggsbelastning'
p117
aS'Liten tilleggsbelastning'
p118
aS'Liten tilleggsbelastning'
p119
aS'Liten tilleggsbelastning'
p120
aS'Liten tilleggsbelastning'
p121
aS'Liten tilleggsbelastning'
p122
aS'Liten tilleggsbelastning'
p123
aS'Liten tilleggsbelastning'
p124
aS'Liten tilleggsbelastning'
p125
aS'Stor tilleggsbelastning'
p126
aS'Liten tilleggsbelastning'
p127
aS'Liten tilleggsbelastning'
p128
aS'Liten tilleggsbelastning'
p129
aS'Liten tilleggsbelastning'
p130
aS'Liten tilleggsbelastning'
p131
aS'Liten tilleggsbelastning'
p132
aS'Stor tilleggsbelastning'
p133
aS'Liten tilleggsbelastning'
p134
aS'Liten tilleggsbelastning'
p135
aS'Liten tilleggsbelastning'
p136
aS'Liten tilleggsbelastning'
p137
aS'Liten tilleggsbelastning'
p138
aS'Liten tilleggsbelastning'
p139
aS'Stor tilleggsbelastning'
p140
aS'Naturlig utloest'
p141
aS'Naturlig utloest'
p142
aS'Naturlig utloest'
p143
aS'Naturlig utloest'
p144
aS'Naturlig utloest'
p145
aS'Naturlig utloest'
p146
aS'Stor tilleggsbelastning'
p147
aS'Liten tilleggsbelastning'
p148
aS'Liten tilleggsbelastning'
p149
aS'Liten tilleggsbelastning'
p150
aS'Liten tilleggsbelastning'
p151
aS'Liten tilleggsbelastning'
p152
aS'Liten tilleggsbelastning'
p153
aS'Liten tilleggsbelastning'
p154
aS'Liten tilleggsbelastning'
p155
aS'Liten tilleggsbelastning'
p156
aS'Liten tilleggsbelastning'
p157
aS'Liten tilleggsbelastning'
p158
aS'Liten tilleggsbelastning'
p159
aS'Liten tilleggsbelastning'
p160
aS'Liten tilleggsbelastning'
p161
aS'Liten tilleggsbelastning'
p162
aS'Liten tilleggsbelastning'
p163
aS'Liten tilleggsbelastning'
p164
aS'Liten tilleggsbelastning'
p165
aS'Liten tilleggsbelastning'
p166
aS'Liten tilleggsbelastning'
p167
aS'Liten tilleggsbelastning'
p168
aS'Liten tilleggsbelastning'
p169
aS'Liten tilleggsbelastning'
p170
aS'Liten tilleggsbelastning'
p171
aS'Liten tilleggsbelastning'
p172
aS'Liten tilleggsbelastning'
p173
aS'Liten tilleggsbelastning'
p174
aS'Naturlig utloest'
p175
aS'Liten tilleggsbelastning'
p176
aS'Naturlig utloest'
p177
aS'Liten tilleggsbelastning'
p178
aS'Naturlig utloest'
p179
aS'Liten tilleggsbelastning'
p180
aS'Liten tilleggsbelastning'
p181
aS'Liten tilleggsbelastning'
p182
aS'Liten tilleggsbelastning'
p183
aS'Liten tilleggsbelastning'
p184
aS'Liten tilleggsbelastning'
p185
aS'Liten tilleggsbelastning'
p186
aS'Liten tilleggsbelastning'
p187
aS'Liten tilleggsbelastning'
p188
aS'Liten tilleggsbelastning'
p189
aS'Liten tilleggsbelastning'
p190
aS'Liten tilleggsbelastning'
p191
aS'Liten tilleggsbelastning'
p192
aS'Liten tilleggsbelastning'
p193
aS'Liten tilleggsbelastning'
p194
aS'Liten tilleggsbelastning'
p195
aS'Liten tilleggsbelastning'
p196
aS'Liten tilleggsbelastning'
p197
aS'Liten tilleggsbelastning'
p198
aS'Liten tilleggsbelastning'
p199
aS'Liten tilleggsbelastning'
p200
aS'Liten tilleggsbelastning'
p201
aS'Liten tilleggsbelastning'
p202
aS'Liten tilleggsbelastning'
p203
aS'Liten tilleggsbelastning'
p204
aS'Liten tilleggsbelastning'
p205
aS'Liten tilleggsbelastning'
p206
aS'Liten tilleggsbelastning'
p207
aS'Liten tilleggsbelastning'
p208
aS'Liten tilleggsbelastning'
p209
aS'Liten tilleggsbelastning'
p210
aS'Liten tilleggsbelastning'
p211
aS'Liten tilleggsbelastning'
p212
aS'Liten tilleggsbelastning'
p213
aS'Liten tilleggsbelastning'
p214
aS'Liten tilleggsbelastning'
p215
aS'Liten tilleggsbelastning'
p216
aS'Liten tilleggsbelastning'
p217
aS'Naturlig utloest'
p218
aS'Naturlig utloest'
p219
aS'Naturlig utloest'
p220
aS'Naturlig utloest'
p221
aS'Naturlig utloest'
p222
aS'Naturlig utloest'
p223
aS'Naturlig utloest'
p224
aS'Stor tilleggsbelastning'
p225
aS'Naturlig utloest'
p226
aS'Naturlig utloest'
p227
aS'Naturlig utloest'
p228
aS'Naturlig utloest'
p229
aS'Naturlig utloest'
p230
aS'Naturlig utloest'
p231
aS'Naturlig utloest'
p232
aS'Naturlig utloest'
p233
aS'Stor tilleggsbelastning'
p234
aS'Naturlig utloest'
p235
aS'Naturlig utloest'
p236
aS'Naturlig utloest'
p237
aS'Naturlig utloest'
p238
aS'Naturlig utloest'
p239
aS'Naturlig utloest'
p240
aS'Naturlig utloest'
p241
aS'Stor tilleggsbelastning'
p242
aS'Naturlig utloest'
p243
aS'Naturlig utloest'
p244
aS'Naturlig utloest'
p245
aS'Naturlig utloest'
p246
aS'Naturlig utloest'
p247
aS'Naturlig utloest'
p248
aS'Naturlig utloest'
p249
aS'Liten tilleggsbelastning'
p250
assS'distribution'
p251
(dp252
g3
(lp253
S'Isolerte faresoner'
p254
aS'Noen bratte heng'
p255
aS'Mange bratte heng'
p256
aS'De fleste bratte heng'
p257
aS'Ogsaa i mindre bratt terreng'
p258
asg8
(lp259
g10
asg11
(lp260
S'Noen bratte heng'
p261
aS'Noen bratte heng'
p262
aS'Noen bratte heng'
p263
aS'Noen bratte heng'
p264
aS'Noen bratte heng'
p265
aS'Noen bratte heng'
p266
aS'Isolerte faresoner'
p267
aS'Noen bratte heng'
p268
aS'Noen bratte heng'
p269
aS'Noen bratte heng'
p270
aS'Noen bratte heng'
p271
aS'Noen bratte heng'
p272
aS'Isolerte faresoner'
p273
aS'Noen bratte heng'
p274
aS'Noen bratte heng'
p275
aS'Noen bratte heng'
p276
aS'Noen bratte heng'
p277
aS'Noen bratte heng'
p278
aS'Isolerte faresoner'
p279
aS'Noen bratte heng'
p280
aS'Noen bratte heng'
p281
aS'Noen bratte heng'
p282
aS'Noen bratte heng'
p283
aS'Noen bratte heng'
p284
aS'Isolerte faresoner'
p285
aS'Noen bratte heng'
p286
aS'Noen bratte heng'
p287
aS'Noen bratte heng'
p288
aS'Noen bratte heng'
p289
aS'Noen bratte heng'
p290
aS'Noen bratte heng'
p291
aS'Noen bratte heng'
p292
aS'Noen bratte heng'
p293
aS'Noen bratte heng'
p294
aS'Noen bratte heng'
p295
aS'Noen bratte heng'
p296
aS'Mange bratte heng'
p297
aS'Mange bratte heng'
p298
aS'Noen bratte heng'
p299
aS'Mange bratte heng'
p300
aS'Mange bratte heng'
p301
aS'Mange bratte heng'
p302
aS'Mange bratte heng'
p303
aS'Mange bratte heng'
p304
aS'Noen bratte heng'
p305
aS'Noen bratte heng'
p306
aS'Noen bratte heng'
p307
aS'Mange bratte heng'
p308
aS'Mange bratte heng'
p309
aS'Noen bratte heng'
p310
aS'Noen bratte heng'
p311
aS'Mange bratte heng'
p312
aS'Mange bratte heng'
p313
aS'Noen bratte heng'
p314
aS'Mange bratte heng'
p315
aS'Noen bratte heng'
p316
aS'Noen bratte heng'
p317
aS'Noen bratte heng'
p318
aS'Noen bratte heng'
p319
aS'Noen bratte heng'
p320
aS'Noen bratte heng'
p321
aS'Noen bratte heng'
p322
aS'Noen bratte heng'
p323
aS'Noen bratte heng'
p324
aS'Noen bratte heng'
p325
aS'Noen bratte heng'
p326
aS'Noen bratte heng'
p327
aS'Noen bratte heng'
p328
aS'Noen bratte heng'
p329
aS'Noen bratte heng'
p330
aS'Noen bratte heng'
p331
aS'Noen bratte heng'
p332
aS'Noen bratte heng'
p333
aS'Noen bratte heng'
p334
aS'Noen bratte heng'
p335
aS'Noen bratte heng'
p336
aS'Noen bratte heng'
p337
aS'Noen bratte heng'
p338
aS'Noen bratte heng'
p339
aS'Noen bratte heng'
p340
aS'Noen bratte heng'
p341
aS'Noen bratte heng'
p342
aS'Noen bratte heng'
p343
aS'Noen bratte heng'
p344
aS'Noen bratte heng'
p345
aS'Noen bratte heng'
p346
aS'Noen bratte heng'
p347
aS'Noen bratte heng'
p348
aS'Noen bratte heng'
p349
aS'Noen bratte heng'
p350
aS'Noen bratte heng'
p351
aS'Noen bratte heng'
p352
aS'Noen bratte heng'
p353
aS'Noen bratte heng'
p354
aS'Noen bratte heng'
p355
aS'Noen bratte heng'
p356
aS'Noen bratte heng'
p357
aS'Noen bratte heng'
p358
aS'Noen bratte heng'
p359
aS'Noen bratte heng'
p360
aS'Noen bratte heng'
p361
aS'Noen bratte heng'
p362
aS'Noen bratte heng'
p363
aS'Noen bratte heng'
p364
aS'Noen bratte heng'
p365
aS'Noen bratte heng'
p366
aS'Noen bratte heng'
p367
aS'Noen bratte heng'
p368
aS'Noen bratte heng'
p369
aS'Noen bratte heng'
p370
aS'Noen bratte heng'
p371
aS'Noen bratte heng'
p372
aS'Noen bratte heng'
p373
aS'Noen bratte heng'
p374
aS'Noen bratte heng'
p375
aS'Noen bratte heng'
p376
aS'Noen bratte heng'
p377
aS'Noen bratte heng'
p378
aS'Noen bratte heng'
p379
aS'Noen bratte heng'
p380
aS'Noen bratte heng'
p381
aS'Mange bratte heng'
p382
aS'Mange bratte heng'
p383
aS'Mange bratte heng'
p384
aS'Mange bratte heng'
p385
aS'Mange bratte heng'
p386
aS'Mange bratte heng'
p387
aS'Noen bratte heng'
p388
aS'Noen bratte heng'
p389
aS'Noen bratte heng'
p390
aS'Noen bratte heng'
p391
aS'Noen bratte heng'
p392
aS'Noen bratte heng'
p393
aS'Noen bratte heng'
p394
aS'Noen bratte heng'
p395
aS'Noen bratte heng'
p396
aS'Noen bratte heng'
p397
aS'Noen bratte heng'
p398
aS'Noen bratte heng'
p399
aS'Noen bratte heng'
p400
aS'Noen bratte heng'
p401
aS'Noen bratte heng'
p402
aS'Noen bratte heng'
p403
aS'Isolerte faresoner'
p404
aS'Isolerte faresoner'
p405
aS'Isolerte faresoner'
p406
aS'Noen bratte heng'
p407
aS'Isolerte faresoner'
p408
aS'Noen bratte heng'
p409
aS'Noen bratte heng'
p410
aS'Isolerte faresoner'
p411
aS'Isolerte faresoner'
p412
aS'Isolerte faresoner'
p413
aS'Noen bratte heng'
p414
aS'Isolerte faresoner'
p415
aS'Noen bratte heng'
p416
aS'Noen bratte heng'
p417
aS'Noen bratte heng'
p418
aS'Noen bratte heng'
p419
aS'Noen bratte heng'
p420
aS'Noen bratte heng'
p421
aS'Noen bratte heng'
p422
aS'Noen bratte heng'
p423
aS'Noen bratte heng'
p424
aS'Noen bratte heng'
p425
aS'Noen bratte heng'
p426
aS'Noen bratte heng'
p427
aS'Noen bratte heng'
p428
aS'Noen bratte heng'
p429
aS'Noen bratte heng'
p430
aS'Noen bratte heng'
p431
aS'Noen bratte heng'
p432
aS'Noen bratte heng'
p433
aS'Noen bratte heng'
p434
aS'Noen bratte heng'
p435
aS'Noen bratte heng'
p436
aS'Noen bratte heng'
p437
aS'Noen bratte heng'
p438
aS'Noen bratte heng'
p439
aS'Isolerte faresoner'
p440
aS'Isolerte faresoner'
p441
aS'Noen bratte heng'
p442
aS'Noen bratte heng'
p443
aS'Noen bratte heng'
p444
aS'Isolerte faresoner'
p445
aS'Isolerte faresoner'
p446
aS'Isolerte faresoner'
p447
aS'Isolerte faresoner'
p448
aS'Isolerte faresoner'
p449
aS'Isolerte faresoner'
p450
aS'Isolerte faresoner'
p451
aS'Isolerte faresoner'
p452
aS'Noen bratte heng'
p453
aS'Noen bratte heng'
p454
aS'Noen bratte heng'
p455
aS'Isolerte faresoner'
p456
aS'Noen bratte heng'
p457
aS'Noen bratte heng'
p458
aS'Isolerte faresoner'
p459
aS'Noen bratte heng'
p460
aS'Noen bratte heng'
p461
aS'Noen bratte heng'
p462
aS'Isolerte faresoner'
p463
aS'Noen bratte heng'
p464
aS'Noen bratte heng'
p465
aS'Noen bratte heng'
p466
aS'Noen bratte heng'
p467
aS'Noen bratte heng'
p468
aS'Noen bratte heng'
p469
aS'Noen bratte heng'
p470
aS'Noen bratte heng'
p471
aS'Noen bratte heng'
p472
aS'Noen bratte heng'
p473
aS'Noen bratte heng'
p474
aS'Noen bratte heng'
p475
aS'Noen bratte heng'
p476
aS'Noen bratte heng'
p477
aS'Noen bratte heng'
p478
aS'Noen bratte heng'
p479
aS'Noen bratte heng'
p480
aS'Noen bratte heng'
p481
aS'Noen bratte heng'
p482
aS'Noen bratte heng'
p483
aS'Noen bratte heng'
p484
aS'Noen bratte heng'
p485
aS'Noen bratte heng'
p486
aS'Isolerte faresoner'
p487
aS'Noen bratte heng'
p488
aS'Noen bratte heng'
p489
aS'Noen bratte heng'
p490
aS'Noen bratte heng'
p491
aS'Noen bratte heng'
p492
aS'Noen bratte heng'
p493
aS'Noen bratte heng'
p494
aS'Isolerte faresoner'
p495
aS'Noen bratte heng'
p496
aS'Noen bratte heng'
p497
aS'Noen bratte heng'
p498
assS'size'
p499
(dp500
g3
(lp501
S'1 - Harmloest'
p502
aS'2 - Smaa'
p503
aS'3 - Middels'
p504
aS'4 - Store'
p505
aS'5 - Svaert store'
p506
aS'Ukjent'
p507
asg8
(lp508
g10
asg11
(lp509
S'2 - Smaa'
p510
aS'3 - Middels'
p511
aS'2 - Smaa'
p512
aS'2 - Smaa'
p513
aS'2 - Smaa'
p514
aS'2 - Smaa'
p515
aS'2 - Smaa'
p516
aS'2 - Smaa'
p517
aS'2 - Smaa'
p518
aS'2 - Smaa'
p519
aS'2 - Smaa'
p520
aS'2 - Smaa'
p521
aS'2 - Smaa'
p522
aS'2 - Smaa'
p523
aS'2 - Smaa'
p524
aS'2 - Smaa'
p525
aS'2 - Smaa'
p526
aS'2 - Smaa'
p527
aS'2 - Smaa'
p528
aS'2 - Smaa'
p529
aS'2 - Smaa'
p530
aS'2 - Smaa'
p531
aS'2 - Smaa'
p532
aS'2 - Smaa'
p533
aS'2 - Smaa'
p534
aS'2 - Smaa'
p535
aS'2 - Smaa'
p536
aS'2 - Smaa'
p537
aS'2 - Smaa'
p538
aS'2 - Smaa'
p539
aS'2 - Smaa'
p540
aS'2 - Smaa'
p541
aS'2 - Smaa'
p542
aS'2 - Smaa'
p543
aS'2 - Smaa'
p544
aS'2 - Smaa'
p545
aS'2 - Smaa'
p546
aS'3 - Middels'
p547
aS'2 - Smaa'
p548
aS'2 - Smaa'
p549
aS'3 - Middels'
p550
aS'3 - Middels'
p551
aS'3 - Middels'
p552
aS'3 - Middels'
p553
aS'3 - Middels'
p554
aS'3 - Middels'
p555
aS'2 - Smaa'
p556
aS'2 - Smaa'
p557
aS'2 - Smaa'
p558
aS'3 - Middels'
p559
aS'3 - Middels'
p560
aS'3 - Middels'
p561
aS'3 - Middels'
p562
aS'2 - Smaa'
p563
aS'3 - Middels'
p564
aS'3 - Middels'
p565
aS'3 - Middels'
p566
aS'2 - Smaa'
p567
aS'2 - Smaa'
p568
aS'2 - Smaa'
p569
aS'2 - Smaa'
p570
aS'2 - Smaa'
p571
aS'2 - Smaa'
p572
aS'3 - Middels'
p573
aS'3 - Middels'
p574
aS'2 - Smaa'
p575
aS'2 - Smaa'
p576
aS'2 - Smaa'
p577
aS'2 - Smaa'
p578
aS'2 - Smaa'
p579
aS'2 - Smaa'
p580
aS'2 - Smaa'
p581
aS'2 - Smaa'
p582
aS'2 - Smaa'
p583
aS'2 - Smaa'
p584
aS'2 - Smaa'
p585
aS'3 - Middels'
p586
aS'2 - Smaa'
p587
aS'2 - Smaa'
p588
aS'2 - Smaa'
p589
aS'2 - Smaa'
p590
aS'2 - Smaa'
p591
aS'2 - Smaa'
p592
aS'2 - Smaa'
p593
aS'2 - Smaa'
p594
aS'2 - Smaa'
p595
aS'2 - Smaa'
p596
aS'2 - Smaa'
p597
aS'2 - Smaa'
p598
aS'2 - Smaa'
p599
aS'2 - Smaa'
p600
aS'2 - Smaa'
p601
aS'2 - Smaa'
p602
aS'2 - Smaa'
p603
aS'2 - Smaa'
p604
aS'2 - Smaa'
p605
aS'2 - Smaa'
p606
aS'2 - Smaa'
p607
aS'2 - Smaa'
p608
aS'2 - Smaa'
p609
aS'2 - Smaa'
p610
aS'3 - Middels'
p611
aS'3 - Middels'
p612
aS'3 - Middels'
p613
aS'3 - Middels'
p614
aS'3 - Middels'
p615
aS'3 - Middels'
p616
aS'2 - Smaa'
p617
aS'2 - Smaa'
p618
aS'2 - Smaa'
p619
aS'2 - Smaa'
p620
aS'2 - Smaa'
p621
aS'2 - Smaa'
p622
aS'3 - Middels'
p623
aS'2 - Smaa'
p624
aS'2 - Smaa'
p625
aS'2 - Smaa'
p626
aS'2 - Smaa'
p627
aS'2 - Smaa'
p628
aS'2 - Smaa'
p629
aS'3 - Middels'
p630
aS'2 - Smaa'
p631
aS'2 - Smaa'
p632
aS'2 - Smaa'
p633
aS'2 - Smaa'
p634
aS'2 - Smaa'
p635
aS'2 - Smaa'
p636
aS'3 - Middels'
p637
aS'3 - Middels'
p638
aS'3 - Middels'
p639
aS'3 - Middels'
p640
aS'3 - Middels'
p641
aS'3 - Middels'
p642
aS'3 - Middels'
p643
aS'3 - Middels'
p644
aS'2 - Smaa'
p645
aS'2 - Smaa'
p646
aS'2 - Smaa'
p647
aS'2 - Smaa'
p648
aS'2 - Smaa'
p649
aS'2 - Smaa'
p650
aS'2 - Smaa'
p651
aS'2 - Smaa'
p652
aS'2 - Smaa'
p653
aS'2 - Smaa'
p654
aS'2 - Smaa'
p655
aS'2 - Smaa'
p656
aS'2 - Smaa'
p657
aS'2 - Smaa'
p658
aS'2 - Smaa'
p659
aS'2 - Smaa'
p660
aS'2 - Smaa'
p661
aS'2 - Smaa'
p662
aS'2 - Smaa'
p663
aS'2 - Smaa'
p664
aS'2 - Smaa'
p665
aS'2 - Smaa'
p666
aS'2 - Smaa'
p667
aS'2 - Smaa'
p668
aS'2 - Smaa'
p669
aS'2 - Smaa'
p670
aS'2 - Smaa'
p671
aS'1 - Harmloest'
p672
aS'2 - Smaa'
p673
aS'1 - Harmloest'
p674
aS'3 - Middels'
p675
aS'1 - Harmloest'
p676
aS'2 - Smaa'
p677
aS'2 - Smaa'
p678
aS'2 - Smaa'
p679
aS'2 - Smaa'
p680
aS'2 - Smaa'
p681
aS'2 - Smaa'
p682
aS'2 - Smaa'
p683
aS'2 - Smaa'
p684
aS'2 - Smaa'
p685
aS'2 - Smaa'
p686
aS'2 - Smaa'
p687
aS'2 - Smaa'
p688
aS'1 - Harmloest'
p689
aS'1 - Harmloest'
p690
aS'2 - Smaa'
p691
aS'2 - Smaa'
p692
aS'2 - Smaa'
p693
aS'2 - Smaa'
p694
aS'2 - Smaa'
p695
aS'1 - Harmloest'
p696
aS'1 - Harmloest'
p697
aS'2 - Smaa'
p698
aS'2 - Smaa'
p699
aS'2 - Smaa'
p700
aS'2 - Smaa'
p701
aS'2 - Smaa'
p702
aS'2 - Smaa'
p703
aS'2 - Smaa'
p704
aS'2 - Smaa'
p705
aS'2 - Smaa'
p706
aS'2 - Smaa'
p707
aS'2 - Smaa'
p708
aS'2 - Smaa'
p709
aS'2 - Smaa'
p710
aS'2 - Smaa'
p711
aS'2 - Smaa'
p712
aS'2 - Smaa'
p713
aS'2 - Smaa'
p714
aS'2 - Smaa'
p715
aS'2 - Smaa'
p716
aS'2 - Smaa'
p717
aS'2 - Smaa'
p718
aS'2 - Smaa'
p719
aS'2 - Smaa'
p720
aS'2 - Smaa'
p721
aS'2 - Smaa'
p722
aS'2 - Smaa'
p723
aS'2 - Smaa'
p724
aS'2 - Smaa'
p725
aS'2 - Smaa'
p726
aS'2 - Smaa'
p727
aS'2 - Smaa'
p728
aS'2 - Smaa'
p729
aS'2 - Smaa'
p730
aS'2 - Smaa'
p731
aS'2 - Smaa'
p732
aS'2 - Smaa'
p733
aS'2 - Smaa'
p734
aS'2 - Smaa'
p735
aS'2 - Smaa'
p736
aS'2 - Smaa'
p737
aS'2 - Smaa'
p738
aS'2 - Smaa'
p739
aS'2 - Smaa'
p740
aS'2 - Smaa'
p741
aS'2 - Smaa'
p742
aS'2 - Smaa'
p743
aS'2 - Smaa'
p744
aS'2 - Smaa'
p745
aS'2 - Smaa'
p746
aS'2 - Smaa'
p747
assS'probability'
p748
(dp749
g3
(lp750
S'Lite sannsynlig'
p751
aS'Mulig'
p752
aS'Sannsynlig'
p753
aS'Meget sannsynlig'
p754
asg8
(lp755
g10
asg11
(lp756
S'Mulig'
p757
aS'Mulig'
p758
aS'Mulig'
p759
aS'Mulig'
p760
aS'Mulig'
p761
aS'Mulig'
p762
aS'Mulig'
p763
aS'Mulig'
p764
aS'Mulig'
p765
aS'Mulig'
p766
aS'Mulig'
p767
aS'Mulig'
p768
aS'Mulig'
p769
aS'Mulig'
p770
aS'Mulig'
p771
aS'Mulig'
p772
aS'Mulig'
p773
aS'Mulig'
p774
aS'Mulig'
p775
aS'Mulig'
p776
aS'Mulig'
p777
aS'Mulig'
p778
aS'Mulig'
p779
aS'Mulig'
p780
aS'Mulig'
p781
aS'Mulig'
p782
aS'Mulig'
p783
aS'Mulig'
p784
aS'Mulig'
p785
aS'Mulig'
p786
aS'Mulig'
p787
aS'Mulig'
p788
aS'Mulig'
p789
aS'Mulig'
p790
aS'Mulig'
p791
aS'Mulig'
p792
aS'Mulig'
p793
aS'Mulig'
p794
aS'Mulig'
p795
aS'Mulig'
p796
aS'Mulig'
p797
aS'Mulig'
p798
aS'Mulig'
p799
aS'Mulig'
p800
aS'Mulig'
p801
aS'Mulig'
p802
aS'Mulig'
p803
aS'Mulig'
p804
aS'Mulig'
p805
aS'Mulig'
p806
aS'Mulig'
p807
aS'Mulig'
p808
aS'Mulig'
p809
aS'Mulig'
p810
aS'Mulig'
p811
aS'Mulig'
p812
aS'Mulig'
p813
aS'Mulig'
p814
aS'Mulig'
p815
aS'Mulig'
p816
aS'Mulig'
p817
aS'Mulig'
p818
aS'Mulig'
p819
aS'Mulig'
p820
aS'Mulig'
p821
aS'Mulig'
p822
aS'Mulig'
p823
aS'Mulig'
p824
aS'Mulig'
p825
aS'Mulig'
p826
aS'Mulig'
p827
aS'Mulig'
p828
aS'Mulig'
p829
aS'Mulig'
p830
aS'Mulig'
p831
aS'Mulig'
p832
aS'Mulig'
p833
aS'Mulig'
p834
aS'Mulig'
p835
aS'Mulig'
p836
aS'Mulig'
p837
aS'Mulig'
p838
aS'Mulig'
p839
aS'Mulig'
p840
aS'Mulig'
p841
aS'Mulig'
p842
aS'Mulig'
p843
aS'Mulig'
p844
aS'Mulig'
p845
aS'Mulig'
p846
aS'Mulig'
p847
aS'Mulig'
p848
aS'Mulig'
p849
aS'Mulig'
p850
aS'Mulig'
p851
aS'Mulig'
p852
aS'Mulig'
p853
aS'Mulig'
p854
aS'Mulig'
p855
aS'Mulig'
p856
aS'Mulig'
p857
aS'Mulig'
p858
aS'Mulig'
p859
aS'Mulig'
p860
aS'Mulig'
p861
aS'Mulig'
p862
aS'Mulig'
p863
aS'Mulig'
p864
aS'Mulig'
p865
aS'Mulig'
p866
aS'Mulig'
p867
aS'Mulig'
p868
aS'Mulig'
p869
aS'Mulig'
p870
aS'Mulig'
p871
aS'Mulig'
p872
aS'Mulig'
p873
aS'Mulig'
p874
aS'Mulig'
p875
aS'Mulig'
p876
aS'Mulig'
p877
aS'Mulig'
p878
aS'Mulig'
p879
aS'Mulig'
p880
aS'Mulig'
p881
aS'Mulig'
p882
aS'Mulig'
p883
aS'Mulig'
p884
aS'Mulig'
p885
aS'Mulig'
p886
aS'Mulig'
p887
aS'Mulig'
p888
aS'Mulig'
p889
aS'Mulig'
p890
aS'Mulig'
p891
aS'Mulig'
p892
aS'Mulig'
p893
aS'Mulig'
p894
aS'Mulig'
p895
aS'Mulig'
p896
aS'Mulig'
p897
aS'Mulig'
p898
aS'Mulig'
p899
aS'Mulig'
p900
aS'Mulig'
p901
aS'Mulig'
p902
aS'Mulig'
p903
aS'Mulig'
p904
aS'Mulig'
p905
aS'Mulig'
p906
aS'Mulig'
p907
aS'Mulig'
p908
aS'Mulig'
p909
aS'Mulig'
p910
aS'Mulig'
p911
aS'Mulig'
p912
aS'Mulig'
p913
aS'Mulig'
p914
aS'Mulig'
p915
aS'Mulig'
p916
aS'Mulig'
p917
aS'Mulig'
p918
aS'Mulig'
p919
aS'Mulig'
p920
aS'Mulig'
p921
aS'Mulig'
p922
aS'Mulig'
p923
aS'Mulig'
p924
aS'Mulig'
p925
aS'Mulig'
p926
aS'Mulig'
p927
aS'Mulig'
p928
aS'Mulig'
p929
aS'Mulig'
p930
aS'Mulig'
p931
aS'Mulig'
p932
aS'Mulig'
p933
aS'Mulig'
p934
aS'Mulig'
p935
aS'Mulig'
p936
aS'Mulig'
p937
aS'Mulig'
p938
aS'Mulig'
p939
aS'Mulig'
p940
aS'Mulig'
p941
aS'Mulig'
p942
aS'Mulig'
p943
aS'Mulig'
p944
aS'Mulig'
p945
aS'Mulig'
p946
aS'Mulig'
p947
aS'Mulig'
p948
aS'Mulig'
p949
aS'Mulig'
p950
aS'Mulig'
p951
aS'Mulig'
p952
aS'Mulig'
p953
aS'Mulig'
p954
aS'Mulig'
p955
aS'Mulig'
p956
aS'Mulig'
p957
aS'Mulig'
p958
aS'Mulig'
p959
aS'Mulig'
p960
aS'Mulig'
p961
aS'Mulig'
p962
aS'Mulig'
p963
aS'Mulig'
p964
aS'Mulig'
p965
aS'Mulig'
p966
aS'Mulig'
p967
aS'Mulig'
p968
aS'Mulig'
p969
aS'Mulig'
p970
aS'Mulig'
p971
aS'Mulig'
p972
aS'Mulig'
p973
aS'Mulig'
p974
aS'Mulig'
p975
aS'Mulig'
p976
aS'Mulig'
p977
aS'Mulig'
p978
aS'Mulig'
p979
aS'Mulig'
p980
aS'Mulig'
p981
aS'Mulig'
p982
aS'Mulig'
p983
aS'Mulig'
p984
aS'Mulig'
p985
aS'Mulig'
p986
aS'Mulig'
p987
aS'Mulig'
p988
aS'Mulig'
p989
aS'Mulig'
p990
aS'Mulig'
p991
aS'Mulig'
p992
aS'Mulig'
p993
aS'Mulig'
p994
assS'level'
p995
(dp996
g3
(lp997
I1
aI2
aI3
aI4
aI5
asg8
(lp998
S'#ccff66'
p999
aS'#ffff00'
p1000
aS'#ff9900'
p1001
aS'#ff0000'
p1002
aS'k'
p1003
asg11
(lp1004
I2
aI2
aI2
aI2
aI2
aI2
aI1
aI2
aI2
aI2
aI2
aI2
aI1
aI2
aI2
aI2
aI2
aI2
aI1
aI2
aI2
aI2
aI2
aI2
aI2
aI2
aI2
aI2
aI2
aI2
aI2
aI2
aI2
aI2
aI2
aI2
aI3
aI3
aI3
aI3
aI3
aI3
aI3
aI3
aI3
aI3
aI2
aI3
aI3
aI3
aI3
aI3
aI3
aI2
aI3
aI3
aI3
aI2
aI2
aI2
aI2
aI2
aI2
aI3
aI3
aI2
aI2
aI2
aI2
aI2
aI2
aI2
aI2
aI2
aI2
aI2
aI3
aI2
aI2
aI2
aI2
aI2
aI2
aI2
aI2
aI2
aI2
aI2
aI2
aI2
aI2
aI2
aI2
aI2
aI2
aI2
aI2
aI2
aI2
aI2
aI2
aI3
aI3
aI3
aI3
aI3
aI3
aI2
aI2
aI2
aI2
aI2
aI2
aI2
aI2
aI2
aI2
aI2
aI2
aI2
aI2
aI3
aI3
aI3
aI3
aI3
aI3
aI2
aI3
aI3
aI3
aI3
aI3
aI3
aI2
aI2
aI2
aI2
aI2
aI2
aI2
aI2
aI2
aI1
aI1
aI1
aI2
aI1
aI2
aI2
aI1
aI1
aI1
aI2
aI1
aI2
aI2
aI2
aI2
aI2
aI2
aI2
aI1
aI2
aI1
aI3
aI1
aI2
aI2
aI2
aI2
aI2
aI2
aI2
aI2
aI2
aI2
aI2
aI2
aI1
aI1
aI2
aI2
aI2
aI1
aI1
aI1
aI1
aI1
aI1
aI1
aI1
aI2
aI2
aI2
aI1
aI2
aI2
aI1
aI2
aI2
aI2
aI1
aI2
aI2
aI2
aI2
aI2
aI2
aI2
aI2
aI2
aI2
aI2
aI2
aI2
aI2
aI2
aI2
aI2
aI2
aI2
aI2
aI2
aI2
aI2
aI1
aI2
aI2
aI2
aI2
aI2
aI2
aI2
aI1
aI2
aI2
aI2
ass.