(lp0
(irunmatrix
M3Element
p1
(dp2
S'danger_level_average'
p3
NsS'probability'
p4
S'Lite sannsynlig, Mulig'
p5
sS'colour'
p6
S'white'
p7
sS'danger_level_list'
p8
(lp9
sS'label_probalility'
p10
S'Possible'
p11
sS'label_distribution'
p12
S'Isolated'
p13
sS'recomended_colour'
p14
S'#ccff66'
p15
sS'recomended_danger_level'
p16
I1
sS'label_trigger'
p17
S'High'
p18
sS'trigger'
p19
S'Stor tilleggsbelastning'
p20
sS'occurrences'
p21
NsS'y'
p22
S'100'
p23
sS'x'
p24
S'100'
p25
sS'distribution'
p26
S'Isolerte faresoner'
p27
sS'danger_level_standard_dev'
p28
NsS'label_size'
p29
S'1'
p30
sS'avalanche_size'
p31
S'1 - Harmloest'
p32
sba(irunmatrix
M3Element
p33
(dp34
g3
Nsg4
S'Lite sannsynlig, Mulig'
p35
sg6
S'white'
p36
sg8
(lp37
sg10
S'Possible'
p38
sg12
S'Isolated'
p39
sg14
g15
sg16
I1
sg17
S'Low'
p40
sg19
S'Liten tilleggsbelastning'
p41
sg21
Nsg22
S'100'
p42
sg24
S'200'
p43
sg26
S'Isolerte faresoner'
p44
sg28
Nsg29
g30
sg31
S'1 - Harmloest'
p45
sba(irunmatrix
M3Element
p46
(dp47
g3
F1.0
sg4
S'Lite sannsynlig, Mulig'
p48
sg6
S'#ccff66'
p49
sg8
(lp50
I1
asg10
S'Possible'
p51
sg12
S'Isolated'
p52
sg14
g15
sg16
I1
sg17
S'Nat'
p53
sg19
S'Naturlig utloest'
p54
sg21
I1
sg22
S'100'
p55
sg24
S'300'
p56
sg26
S'Isolerte faresoner'
p57
sg28
cnumpy.core.multiarray
scalar
p58
(cnumpy
dtype
p59
(S'f8'
p60
I0
I1
tp61
Rp62
(I3
S'<'
p63
NNNI-1
I-1
I0
tp64
bS'\x00\x00\x00\x00\x00\x00\x00\x00'
p65
tp66
Rp67
sg29
g30
sg31
S'1 - Harmloest'
p68
sba(irunmatrix
M3Element
p69
(dp70
g3
Nsg4
S'Sannsynlig, Meget sannsynlig'
p71
sg6
S'gray'
p72
sg8
(lp73
sg10
S'Likely'
p74
sg12
S'Isolated'
p75
sg14
S'gray'
p76
sg16
I0
sg17
S'High'
p77
sg19
S'Stor tilleggsbelastning'
p78
sg21
Nsg22
S'100'
p79
sg24
S'400'
p80
sg26
S'Isolerte faresoner'
p81
sg28
Nsg29
g30
sg31
S'1 - Harmloest'
p82
sba(irunmatrix
M3Element
p83
(dp84
g3
Nsg4
S'Sannsynlig, Meget sannsynlig'
p85
sg6
S'gray'
p86
sg8
(lp87
sg10
S'Likely'
p88
sg12
S'Isolated'
p89
sg14
g76
sg16
I0
sg17
S'Low'
p90
sg19
S'Liten tilleggsbelastning'
p91
sg21
Nsg22
S'100'
p92
sg24
S'500'
p93
sg26
S'Isolerte faresoner'
p94
sg28
Nsg29
g30
sg31
S'1 - Harmloest'
p95
sba(irunmatrix
M3Element
p96
(dp97
g3
Nsg4
S'Sannsynlig, Meget sannsynlig'
p98
sg6
S'gray'
p99
sg8
(lp100
sg10
S'Likely'
p101
sg12
S'Isolated'
p102
sg14
g76
sg16
I0
sg17
S'Nat'
p103
sg19
S'Naturlig utloest'
p104
sg21
Nsg22
S'100'
p105
sg24
S'600'
p106
sg26
S'Isolerte faresoner'
p107
sg28
Nsg29
g30
sg31
S'1 - Harmloest'
p108
sba(irunmatrix
M3Element
p109
(dp110
g3
Nsg4
S'Lite sannsynlig, Mulig'
p111
sg6
S'white'
p112
sg8
(lp113
sg10
S'Possible'
p114
sg12
S'Some'
p115
sg14
g15
sg16
I1
sg17
S'High'
p116
sg19
S'Stor tilleggsbelastning'
p117
sg21
Nsg22
S'100'
p118
sg24
S'700'
p119
sg26
S'Noen bratte heng'
p120
sg28
Nsg29
g30
sg31
S'1 - Harmloest'
p121
sba(irunmatrix
M3Element
p122
(dp123
g3
Nsg4
S'Lite sannsynlig, Mulig'
p124
sg6
S'white'
p125
sg8
(lp126
sg10
S'Possible'
p127
sg12
S'Some'
p128
sg14
g15
sg16
I1
sg17
S'Low'
p129
sg19
S'Liten tilleggsbelastning'
p130
sg21
Nsg22
S'100'
p131
sg24
S'800'
p132
sg26
S'Noen bratte heng'
p133
sg28
Nsg29
g30
sg31
S'1 - Harmloest'
p134
sba(irunmatrix
M3Element
p135
(dp136
g3
F1.1428571428571428
sg4
S'Lite sannsynlig, Mulig'
p137
sg6
g49
sg8
(lp138
I1
aI1
aI1
aI1
aI1
aI1
aI2
asg10
S'Possible'
p139
sg12
S'Some'
p140
sg14
g15
sg16
I1
sg17
S'Nat'
p141
sg19
S'Naturlig utloest'
p142
sg21
I7
sg22
S'100'
p143
sg24
S'900'
p144
sg26
S'Noen bratte heng'
p145
sg28
g58
(g62
S'Z\x01/\xa94e\xd6?'
p146
tp147
Rp148
sg29
g30
sg31
S'1 - Harmloest'
p149
sba(irunmatrix
M3Element
p150
(dp151
g3
Nsg4
S'Sannsynlig, Meget sannsynlig'
p152
sg6
S'gray'
p153
sg8
(lp154
sg10
S'Likely'
p155
sg12
S'Some'
p156
sg14
g76
sg16
I0
sg17
S'High'
p157
sg19
S'Stor tilleggsbelastning'
p158
sg21
Nsg22
S'100'
p159
sg24
S'1000'
p160
sg26
S'Noen bratte heng'
p161
sg28
Nsg29
g30
sg31
S'1 - Harmloest'
p162
sba(irunmatrix
M3Element
p163
(dp164
g3
Nsg4
S'Sannsynlig, Meget sannsynlig'
p165
sg6
S'gray'
p166
sg8
(lp167
sg10
S'Likely'
p168
sg12
S'Some'
p169
sg14
g76
sg16
I0
sg17
S'Low'
p170
sg19
S'Liten tilleggsbelastning'
p171
sg21
Nsg22
S'100'
p172
sg24
S'1100'
p173
sg26
S'Noen bratte heng'
p174
sg28
Nsg29
g30
sg31
S'1 - Harmloest'
p175
sba(irunmatrix
M3Element
p176
(dp177
g3
Nsg4
S'Sannsynlig, Meget sannsynlig'
p178
sg6
S'white'
p179
sg8
(lp180
sg10
S'Likely'
p181
sg12
S'Some'
p182
sg14
g15
sg16
I1
sg17
S'Nat'
p183
sg19
S'Naturlig utloest'
p184
sg21
Nsg22
S'100'
p185
sg24
S'1200'
p186
sg26
S'Noen bratte heng'
p187
sg28
Nsg29
g30
sg31
S'1 - Harmloest'
p188
sba(irunmatrix
M3Element
p189
(dp190
g3
Nsg4
S'Lite sannsynlig, Mulig'
p191
sg6
S'gray'
p192
sg8
(lp193
sg10
S'Possible'
p194
sg12
S'Many'
p195
sg14
g76
sg16
I0
sg17
S'High'
p196
sg19
S'Stor tilleggsbelastning'
p197
sg21
Nsg22
S'100'
p198
sg24
S'1300'
p199
sg26
S'Mange bratte heng'
p200
sg28
Nsg29
g30
sg31
S'1 - Harmloest'
p201
sba(irunmatrix
M3Element
p202
(dp203
g3
Nsg4
S'Lite sannsynlig, Mulig'
p204
sg6
S'white'
p205
sg8
(lp206
sg10
S'Possible'
p207
sg12
S'Many'
p208
sg14
g15
sg16
I1
sg17
S'Low'
p209
sg19
S'Liten tilleggsbelastning'
p210
sg21
Nsg22
S'100'
p211
sg24
S'1400'
p212
sg26
S'Mange bratte heng'
p213
sg28
Nsg29
g30
sg31
S'1 - Harmloest'
p214
sba(irunmatrix
M3Element
p215
(dp216
g3
Nsg4
S'Lite sannsynlig, Mulig'
p217
sg6
S'gray'
p218
sg8
(lp219
sg10
S'Possible'
p220
sg12
S'Many'
p221
sg14
g76
sg16
I0
sg17
S'Nat'
p222
sg19
S'Naturlig utloest'
p223
sg21
Nsg22
S'100'
p224
sg24
S'1500'
p225
sg26
S'Mange bratte heng'
p226
sg28
Nsg29
g30
sg31
S'1 - Harmloest'
p227
sba(irunmatrix
M3Element
p228
(dp229
g3
Nsg4
S'Sannsynlig, Meget sannsynlig'
p230
sg6
S'gray'
p231
sg8
(lp232
sg10
S'Likely'
p233
sg12
S'Many'
p234
sg14
g76
sg16
I0
sg17
S'High'
p235
sg19
S'Stor tilleggsbelastning'
p236
sg21
Nsg22
S'100'
p237
sg24
S'1600'
p238
sg26
S'Mange bratte heng'
p239
sg28
Nsg29
g30
sg31
S'1 - Harmloest'
p240
sba(irunmatrix
M3Element
p241
(dp242
g3
Nsg4
S'Sannsynlig, Meget sannsynlig'
p243
sg6
S'white'
p244
sg8
(lp245
sg10
S'Likely'
p246
sg12
S'Many'
p247
sg14
S'#ffff00'
p248
sg16
I2
sg17
S'Low'
p249
sg19
S'Liten tilleggsbelastning'
p250
sg21
Nsg22
S'100'
p251
sg24
S'1700'
p252
sg26
S'Mange bratte heng'
p253
sg28
Nsg29
g30
sg31
S'1 - Harmloest'
p254
sba(irunmatrix
M3Element
p255
(dp256
g3
Nsg4
S'Sannsynlig, Meget sannsynlig'
p257
sg6
S'white'
p258
sg8
(lp259
sg10
S'Likely'
p260
sg12
S'Many'
p261
sg14
g248
sg16
I2
sg17
S'Nat'
p262
sg19
S'Naturlig utloest'
p263
sg21
Nsg22
S'100'
p264
sg24
S'1800'
p265
sg26
S'Mange bratte heng'
p266
sg28
Nsg29
g30
sg31
S'1 - Harmloest'
p267
sba(irunmatrix
M3Element
p268
(dp269
g3
Nsg4
S'Lite sannsynlig, Mulig'
p270
sg6
S'gray'
p271
sg8
(lp272
sg10
S'Possible'
p273
sg12
S'Most'
p274
sg14
g76
sg16
I0
sg17
S'High'
p275
sg19
S'Stor tilleggsbelastning'
p276
sg21
Nsg22
S'100'
p277
sg24
S'1900'
p278
sg26
S'De fleste bratte heng, Ogsaa i mindre bratt terreng'
p279
sg28
Nsg29
g30
sg31
S'1 - Harmloest'
p280
sba(irunmatrix
M3Element
p281
(dp282
g3
Nsg4
S'Lite sannsynlig, Mulig'
p283
sg6
S'gray'
p284
sg8
(lp285
sg10
S'Possible'
p286
sg12
S'Most'
p287
sg14
g76
sg16
I0
sg17
S'Low'
p288
sg19
S'Liten tilleggsbelastning'
p289
sg21
Nsg22
S'100'
p290
sg24
S'2000'
p291
sg26
S'De fleste bratte heng, Ogsaa i mindre bratt terreng'
p292
sg28
Nsg29
g30
sg31
S'1 - Harmloest'
p293
sba(irunmatrix
M3Element
p294
(dp295
g3
Nsg4
S'Lite sannsynlig, Mulig'
p296
sg6
S'gray'
p297
sg8
(lp298
sg10
S'Possible'
p299
sg12
S'Most'
p300
sg14
g76
sg16
I0
sg17
S'Nat'
p301
sg19
S'Naturlig utloest'
p302
sg21
Nsg22
S'100'
p303
sg24
S'2100'
p304
sg26
S'De fleste bratte heng, Ogsaa i mindre bratt terreng'
p305
sg28
Nsg29
g30
sg31
S'1 - Harmloest'
p306
sba(irunmatrix
M3Element
p307
(dp308
g3
Nsg4
S'Sannsynlig, Meget sannsynlig'
p309
sg6
S'gray'
p310
sg8
(lp311
sg10
S'Likely'
p312
sg12
S'Most'
p313
sg14
g76
sg16
I0
sg17
S'High'
p314
sg19
S'Stor tilleggsbelastning'
p315
sg21
Nsg22
S'100'
p316
sg24
S'2200'
p317
sg26
S'De fleste bratte heng, Ogsaa i mindre bratt terreng'
p318
sg28
Nsg29
g30
sg31
S'1 - Harmloest'
p319
sba(irunmatrix
M3Element
p320
(dp321
g3
Nsg4
S'Sannsynlig, Meget sannsynlig'
p322
sg6
S'gray'
p323
sg8
(lp324
sg10
S'Likely'
p325
sg12
S'Most'
p326
sg14
g76
sg16
I0
sg17
S'Low'
p327
sg19
S'Liten tilleggsbelastning'
p328
sg21
Nsg22
S'100'
p329
sg24
S'2300'
p330
sg26
S'De fleste bratte heng, Ogsaa i mindre bratt terreng'
p331
sg28
Nsg29
g30
sg31
S'1 - Harmloest'
p332
sba(irunmatrix
M3Element
p333
(dp334
g3
Nsg4
S'Sannsynlig, Meget sannsynlig'
p335
sg6
S'white'
p336
sg8
(lp337
sg10
S'Likely'
p338
sg12
S'Most'
p339
sg14
g76
sg16
I0
sg17
S'Nat'
p340
sg19
S'Naturlig utloest'
p341
sg21
Nsg22
S'100'
p342
sg24
S'2400'
p343
sg26
S'De fleste bratte heng, Ogsaa i mindre bratt terreng'
p344
sg28
Nsg29
S'2'
p345
sg31
S'1 - Harmloest'
p346
sba(irunmatrix
M3Element
p347
(dp348
g3
F1.0
sg4
S'Lite sannsynlig, Mulig'
p349
sg6
g49
sg8
(lp350
I1
aI1
asg10
S'Possible'
p351
sg12
S'Isolated'
p352
sg14
g15
sg16
I1
sg17
S'High'
p353
sg19
S'Stor tilleggsbelastning'
p354
sg21
I2
sg22
S'200'
p355
sg24
S'100'
p356
sg26
S'Isolerte faresoner'
p357
sg28
g58
(g62
S'\x00\x00\x00\x00\x00\x00\x00\x00'
p358
tp359
Rp360
sg29
g345
sg31
S'2 - Smaa'
p361
sba(irunmatrix
M3Element
p362
(dp363
g3
F2.0
sg4
S'Lite sannsynlig, Mulig'
p364
sg6
S'#ffff00'
p365
sg8
(lp366
I2
asg10
S'Possible'
p367
sg12
S'Isolated'
p368
sg14
g15
sg16
I1
sg17
S'Low'
p369
sg19
S'Liten tilleggsbelastning'
p370
sg21
I1
sg22
S'200'
p371
sg24
S'200'
p372
sg26
S'Isolerte faresoner'
p373
sg28
g58
(g62
S'\x00\x00\x00\x00\x00\x00\x00\x00'
p374
tp375
Rp376
sg29
g345
sg31
S'2 - Smaa'
p377
sba(irunmatrix
M3Element
p378
(dp379
g3
F1.0
sg4
S'Lite sannsynlig, Mulig'
p380
sg6
g49
sg8
(lp381
I1
aI1
aI1
aI1
aI1
aI1
asg10
S'Possible'
p382
sg12
S'Isolated'
p383
sg14
g15
sg16
I1
sg17
S'Nat'
p384
sg19
S'Naturlig utloest'
p385
sg21
I6
sg22
S'200'
p386
sg24
S'300'
p387
sg26
S'Isolerte faresoner'
p388
sg28
g58
(g62
S'\x00\x00\x00\x00\x00\x00\x00\x00'
p389
tp390
Rp391
sg29
g345
sg31
S'2 - Smaa'
p392
sba(irunmatrix
M3Element
p393
(dp394
g3
Nsg4
S'Sannsynlig, Meget sannsynlig'
p395
sg6
S'gray'
p396
sg8
(lp397
sg10
S'Likely'
p398
sg12
S'Isolated'
p399
sg14
g76
sg16
I0
sg17
S'High'
p400
sg19
S'Stor tilleggsbelastning'
p401
sg21
Nsg22
S'200'
p402
sg24
S'400'
p403
sg26
S'Isolerte faresoner'
p404
sg28
Nsg29
g345
sg31
S'2 - Smaa'
p405
sba(irunmatrix
M3Element
p406
(dp407
g3
Nsg4
S'Sannsynlig, Meget sannsynlig'
p408
sg6
S'gray'
p409
sg8
(lp410
sg10
S'Likely'
p411
sg12
S'Isolated'
p412
sg14
g76
sg16
I0
sg17
S'Low'
p413
sg19
S'Liten tilleggsbelastning'
p414
sg21
Nsg22
S'200'
p415
sg24
S'500'
p416
sg26
S'Isolerte faresoner'
p417
sg28
Nsg29
g345
sg31
S'2 - Smaa'
p418
sba(irunmatrix
M3Element
p419
(dp420
g3
Nsg4
S'Sannsynlig, Meget sannsynlig'
p421
sg6
S'gray'
p422
sg8
(lp423
sg10
S'Likely'
p424
sg12
S'Isolated'
p425
sg14
g76
sg16
I0
sg17
S'Nat'
p426
sg19
S'Naturlig utloest'
p427
sg21
Nsg22
S'200'
p428
sg24
S'600'
p429
sg26
S'Isolerte faresoner'
p430
sg28
Nsg29
g345
sg31
S'2 - Smaa'
p431
sba(irunmatrix
M3Element
p432
(dp433
g3
Nsg4
S'Lite sannsynlig, Mulig'
p434
sg6
S'white'
p435
sg8
(lp436
sg10
S'Possible'
p437
sg12
S'Some'
p438
sg14
g248
sg16
I2
sg17
S'High'
p439
sg19
S'Stor tilleggsbelastning'
p440
sg21
Nsg22
S'200'
p441
sg24
S'700'
p442
sg26
S'Noen bratte heng'
p443
sg28
Nsg29
g345
sg31
S'2 - Smaa'
p444
sba(irunmatrix
M3Element
p445
(dp446
g3
F2.0
sg4
S'Lite sannsynlig, Mulig'
p447
sg6
g365
sg8
(lp448
I2
aI2
aI2
aI2
aI2
aI2
aI2
aI2
aI2
aI2
aI2
aI2
aI2
aI2
aI2
aI2
aI2
aI2
aI2
aI2
aI2
aI2
aI2
aI2
aI2
asg10
S'Possible'
p449
sg12
S'Some'
p450
sg14
g248
sg16
I2
sg17
S'Low'
p451
sg19
S'Liten tilleggsbelastning'
p452
sg21
I25
sg22
S'200'
p453
sg24
S'800'
p454
sg26
S'Noen bratte heng'
p455
sg28
g58
(g62
S'\x00\x00\x00\x00\x00\x00\x00\x00'
p456
tp457
Rp458
sg29
g345
sg31
S'2 - Smaa'
p459
sba(irunmatrix
M3Element
p460
(dp461
g3
F2.0
sg4
S'Lite sannsynlig, Mulig'
p462
sg6
g365
sg8
(lp463
I2
aI2
aI2
aI2
aI2
aI2
aI2
aI2
aI2
aI2
aI2
aI2
aI2
aI2
aI2
aI2
aI2
aI2
aI2
aI2
aI2
aI2
aI2
aI2
aI2
aI2
aI2
aI2
aI2
aI2
aI2
aI2
aI2
aI2
aI2
aI2
aI2
asg10
S'Possible'
p464
sg12
S'Some'
p465
sg14
g248
sg16
I2
sg17
S'Nat'
p466
sg19
S'Naturlig utloest'
p467
sg21
I37
sg22
S'200'
p468
sg24
S'900'
p469
sg26
S'Noen bratte heng'
p470
sg28
g58
(g62
S'\x00\x00\x00\x00\x00\x00\x00\x00'
p471
tp472
Rp473
sg29
g345
sg31
S'2 - Smaa'
p474
sba(irunmatrix
M3Element
p475
(dp476
g3
Nsg4
S'Sannsynlig, Meget sannsynlig'
p477
sg6
S'gray'
p478
sg8
(lp479
sg10
S'Likely'
p480
sg12
S'Some'
p481
sg14
g76
sg16
I0
sg17
S'High'
p482
sg19
S'Stor tilleggsbelastning'
p483
sg21
Nsg22
S'200'
p484
sg24
S'1000'
p485
sg26
S'Noen bratte heng'
p486
sg28
Nsg29
g345
sg31
S'2 - Smaa'
p487
sba(irunmatrix
M3Element
p488
(dp489
g3
Nsg4
S'Sannsynlig, Meget sannsynlig'
p490
sg6
S'gray'
p491
sg8
(lp492
sg10
S'Likely'
p493
sg12
S'Some'
p494
sg14
g76
sg16
I0
sg17
S'Low'
p495
sg19
S'Liten tilleggsbelastning'
p496
sg21
Nsg22
S'200'
p497
sg24
S'1100'
p498
sg26
S'Noen bratte heng'
p499
sg28
Nsg29
g345
sg31
S'2 - Smaa'
p500
sba(irunmatrix
M3Element
p501
(dp502
g3
F2.0
sg4
S'Sannsynlig, Meget sannsynlig'
p503
sg6
g365
sg8
(lp504
I2
aI2
asg10
S'Likely'
p505
sg12
S'Some'
p506
sg14
S'#ff9900'
p507
sg16
I3
sg17
S'Nat'
p508
sg19
S'Naturlig utloest'
p509
sg21
I2
sg22
S'200'
p510
sg24
S'1200'
p511
sg26
S'Noen bratte heng'
p512
sg28
g58
(g62
S'\x00\x00\x00\x00\x00\x00\x00\x00'
p513
tp514
Rp515
sg29
g345
sg31
S'2 - Smaa'
p516
sba(irunmatrix
M3Element
p517
(dp518
g3
Nsg4
S'Lite sannsynlig, Mulig'
p519
sg6
S'gray'
p520
sg8
(lp521
sg10
S'Possible'
p522
sg12
S'Many'
p523
sg14
g76
sg16
I0
sg17
S'High'
p524
sg19
S'Stor tilleggsbelastning'
p525
sg21
Nsg22
S'200'
p526
sg24
S'1300'
p527
sg26
S'Mange bratte heng'
p528
sg28
Nsg29
g345
sg31
S'2 - Smaa'
p529
sba(irunmatrix
M3Element
p530
(dp531
g3
Nsg4
S'Lite sannsynlig, Mulig'
p532
sg6
S'white'
p533
sg8
(lp534
sg10
S'Possible'
p535
sg12
S'Many'
p536
sg14
g507
sg16
I3
sg17
S'Low'
p537
sg19
S'Liten tilleggsbelastning'
p538
sg21
Nsg22
S'200'
p539
sg24
S'1400'
p540
sg26
S'Mange bratte heng'
p541
sg28
Nsg29
g345
sg31
S'2 - Smaa'
p542
sba(irunmatrix
M3Element
p543
(dp544
g3
Nsg4
S'Lite sannsynlig, Mulig'
p545
sg6
S'gray'
p546
sg8
(lp547
sg10
S'Possible'
p548
sg12
S'Many'
p549
sg14
g76
sg16
I0
sg17
S'Nat'
p550
sg19
S'Naturlig utloest'
p551
sg21
Nsg22
S'200'
p552
sg24
S'1500'
p553
sg26
S'Mange bratte heng'
p554
sg28
Nsg29
g345
sg31
S'2 - Smaa'
p555
sba(irunmatrix
M3Element
p556
(dp557
g3
Nsg4
S'Sannsynlig, Meget sannsynlig'
p558
sg6
S'gray'
p559
sg8
(lp560
sg10
S'Likely'
p561
sg12
S'Many'
p562
sg14
g76
sg16
I0
sg17
S'High'
p563
sg19
S'Stor tilleggsbelastning'
p564
sg21
Nsg22
S'200'
p565
sg24
S'1600'
p566
sg26
S'Mange bratte heng'
p567
sg28
Nsg29
g345
sg31
S'2 - Smaa'
p568
sba(irunmatrix
M3Element
p569
(dp570
g3
Nsg4
S'Sannsynlig, Meget sannsynlig'
p571
sg6
S'white'
p572
sg8
(lp573
sg10
S'Likely'
p574
sg12
S'Many'
p575
sg14
S'#ff0000'
p576
sg16
I4
sg17
S'Low'
p577
sg19
S'Liten tilleggsbelastning'
p578
sg21
Nsg22
S'200'
p579
sg24
S'1700'
p580
sg26
S'Mange bratte heng'
p581
sg28
Nsg29
g345
sg31
S'2 - Smaa'
p582
sba(irunmatrix
M3Element
p583
(dp584
g3
Nsg4
S'Sannsynlig, Meget sannsynlig'
p585
sg6
S'white'
p586
sg8
(lp587
sg10
S'Likely'
p588
sg12
S'Many'
p589
sg14
g576
sg16
I4
sg17
S'Nat'
p590
sg19
S'Naturlig utloest'
p591
sg21
Nsg22
S'200'
p592
sg24
S'1800'
p593
sg26
S'Mange bratte heng'
p594
sg28
Nsg29
g345
sg31
S'2 - Smaa'
p595
sba(irunmatrix
M3Element
p596
(dp597
g3
Nsg4
S'Lite sannsynlig, Mulig'
p598
sg6
S'gray'
p599
sg8
(lp600
sg10
S'Possible'
p601
sg12
S'Most'
p602
sg14
g76
sg16
I0
sg17
S'High'
p603
sg19
S'Stor tilleggsbelastning'
p604
sg21
Nsg22
S'200'
p605
sg24
S'1900'
p606
sg26
S'De fleste bratte heng, Ogsaa i mindre bratt terreng'
p607
sg28
Nsg29
g345
sg31
S'2 - Smaa'
p608
sba(irunmatrix
M3Element
p609
(dp610
g3
Nsg4
S'Lite sannsynlig, Mulig'
p611
sg6
S'gray'
p612
sg8
(lp613
sg10
S'Possible'
p614
sg12
S'Most'
p615
sg14
g76
sg16
I0
sg17
S'Low'
p616
sg19
S'Liten tilleggsbelastning'
p617
sg21
Nsg22
S'200'
p618
sg24
S'2000'
p619
sg26
S'De fleste bratte heng, Ogsaa i mindre bratt terreng'
p620
sg28
Nsg29
g345
sg31
S'2 - Smaa'
p621
sba(irunmatrix
M3Element
p622
(dp623
g3
Nsg4
S'Lite sannsynlig, Mulig'
p624
sg6
S'gray'
p625
sg8
(lp626
sg10
S'Possible'
p627
sg12
S'Most'
p628
sg14
g76
sg16
I0
sg17
S'Nat'
p629
sg19
S'Naturlig utloest'
p630
sg21
Nsg22
S'200'
p631
sg24
S'2100'
p632
sg26
S'De fleste bratte heng, Ogsaa i mindre bratt terreng'
p633
sg28
Nsg29
g345
sg31
S'2 - Smaa'
p634
sba(irunmatrix
M3Element
p635
(dp636
g3
Nsg4
S'Sannsynlig, Meget sannsynlig'
p637
sg6
S'gray'
p638
sg8
(lp639
sg10
S'Likely'
p640
sg12
S'Most'
p641
sg14
g76
sg16
I0
sg17
S'High'
p642
sg19
S'Stor tilleggsbelastning'
p643
sg21
Nsg22
S'200'
p644
sg24
S'2200'
p645
sg26
S'De fleste bratte heng, Ogsaa i mindre bratt terreng'
p646
sg28
Nsg29
g345
sg31
S'2 - Smaa'
p647
sba(irunmatrix
M3Element
p648
(dp649
g3
Nsg4
S'Sannsynlig, Meget sannsynlig'
p650
sg6
S'gray'
p651
sg8
(lp652
sg10
S'Likely'
p653
sg12
S'Most'
p654
sg14
g76
sg16
I0
sg17
S'Low'
p655
sg19
S'Liten tilleggsbelastning'
p656
sg21
Nsg22
S'200'
p657
sg24
S'2300'
p658
sg26
S'De fleste bratte heng, Ogsaa i mindre bratt terreng'
p659
sg28
Nsg29
g345
sg31
S'2 - Smaa'
p660
sba(irunmatrix
M3Element
p661
(dp662
g3
Nsg4
S'Sannsynlig, Meget sannsynlig'
p663
sg6
S'white'
p664
sg8
(lp665
sg10
S'Likely'
p666
sg12
S'Most'
p667
sg14
g76
sg16
I0
sg17
S'Nat'
p668
sg19
S'Naturlig utloest'
p669
sg21
Nsg22
S'200'
p670
sg24
S'2400'
p671
sg26
S'De fleste bratte heng, Ogsaa i mindre bratt terreng'
p672
sg28
Nsg29
g345
sg31
S'2 - Smaa'
p673
sba(irunmatrix
M3Element
p674
(dp675
g3
Nsg4
S'Lite sannsynlig, Mulig'
p676
sg6
S'white'
p677
sg8
(lp678
sg10
S'Possible'
p679
sg12
S'Isolated'
p680
sg14
g15
sg16
I1
sg17
S'High'
p681
sg19
S'Stor tilleggsbelastning'
p682
sg21
Nsg22
S'300'
p683
sg24
S'100'
p684
sg26
S'Isolerte faresoner'
p685
sg28
Nsg29
S'3'
p686
sg31
S'3 - Middels'
p687
sba(irunmatrix
M3Element
p688
(dp689
g3
Nsg4
S'Lite sannsynlig, Mulig'
p690
sg6
S'white'
p691
sg8
(lp692
sg10
S'Possible'
p693
sg12
S'Isolated'
p694
sg14
g248
sg16
I2
sg17
S'Low'
p695
sg19
S'Liten tilleggsbelastning'
p696
sg21
Nsg22
S'300'
p697
sg24
S'200'
p698
sg26
S'Isolerte faresoner'
p699
sg28
Nsg29
g686
sg31
S'3 - Middels'
p700
sba(irunmatrix
M3Element
p701
(dp702
g3
Nsg4
S'Lite sannsynlig, Mulig'
p703
sg6
S'white'
p704
sg8
(lp705
sg10
S'Possible'
p706
sg12
S'Isolated'
p707
sg14
g248
sg16
I2
sg17
S'Nat'
p708
sg19
S'Naturlig utloest'
p709
sg21
Nsg22
S'300'
p710
sg24
S'300'
p711
sg26
S'Isolerte faresoner'
p712
sg28
Nsg29
g686
sg31
S'3 - Middels'
p713
sba(irunmatrix
M3Element
p714
(dp715
g3
Nsg4
S'Sannsynlig, Meget sannsynlig'
p716
sg6
S'gray'
p717
sg8
(lp718
sg10
S'Likely'
p719
sg12
S'Isolated'
p720
sg14
g76
sg16
I0
sg17
S'High'
p721
sg19
S'Stor tilleggsbelastning'
p722
sg21
Nsg22
S'300'
p723
sg24
S'400'
p724
sg26
S'Isolerte faresoner'
p725
sg28
Nsg29
g686
sg31
S'3 - Middels'
p726
sba(irunmatrix
M3Element
p727
(dp728
g3
Nsg4
S'Sannsynlig, Meget sannsynlig'
p729
sg6
S'gray'
p730
sg8
(lp731
sg10
S'Likely'
p732
sg12
S'Isolated'
p733
sg14
g76
sg16
I0
sg17
S'Low'
p734
sg19
S'Liten tilleggsbelastning'
p735
sg21
Nsg22
S'300'
p736
sg24
S'500'
p737
sg26
S'Isolerte faresoner'
p738
sg28
Nsg29
g686
sg31
S'3 - Middels'
p739
sba(irunmatrix
M3Element
p740
(dp741
g3
Nsg4
S'Sannsynlig, Meget sannsynlig'
p742
sg6
S'gray'
p743
sg8
(lp744
sg10
S'Likely'
p745
sg12
S'Isolated'
p746
sg14
g76
sg16
I0
sg17
S'Nat'
p747
sg19
S'Naturlig utloest'
p748
sg21
Nsg22
S'300'
p749
sg24
S'600'
p750
sg26
S'Isolerte faresoner'
p751
sg28
Nsg29
g686
sg31
S'3 - Middels'
p752
sba(irunmatrix
M3Element
p753
(dp754
g3
F2.0
sg4
S'Lite sannsynlig, Mulig'
p755
sg6
g365
sg8
(lp756
I2
asg10
S'Possible'
p757
sg12
S'Some'
p758
sg14
g248
sg16
I2
sg17
S'High'
p759
sg19
S'Stor tilleggsbelastning'
p760
sg21
I1
sg22
S'300'
p761
sg24
S'700'
p762
sg26
S'Noen bratte heng'
p763
sg28
g58
(g62
S'\x00\x00\x00\x00\x00\x00\x00\x00'
p764
tp765
Rp766
sg29
g686
sg31
S'3 - Middels'
p767
sba(irunmatrix
M3Element
p768
(dp769
g3
F3.0
sg4
S'Lite sannsynlig, Mulig'
p770
sg6
S'#ff9900'
p771
sg8
(lp772
I3
aI3
aI3
aI3
aI3
aI3
asg10
S'Possible'
p773
sg12
S'Some'
p774
sg14
g507
sg16
I3
sg17
S'Low'
p775
sg19
S'Liten tilleggsbelastning'
p776
sg21
I6
sg22
S'300'
p777
sg24
S'800'
p778
sg26
S'Noen bratte heng'
p779
sg28
g58
(g62
S'\x00\x00\x00\x00\x00\x00\x00\x00'
p780
tp781
Rp782
sg29
g686
sg31
S'3 - Middels'
p783
sba(irunmatrix
M3Element
p784
(dp785
g3
Nsg4
S'Lite sannsynlig, Mulig'
p786
sg6
S'white'
p787
sg8
(lp788
sg10
S'Possible'
p789
sg12
S'Some'
p790
sg14
g507
sg16
I3
sg17
S'Nat'
p791
sg19
S'Naturlig utloest'
p792
sg21
Nsg22
S'300'
p793
sg24
S'900'
p794
sg26
S'Noen bratte heng'
p795
sg28
Nsg29
g686
sg31
S'3 - Middels'
p796
sba(irunmatrix
M3Element
p797
(dp798
g3
Nsg4
S'Sannsynlig, Meget sannsynlig'
p799
sg6
S'gray'
p800
sg8
(lp801
sg10
S'Likely'
p802
sg12
S'Some'
p803
sg14
g76
sg16
I0
sg17
S'High'
p804
sg19
S'Stor tilleggsbelastning'
p805
sg21
Nsg22
S'300'
p806
sg24
S'1000'
p807
sg26
S'Noen bratte heng'
p808
sg28
Nsg29
g686
sg31
S'3 - Middels'
p809
sba(irunmatrix
M3Element
p810
(dp811
g3
Nsg4
S'Sannsynlig, Meget sannsynlig'
p812
sg6
S'gray'
p813
sg8
(lp814
sg10
S'Likely'
p815
sg12
S'Some'
p816
sg14
g76
sg16
I0
sg17
S'Low'
p817
sg19
S'Liten tilleggsbelastning'
p818
sg21
Nsg22
S'300'
p819
sg24
S'1100'
p820
sg26
S'Noen bratte heng'
p821
sg28
Nsg29
g686
sg31
S'3 - Middels'
p822
sba(irunmatrix
M3Element
p823
(dp824
g3
Nsg4
S'Sannsynlig, Meget sannsynlig'
p825
sg6
S'white'
p826
sg8
(lp827
sg10
S'Likely'
p828
sg12
S'Some'
p829
sg14
g576
sg16
I4
sg17
S'Nat'
p830
sg19
S'Naturlig utloest'
p831
sg21
Nsg22
S'300'
p832
sg24
S'1200'
p833
sg26
S'Noen bratte heng'
p834
sg28
Nsg29
g686
sg31
S'3 - Middels'
p835
sba(irunmatrix
M3Element
p836
(dp837
g3
Nsg4
S'Lite sannsynlig, Mulig'
p838
sg6
S'gray'
p839
sg8
(lp840
sg10
S'Possible'
p841
sg12
S'Many'
p842
sg14
g76
sg16
I0
sg17
S'High'
p843
sg19
S'Stor tilleggsbelastning'
p844
sg21
Nsg22
S'300'
p845
sg24
S'1300'
p846
sg26
S'Mange bratte heng'
p847
sg28
Nsg29
g686
sg31
S'3 - Middels'
p848
sba(irunmatrix
M3Element
p849
(dp850
g3
Nsg4
S'Lite sannsynlig, Mulig'
p851
sg6
S'white'
p852
sg8
(lp853
sg10
S'Possible'
p854
sg12
S'Many'
p855
sg14
g576
sg16
I4
sg17
S'Low'
p856
sg19
S'Liten tilleggsbelastning'
p857
sg21
Nsg22
S'300'
p858
sg24
S'1400'
p859
sg26
S'Mange bratte heng'
p860
sg28
Nsg29
g686
sg31
S'3 - Middels'
p861
sba(irunmatrix
M3Element
p862
(dp863
g3
Nsg4
S'Lite sannsynlig, Mulig'
p864
sg6
S'gray'
p865
sg8
(lp866
sg10
S'Possible'
p867
sg12
S'Many'
p868
sg14
g76
sg16
I0
sg17
S'Nat'
p869
sg19
S'Naturlig utloest'
p870
sg21
Nsg22
S'300'
p871
sg24
S'1500'
p872
sg26
S'Mange bratte heng'
p873
sg28
Nsg29
g686
sg31
S'3 - Middels'
p874
sba(irunmatrix
M3Element
p875
(dp876
g3
Nsg4
S'Sannsynlig, Meget sannsynlig'
p877
sg6
S'gray'
p878
sg8
(lp879
sg10
S'Likely'
p880
sg12
S'Many'
p881
sg14
g76
sg16
I0
sg17
S'High'
p882
sg19
S'Stor tilleggsbelastning'
p883
sg21
Nsg22
S'300'
p884
sg24
S'1600'
p885
sg26
S'Mange bratte heng'
p886
sg28
Nsg29
g686
sg31
S'3 - Middels'
p887
sba(irunmatrix
M3Element
p888
(dp889
g3
Nsg4
S'Sannsynlig, Meget sannsynlig'
p890
sg6
S'white'
p891
sg8
(lp892
sg10
S'Likely'
p893
sg12
S'Many'
p894
sg14
g576
sg16
I4
sg17
S'Low'
p895
sg19
S'Liten tilleggsbelastning'
p896
sg21
Nsg22
S'300'
p897
sg24
S'1700'
p898
sg26
S'Mange bratte heng'
p899
sg28
Nsg29
g686
sg31
S'3 - Middels'
p900
sba(irunmatrix
M3Element
p901
(dp902
g3
Nsg4
S'Sannsynlig, Meget sannsynlig'
p903
sg6
S'white'
p904
sg8
(lp905
sg10
S'Likely'
p906
sg12
S'Many'
p907
sg14
g576
sg16
I4
sg17
S'Nat'
p908
sg19
S'Naturlig utloest'
p909
sg21
Nsg22
S'300'
p910
sg24
S'1800'
p911
sg26
S'Mange bratte heng'
p912
sg28
Nsg29
g686
sg31
S'3 - Middels'
p913
sba(irunmatrix
M3Element
p914
(dp915
g3
Nsg4
S'Lite sannsynlig, Mulig'
p916
sg6
S'gray'
p917
sg8
(lp918
sg10
S'Possible'
p919
sg12
S'Most'
p920
sg14
g76
sg16
I0
sg17
S'High'
p921
sg19
S'Stor tilleggsbelastning'
p922
sg21
Nsg22
S'300'
p923
sg24
S'1900'
p924
sg26
S'De fleste bratte heng, Ogsaa i mindre bratt terreng'
p925
sg28
Nsg29
g686
sg31
S'3 - Middels'
p926
sba(irunmatrix
M3Element
p927
(dp928
g3
Nsg4
S'Lite sannsynlig, Mulig'
p929
sg6
S'gray'
p930
sg8
(lp931
sg10
S'Possible'
p932
sg12
S'Most'
p933
sg14
g76
sg16
I0
sg17
S'Low'
p934
sg19
S'Liten tilleggsbelastning'
p935
sg21
Nsg22
S'300'
p936
sg24
S'2000'
p937
sg26
S'De fleste bratte heng, Ogsaa i mindre bratt terreng'
p938
sg28
Nsg29
g686
sg31
S'3 - Middels'
p939
sba(irunmatrix
M3Element
p940
(dp941
g3
Nsg4
S'Lite sannsynlig, Mulig'
p942
sg6
S'gray'
p943
sg8
(lp944
sg10
S'Possible'
p945
sg12
S'Most'
p946
sg14
g76
sg16
I0
sg17
S'Nat'
p947
sg19
S'Naturlig utloest'
p948
sg21
Nsg22
S'300'
p949
sg24
S'2100'
p950
sg26
S'De fleste bratte heng, Ogsaa i mindre bratt terreng'
p951
sg28
Nsg29
g686
sg31
S'3 - Middels'
p952
sba(irunmatrix
M3Element
p953
(dp954
g3
Nsg4
S'Sannsynlig, Meget sannsynlig'
p955
sg6
S'gray'
p956
sg8
(lp957
sg10
S'Likely'
p958
sg12
S'Most'
p959
sg14
g76
sg16
I0
sg17
S'High'
p960
sg19
S'Stor tilleggsbelastning'
p961
sg21
Nsg22
S'300'
p962
sg24
S'2200'
p963
sg26
S'De fleste bratte heng, Ogsaa i mindre bratt terreng'
p964
sg28
Nsg29
g686
sg31
S'3 - Middels'
p965
sba(irunmatrix
M3Element
p966
(dp967
g3
Nsg4
S'Sannsynlig, Meget sannsynlig'
p968
sg6
S'gray'
p969
sg8
(lp970
sg10
S'Likely'
p971
sg12
S'Most'
p972
sg14
g76
sg16
I0
sg17
S'Low'
p973
sg19
S'Liten tilleggsbelastning'
p974
sg21
Nsg22
S'300'
p975
sg24
S'2300'
p976
sg26
S'De fleste bratte heng, Ogsaa i mindre bratt terreng'
p977
sg28
Nsg29
g686
sg31
S'3 - Middels'
p978
sba(irunmatrix
M3Element
p979
(dp980
g3
Nsg4
S'Sannsynlig, Meget sannsynlig'
p981
sg6
S'white'
p982
sg8
(lp983
sg10
S'Likely'
p984
sg12
S'Most'
p985
sg14
g76
sg16
I0
sg17
S'Nat'
p986
sg19
S'Naturlig utloest'
p987
sg21
Nsg22
S'300'
p988
sg24
S'2400'
p989
sg26
S'De fleste bratte heng, Ogsaa i mindre bratt terreng'
p990
sg28
Nsg29
g686
sg31
S'3 - Middels'
p991
sba(irunmatrix
M3Element
p992
(dp993
g3
Nsg4
S'Lite sannsynlig, Mulig'
p994
sg6
S'white'
p995
sg8
(lp996
sg10
S'Possible'
p997
sg12
S'Isolated'
p998
sg14
g248
sg16
I2
sg17
S'High'
p999
sg19
S'Stor tilleggsbelastning'
p1000
sg21
Nsg22
S'400'
p1001
sg24
S'100'
p1002
sg26
S'Isolerte faresoner'
p1003
sg28
Nsg29
S'4'
p1004
sg31
S'4 - Store'
p1005
sba(irunmatrix
M3Element
p1006
(dp1007
g3
Nsg4
S'Lite sannsynlig, Mulig'
p1008
sg6
S'white'
p1009
sg8
(lp1010
sg10
S'Possible'
p1011
sg12
S'Isolated'
p1012
sg14
g507
sg16
I3
sg17
S'Low'
p1013
sg19
S'Liten tilleggsbelastning'
p1014
sg21
Nsg22
S'400'
p1015
sg24
S'200'
p1016
sg26
S'Isolerte faresoner'
p1017
sg28
Nsg29
g1004
sg31
S'4 - Store'
p1018
sba(irunmatrix
M3Element
p1019
(dp1020
g3
Nsg4
S'Lite sannsynlig, Mulig'
p1021
sg6
S'white'
p1022
sg8
(lp1023
sg10
S'Possible'
p1024
sg12
S'Isolated'
p1025
sg14
g507
sg16
I3
sg17
S'Nat'
p1026
sg19
S'Naturlig utloest'
p1027
sg21
Nsg22
S'400'
p1028
sg24
S'300'
p1029
sg26
S'Isolerte faresoner'
p1030
sg28
Nsg29
g1004
sg31
S'4 - Store'
p1031
sba(irunmatrix
M3Element
p1032
(dp1033
g3
Nsg4
S'Sannsynlig, Meget sannsynlig'
p1034
sg6
S'gray'
p1035
sg8
(lp1036
sg10
S'Likely'
p1037
sg12
S'Isolated'
p1038
sg14
g76
sg16
I0
sg17
S'High'
p1039
sg19
S'Stor tilleggsbelastning'
p1040
sg21
Nsg22
S'400'
p1041
sg24
S'400'
p1042
sg26
S'Isolerte faresoner'
p1043
sg28
Nsg29
g1004
sg31
S'4 - Store'
p1044
sba(irunmatrix
M3Element
p1045
(dp1046
g3
Nsg4
S'Sannsynlig, Meget sannsynlig'
p1047
sg6
S'gray'
p1048
sg8
(lp1049
sg10
S'Likely'
p1050
sg12
S'Isolated'
p1051
sg14
g76
sg16
I0
sg17
S'Low'
p1052
sg19
S'Liten tilleggsbelastning'
p1053
sg21
Nsg22
S'400'
p1054
sg24
S'500'
p1055
sg26
S'Isolerte faresoner'
p1056
sg28
Nsg29
g1004
sg31
S'4 - Store'
p1057
sba(irunmatrix
M3Element
p1058
(dp1059
g3
Nsg4
S'Sannsynlig, Meget sannsynlig'
p1060
sg6
S'gray'
p1061
sg8
(lp1062
sg10
S'Likely'
p1063
sg12
S'Isolated'
p1064
sg14
g76
sg16
I0
sg17
S'Nat'
p1065
sg19
S'Naturlig utloest'
p1066
sg21
Nsg22
S'400'
p1067
sg24
S'600'
p1068
sg26
S'Isolerte faresoner'
p1069
sg28
Nsg29
g1004
sg31
S'4 - Store'
p1070
sba(irunmatrix
M3Element
p1071
(dp1072
g3
Nsg4
S'Lite sannsynlig, Mulig'
p1073
sg6
S'white'
p1074
sg8
(lp1075
sg10
S'Possible'
p1076
sg12
S'Some'
p1077
sg14
g507
sg16
I3
sg17
S'High'
p1078
sg19
S'Stor tilleggsbelastning'
p1079
sg21
Nsg22
S'400'
p1080
sg24
S'700'
p1081
sg26
S'Noen bratte heng'
p1082
sg28
Nsg29
g1004
sg31
S'4 - Store'
p1083
sba(irunmatrix
M3Element
p1084
(dp1085
g3
Nsg4
S'Lite sannsynlig, Mulig'
p1086
sg6
S'white'
p1087
sg8
(lp1088
sg10
S'Possible'
p1089
sg12
S'Some'
p1090
sg14
g576
sg16
I4
sg17
S'Low'
p1091
sg19
S'Liten tilleggsbelastning'
p1092
sg21
Nsg22
S'400'
p1093
sg24
S'800'
p1094
sg26
S'Noen bratte heng'
p1095
sg28
Nsg29
g1004
sg31
S'4 - Store'
p1096
sba(irunmatrix
M3Element
p1097
(dp1098
g3
Nsg4
S'Lite sannsynlig, Mulig'
p1099
sg6
S'white'
p1100
sg8
(lp1101
sg10
S'Possible'
p1102
sg12
S'Some'
p1103
sg14
g576
sg16
I4
sg17
S'Nat'
p1104
sg19
S'Naturlig utloest'
p1105
sg21
Nsg22
S'400'
p1106
sg24
S'900'
p1107
sg26
S'Noen bratte heng'
p1108
sg28
Nsg29
g1004
sg31
S'4 - Store'
p1109
sba(irunmatrix
M3Element
p1110
(dp1111
g3
Nsg4
S'Sannsynlig, Meget sannsynlig'
p1112
sg6
S'gray'
p1113
sg8
(lp1114
sg10
S'Likely'
p1115
sg12
S'Some'
p1116
sg14
g76
sg16
I0
sg17
S'High'
p1117
sg19
S'Stor tilleggsbelastning'
p1118
sg21
Nsg22
S'400'
p1119
sg24
S'1000'
p1120
sg26
S'Noen bratte heng'
p1121
sg28
Nsg29
g1004
sg31
S'4 - Store'
p1122
sba(irunmatrix
M3Element
p1123
(dp1124
g3
Nsg4
S'Sannsynlig, Meget sannsynlig'
p1125
sg6
S'gray'
p1126
sg8
(lp1127
sg10
S'Likely'
p1128
sg12
S'Some'
p1129
sg14
g76
sg16
I0
sg17
S'Low'
p1130
sg19
S'Liten tilleggsbelastning'
p1131
sg21
Nsg22
S'400'
p1132
sg24
S'1100'
p1133
sg26
S'Noen bratte heng'
p1134
sg28
Nsg29
g1004
sg31
S'4 - Store'
p1135
sba(irunmatrix
M3Element
p1136
(dp1137
g3
Nsg4
S'Sannsynlig, Meget sannsynlig'
p1138
sg6
S'white'
p1139
sg8
(lp1140
sg10
S'Likely'
p1141
sg12
S'Some'
p1142
sg14
g576
sg16
I4
sg17
S'Nat'
p1143
sg19
S'Naturlig utloest'
p1144
sg21
Nsg22
S'400'
p1145
sg24
S'1200'
p1146
sg26
S'Noen bratte heng'
p1147
sg28
Nsg29
g1004
sg31
S'4 - Store'
p1148
sba(irunmatrix
M3Element
p1149
(dp1150
g3
Nsg4
S'Lite sannsynlig, Mulig'
p1151
sg6
S'gray'
p1152
sg8
(lp1153
sg10
S'Possible'
p1154
sg12
S'Many'
p1155
sg14
g76
sg16
I0
sg17
S'High'
p1156
sg19
S'Stor tilleggsbelastning'
p1157
sg21
Nsg22
S'400'
p1158
sg24
S'1300'
p1159
sg26
S'Mange bratte heng'
p1160
sg28
Nsg29
g1004
sg31
S'4 - Store'
p1161
sba(irunmatrix
M3Element
p1162
(dp1163
g3
Nsg4
S'Lite sannsynlig, Mulig'
p1164
sg6
S'white'
p1165
sg8
(lp1166
sg10
S'Possible'
p1167
sg12
S'Many'
p1168
sg14
g76
sg16
I0
sg17
S'Low'
p1169
sg19
S'Liten tilleggsbelastning'
p1170
sg21
Nsg22
S'400'
p1171
sg24
S'1400'
p1172
sg26
S'Mange bratte heng'
p1173
sg28
Nsg29
g1004
sg31
S'4 - Store'
p1174
sba(irunmatrix
M3Element
p1175
(dp1176
g3
Nsg4
S'Lite sannsynlig, Mulig'
p1177
sg6
S'gray'
p1178
sg8
(lp1179
sg10
S'Possible'
p1180
sg12
S'Many'
p1181
sg14
g76
sg16
I0
sg17
S'Nat'
p1182
sg19
S'Naturlig utloest'
p1183
sg21
Nsg22
S'400'
p1184
sg24
S'1500'
p1185
sg26
S'Mange bratte heng'
p1186
sg28
Nsg29
g1004
sg31
S'4 - Store'
p1187
sba(irunmatrix
M3Element
p1188
(dp1189
g3
Nsg4
S'Sannsynlig, Meget sannsynlig'
p1190
sg6
S'gray'
p1191
sg8
(lp1192
sg10
S'Likely'
p1193
sg12
S'Many'
p1194
sg14
g76
sg16
I0
sg17
S'High'
p1195
sg19
S'Stor tilleggsbelastning'
p1196
sg21
Nsg22
S'400'
p1197
sg24
S'1600'
p1198
sg26
S'Mange bratte heng'
p1199
sg28
Nsg29
g1004
sg31
S'4 - Store'
p1200
sba(irunmatrix
M3Element
p1201
(dp1202
g3
Nsg4
S'Sannsynlig, Meget sannsynlig'
p1203
sg6
S'white'
p1204
sg8
(lp1205
sg10
S'Likely'
p1206
sg12
S'Many'
p1207
sg14
g76
sg16
I0
sg17
S'Low'
p1208
sg19
S'Liten tilleggsbelastning'
p1209
sg21
Nsg22
S'400'
p1210
sg24
S'1700'
p1211
sg26
S'Mange bratte heng'
p1212
sg28
Nsg29
g1004
sg31
S'4 - Store'
p1213
sba(irunmatrix
M3Element
p1214
(dp1215
g3
Nsg4
S'Sannsynlig, Meget sannsynlig'
p1216
sg6
S'white'
p1217
sg8
(lp1218
sg10
S'Likely'
p1219
sg12
S'Many'
p1220
sg14
S'k'
p1221
sg16
I5
sg17
S'Nat'
p1222
sg19
S'Naturlig utloest'
p1223
sg21
Nsg22
S'400'
p1224
sg24
S'1800'
p1225
sg26
S'Mange bratte heng'
p1226
sg28
Nsg29
g1004
sg31
S'4 - Store'
p1227
sba(irunmatrix
M3Element
p1228
(dp1229
g3
Nsg4
S'Lite sannsynlig, Mulig'
p1230
sg6
S'gray'
p1231
sg8
(lp1232
sg10
S'Possible'
p1233
sg12
S'Most'
p1234
sg14
g76
sg16
I0
sg17
S'High'
p1235
sg19
S'Stor tilleggsbelastning'
p1236
sg21
Nsg22
S'400'
p1237
sg24
S'1900'
p1238
sg26
S'De fleste bratte heng, Ogsaa i mindre bratt terreng'
p1239
sg28
Nsg29
g1004
sg31
S'4 - Store'
p1240
sba(irunmatrix
M3Element
p1241
(dp1242
g3
Nsg4
S'Lite sannsynlig, Mulig'
p1243
sg6
S'gray'
p1244
sg8
(lp1245
sg10
S'Possible'
p1246
sg12
S'Most'
p1247
sg14
g76
sg16
I0
sg17
S'Low'
p1248
sg19
S'Liten tilleggsbelastning'
p1249
sg21
Nsg22
S'400'
p1250
sg24
S'2000'
p1251
sg26
S'De fleste bratte heng, Ogsaa i mindre bratt terreng'
p1252
sg28
Nsg29
g1004
sg31
S'4 - Store'
p1253
sba(irunmatrix
M3Element
p1254
(dp1255
g3
Nsg4
S'Lite sannsynlig, Mulig'
p1256
sg6
S'gray'
p1257
sg8
(lp1258
sg10
S'Possible'
p1259
sg12
S'Most'
p1260
sg14
g76
sg16
I0
sg17
S'Nat'
p1261
sg19
S'Naturlig utloest'
p1262
sg21
Nsg22
S'400'
p1263
sg24
S'2100'
p1264
sg26
S'De fleste bratte heng, Ogsaa i mindre bratt terreng'
p1265
sg28
Nsg29
g1004
sg31
S'4 - Store'
p1266
sba(irunmatrix
M3Element
p1267
(dp1268
g3
Nsg4
S'Sannsynlig, Meget sannsynlig'
p1269
sg6
S'gray'
p1270
sg8
(lp1271
sg10
S'Likely'
p1272
sg12
S'Most'
p1273
sg14
g76
sg16
I0
sg17
S'High'
p1274
sg19
S'Stor tilleggsbelastning'
p1275
sg21
Nsg22
S'400'
p1276
sg24
S'2200'
p1277
sg26
S'De fleste bratte heng, Ogsaa i mindre bratt terreng'
p1278
sg28
Nsg29
g1004
sg31
S'4 - Store'
p1279
sba(irunmatrix
M3Element
p1280
(dp1281
g3
Nsg4
S'Sannsynlig, Meget sannsynlig'
p1282
sg6
S'gray'
p1283
sg8
(lp1284
sg10
S'Likely'
p1285
sg12
S'Most'
p1286
sg14
g76
sg16
I0
sg17
S'Low'
p1287
sg19
S'Liten tilleggsbelastning'
p1288
sg21
Nsg22
S'400'
p1289
sg24
S'2300'
p1290
sg26
S'De fleste bratte heng, Ogsaa i mindre bratt terreng'
p1291
sg28
Nsg29
g1004
sg31
S'4 - Store'
p1292
sba(irunmatrix
M3Element
p1293
(dp1294
g3
Nsg4
S'Sannsynlig, Meget sannsynlig'
p1295
sg6
S'white'
p1296
sg8
(lp1297
sg10
S'Likely'
p1298
sg12
S'Most'
p1299
sg14
g76
sg16
I0
sg17
S'Nat'
p1300
sg19
S'Naturlig utloest'
p1301
sg21
Nsg22
S'400'
p1302
sg24
S'2400'
p1303
sg26
S'De fleste bratte heng, Ogsaa i mindre bratt terreng'
p1304
sg28
Nsg29
g1004
sg31
S'4 - Store'
p1305
sba(irunmatrix
M3Element
p1306
(dp1307
g3
Nsg4
S'Lite sannsynlig, Mulig'
p1308
sg6
S'white'
p1309
sg8
(lp1310
sg10
S'Possible'
p1311
sg12
S'Isolated'
p1312
sg14
g76
sg16
I0
sg17
S'High'
p1313
sg19
S'Stor tilleggsbelastning'
p1314
sg21
Nsg22
S'500'
p1315
sg24
S'100'
p1316
sg26
S'Isolerte faresoner'
p1317
sg28
Nsg29
S'5'
p1318
sg31
S'5 - Svaert store'
p1319
sba(irunmatrix
M3Element
p1320
(dp1321
g3
Nsg4
S'Lite sannsynlig, Mulig'
p1322
sg6
S'white'
p1323
sg8
(lp1324
sg10
S'Possible'
p1325
sg12
S'Isolated'
p1326
sg14
g76
sg16
I0
sg17
S'Low'
p1327
sg19
S'Liten tilleggsbelastning'
p1328
sg21
Nsg22
S'500'
p1329
sg24
S'200'
p1330
sg26
S'Isolerte faresoner'
p1331
sg28
Nsg29
g1318
sg31
S'5 - Svaert store'
p1332
sba(irunmatrix
M3Element
p1333
(dp1334
g3
Nsg4
S'Lite sannsynlig, Mulig'
p1335
sg6
S'white'
p1336
sg8
(lp1337
sg10
S'Possible'
p1338
sg12
S'Isolated'
p1339
sg14
g76
sg16
I0
sg17
S'Nat'
p1340
sg19
S'Naturlig utloest'
p1341
sg21
Nsg22
S'500'
p1342
sg24
S'300'
p1343
sg26
S'Isolerte faresoner'
p1344
sg28
Nsg29
g1318
sg31
S'5 - Svaert store'
p1345
sba(irunmatrix
M3Element
p1346
(dp1347
g3
Nsg4
S'Sannsynlig, Meget sannsynlig'
p1348
sg6
S'gray'
p1349
sg8
(lp1350
sg10
S'Likely'
p1351
sg12
S'Isolated'
p1352
sg14
g76
sg16
I0
sg17
S'High'
p1353
sg19
S'Stor tilleggsbelastning'
p1354
sg21
Nsg22
S'500'
p1355
sg24
S'400'
p1356
sg26
S'Isolerte faresoner'
p1357
sg28
Nsg29
g1318
sg31
S'5 - Svaert store'
p1358
sba(irunmatrix
M3Element
p1359
(dp1360
g3
Nsg4
S'Sannsynlig, Meget sannsynlig'
p1361
sg6
S'gray'
p1362
sg8
(lp1363
sg10
S'Likely'
p1364
sg12
S'Isolated'
p1365
sg14
g76
sg16
I0
sg17
S'Low'
p1366
sg19
S'Liten tilleggsbelastning'
p1367
sg21
Nsg22
S'500'
p1368
sg24
S'500'
p1369
sg26
S'Isolerte faresoner'
p1370
sg28
Nsg29
g1318
sg31
S'5 - Svaert store'
p1371
sba(irunmatrix
M3Element
p1372
(dp1373
g3
Nsg4
S'Sannsynlig, Meget sannsynlig'
p1374
sg6
S'gray'
p1375
sg8
(lp1376
sg10
S'Likely'
p1377
sg12
S'Isolated'
p1378
sg14
g76
sg16
I0
sg17
S'Nat'
p1379
sg19
S'Naturlig utloest'
p1380
sg21
Nsg22
S'500'
p1381
sg24
S'600'
p1382
sg26
S'Isolerte faresoner'
p1383
sg28
Nsg29
g1318
sg31
S'5 - Svaert store'
p1384
sba(irunmatrix
M3Element
p1385
(dp1386
g3
Nsg4
S'Lite sannsynlig, Mulig'
p1387
sg6
S'white'
p1388
sg8
(lp1389
sg10
S'Possible'
p1390
sg12
S'Some'
p1391
sg14
g76
sg16
I0
sg17
S'High'
p1392
sg19
S'Stor tilleggsbelastning'
p1393
sg21
Nsg22
S'500'
p1394
sg24
S'700'
p1395
sg26
S'Noen bratte heng'
p1396
sg28
Nsg29
g1318
sg31
S'5 - Svaert store'
p1397
sba(irunmatrix
M3Element
p1398
(dp1399
g3
Nsg4
S'Lite sannsynlig, Mulig'
p1400
sg6
S'white'
p1401
sg8
(lp1402
sg10
S'Possible'
p1403
sg12
S'Some'
p1404
sg14
g76
sg16
I0
sg17
S'Low'
p1405
sg19
S'Liten tilleggsbelastning'
p1406
sg21
Nsg22
S'500'
p1407
sg24
S'800'
p1408
sg26
S'Noen bratte heng'
p1409
sg28
Nsg29
g1318
sg31
S'5 - Svaert store'
p1410
sba(irunmatrix
M3Element
p1411
(dp1412
g3
Nsg4
S'Lite sannsynlig, Mulig'
p1413
sg6
S'white'
p1414
sg8
(lp1415
sg10
S'Possible'
p1416
sg12
S'Some'
p1417
sg14
g76
sg16
I0
sg17
S'Nat'
p1418
sg19
S'Naturlig utloest'
p1419
sg21
Nsg22
S'500'
p1420
sg24
S'900'
p1421
sg26
S'Noen bratte heng'
p1422
sg28
Nsg29
g1318
sg31
S'5 - Svaert store'
p1423
sba(irunmatrix
M3Element
p1424
(dp1425
g3
Nsg4
S'Sannsynlig, Meget sannsynlig'
p1426
sg6
S'gray'
p1427
sg8
(lp1428
sg10
S'Likely'
p1429
sg12
S'Some'
p1430
sg14
g76
sg16
I0
sg17
S'High'
p1431
sg19
S'Stor tilleggsbelastning'
p1432
sg21
Nsg22
S'500'
p1433
sg24
S'1000'
p1434
sg26
S'Noen bratte heng'
p1435
sg28
Nsg29
g1318
sg31
S'5 - Svaert store'
p1436
sba(irunmatrix
M3Element
p1437
(dp1438
g3
Nsg4
S'Sannsynlig, Meget sannsynlig'
p1439
sg6
S'gray'
p1440
sg8
(lp1441
sg10
S'Likely'
p1442
sg12
S'Some'
p1443
sg14
g76
sg16
I0
sg17
S'Low'
p1444
sg19
S'Liten tilleggsbelastning'
p1445
sg21
Nsg22
S'500'
p1446
sg24
S'1100'
p1447
sg26
S'Noen bratte heng'
p1448
sg28
Nsg29
g1318
sg31
S'5 - Svaert store'
p1449
sba(irunmatrix
M3Element
p1450
(dp1451
g3
Nsg4
S'Sannsynlig, Meget sannsynlig'
p1452
sg6
S'white'
p1453
sg8
(lp1454
sg10
S'Likely'
p1455
sg12
S'Some'
p1456
sg14
g76
sg16
I0
sg17
S'Nat'
p1457
sg19
S'Naturlig utloest'
p1458
sg21
Nsg22
S'500'
p1459
sg24
S'1200'
p1460
sg26
S'Noen bratte heng'
p1461
sg28
Nsg29
g1318
sg31
S'5 - Svaert store'
p1462
sba(irunmatrix
M3Element
p1463
(dp1464
g3
Nsg4
S'Lite sannsynlig, Mulig'
p1465
sg6
S'gray'
p1466
sg8
(lp1467
sg10
S'Possible'
p1468
sg12
S'Many'
p1469
sg14
g76
sg16
I0
sg17
S'High'
p1470
sg19
S'Stor tilleggsbelastning'
p1471
sg21
Nsg22
S'500'
p1472
sg24
S'1300'
p1473
sg26
S'Mange bratte heng'
p1474
sg28
Nsg29
g1318
sg31
S'5 - Svaert store'
p1475
sba(irunmatrix
M3Element
p1476
(dp1477
g3
Nsg4
S'Lite sannsynlig, Mulig'
p1478
sg6
S'white'
p1479
sg8
(lp1480
sg10
S'Possible'
p1481
sg12
S'Many'
p1482
sg14
g76
sg16
I0
sg17
S'Low'
p1483
sg19
S'Liten tilleggsbelastning'
p1484
sg21
Nsg22
S'500'
p1485
sg24
S'1400'
p1486
sg26
S'Mange bratte heng'
p1487
sg28
Nsg29
g1318
sg31
S'5 - Svaert store'
p1488
sba(irunmatrix
M3Element
p1489
(dp1490
g3
Nsg4
S'Lite sannsynlig, Mulig'
p1491
sg6
S'gray'
p1492
sg8
(lp1493
sg10
S'Possible'
p1494
sg12
S'Many'
p1495
sg14
g76
sg16
I0
sg17
S'Nat'
p1496
sg19
S'Naturlig utloest'
p1497
sg21
Nsg22
S'500'
p1498
sg24
S'1500'
p1499
sg26
S'Mange bratte heng'
p1500
sg28
Nsg29
g1318
sg31
S'5 - Svaert store'
p1501
sba(irunmatrix
M3Element
p1502
(dp1503
g3
Nsg4
S'Sannsynlig, Meget sannsynlig'
p1504
sg6
S'gray'
p1505
sg8
(lp1506
sg10
S'Likely'
p1507
sg12
S'Many'
p1508
sg14
g76
sg16
I0
sg17
S'High'
p1509
sg19
S'Stor tilleggsbelastning'
p1510
sg21
Nsg22
S'500'
p1511
sg24
S'1600'
p1512
sg26
S'Mange bratte heng'
p1513
sg28
Nsg29
g1318
sg31
S'5 - Svaert store'
p1514
sba(irunmatrix
M3Element
p1515
(dp1516
g3
Nsg4
S'Sannsynlig, Meget sannsynlig'
p1517
sg6
S'white'
p1518
sg8
(lp1519
sg10
S'Likely'
p1520
sg12
S'Many'
p1521
sg14
g76
sg16
I0
sg17
S'Low'
p1522
sg19
S'Liten tilleggsbelastning'
p1523
sg21
Nsg22
S'500'
p1524
sg24
S'1700'
p1525
sg26
S'Mange bratte heng'
p1526
sg28
Nsg29
g1318
sg31
S'5 - Svaert store'
p1527
sba(irunmatrix
M3Element
p1528
(dp1529
g3
Nsg4
S'Sannsynlig, Meget sannsynlig'
p1530
sg6
S'white'
p1531
sg8
(lp1532
sg10
S'Likely'
p1533
sg12
S'Many'
p1534
sg14
g1221
sg16
I5
sg17
S'Nat'
p1535
sg19
S'Naturlig utloest'
p1536
sg21
Nsg22
S'500'
p1537
sg24
S'1800'
p1538
sg26
S'Mange bratte heng'
p1539
sg28
Nsg29
g1318
sg31
S'5 - Svaert store'
p1540
sba(irunmatrix
M3Element
p1541
(dp1542
g3
Nsg4
S'Lite sannsynlig, Mulig'
p1543
sg6
S'gray'
p1544
sg8
(lp1545
sg10
S'Possible'
p1546
sg12
S'Most'
p1547
sg14
g76
sg16
I0
sg17
S'High'
p1548
sg19
S'Stor tilleggsbelastning'
p1549
sg21
Nsg22
S'500'
p1550
sg24
S'1900'
p1551
sg26
S'De fleste bratte heng, Ogsaa i mindre bratt terreng'
p1552
sg28
Nsg29
g1318
sg31
S'5 - Svaert store'
p1553
sba(irunmatrix
M3Element
p1554
(dp1555
g3
Nsg4
S'Lite sannsynlig, Mulig'
p1556
sg6
S'gray'
p1557
sg8
(lp1558
sg10
S'Possible'
p1559
sg12
S'Most'
p1560
sg14
g76
sg16
I0
sg17
S'Low'
p1561
sg19
S'Liten tilleggsbelastning'
p1562
sg21
Nsg22
S'500'
p1563
sg24
S'2000'
p1564
sg26
S'De fleste bratte heng, Ogsaa i mindre bratt terreng'
p1565
sg28
Nsg29
g1318
sg31
S'5 - Svaert store'
p1566
sba(irunmatrix
M3Element
p1567
(dp1568
g3
Nsg4
S'Lite sannsynlig, Mulig'
p1569
sg6
S'gray'
p1570
sg8
(lp1571
sg10
S'Possible'
p1572
sg12
S'Most'
p1573
sg14
g76
sg16
I0
sg17
S'Nat'
p1574
sg19
S'Naturlig utloest'
p1575
sg21
Nsg22
S'500'
p1576
sg24
S'2100'
p1577
sg26
S'De fleste bratte heng, Ogsaa i mindre bratt terreng'
p1578
sg28
Nsg29
g1318
sg31
S'5 - Svaert store'
p1579
sba(irunmatrix
M3Element
p1580
(dp1581
g3
Nsg4
S'Sannsynlig, Meget sannsynlig'
p1582
sg6
S'gray'
p1583
sg8
(lp1584
sg10
S'Likely'
p1585
sg12
S'Most'
p1586
sg14
g76
sg16
I0
sg17
S'High'
p1587
sg19
S'Stor tilleggsbelastning'
p1588
sg21
Nsg22
S'500'
p1589
sg24
S'2200'
p1590
sg26
S'De fleste bratte heng, Ogsaa i mindre bratt terreng'
p1591
sg28
Nsg29
g1318
sg31
S'5 - Svaert store'
p1592
sba(irunmatrix
M3Element
p1593
(dp1594
g3
Nsg4
S'Sannsynlig, Meget sannsynlig'
p1595
sg6
S'gray'
p1596
sg8
(lp1597
sg10
S'Likely'
p1598
sg12
S'Most'
p1599
sg14
g76
sg16
I0
sg17
S'Low'
p1600
sg19
S'Liten tilleggsbelastning'
p1601
sg21
Nsg22
S'500'
p1602
sg24
S'2300'
p1603
sg26
S'De fleste bratte heng, Ogsaa i mindre bratt terreng'
p1604
sg28
Nsg29
g1318
sg31
S'5 - Svaert store'
p1605
sba(irunmatrix
M3Element
p1606
(dp1607
g3
Nsg4
S'Sannsynlig, Meget sannsynlig'
p1608
sg6
S'white'
p1609
sg8
(lp1610
sg10
S'Likely'
p1611
sg12
S'Most'
p1612
sg14
g76
sg16
I0
sg17
S'Nat'
p1613
sg19
S'Naturlig utloest'
p1614
sg21
Nsg22
S'500'
p1615
sg24
S'2400'
p1616
sg26
S'De fleste bratte heng, Ogsaa i mindre bratt terreng'
p1617
sg28
Nsg29
g1318
sg31
S'5 - Svaert store'
p1618
sba.