(lp0
(irunmatrix
M3Element
p1
(dp2
S'danger_level_average'
p3
NsS'probability'
p4
S'Lite sannsynlig, Mulig'
p5
sS'colour'
p6
S'white'
p7
sS'danger_level_list'
p8
(lp9
sS'label_probalility'
p10
S'Possible'
p11
sS'label_distribution'
p12
S'Isolated'
p13
sS'recomended_colour'
p14
S'#ccff66'
p15
sS'recomended_danger_level'
p16
I1
sS'label_trigger'
p17
S'High'
p18
sS'trigger'
p19
S'Stor tilleggsbelastning'
p20
sS'occurrences'
p21
NsS'y'
p22
S'100'
p23
sS'x'
p24
S'100'
p25
sS'distribution'
p26
S'Isolerte faresoner'
p27
sS'danger_level_standard_dev'
p28
NsS'label_size'
p29
S'1'
p30
sS'avalanche_size'
p31
S'1 - Harmloest'
p32
sba(irunmatrix
M3Element
p33
(dp34
g3
Nsg4
S'Lite sannsynlig, Mulig'
p35
sg6
S'white'
p36
sg8
(lp37
sg10
S'Possible'
p38
sg12
S'Isolated'
p39
sg14
g15
sg16
I1
sg17
S'Low'
p40
sg19
S'Liten tilleggsbelastning'
p41
sg21
Nsg22
S'100'
p42
sg24
S'200'
p43
sg26
S'Isolerte faresoner'
p44
sg28
Nsg29
g30
sg31
S'1 - Harmloest'
p45
sba(irunmatrix
M3Element
p46
(dp47
g3
Nsg4
S'Lite sannsynlig, Mulig'
p48
sg6
S'white'
p49
sg8
(lp50
sg10
S'Possible'
p51
sg12
S'Isolated'
p52
sg14
g15
sg16
I1
sg17
S'Nat'
p53
sg19
S'Naturlig utloest'
p54
sg21
Nsg22
S'100'
p55
sg24
S'300'
p56
sg26
S'Isolerte faresoner'
p57
sg28
Nsg29
g30
sg31
S'1 - Harmloest'
p58
sba(irunmatrix
M3Element
p59
(dp60
g3
Nsg4
S'Sannsynlig, Meget sannsynlig'
p61
sg6
S'gray'
p62
sg8
(lp63
sg10
S'Likely'
p64
sg12
S'Isolated'
p65
sg14
S'gray'
p66
sg16
I0
sg17
S'High'
p67
sg19
S'Stor tilleggsbelastning'
p68
sg21
Nsg22
S'100'
p69
sg24
S'400'
p70
sg26
S'Isolerte faresoner'
p71
sg28
Nsg29
g30
sg31
S'1 - Harmloest'
p72
sba(irunmatrix
M3Element
p73
(dp74
g3
Nsg4
S'Sannsynlig, Meget sannsynlig'
p75
sg6
S'gray'
p76
sg8
(lp77
sg10
S'Likely'
p78
sg12
S'Isolated'
p79
sg14
g66
sg16
I0
sg17
S'Low'
p80
sg19
S'Liten tilleggsbelastning'
p81
sg21
Nsg22
S'100'
p82
sg24
S'500'
p83
sg26
S'Isolerte faresoner'
p84
sg28
Nsg29
g30
sg31
S'1 - Harmloest'
p85
sba(irunmatrix
M3Element
p86
(dp87
g3
Nsg4
S'Sannsynlig, Meget sannsynlig'
p88
sg6
S'gray'
p89
sg8
(lp90
sg10
S'Likely'
p91
sg12
S'Isolated'
p92
sg14
g66
sg16
I0
sg17
S'Nat'
p93
sg19
S'Naturlig utloest'
p94
sg21
Nsg22
S'100'
p95
sg24
S'600'
p96
sg26
S'Isolerte faresoner'
p97
sg28
Nsg29
g30
sg31
S'1 - Harmloest'
p98
sba(irunmatrix
M3Element
p99
(dp100
g3
Nsg4
S'Lite sannsynlig, Mulig'
p101
sg6
S'white'
p102
sg8
(lp103
sg10
S'Possible'
p104
sg12
S'Some'
p105
sg14
g15
sg16
I1
sg17
S'High'
p106
sg19
S'Stor tilleggsbelastning'
p107
sg21
Nsg22
S'100'
p108
sg24
S'700'
p109
sg26
S'Noen bratte heng'
p110
sg28
Nsg29
g30
sg31
S'1 - Harmloest'
p111
sba(irunmatrix
M3Element
p112
(dp113
g3
F1.0
sg4
S'Lite sannsynlig, Mulig'
p114
sg6
S'#ccff66'
p115
sg8
(lp116
I1
aI1
aI1
asg10
S'Possible'
p117
sg12
S'Some'
p118
sg14
g15
sg16
I1
sg17
S'Low'
p119
sg19
S'Liten tilleggsbelastning'
p120
sg21
I3
sg22
S'100'
p121
sg24
S'800'
p122
sg26
S'Noen bratte heng'
p123
sg28
cnumpy.core.multiarray
scalar
p124
(cnumpy
dtype
p125
(S'f8'
p126
I0
I1
tp127
Rp128
(I3
S'<'
p129
NNNI-1
I-1
I0
tp130
bS'\x00\x00\x00\x00\x00\x00\x00\x00'
p131
tp132
Rp133
sg29
g30
sg31
S'1 - Harmloest'
p134
sba(irunmatrix
M3Element
p135
(dp136
g3
F1.2222222222222223
sg4
S'Lite sannsynlig, Mulig'
p137
sg6
g115
sg8
(lp138
I1
aI1
aI1
aI1
aI1
aI1
aI1
aI2
aI2
asg10
S'Possible'
p139
sg12
S'Some'
p140
sg14
g15
sg16
I1
sg17
S'Nat'
p141
sg19
S'Naturlig utloest'
p142
sg21
I9
sg22
S'100'
p143
sg24
S'900'
p144
sg26
S'Noen bratte heng'
p145
sg28
g124
(g128
S'z\xc6#\xbaz\x9b\xda?'
p146
tp147
Rp148
sg29
g30
sg31
S'1 - Harmloest'
p149
sba(irunmatrix
M3Element
p150
(dp151
g3
Nsg4
S'Sannsynlig, Meget sannsynlig'
p152
sg6
S'gray'
p153
sg8
(lp154
sg10
S'Likely'
p155
sg12
S'Some'
p156
sg14
g66
sg16
I0
sg17
S'High'
p157
sg19
S'Stor tilleggsbelastning'
p158
sg21
Nsg22
S'100'
p159
sg24
S'1000'
p160
sg26
S'Noen bratte heng'
p161
sg28
Nsg29
g30
sg31
S'1 - Harmloest'
p162
sba(irunmatrix
M3Element
p163
(dp164
g3
Nsg4
S'Sannsynlig, Meget sannsynlig'
p165
sg6
S'gray'
p166
sg8
(lp167
sg10
S'Likely'
p168
sg12
S'Some'
p169
sg14
g66
sg16
I0
sg17
S'Low'
p170
sg19
S'Liten tilleggsbelastning'
p171
sg21
Nsg22
S'100'
p172
sg24
S'1100'
p173
sg26
S'Noen bratte heng'
p174
sg28
Nsg29
g30
sg31
S'1 - Harmloest'
p175
sba(irunmatrix
M3Element
p176
(dp177
g3
Nsg4
S'Sannsynlig, Meget sannsynlig'
p178
sg6
S'white'
p179
sg8
(lp180
sg10
S'Likely'
p181
sg12
S'Some'
p182
sg14
g15
sg16
I1
sg17
S'Nat'
p183
sg19
S'Naturlig utloest'
p184
sg21
Nsg22
S'100'
p185
sg24
S'1200'
p186
sg26
S'Noen bratte heng'
p187
sg28
Nsg29
g30
sg31
S'1 - Harmloest'
p188
sba(irunmatrix
M3Element
p189
(dp190
g3
Nsg4
S'Lite sannsynlig, Mulig'
p191
sg6
S'gray'
p192
sg8
(lp193
sg10
S'Possible'
p194
sg12
S'Many'
p195
sg14
g66
sg16
I0
sg17
S'High'
p196
sg19
S'Stor tilleggsbelastning'
p197
sg21
Nsg22
S'100'
p198
sg24
S'1300'
p199
sg26
S'Mange bratte heng'
p200
sg28
Nsg29
g30
sg31
S'1 - Harmloest'
p201
sba(irunmatrix
M3Element
p202
(dp203
g3
Nsg4
S'Lite sannsynlig, Mulig'
p204
sg6
S'white'
p205
sg8
(lp206
sg10
S'Possible'
p207
sg12
S'Many'
p208
sg14
g15
sg16
I1
sg17
S'Low'
p209
sg19
S'Liten tilleggsbelastning'
p210
sg21
Nsg22
S'100'
p211
sg24
S'1400'
p212
sg26
S'Mange bratte heng'
p213
sg28
Nsg29
g30
sg31
S'1 - Harmloest'
p214
sba(irunmatrix
M3Element
p215
(dp216
g3
Nsg4
S'Lite sannsynlig, Mulig'
p217
sg6
S'gray'
p218
sg8
(lp219
sg10
S'Possible'
p220
sg12
S'Many'
p221
sg14
g66
sg16
I0
sg17
S'Nat'
p222
sg19
S'Naturlig utloest'
p223
sg21
Nsg22
S'100'
p224
sg24
S'1500'
p225
sg26
S'Mange bratte heng'
p226
sg28
Nsg29
g30
sg31
S'1 - Harmloest'
p227
sba(irunmatrix
M3Element
p228
(dp229
g3
Nsg4
S'Sannsynlig, Meget sannsynlig'
p230
sg6
S'gray'
p231
sg8
(lp232
sg10
S'Likely'
p233
sg12
S'Many'
p234
sg14
g66
sg16
I0
sg17
S'High'
p235
sg19
S'Stor tilleggsbelastning'
p236
sg21
Nsg22
S'100'
p237
sg24
S'1600'
p238
sg26
S'Mange bratte heng'
p239
sg28
Nsg29
g30
sg31
S'1 - Harmloest'
p240
sba(irunmatrix
M3Element
p241
(dp242
g3
Nsg4
S'Sannsynlig, Meget sannsynlig'
p243
sg6
S'white'
p244
sg8
(lp245
sg10
S'Likely'
p246
sg12
S'Many'
p247
sg14
S'#ffff00'
p248
sg16
I2
sg17
S'Low'
p249
sg19
S'Liten tilleggsbelastning'
p250
sg21
Nsg22
S'100'
p251
sg24
S'1700'
p252
sg26
S'Mange bratte heng'
p253
sg28
Nsg29
g30
sg31
S'1 - Harmloest'
p254
sba(irunmatrix
M3Element
p255
(dp256
g3
Nsg4
S'Sannsynlig, Meget sannsynlig'
p257
sg6
S'white'
p258
sg8
(lp259
sg10
S'Likely'
p260
sg12
S'Many'
p261
sg14
g248
sg16
I2
sg17
S'Nat'
p262
sg19
S'Naturlig utloest'
p263
sg21
Nsg22
S'100'
p264
sg24
S'1800'
p265
sg26
S'Mange bratte heng'
p266
sg28
Nsg29
g30
sg31
S'1 - Harmloest'
p267
sba(irunmatrix
M3Element
p268
(dp269
g3
Nsg4
S'Lite sannsynlig, Mulig'
p270
sg6
S'gray'
p271
sg8
(lp272
sg10
S'Possible'
p273
sg12
S'Most'
p274
sg14
g66
sg16
I0
sg17
S'High'
p275
sg19
S'Stor tilleggsbelastning'
p276
sg21
Nsg22
S'100'
p277
sg24
S'1900'
p278
sg26
S'De fleste bratte heng, Ogsaa i mindre bratt terreng'
p279
sg28
Nsg29
g30
sg31
S'1 - Harmloest'
p280
sba(irunmatrix
M3Element
p281
(dp282
g3
Nsg4
S'Lite sannsynlig, Mulig'
p283
sg6
S'gray'
p284
sg8
(lp285
sg10
S'Possible'
p286
sg12
S'Most'
p287
sg14
g66
sg16
I0
sg17
S'Low'
p288
sg19
S'Liten tilleggsbelastning'
p289
sg21
Nsg22
S'100'
p290
sg24
S'2000'
p291
sg26
S'De fleste bratte heng, Ogsaa i mindre bratt terreng'
p292
sg28
Nsg29
g30
sg31
S'1 - Harmloest'
p293
sba(irunmatrix
M3Element
p294
(dp295
g3
Nsg4
S'Lite sannsynlig, Mulig'
p296
sg6
S'gray'
p297
sg8
(lp298
sg10
S'Possible'
p299
sg12
S'Most'
p300
sg14
g66
sg16
I0
sg17
S'Nat'
p301
sg19
S'Naturlig utloest'
p302
sg21
Nsg22
S'100'
p303
sg24
S'2100'
p304
sg26
S'De fleste bratte heng, Ogsaa i mindre bratt terreng'
p305
sg28
Nsg29
g30
sg31
S'1 - Harmloest'
p306
sba(irunmatrix
M3Element
p307
(dp308
g3
Nsg4
S'Sannsynlig, Meget sannsynlig'
p309
sg6
S'gray'
p310
sg8
(lp311
sg10
S'Likely'
p312
sg12
S'Most'
p313
sg14
g66
sg16
I0
sg17
S'High'
p314
sg19
S'Stor tilleggsbelastning'
p315
sg21
Nsg22
S'100'
p316
sg24
S'2200'
p317
sg26
S'De fleste bratte heng, Ogsaa i mindre bratt terreng'
p318
sg28
Nsg29
g30
sg31
S'1 - Harmloest'
p319
sba(irunmatrix
M3Element
p320
(dp321
g3
Nsg4
S'Sannsynlig, Meget sannsynlig'
p322
sg6
S'gray'
p323
sg8
(lp324
sg10
S'Likely'
p325
sg12
S'Most'
p326
sg14
g66
sg16
I0
sg17
S'Low'
p327
sg19
S'Liten tilleggsbelastning'
p328
sg21
Nsg22
S'100'
p329
sg24
S'2300'
p330
sg26
S'De fleste bratte heng, Ogsaa i mindre bratt terreng'
p331
sg28
Nsg29
g30
sg31
S'1 - Harmloest'
p332
sba(irunmatrix
M3Element
p333
(dp334
g3
Nsg4
S'Sannsynlig, Meget sannsynlig'
p335
sg6
S'white'
p336
sg8
(lp337
sg10
S'Likely'
p338
sg12
S'Most'
p339
sg14
g66
sg16
I0
sg17
S'Nat'
p340
sg19
S'Naturlig utloest'
p341
sg21
Nsg22
S'100'
p342
sg24
S'2400'
p343
sg26
S'De fleste bratte heng, Ogsaa i mindre bratt terreng'
p344
sg28
Nsg29
S'2'
p345
sg31
S'1 - Harmloest'
p346
sba(irunmatrix
M3Element
p347
(dp348
g3
Nsg4
S'Lite sannsynlig, Mulig'
p349
sg6
S'white'
p350
sg8
(lp351
sg10
S'Possible'
p352
sg12
S'Isolated'
p353
sg14
g15
sg16
I1
sg17
S'High'
p354
sg19
S'Stor tilleggsbelastning'
p355
sg21
Nsg22
S'200'
p356
sg24
S'100'
p357
sg26
S'Isolerte faresoner'
p358
sg28
Nsg29
g345
sg31
S'2 - Smaa'
p359
sba(irunmatrix
M3Element
p360
(dp361
g3
F1.1538461538461537
sg4
S'Lite sannsynlig, Mulig'
p362
sg6
g115
sg8
(lp363
I2
aI2
aI1
aI1
aI1
aI1
aI1
aI1
aI1
aI1
aI1
aI1
aI1
asg10
S'Possible'
p364
sg12
S'Isolated'
p365
sg14
g15
sg16
I1
sg17
S'Low'
p366
sg19
S'Liten tilleggsbelastning'
p367
sg21
I13
sg22
S'200'
p368
sg24
S'200'
p369
sg26
S'Isolerte faresoner'
p370
sg28
g124
(g128
S'CC\xca\xf7]\x17\xd7?'
p371
tp372
Rp373
sg29
g345
sg31
S'2 - Smaa'
p374
sba(irunmatrix
M3Element
p375
(dp376
g3
Nsg4
S'Lite sannsynlig, Mulig'
p377
sg6
S'white'
p378
sg8
(lp379
sg10
S'Possible'
p380
sg12
S'Isolated'
p381
sg14
g15
sg16
I1
sg17
S'Nat'
p382
sg19
S'Naturlig utloest'
p383
sg21
Nsg22
S'200'
p384
sg24
S'300'
p385
sg26
S'Isolerte faresoner'
p386
sg28
Nsg29
g345
sg31
S'2 - Smaa'
p387
sba(irunmatrix
M3Element
p388
(dp389
g3
Nsg4
S'Sannsynlig, Meget sannsynlig'
p390
sg6
S'gray'
p391
sg8
(lp392
sg10
S'Likely'
p393
sg12
S'Isolated'
p394
sg14
g66
sg16
I0
sg17
S'High'
p395
sg19
S'Stor tilleggsbelastning'
p396
sg21
Nsg22
S'200'
p397
sg24
S'400'
p398
sg26
S'Isolerte faresoner'
p399
sg28
Nsg29
g345
sg31
S'2 - Smaa'
p400
sba(irunmatrix
M3Element
p401
(dp402
g3
Nsg4
S'Sannsynlig, Meget sannsynlig'
p403
sg6
S'gray'
p404
sg8
(lp405
sg10
S'Likely'
p406
sg12
S'Isolated'
p407
sg14
g66
sg16
I0
sg17
S'Low'
p408
sg19
S'Liten tilleggsbelastning'
p409
sg21
Nsg22
S'200'
p410
sg24
S'500'
p411
sg26
S'Isolerte faresoner'
p412
sg28
Nsg29
g345
sg31
S'2 - Smaa'
p413
sba(irunmatrix
M3Element
p414
(dp415
g3
Nsg4
S'Sannsynlig, Meget sannsynlig'
p416
sg6
S'gray'
p417
sg8
(lp418
sg10
S'Likely'
p419
sg12
S'Isolated'
p420
sg14
g66
sg16
I0
sg17
S'Nat'
p421
sg19
S'Naturlig utloest'
p422
sg21
Nsg22
S'200'
p423
sg24
S'600'
p424
sg26
S'Isolerte faresoner'
p425
sg28
Nsg29
g345
sg31
S'2 - Smaa'
p426
sba(irunmatrix
M3Element
p427
(dp428
g3
F2.0
sg4
S'Lite sannsynlig, Mulig'
p429
sg6
S'#ffff00'
p430
sg8
(lp431
I2
aI2
aI2
aI2
aI2
aI2
aI2
aI2
aI2
aI2
aI2
aI2
aI2
aI2
aI2
aI2
aI2
aI2
asg10
S'Possible'
p432
sg12
S'Some'
p433
sg14
g248
sg16
I2
sg17
S'High'
p434
sg19
S'Stor tilleggsbelastning'
p435
sg21
I18
sg22
S'200'
p436
sg24
S'700'
p437
sg26
S'Noen bratte heng'
p438
sg28
g124
(g128
S'\x00\x00\x00\x00\x00\x00\x00\x00'
p439
tp440
Rp441
sg29
g345
sg31
S'2 - Smaa'
p442
sba(irunmatrix
M3Element
p443
(dp444
g3
F2.056179775280899
sg4
S'Lite sannsynlig, Mulig'
p445
sg6
g430
sg8
(lp446
I2
aI2
aI2
aI2
aI2
aI2
aI2
aI2
aI2
aI2
aI2
aI2
aI2
aI2
aI2
aI3
aI3
aI3
aI2
aI2
aI3
aI3
aI2
aI2
aI2
aI2
aI2
aI2
aI2
aI2
aI2
aI2
aI2
aI2
aI2
aI2
aI2
aI2
aI2
aI2
aI2
aI2
aI2
aI2
aI2
aI2
aI2
aI2
aI2
aI2
aI2
aI2
aI2
aI2
aI2
aI2
aI2
aI2
aI2
aI2
aI2
aI2
aI2
aI2
aI2
aI2
aI2
aI2
aI2
aI2
aI2
aI2
aI2
aI2
aI2
aI2
aI2
aI2
aI2
aI2
aI2
aI2
aI2
aI2
aI2
aI2
aI2
aI2
aI2
asg10
S'Possible'
p447
sg12
S'Some'
p448
sg14
g248
sg16
I2
sg17
S'Low'
p449
sg19
S'Liten tilleggsbelastning'
p450
sg21
I89
sg22
S'200'
p451
sg24
S'800'
p452
sg26
S'Noen bratte heng'
p453
sg28
g124
(g128
S'\xc8\x97\xd0\xa7py\xcd?'
p454
tp455
Rp456
sg29
g345
sg31
S'2 - Smaa'
p457
sba(irunmatrix
M3Element
p458
(dp459
g3
F3.0
sg4
S'Lite sannsynlig, Mulig'
p460
sg6
S'#ff9900'
p461
sg8
(lp462
I3
asg10
S'Possible'
p463
sg12
S'Some'
p464
sg14
g248
sg16
I2
sg17
S'Nat'
p465
sg19
S'Naturlig utloest'
p466
sg21
I1
sg22
S'200'
p467
sg24
S'900'
p468
sg26
S'Noen bratte heng'
p469
sg28
g124
(g128
S'\x00\x00\x00\x00\x00\x00\x00\x00'
p470
tp471
Rp472
sg29
g345
sg31
S'2 - Smaa'
p473
sba(irunmatrix
M3Element
p474
(dp475
g3
Nsg4
S'Sannsynlig, Meget sannsynlig'
p476
sg6
S'gray'
p477
sg8
(lp478
sg10
S'Likely'
p479
sg12
S'Some'
p480
sg14
g66
sg16
I0
sg17
S'High'
p481
sg19
S'Stor tilleggsbelastning'
p482
sg21
Nsg22
S'200'
p483
sg24
S'1000'
p484
sg26
S'Noen bratte heng'
p485
sg28
Nsg29
g345
sg31
S'2 - Smaa'
p486
sba(irunmatrix
M3Element
p487
(dp488
g3
Nsg4
S'Sannsynlig, Meget sannsynlig'
p489
sg6
S'gray'
p490
sg8
(lp491
sg10
S'Likely'
p492
sg12
S'Some'
p493
sg14
g66
sg16
I0
sg17
S'Low'
p494
sg19
S'Liten tilleggsbelastning'
p495
sg21
Nsg22
S'200'
p496
sg24
S'1100'
p497
sg26
S'Noen bratte heng'
p498
sg28
Nsg29
g345
sg31
S'2 - Smaa'
p499
sba(irunmatrix
M3Element
p500
(dp501
g3
Nsg4
S'Sannsynlig, Meget sannsynlig'
p502
sg6
S'white'
p503
sg8
(lp504
sg10
S'Likely'
p505
sg12
S'Some'
p506
sg14
S'#ff9900'
p507
sg16
I3
sg17
S'Nat'
p508
sg19
S'Naturlig utloest'
p509
sg21
Nsg22
S'200'
p510
sg24
S'1200'
p511
sg26
S'Noen bratte heng'
p512
sg28
Nsg29
g345
sg31
S'2 - Smaa'
p513
sba(irunmatrix
M3Element
p514
(dp515
g3
Nsg4
S'Lite sannsynlig, Mulig'
p516
sg6
S'gray'
p517
sg8
(lp518
sg10
S'Possible'
p519
sg12
S'Many'
p520
sg14
g66
sg16
I0
sg17
S'High'
p521
sg19
S'Stor tilleggsbelastning'
p522
sg21
Nsg22
S'200'
p523
sg24
S'1300'
p524
sg26
S'Mange bratte heng'
p525
sg28
Nsg29
g345
sg31
S'2 - Smaa'
p526
sba(irunmatrix
M3Element
p527
(dp528
g3
F3.0
sg4
S'Lite sannsynlig, Mulig'
p529
sg6
g461
sg8
(lp530
I3
aI3
aI3
asg10
S'Possible'
p531
sg12
S'Many'
p532
sg14
g507
sg16
I3
sg17
S'Low'
p533
sg19
S'Liten tilleggsbelastning'
p534
sg21
I3
sg22
S'200'
p535
sg24
S'1400'
p536
sg26
S'Mange bratte heng'
p537
sg28
g124
(g128
S'\x00\x00\x00\x00\x00\x00\x00\x00'
p538
tp539
Rp540
sg29
g345
sg31
S'2 - Smaa'
p541
sba(irunmatrix
M3Element
p542
(dp543
g3
Nsg4
S'Lite sannsynlig, Mulig'
p544
sg6
S'gray'
p545
sg8
(lp546
sg10
S'Possible'
p547
sg12
S'Many'
p548
sg14
g66
sg16
I0
sg17
S'Nat'
p549
sg19
S'Naturlig utloest'
p550
sg21
Nsg22
S'200'
p551
sg24
S'1500'
p552
sg26
S'Mange bratte heng'
p553
sg28
Nsg29
g345
sg31
S'2 - Smaa'
p554
sba(irunmatrix
M3Element
p555
(dp556
g3
Nsg4
S'Sannsynlig, Meget sannsynlig'
p557
sg6
S'gray'
p558
sg8
(lp559
sg10
S'Likely'
p560
sg12
S'Many'
p561
sg14
g66
sg16
I0
sg17
S'High'
p562
sg19
S'Stor tilleggsbelastning'
p563
sg21
Nsg22
S'200'
p564
sg24
S'1600'
p565
sg26
S'Mange bratte heng'
p566
sg28
Nsg29
g345
sg31
S'2 - Smaa'
p567
sba(irunmatrix
M3Element
p568
(dp569
g3
Nsg4
S'Sannsynlig, Meget sannsynlig'
p570
sg6
S'white'
p571
sg8
(lp572
sg10
S'Likely'
p573
sg12
S'Many'
p574
sg14
S'#ff0000'
p575
sg16
I4
sg17
S'Low'
p576
sg19
S'Liten tilleggsbelastning'
p577
sg21
Nsg22
S'200'
p578
sg24
S'1700'
p579
sg26
S'Mange bratte heng'
p580
sg28
Nsg29
g345
sg31
S'2 - Smaa'
p581
sba(irunmatrix
M3Element
p582
(dp583
g3
Nsg4
S'Sannsynlig, Meget sannsynlig'
p584
sg6
S'white'
p585
sg8
(lp586
sg10
S'Likely'
p587
sg12
S'Many'
p588
sg14
g575
sg16
I4
sg17
S'Nat'
p589
sg19
S'Naturlig utloest'
p590
sg21
Nsg22
S'200'
p591
sg24
S'1800'
p592
sg26
S'Mange bratte heng'
p593
sg28
Nsg29
g345
sg31
S'2 - Smaa'
p594
sba(irunmatrix
M3Element
p595
(dp596
g3
Nsg4
S'Lite sannsynlig, Mulig'
p597
sg6
S'gray'
p598
sg8
(lp599
sg10
S'Possible'
p600
sg12
S'Most'
p601
sg14
g66
sg16
I0
sg17
S'High'
p602
sg19
S'Stor tilleggsbelastning'
p603
sg21
Nsg22
S'200'
p604
sg24
S'1900'
p605
sg26
S'De fleste bratte heng, Ogsaa i mindre bratt terreng'
p606
sg28
Nsg29
g345
sg31
S'2 - Smaa'
p607
sba(irunmatrix
M3Element
p608
(dp609
g3
Nsg4
S'Lite sannsynlig, Mulig'
p610
sg6
S'gray'
p611
sg8
(lp612
sg10
S'Possible'
p613
sg12
S'Most'
p614
sg14
g66
sg16
I0
sg17
S'Low'
p615
sg19
S'Liten tilleggsbelastning'
p616
sg21
Nsg22
S'200'
p617
sg24
S'2000'
p618
sg26
S'De fleste bratte heng, Ogsaa i mindre bratt terreng'
p619
sg28
Nsg29
g345
sg31
S'2 - Smaa'
p620
sba(irunmatrix
M3Element
p621
(dp622
g3
Nsg4
S'Lite sannsynlig, Mulig'
p623
sg6
S'gray'
p624
sg8
(lp625
sg10
S'Possible'
p626
sg12
S'Most'
p627
sg14
g66
sg16
I0
sg17
S'Nat'
p628
sg19
S'Naturlig utloest'
p629
sg21
Nsg22
S'200'
p630
sg24
S'2100'
p631
sg26
S'De fleste bratte heng, Ogsaa i mindre bratt terreng'
p632
sg28
Nsg29
g345
sg31
S'2 - Smaa'
p633
sba(irunmatrix
M3Element
p634
(dp635
g3
Nsg4
S'Sannsynlig, Meget sannsynlig'
p636
sg6
S'gray'
p637
sg8
(lp638
sg10
S'Likely'
p639
sg12
S'Most'
p640
sg14
g66
sg16
I0
sg17
S'High'
p641
sg19
S'Stor tilleggsbelastning'
p642
sg21
Nsg22
S'200'
p643
sg24
S'2200'
p644
sg26
S'De fleste bratte heng, Ogsaa i mindre bratt terreng'
p645
sg28
Nsg29
g345
sg31
S'2 - Smaa'
p646
sba(irunmatrix
M3Element
p647
(dp648
g3
Nsg4
S'Sannsynlig, Meget sannsynlig'
p649
sg6
S'gray'
p650
sg8
(lp651
sg10
S'Likely'
p652
sg12
S'Most'
p653
sg14
g66
sg16
I0
sg17
S'Low'
p654
sg19
S'Liten tilleggsbelastning'
p655
sg21
Nsg22
S'200'
p656
sg24
S'2300'
p657
sg26
S'De fleste bratte heng, Ogsaa i mindre bratt terreng'
p658
sg28
Nsg29
g345
sg31
S'2 - Smaa'
p659
sba(irunmatrix
M3Element
p660
(dp661
g3
Nsg4
S'Sannsynlig, Meget sannsynlig'
p662
sg6
S'white'
p663
sg8
(lp664
sg10
S'Likely'
p665
sg12
S'Most'
p666
sg14
g66
sg16
I0
sg17
S'Nat'
p667
sg19
S'Naturlig utloest'
p668
sg21
Nsg22
S'200'
p669
sg24
S'2400'
p670
sg26
S'De fleste bratte heng, Ogsaa i mindre bratt terreng'
p671
sg28
Nsg29
g345
sg31
S'2 - Smaa'
p672
sba(irunmatrix
M3Element
p673
(dp674
g3
Nsg4
S'Lite sannsynlig, Mulig'
p675
sg6
S'white'
p676
sg8
(lp677
sg10
S'Possible'
p678
sg12
S'Isolated'
p679
sg14
g15
sg16
I1
sg17
S'High'
p680
sg19
S'Stor tilleggsbelastning'
p681
sg21
Nsg22
S'300'
p682
sg24
S'100'
p683
sg26
S'Isolerte faresoner'
p684
sg28
Nsg29
S'3'
p685
sg31
S'3 - Middels'
p686
sba(irunmatrix
M3Element
p687
(dp688
g3
Nsg4
S'Lite sannsynlig, Mulig'
p689
sg6
S'white'
p690
sg8
(lp691
sg10
S'Possible'
p692
sg12
S'Isolated'
p693
sg14
g248
sg16
I2
sg17
S'Low'
p694
sg19
S'Liten tilleggsbelastning'
p695
sg21
Nsg22
S'300'
p696
sg24
S'200'
p697
sg26
S'Isolerte faresoner'
p698
sg28
Nsg29
g685
sg31
S'3 - Middels'
p699
sba(irunmatrix
M3Element
p700
(dp701
g3
Nsg4
S'Lite sannsynlig, Mulig'
p702
sg6
S'white'
p703
sg8
(lp704
sg10
S'Possible'
p705
sg12
S'Isolated'
p706
sg14
g248
sg16
I2
sg17
S'Nat'
p707
sg19
S'Naturlig utloest'
p708
sg21
Nsg22
S'300'
p709
sg24
S'300'
p710
sg26
S'Isolerte faresoner'
p711
sg28
Nsg29
g685
sg31
S'3 - Middels'
p712
sba(irunmatrix
M3Element
p713
(dp714
g3
Nsg4
S'Sannsynlig, Meget sannsynlig'
p715
sg6
S'gray'
p716
sg8
(lp717
sg10
S'Likely'
p718
sg12
S'Isolated'
p719
sg14
g66
sg16
I0
sg17
S'High'
p720
sg19
S'Stor tilleggsbelastning'
p721
sg21
Nsg22
S'300'
p722
sg24
S'400'
p723
sg26
S'Isolerte faresoner'
p724
sg28
Nsg29
g685
sg31
S'3 - Middels'
p725
sba(irunmatrix
M3Element
p726
(dp727
g3
Nsg4
S'Sannsynlig, Meget sannsynlig'
p728
sg6
S'gray'
p729
sg8
(lp730
sg10
S'Likely'
p731
sg12
S'Isolated'
p732
sg14
g66
sg16
I0
sg17
S'Low'
p733
sg19
S'Liten tilleggsbelastning'
p734
sg21
Nsg22
S'300'
p735
sg24
S'500'
p736
sg26
S'Isolerte faresoner'
p737
sg28
Nsg29
g685
sg31
S'3 - Middels'
p738
sba(irunmatrix
M3Element
p739
(dp740
g3
Nsg4
S'Sannsynlig, Meget sannsynlig'
p741
sg6
S'gray'
p742
sg8
(lp743
sg10
S'Likely'
p744
sg12
S'Isolated'
p745
sg14
g66
sg16
I0
sg17
S'Nat'
p746
sg19
S'Naturlig utloest'
p747
sg21
Nsg22
S'300'
p748
sg24
S'600'
p749
sg26
S'Isolerte faresoner'
p750
sg28
Nsg29
g685
sg31
S'3 - Middels'
p751
sba(irunmatrix
M3Element
p752
(dp753
g3
Nsg4
S'Lite sannsynlig, Mulig'
p754
sg6
S'white'
p755
sg8
(lp756
sg10
S'Possible'
p757
sg12
S'Some'
p758
sg14
g248
sg16
I2
sg17
S'High'
p759
sg19
S'Stor tilleggsbelastning'
p760
sg21
Nsg22
S'300'
p761
sg24
S'700'
p762
sg26
S'Noen bratte heng'
p763
sg28
Nsg29
g685
sg31
S'3 - Middels'
p764
sba(irunmatrix
M3Element
p765
(dp766
g3
F3.0
sg4
S'Lite sannsynlig, Mulig'
p767
sg6
g461
sg8
(lp768
I3
aI3
aI3
aI3
aI3
aI3
aI3
aI3
aI3
aI3
aI3
aI3
aI3
aI3
aI3
aI3
aI3
aI3
asg10
S'Possible'
p769
sg12
S'Some'
p770
sg14
g507
sg16
I3
sg17
S'Low'
p771
sg19
S'Liten tilleggsbelastning'
p772
sg21
I18
sg22
S'300'
p773
sg24
S'800'
p774
sg26
S'Noen bratte heng'
p775
sg28
g124
(g128
S'\x00\x00\x00\x00\x00\x00\x00\x00'
p776
tp777
Rp778
sg29
g685
sg31
S'3 - Middels'
p779
sba(irunmatrix
M3Element
p780
(dp781
g3
F3.0
sg4
S'Lite sannsynlig, Mulig'
p782
sg6
g461
sg8
(lp783
I3
asg10
S'Possible'
p784
sg12
S'Some'
p785
sg14
g507
sg16
I3
sg17
S'Nat'
p786
sg19
S'Naturlig utloest'
p787
sg21
I1
sg22
S'300'
p788
sg24
S'900'
p789
sg26
S'Noen bratte heng'
p790
sg28
g124
(g128
S'\x00\x00\x00\x00\x00\x00\x00\x00'
p791
tp792
Rp793
sg29
g685
sg31
S'3 - Middels'
p794
sba(irunmatrix
M3Element
p795
(dp796
g3
Nsg4
S'Sannsynlig, Meget sannsynlig'
p797
sg6
S'gray'
p798
sg8
(lp799
sg10
S'Likely'
p800
sg12
S'Some'
p801
sg14
g66
sg16
I0
sg17
S'High'
p802
sg19
S'Stor tilleggsbelastning'
p803
sg21
Nsg22
S'300'
p804
sg24
S'1000'
p805
sg26
S'Noen bratte heng'
p806
sg28
Nsg29
g685
sg31
S'3 - Middels'
p807
sba(irunmatrix
M3Element
p808
(dp809
g3
Nsg4
S'Sannsynlig, Meget sannsynlig'
p810
sg6
S'gray'
p811
sg8
(lp812
sg10
S'Likely'
p813
sg12
S'Some'
p814
sg14
g66
sg16
I0
sg17
S'Low'
p815
sg19
S'Liten tilleggsbelastning'
p816
sg21
Nsg22
S'300'
p817
sg24
S'1100'
p818
sg26
S'Noen bratte heng'
p819
sg28
Nsg29
g685
sg31
S'3 - Middels'
p820
sba(irunmatrix
M3Element
p821
(dp822
g3
Nsg4
S'Sannsynlig, Meget sannsynlig'
p823
sg6
S'white'
p824
sg8
(lp825
sg10
S'Likely'
p826
sg12
S'Some'
p827
sg14
g575
sg16
I4
sg17
S'Nat'
p828
sg19
S'Naturlig utloest'
p829
sg21
Nsg22
S'300'
p830
sg24
S'1200'
p831
sg26
S'Noen bratte heng'
p832
sg28
Nsg29
g685
sg31
S'3 - Middels'
p833
sba(irunmatrix
M3Element
p834
(dp835
g3
Nsg4
S'Lite sannsynlig, Mulig'
p836
sg6
S'gray'
p837
sg8
(lp838
sg10
S'Possible'
p839
sg12
S'Many'
p840
sg14
g66
sg16
I0
sg17
S'High'
p841
sg19
S'Stor tilleggsbelastning'
p842
sg21
Nsg22
S'300'
p843
sg24
S'1300'
p844
sg26
S'Mange bratte heng'
p845
sg28
Nsg29
g685
sg31
S'3 - Middels'
p846
sba(irunmatrix
M3Element
p847
(dp848
g3
Nsg4
S'Lite sannsynlig, Mulig'
p849
sg6
S'white'
p850
sg8
(lp851
sg10
S'Possible'
p852
sg12
S'Many'
p853
sg14
g575
sg16
I4
sg17
S'Low'
p854
sg19
S'Liten tilleggsbelastning'
p855
sg21
Nsg22
S'300'
p856
sg24
S'1400'
p857
sg26
S'Mange bratte heng'
p858
sg28
Nsg29
g685
sg31
S'3 - Middels'
p859
sba(irunmatrix
M3Element
p860
(dp861
g3
Nsg4
S'Lite sannsynlig, Mulig'
p862
sg6
S'gray'
p863
sg8
(lp864
sg10
S'Possible'
p865
sg12
S'Many'
p866
sg14
g66
sg16
I0
sg17
S'Nat'
p867
sg19
S'Naturlig utloest'
p868
sg21
Nsg22
S'300'
p869
sg24
S'1500'
p870
sg26
S'Mange bratte heng'
p871
sg28
Nsg29
g685
sg31
S'3 - Middels'
p872
sba(irunmatrix
M3Element
p873
(dp874
g3
Nsg4
S'Sannsynlig, Meget sannsynlig'
p875
sg6
S'gray'
p876
sg8
(lp877
sg10
S'Likely'
p878
sg12
S'Many'
p879
sg14
g66
sg16
I0
sg17
S'High'
p880
sg19
S'Stor tilleggsbelastning'
p881
sg21
Nsg22
S'300'
p882
sg24
S'1600'
p883
sg26
S'Mange bratte heng'
p884
sg28
Nsg29
g685
sg31
S'3 - Middels'
p885
sba(irunmatrix
M3Element
p886
(dp887
g3
Nsg4
S'Sannsynlig, Meget sannsynlig'
p888
sg6
S'white'
p889
sg8
(lp890
sg10
S'Likely'
p891
sg12
S'Many'
p892
sg14
g575
sg16
I4
sg17
S'Low'
p893
sg19
S'Liten tilleggsbelastning'
p894
sg21
Nsg22
S'300'
p895
sg24
S'1700'
p896
sg26
S'Mange bratte heng'
p897
sg28
Nsg29
g685
sg31
S'3 - Middels'
p898
sba(irunmatrix
M3Element
p899
(dp900
g3
Nsg4
S'Sannsynlig, Meget sannsynlig'
p901
sg6
S'white'
p902
sg8
(lp903
sg10
S'Likely'
p904
sg12
S'Many'
p905
sg14
g575
sg16
I4
sg17
S'Nat'
p906
sg19
S'Naturlig utloest'
p907
sg21
Nsg22
S'300'
p908
sg24
S'1800'
p909
sg26
S'Mange bratte heng'
p910
sg28
Nsg29
g685
sg31
S'3 - Middels'
p911
sba(irunmatrix
M3Element
p912
(dp913
g3
Nsg4
S'Lite sannsynlig, Mulig'
p914
sg6
S'gray'
p915
sg8
(lp916
sg10
S'Possible'
p917
sg12
S'Most'
p918
sg14
g66
sg16
I0
sg17
S'High'
p919
sg19
S'Stor tilleggsbelastning'
p920
sg21
Nsg22
S'300'
p921
sg24
S'1900'
p922
sg26
S'De fleste bratte heng, Ogsaa i mindre bratt terreng'
p923
sg28
Nsg29
g685
sg31
S'3 - Middels'
p924
sba(irunmatrix
M3Element
p925
(dp926
g3
Nsg4
S'Lite sannsynlig, Mulig'
p927
sg6
S'gray'
p928
sg8
(lp929
sg10
S'Possible'
p930
sg12
S'Most'
p931
sg14
g66
sg16
I0
sg17
S'Low'
p932
sg19
S'Liten tilleggsbelastning'
p933
sg21
Nsg22
S'300'
p934
sg24
S'2000'
p935
sg26
S'De fleste bratte heng, Ogsaa i mindre bratt terreng'
p936
sg28
Nsg29
g685
sg31
S'3 - Middels'
p937
sba(irunmatrix
M3Element
p938
(dp939
g3
Nsg4
S'Lite sannsynlig, Mulig'
p940
sg6
S'gray'
p941
sg8
(lp942
sg10
S'Possible'
p943
sg12
S'Most'
p944
sg14
g66
sg16
I0
sg17
S'Nat'
p945
sg19
S'Naturlig utloest'
p946
sg21
Nsg22
S'300'
p947
sg24
S'2100'
p948
sg26
S'De fleste bratte heng, Ogsaa i mindre bratt terreng'
p949
sg28
Nsg29
g685
sg31
S'3 - Middels'
p950
sba(irunmatrix
M3Element
p951
(dp952
g3
Nsg4
S'Sannsynlig, Meget sannsynlig'
p953
sg6
S'gray'
p954
sg8
(lp955
sg10
S'Likely'
p956
sg12
S'Most'
p957
sg14
g66
sg16
I0
sg17
S'High'
p958
sg19
S'Stor tilleggsbelastning'
p959
sg21
Nsg22
S'300'
p960
sg24
S'2200'
p961
sg26
S'De fleste bratte heng, Ogsaa i mindre bratt terreng'
p962
sg28
Nsg29
g685
sg31
S'3 - Middels'
p963
sba(irunmatrix
M3Element
p964
(dp965
g3
Nsg4
S'Sannsynlig, Meget sannsynlig'
p966
sg6
S'gray'
p967
sg8
(lp968
sg10
S'Likely'
p969
sg12
S'Most'
p970
sg14
g66
sg16
I0
sg17
S'Low'
p971
sg19
S'Liten tilleggsbelastning'
p972
sg21
Nsg22
S'300'
p973
sg24
S'2300'
p974
sg26
S'De fleste bratte heng, Ogsaa i mindre bratt terreng'
p975
sg28
Nsg29
g685
sg31
S'3 - Middels'
p976
sba(irunmatrix
M3Element
p977
(dp978
g3
Nsg4
S'Sannsynlig, Meget sannsynlig'
p979
sg6
S'white'
p980
sg8
(lp981
sg10
S'Likely'
p982
sg12
S'Most'
p983
sg14
g66
sg16
I0
sg17
S'Nat'
p984
sg19
S'Naturlig utloest'
p985
sg21
Nsg22
S'300'
p986
sg24
S'2400'
p987
sg26
S'De fleste bratte heng, Ogsaa i mindre bratt terreng'
p988
sg28
Nsg29
g685
sg31
S'3 - Middels'
p989
sba(irunmatrix
M3Element
p990
(dp991
g3
Nsg4
S'Lite sannsynlig, Mulig'
p992
sg6
S'white'
p993
sg8
(lp994
sg10
S'Possible'
p995
sg12
S'Isolated'
p996
sg14
g248
sg16
I2
sg17
S'High'
p997
sg19
S'Stor tilleggsbelastning'
p998
sg21
Nsg22
S'400'
p999
sg24
S'100'
p1000
sg26
S'Isolerte faresoner'
p1001
sg28
Nsg29
S'4'
p1002
sg31
S'4 - Store'
p1003
sba(irunmatrix
M3Element
p1004
(dp1005
g3
Nsg4
S'Lite sannsynlig, Mulig'
p1006
sg6
S'white'
p1007
sg8
(lp1008
sg10
S'Possible'
p1009
sg12
S'Isolated'
p1010
sg14
g507
sg16
I3
sg17
S'Low'
p1011
sg19
S'Liten tilleggsbelastning'
p1012
sg21
Nsg22
S'400'
p1013
sg24
S'200'
p1014
sg26
S'Isolerte faresoner'
p1015
sg28
Nsg29
g1002
sg31
S'4 - Store'
p1016
sba(irunmatrix
M3Element
p1017
(dp1018
g3
Nsg4
S'Lite sannsynlig, Mulig'
p1019
sg6
S'white'
p1020
sg8
(lp1021
sg10
S'Possible'
p1022
sg12
S'Isolated'
p1023
sg14
g507
sg16
I3
sg17
S'Nat'
p1024
sg19
S'Naturlig utloest'
p1025
sg21
Nsg22
S'400'
p1026
sg24
S'300'
p1027
sg26
S'Isolerte faresoner'
p1028
sg28
Nsg29
g1002
sg31
S'4 - Store'
p1029
sba(irunmatrix
M3Element
p1030
(dp1031
g3
Nsg4
S'Sannsynlig, Meget sannsynlig'
p1032
sg6
S'gray'
p1033
sg8
(lp1034
sg10
S'Likely'
p1035
sg12
S'Isolated'
p1036
sg14
g66
sg16
I0
sg17
S'High'
p1037
sg19
S'Stor tilleggsbelastning'
p1038
sg21
Nsg22
S'400'
p1039
sg24
S'400'
p1040
sg26
S'Isolerte faresoner'
p1041
sg28
Nsg29
g1002
sg31
S'4 - Store'
p1042
sba(irunmatrix
M3Element
p1043
(dp1044
g3
Nsg4
S'Sannsynlig, Meget sannsynlig'
p1045
sg6
S'gray'
p1046
sg8
(lp1047
sg10
S'Likely'
p1048
sg12
S'Isolated'
p1049
sg14
g66
sg16
I0
sg17
S'Low'
p1050
sg19
S'Liten tilleggsbelastning'
p1051
sg21
Nsg22
S'400'
p1052
sg24
S'500'
p1053
sg26
S'Isolerte faresoner'
p1054
sg28
Nsg29
g1002
sg31
S'4 - Store'
p1055
sba(irunmatrix
M3Element
p1056
(dp1057
g3
Nsg4
S'Sannsynlig, Meget sannsynlig'
p1058
sg6
S'gray'
p1059
sg8
(lp1060
sg10
S'Likely'
p1061
sg12
S'Isolated'
p1062
sg14
g66
sg16
I0
sg17
S'Nat'
p1063
sg19
S'Naturlig utloest'
p1064
sg21
Nsg22
S'400'
p1065
sg24
S'600'
p1066
sg26
S'Isolerte faresoner'
p1067
sg28
Nsg29
g1002
sg31
S'4 - Store'
p1068
sba(irunmatrix
M3Element
p1069
(dp1070
g3
Nsg4
S'Lite sannsynlig, Mulig'
p1071
sg6
S'white'
p1072
sg8
(lp1073
sg10
S'Possible'
p1074
sg12
S'Some'
p1075
sg14
g507
sg16
I3
sg17
S'High'
p1076
sg19
S'Stor tilleggsbelastning'
p1077
sg21
Nsg22
S'400'
p1078
sg24
S'700'
p1079
sg26
S'Noen bratte heng'
p1080
sg28
Nsg29
g1002
sg31
S'4 - Store'
p1081
sba(irunmatrix
M3Element
p1082
(dp1083
g3
Nsg4
S'Lite sannsynlig, Mulig'
p1084
sg6
S'white'
p1085
sg8
(lp1086
sg10
S'Possible'
p1087
sg12
S'Some'
p1088
sg14
g575
sg16
I4
sg17
S'Low'
p1089
sg19
S'Liten tilleggsbelastning'
p1090
sg21
Nsg22
S'400'
p1091
sg24
S'800'
p1092
sg26
S'Noen bratte heng'
p1093
sg28
Nsg29
g1002
sg31
S'4 - Store'
p1094
sba(irunmatrix
M3Element
p1095
(dp1096
g3
Nsg4
S'Lite sannsynlig, Mulig'
p1097
sg6
S'white'
p1098
sg8
(lp1099
sg10
S'Possible'
p1100
sg12
S'Some'
p1101
sg14
g575
sg16
I4
sg17
S'Nat'
p1102
sg19
S'Naturlig utloest'
p1103
sg21
Nsg22
S'400'
p1104
sg24
S'900'
p1105
sg26
S'Noen bratte heng'
p1106
sg28
Nsg29
g1002
sg31
S'4 - Store'
p1107
sba(irunmatrix
M3Element
p1108
(dp1109
g3
Nsg4
S'Sannsynlig, Meget sannsynlig'
p1110
sg6
S'gray'
p1111
sg8
(lp1112
sg10
S'Likely'
p1113
sg12
S'Some'
p1114
sg14
g66
sg16
I0
sg17
S'High'
p1115
sg19
S'Stor tilleggsbelastning'
p1116
sg21
Nsg22
S'400'
p1117
sg24
S'1000'
p1118
sg26
S'Noen bratte heng'
p1119
sg28
Nsg29
g1002
sg31
S'4 - Store'
p1120
sba(irunmatrix
M3Element
p1121
(dp1122
g3
Nsg4
S'Sannsynlig, Meget sannsynlig'
p1123
sg6
S'gray'
p1124
sg8
(lp1125
sg10
S'Likely'
p1126
sg12
S'Some'
p1127
sg14
g66
sg16
I0
sg17
S'Low'
p1128
sg19
S'Liten tilleggsbelastning'
p1129
sg21
Nsg22
S'400'
p1130
sg24
S'1100'
p1131
sg26
S'Noen bratte heng'
p1132
sg28
Nsg29
g1002
sg31
S'4 - Store'
p1133
sba(irunmatrix
M3Element
p1134
(dp1135
g3
Nsg4
S'Sannsynlig, Meget sannsynlig'
p1136
sg6
S'white'
p1137
sg8
(lp1138
sg10
S'Likely'
p1139
sg12
S'Some'
p1140
sg14
g575
sg16
I4
sg17
S'Nat'
p1141
sg19
S'Naturlig utloest'
p1142
sg21
Nsg22
S'400'
p1143
sg24
S'1200'
p1144
sg26
S'Noen bratte heng'
p1145
sg28
Nsg29
g1002
sg31
S'4 - Store'
p1146
sba(irunmatrix
M3Element
p1147
(dp1148
g3
Nsg4
S'Lite sannsynlig, Mulig'
p1149
sg6
S'gray'
p1150
sg8
(lp1151
sg10
S'Possible'
p1152
sg12
S'Many'
p1153
sg14
g66
sg16
I0
sg17
S'High'
p1154
sg19
S'Stor tilleggsbelastning'
p1155
sg21
Nsg22
S'400'
p1156
sg24
S'1300'
p1157
sg26
S'Mange bratte heng'
p1158
sg28
Nsg29
g1002
sg31
S'4 - Store'
p1159
sba(irunmatrix
M3Element
p1160
(dp1161
g3
Nsg4
S'Lite sannsynlig, Mulig'
p1162
sg6
S'white'
p1163
sg8
(lp1164
sg10
S'Possible'
p1165
sg12
S'Many'
p1166
sg14
g66
sg16
I0
sg17
S'Low'
p1167
sg19
S'Liten tilleggsbelastning'
p1168
sg21
Nsg22
S'400'
p1169
sg24
S'1400'
p1170
sg26
S'Mange bratte heng'
p1171
sg28
Nsg29
g1002
sg31
S'4 - Store'
p1172
sba(irunmatrix
M3Element
p1173
(dp1174
g3
Nsg4
S'Lite sannsynlig, Mulig'
p1175
sg6
S'gray'
p1176
sg8
(lp1177
sg10
S'Possible'
p1178
sg12
S'Many'
p1179
sg14
g66
sg16
I0
sg17
S'Nat'
p1180
sg19
S'Naturlig utloest'
p1181
sg21
Nsg22
S'400'
p1182
sg24
S'1500'
p1183
sg26
S'Mange bratte heng'
p1184
sg28
Nsg29
g1002
sg31
S'4 - Store'
p1185
sba(irunmatrix
M3Element
p1186
(dp1187
g3
Nsg4
S'Sannsynlig, Meget sannsynlig'
p1188
sg6
S'gray'
p1189
sg8
(lp1190
sg10
S'Likely'
p1191
sg12
S'Many'
p1192
sg14
g66
sg16
I0
sg17
S'High'
p1193
sg19
S'Stor tilleggsbelastning'
p1194
sg21
Nsg22
S'400'
p1195
sg24
S'1600'
p1196
sg26
S'Mange bratte heng'
p1197
sg28
Nsg29
g1002
sg31
S'4 - Store'
p1198
sba(irunmatrix
M3Element
p1199
(dp1200
g3
Nsg4
S'Sannsynlig, Meget sannsynlig'
p1201
sg6
S'white'
p1202
sg8
(lp1203
sg10
S'Likely'
p1204
sg12
S'Many'
p1205
sg14
g66
sg16
I0
sg17
S'Low'
p1206
sg19
S'Liten tilleggsbelastning'
p1207
sg21
Nsg22
S'400'
p1208
sg24
S'1700'
p1209
sg26
S'Mange bratte heng'
p1210
sg28
Nsg29
g1002
sg31
S'4 - Store'
p1211
sba(irunmatrix
M3Element
p1212
(dp1213
g3
Nsg4
S'Sannsynlig, Meget sannsynlig'
p1214
sg6
S'white'
p1215
sg8
(lp1216
sg10
S'Likely'
p1217
sg12
S'Many'
p1218
sg14
S'k'
p1219
sg16
I5
sg17
S'Nat'
p1220
sg19
S'Naturlig utloest'
p1221
sg21
Nsg22
S'400'
p1222
sg24
S'1800'
p1223
sg26
S'Mange bratte heng'
p1224
sg28
Nsg29
g1002
sg31
S'4 - Store'
p1225
sba(irunmatrix
M3Element
p1226
(dp1227
g3
Nsg4
S'Lite sannsynlig, Mulig'
p1228
sg6
S'gray'
p1229
sg8
(lp1230
sg10
S'Possible'
p1231
sg12
S'Most'
p1232
sg14
g66
sg16
I0
sg17
S'High'
p1233
sg19
S'Stor tilleggsbelastning'
p1234
sg21
Nsg22
S'400'
p1235
sg24
S'1900'
p1236
sg26
S'De fleste bratte heng, Ogsaa i mindre bratt terreng'
p1237
sg28
Nsg29
g1002
sg31
S'4 - Store'
p1238
sba(irunmatrix
M3Element
p1239
(dp1240
g3
Nsg4
S'Lite sannsynlig, Mulig'
p1241
sg6
S'gray'
p1242
sg8
(lp1243
sg10
S'Possible'
p1244
sg12
S'Most'
p1245
sg14
g66
sg16
I0
sg17
S'Low'
p1246
sg19
S'Liten tilleggsbelastning'
p1247
sg21
Nsg22
S'400'
p1248
sg24
S'2000'
p1249
sg26
S'De fleste bratte heng, Ogsaa i mindre bratt terreng'
p1250
sg28
Nsg29
g1002
sg31
S'4 - Store'
p1251
sba(irunmatrix
M3Element
p1252
(dp1253
g3
Nsg4
S'Lite sannsynlig, Mulig'
p1254
sg6
S'gray'
p1255
sg8
(lp1256
sg10
S'Possible'
p1257
sg12
S'Most'
p1258
sg14
g66
sg16
I0
sg17
S'Nat'
p1259
sg19
S'Naturlig utloest'
p1260
sg21
Nsg22
S'400'
p1261
sg24
S'2100'
p1262
sg26
S'De fleste bratte heng, Ogsaa i mindre bratt terreng'
p1263
sg28
Nsg29
g1002
sg31
S'4 - Store'
p1264
sba(irunmatrix
M3Element
p1265
(dp1266
g3
Nsg4
S'Sannsynlig, Meget sannsynlig'
p1267
sg6
S'gray'
p1268
sg8
(lp1269
sg10
S'Likely'
p1270
sg12
S'Most'
p1271
sg14
g66
sg16
I0
sg17
S'High'
p1272
sg19
S'Stor tilleggsbelastning'
p1273
sg21
Nsg22
S'400'
p1274
sg24
S'2200'
p1275
sg26
S'De fleste bratte heng, Ogsaa i mindre bratt terreng'
p1276
sg28
Nsg29
g1002
sg31
S'4 - Store'
p1277
sba(irunmatrix
M3Element
p1278
(dp1279
g3
Nsg4
S'Sannsynlig, Meget sannsynlig'
p1280
sg6
S'gray'
p1281
sg8
(lp1282
sg10
S'Likely'
p1283
sg12
S'Most'
p1284
sg14
g66
sg16
I0
sg17
S'Low'
p1285
sg19
S'Liten tilleggsbelastning'
p1286
sg21
Nsg22
S'400'
p1287
sg24
S'2300'
p1288
sg26
S'De fleste bratte heng, Ogsaa i mindre bratt terreng'
p1289
sg28
Nsg29
g1002
sg31
S'4 - Store'
p1290
sba(irunmatrix
M3Element
p1291
(dp1292
g3
Nsg4
S'Sannsynlig, Meget sannsynlig'
p1293
sg6
S'white'
p1294
sg8
(lp1295
sg10
S'Likely'
p1296
sg12
S'Most'
p1297
sg14
g66
sg16
I0
sg17
S'Nat'
p1298
sg19
S'Naturlig utloest'
p1299
sg21
Nsg22
S'400'
p1300
sg24
S'2400'
p1301
sg26
S'De fleste bratte heng, Ogsaa i mindre bratt terreng'
p1302
sg28
Nsg29
g1002
sg31
S'4 - Store'
p1303
sba(irunmatrix
M3Element
p1304
(dp1305
g3
Nsg4
S'Lite sannsynlig, Mulig'
p1306
sg6
S'white'
p1307
sg8
(lp1308
sg10
S'Possible'
p1309
sg12
S'Isolated'
p1310
sg14
g66
sg16
I0
sg17
S'High'
p1311
sg19
S'Stor tilleggsbelastning'
p1312
sg21
Nsg22
S'500'
p1313
sg24
S'100'
p1314
sg26
S'Isolerte faresoner'
p1315
sg28
Nsg29
S'5'
p1316
sg31
S'5 - Svaert store'
p1317
sba(irunmatrix
M3Element
p1318
(dp1319
g3
Nsg4
S'Lite sannsynlig, Mulig'
p1320
sg6
S'white'
p1321
sg8
(lp1322
sg10
S'Possible'
p1323
sg12
S'Isolated'
p1324
sg14
g66
sg16
I0
sg17
S'Low'
p1325
sg19
S'Liten tilleggsbelastning'
p1326
sg21
Nsg22
S'500'
p1327
sg24
S'200'
p1328
sg26
S'Isolerte faresoner'
p1329
sg28
Nsg29
g1316
sg31
S'5 - Svaert store'
p1330
sba(irunmatrix
M3Element
p1331
(dp1332
g3
Nsg4
S'Lite sannsynlig, Mulig'
p1333
sg6
S'white'
p1334
sg8
(lp1335
sg10
S'Possible'
p1336
sg12
S'Isolated'
p1337
sg14
g66
sg16
I0
sg17
S'Nat'
p1338
sg19
S'Naturlig utloest'
p1339
sg21
Nsg22
S'500'
p1340
sg24
S'300'
p1341
sg26
S'Isolerte faresoner'
p1342
sg28
Nsg29
g1316
sg31
S'5 - Svaert store'
p1343
sba(irunmatrix
M3Element
p1344
(dp1345
g3
Nsg4
S'Sannsynlig, Meget sannsynlig'
p1346
sg6
S'gray'
p1347
sg8
(lp1348
sg10
S'Likely'
p1349
sg12
S'Isolated'
p1350
sg14
g66
sg16
I0
sg17
S'High'
p1351
sg19
S'Stor tilleggsbelastning'
p1352
sg21
Nsg22
S'500'
p1353
sg24
S'400'
p1354
sg26
S'Isolerte faresoner'
p1355
sg28
Nsg29
g1316
sg31
S'5 - Svaert store'
p1356
sba(irunmatrix
M3Element
p1357
(dp1358
g3
Nsg4
S'Sannsynlig, Meget sannsynlig'
p1359
sg6
S'gray'
p1360
sg8
(lp1361
sg10
S'Likely'
p1362
sg12
S'Isolated'
p1363
sg14
g66
sg16
I0
sg17
S'Low'
p1364
sg19
S'Liten tilleggsbelastning'
p1365
sg21
Nsg22
S'500'
p1366
sg24
S'500'
p1367
sg26
S'Isolerte faresoner'
p1368
sg28
Nsg29
g1316
sg31
S'5 - Svaert store'
p1369
sba(irunmatrix
M3Element
p1370
(dp1371
g3
Nsg4
S'Sannsynlig, Meget sannsynlig'
p1372
sg6
S'gray'
p1373
sg8
(lp1374
sg10
S'Likely'
p1375
sg12
S'Isolated'
p1376
sg14
g66
sg16
I0
sg17
S'Nat'
p1377
sg19
S'Naturlig utloest'
p1378
sg21
Nsg22
S'500'
p1379
sg24
S'600'
p1380
sg26
S'Isolerte faresoner'
p1381
sg28
Nsg29
g1316
sg31
S'5 - Svaert store'
p1382
sba(irunmatrix
M3Element
p1383
(dp1384
g3
Nsg4
S'Lite sannsynlig, Mulig'
p1385
sg6
S'white'
p1386
sg8
(lp1387
sg10
S'Possible'
p1388
sg12
S'Some'
p1389
sg14
g66
sg16
I0
sg17
S'High'
p1390
sg19
S'Stor tilleggsbelastning'
p1391
sg21
Nsg22
S'500'
p1392
sg24
S'700'
p1393
sg26
S'Noen bratte heng'
p1394
sg28
Nsg29
g1316
sg31
S'5 - Svaert store'
p1395
sba(irunmatrix
M3Element
p1396
(dp1397
g3
Nsg4
S'Lite sannsynlig, Mulig'
p1398
sg6
S'white'
p1399
sg8
(lp1400
sg10
S'Possible'
p1401
sg12
S'Some'
p1402
sg14
g66
sg16
I0
sg17
S'Low'
p1403
sg19
S'Liten tilleggsbelastning'
p1404
sg21
Nsg22
S'500'
p1405
sg24
S'800'
p1406
sg26
S'Noen bratte heng'
p1407
sg28
Nsg29
g1316
sg31
S'5 - Svaert store'
p1408
sba(irunmatrix
M3Element
p1409
(dp1410
g3
Nsg4
S'Lite sannsynlig, Mulig'
p1411
sg6
S'white'
p1412
sg8
(lp1413
sg10
S'Possible'
p1414
sg12
S'Some'
p1415
sg14
g66
sg16
I0
sg17
S'Nat'
p1416
sg19
S'Naturlig utloest'
p1417
sg21
Nsg22
S'500'
p1418
sg24
S'900'
p1419
sg26
S'Noen bratte heng'
p1420
sg28
Nsg29
g1316
sg31
S'5 - Svaert store'
p1421
sba(irunmatrix
M3Element
p1422
(dp1423
g3
Nsg4
S'Sannsynlig, Meget sannsynlig'
p1424
sg6
S'gray'
p1425
sg8
(lp1426
sg10
S'Likely'
p1427
sg12
S'Some'
p1428
sg14
g66
sg16
I0
sg17
S'High'
p1429
sg19
S'Stor tilleggsbelastning'
p1430
sg21
Nsg22
S'500'
p1431
sg24
S'1000'
p1432
sg26
S'Noen bratte heng'
p1433
sg28
Nsg29
g1316
sg31
S'5 - Svaert store'
p1434
sba(irunmatrix
M3Element
p1435
(dp1436
g3
Nsg4
S'Sannsynlig, Meget sannsynlig'
p1437
sg6
S'gray'
p1438
sg8
(lp1439
sg10
S'Likely'
p1440
sg12
S'Some'
p1441
sg14
g66
sg16
I0
sg17
S'Low'
p1442
sg19
S'Liten tilleggsbelastning'
p1443
sg21
Nsg22
S'500'
p1444
sg24
S'1100'
p1445
sg26
S'Noen bratte heng'
p1446
sg28
Nsg29
g1316
sg31
S'5 - Svaert store'
p1447
sba(irunmatrix
M3Element
p1448
(dp1449
g3
Nsg4
S'Sannsynlig, Meget sannsynlig'
p1450
sg6
S'white'
p1451
sg8
(lp1452
sg10
S'Likely'
p1453
sg12
S'Some'
p1454
sg14
g66
sg16
I0
sg17
S'Nat'
p1455
sg19
S'Naturlig utloest'
p1456
sg21
Nsg22
S'500'
p1457
sg24
S'1200'
p1458
sg26
S'Noen bratte heng'
p1459
sg28
Nsg29
g1316
sg31
S'5 - Svaert store'
p1460
sba(irunmatrix
M3Element
p1461
(dp1462
g3
Nsg4
S'Lite sannsynlig, Mulig'
p1463
sg6
S'gray'
p1464
sg8
(lp1465
sg10
S'Possible'
p1466
sg12
S'Many'
p1467
sg14
g66
sg16
I0
sg17
S'High'
p1468
sg19
S'Stor tilleggsbelastning'
p1469
sg21
Nsg22
S'500'
p1470
sg24
S'1300'
p1471
sg26
S'Mange bratte heng'
p1472
sg28
Nsg29
g1316
sg31
S'5 - Svaert store'
p1473
sba(irunmatrix
M3Element
p1474
(dp1475
g3
Nsg4
S'Lite sannsynlig, Mulig'
p1476
sg6
S'white'
p1477
sg8
(lp1478
sg10
S'Possible'
p1479
sg12
S'Many'
p1480
sg14
g66
sg16
I0
sg17
S'Low'
p1481
sg19
S'Liten tilleggsbelastning'
p1482
sg21
Nsg22
S'500'
p1483
sg24
S'1400'
p1484
sg26
S'Mange bratte heng'
p1485
sg28
Nsg29
g1316
sg31
S'5 - Svaert store'
p1486
sba(irunmatrix
M3Element
p1487
(dp1488
g3
Nsg4
S'Lite sannsynlig, Mulig'
p1489
sg6
S'gray'
p1490
sg8
(lp1491
sg10
S'Possible'
p1492
sg12
S'Many'
p1493
sg14
g66
sg16
I0
sg17
S'Nat'
p1494
sg19
S'Naturlig utloest'
p1495
sg21
Nsg22
S'500'
p1496
sg24
S'1500'
p1497
sg26
S'Mange bratte heng'
p1498
sg28
Nsg29
g1316
sg31
S'5 - Svaert store'
p1499
sba(irunmatrix
M3Element
p1500
(dp1501
g3
Nsg4
S'Sannsynlig, Meget sannsynlig'
p1502
sg6
S'gray'
p1503
sg8
(lp1504
sg10
S'Likely'
p1505
sg12
S'Many'
p1506
sg14
g66
sg16
I0
sg17
S'High'
p1507
sg19
S'Stor tilleggsbelastning'
p1508
sg21
Nsg22
S'500'
p1509
sg24
S'1600'
p1510
sg26
S'Mange bratte heng'
p1511
sg28
Nsg29
g1316
sg31
S'5 - Svaert store'
p1512
sba(irunmatrix
M3Element
p1513
(dp1514
g3
Nsg4
S'Sannsynlig, Meget sannsynlig'
p1515
sg6
S'white'
p1516
sg8
(lp1517
sg10
S'Likely'
p1518
sg12
S'Many'
p1519
sg14
g66
sg16
I0
sg17
S'Low'
p1520
sg19
S'Liten tilleggsbelastning'
p1521
sg21
Nsg22
S'500'
p1522
sg24
S'1700'
p1523
sg26
S'Mange bratte heng'
p1524
sg28
Nsg29
g1316
sg31
S'5 - Svaert store'
p1525
sba(irunmatrix
M3Element
p1526
(dp1527
g3
Nsg4
S'Sannsynlig, Meget sannsynlig'
p1528
sg6
S'white'
p1529
sg8
(lp1530
sg10
S'Likely'
p1531
sg12
S'Many'
p1532
sg14
g1219
sg16
I5
sg17
S'Nat'
p1533
sg19
S'Naturlig utloest'
p1534
sg21
Nsg22
S'500'
p1535
sg24
S'1800'
p1536
sg26
S'Mange bratte heng'
p1537
sg28
Nsg29
g1316
sg31
S'5 - Svaert store'
p1538
sba(irunmatrix
M3Element
p1539
(dp1540
g3
Nsg4
S'Lite sannsynlig, Mulig'
p1541
sg6
S'gray'
p1542
sg8
(lp1543
sg10
S'Possible'
p1544
sg12
S'Most'
p1545
sg14
g66
sg16
I0
sg17
S'High'
p1546
sg19
S'Stor tilleggsbelastning'
p1547
sg21
Nsg22
S'500'
p1548
sg24
S'1900'
p1549
sg26
S'De fleste bratte heng, Ogsaa i mindre bratt terreng'
p1550
sg28
Nsg29
g1316
sg31
S'5 - Svaert store'
p1551
sba(irunmatrix
M3Element
p1552
(dp1553
g3
Nsg4
S'Lite sannsynlig, Mulig'
p1554
sg6
S'gray'
p1555
sg8
(lp1556
sg10
S'Possible'
p1557
sg12
S'Most'
p1558
sg14
g66
sg16
I0
sg17
S'Low'
p1559
sg19
S'Liten tilleggsbelastning'
p1560
sg21
Nsg22
S'500'
p1561
sg24
S'2000'
p1562
sg26
S'De fleste bratte heng, Ogsaa i mindre bratt terreng'
p1563
sg28
Nsg29
g1316
sg31
S'5 - Svaert store'
p1564
sba(irunmatrix
M3Element
p1565
(dp1566
g3
Nsg4
S'Lite sannsynlig, Mulig'
p1567
sg6
S'gray'
p1568
sg8
(lp1569
sg10
S'Possible'
p1570
sg12
S'Most'
p1571
sg14
g66
sg16
I0
sg17
S'Nat'
p1572
sg19
S'Naturlig utloest'
p1573
sg21
Nsg22
S'500'
p1574
sg24
S'2100'
p1575
sg26
S'De fleste bratte heng, Ogsaa i mindre bratt terreng'
p1576
sg28
Nsg29
g1316
sg31
S'5 - Svaert store'
p1577
sba(irunmatrix
M3Element
p1578
(dp1579
g3
Nsg4
S'Sannsynlig, Meget sannsynlig'
p1580
sg6
S'gray'
p1581
sg8
(lp1582
sg10
S'Likely'
p1583
sg12
S'Most'
p1584
sg14
g66
sg16
I0
sg17
S'High'
p1585
sg19
S'Stor tilleggsbelastning'
p1586
sg21
Nsg22
S'500'
p1587
sg24
S'2200'
p1588
sg26
S'De fleste bratte heng, Ogsaa i mindre bratt terreng'
p1589
sg28
Nsg29
g1316
sg31
S'5 - Svaert store'
p1590
sba(irunmatrix
M3Element
p1591
(dp1592
g3
Nsg4
S'Sannsynlig, Meget sannsynlig'
p1593
sg6
S'gray'
p1594
sg8
(lp1595
sg10
S'Likely'
p1596
sg12
S'Most'
p1597
sg14
g66
sg16
I0
sg17
S'Low'
p1598
sg19
S'Liten tilleggsbelastning'
p1599
sg21
Nsg22
S'500'
p1600
sg24
S'2300'
p1601
sg26
S'De fleste bratte heng, Ogsaa i mindre bratt terreng'
p1602
sg28
Nsg29
g1316
sg31
S'5 - Svaert store'
p1603
sba(irunmatrix
M3Element
p1604
(dp1605
g3
Nsg4
S'Sannsynlig, Meget sannsynlig'
p1606
sg6
S'white'
p1607
sg8
(lp1608
sg10
S'Likely'
p1609
sg12
S'Most'
p1610
sg14
g66
sg16
I0
sg17
S'Nat'
p1611
sg19
S'Naturlig utloest'
p1612
sg21
Nsg22
S'500'
p1613
sg24
S'2400'
p1614
sg26
S'De fleste bratte heng, Ogsaa i mindre bratt terreng'
p1615
sg28
Nsg29
g1316
sg31
S'5 - Svaert store'
p1616
sba.