(lp0
(irunmatrix
M3Element
p1
(dp2
S'danger_level_average'
p3
NsS'probability'
p4
S'Lite sannsynlig, Mulig'
p5
sS'colour'
p6
S'white'
p7
sS'danger_level_list'
p8
(lp9
sS'label_probalility'
p10
S'Possible'
p11
sS'label_distribution'
p12
S'Isolated'
p13
sS'recomended_colour'
p14
S'#ccff66'
p15
sS'recomended_danger_level'
p16
I1
sS'label_trigger'
p17
S'High'
p18
sS'trigger'
p19
S'Stor tilleggsbelastning'
p20
sS'occurrences'
p21
NsS'y'
p22
S'100'
p23
sS'x'
p24
S'100'
p25
sS'distribution'
p26
S'Isolerte faresoner'
p27
sS'danger_level_standard_dev'
p28
NsS'label_size'
p29
S'1'
p30
sS'avalanche_size'
p31
S'1 - Harmloest'
p32
sba(irunmatrix
M3Element
p33
(dp34
g3
Nsg4
S'Lite sannsynlig, Mulig'
p35
sg6
S'white'
p36
sg8
(lp37
sg10
S'Possible'
p38
sg12
S'Isolated'
p39
sg14
g15
sg16
I1
sg17
S'Low'
p40
sg19
S'Liten tilleggsbelastning'
p41
sg21
Nsg22
S'100'
p42
sg24
S'200'
p43
sg26
S'Isolerte faresoner'
p44
sg28
Nsg29
g30
sg31
S'1 - Harmloest'
p45
sba(irunmatrix
M3Element
p46
(dp47
g3
F2.0
sg4
S'Lite sannsynlig, Mulig'
p48
sg6
S'#ffff00'
p49
sg8
(lp50
I2
asg10
S'Possible'
p51
sg12
S'Isolated'
p52
sg14
g15
sg16
I1
sg17
S'Nat'
p53
sg19
S'Naturlig utloest'
p54
sg21
I1
sg22
S'100'
p55
sg24
S'300'
p56
sg26
S'Isolerte faresoner'
p57
sg28
cnumpy.core.multiarray
scalar
p58
(cnumpy
dtype
p59
(S'f8'
p60
I0
I1
tp61
Rp62
(I3
S'<'
p63
NNNI-1
I-1
I0
tp64
bS'\x00\x00\x00\x00\x00\x00\x00\x00'
p65
tp66
Rp67
sg29
g30
sg31
S'1 - Harmloest'
p68
sba(irunmatrix
M3Element
p69
(dp70
g3
Nsg4
S'Sannsynlig, Meget sannsynlig'
p71
sg6
S'gray'
p72
sg8
(lp73
sg10
S'Likely'
p74
sg12
S'Isolated'
p75
sg14
S'gray'
p76
sg16
I0
sg17
S'High'
p77
sg19
S'Stor tilleggsbelastning'
p78
sg21
Nsg22
S'100'
p79
sg24
S'400'
p80
sg26
S'Isolerte faresoner'
p81
sg28
Nsg29
g30
sg31
S'1 - Harmloest'
p82
sba(irunmatrix
M3Element
p83
(dp84
g3
Nsg4
S'Sannsynlig, Meget sannsynlig'
p85
sg6
S'gray'
p86
sg8
(lp87
sg10
S'Likely'
p88
sg12
S'Isolated'
p89
sg14
g76
sg16
I0
sg17
S'Low'
p90
sg19
S'Liten tilleggsbelastning'
p91
sg21
Nsg22
S'100'
p92
sg24
S'500'
p93
sg26
S'Isolerte faresoner'
p94
sg28
Nsg29
g30
sg31
S'1 - Harmloest'
p95
sba(irunmatrix
M3Element
p96
(dp97
g3
Nsg4
S'Sannsynlig, Meget sannsynlig'
p98
sg6
S'gray'
p99
sg8
(lp100
sg10
S'Likely'
p101
sg12
S'Isolated'
p102
sg14
g76
sg16
I0
sg17
S'Nat'
p103
sg19
S'Naturlig utloest'
p104
sg21
Nsg22
S'100'
p105
sg24
S'600'
p106
sg26
S'Isolerte faresoner'
p107
sg28
Nsg29
g30
sg31
S'1 - Harmloest'
p108
sba(irunmatrix
M3Element
p109
(dp110
g3
F1.0
sg4
S'Lite sannsynlig, Mulig'
p111
sg6
S'#ccff66'
p112
sg8
(lp113
I1
aI1
asg10
S'Possible'
p114
sg12
S'Some'
p115
sg14
g15
sg16
I1
sg17
S'High'
p116
sg19
S'Stor tilleggsbelastning'
p117
sg21
I2
sg22
S'100'
p118
sg24
S'700'
p119
sg26
S'Noen bratte heng'
p120
sg28
g58
(g62
S'\x00\x00\x00\x00\x00\x00\x00\x00'
p121
tp122
Rp123
sg29
g30
sg31
S'1 - Harmloest'
p124
sba(irunmatrix
M3Element
p125
(dp126
g3
Nsg4
S'Lite sannsynlig, Mulig'
p127
sg6
S'white'
p128
sg8
(lp129
sg10
S'Possible'
p130
sg12
S'Some'
p131
sg14
g15
sg16
I1
sg17
S'Low'
p132
sg19
S'Liten tilleggsbelastning'
p133
sg21
Nsg22
S'100'
p134
sg24
S'800'
p135
sg26
S'Noen bratte heng'
p136
sg28
Nsg29
g30
sg31
S'1 - Harmloest'
p137
sba(irunmatrix
M3Element
p138
(dp139
g3
F2.0
sg4
S'Lite sannsynlig, Mulig'
p140
sg6
g49
sg8
(lp141
I2
asg10
S'Possible'
p142
sg12
S'Some'
p143
sg14
g15
sg16
I1
sg17
S'Nat'
p144
sg19
S'Naturlig utloest'
p145
sg21
I1
sg22
S'100'
p146
sg24
S'900'
p147
sg26
S'Noen bratte heng'
p148
sg28
g58
(g62
S'\x00\x00\x00\x00\x00\x00\x00\x00'
p149
tp150
Rp151
sg29
g30
sg31
S'1 - Harmloest'
p152
sba(irunmatrix
M3Element
p153
(dp154
g3
Nsg4
S'Sannsynlig, Meget sannsynlig'
p155
sg6
S'gray'
p156
sg8
(lp157
sg10
S'Likely'
p158
sg12
S'Some'
p159
sg14
g76
sg16
I0
sg17
S'High'
p160
sg19
S'Stor tilleggsbelastning'
p161
sg21
Nsg22
S'100'
p162
sg24
S'1000'
p163
sg26
S'Noen bratte heng'
p164
sg28
Nsg29
g30
sg31
S'1 - Harmloest'
p165
sba(irunmatrix
M3Element
p166
(dp167
g3
Nsg4
S'Sannsynlig, Meget sannsynlig'
p168
sg6
S'gray'
p169
sg8
(lp170
sg10
S'Likely'
p171
sg12
S'Some'
p172
sg14
g76
sg16
I0
sg17
S'Low'
p173
sg19
S'Liten tilleggsbelastning'
p174
sg21
Nsg22
S'100'
p175
sg24
S'1100'
p176
sg26
S'Noen bratte heng'
p177
sg28
Nsg29
g30
sg31
S'1 - Harmloest'
p178
sba(irunmatrix
M3Element
p179
(dp180
g3
Nsg4
S'Sannsynlig, Meget sannsynlig'
p181
sg6
S'white'
p182
sg8
(lp183
sg10
S'Likely'
p184
sg12
S'Some'
p185
sg14
g15
sg16
I1
sg17
S'Nat'
p186
sg19
S'Naturlig utloest'
p187
sg21
Nsg22
S'100'
p188
sg24
S'1200'
p189
sg26
S'Noen bratte heng'
p190
sg28
Nsg29
g30
sg31
S'1 - Harmloest'
p191
sba(irunmatrix
M3Element
p192
(dp193
g3
Nsg4
S'Lite sannsynlig, Mulig'
p194
sg6
S'gray'
p195
sg8
(lp196
sg10
S'Possible'
p197
sg12
S'Many'
p198
sg14
g76
sg16
I0
sg17
S'High'
p199
sg19
S'Stor tilleggsbelastning'
p200
sg21
Nsg22
S'100'
p201
sg24
S'1300'
p202
sg26
S'Mange bratte heng'
p203
sg28
Nsg29
g30
sg31
S'1 - Harmloest'
p204
sba(irunmatrix
M3Element
p205
(dp206
g3
Nsg4
S'Lite sannsynlig, Mulig'
p207
sg6
S'white'
p208
sg8
(lp209
sg10
S'Possible'
p210
sg12
S'Many'
p211
sg14
g15
sg16
I1
sg17
S'Low'
p212
sg19
S'Liten tilleggsbelastning'
p213
sg21
Nsg22
S'100'
p214
sg24
S'1400'
p215
sg26
S'Mange bratte heng'
p216
sg28
Nsg29
g30
sg31
S'1 - Harmloest'
p217
sba(irunmatrix
M3Element
p218
(dp219
g3
Nsg4
S'Lite sannsynlig, Mulig'
p220
sg6
S'gray'
p221
sg8
(lp222
sg10
S'Possible'
p223
sg12
S'Many'
p224
sg14
g76
sg16
I0
sg17
S'Nat'
p225
sg19
S'Naturlig utloest'
p226
sg21
Nsg22
S'100'
p227
sg24
S'1500'
p228
sg26
S'Mange bratte heng'
p229
sg28
Nsg29
g30
sg31
S'1 - Harmloest'
p230
sba(irunmatrix
M3Element
p231
(dp232
g3
Nsg4
S'Sannsynlig, Meget sannsynlig'
p233
sg6
S'gray'
p234
sg8
(lp235
sg10
S'Likely'
p236
sg12
S'Many'
p237
sg14
g76
sg16
I0
sg17
S'High'
p238
sg19
S'Stor tilleggsbelastning'
p239
sg21
Nsg22
S'100'
p240
sg24
S'1600'
p241
sg26
S'Mange bratte heng'
p242
sg28
Nsg29
g30
sg31
S'1 - Harmloest'
p243
sba(irunmatrix
M3Element
p244
(dp245
g3
Nsg4
S'Sannsynlig, Meget sannsynlig'
p246
sg6
S'white'
p247
sg8
(lp248
sg10
S'Likely'
p249
sg12
S'Many'
p250
sg14
S'#ffff00'
p251
sg16
I2
sg17
S'Low'
p252
sg19
S'Liten tilleggsbelastning'
p253
sg21
Nsg22
S'100'
p254
sg24
S'1700'
p255
sg26
S'Mange bratte heng'
p256
sg28
Nsg29
g30
sg31
S'1 - Harmloest'
p257
sba(irunmatrix
M3Element
p258
(dp259
g3
Nsg4
S'Sannsynlig, Meget sannsynlig'
p260
sg6
S'white'
p261
sg8
(lp262
sg10
S'Likely'
p263
sg12
S'Many'
p264
sg14
g251
sg16
I2
sg17
S'Nat'
p265
sg19
S'Naturlig utloest'
p266
sg21
Nsg22
S'100'
p267
sg24
S'1800'
p268
sg26
S'Mange bratte heng'
p269
sg28
Nsg29
g30
sg31
S'1 - Harmloest'
p270
sba(irunmatrix
M3Element
p271
(dp272
g3
Nsg4
S'Lite sannsynlig, Mulig'
p273
sg6
S'gray'
p274
sg8
(lp275
sg10
S'Possible'
p276
sg12
S'Most'
p277
sg14
g76
sg16
I0
sg17
S'High'
p278
sg19
S'Stor tilleggsbelastning'
p279
sg21
Nsg22
S'100'
p280
sg24
S'1900'
p281
sg26
S'De fleste bratte heng, Ogsaa i mindre bratt terreng'
p282
sg28
Nsg29
g30
sg31
S'1 - Harmloest'
p283
sba(irunmatrix
M3Element
p284
(dp285
g3
Nsg4
S'Lite sannsynlig, Mulig'
p286
sg6
S'gray'
p287
sg8
(lp288
sg10
S'Possible'
p289
sg12
S'Most'
p290
sg14
g76
sg16
I0
sg17
S'Low'
p291
sg19
S'Liten tilleggsbelastning'
p292
sg21
Nsg22
S'100'
p293
sg24
S'2000'
p294
sg26
S'De fleste bratte heng, Ogsaa i mindre bratt terreng'
p295
sg28
Nsg29
g30
sg31
S'1 - Harmloest'
p296
sba(irunmatrix
M3Element
p297
(dp298
g3
Nsg4
S'Lite sannsynlig, Mulig'
p299
sg6
S'gray'
p300
sg8
(lp301
sg10
S'Possible'
p302
sg12
S'Most'
p303
sg14
g76
sg16
I0
sg17
S'Nat'
p304
sg19
S'Naturlig utloest'
p305
sg21
Nsg22
S'100'
p306
sg24
S'2100'
p307
sg26
S'De fleste bratte heng, Ogsaa i mindre bratt terreng'
p308
sg28
Nsg29
g30
sg31
S'1 - Harmloest'
p309
sba(irunmatrix
M3Element
p310
(dp311
g3
Nsg4
S'Sannsynlig, Meget sannsynlig'
p312
sg6
S'gray'
p313
sg8
(lp314
sg10
S'Likely'
p315
sg12
S'Most'
p316
sg14
g76
sg16
I0
sg17
S'High'
p317
sg19
S'Stor tilleggsbelastning'
p318
sg21
Nsg22
S'100'
p319
sg24
S'2200'
p320
sg26
S'De fleste bratte heng, Ogsaa i mindre bratt terreng'
p321
sg28
Nsg29
g30
sg31
S'1 - Harmloest'
p322
sba(irunmatrix
M3Element
p323
(dp324
g3
Nsg4
S'Sannsynlig, Meget sannsynlig'
p325
sg6
S'gray'
p326
sg8
(lp327
sg10
S'Likely'
p328
sg12
S'Most'
p329
sg14
g76
sg16
I0
sg17
S'Low'
p330
sg19
S'Liten tilleggsbelastning'
p331
sg21
Nsg22
S'100'
p332
sg24
S'2300'
p333
sg26
S'De fleste bratte heng, Ogsaa i mindre bratt terreng'
p334
sg28
Nsg29
g30
sg31
S'1 - Harmloest'
p335
sba(irunmatrix
M3Element
p336
(dp337
g3
Nsg4
S'Sannsynlig, Meget sannsynlig'
p338
sg6
S'white'
p339
sg8
(lp340
sg10
S'Likely'
p341
sg12
S'Most'
p342
sg14
g76
sg16
I0
sg17
S'Nat'
p343
sg19
S'Naturlig utloest'
p344
sg21
Nsg22
S'100'
p345
sg24
S'2400'
p346
sg26
S'De fleste bratte heng, Ogsaa i mindre bratt terreng'
p347
sg28
Nsg29
S'2'
p348
sg31
S'1 - Harmloest'
p349
sba(irunmatrix
M3Element
p350
(dp351
g3
Nsg4
S'Lite sannsynlig, Mulig'
p352
sg6
S'white'
p353
sg8
(lp354
sg10
S'Possible'
p355
sg12
S'Isolated'
p356
sg14
g15
sg16
I1
sg17
S'High'
p357
sg19
S'Stor tilleggsbelastning'
p358
sg21
Nsg22
S'200'
p359
sg24
S'100'
p360
sg26
S'Isolerte faresoner'
p361
sg28
Nsg29
g348
sg31
S'2 - Smaa'
p362
sba(irunmatrix
M3Element
p363
(dp364
g3
Nsg4
S'Lite sannsynlig, Mulig'
p365
sg6
S'white'
p366
sg8
(lp367
sg10
S'Possible'
p368
sg12
S'Isolated'
p369
sg14
g15
sg16
I1
sg17
S'Low'
p370
sg19
S'Liten tilleggsbelastning'
p371
sg21
Nsg22
S'200'
p372
sg24
S'200'
p373
sg26
S'Isolerte faresoner'
p374
sg28
Nsg29
g348
sg31
S'2 - Smaa'
p375
sba(irunmatrix
M3Element
p376
(dp377
g3
Nsg4
S'Lite sannsynlig, Mulig'
p378
sg6
S'white'
p379
sg8
(lp380
sg10
S'Possible'
p381
sg12
S'Isolated'
p382
sg14
g15
sg16
I1
sg17
S'Nat'
p383
sg19
S'Naturlig utloest'
p384
sg21
Nsg22
S'200'
p385
sg24
S'300'
p386
sg26
S'Isolerte faresoner'
p387
sg28
Nsg29
g348
sg31
S'2 - Smaa'
p388
sba(irunmatrix
M3Element
p389
(dp390
g3
Nsg4
S'Sannsynlig, Meget sannsynlig'
p391
sg6
S'gray'
p392
sg8
(lp393
sg10
S'Likely'
p394
sg12
S'Isolated'
p395
sg14
g76
sg16
I0
sg17
S'High'
p396
sg19
S'Stor tilleggsbelastning'
p397
sg21
Nsg22
S'200'
p398
sg24
S'400'
p399
sg26
S'Isolerte faresoner'
p400
sg28
Nsg29
g348
sg31
S'2 - Smaa'
p401
sba(irunmatrix
M3Element
p402
(dp403
g3
Nsg4
S'Sannsynlig, Meget sannsynlig'
p404
sg6
S'gray'
p405
sg8
(lp406
sg10
S'Likely'
p407
sg12
S'Isolated'
p408
sg14
g76
sg16
I0
sg17
S'Low'
p409
sg19
S'Liten tilleggsbelastning'
p410
sg21
Nsg22
S'200'
p411
sg24
S'500'
p412
sg26
S'Isolerte faresoner'
p413
sg28
Nsg29
g348
sg31
S'2 - Smaa'
p414
sba(irunmatrix
M3Element
p415
(dp416
g3
Nsg4
S'Sannsynlig, Meget sannsynlig'
p417
sg6
S'gray'
p418
sg8
(lp419
sg10
S'Likely'
p420
sg12
S'Isolated'
p421
sg14
g76
sg16
I0
sg17
S'Nat'
p422
sg19
S'Naturlig utloest'
p423
sg21
Nsg22
S'200'
p424
sg24
S'600'
p425
sg26
S'Isolerte faresoner'
p426
sg28
Nsg29
g348
sg31
S'2 - Smaa'
p427
sba(irunmatrix
M3Element
p428
(dp429
g3
Nsg4
S'Lite sannsynlig, Mulig'
p430
sg6
S'white'
p431
sg8
(lp432
sg10
S'Possible'
p433
sg12
S'Some'
p434
sg14
g251
sg16
I2
sg17
S'High'
p435
sg19
S'Stor tilleggsbelastning'
p436
sg21
Nsg22
S'200'
p437
sg24
S'700'
p438
sg26
S'Noen bratte heng'
p439
sg28
Nsg29
g348
sg31
S'2 - Smaa'
p440
sba(irunmatrix
M3Element
p441
(dp442
g3
F2.0
sg4
S'Lite sannsynlig, Mulig'
p443
sg6
g49
sg8
(lp444
I2
aI2
aI2
aI2
aI2
aI2
aI2
aI2
aI2
aI2
aI2
aI2
aI2
aI2
aI2
aI2
aI2
aI2
aI2
aI2
aI2
aI2
aI2
aI2
aI2
aI2
aI2
aI2
aI2
aI2
aI2
aI2
aI2
aI2
aI2
aI2
aI2
asg10
S'Possible'
p445
sg12
S'Some'
p446
sg14
g251
sg16
I2
sg17
S'Low'
p447
sg19
S'Liten tilleggsbelastning'
p448
sg21
I37
sg22
S'200'
p449
sg24
S'800'
p450
sg26
S'Noen bratte heng'
p451
sg28
g58
(g62
S'\x00\x00\x00\x00\x00\x00\x00\x00'
p452
tp453
Rp454
sg29
g348
sg31
S'2 - Smaa'
p455
sba(irunmatrix
M3Element
p456
(dp457
g3
F2.1666666666666665
sg4
S'Lite sannsynlig, Mulig'
p458
sg6
g49
sg8
(lp459
I2
aI2
aI3
aI2
aI2
aI3
aI2
aI2
aI2
aI2
aI2
aI2
asg10
S'Possible'
p460
sg12
S'Some'
p461
sg14
g251
sg16
I2
sg17
S'Nat'
p462
sg19
S'Naturlig utloest'
p463
sg21
I12
sg22
S'200'
p464
sg24
S'900'
p465
sg26
S'Noen bratte heng'
p466
sg28
g58
(g62
S'4Fu\xcf\xf4\xd9\xd7?'
p467
tp468
Rp469
sg29
g348
sg31
S'2 - Smaa'
p470
sba(irunmatrix
M3Element
p471
(dp472
g3
Nsg4
S'Sannsynlig, Meget sannsynlig'
p473
sg6
S'gray'
p474
sg8
(lp475
sg10
S'Likely'
p476
sg12
S'Some'
p477
sg14
g76
sg16
I0
sg17
S'High'
p478
sg19
S'Stor tilleggsbelastning'
p479
sg21
Nsg22
S'200'
p480
sg24
S'1000'
p481
sg26
S'Noen bratte heng'
p482
sg28
Nsg29
g348
sg31
S'2 - Smaa'
p483
sba(irunmatrix
M3Element
p484
(dp485
g3
Nsg4
S'Sannsynlig, Meget sannsynlig'
p486
sg6
S'gray'
p487
sg8
(lp488
sg10
S'Likely'
p489
sg12
S'Some'
p490
sg14
g76
sg16
I0
sg17
S'Low'
p491
sg19
S'Liten tilleggsbelastning'
p492
sg21
Nsg22
S'200'
p493
sg24
S'1100'
p494
sg26
S'Noen bratte heng'
p495
sg28
Nsg29
g348
sg31
S'2 - Smaa'
p496
sba(irunmatrix
M3Element
p497
(dp498
g3
F2.4285714285714284
sg4
S'Sannsynlig, Meget sannsynlig'
p499
sg6
g49
sg8
(lp500
I3
aI3
aI3
aI2
aI2
aI3
aI3
aI3
aI3
aI2
aI2
aI3
aI3
aI2
aI2
aI2
aI2
aI2
aI2
aI2
aI2
asg10
S'Likely'
p501
sg12
S'Some'
p502
sg14
S'#ff9900'
p503
sg16
I3
sg17
S'Nat'
p504
sg19
S'Naturlig utloest'
p505
sg21
I21
sg22
S'200'
p506
sg24
S'1200'
p507
sg26
S'Noen bratte heng'
p508
sg28
g58
(g62
S'U\xc5\x1b.\xfa\xab\xdf?'
p509
tp510
Rp511
sg29
g348
sg31
S'2 - Smaa'
p512
sba(irunmatrix
M3Element
p513
(dp514
g3
Nsg4
S'Lite sannsynlig, Mulig'
p515
sg6
S'gray'
p516
sg8
(lp517
sg10
S'Possible'
p518
sg12
S'Many'
p519
sg14
g76
sg16
I0
sg17
S'High'
p520
sg19
S'Stor tilleggsbelastning'
p521
sg21
Nsg22
S'200'
p522
sg24
S'1300'
p523
sg26
S'Mange bratte heng'
p524
sg28
Nsg29
g348
sg31
S'2 - Smaa'
p525
sba(irunmatrix
M3Element
p526
(dp527
g3
Nsg4
S'Lite sannsynlig, Mulig'
p528
sg6
S'white'
p529
sg8
(lp530
sg10
S'Possible'
p531
sg12
S'Many'
p532
sg14
g503
sg16
I3
sg17
S'Low'
p533
sg19
S'Liten tilleggsbelastning'
p534
sg21
Nsg22
S'200'
p535
sg24
S'1400'
p536
sg26
S'Mange bratte heng'
p537
sg28
Nsg29
g348
sg31
S'2 - Smaa'
p538
sba(irunmatrix
M3Element
p539
(dp540
g3
Nsg4
S'Lite sannsynlig, Mulig'
p541
sg6
S'gray'
p542
sg8
(lp543
sg10
S'Possible'
p544
sg12
S'Many'
p545
sg14
g76
sg16
I0
sg17
S'Nat'
p546
sg19
S'Naturlig utloest'
p547
sg21
Nsg22
S'200'
p548
sg24
S'1500'
p549
sg26
S'Mange bratte heng'
p550
sg28
Nsg29
g348
sg31
S'2 - Smaa'
p551
sba(irunmatrix
M3Element
p552
(dp553
g3
Nsg4
S'Sannsynlig, Meget sannsynlig'
p554
sg6
S'gray'
p555
sg8
(lp556
sg10
S'Likely'
p557
sg12
S'Many'
p558
sg14
g76
sg16
I0
sg17
S'High'
p559
sg19
S'Stor tilleggsbelastning'
p560
sg21
Nsg22
S'200'
p561
sg24
S'1600'
p562
sg26
S'Mange bratte heng'
p563
sg28
Nsg29
g348
sg31
S'2 - Smaa'
p564
sba(irunmatrix
M3Element
p565
(dp566
g3
Nsg4
S'Sannsynlig, Meget sannsynlig'
p567
sg6
S'white'
p568
sg8
(lp569
sg10
S'Likely'
p570
sg12
S'Many'
p571
sg14
S'#ff0000'
p572
sg16
I4
sg17
S'Low'
p573
sg19
S'Liten tilleggsbelastning'
p574
sg21
Nsg22
S'200'
p575
sg24
S'1700'
p576
sg26
S'Mange bratte heng'
p577
sg28
Nsg29
g348
sg31
S'2 - Smaa'
p578
sba(irunmatrix
M3Element
p579
(dp580
g3
Nsg4
S'Sannsynlig, Meget sannsynlig'
p581
sg6
S'white'
p582
sg8
(lp583
sg10
S'Likely'
p584
sg12
S'Many'
p585
sg14
g572
sg16
I4
sg17
S'Nat'
p586
sg19
S'Naturlig utloest'
p587
sg21
Nsg22
S'200'
p588
sg24
S'1800'
p589
sg26
S'Mange bratte heng'
p590
sg28
Nsg29
g348
sg31
S'2 - Smaa'
p591
sba(irunmatrix
M3Element
p592
(dp593
g3
Nsg4
S'Lite sannsynlig, Mulig'
p594
sg6
S'gray'
p595
sg8
(lp596
sg10
S'Possible'
p597
sg12
S'Most'
p598
sg14
g76
sg16
I0
sg17
S'High'
p599
sg19
S'Stor tilleggsbelastning'
p600
sg21
Nsg22
S'200'
p601
sg24
S'1900'
p602
sg26
S'De fleste bratte heng, Ogsaa i mindre bratt terreng'
p603
sg28
Nsg29
g348
sg31
S'2 - Smaa'
p604
sba(irunmatrix
M3Element
p605
(dp606
g3
Nsg4
S'Lite sannsynlig, Mulig'
p607
sg6
S'gray'
p608
sg8
(lp609
sg10
S'Possible'
p610
sg12
S'Most'
p611
sg14
g76
sg16
I0
sg17
S'Low'
p612
sg19
S'Liten tilleggsbelastning'
p613
sg21
Nsg22
S'200'
p614
sg24
S'2000'
p615
sg26
S'De fleste bratte heng, Ogsaa i mindre bratt terreng'
p616
sg28
Nsg29
g348
sg31
S'2 - Smaa'
p617
sba(irunmatrix
M3Element
p618
(dp619
g3
Nsg4
S'Lite sannsynlig, Mulig'
p620
sg6
S'gray'
p621
sg8
(lp622
sg10
S'Possible'
p623
sg12
S'Most'
p624
sg14
g76
sg16
I0
sg17
S'Nat'
p625
sg19
S'Naturlig utloest'
p626
sg21
Nsg22
S'200'
p627
sg24
S'2100'
p628
sg26
S'De fleste bratte heng, Ogsaa i mindre bratt terreng'
p629
sg28
Nsg29
g348
sg31
S'2 - Smaa'
p630
sba(irunmatrix
M3Element
p631
(dp632
g3
Nsg4
S'Sannsynlig, Meget sannsynlig'
p633
sg6
S'gray'
p634
sg8
(lp635
sg10
S'Likely'
p636
sg12
S'Most'
p637
sg14
g76
sg16
I0
sg17
S'High'
p638
sg19
S'Stor tilleggsbelastning'
p639
sg21
Nsg22
S'200'
p640
sg24
S'2200'
p641
sg26
S'De fleste bratte heng, Ogsaa i mindre bratt terreng'
p642
sg28
Nsg29
g348
sg31
S'2 - Smaa'
p643
sba(irunmatrix
M3Element
p644
(dp645
g3
Nsg4
S'Sannsynlig, Meget sannsynlig'
p646
sg6
S'gray'
p647
sg8
(lp648
sg10
S'Likely'
p649
sg12
S'Most'
p650
sg14
g76
sg16
I0
sg17
S'Low'
p651
sg19
S'Liten tilleggsbelastning'
p652
sg21
Nsg22
S'200'
p653
sg24
S'2300'
p654
sg26
S'De fleste bratte heng, Ogsaa i mindre bratt terreng'
p655
sg28
Nsg29
g348
sg31
S'2 - Smaa'
p656
sba(irunmatrix
M3Element
p657
(dp658
g3
Nsg4
S'Sannsynlig, Meget sannsynlig'
p659
sg6
S'white'
p660
sg8
(lp661
sg10
S'Likely'
p662
sg12
S'Most'
p663
sg14
g76
sg16
I0
sg17
S'Nat'
p664
sg19
S'Naturlig utloest'
p665
sg21
Nsg22
S'200'
p666
sg24
S'2400'
p667
sg26
S'De fleste bratte heng, Ogsaa i mindre bratt terreng'
p668
sg28
Nsg29
g348
sg31
S'2 - Smaa'
p669
sba(irunmatrix
M3Element
p670
(dp671
g3
Nsg4
S'Lite sannsynlig, Mulig'
p672
sg6
S'white'
p673
sg8
(lp674
sg10
S'Possible'
p675
sg12
S'Isolated'
p676
sg14
g15
sg16
I1
sg17
S'High'
p677
sg19
S'Stor tilleggsbelastning'
p678
sg21
Nsg22
S'300'
p679
sg24
S'100'
p680
sg26
S'Isolerte faresoner'
p681
sg28
Nsg29
S'3'
p682
sg31
S'3 - Middels'
p683
sba(irunmatrix
M3Element
p684
(dp685
g3
Nsg4
S'Lite sannsynlig, Mulig'
p686
sg6
S'white'
p687
sg8
(lp688
sg10
S'Possible'
p689
sg12
S'Isolated'
p690
sg14
g251
sg16
I2
sg17
S'Low'
p691
sg19
S'Liten tilleggsbelastning'
p692
sg21
Nsg22
S'300'
p693
sg24
S'200'
p694
sg26
S'Isolerte faresoner'
p695
sg28
Nsg29
g682
sg31
S'3 - Middels'
p696
sba(irunmatrix
M3Element
p697
(dp698
g3
Nsg4
S'Lite sannsynlig, Mulig'
p699
sg6
S'white'
p700
sg8
(lp701
sg10
S'Possible'
p702
sg12
S'Isolated'
p703
sg14
g251
sg16
I2
sg17
S'Nat'
p704
sg19
S'Naturlig utloest'
p705
sg21
Nsg22
S'300'
p706
sg24
S'300'
p707
sg26
S'Isolerte faresoner'
p708
sg28
Nsg29
g682
sg31
S'3 - Middels'
p709
sba(irunmatrix
M3Element
p710
(dp711
g3
Nsg4
S'Sannsynlig, Meget sannsynlig'
p712
sg6
S'gray'
p713
sg8
(lp714
sg10
S'Likely'
p715
sg12
S'Isolated'
p716
sg14
g76
sg16
I0
sg17
S'High'
p717
sg19
S'Stor tilleggsbelastning'
p718
sg21
Nsg22
S'300'
p719
sg24
S'400'
p720
sg26
S'Isolerte faresoner'
p721
sg28
Nsg29
g682
sg31
S'3 - Middels'
p722
sba(irunmatrix
M3Element
p723
(dp724
g3
Nsg4
S'Sannsynlig, Meget sannsynlig'
p725
sg6
S'gray'
p726
sg8
(lp727
sg10
S'Likely'
p728
sg12
S'Isolated'
p729
sg14
g76
sg16
I0
sg17
S'Low'
p730
sg19
S'Liten tilleggsbelastning'
p731
sg21
Nsg22
S'300'
p732
sg24
S'500'
p733
sg26
S'Isolerte faresoner'
p734
sg28
Nsg29
g682
sg31
S'3 - Middels'
p735
sba(irunmatrix
M3Element
p736
(dp737
g3
Nsg4
S'Sannsynlig, Meget sannsynlig'
p738
sg6
S'gray'
p739
sg8
(lp740
sg10
S'Likely'
p741
sg12
S'Isolated'
p742
sg14
g76
sg16
I0
sg17
S'Nat'
p743
sg19
S'Naturlig utloest'
p744
sg21
Nsg22
S'300'
p745
sg24
S'600'
p746
sg26
S'Isolerte faresoner'
p747
sg28
Nsg29
g682
sg31
S'3 - Middels'
p748
sba(irunmatrix
M3Element
p749
(dp750
g3
Nsg4
S'Lite sannsynlig, Mulig'
p751
sg6
S'white'
p752
sg8
(lp753
sg10
S'Possible'
p754
sg12
S'Some'
p755
sg14
g251
sg16
I2
sg17
S'High'
p756
sg19
S'Stor tilleggsbelastning'
p757
sg21
Nsg22
S'300'
p758
sg24
S'700'
p759
sg26
S'Noen bratte heng'
p760
sg28
Nsg29
g682
sg31
S'3 - Middels'
p761
sba(irunmatrix
M3Element
p762
(dp763
g3
F3.0
sg4
S'Lite sannsynlig, Mulig'
p764
sg6
S'#ff9900'
p765
sg8
(lp766
I3
aI3
aI3
aI3
aI3
aI3
asg10
S'Possible'
p767
sg12
S'Some'
p768
sg14
g503
sg16
I3
sg17
S'Low'
p769
sg19
S'Liten tilleggsbelastning'
p770
sg21
I6
sg22
S'300'
p771
sg24
S'800'
p772
sg26
S'Noen bratte heng'
p773
sg28
g58
(g62
S'\x00\x00\x00\x00\x00\x00\x00\x00'
p774
tp775
Rp776
sg29
g682
sg31
S'3 - Middels'
p777
sba(irunmatrix
M3Element
p778
(dp779
g3
Nsg4
S'Lite sannsynlig, Mulig'
p780
sg6
S'white'
p781
sg8
(lp782
sg10
S'Possible'
p783
sg12
S'Some'
p784
sg14
g503
sg16
I3
sg17
S'Nat'
p785
sg19
S'Naturlig utloest'
p786
sg21
Nsg22
S'300'
p787
sg24
S'900'
p788
sg26
S'Noen bratte heng'
p789
sg28
Nsg29
g682
sg31
S'3 - Middels'
p790
sba(irunmatrix
M3Element
p791
(dp792
g3
Nsg4
S'Sannsynlig, Meget sannsynlig'
p793
sg6
S'gray'
p794
sg8
(lp795
sg10
S'Likely'
p796
sg12
S'Some'
p797
sg14
g76
sg16
I0
sg17
S'High'
p798
sg19
S'Stor tilleggsbelastning'
p799
sg21
Nsg22
S'300'
p800
sg24
S'1000'
p801
sg26
S'Noen bratte heng'
p802
sg28
Nsg29
g682
sg31
S'3 - Middels'
p803
sba(irunmatrix
M3Element
p804
(dp805
g3
Nsg4
S'Sannsynlig, Meget sannsynlig'
p806
sg6
S'gray'
p807
sg8
(lp808
sg10
S'Likely'
p809
sg12
S'Some'
p810
sg14
g76
sg16
I0
sg17
S'Low'
p811
sg19
S'Liten tilleggsbelastning'
p812
sg21
Nsg22
S'300'
p813
sg24
S'1100'
p814
sg26
S'Noen bratte heng'
p815
sg28
Nsg29
g682
sg31
S'3 - Middels'
p816
sba(irunmatrix
M3Element
p817
(dp818
g3
Nsg4
S'Sannsynlig, Meget sannsynlig'
p819
sg6
S'white'
p820
sg8
(lp821
sg10
S'Likely'
p822
sg12
S'Some'
p823
sg14
g572
sg16
I4
sg17
S'Nat'
p824
sg19
S'Naturlig utloest'
p825
sg21
Nsg22
S'300'
p826
sg24
S'1200'
p827
sg26
S'Noen bratte heng'
p828
sg28
Nsg29
g682
sg31
S'3 - Middels'
p829
sba(irunmatrix
M3Element
p830
(dp831
g3
Nsg4
S'Lite sannsynlig, Mulig'
p832
sg6
S'gray'
p833
sg8
(lp834
sg10
S'Possible'
p835
sg12
S'Many'
p836
sg14
g76
sg16
I0
sg17
S'High'
p837
sg19
S'Stor tilleggsbelastning'
p838
sg21
Nsg22
S'300'
p839
sg24
S'1300'
p840
sg26
S'Mange bratte heng'
p841
sg28
Nsg29
g682
sg31
S'3 - Middels'
p842
sba(irunmatrix
M3Element
p843
(dp844
g3
Nsg4
S'Lite sannsynlig, Mulig'
p845
sg6
S'white'
p846
sg8
(lp847
sg10
S'Possible'
p848
sg12
S'Many'
p849
sg14
g572
sg16
I4
sg17
S'Low'
p850
sg19
S'Liten tilleggsbelastning'
p851
sg21
Nsg22
S'300'
p852
sg24
S'1400'
p853
sg26
S'Mange bratte heng'
p854
sg28
Nsg29
g682
sg31
S'3 - Middels'
p855
sba(irunmatrix
M3Element
p856
(dp857
g3
Nsg4
S'Lite sannsynlig, Mulig'
p858
sg6
S'gray'
p859
sg8
(lp860
sg10
S'Possible'
p861
sg12
S'Many'
p862
sg14
g76
sg16
I0
sg17
S'Nat'
p863
sg19
S'Naturlig utloest'
p864
sg21
Nsg22
S'300'
p865
sg24
S'1500'
p866
sg26
S'Mange bratte heng'
p867
sg28
Nsg29
g682
sg31
S'3 - Middels'
p868
sba(irunmatrix
M3Element
p869
(dp870
g3
Nsg4
S'Sannsynlig, Meget sannsynlig'
p871
sg6
S'gray'
p872
sg8
(lp873
sg10
S'Likely'
p874
sg12
S'Many'
p875
sg14
g76
sg16
I0
sg17
S'High'
p876
sg19
S'Stor tilleggsbelastning'
p877
sg21
Nsg22
S'300'
p878
sg24
S'1600'
p879
sg26
S'Mange bratte heng'
p880
sg28
Nsg29
g682
sg31
S'3 - Middels'
p881
sba(irunmatrix
M3Element
p882
(dp883
g3
Nsg4
S'Sannsynlig, Meget sannsynlig'
p884
sg6
S'white'
p885
sg8
(lp886
sg10
S'Likely'
p887
sg12
S'Many'
p888
sg14
g572
sg16
I4
sg17
S'Low'
p889
sg19
S'Liten tilleggsbelastning'
p890
sg21
Nsg22
S'300'
p891
sg24
S'1700'
p892
sg26
S'Mange bratte heng'
p893
sg28
Nsg29
g682
sg31
S'3 - Middels'
p894
sba(irunmatrix
M3Element
p895
(dp896
g3
Nsg4
S'Sannsynlig, Meget sannsynlig'
p897
sg6
S'white'
p898
sg8
(lp899
sg10
S'Likely'
p900
sg12
S'Many'
p901
sg14
g572
sg16
I4
sg17
S'Nat'
p902
sg19
S'Naturlig utloest'
p903
sg21
Nsg22
S'300'
p904
sg24
S'1800'
p905
sg26
S'Mange bratte heng'
p906
sg28
Nsg29
g682
sg31
S'3 - Middels'
p907
sba(irunmatrix
M3Element
p908
(dp909
g3
Nsg4
S'Lite sannsynlig, Mulig'
p910
sg6
S'gray'
p911
sg8
(lp912
sg10
S'Possible'
p913
sg12
S'Most'
p914
sg14
g76
sg16
I0
sg17
S'High'
p915
sg19
S'Stor tilleggsbelastning'
p916
sg21
Nsg22
S'300'
p917
sg24
S'1900'
p918
sg26
S'De fleste bratte heng, Ogsaa i mindre bratt terreng'
p919
sg28
Nsg29
g682
sg31
S'3 - Middels'
p920
sba(irunmatrix
M3Element
p921
(dp922
g3
Nsg4
S'Lite sannsynlig, Mulig'
p923
sg6
S'gray'
p924
sg8
(lp925
sg10
S'Possible'
p926
sg12
S'Most'
p927
sg14
g76
sg16
I0
sg17
S'Low'
p928
sg19
S'Liten tilleggsbelastning'
p929
sg21
Nsg22
S'300'
p930
sg24
S'2000'
p931
sg26
S'De fleste bratte heng, Ogsaa i mindre bratt terreng'
p932
sg28
Nsg29
g682
sg31
S'3 - Middels'
p933
sba(irunmatrix
M3Element
p934
(dp935
g3
Nsg4
S'Lite sannsynlig, Mulig'
p936
sg6
S'gray'
p937
sg8
(lp938
sg10
S'Possible'
p939
sg12
S'Most'
p940
sg14
g76
sg16
I0
sg17
S'Nat'
p941
sg19
S'Naturlig utloest'
p942
sg21
Nsg22
S'300'
p943
sg24
S'2100'
p944
sg26
S'De fleste bratte heng, Ogsaa i mindre bratt terreng'
p945
sg28
Nsg29
g682
sg31
S'3 - Middels'
p946
sba(irunmatrix
M3Element
p947
(dp948
g3
Nsg4
S'Sannsynlig, Meget sannsynlig'
p949
sg6
S'gray'
p950
sg8
(lp951
sg10
S'Likely'
p952
sg12
S'Most'
p953
sg14
g76
sg16
I0
sg17
S'High'
p954
sg19
S'Stor tilleggsbelastning'
p955
sg21
Nsg22
S'300'
p956
sg24
S'2200'
p957
sg26
S'De fleste bratte heng, Ogsaa i mindre bratt terreng'
p958
sg28
Nsg29
g682
sg31
S'3 - Middels'
p959
sba(irunmatrix
M3Element
p960
(dp961
g3
Nsg4
S'Sannsynlig, Meget sannsynlig'
p962
sg6
S'gray'
p963
sg8
(lp964
sg10
S'Likely'
p965
sg12
S'Most'
p966
sg14
g76
sg16
I0
sg17
S'Low'
p967
sg19
S'Liten tilleggsbelastning'
p968
sg21
Nsg22
S'300'
p969
sg24
S'2300'
p970
sg26
S'De fleste bratte heng, Ogsaa i mindre bratt terreng'
p971
sg28
Nsg29
g682
sg31
S'3 - Middels'
p972
sba(irunmatrix
M3Element
p973
(dp974
g3
Nsg4
S'Sannsynlig, Meget sannsynlig'
p975
sg6
S'white'
p976
sg8
(lp977
sg10
S'Likely'
p978
sg12
S'Most'
p979
sg14
g76
sg16
I0
sg17
S'Nat'
p980
sg19
S'Naturlig utloest'
p981
sg21
Nsg22
S'300'
p982
sg24
S'2400'
p983
sg26
S'De fleste bratte heng, Ogsaa i mindre bratt terreng'
p984
sg28
Nsg29
g682
sg31
S'3 - Middels'
p985
sba(irunmatrix
M3Element
p986
(dp987
g3
Nsg4
S'Lite sannsynlig, Mulig'
p988
sg6
S'white'
p989
sg8
(lp990
sg10
S'Possible'
p991
sg12
S'Isolated'
p992
sg14
g251
sg16
I2
sg17
S'High'
p993
sg19
S'Stor tilleggsbelastning'
p994
sg21
Nsg22
S'400'
p995
sg24
S'100'
p996
sg26
S'Isolerte faresoner'
p997
sg28
Nsg29
S'4'
p998
sg31
S'4 - Store'
p999
sba(irunmatrix
M3Element
p1000
(dp1001
g3
Nsg4
S'Lite sannsynlig, Mulig'
p1002
sg6
S'white'
p1003
sg8
(lp1004
sg10
S'Possible'
p1005
sg12
S'Isolated'
p1006
sg14
g503
sg16
I3
sg17
S'Low'
p1007
sg19
S'Liten tilleggsbelastning'
p1008
sg21
Nsg22
S'400'
p1009
sg24
S'200'
p1010
sg26
S'Isolerte faresoner'
p1011
sg28
Nsg29
g998
sg31
S'4 - Store'
p1012
sba(irunmatrix
M3Element
p1013
(dp1014
g3
Nsg4
S'Lite sannsynlig, Mulig'
p1015
sg6
S'white'
p1016
sg8
(lp1017
sg10
S'Possible'
p1018
sg12
S'Isolated'
p1019
sg14
g503
sg16
I3
sg17
S'Nat'
p1020
sg19
S'Naturlig utloest'
p1021
sg21
Nsg22
S'400'
p1022
sg24
S'300'
p1023
sg26
S'Isolerte faresoner'
p1024
sg28
Nsg29
g998
sg31
S'4 - Store'
p1025
sba(irunmatrix
M3Element
p1026
(dp1027
g3
Nsg4
S'Sannsynlig, Meget sannsynlig'
p1028
sg6
S'gray'
p1029
sg8
(lp1030
sg10
S'Likely'
p1031
sg12
S'Isolated'
p1032
sg14
g76
sg16
I0
sg17
S'High'
p1033
sg19
S'Stor tilleggsbelastning'
p1034
sg21
Nsg22
S'400'
p1035
sg24
S'400'
p1036
sg26
S'Isolerte faresoner'
p1037
sg28
Nsg29
g998
sg31
S'4 - Store'
p1038
sba(irunmatrix
M3Element
p1039
(dp1040
g3
Nsg4
S'Sannsynlig, Meget sannsynlig'
p1041
sg6
S'gray'
p1042
sg8
(lp1043
sg10
S'Likely'
p1044
sg12
S'Isolated'
p1045
sg14
g76
sg16
I0
sg17
S'Low'
p1046
sg19
S'Liten tilleggsbelastning'
p1047
sg21
Nsg22
S'400'
p1048
sg24
S'500'
p1049
sg26
S'Isolerte faresoner'
p1050
sg28
Nsg29
g998
sg31
S'4 - Store'
p1051
sba(irunmatrix
M3Element
p1052
(dp1053
g3
Nsg4
S'Sannsynlig, Meget sannsynlig'
p1054
sg6
S'gray'
p1055
sg8
(lp1056
sg10
S'Likely'
p1057
sg12
S'Isolated'
p1058
sg14
g76
sg16
I0
sg17
S'Nat'
p1059
sg19
S'Naturlig utloest'
p1060
sg21
Nsg22
S'400'
p1061
sg24
S'600'
p1062
sg26
S'Isolerte faresoner'
p1063
sg28
Nsg29
g998
sg31
S'4 - Store'
p1064
sba(irunmatrix
M3Element
p1065
(dp1066
g3
Nsg4
S'Lite sannsynlig, Mulig'
p1067
sg6
S'white'
p1068
sg8
(lp1069
sg10
S'Possible'
p1070
sg12
S'Some'
p1071
sg14
g503
sg16
I3
sg17
S'High'
p1072
sg19
S'Stor tilleggsbelastning'
p1073
sg21
Nsg22
S'400'
p1074
sg24
S'700'
p1075
sg26
S'Noen bratte heng'
p1076
sg28
Nsg29
g998
sg31
S'4 - Store'
p1077
sba(irunmatrix
M3Element
p1078
(dp1079
g3
Nsg4
S'Lite sannsynlig, Mulig'
p1080
sg6
S'white'
p1081
sg8
(lp1082
sg10
S'Possible'
p1083
sg12
S'Some'
p1084
sg14
g572
sg16
I4
sg17
S'Low'
p1085
sg19
S'Liten tilleggsbelastning'
p1086
sg21
Nsg22
S'400'
p1087
sg24
S'800'
p1088
sg26
S'Noen bratte heng'
p1089
sg28
Nsg29
g998
sg31
S'4 - Store'
p1090
sba(irunmatrix
M3Element
p1091
(dp1092
g3
Nsg4
S'Lite sannsynlig, Mulig'
p1093
sg6
S'white'
p1094
sg8
(lp1095
sg10
S'Possible'
p1096
sg12
S'Some'
p1097
sg14
g572
sg16
I4
sg17
S'Nat'
p1098
sg19
S'Naturlig utloest'
p1099
sg21
Nsg22
S'400'
p1100
sg24
S'900'
p1101
sg26
S'Noen bratte heng'
p1102
sg28
Nsg29
g998
sg31
S'4 - Store'
p1103
sba(irunmatrix
M3Element
p1104
(dp1105
g3
Nsg4
S'Sannsynlig, Meget sannsynlig'
p1106
sg6
S'gray'
p1107
sg8
(lp1108
sg10
S'Likely'
p1109
sg12
S'Some'
p1110
sg14
g76
sg16
I0
sg17
S'High'
p1111
sg19
S'Stor tilleggsbelastning'
p1112
sg21
Nsg22
S'400'
p1113
sg24
S'1000'
p1114
sg26
S'Noen bratte heng'
p1115
sg28
Nsg29
g998
sg31
S'4 - Store'
p1116
sba(irunmatrix
M3Element
p1117
(dp1118
g3
Nsg4
S'Sannsynlig, Meget sannsynlig'
p1119
sg6
S'gray'
p1120
sg8
(lp1121
sg10
S'Likely'
p1122
sg12
S'Some'
p1123
sg14
g76
sg16
I0
sg17
S'Low'
p1124
sg19
S'Liten tilleggsbelastning'
p1125
sg21
Nsg22
S'400'
p1126
sg24
S'1100'
p1127
sg26
S'Noen bratte heng'
p1128
sg28
Nsg29
g998
sg31
S'4 - Store'
p1129
sba(irunmatrix
M3Element
p1130
(dp1131
g3
Nsg4
S'Sannsynlig, Meget sannsynlig'
p1132
sg6
S'white'
p1133
sg8
(lp1134
sg10
S'Likely'
p1135
sg12
S'Some'
p1136
sg14
g572
sg16
I4
sg17
S'Nat'
p1137
sg19
S'Naturlig utloest'
p1138
sg21
Nsg22
S'400'
p1139
sg24
S'1200'
p1140
sg26
S'Noen bratte heng'
p1141
sg28
Nsg29
g998
sg31
S'4 - Store'
p1142
sba(irunmatrix
M3Element
p1143
(dp1144
g3
Nsg4
S'Lite sannsynlig, Mulig'
p1145
sg6
S'gray'
p1146
sg8
(lp1147
sg10
S'Possible'
p1148
sg12
S'Many'
p1149
sg14
g76
sg16
I0
sg17
S'High'
p1150
sg19
S'Stor tilleggsbelastning'
p1151
sg21
Nsg22
S'400'
p1152
sg24
S'1300'
p1153
sg26
S'Mange bratte heng'
p1154
sg28
Nsg29
g998
sg31
S'4 - Store'
p1155
sba(irunmatrix
M3Element
p1156
(dp1157
g3
Nsg4
S'Lite sannsynlig, Mulig'
p1158
sg6
S'white'
p1159
sg8
(lp1160
sg10
S'Possible'
p1161
sg12
S'Many'
p1162
sg14
g76
sg16
I0
sg17
S'Low'
p1163
sg19
S'Liten tilleggsbelastning'
p1164
sg21
Nsg22
S'400'
p1165
sg24
S'1400'
p1166
sg26
S'Mange bratte heng'
p1167
sg28
Nsg29
g998
sg31
S'4 - Store'
p1168
sba(irunmatrix
M3Element
p1169
(dp1170
g3
Nsg4
S'Lite sannsynlig, Mulig'
p1171
sg6
S'gray'
p1172
sg8
(lp1173
sg10
S'Possible'
p1174
sg12
S'Many'
p1175
sg14
g76
sg16
I0
sg17
S'Nat'
p1176
sg19
S'Naturlig utloest'
p1177
sg21
Nsg22
S'400'
p1178
sg24
S'1500'
p1179
sg26
S'Mange bratte heng'
p1180
sg28
Nsg29
g998
sg31
S'4 - Store'
p1181
sba(irunmatrix
M3Element
p1182
(dp1183
g3
Nsg4
S'Sannsynlig, Meget sannsynlig'
p1184
sg6
S'gray'
p1185
sg8
(lp1186
sg10
S'Likely'
p1187
sg12
S'Many'
p1188
sg14
g76
sg16
I0
sg17
S'High'
p1189
sg19
S'Stor tilleggsbelastning'
p1190
sg21
Nsg22
S'400'
p1191
sg24
S'1600'
p1192
sg26
S'Mange bratte heng'
p1193
sg28
Nsg29
g998
sg31
S'4 - Store'
p1194
sba(irunmatrix
M3Element
p1195
(dp1196
g3
Nsg4
S'Sannsynlig, Meget sannsynlig'
p1197
sg6
S'white'
p1198
sg8
(lp1199
sg10
S'Likely'
p1200
sg12
S'Many'
p1201
sg14
g76
sg16
I0
sg17
S'Low'
p1202
sg19
S'Liten tilleggsbelastning'
p1203
sg21
Nsg22
S'400'
p1204
sg24
S'1700'
p1205
sg26
S'Mange bratte heng'
p1206
sg28
Nsg29
g998
sg31
S'4 - Store'
p1207
sba(irunmatrix
M3Element
p1208
(dp1209
g3
Nsg4
S'Sannsynlig, Meget sannsynlig'
p1210
sg6
S'white'
p1211
sg8
(lp1212
sg10
S'Likely'
p1213
sg12
S'Many'
p1214
sg14
S'k'
p1215
sg16
I5
sg17
S'Nat'
p1216
sg19
S'Naturlig utloest'
p1217
sg21
Nsg22
S'400'
p1218
sg24
S'1800'
p1219
sg26
S'Mange bratte heng'
p1220
sg28
Nsg29
g998
sg31
S'4 - Store'
p1221
sba(irunmatrix
M3Element
p1222
(dp1223
g3
Nsg4
S'Lite sannsynlig, Mulig'
p1224
sg6
S'gray'
p1225
sg8
(lp1226
sg10
S'Possible'
p1227
sg12
S'Most'
p1228
sg14
g76
sg16
I0
sg17
S'High'
p1229
sg19
S'Stor tilleggsbelastning'
p1230
sg21
Nsg22
S'400'
p1231
sg24
S'1900'
p1232
sg26
S'De fleste bratte heng, Ogsaa i mindre bratt terreng'
p1233
sg28
Nsg29
g998
sg31
S'4 - Store'
p1234
sba(irunmatrix
M3Element
p1235
(dp1236
g3
Nsg4
S'Lite sannsynlig, Mulig'
p1237
sg6
S'gray'
p1238
sg8
(lp1239
sg10
S'Possible'
p1240
sg12
S'Most'
p1241
sg14
g76
sg16
I0
sg17
S'Low'
p1242
sg19
S'Liten tilleggsbelastning'
p1243
sg21
Nsg22
S'400'
p1244
sg24
S'2000'
p1245
sg26
S'De fleste bratte heng, Ogsaa i mindre bratt terreng'
p1246
sg28
Nsg29
g998
sg31
S'4 - Store'
p1247
sba(irunmatrix
M3Element
p1248
(dp1249
g3
Nsg4
S'Lite sannsynlig, Mulig'
p1250
sg6
S'gray'
p1251
sg8
(lp1252
sg10
S'Possible'
p1253
sg12
S'Most'
p1254
sg14
g76
sg16
I0
sg17
S'Nat'
p1255
sg19
S'Naturlig utloest'
p1256
sg21
Nsg22
S'400'
p1257
sg24
S'2100'
p1258
sg26
S'De fleste bratte heng, Ogsaa i mindre bratt terreng'
p1259
sg28
Nsg29
g998
sg31
S'4 - Store'
p1260
sba(irunmatrix
M3Element
p1261
(dp1262
g3
Nsg4
S'Sannsynlig, Meget sannsynlig'
p1263
sg6
S'gray'
p1264
sg8
(lp1265
sg10
S'Likely'
p1266
sg12
S'Most'
p1267
sg14
g76
sg16
I0
sg17
S'High'
p1268
sg19
S'Stor tilleggsbelastning'
p1269
sg21
Nsg22
S'400'
p1270
sg24
S'2200'
p1271
sg26
S'De fleste bratte heng, Ogsaa i mindre bratt terreng'
p1272
sg28
Nsg29
g998
sg31
S'4 - Store'
p1273
sba(irunmatrix
M3Element
p1274
(dp1275
g3
Nsg4
S'Sannsynlig, Meget sannsynlig'
p1276
sg6
S'gray'
p1277
sg8
(lp1278
sg10
S'Likely'
p1279
sg12
S'Most'
p1280
sg14
g76
sg16
I0
sg17
S'Low'
p1281
sg19
S'Liten tilleggsbelastning'
p1282
sg21
Nsg22
S'400'
p1283
sg24
S'2300'
p1284
sg26
S'De fleste bratte heng, Ogsaa i mindre bratt terreng'
p1285
sg28
Nsg29
g998
sg31
S'4 - Store'
p1286
sba(irunmatrix
M3Element
p1287
(dp1288
g3
Nsg4
S'Sannsynlig, Meget sannsynlig'
p1289
sg6
S'white'
p1290
sg8
(lp1291
sg10
S'Likely'
p1292
sg12
S'Most'
p1293
sg14
g76
sg16
I0
sg17
S'Nat'
p1294
sg19
S'Naturlig utloest'
p1295
sg21
Nsg22
S'400'
p1296
sg24
S'2400'
p1297
sg26
S'De fleste bratte heng, Ogsaa i mindre bratt terreng'
p1298
sg28
Nsg29
g998
sg31
S'4 - Store'
p1299
sba(irunmatrix
M3Element
p1300
(dp1301
g3
Nsg4
S'Lite sannsynlig, Mulig'
p1302
sg6
S'white'
p1303
sg8
(lp1304
sg10
S'Possible'
p1305
sg12
S'Isolated'
p1306
sg14
g76
sg16
I0
sg17
S'High'
p1307
sg19
S'Stor tilleggsbelastning'
p1308
sg21
Nsg22
S'500'
p1309
sg24
S'100'
p1310
sg26
S'Isolerte faresoner'
p1311
sg28
Nsg29
S'5'
p1312
sg31
S'5 - Svaert store'
p1313
sba(irunmatrix
M3Element
p1314
(dp1315
g3
Nsg4
S'Lite sannsynlig, Mulig'
p1316
sg6
S'white'
p1317
sg8
(lp1318
sg10
S'Possible'
p1319
sg12
S'Isolated'
p1320
sg14
g76
sg16
I0
sg17
S'Low'
p1321
sg19
S'Liten tilleggsbelastning'
p1322
sg21
Nsg22
S'500'
p1323
sg24
S'200'
p1324
sg26
S'Isolerte faresoner'
p1325
sg28
Nsg29
g1312
sg31
S'5 - Svaert store'
p1326
sba(irunmatrix
M3Element
p1327
(dp1328
g3
Nsg4
S'Lite sannsynlig, Mulig'
p1329
sg6
S'white'
p1330
sg8
(lp1331
sg10
S'Possible'
p1332
sg12
S'Isolated'
p1333
sg14
g76
sg16
I0
sg17
S'Nat'
p1334
sg19
S'Naturlig utloest'
p1335
sg21
Nsg22
S'500'
p1336
sg24
S'300'
p1337
sg26
S'Isolerte faresoner'
p1338
sg28
Nsg29
g1312
sg31
S'5 - Svaert store'
p1339
sba(irunmatrix
M3Element
p1340
(dp1341
g3
Nsg4
S'Sannsynlig, Meget sannsynlig'
p1342
sg6
S'gray'
p1343
sg8
(lp1344
sg10
S'Likely'
p1345
sg12
S'Isolated'
p1346
sg14
g76
sg16
I0
sg17
S'High'
p1347
sg19
S'Stor tilleggsbelastning'
p1348
sg21
Nsg22
S'500'
p1349
sg24
S'400'
p1350
sg26
S'Isolerte faresoner'
p1351
sg28
Nsg29
g1312
sg31
S'5 - Svaert store'
p1352
sba(irunmatrix
M3Element
p1353
(dp1354
g3
Nsg4
S'Sannsynlig, Meget sannsynlig'
p1355
sg6
S'gray'
p1356
sg8
(lp1357
sg10
S'Likely'
p1358
sg12
S'Isolated'
p1359
sg14
g76
sg16
I0
sg17
S'Low'
p1360
sg19
S'Liten tilleggsbelastning'
p1361
sg21
Nsg22
S'500'
p1362
sg24
S'500'
p1363
sg26
S'Isolerte faresoner'
p1364
sg28
Nsg29
g1312
sg31
S'5 - Svaert store'
p1365
sba(irunmatrix
M3Element
p1366
(dp1367
g3
Nsg4
S'Sannsynlig, Meget sannsynlig'
p1368
sg6
S'gray'
p1369
sg8
(lp1370
sg10
S'Likely'
p1371
sg12
S'Isolated'
p1372
sg14
g76
sg16
I0
sg17
S'Nat'
p1373
sg19
S'Naturlig utloest'
p1374
sg21
Nsg22
S'500'
p1375
sg24
S'600'
p1376
sg26
S'Isolerte faresoner'
p1377
sg28
Nsg29
g1312
sg31
S'5 - Svaert store'
p1378
sba(irunmatrix
M3Element
p1379
(dp1380
g3
Nsg4
S'Lite sannsynlig, Mulig'
p1381
sg6
S'white'
p1382
sg8
(lp1383
sg10
S'Possible'
p1384
sg12
S'Some'
p1385
sg14
g76
sg16
I0
sg17
S'High'
p1386
sg19
S'Stor tilleggsbelastning'
p1387
sg21
Nsg22
S'500'
p1388
sg24
S'700'
p1389
sg26
S'Noen bratte heng'
p1390
sg28
Nsg29
g1312
sg31
S'5 - Svaert store'
p1391
sba(irunmatrix
M3Element
p1392
(dp1393
g3
Nsg4
S'Lite sannsynlig, Mulig'
p1394
sg6
S'white'
p1395
sg8
(lp1396
sg10
S'Possible'
p1397
sg12
S'Some'
p1398
sg14
g76
sg16
I0
sg17
S'Low'
p1399
sg19
S'Liten tilleggsbelastning'
p1400
sg21
Nsg22
S'500'
p1401
sg24
S'800'
p1402
sg26
S'Noen bratte heng'
p1403
sg28
Nsg29
g1312
sg31
S'5 - Svaert store'
p1404
sba(irunmatrix
M3Element
p1405
(dp1406
g3
Nsg4
S'Lite sannsynlig, Mulig'
p1407
sg6
S'white'
p1408
sg8
(lp1409
sg10
S'Possible'
p1410
sg12
S'Some'
p1411
sg14
g76
sg16
I0
sg17
S'Nat'
p1412
sg19
S'Naturlig utloest'
p1413
sg21
Nsg22
S'500'
p1414
sg24
S'900'
p1415
sg26
S'Noen bratte heng'
p1416
sg28
Nsg29
g1312
sg31
S'5 - Svaert store'
p1417
sba(irunmatrix
M3Element
p1418
(dp1419
g3
Nsg4
S'Sannsynlig, Meget sannsynlig'
p1420
sg6
S'gray'
p1421
sg8
(lp1422
sg10
S'Likely'
p1423
sg12
S'Some'
p1424
sg14
g76
sg16
I0
sg17
S'High'
p1425
sg19
S'Stor tilleggsbelastning'
p1426
sg21
Nsg22
S'500'
p1427
sg24
S'1000'
p1428
sg26
S'Noen bratte heng'
p1429
sg28
Nsg29
g1312
sg31
S'5 - Svaert store'
p1430
sba(irunmatrix
M3Element
p1431
(dp1432
g3
Nsg4
S'Sannsynlig, Meget sannsynlig'
p1433
sg6
S'gray'
p1434
sg8
(lp1435
sg10
S'Likely'
p1436
sg12
S'Some'
p1437
sg14
g76
sg16
I0
sg17
S'Low'
p1438
sg19
S'Liten tilleggsbelastning'
p1439
sg21
Nsg22
S'500'
p1440
sg24
S'1100'
p1441
sg26
S'Noen bratte heng'
p1442
sg28
Nsg29
g1312
sg31
S'5 - Svaert store'
p1443
sba(irunmatrix
M3Element
p1444
(dp1445
g3
Nsg4
S'Sannsynlig, Meget sannsynlig'
p1446
sg6
S'white'
p1447
sg8
(lp1448
sg10
S'Likely'
p1449
sg12
S'Some'
p1450
sg14
g76
sg16
I0
sg17
S'Nat'
p1451
sg19
S'Naturlig utloest'
p1452
sg21
Nsg22
S'500'
p1453
sg24
S'1200'
p1454
sg26
S'Noen bratte heng'
p1455
sg28
Nsg29
g1312
sg31
S'5 - Svaert store'
p1456
sba(irunmatrix
M3Element
p1457
(dp1458
g3
Nsg4
S'Lite sannsynlig, Mulig'
p1459
sg6
S'gray'
p1460
sg8
(lp1461
sg10
S'Possible'
p1462
sg12
S'Many'
p1463
sg14
g76
sg16
I0
sg17
S'High'
p1464
sg19
S'Stor tilleggsbelastning'
p1465
sg21
Nsg22
S'500'
p1466
sg24
S'1300'
p1467
sg26
S'Mange bratte heng'
p1468
sg28
Nsg29
g1312
sg31
S'5 - Svaert store'
p1469
sba(irunmatrix
M3Element
p1470
(dp1471
g3
Nsg4
S'Lite sannsynlig, Mulig'
p1472
sg6
S'white'
p1473
sg8
(lp1474
sg10
S'Possible'
p1475
sg12
S'Many'
p1476
sg14
g76
sg16
I0
sg17
S'Low'
p1477
sg19
S'Liten tilleggsbelastning'
p1478
sg21
Nsg22
S'500'
p1479
sg24
S'1400'
p1480
sg26
S'Mange bratte heng'
p1481
sg28
Nsg29
g1312
sg31
S'5 - Svaert store'
p1482
sba(irunmatrix
M3Element
p1483
(dp1484
g3
Nsg4
S'Lite sannsynlig, Mulig'
p1485
sg6
S'gray'
p1486
sg8
(lp1487
sg10
S'Possible'
p1488
sg12
S'Many'
p1489
sg14
g76
sg16
I0
sg17
S'Nat'
p1490
sg19
S'Naturlig utloest'
p1491
sg21
Nsg22
S'500'
p1492
sg24
S'1500'
p1493
sg26
S'Mange bratte heng'
p1494
sg28
Nsg29
g1312
sg31
S'5 - Svaert store'
p1495
sba(irunmatrix
M3Element
p1496
(dp1497
g3
Nsg4
S'Sannsynlig, Meget sannsynlig'
p1498
sg6
S'gray'
p1499
sg8
(lp1500
sg10
S'Likely'
p1501
sg12
S'Many'
p1502
sg14
g76
sg16
I0
sg17
S'High'
p1503
sg19
S'Stor tilleggsbelastning'
p1504
sg21
Nsg22
S'500'
p1505
sg24
S'1600'
p1506
sg26
S'Mange bratte heng'
p1507
sg28
Nsg29
g1312
sg31
S'5 - Svaert store'
p1508
sba(irunmatrix
M3Element
p1509
(dp1510
g3
Nsg4
S'Sannsynlig, Meget sannsynlig'
p1511
sg6
S'white'
p1512
sg8
(lp1513
sg10
S'Likely'
p1514
sg12
S'Many'
p1515
sg14
g76
sg16
I0
sg17
S'Low'
p1516
sg19
S'Liten tilleggsbelastning'
p1517
sg21
Nsg22
S'500'
p1518
sg24
S'1700'
p1519
sg26
S'Mange bratte heng'
p1520
sg28
Nsg29
g1312
sg31
S'5 - Svaert store'
p1521
sba(irunmatrix
M3Element
p1522
(dp1523
g3
Nsg4
S'Sannsynlig, Meget sannsynlig'
p1524
sg6
S'white'
p1525
sg8
(lp1526
sg10
S'Likely'
p1527
sg12
S'Many'
p1528
sg14
g1215
sg16
I5
sg17
S'Nat'
p1529
sg19
S'Naturlig utloest'
p1530
sg21
Nsg22
S'500'
p1531
sg24
S'1800'
p1532
sg26
S'Mange bratte heng'
p1533
sg28
Nsg29
g1312
sg31
S'5 - Svaert store'
p1534
sba(irunmatrix
M3Element
p1535
(dp1536
g3
Nsg4
S'Lite sannsynlig, Mulig'
p1537
sg6
S'gray'
p1538
sg8
(lp1539
sg10
S'Possible'
p1540
sg12
S'Most'
p1541
sg14
g76
sg16
I0
sg17
S'High'
p1542
sg19
S'Stor tilleggsbelastning'
p1543
sg21
Nsg22
S'500'
p1544
sg24
S'1900'
p1545
sg26
S'De fleste bratte heng, Ogsaa i mindre bratt terreng'
p1546
sg28
Nsg29
g1312
sg31
S'5 - Svaert store'
p1547
sba(irunmatrix
M3Element
p1548
(dp1549
g3
Nsg4
S'Lite sannsynlig, Mulig'
p1550
sg6
S'gray'
p1551
sg8
(lp1552
sg10
S'Possible'
p1553
sg12
S'Most'
p1554
sg14
g76
sg16
I0
sg17
S'Low'
p1555
sg19
S'Liten tilleggsbelastning'
p1556
sg21
Nsg22
S'500'
p1557
sg24
S'2000'
p1558
sg26
S'De fleste bratte heng, Ogsaa i mindre bratt terreng'
p1559
sg28
Nsg29
g1312
sg31
S'5 - Svaert store'
p1560
sba(irunmatrix
M3Element
p1561
(dp1562
g3
Nsg4
S'Lite sannsynlig, Mulig'
p1563
sg6
S'gray'
p1564
sg8
(lp1565
sg10
S'Possible'
p1566
sg12
S'Most'
p1567
sg14
g76
sg16
I0
sg17
S'Nat'
p1568
sg19
S'Naturlig utloest'
p1569
sg21
Nsg22
S'500'
p1570
sg24
S'2100'
p1571
sg26
S'De fleste bratte heng, Ogsaa i mindre bratt terreng'
p1572
sg28
Nsg29
g1312
sg31
S'5 - Svaert store'
p1573
sba(irunmatrix
M3Element
p1574
(dp1575
g3
Nsg4
S'Sannsynlig, Meget sannsynlig'
p1576
sg6
S'gray'
p1577
sg8
(lp1578
sg10
S'Likely'
p1579
sg12
S'Most'
p1580
sg14
g76
sg16
I0
sg17
S'High'
p1581
sg19
S'Stor tilleggsbelastning'
p1582
sg21
Nsg22
S'500'
p1583
sg24
S'2200'
p1584
sg26
S'De fleste bratte heng, Ogsaa i mindre bratt terreng'
p1585
sg28
Nsg29
g1312
sg31
S'5 - Svaert store'
p1586
sba(irunmatrix
M3Element
p1587
(dp1588
g3
Nsg4
S'Sannsynlig, Meget sannsynlig'
p1589
sg6
S'gray'
p1590
sg8
(lp1591
sg10
S'Likely'
p1592
sg12
S'Most'
p1593
sg14
g76
sg16
I0
sg17
S'Low'
p1594
sg19
S'Liten tilleggsbelastning'
p1595
sg21
Nsg22
S'500'
p1596
sg24
S'2300'
p1597
sg26
S'De fleste bratte heng, Ogsaa i mindre bratt terreng'
p1598
sg28
Nsg29
g1312
sg31
S'5 - Svaert store'
p1599
sba(irunmatrix
M3Element
p1600
(dp1601
g3
Nsg4
S'Sannsynlig, Meget sannsynlig'
p1602
sg6
S'white'
p1603
sg8
(lp1604
sg10
S'Likely'
p1605
sg12
S'Most'
p1606
sg14
g76
sg16
I0
sg17
S'Nat'
p1607
sg19
S'Naturlig utloest'
p1608
sg21
Nsg22
S'500'
p1609
sg24
S'2400'
p1610
sg26
S'De fleste bratte heng, Ogsaa i mindre bratt terreng'
p1611
sg28
Nsg29
g1312
sg31
S'5 - Svaert store'
p1612
sba.