(dp0
S'trigger'
p1
(dp2
S'keys'
p3
(lp4
S'Stor tilleggsbelastning'
p5
aS'Liten tilleggsbelastning'
p6
aS'Naturlig utloest'
p7
asS'colors'
p8
(lp9
S'0.7'
p10
asS'values'
p11
(lp12
S'Stor tilleggsbelastning'
p13
aS'Stor tilleggsbelastning'
p14
aS'Liten tilleggsbelastning'
p15
aS'Liten tilleggsbelastning'
p16
aS'Liten tilleggsbelastning'
p17
aS'Liten tilleggsbelastning'
p18
aS'Liten tilleggsbelastning'
p19
aS'Liten tilleggsbelastning'
p20
aS'Liten tilleggsbelastning'
p21
aS'Liten tilleggsbelastning'
p22
aS'Liten tilleggsbelastning'
p23
aS'Liten tilleggsbelastning'
p24
aS'Liten tilleggsbelastning'
p25
aS'Liten tilleggsbelastning'
p26
aS'Liten tilleggsbelastning'
p27
aS'Liten tilleggsbelastning'
p28
aS'Liten tilleggsbelastning'
p29
aS'Liten tilleggsbelastning'
p30
aS'Liten tilleggsbelastning'
p31
aS'Liten tilleggsbelastning'
p32
aS'Liten tilleggsbelastning'
p33
aS'Liten tilleggsbelastning'
p34
aS'Liten tilleggsbelastning'
p35
aS'Liten tilleggsbelastning'
p36
aS'Liten tilleggsbelastning'
p37
aS'Liten tilleggsbelastning'
p38
aS'Liten tilleggsbelastning'
p39
aS'Liten tilleggsbelastning'
p40
aS'Liten tilleggsbelastning'
p41
aS'Liten tilleggsbelastning'
p42
aS'Liten tilleggsbelastning'
p43
aS'Liten tilleggsbelastning'
p44
aS'Liten tilleggsbelastning'
p45
aS'Liten tilleggsbelastning'
p46
aS'Liten tilleggsbelastning'
p47
aS'Liten tilleggsbelastning'
p48
aS'Liten tilleggsbelastning'
p49
aS'Liten tilleggsbelastning'
p50
aS'Liten tilleggsbelastning'
p51
aS'Liten tilleggsbelastning'
p52
aS'Liten tilleggsbelastning'
p53
aS'Liten tilleggsbelastning'
p54
aS'Liten tilleggsbelastning'
p55
aS'Liten tilleggsbelastning'
p56
aS'Liten tilleggsbelastning'
p57
aS'Liten tilleggsbelastning'
p58
aS'Liten tilleggsbelastning'
p59
aS'Liten tilleggsbelastning'
p60
aS'Liten tilleggsbelastning'
p61
aS'Liten tilleggsbelastning'
p62
aS'Liten tilleggsbelastning'
p63
aS'Liten tilleggsbelastning'
p64
aS'Liten tilleggsbelastning'
p65
aS'Liten tilleggsbelastning'
p66
aS'Liten tilleggsbelastning'
p67
aS'Liten tilleggsbelastning'
p68
aS'Liten tilleggsbelastning'
p69
aS'Liten tilleggsbelastning'
p70
aS'Liten tilleggsbelastning'
p71
aS'Liten tilleggsbelastning'
p72
aS'Liten tilleggsbelastning'
p73
aS'Liten tilleggsbelastning'
p74
aS'Liten tilleggsbelastning'
p75
aS'Stor tilleggsbelastning'
p76
aS'Stor tilleggsbelastning'
p77
aS'Naturlig utloest'
p78
aS'Stor tilleggsbelastning'
p79
aS'Naturlig utloest'
p80
aS'Stor tilleggsbelastning'
p81
aS'Stor tilleggsbelastning'
p82
aS'Stor tilleggsbelastning'
p83
aS'Liten tilleggsbelastning'
p84
aS'Stor tilleggsbelastning'
p85
aS'Liten tilleggsbelastning'
p86
aS'Stor tilleggsbelastning'
p87
aS'Liten tilleggsbelastning'
p88
aS'Liten tilleggsbelastning'
p89
aS'Liten tilleggsbelastning'
p90
aS'Liten tilleggsbelastning'
p91
aS'Liten tilleggsbelastning'
p92
aS'Liten tilleggsbelastning'
p93
aS'Liten tilleggsbelastning'
p94
aS'Liten tilleggsbelastning'
p95
aS'Liten tilleggsbelastning'
p96
aS'Liten tilleggsbelastning'
p97
aS'Liten tilleggsbelastning'
p98
aS'Liten tilleggsbelastning'
p99
aS'Liten tilleggsbelastning'
p100
aS'Liten tilleggsbelastning'
p101
aS'Liten tilleggsbelastning'
p102
aS'Liten tilleggsbelastning'
p103
aS'Liten tilleggsbelastning'
p104
aS'Liten tilleggsbelastning'
p105
aS'Liten tilleggsbelastning'
p106
aS'Liten tilleggsbelastning'
p107
aS'Liten tilleggsbelastning'
p108
aS'Liten tilleggsbelastning'
p109
aS'Liten tilleggsbelastning'
p110
aS'Liten tilleggsbelastning'
p111
aS'Liten tilleggsbelastning'
p112
aS'Naturlig utloest'
p113
aS'Naturlig utloest'
p114
aS'Naturlig utloest'
p115
aS'Naturlig utloest'
p116
aS'Naturlig utloest'
p117
aS'Naturlig utloest'
p118
aS'Naturlig utloest'
p119
aS'Naturlig utloest'
p120
aS'Naturlig utloest'
p121
aS'Naturlig utloest'
p122
aS'Naturlig utloest'
p123
aS'Naturlig utloest'
p124
aS'Naturlig utloest'
p125
aS'Naturlig utloest'
p126
aS'Naturlig utloest'
p127
aS'Naturlig utloest'
p128
aS'Naturlig utloest'
p129
aS'Naturlig utloest'
p130
aS'Naturlig utloest'
p131
aS'Naturlig utloest'
p132
aS'Naturlig utloest'
p133
aS'Naturlig utloest'
p134
aS'Naturlig utloest'
p135
aS'Naturlig utloest'
p136
aS'Naturlig utloest'
p137
aS'Naturlig utloest'
p138
aS'Naturlig utloest'
p139
aS'Naturlig utloest'
p140
assS'distribution'
p141
(dp142
g3
(lp143
S'Isolerte faresoner'
p144
aS'Noen bratte heng'
p145
aS'Mange bratte heng'
p146
aS'De fleste bratte heng'
p147
aS'Ogsaa i mindre bratt terreng'
p148
asg8
(lp149
g10
asg11
(lp150
S'Isolerte faresoner'
p151
aS'Isolerte faresoner'
p152
aS'Isolerte faresoner'
p153
aS'Isolerte faresoner'
p154
aS'Isolerte faresoner'
p155
aS'Isolerte faresoner'
p156
aS'Noen bratte heng'
p157
aS'Noen bratte heng'
p158
aS'Noen bratte heng'
p159
aS'Isolerte faresoner'
p160
aS'Isolerte faresoner'
p161
aS'Isolerte faresoner'
p162
aS'Noen bratte heng'
p163
aS'Mange bratte heng'
p164
aS'Mange bratte heng'
p165
aS'Mange bratte heng'
p166
aS'Mange bratte heng'
p167
aS'Mange bratte heng'
p168
aS'Noen bratte heng'
p169
aS'Noen bratte heng'
p170
aS'Noen bratte heng'
p171
aS'Noen bratte heng'
p172
aS'Noen bratte heng'
p173
aS'Noen bratte heng'
p174
aS'Noen bratte heng'
p175
aS'Noen bratte heng'
p176
aS'Mange bratte heng'
p177
aS'Noen bratte heng'
p178
aS'Noen bratte heng'
p179
aS'Noen bratte heng'
p180
aS'Mange bratte heng'
p181
aS'Mange bratte heng'
p182
aS'Mange bratte heng'
p183
aS'Mange bratte heng'
p184
aS'Mange bratte heng'
p185
aS'Noen bratte heng'
p186
aS'Noen bratte heng'
p187
aS'Mange bratte heng'
p188
aS'Mange bratte heng'
p189
aS'Mange bratte heng'
p190
aS'Mange bratte heng'
p191
aS'Noen bratte heng'
p192
aS'Mange bratte heng'
p193
aS'Noen bratte heng'
p194
aS'Noen bratte heng'
p195
aS'Noen bratte heng'
p196
aS'Noen bratte heng'
p197
aS'Noen bratte heng'
p198
aS'Noen bratte heng'
p199
aS'Noen bratte heng'
p200
aS'Noen bratte heng'
p201
aS'Noen bratte heng'
p202
aS'Noen bratte heng'
p203
aS'Noen bratte heng'
p204
aS'Noen bratte heng'
p205
aS'Noen bratte heng'
p206
aS'Noen bratte heng'
p207
aS'Noen bratte heng'
p208
aS'Noen bratte heng'
p209
aS'Noen bratte heng'
p210
aS'Noen bratte heng'
p211
aS'Noen bratte heng'
p212
aS'Noen bratte heng'
p213
aS'Isolerte faresoner'
p214
aS'Isolerte faresoner'
p215
aS'Noen bratte heng'
p216
aS'Noen bratte heng'
p217
aS'Noen bratte heng'
p218
aS'Noen bratte heng'
p219
aS'Isolerte faresoner'
p220
aS'Isolerte faresoner'
p221
aS'Isolerte faresoner'
p222
aS'Noen bratte heng'
p223
aS'Isolerte faresoner'
p224
aS'Noen bratte heng'
p225
aS'Noen bratte heng'
p226
aS'Noen bratte heng'
p227
aS'Noen bratte heng'
p228
aS'Noen bratte heng'
p229
aS'Isolerte faresoner'
p230
aS'Noen bratte heng'
p231
aS'Noen bratte heng'
p232
aS'Noen bratte heng'
p233
aS'Isolerte faresoner'
p234
aS'Noen bratte heng'
p235
aS'Isolerte faresoner'
p236
aS'Noen bratte heng'
p237
aS'Noen bratte heng'
p238
aS'Noen bratte heng'
p239
aS'Isolerte faresoner'
p240
aS'Noen bratte heng'
p241
aS'Isolerte faresoner'
p242
aS'Noen bratte heng'
p243
aS'Isolerte faresoner'
p244
aS'Isolerte faresoner'
p245
aS'Noen bratte heng'
p246
aS'Noen bratte heng'
p247
aS'Noen bratte heng'
p248
aS'Noen bratte heng'
p249
aS'Noen bratte heng'
p250
aS'Isolerte faresoner'
p251
aS'Isolerte faresoner'
p252
aS'Isolerte faresoner'
p253
aS'Isolerte faresoner'
p254
aS'Isolerte faresoner'
p255
aS'Isolerte faresoner'
p256
aS'Isolerte faresoner'
p257
aS'Noen bratte heng'
p258
aS'Noen bratte heng'
p259
aS'Noen bratte heng'
p260
aS'Noen bratte heng'
p261
aS'Noen bratte heng'
p262
aS'Noen bratte heng'
p263
aS'Noen bratte heng'
p264
aS'Noen bratte heng'
p265
aS'Noen bratte heng'
p266
aS'Noen bratte heng'
p267
aS'Noen bratte heng'
p268
aS'Noen bratte heng'
p269
aS'Noen bratte heng'
p270
aS'Noen bratte heng'
p271
aS'Noen bratte heng'
p272
aS'Noen bratte heng'
p273
aS'Noen bratte heng'
p274
aS'Noen bratte heng'
p275
aS'Noen bratte heng'
p276
aS'Noen bratte heng'
p277
aS'Noen bratte heng'
p278
assS'size'
p279
(dp280
g3
(lp281
S'1 - Harmloest'
p282
aS'2 - Smaa'
p283
aS'3 - Middels'
p284
aS'4 - Store'
p285
aS'5 - Svaert store'
p286
aS'Ukjent'
p287
asg8
(lp288
g10
asg11
(lp289
S'2 - Smaa'
p290
aS'2 - Smaa'
p291
aS'2 - Smaa'
p292
aS'2 - Smaa'
p293
aS'2 - Smaa'
p294
aS'2 - Smaa'
p295
aS'2 - Smaa'
p296
aS'2 - Smaa'
p297
aS'2 - Smaa'
p298
aS'2 - Smaa'
p299
aS'2 - Smaa'
p300
aS'2 - Smaa'
p301
aS'2 - Smaa'
p302
aS'2 - Smaa'
p303
aS'2 - Smaa'
p304
aS'2 - Smaa'
p305
aS'2 - Smaa'
p306
aS'2 - Smaa'
p307
aS'2 - Smaa'
p308
aS'2 - Smaa'
p309
aS'2 - Smaa'
p310
aS'2 - Smaa'
p311
aS'2 - Smaa'
p312
aS'2 - Smaa'
p313
aS'2 - Smaa'
p314
aS'2 - Smaa'
p315
aS'2 - Smaa'
p316
aS'2 - Smaa'
p317
aS'2 - Smaa'
p318
aS'2 - Smaa'
p319
aS'2 - Smaa'
p320
aS'2 - Smaa'
p321
aS'2 - Smaa'
p322
aS'2 - Smaa'
p323
aS'2 - Smaa'
p324
aS'2 - Smaa'
p325
aS'2 - Smaa'
p326
aS'2 - Smaa'
p327
aS'2 - Smaa'
p328
aS'2 - Smaa'
p329
aS'2 - Smaa'
p330
aS'2 - Smaa'
p331
aS'2 - Smaa'
p332
aS'2 - Smaa'
p333
aS'2 - Smaa'
p334
aS'2 - Smaa'
p335
aS'2 - Smaa'
p336
aS'2 - Smaa'
p337
aS'2 - Smaa'
p338
aS'2 - Smaa'
p339
aS'2 - Smaa'
p340
aS'2 - Smaa'
p341
aS'2 - Smaa'
p342
aS'2 - Smaa'
p343
aS'2 - Smaa'
p344
aS'2 - Smaa'
p345
aS'2 - Smaa'
p346
aS'2 - Smaa'
p347
aS'2 - Smaa'
p348
aS'2 - Smaa'
p349
aS'2 - Smaa'
p350
aS'2 - Smaa'
p351
aS'2 - Smaa'
p352
aS'2 - Smaa'
p353
aS'2 - Smaa'
p354
aS'1 - Harmloest'
p355
aS'2 - Smaa'
p356
aS'1 - Harmloest'
p357
aS'2 - Smaa'
p358
aS'2 - Smaa'
p359
aS'2 - Smaa'
p360
aS'2 - Smaa'
p361
aS'2 - Smaa'
p362
aS'2 - Smaa'
p363
aS'2 - Smaa'
p364
aS'2 - Smaa'
p365
aS'2 - Smaa'
p366
aS'2 - Smaa'
p367
aS'2 - Smaa'
p368
aS'2 - Smaa'
p369
aS'2 - Smaa'
p370
aS'2 - Smaa'
p371
aS'2 - Smaa'
p372
aS'2 - Smaa'
p373
aS'2 - Smaa'
p374
aS'2 - Smaa'
p375
aS'2 - Smaa'
p376
aS'2 - Smaa'
p377
aS'2 - Smaa'
p378
aS'2 - Smaa'
p379
aS'2 - Smaa'
p380
aS'2 - Smaa'
p381
aS'2 - Smaa'
p382
aS'2 - Smaa'
p383
aS'2 - Smaa'
p384
aS'2 - Smaa'
p385
aS'2 - Smaa'
p386
aS'2 - Smaa'
p387
aS'2 - Smaa'
p388
aS'2 - Smaa'
p389
aS'2 - Smaa'
p390
aS'2 - Smaa'
p391
aS'2 - Smaa'
p392
aS'2 - Smaa'
p393
aS'2 - Smaa'
p394
aS'2 - Smaa'
p395
aS'2 - Smaa'
p396
aS'2 - Smaa'
p397
aS'2 - Smaa'
p398
aS'2 - Smaa'
p399
aS'2 - Smaa'
p400
aS'2 - Smaa'
p401
aS'2 - Smaa'
p402
aS'2 - Smaa'
p403
aS'2 - Smaa'
p404
aS'2 - Smaa'
p405
aS'2 - Smaa'
p406
aS'2 - Smaa'
p407
aS'2 - Smaa'
p408
aS'2 - Smaa'
p409
aS'2 - Smaa'
p410
aS'2 - Smaa'
p411
aS'2 - Smaa'
p412
aS'2 - Smaa'
p413
aS'2 - Smaa'
p414
aS'2 - Smaa'
p415
aS'2 - Smaa'
p416
aS'2 - Smaa'
p417
assS'probability'
p418
(dp419
g3
(lp420
S'Lite sannsynlig'
p421
aS'Mulig'
p422
aS'Sannsynlig'
p423
aS'Meget sannsynlig'
p424
asg8
(lp425
g10
asg11
(lp426
S'Mulig'
p427
aS'Mulig'
p428
aS'Mulig'
p429
aS'Mulig'
p430
aS'Mulig'
p431
aS'Mulig'
p432
aS'Mulig'
p433
aS'Mulig'
p434
aS'Mulig'
p435
aS'Mulig'
p436
aS'Mulig'
p437
aS'Mulig'
p438
aS'Mulig'
p439
aS'Mulig'
p440
aS'Mulig'
p441
aS'Mulig'
p442
aS'Mulig'
p443
aS'Mulig'
p444
aS'Mulig'
p445
aS'Mulig'
p446
aS'Mulig'
p447
aS'Mulig'
p448
aS'Mulig'
p449
aS'Mulig'
p450
aS'Mulig'
p451
aS'Mulig'
p452
aS'Mulig'
p453
aS'Mulig'
p454
aS'Mulig'
p455
aS'Mulig'
p456
aS'Mulig'
p457
aS'Mulig'
p458
aS'Mulig'
p459
aS'Mulig'
p460
aS'Mulig'
p461
aS'Mulig'
p462
aS'Mulig'
p463
aS'Mulig'
p464
aS'Mulig'
p465
aS'Mulig'
p466
aS'Mulig'
p467
aS'Mulig'
p468
aS'Mulig'
p469
aS'Sannsynlig'
p470
aS'Sannsynlig'
p471
aS'Sannsynlig'
p472
aS'Sannsynlig'
p473
aS'Sannsynlig'
p474
aS'Sannsynlig'
p475
aS'Mulig'
p476
aS'Mulig'
p477
aS'Mulig'
p478
aS'Mulig'
p479
aS'Mulig'
p480
aS'Mulig'
p481
aS'Mulig'
p482
aS'Mulig'
p483
aS'Mulig'
p484
aS'Mulig'
p485
aS'Mulig'
p486
aS'Mulig'
p487
aS'Mulig'
p488
aS'Mulig'
p489
aS'Mulig'
p490
aS'Mulig'
p491
aS'Mulig'
p492
aS'Mulig'
p493
aS'Mulig'
p494
aS'Mulig'
p495
aS'Mulig'
p496
aS'Mulig'
p497
aS'Mulig'
p498
aS'Mulig'
p499
aS'Mulig'
p500
aS'Mulig'
p501
aS'Mulig'
p502
aS'Mulig'
p503
aS'Mulig'
p504
aS'Mulig'
p505
aS'Mulig'
p506
aS'Mulig'
p507
aS'Mulig'
p508
aS'Mulig'
p509
aS'Mulig'
p510
aS'Mulig'
p511
aS'Mulig'
p512
aS'Mulig'
p513
aS'Mulig'
p514
aS'Mulig'
p515
aS'Mulig'
p516
aS'Mulig'
p517
aS'Mulig'
p518
aS'Mulig'
p519
aS'Mulig'
p520
aS'Mulig'
p521
aS'Mulig'
p522
aS'Mulig'
p523
aS'Mulig'
p524
aS'Mulig'
p525
aS'Mulig'
p526
aS'Mulig'
p527
aS'Mulig'
p528
aS'Mulig'
p529
aS'Mulig'
p530
aS'Mulig'
p531
aS'Mulig'
p532
aS'Mulig'
p533
aS'Mulig'
p534
aS'Mulig'
p535
aS'Mulig'
p536
aS'Mulig'
p537
aS'Mulig'
p538
aS'Mulig'
p539
aS'Mulig'
p540
aS'Mulig'
p541
aS'Mulig'
p542
aS'Mulig'
p543
aS'Mulig'
p544
aS'Mulig'
p545
aS'Mulig'
p546
aS'Mulig'
p547
aS'Mulig'
p548
aS'Mulig'
p549
aS'Mulig'
p550
aS'Mulig'
p551
aS'Mulig'
p552
aS'Mulig'
p553
aS'Mulig'
p554
assS'level'
p555
(dp556
g3
(lp557
I1
aI2
aI3
aI4
aI5
asg8
(lp558
S'#ccff66'
p559
aS'#ffff00'
p560
aS'#ff9900'
p561
aS'#ff0000'
p562
aS'k'
p563
asg11
(lp564
I2
aI2
aI2
aI2
aI2
aI2
aI3
aI3
aI3
aI2
aI2
aI2
aI2
aI3
aI3
aI3
aI3
aI3
aI2
aI2
aI2
aI2
aI2
aI2
aI2
aI2
aI3
aI3
aI2
aI2
aI3
aI3
aI3
aI3
aI3
aI2
aI2
aI3
aI3
aI3
aI3
aI2
aI3
aI3
aI3
aI3
aI3
aI3
aI3
aI2
aI2
aI2
aI2
aI2
aI2
aI2
aI2
aI2
aI2
aI2
aI2
aI2
aI2
aI1
aI1
aI1
aI2
aI1
aI2
aI1
aI1
aI1
aI2
aI1
aI2
aI2
aI2
aI2
aI2
aI1
aI2
aI2
aI2
aI1
aI2
aI1
aI2
aI2
aI2
aI1
aI2
aI1
aI2
aI1
aI1
aI2
aI2
aI2
aI2
aI2
aI1
aI1
aI1
aI1
aI1
aI1
aI1
aI2
aI2
aI2
aI2
aI2
aI2
aI2
aI2
aI2
aI2
aI2
aI2
aI2
aI2
aI2
aI2
aI2
aI2
aI2
aI2
aI2
ass.