(lp0
(irunmatrix
M3Element
p1
(dp2
S'danger_level_average'
p3
NsS'probability'
p4
S'Lite sannsynlig, Mulig'
p5
sS'colour'
p6
S'white'
p7
sS'danger_level_list'
p8
(lp9
sS'label_probalility'
p10
S'Possible'
p11
sS'label_distribution'
p12
S'Isolated'
p13
sS'recomended_colour'
p14
S'#ccff66'
p15
sS'recomended_danger_level'
p16
I1
sS'label_trigger'
p17
S'High'
p18
sS'trigger'
p19
S'Stor tilleggsbelastning'
p20
sS'occurrences'
p21
NsS'y'
p22
S'100'
p23
sS'x'
p24
S'100'
p25
sS'distribution'
p26
S'Isolerte faresoner'
p27
sS'danger_level_standard_dev'
p28
NsS'label_size'
p29
S'1'
p30
sS'avalanche_size'
p31
S'1 - Harmloest'
p32
sba(irunmatrix
M3Element
p33
(dp34
g3
Nsg4
S'Lite sannsynlig, Mulig'
p35
sg6
S'white'
p36
sg8
(lp37
sg10
S'Possible'
p38
sg12
S'Isolated'
p39
sg14
g15
sg16
I1
sg17
S'Low'
p40
sg19
S'Liten tilleggsbelastning'
p41
sg21
Nsg22
S'100'
p42
sg24
S'200'
p43
sg26
S'Isolerte faresoner'
p44
sg28
Nsg29
g30
sg31
S'1 - Harmloest'
p45
sba(irunmatrix
M3Element
p46
(dp47
g3
Nsg4
S'Lite sannsynlig, Mulig'
p48
sg6
S'white'
p49
sg8
(lp50
sg10
S'Possible'
p51
sg12
S'Isolated'
p52
sg14
g15
sg16
I1
sg17
S'Nat'
p53
sg19
S'Naturlig utloest'
p54
sg21
Nsg22
S'100'
p55
sg24
S'300'
p56
sg26
S'Isolerte faresoner'
p57
sg28
Nsg29
g30
sg31
S'1 - Harmloest'
p58
sba(irunmatrix
M3Element
p59
(dp60
g3
Nsg4
S'Sannsynlig, Meget sannsynlig'
p61
sg6
S'gray'
p62
sg8
(lp63
sg10
S'Likely'
p64
sg12
S'Isolated'
p65
sg14
S'gray'
p66
sg16
I0
sg17
S'High'
p67
sg19
S'Stor tilleggsbelastning'
p68
sg21
Nsg22
S'100'
p69
sg24
S'400'
p70
sg26
S'Isolerte faresoner'
p71
sg28
Nsg29
g30
sg31
S'1 - Harmloest'
p72
sba(irunmatrix
M3Element
p73
(dp74
g3
Nsg4
S'Sannsynlig, Meget sannsynlig'
p75
sg6
S'gray'
p76
sg8
(lp77
sg10
S'Likely'
p78
sg12
S'Isolated'
p79
sg14
g66
sg16
I0
sg17
S'Low'
p80
sg19
S'Liten tilleggsbelastning'
p81
sg21
Nsg22
S'100'
p82
sg24
S'500'
p83
sg26
S'Isolerte faresoner'
p84
sg28
Nsg29
g30
sg31
S'1 - Harmloest'
p85
sba(irunmatrix
M3Element
p86
(dp87
g3
Nsg4
S'Sannsynlig, Meget sannsynlig'
p88
sg6
S'gray'
p89
sg8
(lp90
sg10
S'Likely'
p91
sg12
S'Isolated'
p92
sg14
g66
sg16
I0
sg17
S'Nat'
p93
sg19
S'Naturlig utloest'
p94
sg21
Nsg22
S'100'
p95
sg24
S'600'
p96
sg26
S'Isolerte faresoner'
p97
sg28
Nsg29
g30
sg31
S'1 - Harmloest'
p98
sba(irunmatrix
M3Element
p99
(dp100
g3
Nsg4
S'Lite sannsynlig, Mulig'
p101
sg6
S'white'
p102
sg8
(lp103
sg10
S'Possible'
p104
sg12
S'Some'
p105
sg14
g15
sg16
I1
sg17
S'High'
p106
sg19
S'Stor tilleggsbelastning'
p107
sg21
Nsg22
S'100'
p108
sg24
S'700'
p109
sg26
S'Noen bratte heng'
p110
sg28
Nsg29
g30
sg31
S'1 - Harmloest'
p111
sba(irunmatrix
M3Element
p112
(dp113
g3
F2.0
sg4
S'Lite sannsynlig, Mulig'
p114
sg6
S'#ffff00'
p115
sg8
(lp116
I2
asg10
S'Possible'
p117
sg12
S'Some'
p118
sg14
g15
sg16
I1
sg17
S'Low'
p119
sg19
S'Liten tilleggsbelastning'
p120
sg21
I1
sg22
S'100'
p121
sg24
S'800'
p122
sg26
S'Noen bratte heng'
p123
sg28
cnumpy.core.multiarray
scalar
p124
(cnumpy
dtype
p125
(S'f8'
p126
I0
I1
tp127
Rp128
(I3
S'<'
p129
NNNI-1
I-1
I0
tp130
bS'\x00\x00\x00\x00\x00\x00\x00\x00'
p131
tp132
Rp133
sg29
g30
sg31
S'1 - Harmloest'
p134
sba(irunmatrix
M3Element
p135
(dp136
g3
Nsg4
S'Lite sannsynlig, Mulig'
p137
sg6
S'white'
p138
sg8
(lp139
sg10
S'Possible'
p140
sg12
S'Some'
p141
sg14
g15
sg16
I1
sg17
S'Nat'
p142
sg19
S'Naturlig utloest'
p143
sg21
Nsg22
S'100'
p144
sg24
S'900'
p145
sg26
S'Noen bratte heng'
p146
sg28
Nsg29
g30
sg31
S'1 - Harmloest'
p147
sba(irunmatrix
M3Element
p148
(dp149
g3
Nsg4
S'Sannsynlig, Meget sannsynlig'
p150
sg6
S'gray'
p151
sg8
(lp152
sg10
S'Likely'
p153
sg12
S'Some'
p154
sg14
g66
sg16
I0
sg17
S'High'
p155
sg19
S'Stor tilleggsbelastning'
p156
sg21
Nsg22
S'100'
p157
sg24
S'1000'
p158
sg26
S'Noen bratte heng'
p159
sg28
Nsg29
g30
sg31
S'1 - Harmloest'
p160
sba(irunmatrix
M3Element
p161
(dp162
g3
Nsg4
S'Sannsynlig, Meget sannsynlig'
p163
sg6
S'gray'
p164
sg8
(lp165
sg10
S'Likely'
p166
sg12
S'Some'
p167
sg14
g66
sg16
I0
sg17
S'Low'
p168
sg19
S'Liten tilleggsbelastning'
p169
sg21
Nsg22
S'100'
p170
sg24
S'1100'
p171
sg26
S'Noen bratte heng'
p172
sg28
Nsg29
g30
sg31
S'1 - Harmloest'
p173
sba(irunmatrix
M3Element
p174
(dp175
g3
Nsg4
S'Sannsynlig, Meget sannsynlig'
p176
sg6
S'white'
p177
sg8
(lp178
sg10
S'Likely'
p179
sg12
S'Some'
p180
sg14
g15
sg16
I1
sg17
S'Nat'
p181
sg19
S'Naturlig utloest'
p182
sg21
Nsg22
S'100'
p183
sg24
S'1200'
p184
sg26
S'Noen bratte heng'
p185
sg28
Nsg29
g30
sg31
S'1 - Harmloest'
p186
sba(irunmatrix
M3Element
p187
(dp188
g3
Nsg4
S'Lite sannsynlig, Mulig'
p189
sg6
S'gray'
p190
sg8
(lp191
sg10
S'Possible'
p192
sg12
S'Many'
p193
sg14
g66
sg16
I0
sg17
S'High'
p194
sg19
S'Stor tilleggsbelastning'
p195
sg21
Nsg22
S'100'
p196
sg24
S'1300'
p197
sg26
S'Mange bratte heng'
p198
sg28
Nsg29
g30
sg31
S'1 - Harmloest'
p199
sba(irunmatrix
M3Element
p200
(dp201
g3
Nsg4
S'Lite sannsynlig, Mulig'
p202
sg6
S'white'
p203
sg8
(lp204
sg10
S'Possible'
p205
sg12
S'Many'
p206
sg14
g15
sg16
I1
sg17
S'Low'
p207
sg19
S'Liten tilleggsbelastning'
p208
sg21
Nsg22
S'100'
p209
sg24
S'1400'
p210
sg26
S'Mange bratte heng'
p211
sg28
Nsg29
g30
sg31
S'1 - Harmloest'
p212
sba(irunmatrix
M3Element
p213
(dp214
g3
Nsg4
S'Lite sannsynlig, Mulig'
p215
sg6
S'gray'
p216
sg8
(lp217
sg10
S'Possible'
p218
sg12
S'Many'
p219
sg14
g66
sg16
I0
sg17
S'Nat'
p220
sg19
S'Naturlig utloest'
p221
sg21
Nsg22
S'100'
p222
sg24
S'1500'
p223
sg26
S'Mange bratte heng'
p224
sg28
Nsg29
g30
sg31
S'1 - Harmloest'
p225
sba(irunmatrix
M3Element
p226
(dp227
g3
Nsg4
S'Sannsynlig, Meget sannsynlig'
p228
sg6
S'gray'
p229
sg8
(lp230
sg10
S'Likely'
p231
sg12
S'Many'
p232
sg14
g66
sg16
I0
sg17
S'High'
p233
sg19
S'Stor tilleggsbelastning'
p234
sg21
Nsg22
S'100'
p235
sg24
S'1600'
p236
sg26
S'Mange bratte heng'
p237
sg28
Nsg29
g30
sg31
S'1 - Harmloest'
p238
sba(irunmatrix
M3Element
p239
(dp240
g3
Nsg4
S'Sannsynlig, Meget sannsynlig'
p241
sg6
S'white'
p242
sg8
(lp243
sg10
S'Likely'
p244
sg12
S'Many'
p245
sg14
S'#ffff00'
p246
sg16
I2
sg17
S'Low'
p247
sg19
S'Liten tilleggsbelastning'
p248
sg21
Nsg22
S'100'
p249
sg24
S'1700'
p250
sg26
S'Mange bratte heng'
p251
sg28
Nsg29
g30
sg31
S'1 - Harmloest'
p252
sba(irunmatrix
M3Element
p253
(dp254
g3
Nsg4
S'Sannsynlig, Meget sannsynlig'
p255
sg6
S'white'
p256
sg8
(lp257
sg10
S'Likely'
p258
sg12
S'Many'
p259
sg14
g246
sg16
I2
sg17
S'Nat'
p260
sg19
S'Naturlig utloest'
p261
sg21
Nsg22
S'100'
p262
sg24
S'1800'
p263
sg26
S'Mange bratte heng'
p264
sg28
Nsg29
g30
sg31
S'1 - Harmloest'
p265
sba(irunmatrix
M3Element
p266
(dp267
g3
Nsg4
S'Lite sannsynlig, Mulig'
p268
sg6
S'gray'
p269
sg8
(lp270
sg10
S'Possible'
p271
sg12
S'Most'
p272
sg14
g66
sg16
I0
sg17
S'High'
p273
sg19
S'Stor tilleggsbelastning'
p274
sg21
Nsg22
S'100'
p275
sg24
S'1900'
p276
sg26
S'De fleste bratte heng, Ogsaa i mindre bratt terreng'
p277
sg28
Nsg29
g30
sg31
S'1 - Harmloest'
p278
sba(irunmatrix
M3Element
p279
(dp280
g3
Nsg4
S'Lite sannsynlig, Mulig'
p281
sg6
S'gray'
p282
sg8
(lp283
sg10
S'Possible'
p284
sg12
S'Most'
p285
sg14
g66
sg16
I0
sg17
S'Low'
p286
sg19
S'Liten tilleggsbelastning'
p287
sg21
Nsg22
S'100'
p288
sg24
S'2000'
p289
sg26
S'De fleste bratte heng, Ogsaa i mindre bratt terreng'
p290
sg28
Nsg29
g30
sg31
S'1 - Harmloest'
p291
sba(irunmatrix
M3Element
p292
(dp293
g3
Nsg4
S'Lite sannsynlig, Mulig'
p294
sg6
S'gray'
p295
sg8
(lp296
sg10
S'Possible'
p297
sg12
S'Most'
p298
sg14
g66
sg16
I0
sg17
S'Nat'
p299
sg19
S'Naturlig utloest'
p300
sg21
Nsg22
S'100'
p301
sg24
S'2100'
p302
sg26
S'De fleste bratte heng, Ogsaa i mindre bratt terreng'
p303
sg28
Nsg29
g30
sg31
S'1 - Harmloest'
p304
sba(irunmatrix
M3Element
p305
(dp306
g3
Nsg4
S'Sannsynlig, Meget sannsynlig'
p307
sg6
S'gray'
p308
sg8
(lp309
sg10
S'Likely'
p310
sg12
S'Most'
p311
sg14
g66
sg16
I0
sg17
S'High'
p312
sg19
S'Stor tilleggsbelastning'
p313
sg21
Nsg22
S'100'
p314
sg24
S'2200'
p315
sg26
S'De fleste bratte heng, Ogsaa i mindre bratt terreng'
p316
sg28
Nsg29
g30
sg31
S'1 - Harmloest'
p317
sba(irunmatrix
M3Element
p318
(dp319
g3
Nsg4
S'Sannsynlig, Meget sannsynlig'
p320
sg6
S'gray'
p321
sg8
(lp322
sg10
S'Likely'
p323
sg12
S'Most'
p324
sg14
g66
sg16
I0
sg17
S'Low'
p325
sg19
S'Liten tilleggsbelastning'
p326
sg21
Nsg22
S'100'
p327
sg24
S'2300'
p328
sg26
S'De fleste bratte heng, Ogsaa i mindre bratt terreng'
p329
sg28
Nsg29
g30
sg31
S'1 - Harmloest'
p330
sba(irunmatrix
M3Element
p331
(dp332
g3
Nsg4
S'Sannsynlig, Meget sannsynlig'
p333
sg6
S'white'
p334
sg8
(lp335
sg10
S'Likely'
p336
sg12
S'Most'
p337
sg14
g66
sg16
I0
sg17
S'Nat'
p338
sg19
S'Naturlig utloest'
p339
sg21
Nsg22
S'100'
p340
sg24
S'2400'
p341
sg26
S'De fleste bratte heng, Ogsaa i mindre bratt terreng'
p342
sg28
Nsg29
S'2'
p343
sg31
S'1 - Harmloest'
p344
sba(irunmatrix
M3Element
p345
(dp346
g3
Nsg4
S'Lite sannsynlig, Mulig'
p347
sg6
S'white'
p348
sg8
(lp349
sg10
S'Possible'
p350
sg12
S'Isolated'
p351
sg14
g15
sg16
I1
sg17
S'High'
p352
sg19
S'Stor tilleggsbelastning'
p353
sg21
Nsg22
S'200'
p354
sg24
S'100'
p355
sg26
S'Isolerte faresoner'
p356
sg28
Nsg29
g343
sg31
S'2 - Smaa'
p357
sba(irunmatrix
M3Element
p358
(dp359
g3
F2.0
sg4
S'Lite sannsynlig, Mulig'
p360
sg6
g115
sg8
(lp361
I2
aI2
aI2
asg10
S'Possible'
p362
sg12
S'Isolated'
p363
sg14
g15
sg16
I1
sg17
S'Low'
p364
sg19
S'Liten tilleggsbelastning'
p365
sg21
I3
sg22
S'200'
p366
sg24
S'200'
p367
sg26
S'Isolerte faresoner'
p368
sg28
g124
(g128
S'\x00\x00\x00\x00\x00\x00\x00\x00'
p369
tp370
Rp371
sg29
g343
sg31
S'2 - Smaa'
p372
sba(irunmatrix
M3Element
p373
(dp374
g3
Nsg4
S'Lite sannsynlig, Mulig'
p375
sg6
S'white'
p376
sg8
(lp377
sg10
S'Possible'
p378
sg12
S'Isolated'
p379
sg14
g15
sg16
I1
sg17
S'Nat'
p380
sg19
S'Naturlig utloest'
p381
sg21
Nsg22
S'200'
p382
sg24
S'300'
p383
sg26
S'Isolerte faresoner'
p384
sg28
Nsg29
g343
sg31
S'2 - Smaa'
p385
sba(irunmatrix
M3Element
p386
(dp387
g3
Nsg4
S'Sannsynlig, Meget sannsynlig'
p388
sg6
S'gray'
p389
sg8
(lp390
sg10
S'Likely'
p391
sg12
S'Isolated'
p392
sg14
g66
sg16
I0
sg17
S'High'
p393
sg19
S'Stor tilleggsbelastning'
p394
sg21
Nsg22
S'200'
p395
sg24
S'400'
p396
sg26
S'Isolerte faresoner'
p397
sg28
Nsg29
g343
sg31
S'2 - Smaa'
p398
sba(irunmatrix
M3Element
p399
(dp400
g3
Nsg4
S'Sannsynlig, Meget sannsynlig'
p401
sg6
S'gray'
p402
sg8
(lp403
sg10
S'Likely'
p404
sg12
S'Isolated'
p405
sg14
g66
sg16
I0
sg17
S'Low'
p406
sg19
S'Liten tilleggsbelastning'
p407
sg21
Nsg22
S'200'
p408
sg24
S'500'
p409
sg26
S'Isolerte faresoner'
p410
sg28
Nsg29
g343
sg31
S'2 - Smaa'
p411
sba(irunmatrix
M3Element
p412
(dp413
g3
Nsg4
S'Sannsynlig, Meget sannsynlig'
p414
sg6
S'gray'
p415
sg8
(lp416
sg10
S'Likely'
p417
sg12
S'Isolated'
p418
sg14
g66
sg16
I0
sg17
S'Nat'
p419
sg19
S'Naturlig utloest'
p420
sg21
Nsg22
S'200'
p421
sg24
S'600'
p422
sg26
S'Isolerte faresoner'
p423
sg28
Nsg29
g343
sg31
S'2 - Smaa'
p424
sba(irunmatrix
M3Element
p425
(dp426
g3
F2.037037037037037
sg4
S'Lite sannsynlig, Mulig'
p427
sg6
g115
sg8
(lp428
I2
aI2
aI2
aI2
aI2
aI2
aI2
aI2
aI2
aI2
aI2
aI3
aI2
aI2
aI2
aI2
aI2
aI2
aI2
aI2
aI2
aI2
aI2
aI2
aI2
aI2
aI2
asg10
S'Possible'
p429
sg12
S'Some'
p430
sg14
g246
sg16
I2
sg17
S'High'
p431
sg19
S'Stor tilleggsbelastning'
p432
sg21
I27
sg22
S'200'
p433
sg24
S'700'
p434
sg26
S'Noen bratte heng'
p435
sg28
g124
(g128
S'\x1a\xb4\xc97R,\xc8?'
p436
tp437
Rp438
sg29
g343
sg31
S'2 - Smaa'
p439
sba(irunmatrix
M3Element
p440
(dp441
g3
F2.1020408163265305
sg4
S'Lite sannsynlig, Mulig'
p442
sg6
g115
sg8
(lp443
I2
aI2
aI2
aI2
aI3
aI2
aI3
aI3
aI3
aI2
aI2
aI2
aI2
aI2
aI2
aI2
aI2
aI2
aI3
aI2
aI2
aI2
aI2
aI2
aI2
aI2
aI2
aI2
aI2
aI2
aI2
aI2
aI2
aI2
aI2
aI2
aI2
aI2
aI2
aI2
aI2
aI2
aI2
aI2
aI2
aI2
aI2
aI2
aI2
asg10
S'Possible'
p444
sg12
S'Some'
p445
sg14
g246
sg16
I2
sg17
S'Low'
p446
sg19
S'Liten tilleggsbelastning'
p447
sg21
I49
sg22
S'200'
p448
sg24
S'800'
p449
sg26
S'Noen bratte heng'
p450
sg28
g124
(g128
S'\xae:!\x1fx_\xd3?'
p451
tp452
Rp453
sg29
g343
sg31
S'2 - Smaa'
p454
sba(irunmatrix
M3Element
p455
(dp456
g3
Nsg4
S'Lite sannsynlig, Mulig'
p457
sg6
S'white'
p458
sg8
(lp459
sg10
S'Possible'
p460
sg12
S'Some'
p461
sg14
g246
sg16
I2
sg17
S'Nat'
p462
sg19
S'Naturlig utloest'
p463
sg21
Nsg22
S'200'
p464
sg24
S'900'
p465
sg26
S'Noen bratte heng'
p466
sg28
Nsg29
g343
sg31
S'2 - Smaa'
p467
sba(irunmatrix
M3Element
p468
(dp469
g3
Nsg4
S'Sannsynlig, Meget sannsynlig'
p470
sg6
S'gray'
p471
sg8
(lp472
sg10
S'Likely'
p473
sg12
S'Some'
p474
sg14
g66
sg16
I0
sg17
S'High'
p475
sg19
S'Stor tilleggsbelastning'
p476
sg21
Nsg22
S'200'
p477
sg24
S'1000'
p478
sg26
S'Noen bratte heng'
p479
sg28
Nsg29
g343
sg31
S'2 - Smaa'
p480
sba(irunmatrix
M3Element
p481
(dp482
g3
Nsg4
S'Sannsynlig, Meget sannsynlig'
p483
sg6
S'gray'
p484
sg8
(lp485
sg10
S'Likely'
p486
sg12
S'Some'
p487
sg14
g66
sg16
I0
sg17
S'Low'
p488
sg19
S'Liten tilleggsbelastning'
p489
sg21
Nsg22
S'200'
p490
sg24
S'1100'
p491
sg26
S'Noen bratte heng'
p492
sg28
Nsg29
g343
sg31
S'2 - Smaa'
p493
sba(irunmatrix
M3Element
p494
(dp495
g3
F3.0
sg4
S'Sannsynlig, Meget sannsynlig'
p496
sg6
S'#ff9900'
p497
sg8
(lp498
I3
aI3
aI3
aI3
aI3
aI3
aI3
aI3
aI3
asg10
S'Likely'
p499
sg12
S'Some'
p500
sg14
S'#ff9900'
p501
sg16
I3
sg17
S'Nat'
p502
sg19
S'Naturlig utloest'
p503
sg21
I9
sg22
S'200'
p504
sg24
S'1200'
p505
sg26
S'Noen bratte heng'
p506
sg28
g124
(g128
S'\x00\x00\x00\x00\x00\x00\x00\x00'
p507
tp508
Rp509
sg29
g343
sg31
S'2 - Smaa'
p510
sba(irunmatrix
M3Element
p511
(dp512
g3
Nsg4
S'Lite sannsynlig, Mulig'
p513
sg6
S'gray'
p514
sg8
(lp515
sg10
S'Possible'
p516
sg12
S'Many'
p517
sg14
g66
sg16
I0
sg17
S'High'
p518
sg19
S'Stor tilleggsbelastning'
p519
sg21
Nsg22
S'200'
p520
sg24
S'1300'
p521
sg26
S'Mange bratte heng'
p522
sg28
Nsg29
g343
sg31
S'2 - Smaa'
p523
sba(irunmatrix
M3Element
p524
(dp525
g3
F3.0
sg4
S'Lite sannsynlig, Mulig'
p526
sg6
g497
sg8
(lp527
I3
aI3
aI3
aI3
aI3
aI3
asg10
S'Possible'
p528
sg12
S'Many'
p529
sg14
g501
sg16
I3
sg17
S'Low'
p530
sg19
S'Liten tilleggsbelastning'
p531
sg21
I6
sg22
S'200'
p532
sg24
S'1400'
p533
sg26
S'Mange bratte heng'
p534
sg28
g124
(g128
S'\x00\x00\x00\x00\x00\x00\x00\x00'
p535
tp536
Rp537
sg29
g343
sg31
S'2 - Smaa'
p538
sba(irunmatrix
M3Element
p539
(dp540
g3
Nsg4
S'Lite sannsynlig, Mulig'
p541
sg6
S'gray'
p542
sg8
(lp543
sg10
S'Possible'
p544
sg12
S'Many'
p545
sg14
g66
sg16
I0
sg17
S'Nat'
p546
sg19
S'Naturlig utloest'
p547
sg21
Nsg22
S'200'
p548
sg24
S'1500'
p549
sg26
S'Mange bratte heng'
p550
sg28
Nsg29
g343
sg31
S'2 - Smaa'
p551
sba(irunmatrix
M3Element
p552
(dp553
g3
Nsg4
S'Sannsynlig, Meget sannsynlig'
p554
sg6
S'gray'
p555
sg8
(lp556
sg10
S'Likely'
p557
sg12
S'Many'
p558
sg14
g66
sg16
I0
sg17
S'High'
p559
sg19
S'Stor tilleggsbelastning'
p560
sg21
Nsg22
S'200'
p561
sg24
S'1600'
p562
sg26
S'Mange bratte heng'
p563
sg28
Nsg29
g343
sg31
S'2 - Smaa'
p564
sba(irunmatrix
M3Element
p565
(dp566
g3
Nsg4
S'Sannsynlig, Meget sannsynlig'
p567
sg6
S'white'
p568
sg8
(lp569
sg10
S'Likely'
p570
sg12
S'Many'
p571
sg14
S'#ff0000'
p572
sg16
I4
sg17
S'Low'
p573
sg19
S'Liten tilleggsbelastning'
p574
sg21
Nsg22
S'200'
p575
sg24
S'1700'
p576
sg26
S'Mange bratte heng'
p577
sg28
Nsg29
g343
sg31
S'2 - Smaa'
p578
sba(irunmatrix
M3Element
p579
(dp580
g3
F3.0
sg4
S'Sannsynlig, Meget sannsynlig'
p581
sg6
g497
sg8
(lp582
I3
aI3
aI3
aI3
aI3
aI3
asg10
S'Likely'
p583
sg12
S'Many'
p584
sg14
g572
sg16
I4
sg17
S'Nat'
p585
sg19
S'Naturlig utloest'
p586
sg21
I6
sg22
S'200'
p587
sg24
S'1800'
p588
sg26
S'Mange bratte heng'
p589
sg28
g124
(g128
S'\x00\x00\x00\x00\x00\x00\x00\x00'
p590
tp591
Rp592
sg29
g343
sg31
S'2 - Smaa'
p593
sba(irunmatrix
M3Element
p594
(dp595
g3
Nsg4
S'Lite sannsynlig, Mulig'
p596
sg6
S'gray'
p597
sg8
(lp598
sg10
S'Possible'
p599
sg12
S'Most'
p600
sg14
g66
sg16
I0
sg17
S'High'
p601
sg19
S'Stor tilleggsbelastning'
p602
sg21
Nsg22
S'200'
p603
sg24
S'1900'
p604
sg26
S'De fleste bratte heng, Ogsaa i mindre bratt terreng'
p605
sg28
Nsg29
g343
sg31
S'2 - Smaa'
p606
sba(irunmatrix
M3Element
p607
(dp608
g3
Nsg4
S'Lite sannsynlig, Mulig'
p609
sg6
S'gray'
p610
sg8
(lp611
sg10
S'Possible'
p612
sg12
S'Most'
p613
sg14
g66
sg16
I0
sg17
S'Low'
p614
sg19
S'Liten tilleggsbelastning'
p615
sg21
Nsg22
S'200'
p616
sg24
S'2000'
p617
sg26
S'De fleste bratte heng, Ogsaa i mindre bratt terreng'
p618
sg28
Nsg29
g343
sg31
S'2 - Smaa'
p619
sba(irunmatrix
M3Element
p620
(dp621
g3
Nsg4
S'Lite sannsynlig, Mulig'
p622
sg6
S'gray'
p623
sg8
(lp624
sg10
S'Possible'
p625
sg12
S'Most'
p626
sg14
g66
sg16
I0
sg17
S'Nat'
p627
sg19
S'Naturlig utloest'
p628
sg21
Nsg22
S'200'
p629
sg24
S'2100'
p630
sg26
S'De fleste bratte heng, Ogsaa i mindre bratt terreng'
p631
sg28
Nsg29
g343
sg31
S'2 - Smaa'
p632
sba(irunmatrix
M3Element
p633
(dp634
g3
Nsg4
S'Sannsynlig, Meget sannsynlig'
p635
sg6
S'gray'
p636
sg8
(lp637
sg10
S'Likely'
p638
sg12
S'Most'
p639
sg14
g66
sg16
I0
sg17
S'High'
p640
sg19
S'Stor tilleggsbelastning'
p641
sg21
Nsg22
S'200'
p642
sg24
S'2200'
p643
sg26
S'De fleste bratte heng, Ogsaa i mindre bratt terreng'
p644
sg28
Nsg29
g343
sg31
S'2 - Smaa'
p645
sba(irunmatrix
M3Element
p646
(dp647
g3
Nsg4
S'Sannsynlig, Meget sannsynlig'
p648
sg6
S'gray'
p649
sg8
(lp650
sg10
S'Likely'
p651
sg12
S'Most'
p652
sg14
g66
sg16
I0
sg17
S'Low'
p653
sg19
S'Liten tilleggsbelastning'
p654
sg21
Nsg22
S'200'
p655
sg24
S'2300'
p656
sg26
S'De fleste bratte heng, Ogsaa i mindre bratt terreng'
p657
sg28
Nsg29
g343
sg31
S'2 - Smaa'
p658
sba(irunmatrix
M3Element
p659
(dp660
g3
Nsg4
S'Sannsynlig, Meget sannsynlig'
p661
sg6
S'white'
p662
sg8
(lp663
sg10
S'Likely'
p664
sg12
S'Most'
p665
sg14
g66
sg16
I0
sg17
S'Nat'
p666
sg19
S'Naturlig utloest'
p667
sg21
Nsg22
S'200'
p668
sg24
S'2400'
p669
sg26
S'De fleste bratte heng, Ogsaa i mindre bratt terreng'
p670
sg28
Nsg29
g343
sg31
S'2 - Smaa'
p671
sba(irunmatrix
M3Element
p672
(dp673
g3
Nsg4
S'Lite sannsynlig, Mulig'
p674
sg6
S'white'
p675
sg8
(lp676
sg10
S'Possible'
p677
sg12
S'Isolated'
p678
sg14
g15
sg16
I1
sg17
S'High'
p679
sg19
S'Stor tilleggsbelastning'
p680
sg21
Nsg22
S'300'
p681
sg24
S'100'
p682
sg26
S'Isolerte faresoner'
p683
sg28
Nsg29
S'3'
p684
sg31
S'3 - Middels'
p685
sba(irunmatrix
M3Element
p686
(dp687
g3
Nsg4
S'Lite sannsynlig, Mulig'
p688
sg6
S'white'
p689
sg8
(lp690
sg10
S'Possible'
p691
sg12
S'Isolated'
p692
sg14
g246
sg16
I2
sg17
S'Low'
p693
sg19
S'Liten tilleggsbelastning'
p694
sg21
Nsg22
S'300'
p695
sg24
S'200'
p696
sg26
S'Isolerte faresoner'
p697
sg28
Nsg29
g684
sg31
S'3 - Middels'
p698
sba(irunmatrix
M3Element
p699
(dp700
g3
Nsg4
S'Lite sannsynlig, Mulig'
p701
sg6
S'white'
p702
sg8
(lp703
sg10
S'Possible'
p704
sg12
S'Isolated'
p705
sg14
g246
sg16
I2
sg17
S'Nat'
p706
sg19
S'Naturlig utloest'
p707
sg21
Nsg22
S'300'
p708
sg24
S'300'
p709
sg26
S'Isolerte faresoner'
p710
sg28
Nsg29
g684
sg31
S'3 - Middels'
p711
sba(irunmatrix
M3Element
p712
(dp713
g3
Nsg4
S'Sannsynlig, Meget sannsynlig'
p714
sg6
S'gray'
p715
sg8
(lp716
sg10
S'Likely'
p717
sg12
S'Isolated'
p718
sg14
g66
sg16
I0
sg17
S'High'
p719
sg19
S'Stor tilleggsbelastning'
p720
sg21
Nsg22
S'300'
p721
sg24
S'400'
p722
sg26
S'Isolerte faresoner'
p723
sg28
Nsg29
g684
sg31
S'3 - Middels'
p724
sba(irunmatrix
M3Element
p725
(dp726
g3
Nsg4
S'Sannsynlig, Meget sannsynlig'
p727
sg6
S'gray'
p728
sg8
(lp729
sg10
S'Likely'
p730
sg12
S'Isolated'
p731
sg14
g66
sg16
I0
sg17
S'Low'
p732
sg19
S'Liten tilleggsbelastning'
p733
sg21
Nsg22
S'300'
p734
sg24
S'500'
p735
sg26
S'Isolerte faresoner'
p736
sg28
Nsg29
g684
sg31
S'3 - Middels'
p737
sba(irunmatrix
M3Element
p738
(dp739
g3
Nsg4
S'Sannsynlig, Meget sannsynlig'
p740
sg6
S'gray'
p741
sg8
(lp742
sg10
S'Likely'
p743
sg12
S'Isolated'
p744
sg14
g66
sg16
I0
sg17
S'Nat'
p745
sg19
S'Naturlig utloest'
p746
sg21
Nsg22
S'300'
p747
sg24
S'600'
p748
sg26
S'Isolerte faresoner'
p749
sg28
Nsg29
g684
sg31
S'3 - Middels'
p750
sba(irunmatrix
M3Element
p751
(dp752
g3
F2.0
sg4
S'Lite sannsynlig, Mulig'
p753
sg6
g115
sg8
(lp754
I2
asg10
S'Possible'
p755
sg12
S'Some'
p756
sg14
g246
sg16
I2
sg17
S'High'
p757
sg19
S'Stor tilleggsbelastning'
p758
sg21
I1
sg22
S'300'
p759
sg24
S'700'
p760
sg26
S'Noen bratte heng'
p761
sg28
g124
(g128
S'\x00\x00\x00\x00\x00\x00\x00\x00'
p762
tp763
Rp764
sg29
g684
sg31
S'3 - Middels'
p765
sba(irunmatrix
M3Element
p766
(dp767
g3
Nsg4
S'Lite sannsynlig, Mulig'
p768
sg6
S'white'
p769
sg8
(lp770
sg10
S'Possible'
p771
sg12
S'Some'
p772
sg14
g501
sg16
I3
sg17
S'Low'
p773
sg19
S'Liten tilleggsbelastning'
p774
sg21
Nsg22
S'300'
p775
sg24
S'800'
p776
sg26
S'Noen bratte heng'
p777
sg28
Nsg29
g684
sg31
S'3 - Middels'
p778
sba(irunmatrix
M3Element
p779
(dp780
g3
Nsg4
S'Lite sannsynlig, Mulig'
p781
sg6
S'white'
p782
sg8
(lp783
sg10
S'Possible'
p784
sg12
S'Some'
p785
sg14
g501
sg16
I3
sg17
S'Nat'
p786
sg19
S'Naturlig utloest'
p787
sg21
Nsg22
S'300'
p788
sg24
S'900'
p789
sg26
S'Noen bratte heng'
p790
sg28
Nsg29
g684
sg31
S'3 - Middels'
p791
sba(irunmatrix
M3Element
p792
(dp793
g3
Nsg4
S'Sannsynlig, Meget sannsynlig'
p794
sg6
S'gray'
p795
sg8
(lp796
sg10
S'Likely'
p797
sg12
S'Some'
p798
sg14
g66
sg16
I0
sg17
S'High'
p799
sg19
S'Stor tilleggsbelastning'
p800
sg21
Nsg22
S'300'
p801
sg24
S'1000'
p802
sg26
S'Noen bratte heng'
p803
sg28
Nsg29
g684
sg31
S'3 - Middels'
p804
sba(irunmatrix
M3Element
p805
(dp806
g3
Nsg4
S'Sannsynlig, Meget sannsynlig'
p807
sg6
S'gray'
p808
sg8
(lp809
sg10
S'Likely'
p810
sg12
S'Some'
p811
sg14
g66
sg16
I0
sg17
S'Low'
p812
sg19
S'Liten tilleggsbelastning'
p813
sg21
Nsg22
S'300'
p814
sg24
S'1100'
p815
sg26
S'Noen bratte heng'
p816
sg28
Nsg29
g684
sg31
S'3 - Middels'
p817
sba(irunmatrix
M3Element
p818
(dp819
g3
F4.0
sg4
S'Sannsynlig, Meget sannsynlig'
p820
sg6
S'#ff0000'
p821
sg8
(lp822
I4
asg10
S'Likely'
p823
sg12
S'Some'
p824
sg14
g572
sg16
I4
sg17
S'Nat'
p825
sg19
S'Naturlig utloest'
p826
sg21
I1
sg22
S'300'
p827
sg24
S'1200'
p828
sg26
S'Noen bratte heng'
p829
sg28
g124
(g128
S'\x00\x00\x00\x00\x00\x00\x00\x00'
p830
tp831
Rp832
sg29
g684
sg31
S'3 - Middels'
p833
sba(irunmatrix
M3Element
p834
(dp835
g3
Nsg4
S'Lite sannsynlig, Mulig'
p836
sg6
S'gray'
p837
sg8
(lp838
sg10
S'Possible'
p839
sg12
S'Many'
p840
sg14
g66
sg16
I0
sg17
S'High'
p841
sg19
S'Stor tilleggsbelastning'
p842
sg21
Nsg22
S'300'
p843
sg24
S'1300'
p844
sg26
S'Mange bratte heng'
p845
sg28
Nsg29
g684
sg31
S'3 - Middels'
p846
sba(irunmatrix
M3Element
p847
(dp848
g3
F3.0
sg4
S'Lite sannsynlig, Mulig'
p849
sg6
g497
sg8
(lp850
I3
asg10
S'Possible'
p851
sg12
S'Many'
p852
sg14
g572
sg16
I4
sg17
S'Low'
p853
sg19
S'Liten tilleggsbelastning'
p854
sg21
I1
sg22
S'300'
p855
sg24
S'1400'
p856
sg26
S'Mange bratte heng'
p857
sg28
g124
(g128
S'\x00\x00\x00\x00\x00\x00\x00\x00'
p858
tp859
Rp860
sg29
g684
sg31
S'3 - Middels'
p861
sba(irunmatrix
M3Element
p862
(dp863
g3
Nsg4
S'Lite sannsynlig, Mulig'
p864
sg6
S'gray'
p865
sg8
(lp866
sg10
S'Possible'
p867
sg12
S'Many'
p868
sg14
g66
sg16
I0
sg17
S'Nat'
p869
sg19
S'Naturlig utloest'
p870
sg21
Nsg22
S'300'
p871
sg24
S'1500'
p872
sg26
S'Mange bratte heng'
p873
sg28
Nsg29
g684
sg31
S'3 - Middels'
p874
sba(irunmatrix
M3Element
p875
(dp876
g3
Nsg4
S'Sannsynlig, Meget sannsynlig'
p877
sg6
S'gray'
p878
sg8
(lp879
sg10
S'Likely'
p880
sg12
S'Many'
p881
sg14
g66
sg16
I0
sg17
S'High'
p882
sg19
S'Stor tilleggsbelastning'
p883
sg21
Nsg22
S'300'
p884
sg24
S'1600'
p885
sg26
S'Mange bratte heng'
p886
sg28
Nsg29
g684
sg31
S'3 - Middels'
p887
sba(irunmatrix
M3Element
p888
(dp889
g3
Nsg4
S'Sannsynlig, Meget sannsynlig'
p890
sg6
S'white'
p891
sg8
(lp892
sg10
S'Likely'
p893
sg12
S'Many'
p894
sg14
g572
sg16
I4
sg17
S'Low'
p895
sg19
S'Liten tilleggsbelastning'
p896
sg21
Nsg22
S'300'
p897
sg24
S'1700'
p898
sg26
S'Mange bratte heng'
p899
sg28
Nsg29
g684
sg31
S'3 - Middels'
p900
sba(irunmatrix
M3Element
p901
(dp902
g3
Nsg4
S'Sannsynlig, Meget sannsynlig'
p903
sg6
S'white'
p904
sg8
(lp905
sg10
S'Likely'
p906
sg12
S'Many'
p907
sg14
g572
sg16
I4
sg17
S'Nat'
p908
sg19
S'Naturlig utloest'
p909
sg21
Nsg22
S'300'
p910
sg24
S'1800'
p911
sg26
S'Mange bratte heng'
p912
sg28
Nsg29
g684
sg31
S'3 - Middels'
p913
sba(irunmatrix
M3Element
p914
(dp915
g3
Nsg4
S'Lite sannsynlig, Mulig'
p916
sg6
S'gray'
p917
sg8
(lp918
sg10
S'Possible'
p919
sg12
S'Most'
p920
sg14
g66
sg16
I0
sg17
S'High'
p921
sg19
S'Stor tilleggsbelastning'
p922
sg21
Nsg22
S'300'
p923
sg24
S'1900'
p924
sg26
S'De fleste bratte heng, Ogsaa i mindre bratt terreng'
p925
sg28
Nsg29
g684
sg31
S'3 - Middels'
p926
sba(irunmatrix
M3Element
p927
(dp928
g3
Nsg4
S'Lite sannsynlig, Mulig'
p929
sg6
S'gray'
p930
sg8
(lp931
sg10
S'Possible'
p932
sg12
S'Most'
p933
sg14
g66
sg16
I0
sg17
S'Low'
p934
sg19
S'Liten tilleggsbelastning'
p935
sg21
Nsg22
S'300'
p936
sg24
S'2000'
p937
sg26
S'De fleste bratte heng, Ogsaa i mindre bratt terreng'
p938
sg28
Nsg29
g684
sg31
S'3 - Middels'
p939
sba(irunmatrix
M3Element
p940
(dp941
g3
Nsg4
S'Lite sannsynlig, Mulig'
p942
sg6
S'gray'
p943
sg8
(lp944
sg10
S'Possible'
p945
sg12
S'Most'
p946
sg14
g66
sg16
I0
sg17
S'Nat'
p947
sg19
S'Naturlig utloest'
p948
sg21
Nsg22
S'300'
p949
sg24
S'2100'
p950
sg26
S'De fleste bratte heng, Ogsaa i mindre bratt terreng'
p951
sg28
Nsg29
g684
sg31
S'3 - Middels'
p952
sba(irunmatrix
M3Element
p953
(dp954
g3
Nsg4
S'Sannsynlig, Meget sannsynlig'
p955
sg6
S'gray'
p956
sg8
(lp957
sg10
S'Likely'
p958
sg12
S'Most'
p959
sg14
g66
sg16
I0
sg17
S'High'
p960
sg19
S'Stor tilleggsbelastning'
p961
sg21
Nsg22
S'300'
p962
sg24
S'2200'
p963
sg26
S'De fleste bratte heng, Ogsaa i mindre bratt terreng'
p964
sg28
Nsg29
g684
sg31
S'3 - Middels'
p965
sba(irunmatrix
M3Element
p966
(dp967
g3
Nsg4
S'Sannsynlig, Meget sannsynlig'
p968
sg6
S'gray'
p969
sg8
(lp970
sg10
S'Likely'
p971
sg12
S'Most'
p972
sg14
g66
sg16
I0
sg17
S'Low'
p973
sg19
S'Liten tilleggsbelastning'
p974
sg21
Nsg22
S'300'
p975
sg24
S'2300'
p976
sg26
S'De fleste bratte heng, Ogsaa i mindre bratt terreng'
p977
sg28
Nsg29
g684
sg31
S'3 - Middels'
p978
sba(irunmatrix
M3Element
p979
(dp980
g3
Nsg4
S'Sannsynlig, Meget sannsynlig'
p981
sg6
S'white'
p982
sg8
(lp983
sg10
S'Likely'
p984
sg12
S'Most'
p985
sg14
g66
sg16
I0
sg17
S'Nat'
p986
sg19
S'Naturlig utloest'
p987
sg21
Nsg22
S'300'
p988
sg24
S'2400'
p989
sg26
S'De fleste bratte heng, Ogsaa i mindre bratt terreng'
p990
sg28
Nsg29
g684
sg31
S'3 - Middels'
p991
sba(irunmatrix
M3Element
p992
(dp993
g3
Nsg4
S'Lite sannsynlig, Mulig'
p994
sg6
S'white'
p995
sg8
(lp996
sg10
S'Possible'
p997
sg12
S'Isolated'
p998
sg14
g246
sg16
I2
sg17
S'High'
p999
sg19
S'Stor tilleggsbelastning'
p1000
sg21
Nsg22
S'400'
p1001
sg24
S'100'
p1002
sg26
S'Isolerte faresoner'
p1003
sg28
Nsg29
S'4'
p1004
sg31
S'4 - Store'
p1005
sba(irunmatrix
M3Element
p1006
(dp1007
g3
Nsg4
S'Lite sannsynlig, Mulig'
p1008
sg6
S'white'
p1009
sg8
(lp1010
sg10
S'Possible'
p1011
sg12
S'Isolated'
p1012
sg14
g501
sg16
I3
sg17
S'Low'
p1013
sg19
S'Liten tilleggsbelastning'
p1014
sg21
Nsg22
S'400'
p1015
sg24
S'200'
p1016
sg26
S'Isolerte faresoner'
p1017
sg28
Nsg29
g1004
sg31
S'4 - Store'
p1018
sba(irunmatrix
M3Element
p1019
(dp1020
g3
Nsg4
S'Lite sannsynlig, Mulig'
p1021
sg6
S'white'
p1022
sg8
(lp1023
sg10
S'Possible'
p1024
sg12
S'Isolated'
p1025
sg14
g501
sg16
I3
sg17
S'Nat'
p1026
sg19
S'Naturlig utloest'
p1027
sg21
Nsg22
S'400'
p1028
sg24
S'300'
p1029
sg26
S'Isolerte faresoner'
p1030
sg28
Nsg29
g1004
sg31
S'4 - Store'
p1031
sba(irunmatrix
M3Element
p1032
(dp1033
g3
Nsg4
S'Sannsynlig, Meget sannsynlig'
p1034
sg6
S'gray'
p1035
sg8
(lp1036
sg10
S'Likely'
p1037
sg12
S'Isolated'
p1038
sg14
g66
sg16
I0
sg17
S'High'
p1039
sg19
S'Stor tilleggsbelastning'
p1040
sg21
Nsg22
S'400'
p1041
sg24
S'400'
p1042
sg26
S'Isolerte faresoner'
p1043
sg28
Nsg29
g1004
sg31
S'4 - Store'
p1044
sba(irunmatrix
M3Element
p1045
(dp1046
g3
Nsg4
S'Sannsynlig, Meget sannsynlig'
p1047
sg6
S'gray'
p1048
sg8
(lp1049
sg10
S'Likely'
p1050
sg12
S'Isolated'
p1051
sg14
g66
sg16
I0
sg17
S'Low'
p1052
sg19
S'Liten tilleggsbelastning'
p1053
sg21
Nsg22
S'400'
p1054
sg24
S'500'
p1055
sg26
S'Isolerte faresoner'
p1056
sg28
Nsg29
g1004
sg31
S'4 - Store'
p1057
sba(irunmatrix
M3Element
p1058
(dp1059
g3
Nsg4
S'Sannsynlig, Meget sannsynlig'
p1060
sg6
S'gray'
p1061
sg8
(lp1062
sg10
S'Likely'
p1063
sg12
S'Isolated'
p1064
sg14
g66
sg16
I0
sg17
S'Nat'
p1065
sg19
S'Naturlig utloest'
p1066
sg21
Nsg22
S'400'
p1067
sg24
S'600'
p1068
sg26
S'Isolerte faresoner'
p1069
sg28
Nsg29
g1004
sg31
S'4 - Store'
p1070
sba(irunmatrix
M3Element
p1071
(dp1072
g3
Nsg4
S'Lite sannsynlig, Mulig'
p1073
sg6
S'white'
p1074
sg8
(lp1075
sg10
S'Possible'
p1076
sg12
S'Some'
p1077
sg14
g501
sg16
I3
sg17
S'High'
p1078
sg19
S'Stor tilleggsbelastning'
p1079
sg21
Nsg22
S'400'
p1080
sg24
S'700'
p1081
sg26
S'Noen bratte heng'
p1082
sg28
Nsg29
g1004
sg31
S'4 - Store'
p1083
sba(irunmatrix
M3Element
p1084
(dp1085
g3
Nsg4
S'Lite sannsynlig, Mulig'
p1086
sg6
S'white'
p1087
sg8
(lp1088
sg10
S'Possible'
p1089
sg12
S'Some'
p1090
sg14
g572
sg16
I4
sg17
S'Low'
p1091
sg19
S'Liten tilleggsbelastning'
p1092
sg21
Nsg22
S'400'
p1093
sg24
S'800'
p1094
sg26
S'Noen bratte heng'
p1095
sg28
Nsg29
g1004
sg31
S'4 - Store'
p1096
sba(irunmatrix
M3Element
p1097
(dp1098
g3
Nsg4
S'Lite sannsynlig, Mulig'
p1099
sg6
S'white'
p1100
sg8
(lp1101
sg10
S'Possible'
p1102
sg12
S'Some'
p1103
sg14
g572
sg16
I4
sg17
S'Nat'
p1104
sg19
S'Naturlig utloest'
p1105
sg21
Nsg22
S'400'
p1106
sg24
S'900'
p1107
sg26
S'Noen bratte heng'
p1108
sg28
Nsg29
g1004
sg31
S'4 - Store'
p1109
sba(irunmatrix
M3Element
p1110
(dp1111
g3
Nsg4
S'Sannsynlig, Meget sannsynlig'
p1112
sg6
S'gray'
p1113
sg8
(lp1114
sg10
S'Likely'
p1115
sg12
S'Some'
p1116
sg14
g66
sg16
I0
sg17
S'High'
p1117
sg19
S'Stor tilleggsbelastning'
p1118
sg21
Nsg22
S'400'
p1119
sg24
S'1000'
p1120
sg26
S'Noen bratte heng'
p1121
sg28
Nsg29
g1004
sg31
S'4 - Store'
p1122
sba(irunmatrix
M3Element
p1123
(dp1124
g3
Nsg4
S'Sannsynlig, Meget sannsynlig'
p1125
sg6
S'gray'
p1126
sg8
(lp1127
sg10
S'Likely'
p1128
sg12
S'Some'
p1129
sg14
g66
sg16
I0
sg17
S'Low'
p1130
sg19
S'Liten tilleggsbelastning'
p1131
sg21
Nsg22
S'400'
p1132
sg24
S'1100'
p1133
sg26
S'Noen bratte heng'
p1134
sg28
Nsg29
g1004
sg31
S'4 - Store'
p1135
sba(irunmatrix
M3Element
p1136
(dp1137
g3
Nsg4
S'Sannsynlig, Meget sannsynlig'
p1138
sg6
S'white'
p1139
sg8
(lp1140
sg10
S'Likely'
p1141
sg12
S'Some'
p1142
sg14
g572
sg16
I4
sg17
S'Nat'
p1143
sg19
S'Naturlig utloest'
p1144
sg21
Nsg22
S'400'
p1145
sg24
S'1200'
p1146
sg26
S'Noen bratte heng'
p1147
sg28
Nsg29
g1004
sg31
S'4 - Store'
p1148
sba(irunmatrix
M3Element
p1149
(dp1150
g3
Nsg4
S'Lite sannsynlig, Mulig'
p1151
sg6
S'gray'
p1152
sg8
(lp1153
sg10
S'Possible'
p1154
sg12
S'Many'
p1155
sg14
g66
sg16
I0
sg17
S'High'
p1156
sg19
S'Stor tilleggsbelastning'
p1157
sg21
Nsg22
S'400'
p1158
sg24
S'1300'
p1159
sg26
S'Mange bratte heng'
p1160
sg28
Nsg29
g1004
sg31
S'4 - Store'
p1161
sba(irunmatrix
M3Element
p1162
(dp1163
g3
Nsg4
S'Lite sannsynlig, Mulig'
p1164
sg6
S'white'
p1165
sg8
(lp1166
sg10
S'Possible'
p1167
sg12
S'Many'
p1168
sg14
g66
sg16
I0
sg17
S'Low'
p1169
sg19
S'Liten tilleggsbelastning'
p1170
sg21
Nsg22
S'400'
p1171
sg24
S'1400'
p1172
sg26
S'Mange bratte heng'
p1173
sg28
Nsg29
g1004
sg31
S'4 - Store'
p1174
sba(irunmatrix
M3Element
p1175
(dp1176
g3
Nsg4
S'Lite sannsynlig, Mulig'
p1177
sg6
S'gray'
p1178
sg8
(lp1179
sg10
S'Possible'
p1180
sg12
S'Many'
p1181
sg14
g66
sg16
I0
sg17
S'Nat'
p1182
sg19
S'Naturlig utloest'
p1183
sg21
Nsg22
S'400'
p1184
sg24
S'1500'
p1185
sg26
S'Mange bratte heng'
p1186
sg28
Nsg29
g1004
sg31
S'4 - Store'
p1187
sba(irunmatrix
M3Element
p1188
(dp1189
g3
Nsg4
S'Sannsynlig, Meget sannsynlig'
p1190
sg6
S'gray'
p1191
sg8
(lp1192
sg10
S'Likely'
p1193
sg12
S'Many'
p1194
sg14
g66
sg16
I0
sg17
S'High'
p1195
sg19
S'Stor tilleggsbelastning'
p1196
sg21
Nsg22
S'400'
p1197
sg24
S'1600'
p1198
sg26
S'Mange bratte heng'
p1199
sg28
Nsg29
g1004
sg31
S'4 - Store'
p1200
sba(irunmatrix
M3Element
p1201
(dp1202
g3
Nsg4
S'Sannsynlig, Meget sannsynlig'
p1203
sg6
S'white'
p1204
sg8
(lp1205
sg10
S'Likely'
p1206
sg12
S'Many'
p1207
sg14
g66
sg16
I0
sg17
S'Low'
p1208
sg19
S'Liten tilleggsbelastning'
p1209
sg21
Nsg22
S'400'
p1210
sg24
S'1700'
p1211
sg26
S'Mange bratte heng'
p1212
sg28
Nsg29
g1004
sg31
S'4 - Store'
p1213
sba(irunmatrix
M3Element
p1214
(dp1215
g3
Nsg4
S'Sannsynlig, Meget sannsynlig'
p1216
sg6
S'white'
p1217
sg8
(lp1218
sg10
S'Likely'
p1219
sg12
S'Many'
p1220
sg14
S'k'
p1221
sg16
I5
sg17
S'Nat'
p1222
sg19
S'Naturlig utloest'
p1223
sg21
Nsg22
S'400'
p1224
sg24
S'1800'
p1225
sg26
S'Mange bratte heng'
p1226
sg28
Nsg29
g1004
sg31
S'4 - Store'
p1227
sba(irunmatrix
M3Element
p1228
(dp1229
g3
Nsg4
S'Lite sannsynlig, Mulig'
p1230
sg6
S'gray'
p1231
sg8
(lp1232
sg10
S'Possible'
p1233
sg12
S'Most'
p1234
sg14
g66
sg16
I0
sg17
S'High'
p1235
sg19
S'Stor tilleggsbelastning'
p1236
sg21
Nsg22
S'400'
p1237
sg24
S'1900'
p1238
sg26
S'De fleste bratte heng, Ogsaa i mindre bratt terreng'
p1239
sg28
Nsg29
g1004
sg31
S'4 - Store'
p1240
sba(irunmatrix
M3Element
p1241
(dp1242
g3
Nsg4
S'Lite sannsynlig, Mulig'
p1243
sg6
S'gray'
p1244
sg8
(lp1245
sg10
S'Possible'
p1246
sg12
S'Most'
p1247
sg14
g66
sg16
I0
sg17
S'Low'
p1248
sg19
S'Liten tilleggsbelastning'
p1249
sg21
Nsg22
S'400'
p1250
sg24
S'2000'
p1251
sg26
S'De fleste bratte heng, Ogsaa i mindre bratt terreng'
p1252
sg28
Nsg29
g1004
sg31
S'4 - Store'
p1253
sba(irunmatrix
M3Element
p1254
(dp1255
g3
Nsg4
S'Lite sannsynlig, Mulig'
p1256
sg6
S'gray'
p1257
sg8
(lp1258
sg10
S'Possible'
p1259
sg12
S'Most'
p1260
sg14
g66
sg16
I0
sg17
S'Nat'
p1261
sg19
S'Naturlig utloest'
p1262
sg21
Nsg22
S'400'
p1263
sg24
S'2100'
p1264
sg26
S'De fleste bratte heng, Ogsaa i mindre bratt terreng'
p1265
sg28
Nsg29
g1004
sg31
S'4 - Store'
p1266
sba(irunmatrix
M3Element
p1267
(dp1268
g3
Nsg4
S'Sannsynlig, Meget sannsynlig'
p1269
sg6
S'gray'
p1270
sg8
(lp1271
sg10
S'Likely'
p1272
sg12
S'Most'
p1273
sg14
g66
sg16
I0
sg17
S'High'
p1274
sg19
S'Stor tilleggsbelastning'
p1275
sg21
Nsg22
S'400'
p1276
sg24
S'2200'
p1277
sg26
S'De fleste bratte heng, Ogsaa i mindre bratt terreng'
p1278
sg28
Nsg29
g1004
sg31
S'4 - Store'
p1279
sba(irunmatrix
M3Element
p1280
(dp1281
g3
Nsg4
S'Sannsynlig, Meget sannsynlig'
p1282
sg6
S'gray'
p1283
sg8
(lp1284
sg10
S'Likely'
p1285
sg12
S'Most'
p1286
sg14
g66
sg16
I0
sg17
S'Low'
p1287
sg19
S'Liten tilleggsbelastning'
p1288
sg21
Nsg22
S'400'
p1289
sg24
S'2300'
p1290
sg26
S'De fleste bratte heng, Ogsaa i mindre bratt terreng'
p1291
sg28
Nsg29
g1004
sg31
S'4 - Store'
p1292
sba(irunmatrix
M3Element
p1293
(dp1294
g3
Nsg4
S'Sannsynlig, Meget sannsynlig'
p1295
sg6
S'white'
p1296
sg8
(lp1297
sg10
S'Likely'
p1298
sg12
S'Most'
p1299
sg14
g66
sg16
I0
sg17
S'Nat'
p1300
sg19
S'Naturlig utloest'
p1301
sg21
Nsg22
S'400'
p1302
sg24
S'2400'
p1303
sg26
S'De fleste bratte heng, Ogsaa i mindre bratt terreng'
p1304
sg28
Nsg29
g1004
sg31
S'4 - Store'
p1305
sba(irunmatrix
M3Element
p1306
(dp1307
g3
Nsg4
S'Lite sannsynlig, Mulig'
p1308
sg6
S'white'
p1309
sg8
(lp1310
sg10
S'Possible'
p1311
sg12
S'Isolated'
p1312
sg14
g66
sg16
I0
sg17
S'High'
p1313
sg19
S'Stor tilleggsbelastning'
p1314
sg21
Nsg22
S'500'
p1315
sg24
S'100'
p1316
sg26
S'Isolerte faresoner'
p1317
sg28
Nsg29
S'5'
p1318
sg31
S'5 - Svaert store'
p1319
sba(irunmatrix
M3Element
p1320
(dp1321
g3
Nsg4
S'Lite sannsynlig, Mulig'
p1322
sg6
S'white'
p1323
sg8
(lp1324
sg10
S'Possible'
p1325
sg12
S'Isolated'
p1326
sg14
g66
sg16
I0
sg17
S'Low'
p1327
sg19
S'Liten tilleggsbelastning'
p1328
sg21
Nsg22
S'500'
p1329
sg24
S'200'
p1330
sg26
S'Isolerte faresoner'
p1331
sg28
Nsg29
g1318
sg31
S'5 - Svaert store'
p1332
sba(irunmatrix
M3Element
p1333
(dp1334
g3
Nsg4
S'Lite sannsynlig, Mulig'
p1335
sg6
S'white'
p1336
sg8
(lp1337
sg10
S'Possible'
p1338
sg12
S'Isolated'
p1339
sg14
g66
sg16
I0
sg17
S'Nat'
p1340
sg19
S'Naturlig utloest'
p1341
sg21
Nsg22
S'500'
p1342
sg24
S'300'
p1343
sg26
S'Isolerte faresoner'
p1344
sg28
Nsg29
g1318
sg31
S'5 - Svaert store'
p1345
sba(irunmatrix
M3Element
p1346
(dp1347
g3
Nsg4
S'Sannsynlig, Meget sannsynlig'
p1348
sg6
S'gray'
p1349
sg8
(lp1350
sg10
S'Likely'
p1351
sg12
S'Isolated'
p1352
sg14
g66
sg16
I0
sg17
S'High'
p1353
sg19
S'Stor tilleggsbelastning'
p1354
sg21
Nsg22
S'500'
p1355
sg24
S'400'
p1356
sg26
S'Isolerte faresoner'
p1357
sg28
Nsg29
g1318
sg31
S'5 - Svaert store'
p1358
sba(irunmatrix
M3Element
p1359
(dp1360
g3
Nsg4
S'Sannsynlig, Meget sannsynlig'
p1361
sg6
S'gray'
p1362
sg8
(lp1363
sg10
S'Likely'
p1364
sg12
S'Isolated'
p1365
sg14
g66
sg16
I0
sg17
S'Low'
p1366
sg19
S'Liten tilleggsbelastning'
p1367
sg21
Nsg22
S'500'
p1368
sg24
S'500'
p1369
sg26
S'Isolerte faresoner'
p1370
sg28
Nsg29
g1318
sg31
S'5 - Svaert store'
p1371
sba(irunmatrix
M3Element
p1372
(dp1373
g3
Nsg4
S'Sannsynlig, Meget sannsynlig'
p1374
sg6
S'gray'
p1375
sg8
(lp1376
sg10
S'Likely'
p1377
sg12
S'Isolated'
p1378
sg14
g66
sg16
I0
sg17
S'Nat'
p1379
sg19
S'Naturlig utloest'
p1380
sg21
Nsg22
S'500'
p1381
sg24
S'600'
p1382
sg26
S'Isolerte faresoner'
p1383
sg28
Nsg29
g1318
sg31
S'5 - Svaert store'
p1384
sba(irunmatrix
M3Element
p1385
(dp1386
g3
Nsg4
S'Lite sannsynlig, Mulig'
p1387
sg6
S'white'
p1388
sg8
(lp1389
sg10
S'Possible'
p1390
sg12
S'Some'
p1391
sg14
g66
sg16
I0
sg17
S'High'
p1392
sg19
S'Stor tilleggsbelastning'
p1393
sg21
Nsg22
S'500'
p1394
sg24
S'700'
p1395
sg26
S'Noen bratte heng'
p1396
sg28
Nsg29
g1318
sg31
S'5 - Svaert store'
p1397
sba(irunmatrix
M3Element
p1398
(dp1399
g3
Nsg4
S'Lite sannsynlig, Mulig'
p1400
sg6
S'white'
p1401
sg8
(lp1402
sg10
S'Possible'
p1403
sg12
S'Some'
p1404
sg14
g66
sg16
I0
sg17
S'Low'
p1405
sg19
S'Liten tilleggsbelastning'
p1406
sg21
Nsg22
S'500'
p1407
sg24
S'800'
p1408
sg26
S'Noen bratte heng'
p1409
sg28
Nsg29
g1318
sg31
S'5 - Svaert store'
p1410
sba(irunmatrix
M3Element
p1411
(dp1412
g3
Nsg4
S'Lite sannsynlig, Mulig'
p1413
sg6
S'white'
p1414
sg8
(lp1415
sg10
S'Possible'
p1416
sg12
S'Some'
p1417
sg14
g66
sg16
I0
sg17
S'Nat'
p1418
sg19
S'Naturlig utloest'
p1419
sg21
Nsg22
S'500'
p1420
sg24
S'900'
p1421
sg26
S'Noen bratte heng'
p1422
sg28
Nsg29
g1318
sg31
S'5 - Svaert store'
p1423
sba(irunmatrix
M3Element
p1424
(dp1425
g3
Nsg4
S'Sannsynlig, Meget sannsynlig'
p1426
sg6
S'gray'
p1427
sg8
(lp1428
sg10
S'Likely'
p1429
sg12
S'Some'
p1430
sg14
g66
sg16
I0
sg17
S'High'
p1431
sg19
S'Stor tilleggsbelastning'
p1432
sg21
Nsg22
S'500'
p1433
sg24
S'1000'
p1434
sg26
S'Noen bratte heng'
p1435
sg28
Nsg29
g1318
sg31
S'5 - Svaert store'
p1436
sba(irunmatrix
M3Element
p1437
(dp1438
g3
Nsg4
S'Sannsynlig, Meget sannsynlig'
p1439
sg6
S'gray'
p1440
sg8
(lp1441
sg10
S'Likely'
p1442
sg12
S'Some'
p1443
sg14
g66
sg16
I0
sg17
S'Low'
p1444
sg19
S'Liten tilleggsbelastning'
p1445
sg21
Nsg22
S'500'
p1446
sg24
S'1100'
p1447
sg26
S'Noen bratte heng'
p1448
sg28
Nsg29
g1318
sg31
S'5 - Svaert store'
p1449
sba(irunmatrix
M3Element
p1450
(dp1451
g3
Nsg4
S'Sannsynlig, Meget sannsynlig'
p1452
sg6
S'white'
p1453
sg8
(lp1454
sg10
S'Likely'
p1455
sg12
S'Some'
p1456
sg14
g66
sg16
I0
sg17
S'Nat'
p1457
sg19
S'Naturlig utloest'
p1458
sg21
Nsg22
S'500'
p1459
sg24
S'1200'
p1460
sg26
S'Noen bratte heng'
p1461
sg28
Nsg29
g1318
sg31
S'5 - Svaert store'
p1462
sba(irunmatrix
M3Element
p1463
(dp1464
g3
Nsg4
S'Lite sannsynlig, Mulig'
p1465
sg6
S'gray'
p1466
sg8
(lp1467
sg10
S'Possible'
p1468
sg12
S'Many'
p1469
sg14
g66
sg16
I0
sg17
S'High'
p1470
sg19
S'Stor tilleggsbelastning'
p1471
sg21
Nsg22
S'500'
p1472
sg24
S'1300'
p1473
sg26
S'Mange bratte heng'
p1474
sg28
Nsg29
g1318
sg31
S'5 - Svaert store'
p1475
sba(irunmatrix
M3Element
p1476
(dp1477
g3
Nsg4
S'Lite sannsynlig, Mulig'
p1478
sg6
S'white'
p1479
sg8
(lp1480
sg10
S'Possible'
p1481
sg12
S'Many'
p1482
sg14
g66
sg16
I0
sg17
S'Low'
p1483
sg19
S'Liten tilleggsbelastning'
p1484
sg21
Nsg22
S'500'
p1485
sg24
S'1400'
p1486
sg26
S'Mange bratte heng'
p1487
sg28
Nsg29
g1318
sg31
S'5 - Svaert store'
p1488
sba(irunmatrix
M3Element
p1489
(dp1490
g3
Nsg4
S'Lite sannsynlig, Mulig'
p1491
sg6
S'gray'
p1492
sg8
(lp1493
sg10
S'Possible'
p1494
sg12
S'Many'
p1495
sg14
g66
sg16
I0
sg17
S'Nat'
p1496
sg19
S'Naturlig utloest'
p1497
sg21
Nsg22
S'500'
p1498
sg24
S'1500'
p1499
sg26
S'Mange bratte heng'
p1500
sg28
Nsg29
g1318
sg31
S'5 - Svaert store'
p1501
sba(irunmatrix
M3Element
p1502
(dp1503
g3
Nsg4
S'Sannsynlig, Meget sannsynlig'
p1504
sg6
S'gray'
p1505
sg8
(lp1506
sg10
S'Likely'
p1507
sg12
S'Many'
p1508
sg14
g66
sg16
I0
sg17
S'High'
p1509
sg19
S'Stor tilleggsbelastning'
p1510
sg21
Nsg22
S'500'
p1511
sg24
S'1600'
p1512
sg26
S'Mange bratte heng'
p1513
sg28
Nsg29
g1318
sg31
S'5 - Svaert store'
p1514
sba(irunmatrix
M3Element
p1515
(dp1516
g3
Nsg4
S'Sannsynlig, Meget sannsynlig'
p1517
sg6
S'white'
p1518
sg8
(lp1519
sg10
S'Likely'
p1520
sg12
S'Many'
p1521
sg14
g66
sg16
I0
sg17
S'Low'
p1522
sg19
S'Liten tilleggsbelastning'
p1523
sg21
Nsg22
S'500'
p1524
sg24
S'1700'
p1525
sg26
S'Mange bratte heng'
p1526
sg28
Nsg29
g1318
sg31
S'5 - Svaert store'
p1527
sba(irunmatrix
M3Element
p1528
(dp1529
g3
Nsg4
S'Sannsynlig, Meget sannsynlig'
p1530
sg6
S'white'
p1531
sg8
(lp1532
sg10
S'Likely'
p1533
sg12
S'Many'
p1534
sg14
g1221
sg16
I5
sg17
S'Nat'
p1535
sg19
S'Naturlig utloest'
p1536
sg21
Nsg22
S'500'
p1537
sg24
S'1800'
p1538
sg26
S'Mange bratte heng'
p1539
sg28
Nsg29
g1318
sg31
S'5 - Svaert store'
p1540
sba(irunmatrix
M3Element
p1541
(dp1542
g3
Nsg4
S'Lite sannsynlig, Mulig'
p1543
sg6
S'gray'
p1544
sg8
(lp1545
sg10
S'Possible'
p1546
sg12
S'Most'
p1547
sg14
g66
sg16
I0
sg17
S'High'
p1548
sg19
S'Stor tilleggsbelastning'
p1549
sg21
Nsg22
S'500'
p1550
sg24
S'1900'
p1551
sg26
S'De fleste bratte heng, Ogsaa i mindre bratt terreng'
p1552
sg28
Nsg29
g1318
sg31
S'5 - Svaert store'
p1553
sba(irunmatrix
M3Element
p1554
(dp1555
g3
Nsg4
S'Lite sannsynlig, Mulig'
p1556
sg6
S'gray'
p1557
sg8
(lp1558
sg10
S'Possible'
p1559
sg12
S'Most'
p1560
sg14
g66
sg16
I0
sg17
S'Low'
p1561
sg19
S'Liten tilleggsbelastning'
p1562
sg21
Nsg22
S'500'
p1563
sg24
S'2000'
p1564
sg26
S'De fleste bratte heng, Ogsaa i mindre bratt terreng'
p1565
sg28
Nsg29
g1318
sg31
S'5 - Svaert store'
p1566
sba(irunmatrix
M3Element
p1567
(dp1568
g3
Nsg4
S'Lite sannsynlig, Mulig'
p1569
sg6
S'gray'
p1570
sg8
(lp1571
sg10
S'Possible'
p1572
sg12
S'Most'
p1573
sg14
g66
sg16
I0
sg17
S'Nat'
p1574
sg19
S'Naturlig utloest'
p1575
sg21
Nsg22
S'500'
p1576
sg24
S'2100'
p1577
sg26
S'De fleste bratte heng, Ogsaa i mindre bratt terreng'
p1578
sg28
Nsg29
g1318
sg31
S'5 - Svaert store'
p1579
sba(irunmatrix
M3Element
p1580
(dp1581
g3
Nsg4
S'Sannsynlig, Meget sannsynlig'
p1582
sg6
S'gray'
p1583
sg8
(lp1584
sg10
S'Likely'
p1585
sg12
S'Most'
p1586
sg14
g66
sg16
I0
sg17
S'High'
p1587
sg19
S'Stor tilleggsbelastning'
p1588
sg21
Nsg22
S'500'
p1589
sg24
S'2200'
p1590
sg26
S'De fleste bratte heng, Ogsaa i mindre bratt terreng'
p1591
sg28
Nsg29
g1318
sg31
S'5 - Svaert store'
p1592
sba(irunmatrix
M3Element
p1593
(dp1594
g3
Nsg4
S'Sannsynlig, Meget sannsynlig'
p1595
sg6
S'gray'
p1596
sg8
(lp1597
sg10
S'Likely'
p1598
sg12
S'Most'
p1599
sg14
g66
sg16
I0
sg17
S'Low'
p1600
sg19
S'Liten tilleggsbelastning'
p1601
sg21
Nsg22
S'500'
p1602
sg24
S'2300'
p1603
sg26
S'De fleste bratte heng, Ogsaa i mindre bratt terreng'
p1604
sg28
Nsg29
g1318
sg31
S'5 - Svaert store'
p1605
sba(irunmatrix
M3Element
p1606
(dp1607
g3
Nsg4
S'Sannsynlig, Meget sannsynlig'
p1608
sg6
S'white'
p1609
sg8
(lp1610
sg10
S'Likely'
p1611
sg12
S'Most'
p1612
sg14
g66
sg16
I0
sg17
S'Nat'
p1613
sg19
S'Naturlig utloest'
p1614
sg21
Nsg22
S'500'
p1615
sg24
S'2400'
p1616
sg26
S'De fleste bratte heng, Ogsaa i mindre bratt terreng'
p1617
sg28
Nsg29
g1318
sg31
S'5 - Svaert store'
p1618
sba.