(lp0
(irunmatrix
M3Element
p1
(dp2
S'danger_level_average'
p3
NsS'probability'
p4
S'Lite sannsynlig, Mulig'
p5
sS'colour'
p6
S'white'
p7
sS'danger_level_list'
p8
(lp9
sS'label_probalility'
p10
S'Possible'
p11
sS'label_distribution'
p12
S'Isolated'
p13
sS'recomended_colour'
p14
S'#ccff66'
p15
sS'recomended_danger_level'
p16
I1
sS'label_trigger'
p17
S'High'
p18
sS'trigger'
p19
S'Stor tilleggsbelastning'
p20
sS'occurrences'
p21
NsS'y'
p22
S'100'
p23
sS'x'
p24
S'100'
p25
sS'distribution'
p26
S'Isolerte faresoner'
p27
sS'danger_level_standard_dev'
p28
NsS'label_size'
p29
S'1'
p30
sS'avalanche_size'
p31
S'1 - Harmloest'
p32
sba(irunmatrix
M3Element
p33
(dp34
g3
Nsg4
S'Lite sannsynlig, Mulig'
p35
sg6
S'white'
p36
sg8
(lp37
sg10
S'Possible'
p38
sg12
S'Isolated'
p39
sg14
g15
sg16
I1
sg17
S'Low'
p40
sg19
S'Liten tilleggsbelastning'
p41
sg21
Nsg22
S'100'
p42
sg24
S'200'
p43
sg26
S'Isolerte faresoner'
p44
sg28
Nsg29
g30
sg31
S'1 - Harmloest'
p45
sba(irunmatrix
M3Element
p46
(dp47
g3
Nsg4
S'Lite sannsynlig, Mulig'
p48
sg6
S'white'
p49
sg8
(lp50
sg10
S'Possible'
p51
sg12
S'Isolated'
p52
sg14
g15
sg16
I1
sg17
S'Nat'
p53
sg19
S'Naturlig utloest'
p54
sg21
Nsg22
S'100'
p55
sg24
S'300'
p56
sg26
S'Isolerte faresoner'
p57
sg28
Nsg29
g30
sg31
S'1 - Harmloest'
p58
sba(irunmatrix
M3Element
p59
(dp60
g3
Nsg4
S'Sannsynlig, Meget sannsynlig'
p61
sg6
S'gray'
p62
sg8
(lp63
sg10
S'Likely'
p64
sg12
S'Isolated'
p65
sg14
S'gray'
p66
sg16
I0
sg17
S'High'
p67
sg19
S'Stor tilleggsbelastning'
p68
sg21
Nsg22
S'100'
p69
sg24
S'400'
p70
sg26
S'Isolerte faresoner'
p71
sg28
Nsg29
g30
sg31
S'1 - Harmloest'
p72
sba(irunmatrix
M3Element
p73
(dp74
g3
Nsg4
S'Sannsynlig, Meget sannsynlig'
p75
sg6
S'gray'
p76
sg8
(lp77
sg10
S'Likely'
p78
sg12
S'Isolated'
p79
sg14
g66
sg16
I0
sg17
S'Low'
p80
sg19
S'Liten tilleggsbelastning'
p81
sg21
Nsg22
S'100'
p82
sg24
S'500'
p83
sg26
S'Isolerte faresoner'
p84
sg28
Nsg29
g30
sg31
S'1 - Harmloest'
p85
sba(irunmatrix
M3Element
p86
(dp87
g3
Nsg4
S'Sannsynlig, Meget sannsynlig'
p88
sg6
S'gray'
p89
sg8
(lp90
sg10
S'Likely'
p91
sg12
S'Isolated'
p92
sg14
g66
sg16
I0
sg17
S'Nat'
p93
sg19
S'Naturlig utloest'
p94
sg21
Nsg22
S'100'
p95
sg24
S'600'
p96
sg26
S'Isolerte faresoner'
p97
sg28
Nsg29
g30
sg31
S'1 - Harmloest'
p98
sba(irunmatrix
M3Element
p99
(dp100
g3
Nsg4
S'Lite sannsynlig, Mulig'
p101
sg6
S'white'
p102
sg8
(lp103
sg10
S'Possible'
p104
sg12
S'Some'
p105
sg14
g15
sg16
I1
sg17
S'High'
p106
sg19
S'Stor tilleggsbelastning'
p107
sg21
Nsg22
S'100'
p108
sg24
S'700'
p109
sg26
S'Noen bratte heng'
p110
sg28
Nsg29
g30
sg31
S'1 - Harmloest'
p111
sba(irunmatrix
M3Element
p112
(dp113
g3
Nsg4
S'Lite sannsynlig, Mulig'
p114
sg6
S'white'
p115
sg8
(lp116
sg10
S'Possible'
p117
sg12
S'Some'
p118
sg14
g15
sg16
I1
sg17
S'Low'
p119
sg19
S'Liten tilleggsbelastning'
p120
sg21
Nsg22
S'100'
p121
sg24
S'800'
p122
sg26
S'Noen bratte heng'
p123
sg28
Nsg29
g30
sg31
S'1 - Harmloest'
p124
sba(irunmatrix
M3Element
p125
(dp126
g3
Nsg4
S'Lite sannsynlig, Mulig'
p127
sg6
S'white'
p128
sg8
(lp129
sg10
S'Possible'
p130
sg12
S'Some'
p131
sg14
g15
sg16
I1
sg17
S'Nat'
p132
sg19
S'Naturlig utloest'
p133
sg21
Nsg22
S'100'
p134
sg24
S'900'
p135
sg26
S'Noen bratte heng'
p136
sg28
Nsg29
g30
sg31
S'1 - Harmloest'
p137
sba(irunmatrix
M3Element
p138
(dp139
g3
Nsg4
S'Sannsynlig, Meget sannsynlig'
p140
sg6
S'gray'
p141
sg8
(lp142
sg10
S'Likely'
p143
sg12
S'Some'
p144
sg14
g66
sg16
I0
sg17
S'High'
p145
sg19
S'Stor tilleggsbelastning'
p146
sg21
Nsg22
S'100'
p147
sg24
S'1000'
p148
sg26
S'Noen bratte heng'
p149
sg28
Nsg29
g30
sg31
S'1 - Harmloest'
p150
sba(irunmatrix
M3Element
p151
(dp152
g3
Nsg4
S'Sannsynlig, Meget sannsynlig'
p153
sg6
S'gray'
p154
sg8
(lp155
sg10
S'Likely'
p156
sg12
S'Some'
p157
sg14
g66
sg16
I0
sg17
S'Low'
p158
sg19
S'Liten tilleggsbelastning'
p159
sg21
Nsg22
S'100'
p160
sg24
S'1100'
p161
sg26
S'Noen bratte heng'
p162
sg28
Nsg29
g30
sg31
S'1 - Harmloest'
p163
sba(irunmatrix
M3Element
p164
(dp165
g3
Nsg4
S'Sannsynlig, Meget sannsynlig'
p166
sg6
S'white'
p167
sg8
(lp168
sg10
S'Likely'
p169
sg12
S'Some'
p170
sg14
g15
sg16
I1
sg17
S'Nat'
p171
sg19
S'Naturlig utloest'
p172
sg21
Nsg22
S'100'
p173
sg24
S'1200'
p174
sg26
S'Noen bratte heng'
p175
sg28
Nsg29
g30
sg31
S'1 - Harmloest'
p176
sba(irunmatrix
M3Element
p177
(dp178
g3
Nsg4
S'Lite sannsynlig, Mulig'
p179
sg6
S'gray'
p180
sg8
(lp181
sg10
S'Possible'
p182
sg12
S'Many'
p183
sg14
g66
sg16
I0
sg17
S'High'
p184
sg19
S'Stor tilleggsbelastning'
p185
sg21
Nsg22
S'100'
p186
sg24
S'1300'
p187
sg26
S'Mange bratte heng'
p188
sg28
Nsg29
g30
sg31
S'1 - Harmloest'
p189
sba(irunmatrix
M3Element
p190
(dp191
g3
Nsg4
S'Lite sannsynlig, Mulig'
p192
sg6
S'white'
p193
sg8
(lp194
sg10
S'Possible'
p195
sg12
S'Many'
p196
sg14
g15
sg16
I1
sg17
S'Low'
p197
sg19
S'Liten tilleggsbelastning'
p198
sg21
Nsg22
S'100'
p199
sg24
S'1400'
p200
sg26
S'Mange bratte heng'
p201
sg28
Nsg29
g30
sg31
S'1 - Harmloest'
p202
sba(irunmatrix
M3Element
p203
(dp204
g3
Nsg4
S'Lite sannsynlig, Mulig'
p205
sg6
S'gray'
p206
sg8
(lp207
sg10
S'Possible'
p208
sg12
S'Many'
p209
sg14
g66
sg16
I0
sg17
S'Nat'
p210
sg19
S'Naturlig utloest'
p211
sg21
Nsg22
S'100'
p212
sg24
S'1500'
p213
sg26
S'Mange bratte heng'
p214
sg28
Nsg29
g30
sg31
S'1 - Harmloest'
p215
sba(irunmatrix
M3Element
p216
(dp217
g3
Nsg4
S'Sannsynlig, Meget sannsynlig'
p218
sg6
S'gray'
p219
sg8
(lp220
sg10
S'Likely'
p221
sg12
S'Many'
p222
sg14
g66
sg16
I0
sg17
S'High'
p223
sg19
S'Stor tilleggsbelastning'
p224
sg21
Nsg22
S'100'
p225
sg24
S'1600'
p226
sg26
S'Mange bratte heng'
p227
sg28
Nsg29
g30
sg31
S'1 - Harmloest'
p228
sba(irunmatrix
M3Element
p229
(dp230
g3
Nsg4
S'Sannsynlig, Meget sannsynlig'
p231
sg6
S'white'
p232
sg8
(lp233
sg10
S'Likely'
p234
sg12
S'Many'
p235
sg14
S'#ffff00'
p236
sg16
I2
sg17
S'Low'
p237
sg19
S'Liten tilleggsbelastning'
p238
sg21
Nsg22
S'100'
p239
sg24
S'1700'
p240
sg26
S'Mange bratte heng'
p241
sg28
Nsg29
g30
sg31
S'1 - Harmloest'
p242
sba(irunmatrix
M3Element
p243
(dp244
g3
Nsg4
S'Sannsynlig, Meget sannsynlig'
p245
sg6
S'white'
p246
sg8
(lp247
sg10
S'Likely'
p248
sg12
S'Many'
p249
sg14
g236
sg16
I2
sg17
S'Nat'
p250
sg19
S'Naturlig utloest'
p251
sg21
Nsg22
S'100'
p252
sg24
S'1800'
p253
sg26
S'Mange bratte heng'
p254
sg28
Nsg29
g30
sg31
S'1 - Harmloest'
p255
sba(irunmatrix
M3Element
p256
(dp257
g3
Nsg4
S'Lite sannsynlig, Mulig'
p258
sg6
S'gray'
p259
sg8
(lp260
sg10
S'Possible'
p261
sg12
S'Most'
p262
sg14
g66
sg16
I0
sg17
S'High'
p263
sg19
S'Stor tilleggsbelastning'
p264
sg21
Nsg22
S'100'
p265
sg24
S'1900'
p266
sg26
S'De fleste bratte heng, Ogsaa i mindre bratt terreng'
p267
sg28
Nsg29
g30
sg31
S'1 - Harmloest'
p268
sba(irunmatrix
M3Element
p269
(dp270
g3
Nsg4
S'Lite sannsynlig, Mulig'
p271
sg6
S'gray'
p272
sg8
(lp273
sg10
S'Possible'
p274
sg12
S'Most'
p275
sg14
g66
sg16
I0
sg17
S'Low'
p276
sg19
S'Liten tilleggsbelastning'
p277
sg21
Nsg22
S'100'
p278
sg24
S'2000'
p279
sg26
S'De fleste bratte heng, Ogsaa i mindre bratt terreng'
p280
sg28
Nsg29
g30
sg31
S'1 - Harmloest'
p281
sba(irunmatrix
M3Element
p282
(dp283
g3
Nsg4
S'Lite sannsynlig, Mulig'
p284
sg6
S'gray'
p285
sg8
(lp286
sg10
S'Possible'
p287
sg12
S'Most'
p288
sg14
g66
sg16
I0
sg17
S'Nat'
p289
sg19
S'Naturlig utloest'
p290
sg21
Nsg22
S'100'
p291
sg24
S'2100'
p292
sg26
S'De fleste bratte heng, Ogsaa i mindre bratt terreng'
p293
sg28
Nsg29
g30
sg31
S'1 - Harmloest'
p294
sba(irunmatrix
M3Element
p295
(dp296
g3
Nsg4
S'Sannsynlig, Meget sannsynlig'
p297
sg6
S'gray'
p298
sg8
(lp299
sg10
S'Likely'
p300
sg12
S'Most'
p301
sg14
g66
sg16
I0
sg17
S'High'
p302
sg19
S'Stor tilleggsbelastning'
p303
sg21
Nsg22
S'100'
p304
sg24
S'2200'
p305
sg26
S'De fleste bratte heng, Ogsaa i mindre bratt terreng'
p306
sg28
Nsg29
g30
sg31
S'1 - Harmloest'
p307
sba(irunmatrix
M3Element
p308
(dp309
g3
Nsg4
S'Sannsynlig, Meget sannsynlig'
p310
sg6
S'gray'
p311
sg8
(lp312
sg10
S'Likely'
p313
sg12
S'Most'
p314
sg14
g66
sg16
I0
sg17
S'Low'
p315
sg19
S'Liten tilleggsbelastning'
p316
sg21
Nsg22
S'100'
p317
sg24
S'2300'
p318
sg26
S'De fleste bratte heng, Ogsaa i mindre bratt terreng'
p319
sg28
Nsg29
g30
sg31
S'1 - Harmloest'
p320
sba(irunmatrix
M3Element
p321
(dp322
g3
Nsg4
S'Sannsynlig, Meget sannsynlig'
p323
sg6
S'white'
p324
sg8
(lp325
sg10
S'Likely'
p326
sg12
S'Most'
p327
sg14
g66
sg16
I0
sg17
S'Nat'
p328
sg19
S'Naturlig utloest'
p329
sg21
Nsg22
S'100'
p330
sg24
S'2400'
p331
sg26
S'De fleste bratte heng, Ogsaa i mindre bratt terreng'
p332
sg28
Nsg29
S'2'
p333
sg31
S'1 - Harmloest'
p334
sba(irunmatrix
M3Element
p335
(dp336
g3
F2.0
sg4
S'Lite sannsynlig, Mulig'
p337
sg6
S'#ffff00'
p338
sg8
(lp339
I2
asg10
S'Possible'
p340
sg12
S'Isolated'
p341
sg14
g15
sg16
I1
sg17
S'High'
p342
sg19
S'Stor tilleggsbelastning'
p343
sg21
I1
sg22
S'200'
p344
sg24
S'100'
p345
sg26
S'Isolerte faresoner'
p346
sg28
cnumpy.core.multiarray
scalar
p347
(cnumpy
dtype
p348
(S'f8'
p349
I0
I1
tp350
Rp351
(I3
S'<'
p352
NNNI-1
I-1
I0
tp353
bS'\x00\x00\x00\x00\x00\x00\x00\x00'
p354
tp355
Rp356
sg29
g333
sg31
S'2 - Smaa'
p357
sba(irunmatrix
M3Element
p358
(dp359
g3
F1.6666666666666667
sg4
S'Lite sannsynlig, Mulig'
p360
sg6
g338
sg8
(lp361
I1
aI1
aI2
aI2
aI2
aI2
asg10
S'Possible'
p362
sg12
S'Isolated'
p363
sg14
g15
sg16
I1
sg17
S'Low'
p364
sg19
S'Liten tilleggsbelastning'
p365
sg21
I6
sg22
S'200'
p366
sg24
S'200'
p367
sg26
S'Isolerte faresoner'
p368
sg28
g347
(g351
S'g\xfa\xfe\xdd}+\xde?'
p369
tp370
Rp371
sg29
g333
sg31
S'2 - Smaa'
p372
sba(irunmatrix
M3Element
p373
(dp374
g3
Nsg4
S'Lite sannsynlig, Mulig'
p375
sg6
S'white'
p376
sg8
(lp377
sg10
S'Possible'
p378
sg12
S'Isolated'
p379
sg14
g15
sg16
I1
sg17
S'Nat'
p380
sg19
S'Naturlig utloest'
p381
sg21
Nsg22
S'200'
p382
sg24
S'300'
p383
sg26
S'Isolerte faresoner'
p384
sg28
Nsg29
g333
sg31
S'2 - Smaa'
p385
sba(irunmatrix
M3Element
p386
(dp387
g3
Nsg4
S'Sannsynlig, Meget sannsynlig'
p388
sg6
S'gray'
p389
sg8
(lp390
sg10
S'Likely'
p391
sg12
S'Isolated'
p392
sg14
g66
sg16
I0
sg17
S'High'
p393
sg19
S'Stor tilleggsbelastning'
p394
sg21
Nsg22
S'200'
p395
sg24
S'400'
p396
sg26
S'Isolerte faresoner'
p397
sg28
Nsg29
g333
sg31
S'2 - Smaa'
p398
sba(irunmatrix
M3Element
p399
(dp400
g3
Nsg4
S'Sannsynlig, Meget sannsynlig'
p401
sg6
S'gray'
p402
sg8
(lp403
sg10
S'Likely'
p404
sg12
S'Isolated'
p405
sg14
g66
sg16
I0
sg17
S'Low'
p406
sg19
S'Liten tilleggsbelastning'
p407
sg21
Nsg22
S'200'
p408
sg24
S'500'
p409
sg26
S'Isolerte faresoner'
p410
sg28
Nsg29
g333
sg31
S'2 - Smaa'
p411
sba(irunmatrix
M3Element
p412
(dp413
g3
Nsg4
S'Sannsynlig, Meget sannsynlig'
p414
sg6
S'gray'
p415
sg8
(lp416
sg10
S'Likely'
p417
sg12
S'Isolated'
p418
sg14
g66
sg16
I0
sg17
S'Nat'
p419
sg19
S'Naturlig utloest'
p420
sg21
Nsg22
S'200'
p421
sg24
S'600'
p422
sg26
S'Isolerte faresoner'
p423
sg28
Nsg29
g333
sg31
S'2 - Smaa'
p424
sba(irunmatrix
M3Element
p425
(dp426
g3
Nsg4
S'Lite sannsynlig, Mulig'
p427
sg6
S'white'
p428
sg8
(lp429
sg10
S'Possible'
p430
sg12
S'Some'
p431
sg14
g236
sg16
I2
sg17
S'High'
p432
sg19
S'Stor tilleggsbelastning'
p433
sg21
Nsg22
S'200'
p434
sg24
S'700'
p435
sg26
S'Noen bratte heng'
p436
sg28
Nsg29
g333
sg31
S'2 - Smaa'
p437
sba(irunmatrix
M3Element
p438
(dp439
g3
F2.0238095238095237
sg4
S'Lite sannsynlig, Mulig'
p440
sg6
g338
sg8
(lp441
I2
aI2
aI3
aI2
aI2
aI2
aI2
aI2
aI2
aI2
aI2
aI2
aI2
aI2
aI2
aI2
aI2
aI2
aI2
aI2
aI2
aI2
aI2
aI2
aI2
aI2
aI2
aI2
aI2
aI2
aI2
aI2
aI2
aI2
aI2
aI2
aI2
aI2
aI2
aI2
aI2
aI2
asg10
S'Possible'
p442
sg12
S'Some'
p443
sg14
g236
sg16
I2
sg17
S'Low'
p444
sg19
S'Liten tilleggsbelastning'
p445
sg21
I42
sg22
S'200'
p446
sg24
S'800'
p447
sg26
S'Noen bratte heng'
p448
sg28
g347
(g351
S'\x9e\x17\x86\x13\xa8\x83\xc3?'
p449
tp450
Rp451
sg29
g333
sg31
S'2 - Smaa'
p452
sba(irunmatrix
M3Element
p453
(dp454
g3
F2.0
sg4
S'Lite sannsynlig, Mulig'
p455
sg6
g338
sg8
(lp456
I2
aI2
aI2
asg10
S'Possible'
p457
sg12
S'Some'
p458
sg14
g236
sg16
I2
sg17
S'Nat'
p459
sg19
S'Naturlig utloest'
p460
sg21
I3
sg22
S'200'
p461
sg24
S'900'
p462
sg26
S'Noen bratte heng'
p463
sg28
g347
(g351
S'\x00\x00\x00\x00\x00\x00\x00\x00'
p464
tp465
Rp466
sg29
g333
sg31
S'2 - Smaa'
p467
sba(irunmatrix
M3Element
p468
(dp469
g3
Nsg4
S'Sannsynlig, Meget sannsynlig'
p470
sg6
S'gray'
p471
sg8
(lp472
sg10
S'Likely'
p473
sg12
S'Some'
p474
sg14
g66
sg16
I0
sg17
S'High'
p475
sg19
S'Stor tilleggsbelastning'
p476
sg21
Nsg22
S'200'
p477
sg24
S'1000'
p478
sg26
S'Noen bratte heng'
p479
sg28
Nsg29
g333
sg31
S'2 - Smaa'
p480
sba(irunmatrix
M3Element
p481
(dp482
g3
Nsg4
S'Sannsynlig, Meget sannsynlig'
p483
sg6
S'gray'
p484
sg8
(lp485
sg10
S'Likely'
p486
sg12
S'Some'
p487
sg14
g66
sg16
I0
sg17
S'Low'
p488
sg19
S'Liten tilleggsbelastning'
p489
sg21
Nsg22
S'200'
p490
sg24
S'1100'
p491
sg26
S'Noen bratte heng'
p492
sg28
Nsg29
g333
sg31
S'2 - Smaa'
p493
sba(irunmatrix
M3Element
p494
(dp495
g3
Nsg4
S'Sannsynlig, Meget sannsynlig'
p496
sg6
S'white'
p497
sg8
(lp498
sg10
S'Likely'
p499
sg12
S'Some'
p500
sg14
S'#ff9900'
p501
sg16
I3
sg17
S'Nat'
p502
sg19
S'Naturlig utloest'
p503
sg21
Nsg22
S'200'
p504
sg24
S'1200'
p505
sg26
S'Noen bratte heng'
p506
sg28
Nsg29
g333
sg31
S'2 - Smaa'
p507
sba(irunmatrix
M3Element
p508
(dp509
g3
Nsg4
S'Lite sannsynlig, Mulig'
p510
sg6
S'gray'
p511
sg8
(lp512
sg10
S'Possible'
p513
sg12
S'Many'
p514
sg14
g66
sg16
I0
sg17
S'High'
p515
sg19
S'Stor tilleggsbelastning'
p516
sg21
Nsg22
S'200'
p517
sg24
S'1300'
p518
sg26
S'Mange bratte heng'
p519
sg28
Nsg29
g333
sg31
S'2 - Smaa'
p520
sba(irunmatrix
M3Element
p521
(dp522
g3
F2.0
sg4
S'Lite sannsynlig, Mulig'
p523
sg6
g338
sg8
(lp524
I2
asg10
S'Possible'
p525
sg12
S'Many'
p526
sg14
g501
sg16
I3
sg17
S'Low'
p527
sg19
S'Liten tilleggsbelastning'
p528
sg21
I1
sg22
S'200'
p529
sg24
S'1400'
p530
sg26
S'Mange bratte heng'
p531
sg28
g347
(g351
S'\x00\x00\x00\x00\x00\x00\x00\x00'
p532
tp533
Rp534
sg29
g333
sg31
S'2 - Smaa'
p535
sba(irunmatrix
M3Element
p536
(dp537
g3
F2.0
sg4
S'Lite sannsynlig, Mulig'
p538
sg6
g338
sg8
(lp539
I2
aI2
aI2
asg10
S'Possible'
p540
sg12
S'Many'
p541
sg14
g66
sg16
I0
sg17
S'Nat'
p542
sg19
S'Naturlig utloest'
p543
sg21
I3
sg22
S'200'
p544
sg24
S'1500'
p545
sg26
S'Mange bratte heng'
p546
sg28
g347
(g351
S'\x00\x00\x00\x00\x00\x00\x00\x00'
p547
tp548
Rp549
sg29
g333
sg31
S'2 - Smaa'
p550
sba(irunmatrix
M3Element
p551
(dp552
g3
Nsg4
S'Sannsynlig, Meget sannsynlig'
p553
sg6
S'gray'
p554
sg8
(lp555
sg10
S'Likely'
p556
sg12
S'Many'
p557
sg14
g66
sg16
I0
sg17
S'High'
p558
sg19
S'Stor tilleggsbelastning'
p559
sg21
Nsg22
S'200'
p560
sg24
S'1600'
p561
sg26
S'Mange bratte heng'
p562
sg28
Nsg29
g333
sg31
S'2 - Smaa'
p563
sba(irunmatrix
M3Element
p564
(dp565
g3
Nsg4
S'Sannsynlig, Meget sannsynlig'
p566
sg6
S'white'
p567
sg8
(lp568
sg10
S'Likely'
p569
sg12
S'Many'
p570
sg14
S'#ff0000'
p571
sg16
I4
sg17
S'Low'
p572
sg19
S'Liten tilleggsbelastning'
p573
sg21
Nsg22
S'200'
p574
sg24
S'1700'
p575
sg26
S'Mange bratte heng'
p576
sg28
Nsg29
g333
sg31
S'2 - Smaa'
p577
sba(irunmatrix
M3Element
p578
(dp579
g3
Nsg4
S'Sannsynlig, Meget sannsynlig'
p580
sg6
S'white'
p581
sg8
(lp582
sg10
S'Likely'
p583
sg12
S'Many'
p584
sg14
g571
sg16
I4
sg17
S'Nat'
p585
sg19
S'Naturlig utloest'
p586
sg21
Nsg22
S'200'
p587
sg24
S'1800'
p588
sg26
S'Mange bratte heng'
p589
sg28
Nsg29
g333
sg31
S'2 - Smaa'
p590
sba(irunmatrix
M3Element
p591
(dp592
g3
Nsg4
S'Lite sannsynlig, Mulig'
p593
sg6
S'gray'
p594
sg8
(lp595
sg10
S'Possible'
p596
sg12
S'Most'
p597
sg14
g66
sg16
I0
sg17
S'High'
p598
sg19
S'Stor tilleggsbelastning'
p599
sg21
Nsg22
S'200'
p600
sg24
S'1900'
p601
sg26
S'De fleste bratte heng, Ogsaa i mindre bratt terreng'
p602
sg28
Nsg29
g333
sg31
S'2 - Smaa'
p603
sba(irunmatrix
M3Element
p604
(dp605
g3
Nsg4
S'Lite sannsynlig, Mulig'
p606
sg6
S'gray'
p607
sg8
(lp608
sg10
S'Possible'
p609
sg12
S'Most'
p610
sg14
g66
sg16
I0
sg17
S'Low'
p611
sg19
S'Liten tilleggsbelastning'
p612
sg21
Nsg22
S'200'
p613
sg24
S'2000'
p614
sg26
S'De fleste bratte heng, Ogsaa i mindre bratt terreng'
p615
sg28
Nsg29
g333
sg31
S'2 - Smaa'
p616
sba(irunmatrix
M3Element
p617
(dp618
g3
Nsg4
S'Lite sannsynlig, Mulig'
p619
sg6
S'gray'
p620
sg8
(lp621
sg10
S'Possible'
p622
sg12
S'Most'
p623
sg14
g66
sg16
I0
sg17
S'Nat'
p624
sg19
S'Naturlig utloest'
p625
sg21
Nsg22
S'200'
p626
sg24
S'2100'
p627
sg26
S'De fleste bratte heng, Ogsaa i mindre bratt terreng'
p628
sg28
Nsg29
g333
sg31
S'2 - Smaa'
p629
sba(irunmatrix
M3Element
p630
(dp631
g3
Nsg4
S'Sannsynlig, Meget sannsynlig'
p632
sg6
S'gray'
p633
sg8
(lp634
sg10
S'Likely'
p635
sg12
S'Most'
p636
sg14
g66
sg16
I0
sg17
S'High'
p637
sg19
S'Stor tilleggsbelastning'
p638
sg21
Nsg22
S'200'
p639
sg24
S'2200'
p640
sg26
S'De fleste bratte heng, Ogsaa i mindre bratt terreng'
p641
sg28
Nsg29
g333
sg31
S'2 - Smaa'
p642
sba(irunmatrix
M3Element
p643
(dp644
g3
Nsg4
S'Sannsynlig, Meget sannsynlig'
p645
sg6
S'gray'
p646
sg8
(lp647
sg10
S'Likely'
p648
sg12
S'Most'
p649
sg14
g66
sg16
I0
sg17
S'Low'
p650
sg19
S'Liten tilleggsbelastning'
p651
sg21
Nsg22
S'200'
p652
sg24
S'2300'
p653
sg26
S'De fleste bratte heng, Ogsaa i mindre bratt terreng'
p654
sg28
Nsg29
g333
sg31
S'2 - Smaa'
p655
sba(irunmatrix
M3Element
p656
(dp657
g3
Nsg4
S'Sannsynlig, Meget sannsynlig'
p658
sg6
S'white'
p659
sg8
(lp660
sg10
S'Likely'
p661
sg12
S'Most'
p662
sg14
g66
sg16
I0
sg17
S'Nat'
p663
sg19
S'Naturlig utloest'
p664
sg21
Nsg22
S'200'
p665
sg24
S'2400'
p666
sg26
S'De fleste bratte heng, Ogsaa i mindre bratt terreng'
p667
sg28
Nsg29
g333
sg31
S'2 - Smaa'
p668
sba(irunmatrix
M3Element
p669
(dp670
g3
Nsg4
S'Lite sannsynlig, Mulig'
p671
sg6
S'white'
p672
sg8
(lp673
sg10
S'Possible'
p674
sg12
S'Isolated'
p675
sg14
g15
sg16
I1
sg17
S'High'
p676
sg19
S'Stor tilleggsbelastning'
p677
sg21
Nsg22
S'300'
p678
sg24
S'100'
p679
sg26
S'Isolerte faresoner'
p680
sg28
Nsg29
S'3'
p681
sg31
S'3 - Middels'
p682
sba(irunmatrix
M3Element
p683
(dp684
g3
F2.0
sg4
S'Lite sannsynlig, Mulig'
p685
sg6
g338
sg8
(lp686
I2
asg10
S'Possible'
p687
sg12
S'Isolated'
p688
sg14
g236
sg16
I2
sg17
S'Low'
p689
sg19
S'Liten tilleggsbelastning'
p690
sg21
I1
sg22
S'300'
p691
sg24
S'200'
p692
sg26
S'Isolerte faresoner'
p693
sg28
g347
(g351
S'\x00\x00\x00\x00\x00\x00\x00\x00'
p694
tp695
Rp696
sg29
g681
sg31
S'3 - Middels'
p697
sba(irunmatrix
M3Element
p698
(dp699
g3
F2.5
sg4
S'Lite sannsynlig, Mulig'
p700
sg6
S'#ff9900'
p701
sg8
(lp702
I2
aI3
asg10
S'Possible'
p703
sg12
S'Isolated'
p704
sg14
g236
sg16
I2
sg17
S'Nat'
p705
sg19
S'Naturlig utloest'
p706
sg21
I2
sg22
S'300'
p707
sg24
S'300'
p708
sg26
S'Isolerte faresoner'
p709
sg28
g347
(g351
S'\x00\x00\x00\x00\x00\x00\xe0?'
p710
tp711
Rp712
sg29
g681
sg31
S'3 - Middels'
p713
sba(irunmatrix
M3Element
p714
(dp715
g3
Nsg4
S'Sannsynlig, Meget sannsynlig'
p716
sg6
S'gray'
p717
sg8
(lp718
sg10
S'Likely'
p719
sg12
S'Isolated'
p720
sg14
g66
sg16
I0
sg17
S'High'
p721
sg19
S'Stor tilleggsbelastning'
p722
sg21
Nsg22
S'300'
p723
sg24
S'400'
p724
sg26
S'Isolerte faresoner'
p725
sg28
Nsg29
g681
sg31
S'3 - Middels'
p726
sba(irunmatrix
M3Element
p727
(dp728
g3
Nsg4
S'Sannsynlig, Meget sannsynlig'
p729
sg6
S'gray'
p730
sg8
(lp731
sg10
S'Likely'
p732
sg12
S'Isolated'
p733
sg14
g66
sg16
I0
sg17
S'Low'
p734
sg19
S'Liten tilleggsbelastning'
p735
sg21
Nsg22
S'300'
p736
sg24
S'500'
p737
sg26
S'Isolerte faresoner'
p738
sg28
Nsg29
g681
sg31
S'3 - Middels'
p739
sba(irunmatrix
M3Element
p740
(dp741
g3
Nsg4
S'Sannsynlig, Meget sannsynlig'
p742
sg6
S'gray'
p743
sg8
(lp744
sg10
S'Likely'
p745
sg12
S'Isolated'
p746
sg14
g66
sg16
I0
sg17
S'Nat'
p747
sg19
S'Naturlig utloest'
p748
sg21
Nsg22
S'300'
p749
sg24
S'600'
p750
sg26
S'Isolerte faresoner'
p751
sg28
Nsg29
g681
sg31
S'3 - Middels'
p752
sba(irunmatrix
M3Element
p753
(dp754
g3
F2.0416666666666665
sg4
S'Lite sannsynlig, Mulig'
p755
sg6
g338
sg8
(lp756
I2
aI2
aI2
aI2
aI2
aI3
aI2
aI2
aI2
aI2
aI2
aI2
aI2
aI2
aI2
aI2
aI2
aI2
aI2
aI2
aI2
aI2
aI2
aI2
asg10
S'Possible'
p757
sg12
S'Some'
p758
sg14
g236
sg16
I2
sg17
S'High'
p759
sg19
S'Stor tilleggsbelastning'
p760
sg21
I24
sg22
S'300'
p761
sg24
S'700'
p762
sg26
S'Noen bratte heng'
p763
sg28
g347
(g351
S'\x1d\xb0\x9e\x9c\xe8\x93\xc9?'
p764
tp765
Rp766
sg29
g681
sg31
S'3 - Middels'
p767
sba(irunmatrix
M3Element
p768
(dp769
g3
F3.0
sg4
S'Lite sannsynlig, Mulig'
p770
sg6
g701
sg8
(lp771
I3
aI3
aI3
aI3
aI3
aI3
aI3
aI3
aI3
aI3
aI3
aI3
aI3
aI3
aI3
aI3
aI3
aI3
aI3
aI3
aI3
aI3
aI3
aI3
aI3
asg10
S'Possible'
p772
sg12
S'Some'
p773
sg14
g501
sg16
I3
sg17
S'Low'
p774
sg19
S'Liten tilleggsbelastning'
p775
sg21
I25
sg22
S'300'
p776
sg24
S'800'
p777
sg26
S'Noen bratte heng'
p778
sg28
g347
(g351
S'\x00\x00\x00\x00\x00\x00\x00\x00'
p779
tp780
Rp781
sg29
g681
sg31
S'3 - Middels'
p782
sba(irunmatrix
M3Element
p783
(dp784
g3
F3.0
sg4
S'Lite sannsynlig, Mulig'
p785
sg6
g701
sg8
(lp786
I3
aI3
aI3
aI3
aI3
aI3
aI3
aI3
aI3
aI3
aI3
aI3
aI3
asg10
S'Possible'
p787
sg12
S'Some'
p788
sg14
g501
sg16
I3
sg17
S'Nat'
p789
sg19
S'Naturlig utloest'
p790
sg21
I13
sg22
S'300'
p791
sg24
S'900'
p792
sg26
S'Noen bratte heng'
p793
sg28
g347
(g351
S'\x00\x00\x00\x00\x00\x00\x00\x00'
p794
tp795
Rp796
sg29
g681
sg31
S'3 - Middels'
p797
sba(irunmatrix
M3Element
p798
(dp799
g3
Nsg4
S'Sannsynlig, Meget sannsynlig'
p800
sg6
S'gray'
p801
sg8
(lp802
sg10
S'Likely'
p803
sg12
S'Some'
p804
sg14
g66
sg16
I0
sg17
S'High'
p805
sg19
S'Stor tilleggsbelastning'
p806
sg21
Nsg22
S'300'
p807
sg24
S'1000'
p808
sg26
S'Noen bratte heng'
p809
sg28
Nsg29
g681
sg31
S'3 - Middels'
p810
sba(irunmatrix
M3Element
p811
(dp812
g3
Nsg4
S'Sannsynlig, Meget sannsynlig'
p813
sg6
S'gray'
p814
sg8
(lp815
sg10
S'Likely'
p816
sg12
S'Some'
p817
sg14
g66
sg16
I0
sg17
S'Low'
p818
sg19
S'Liten tilleggsbelastning'
p819
sg21
Nsg22
S'300'
p820
sg24
S'1100'
p821
sg26
S'Noen bratte heng'
p822
sg28
Nsg29
g681
sg31
S'3 - Middels'
p823
sba(irunmatrix
M3Element
p824
(dp825
g3
F4.0
sg4
S'Sannsynlig, Meget sannsynlig'
p826
sg6
S'#ff0000'
p827
sg8
(lp828
I4
aI4
aI4
aI4
aI4
aI4
aI4
aI4
aI4
asg10
S'Likely'
p829
sg12
S'Some'
p830
sg14
g571
sg16
I4
sg17
S'Nat'
p831
sg19
S'Naturlig utloest'
p832
sg21
I9
sg22
S'300'
p833
sg24
S'1200'
p834
sg26
S'Noen bratte heng'
p835
sg28
g347
(g351
S'\x00\x00\x00\x00\x00\x00\x00\x00'
p836
tp837
Rp838
sg29
g681
sg31
S'3 - Middels'
p839
sba(irunmatrix
M3Element
p840
(dp841
g3
Nsg4
S'Lite sannsynlig, Mulig'
p842
sg6
S'gray'
p843
sg8
(lp844
sg10
S'Possible'
p845
sg12
S'Many'
p846
sg14
g66
sg16
I0
sg17
S'High'
p847
sg19
S'Stor tilleggsbelastning'
p848
sg21
Nsg22
S'300'
p849
sg24
S'1300'
p850
sg26
S'Mange bratte heng'
p851
sg28
Nsg29
g681
sg31
S'3 - Middels'
p852
sba(irunmatrix
M3Element
p853
(dp854
g3
Nsg4
S'Lite sannsynlig, Mulig'
p855
sg6
S'white'
p856
sg8
(lp857
sg10
S'Possible'
p858
sg12
S'Many'
p859
sg14
g571
sg16
I4
sg17
S'Low'
p860
sg19
S'Liten tilleggsbelastning'
p861
sg21
Nsg22
S'300'
p862
sg24
S'1400'
p863
sg26
S'Mange bratte heng'
p864
sg28
Nsg29
g681
sg31
S'3 - Middels'
p865
sba(irunmatrix
M3Element
p866
(dp867
g3
Nsg4
S'Lite sannsynlig, Mulig'
p868
sg6
S'gray'
p869
sg8
(lp870
sg10
S'Possible'
p871
sg12
S'Many'
p872
sg14
g66
sg16
I0
sg17
S'Nat'
p873
sg19
S'Naturlig utloest'
p874
sg21
Nsg22
S'300'
p875
sg24
S'1500'
p876
sg26
S'Mange bratte heng'
p877
sg28
Nsg29
g681
sg31
S'3 - Middels'
p878
sba(irunmatrix
M3Element
p879
(dp880
g3
Nsg4
S'Sannsynlig, Meget sannsynlig'
p881
sg6
S'gray'
p882
sg8
(lp883
sg10
S'Likely'
p884
sg12
S'Many'
p885
sg14
g66
sg16
I0
sg17
S'High'
p886
sg19
S'Stor tilleggsbelastning'
p887
sg21
Nsg22
S'300'
p888
sg24
S'1600'
p889
sg26
S'Mange bratte heng'
p890
sg28
Nsg29
g681
sg31
S'3 - Middels'
p891
sba(irunmatrix
M3Element
p892
(dp893
g3
Nsg4
S'Sannsynlig, Meget sannsynlig'
p894
sg6
S'white'
p895
sg8
(lp896
sg10
S'Likely'
p897
sg12
S'Many'
p898
sg14
g571
sg16
I4
sg17
S'Low'
p899
sg19
S'Liten tilleggsbelastning'
p900
sg21
Nsg22
S'300'
p901
sg24
S'1700'
p902
sg26
S'Mange bratte heng'
p903
sg28
Nsg29
g681
sg31
S'3 - Middels'
p904
sba(irunmatrix
M3Element
p905
(dp906
g3
Nsg4
S'Sannsynlig, Meget sannsynlig'
p907
sg6
S'white'
p908
sg8
(lp909
sg10
S'Likely'
p910
sg12
S'Many'
p911
sg14
g571
sg16
I4
sg17
S'Nat'
p912
sg19
S'Naturlig utloest'
p913
sg21
Nsg22
S'300'
p914
sg24
S'1800'
p915
sg26
S'Mange bratte heng'
p916
sg28
Nsg29
g681
sg31
S'3 - Middels'
p917
sba(irunmatrix
M3Element
p918
(dp919
g3
Nsg4
S'Lite sannsynlig, Mulig'
p920
sg6
S'gray'
p921
sg8
(lp922
sg10
S'Possible'
p923
sg12
S'Most'
p924
sg14
g66
sg16
I0
sg17
S'High'
p925
sg19
S'Stor tilleggsbelastning'
p926
sg21
Nsg22
S'300'
p927
sg24
S'1900'
p928
sg26
S'De fleste bratte heng, Ogsaa i mindre bratt terreng'
p929
sg28
Nsg29
g681
sg31
S'3 - Middels'
p930
sba(irunmatrix
M3Element
p931
(dp932
g3
Nsg4
S'Lite sannsynlig, Mulig'
p933
sg6
S'gray'
p934
sg8
(lp935
sg10
S'Possible'
p936
sg12
S'Most'
p937
sg14
g66
sg16
I0
sg17
S'Low'
p938
sg19
S'Liten tilleggsbelastning'
p939
sg21
Nsg22
S'300'
p940
sg24
S'2000'
p941
sg26
S'De fleste bratte heng, Ogsaa i mindre bratt terreng'
p942
sg28
Nsg29
g681
sg31
S'3 - Middels'
p943
sba(irunmatrix
M3Element
p944
(dp945
g3
Nsg4
S'Lite sannsynlig, Mulig'
p946
sg6
S'gray'
p947
sg8
(lp948
sg10
S'Possible'
p949
sg12
S'Most'
p950
sg14
g66
sg16
I0
sg17
S'Nat'
p951
sg19
S'Naturlig utloest'
p952
sg21
Nsg22
S'300'
p953
sg24
S'2100'
p954
sg26
S'De fleste bratte heng, Ogsaa i mindre bratt terreng'
p955
sg28
Nsg29
g681
sg31
S'3 - Middels'
p956
sba(irunmatrix
M3Element
p957
(dp958
g3
Nsg4
S'Sannsynlig, Meget sannsynlig'
p959
sg6
S'gray'
p960
sg8
(lp961
sg10
S'Likely'
p962
sg12
S'Most'
p963
sg14
g66
sg16
I0
sg17
S'High'
p964
sg19
S'Stor tilleggsbelastning'
p965
sg21
Nsg22
S'300'
p966
sg24
S'2200'
p967
sg26
S'De fleste bratte heng, Ogsaa i mindre bratt terreng'
p968
sg28
Nsg29
g681
sg31
S'3 - Middels'
p969
sba(irunmatrix
M3Element
p970
(dp971
g3
Nsg4
S'Sannsynlig, Meget sannsynlig'
p972
sg6
S'gray'
p973
sg8
(lp974
sg10
S'Likely'
p975
sg12
S'Most'
p976
sg14
g66
sg16
I0
sg17
S'Low'
p977
sg19
S'Liten tilleggsbelastning'
p978
sg21
Nsg22
S'300'
p979
sg24
S'2300'
p980
sg26
S'De fleste bratte heng, Ogsaa i mindre bratt terreng'
p981
sg28
Nsg29
g681
sg31
S'3 - Middels'
p982
sba(irunmatrix
M3Element
p983
(dp984
g3
Nsg4
S'Sannsynlig, Meget sannsynlig'
p985
sg6
S'white'
p986
sg8
(lp987
sg10
S'Likely'
p988
sg12
S'Most'
p989
sg14
g66
sg16
I0
sg17
S'Nat'
p990
sg19
S'Naturlig utloest'
p991
sg21
Nsg22
S'300'
p992
sg24
S'2400'
p993
sg26
S'De fleste bratte heng, Ogsaa i mindre bratt terreng'
p994
sg28
Nsg29
g681
sg31
S'3 - Middels'
p995
sba(irunmatrix
M3Element
p996
(dp997
g3
Nsg4
S'Lite sannsynlig, Mulig'
p998
sg6
S'white'
p999
sg8
(lp1000
sg10
S'Possible'
p1001
sg12
S'Isolated'
p1002
sg14
g236
sg16
I2
sg17
S'High'
p1003
sg19
S'Stor tilleggsbelastning'
p1004
sg21
Nsg22
S'400'
p1005
sg24
S'100'
p1006
sg26
S'Isolerte faresoner'
p1007
sg28
Nsg29
S'4'
p1008
sg31
S'4 - Store'
p1009
sba(irunmatrix
M3Element
p1010
(dp1011
g3
Nsg4
S'Lite sannsynlig, Mulig'
p1012
sg6
S'white'
p1013
sg8
(lp1014
sg10
S'Possible'
p1015
sg12
S'Isolated'
p1016
sg14
g501
sg16
I3
sg17
S'Low'
p1017
sg19
S'Liten tilleggsbelastning'
p1018
sg21
Nsg22
S'400'
p1019
sg24
S'200'
p1020
sg26
S'Isolerte faresoner'
p1021
sg28
Nsg29
g1008
sg31
S'4 - Store'
p1022
sba(irunmatrix
M3Element
p1023
(dp1024
g3
F3.0
sg4
S'Lite sannsynlig, Mulig'
p1025
sg6
g701
sg8
(lp1026
I3
aI3
aI3
asg10
S'Possible'
p1027
sg12
S'Isolated'
p1028
sg14
g501
sg16
I3
sg17
S'Nat'
p1029
sg19
S'Naturlig utloest'
p1030
sg21
I3
sg22
S'400'
p1031
sg24
S'300'
p1032
sg26
S'Isolerte faresoner'
p1033
sg28
g347
(g351
S'\x00\x00\x00\x00\x00\x00\x00\x00'
p1034
tp1035
Rp1036
sg29
g1008
sg31
S'4 - Store'
p1037
sba(irunmatrix
M3Element
p1038
(dp1039
g3
Nsg4
S'Sannsynlig, Meget sannsynlig'
p1040
sg6
S'gray'
p1041
sg8
(lp1042
sg10
S'Likely'
p1043
sg12
S'Isolated'
p1044
sg14
g66
sg16
I0
sg17
S'High'
p1045
sg19
S'Stor tilleggsbelastning'
p1046
sg21
Nsg22
S'400'
p1047
sg24
S'400'
p1048
sg26
S'Isolerte faresoner'
p1049
sg28
Nsg29
g1008
sg31
S'4 - Store'
p1050
sba(irunmatrix
M3Element
p1051
(dp1052
g3
Nsg4
S'Sannsynlig, Meget sannsynlig'
p1053
sg6
S'gray'
p1054
sg8
(lp1055
sg10
S'Likely'
p1056
sg12
S'Isolated'
p1057
sg14
g66
sg16
I0
sg17
S'Low'
p1058
sg19
S'Liten tilleggsbelastning'
p1059
sg21
Nsg22
S'400'
p1060
sg24
S'500'
p1061
sg26
S'Isolerte faresoner'
p1062
sg28
Nsg29
g1008
sg31
S'4 - Store'
p1063
sba(irunmatrix
M3Element
p1064
(dp1065
g3
Nsg4
S'Sannsynlig, Meget sannsynlig'
p1066
sg6
S'gray'
p1067
sg8
(lp1068
sg10
S'Likely'
p1069
sg12
S'Isolated'
p1070
sg14
g66
sg16
I0
sg17
S'Nat'
p1071
sg19
S'Naturlig utloest'
p1072
sg21
Nsg22
S'400'
p1073
sg24
S'600'
p1074
sg26
S'Isolerte faresoner'
p1075
sg28
Nsg29
g1008
sg31
S'4 - Store'
p1076
sba(irunmatrix
M3Element
p1077
(dp1078
g3
Nsg4
S'Lite sannsynlig, Mulig'
p1079
sg6
S'white'
p1080
sg8
(lp1081
sg10
S'Possible'
p1082
sg12
S'Some'
p1083
sg14
g501
sg16
I3
sg17
S'High'
p1084
sg19
S'Stor tilleggsbelastning'
p1085
sg21
Nsg22
S'400'
p1086
sg24
S'700'
p1087
sg26
S'Noen bratte heng'
p1088
sg28
Nsg29
g1008
sg31
S'4 - Store'
p1089
sba(irunmatrix
M3Element
p1090
(dp1091
g3
Nsg4
S'Lite sannsynlig, Mulig'
p1092
sg6
S'white'
p1093
sg8
(lp1094
sg10
S'Possible'
p1095
sg12
S'Some'
p1096
sg14
g571
sg16
I4
sg17
S'Low'
p1097
sg19
S'Liten tilleggsbelastning'
p1098
sg21
Nsg22
S'400'
p1099
sg24
S'800'
p1100
sg26
S'Noen bratte heng'
p1101
sg28
Nsg29
g1008
sg31
S'4 - Store'
p1102
sba(irunmatrix
M3Element
p1103
(dp1104
g3
Nsg4
S'Lite sannsynlig, Mulig'
p1105
sg6
S'white'
p1106
sg8
(lp1107
sg10
S'Possible'
p1108
sg12
S'Some'
p1109
sg14
g571
sg16
I4
sg17
S'Nat'
p1110
sg19
S'Naturlig utloest'
p1111
sg21
Nsg22
S'400'
p1112
sg24
S'900'
p1113
sg26
S'Noen bratte heng'
p1114
sg28
Nsg29
g1008
sg31
S'4 - Store'
p1115
sba(irunmatrix
M3Element
p1116
(dp1117
g3
Nsg4
S'Sannsynlig, Meget sannsynlig'
p1118
sg6
S'gray'
p1119
sg8
(lp1120
sg10
S'Likely'
p1121
sg12
S'Some'
p1122
sg14
g66
sg16
I0
sg17
S'High'
p1123
sg19
S'Stor tilleggsbelastning'
p1124
sg21
Nsg22
S'400'
p1125
sg24
S'1000'
p1126
sg26
S'Noen bratte heng'
p1127
sg28
Nsg29
g1008
sg31
S'4 - Store'
p1128
sba(irunmatrix
M3Element
p1129
(dp1130
g3
Nsg4
S'Sannsynlig, Meget sannsynlig'
p1131
sg6
S'gray'
p1132
sg8
(lp1133
sg10
S'Likely'
p1134
sg12
S'Some'
p1135
sg14
g66
sg16
I0
sg17
S'Low'
p1136
sg19
S'Liten tilleggsbelastning'
p1137
sg21
Nsg22
S'400'
p1138
sg24
S'1100'
p1139
sg26
S'Noen bratte heng'
p1140
sg28
Nsg29
g1008
sg31
S'4 - Store'
p1141
sba(irunmatrix
M3Element
p1142
(dp1143
g3
Nsg4
S'Sannsynlig, Meget sannsynlig'
p1144
sg6
S'white'
p1145
sg8
(lp1146
sg10
S'Likely'
p1147
sg12
S'Some'
p1148
sg14
g571
sg16
I4
sg17
S'Nat'
p1149
sg19
S'Naturlig utloest'
p1150
sg21
Nsg22
S'400'
p1151
sg24
S'1200'
p1152
sg26
S'Noen bratte heng'
p1153
sg28
Nsg29
g1008
sg31
S'4 - Store'
p1154
sba(irunmatrix
M3Element
p1155
(dp1156
g3
Nsg4
S'Lite sannsynlig, Mulig'
p1157
sg6
S'gray'
p1158
sg8
(lp1159
sg10
S'Possible'
p1160
sg12
S'Many'
p1161
sg14
g66
sg16
I0
sg17
S'High'
p1162
sg19
S'Stor tilleggsbelastning'
p1163
sg21
Nsg22
S'400'
p1164
sg24
S'1300'
p1165
sg26
S'Mange bratte heng'
p1166
sg28
Nsg29
g1008
sg31
S'4 - Store'
p1167
sba(irunmatrix
M3Element
p1168
(dp1169
g3
Nsg4
S'Lite sannsynlig, Mulig'
p1170
sg6
S'white'
p1171
sg8
(lp1172
sg10
S'Possible'
p1173
sg12
S'Many'
p1174
sg14
g66
sg16
I0
sg17
S'Low'
p1175
sg19
S'Liten tilleggsbelastning'
p1176
sg21
Nsg22
S'400'
p1177
sg24
S'1400'
p1178
sg26
S'Mange bratte heng'
p1179
sg28
Nsg29
g1008
sg31
S'4 - Store'
p1180
sba(irunmatrix
M3Element
p1181
(dp1182
g3
Nsg4
S'Lite sannsynlig, Mulig'
p1183
sg6
S'gray'
p1184
sg8
(lp1185
sg10
S'Possible'
p1186
sg12
S'Many'
p1187
sg14
g66
sg16
I0
sg17
S'Nat'
p1188
sg19
S'Naturlig utloest'
p1189
sg21
Nsg22
S'400'
p1190
sg24
S'1500'
p1191
sg26
S'Mange bratte heng'
p1192
sg28
Nsg29
g1008
sg31
S'4 - Store'
p1193
sba(irunmatrix
M3Element
p1194
(dp1195
g3
Nsg4
S'Sannsynlig, Meget sannsynlig'
p1196
sg6
S'gray'
p1197
sg8
(lp1198
sg10
S'Likely'
p1199
sg12
S'Many'
p1200
sg14
g66
sg16
I0
sg17
S'High'
p1201
sg19
S'Stor tilleggsbelastning'
p1202
sg21
Nsg22
S'400'
p1203
sg24
S'1600'
p1204
sg26
S'Mange bratte heng'
p1205
sg28
Nsg29
g1008
sg31
S'4 - Store'
p1206
sba(irunmatrix
M3Element
p1207
(dp1208
g3
Nsg4
S'Sannsynlig, Meget sannsynlig'
p1209
sg6
S'white'
p1210
sg8
(lp1211
sg10
S'Likely'
p1212
sg12
S'Many'
p1213
sg14
g66
sg16
I0
sg17
S'Low'
p1214
sg19
S'Liten tilleggsbelastning'
p1215
sg21
Nsg22
S'400'
p1216
sg24
S'1700'
p1217
sg26
S'Mange bratte heng'
p1218
sg28
Nsg29
g1008
sg31
S'4 - Store'
p1219
sba(irunmatrix
M3Element
p1220
(dp1221
g3
Nsg4
S'Sannsynlig, Meget sannsynlig'
p1222
sg6
S'white'
p1223
sg8
(lp1224
sg10
S'Likely'
p1225
sg12
S'Many'
p1226
sg14
S'k'
p1227
sg16
I5
sg17
S'Nat'
p1228
sg19
S'Naturlig utloest'
p1229
sg21
Nsg22
S'400'
p1230
sg24
S'1800'
p1231
sg26
S'Mange bratte heng'
p1232
sg28
Nsg29
g1008
sg31
S'4 - Store'
p1233
sba(irunmatrix
M3Element
p1234
(dp1235
g3
Nsg4
S'Lite sannsynlig, Mulig'
p1236
sg6
S'gray'
p1237
sg8
(lp1238
sg10
S'Possible'
p1239
sg12
S'Most'
p1240
sg14
g66
sg16
I0
sg17
S'High'
p1241
sg19
S'Stor tilleggsbelastning'
p1242
sg21
Nsg22
S'400'
p1243
sg24
S'1900'
p1244
sg26
S'De fleste bratte heng, Ogsaa i mindre bratt terreng'
p1245
sg28
Nsg29
g1008
sg31
S'4 - Store'
p1246
sba(irunmatrix
M3Element
p1247
(dp1248
g3
Nsg4
S'Lite sannsynlig, Mulig'
p1249
sg6
S'gray'
p1250
sg8
(lp1251
sg10
S'Possible'
p1252
sg12
S'Most'
p1253
sg14
g66
sg16
I0
sg17
S'Low'
p1254
sg19
S'Liten tilleggsbelastning'
p1255
sg21
Nsg22
S'400'
p1256
sg24
S'2000'
p1257
sg26
S'De fleste bratte heng, Ogsaa i mindre bratt terreng'
p1258
sg28
Nsg29
g1008
sg31
S'4 - Store'
p1259
sba(irunmatrix
M3Element
p1260
(dp1261
g3
Nsg4
S'Lite sannsynlig, Mulig'
p1262
sg6
S'gray'
p1263
sg8
(lp1264
sg10
S'Possible'
p1265
sg12
S'Most'
p1266
sg14
g66
sg16
I0
sg17
S'Nat'
p1267
sg19
S'Naturlig utloest'
p1268
sg21
Nsg22
S'400'
p1269
sg24
S'2100'
p1270
sg26
S'De fleste bratte heng, Ogsaa i mindre bratt terreng'
p1271
sg28
Nsg29
g1008
sg31
S'4 - Store'
p1272
sba(irunmatrix
M3Element
p1273
(dp1274
g3
Nsg4
S'Sannsynlig, Meget sannsynlig'
p1275
sg6
S'gray'
p1276
sg8
(lp1277
sg10
S'Likely'
p1278
sg12
S'Most'
p1279
sg14
g66
sg16
I0
sg17
S'High'
p1280
sg19
S'Stor tilleggsbelastning'
p1281
sg21
Nsg22
S'400'
p1282
sg24
S'2200'
p1283
sg26
S'De fleste bratte heng, Ogsaa i mindre bratt terreng'
p1284
sg28
Nsg29
g1008
sg31
S'4 - Store'
p1285
sba(irunmatrix
M3Element
p1286
(dp1287
g3
Nsg4
S'Sannsynlig, Meget sannsynlig'
p1288
sg6
S'gray'
p1289
sg8
(lp1290
sg10
S'Likely'
p1291
sg12
S'Most'
p1292
sg14
g66
sg16
I0
sg17
S'Low'
p1293
sg19
S'Liten tilleggsbelastning'
p1294
sg21
Nsg22
S'400'
p1295
sg24
S'2300'
p1296
sg26
S'De fleste bratte heng, Ogsaa i mindre bratt terreng'
p1297
sg28
Nsg29
g1008
sg31
S'4 - Store'
p1298
sba(irunmatrix
M3Element
p1299
(dp1300
g3
Nsg4
S'Sannsynlig, Meget sannsynlig'
p1301
sg6
S'white'
p1302
sg8
(lp1303
sg10
S'Likely'
p1304
sg12
S'Most'
p1305
sg14
g66
sg16
I0
sg17
S'Nat'
p1306
sg19
S'Naturlig utloest'
p1307
sg21
Nsg22
S'400'
p1308
sg24
S'2400'
p1309
sg26
S'De fleste bratte heng, Ogsaa i mindre bratt terreng'
p1310
sg28
Nsg29
g1008
sg31
S'4 - Store'
p1311
sba(irunmatrix
M3Element
p1312
(dp1313
g3
Nsg4
S'Lite sannsynlig, Mulig'
p1314
sg6
S'white'
p1315
sg8
(lp1316
sg10
S'Possible'
p1317
sg12
S'Isolated'
p1318
sg14
g66
sg16
I0
sg17
S'High'
p1319
sg19
S'Stor tilleggsbelastning'
p1320
sg21
Nsg22
S'500'
p1321
sg24
S'100'
p1322
sg26
S'Isolerte faresoner'
p1323
sg28
Nsg29
S'5'
p1324
sg31
S'5 - Svaert store'
p1325
sba(irunmatrix
M3Element
p1326
(dp1327
g3
Nsg4
S'Lite sannsynlig, Mulig'
p1328
sg6
S'white'
p1329
sg8
(lp1330
sg10
S'Possible'
p1331
sg12
S'Isolated'
p1332
sg14
g66
sg16
I0
sg17
S'Low'
p1333
sg19
S'Liten tilleggsbelastning'
p1334
sg21
Nsg22
S'500'
p1335
sg24
S'200'
p1336
sg26
S'Isolerte faresoner'
p1337
sg28
Nsg29
g1324
sg31
S'5 - Svaert store'
p1338
sba(irunmatrix
M3Element
p1339
(dp1340
g3
Nsg4
S'Lite sannsynlig, Mulig'
p1341
sg6
S'white'
p1342
sg8
(lp1343
sg10
S'Possible'
p1344
sg12
S'Isolated'
p1345
sg14
g66
sg16
I0
sg17
S'Nat'
p1346
sg19
S'Naturlig utloest'
p1347
sg21
Nsg22
S'500'
p1348
sg24
S'300'
p1349
sg26
S'Isolerte faresoner'
p1350
sg28
Nsg29
g1324
sg31
S'5 - Svaert store'
p1351
sba(irunmatrix
M3Element
p1352
(dp1353
g3
Nsg4
S'Sannsynlig, Meget sannsynlig'
p1354
sg6
S'gray'
p1355
sg8
(lp1356
sg10
S'Likely'
p1357
sg12
S'Isolated'
p1358
sg14
g66
sg16
I0
sg17
S'High'
p1359
sg19
S'Stor tilleggsbelastning'
p1360
sg21
Nsg22
S'500'
p1361
sg24
S'400'
p1362
sg26
S'Isolerte faresoner'
p1363
sg28
Nsg29
g1324
sg31
S'5 - Svaert store'
p1364
sba(irunmatrix
M3Element
p1365
(dp1366
g3
Nsg4
S'Sannsynlig, Meget sannsynlig'
p1367
sg6
S'gray'
p1368
sg8
(lp1369
sg10
S'Likely'
p1370
sg12
S'Isolated'
p1371
sg14
g66
sg16
I0
sg17
S'Low'
p1372
sg19
S'Liten tilleggsbelastning'
p1373
sg21
Nsg22
S'500'
p1374
sg24
S'500'
p1375
sg26
S'Isolerte faresoner'
p1376
sg28
Nsg29
g1324
sg31
S'5 - Svaert store'
p1377
sba(irunmatrix
M3Element
p1378
(dp1379
g3
Nsg4
S'Sannsynlig, Meget sannsynlig'
p1380
sg6
S'gray'
p1381
sg8
(lp1382
sg10
S'Likely'
p1383
sg12
S'Isolated'
p1384
sg14
g66
sg16
I0
sg17
S'Nat'
p1385
sg19
S'Naturlig utloest'
p1386
sg21
Nsg22
S'500'
p1387
sg24
S'600'
p1388
sg26
S'Isolerte faresoner'
p1389
sg28
Nsg29
g1324
sg31
S'5 - Svaert store'
p1390
sba(irunmatrix
M3Element
p1391
(dp1392
g3
Nsg4
S'Lite sannsynlig, Mulig'
p1393
sg6
S'white'
p1394
sg8
(lp1395
sg10
S'Possible'
p1396
sg12
S'Some'
p1397
sg14
g66
sg16
I0
sg17
S'High'
p1398
sg19
S'Stor tilleggsbelastning'
p1399
sg21
Nsg22
S'500'
p1400
sg24
S'700'
p1401
sg26
S'Noen bratte heng'
p1402
sg28
Nsg29
g1324
sg31
S'5 - Svaert store'
p1403
sba(irunmatrix
M3Element
p1404
(dp1405
g3
Nsg4
S'Lite sannsynlig, Mulig'
p1406
sg6
S'white'
p1407
sg8
(lp1408
sg10
S'Possible'
p1409
sg12
S'Some'
p1410
sg14
g66
sg16
I0
sg17
S'Low'
p1411
sg19
S'Liten tilleggsbelastning'
p1412
sg21
Nsg22
S'500'
p1413
sg24
S'800'
p1414
sg26
S'Noen bratte heng'
p1415
sg28
Nsg29
g1324
sg31
S'5 - Svaert store'
p1416
sba(irunmatrix
M3Element
p1417
(dp1418
g3
Nsg4
S'Lite sannsynlig, Mulig'
p1419
sg6
S'white'
p1420
sg8
(lp1421
sg10
S'Possible'
p1422
sg12
S'Some'
p1423
sg14
g66
sg16
I0
sg17
S'Nat'
p1424
sg19
S'Naturlig utloest'
p1425
sg21
Nsg22
S'500'
p1426
sg24
S'900'
p1427
sg26
S'Noen bratte heng'
p1428
sg28
Nsg29
g1324
sg31
S'5 - Svaert store'
p1429
sba(irunmatrix
M3Element
p1430
(dp1431
g3
Nsg4
S'Sannsynlig, Meget sannsynlig'
p1432
sg6
S'gray'
p1433
sg8
(lp1434
sg10
S'Likely'
p1435
sg12
S'Some'
p1436
sg14
g66
sg16
I0
sg17
S'High'
p1437
sg19
S'Stor tilleggsbelastning'
p1438
sg21
Nsg22
S'500'
p1439
sg24
S'1000'
p1440
sg26
S'Noen bratte heng'
p1441
sg28
Nsg29
g1324
sg31
S'5 - Svaert store'
p1442
sba(irunmatrix
M3Element
p1443
(dp1444
g3
Nsg4
S'Sannsynlig, Meget sannsynlig'
p1445
sg6
S'gray'
p1446
sg8
(lp1447
sg10
S'Likely'
p1448
sg12
S'Some'
p1449
sg14
g66
sg16
I0
sg17
S'Low'
p1450
sg19
S'Liten tilleggsbelastning'
p1451
sg21
Nsg22
S'500'
p1452
sg24
S'1100'
p1453
sg26
S'Noen bratte heng'
p1454
sg28
Nsg29
g1324
sg31
S'5 - Svaert store'
p1455
sba(irunmatrix
M3Element
p1456
(dp1457
g3
Nsg4
S'Sannsynlig, Meget sannsynlig'
p1458
sg6
S'white'
p1459
sg8
(lp1460
sg10
S'Likely'
p1461
sg12
S'Some'
p1462
sg14
g66
sg16
I0
sg17
S'Nat'
p1463
sg19
S'Naturlig utloest'
p1464
sg21
Nsg22
S'500'
p1465
sg24
S'1200'
p1466
sg26
S'Noen bratte heng'
p1467
sg28
Nsg29
g1324
sg31
S'5 - Svaert store'
p1468
sba(irunmatrix
M3Element
p1469
(dp1470
g3
Nsg4
S'Lite sannsynlig, Mulig'
p1471
sg6
S'gray'
p1472
sg8
(lp1473
sg10
S'Possible'
p1474
sg12
S'Many'
p1475
sg14
g66
sg16
I0
sg17
S'High'
p1476
sg19
S'Stor tilleggsbelastning'
p1477
sg21
Nsg22
S'500'
p1478
sg24
S'1300'
p1479
sg26
S'Mange bratte heng'
p1480
sg28
Nsg29
g1324
sg31
S'5 - Svaert store'
p1481
sba(irunmatrix
M3Element
p1482
(dp1483
g3
Nsg4
S'Lite sannsynlig, Mulig'
p1484
sg6
S'white'
p1485
sg8
(lp1486
sg10
S'Possible'
p1487
sg12
S'Many'
p1488
sg14
g66
sg16
I0
sg17
S'Low'
p1489
sg19
S'Liten tilleggsbelastning'
p1490
sg21
Nsg22
S'500'
p1491
sg24
S'1400'
p1492
sg26
S'Mange bratte heng'
p1493
sg28
Nsg29
g1324
sg31
S'5 - Svaert store'
p1494
sba(irunmatrix
M3Element
p1495
(dp1496
g3
Nsg4
S'Lite sannsynlig, Mulig'
p1497
sg6
S'gray'
p1498
sg8
(lp1499
sg10
S'Possible'
p1500
sg12
S'Many'
p1501
sg14
g66
sg16
I0
sg17
S'Nat'
p1502
sg19
S'Naturlig utloest'
p1503
sg21
Nsg22
S'500'
p1504
sg24
S'1500'
p1505
sg26
S'Mange bratte heng'
p1506
sg28
Nsg29
g1324
sg31
S'5 - Svaert store'
p1507
sba(irunmatrix
M3Element
p1508
(dp1509
g3
Nsg4
S'Sannsynlig, Meget sannsynlig'
p1510
sg6
S'gray'
p1511
sg8
(lp1512
sg10
S'Likely'
p1513
sg12
S'Many'
p1514
sg14
g66
sg16
I0
sg17
S'High'
p1515
sg19
S'Stor tilleggsbelastning'
p1516
sg21
Nsg22
S'500'
p1517
sg24
S'1600'
p1518
sg26
S'Mange bratte heng'
p1519
sg28
Nsg29
g1324
sg31
S'5 - Svaert store'
p1520
sba(irunmatrix
M3Element
p1521
(dp1522
g3
Nsg4
S'Sannsynlig, Meget sannsynlig'
p1523
sg6
S'white'
p1524
sg8
(lp1525
sg10
S'Likely'
p1526
sg12
S'Many'
p1527
sg14
g66
sg16
I0
sg17
S'Low'
p1528
sg19
S'Liten tilleggsbelastning'
p1529
sg21
Nsg22
S'500'
p1530
sg24
S'1700'
p1531
sg26
S'Mange bratte heng'
p1532
sg28
Nsg29
g1324
sg31
S'5 - Svaert store'
p1533
sba(irunmatrix
M3Element
p1534
(dp1535
g3
Nsg4
S'Sannsynlig, Meget sannsynlig'
p1536
sg6
S'white'
p1537
sg8
(lp1538
sg10
S'Likely'
p1539
sg12
S'Many'
p1540
sg14
g1227
sg16
I5
sg17
S'Nat'
p1541
sg19
S'Naturlig utloest'
p1542
sg21
Nsg22
S'500'
p1543
sg24
S'1800'
p1544
sg26
S'Mange bratte heng'
p1545
sg28
Nsg29
g1324
sg31
S'5 - Svaert store'
p1546
sba(irunmatrix
M3Element
p1547
(dp1548
g3
Nsg4
S'Lite sannsynlig, Mulig'
p1549
sg6
S'gray'
p1550
sg8
(lp1551
sg10
S'Possible'
p1552
sg12
S'Most'
p1553
sg14
g66
sg16
I0
sg17
S'High'
p1554
sg19
S'Stor tilleggsbelastning'
p1555
sg21
Nsg22
S'500'
p1556
sg24
S'1900'
p1557
sg26
S'De fleste bratte heng, Ogsaa i mindre bratt terreng'
p1558
sg28
Nsg29
g1324
sg31
S'5 - Svaert store'
p1559
sba(irunmatrix
M3Element
p1560
(dp1561
g3
Nsg4
S'Lite sannsynlig, Mulig'
p1562
sg6
S'gray'
p1563
sg8
(lp1564
sg10
S'Possible'
p1565
sg12
S'Most'
p1566
sg14
g66
sg16
I0
sg17
S'Low'
p1567
sg19
S'Liten tilleggsbelastning'
p1568
sg21
Nsg22
S'500'
p1569
sg24
S'2000'
p1570
sg26
S'De fleste bratte heng, Ogsaa i mindre bratt terreng'
p1571
sg28
Nsg29
g1324
sg31
S'5 - Svaert store'
p1572
sba(irunmatrix
M3Element
p1573
(dp1574
g3
Nsg4
S'Lite sannsynlig, Mulig'
p1575
sg6
S'gray'
p1576
sg8
(lp1577
sg10
S'Possible'
p1578
sg12
S'Most'
p1579
sg14
g66
sg16
I0
sg17
S'Nat'
p1580
sg19
S'Naturlig utloest'
p1581
sg21
Nsg22
S'500'
p1582
sg24
S'2100'
p1583
sg26
S'De fleste bratte heng, Ogsaa i mindre bratt terreng'
p1584
sg28
Nsg29
g1324
sg31
S'5 - Svaert store'
p1585
sba(irunmatrix
M3Element
p1586
(dp1587
g3
Nsg4
S'Sannsynlig, Meget sannsynlig'
p1588
sg6
S'gray'
p1589
sg8
(lp1590
sg10
S'Likely'
p1591
sg12
S'Most'
p1592
sg14
g66
sg16
I0
sg17
S'High'
p1593
sg19
S'Stor tilleggsbelastning'
p1594
sg21
Nsg22
S'500'
p1595
sg24
S'2200'
p1596
sg26
S'De fleste bratte heng, Ogsaa i mindre bratt terreng'
p1597
sg28
Nsg29
g1324
sg31
S'5 - Svaert store'
p1598
sba(irunmatrix
M3Element
p1599
(dp1600
g3
Nsg4
S'Sannsynlig, Meget sannsynlig'
p1601
sg6
S'gray'
p1602
sg8
(lp1603
sg10
S'Likely'
p1604
sg12
S'Most'
p1605
sg14
g66
sg16
I0
sg17
S'Low'
p1606
sg19
S'Liten tilleggsbelastning'
p1607
sg21
Nsg22
S'500'
p1608
sg24
S'2300'
p1609
sg26
S'De fleste bratte heng, Ogsaa i mindre bratt terreng'
p1610
sg28
Nsg29
g1324
sg31
S'5 - Svaert store'
p1611
sba(irunmatrix
M3Element
p1612
(dp1613
g3
Nsg4
S'Sannsynlig, Meget sannsynlig'
p1614
sg6
S'white'
p1615
sg8
(lp1616
sg10
S'Likely'
p1617
sg12
S'Most'
p1618
sg14
g66
sg16
I0
sg17
S'Nat'
p1619
sg19
S'Naturlig utloest'
p1620
sg21
Nsg22
S'500'
p1621
sg24
S'2400'
p1622
sg26
S'De fleste bratte heng, Ogsaa i mindre bratt terreng'
p1623
sg28
Nsg29
g1324
sg31
S'5 - Svaert store'
p1624
sba.