(dp0
S'trigger'
p1
(dp2
S'keys'
p3
(lp4
S'Stor tilleggsbelastning'
p5
aS'Liten tilleggsbelastning'
p6
aS'Naturlig utloest'
p7
asS'colors'
p8
(lp9
S'0.7'
p10
asS'values'
p11
(lp12
S'Stor tilleggsbelastning'
p13
aS'Stor tilleggsbelastning'
p14
aS'Stor tilleggsbelastning'
p15
aS'Liten tilleggsbelastning'
p16
aS'Liten tilleggsbelastning'
p17
aS'Liten tilleggsbelastning'
p18
aS'Stor tilleggsbelastning'
p19
aS'Stor tilleggsbelastning'
p20
aS'Stor tilleggsbelastning'
p21
aS'Stor tilleggsbelastning'
p22
aS'Liten tilleggsbelastning'
p23
aS'Liten tilleggsbelastning'
p24
aS'Liten tilleggsbelastning'
p25
aS'Stor tilleggsbelastning'
p26
aS'Stor tilleggsbelastning'
p27
aS'Stor tilleggsbelastning'
p28
aS'Liten tilleggsbelastning'
p29
aS'Liten tilleggsbelastning'
p30
aS'Liten tilleggsbelastning'
p31
aS'Liten tilleggsbelastning'
p32
aS'Stor tilleggsbelastning'
p33
aS'Stor tilleggsbelastning'
p34
aS'Stor tilleggsbelastning'
p35
aS'Stor tilleggsbelastning'
p36
aS'Liten tilleggsbelastning'
p37
aS'Liten tilleggsbelastning'
p38
aS'Stor tilleggsbelastning'
p39
aS'Stor tilleggsbelastning'
p40
aS'Stor tilleggsbelastning'
p41
aS'Stor tilleggsbelastning'
p42
aS'Liten tilleggsbelastning'
p43
aS'Liten tilleggsbelastning'
p44
aS'Liten tilleggsbelastning'
p45
aS'Stor tilleggsbelastning'
p46
aS'Liten tilleggsbelastning'
p47
aS'Liten tilleggsbelastning'
p48
aS'Liten tilleggsbelastning'
p49
aS'Liten tilleggsbelastning'
p50
aS'Liten tilleggsbelastning'
p51
aS'Liten tilleggsbelastning'
p52
aS'Liten tilleggsbelastning'
p53
aS'Liten tilleggsbelastning'
p54
aS'Stor tilleggsbelastning'
p55
aS'Liten tilleggsbelastning'
p56
aS'Liten tilleggsbelastning'
p57
aS'Liten tilleggsbelastning'
p58
aS'Liten tilleggsbelastning'
p59
aS'Liten tilleggsbelastning'
p60
aS'Liten tilleggsbelastning'
p61
aS'Liten tilleggsbelastning'
p62
aS'Liten tilleggsbelastning'
p63
aS'Liten tilleggsbelastning'
p64
aS'Liten tilleggsbelastning'
p65
aS'Stor tilleggsbelastning'
p66
aS'Liten tilleggsbelastning'
p67
aS'Liten tilleggsbelastning'
p68
aS'Liten tilleggsbelastning'
p69
aS'Liten tilleggsbelastning'
p70
aS'Liten tilleggsbelastning'
p71
aS'Liten tilleggsbelastning'
p72
aS'Liten tilleggsbelastning'
p73
aS'Liten tilleggsbelastning'
p74
aS'Liten tilleggsbelastning'
p75
aS'Liten tilleggsbelastning'
p76
aS'Liten tilleggsbelastning'
p77
aS'Liten tilleggsbelastning'
p78
aS'Liten tilleggsbelastning'
p79
aS'Liten tilleggsbelastning'
p80
aS'Liten tilleggsbelastning'
p81
aS'Liten tilleggsbelastning'
p82
aS'Liten tilleggsbelastning'
p83
aS'Liten tilleggsbelastning'
p84
aS'Liten tilleggsbelastning'
p85
aS'Liten tilleggsbelastning'
p86
aS'Liten tilleggsbelastning'
p87
aS'Liten tilleggsbelastning'
p88
aS'Stor tilleggsbelastning'
p89
aS'Liten tilleggsbelastning'
p90
aS'Liten tilleggsbelastning'
p91
aS'Liten tilleggsbelastning'
p92
aS'Liten tilleggsbelastning'
p93
aS'Naturlig utloest'
p94
aS'Naturlig utloest'
p95
aS'Naturlig utloest'
p96
aS'Naturlig utloest'
p97
aS'Naturlig utloest'
p98
aS'Naturlig utloest'
p99
aS'Naturlig utloest'
p100
aS'Liten tilleggsbelastning'
p101
aS'Liten tilleggsbelastning'
p102
aS'Liten tilleggsbelastning'
p103
aS'Liten tilleggsbelastning'
p104
aS'Liten tilleggsbelastning'
p105
aS'Liten tilleggsbelastning'
p106
aS'Liten tilleggsbelastning'
p107
aS'Liten tilleggsbelastning'
p108
aS'Liten tilleggsbelastning'
p109
aS'Liten tilleggsbelastning'
p110
aS'Liten tilleggsbelastning'
p111
aS'Liten tilleggsbelastning'
p112
aS'Liten tilleggsbelastning'
p113
aS'Liten tilleggsbelastning'
p114
aS'Liten tilleggsbelastning'
p115
aS'Liten tilleggsbelastning'
p116
aS'Liten tilleggsbelastning'
p117
aS'Liten tilleggsbelastning'
p118
aS'Liten tilleggsbelastning'
p119
aS'Liten tilleggsbelastning'
p120
aS'Liten tilleggsbelastning'
p121
aS'Liten tilleggsbelastning'
p122
aS'Naturlig utloest'
p123
aS'Naturlig utloest'
p124
aS'Liten tilleggsbelastning'
p125
aS'Liten tilleggsbelastning'
p126
aS'Liten tilleggsbelastning'
p127
assS'distribution'
p128
(dp129
g3
(lp130
S'Isolerte faresoner'
p131
aS'Noen bratte heng'
p132
aS'Mange bratte heng'
p133
aS'De fleste bratte heng'
p134
aS'Ogsaa i mindre bratt terreng'
p135
asg8
(lp136
g10
asg11
(lp137
S'Noen bratte heng'
p138
aS'Noen bratte heng'
p139
aS'Isolerte faresoner'
p140
aS'Isolerte faresoner'
p141
aS'Isolerte faresoner'
p142
aS'Isolerte faresoner'
p143
aS'Noen bratte heng'
p144
aS'Noen bratte heng'
p145
aS'Noen bratte heng'
p146
aS'Isolerte faresoner'
p147
aS'Isolerte faresoner'
p148
aS'Isolerte faresoner'
p149
aS'Isolerte faresoner'
p150
aS'Noen bratte heng'
p151
aS'Mange bratte heng'
p152
aS'Noen bratte heng'
p153
aS'Noen bratte heng'
p154
aS'Noen bratte heng'
p155
aS'Noen bratte heng'
p156
aS'Noen bratte heng'
p157
aS'Noen bratte heng'
p158
aS'Mange bratte heng'
p159
aS'Noen bratte heng'
p160
aS'Isolerte faresoner'
p161
aS'Isolerte faresoner'
p162
aS'Noen bratte heng'
p163
aS'Isolerte faresoner'
p164
aS'Noen bratte heng'
p165
aS'Noen bratte heng'
p166
aS'Noen bratte heng'
p167
aS'Noen bratte heng'
p168
aS'Noen bratte heng'
p169
aS'Noen bratte heng'
p170
aS'Isolerte faresoner'
p171
aS'Noen bratte heng'
p172
aS'Noen bratte heng'
p173
aS'Noen bratte heng'
p174
aS'Noen bratte heng'
p175
aS'Noen bratte heng'
p176
aS'Noen bratte heng'
p177
aS'Noen bratte heng'
p178
aS'Noen bratte heng'
p179
aS'Noen bratte heng'
p180
aS'Noen bratte heng'
p181
aS'Noen bratte heng'
p182
aS'Noen bratte heng'
p183
aS'Noen bratte heng'
p184
aS'Noen bratte heng'
p185
aS'Noen bratte heng'
p186
aS'Noen bratte heng'
p187
aS'Mange bratte heng'
p188
aS'De fleste bratte heng'
p189
aS'Noen bratte heng'
p190
aS'Noen bratte heng'
p191
aS'Noen bratte heng'
p192
aS'Noen bratte heng'
p193
aS'Noen bratte heng'
p194
aS'Noen bratte heng'
p195
aS'Noen bratte heng'
p196
aS'Noen bratte heng'
p197
aS'Noen bratte heng'
p198
aS'Noen bratte heng'
p199
aS'Noen bratte heng'
p200
aS'Noen bratte heng'
p201
aS'Noen bratte heng'
p202
aS'Noen bratte heng'
p203
aS'Noen bratte heng'
p204
aS'Noen bratte heng'
p205
aS'Noen bratte heng'
p206
aS'Noen bratte heng'
p207
aS'Noen bratte heng'
p208
aS'Noen bratte heng'
p209
aS'Noen bratte heng'
p210
aS'Noen bratte heng'
p211
aS'Noen bratte heng'
p212
aS'Noen bratte heng'
p213
aS'Noen bratte heng'
p214
aS'Noen bratte heng'
p215
aS'Noen bratte heng'
p216
aS'Isolerte faresoner'
p217
aS'Isolerte faresoner'
p218
aS'Isolerte faresoner'
p219
aS'Isolerte faresoner'
p220
aS'Noen bratte heng'
p221
aS'Noen bratte heng'
p222
aS'Noen bratte heng'
p223
aS'Isolerte faresoner'
p224
aS'Noen bratte heng'
p225
aS'Noen bratte heng'
p226
aS'Noen bratte heng'
p227
aS'Isolerte faresoner'
p228
aS'Isolerte faresoner'
p229
aS'Isolerte faresoner'
p230
aS'Isolerte faresoner'
p231
aS'Isolerte faresoner'
p232
aS'Isolerte faresoner'
p233
aS'Isolerte faresoner'
p234
aS'Isolerte faresoner'
p235
aS'Isolerte faresoner'
p236
aS'Noen bratte heng'
p237
aS'Isolerte faresoner'
p238
aS'Isolerte faresoner'
p239
aS'Isolerte faresoner'
p240
aS'Isolerte faresoner'
p241
aS'Isolerte faresoner'
p242
aS'Isolerte faresoner'
p243
aS'Noen bratte heng'
p244
aS'Noen bratte heng'
p245
aS'Noen bratte heng'
p246
aS'Noen bratte heng'
p247
aS'Noen bratte heng'
p248
aS'Isolerte faresoner'
p249
aS'Noen bratte heng'
p250
aS'Noen bratte heng'
p251
aS'Noen bratte heng'
p252
assS'size'
p253
(dp254
g3
(lp255
S'1 - Harmloest'
p256
aS'2 - Smaa'
p257
aS'3 - Middels'
p258
aS'4 - Store'
p259
aS'5 - Svaert store'
p260
aS'Ukjent'
p261
asg8
(lp262
g10
asg11
(lp263
S'3 - Middels'
p264
aS'3 - Middels'
p265
aS'2 - Smaa'
p266
aS'2 - Smaa'
p267
aS'2 - Smaa'
p268
aS'2 - Smaa'
p269
aS'2 - Smaa'
p270
aS'3 - Middels'
p271
aS'3 - Middels'
p272
aS'2 - Smaa'
p273
aS'1 - Harmloest'
p274
aS'2 - Smaa'
p275
aS'2 - Smaa'
p276
aS'3 - Middels'
p277
aS'3 - Middels'
p278
aS'3 - Middels'
p279
aS'2 - Smaa'
p280
aS'2 - Smaa'
p281
aS'2 - Smaa'
p282
aS'2 - Smaa'
p283
aS'2 - Smaa'
p284
aS'3 - Middels'
p285
aS'3 - Middels'
p286
aS'2 - Smaa'
p287
aS'2 - Smaa'
p288
aS'2 - Smaa'
p289
aS'2 - Smaa'
p290
aS'2 - Smaa'
p291
aS'3 - Middels'
p292
aS'3 - Middels'
p293
aS'2 - Smaa'
p294
aS'2 - Smaa'
p295
aS'2 - Smaa'
p296
aS'2 - Smaa'
p297
aS'2 - Smaa'
p298
aS'2 - Smaa'
p299
aS'2 - Smaa'
p300
aS'2 - Smaa'
p301
aS'2 - Smaa'
p302
aS'2 - Smaa'
p303
aS'2 - Smaa'
p304
aS'2 - Smaa'
p305
aS'2 - Smaa'
p306
aS'2 - Smaa'
p307
aS'2 - Smaa'
p308
aS'2 - Smaa'
p309
aS'2 - Smaa'
p310
aS'3 - Middels'
p311
aS'3 - Middels'
p312
aS'3 - Middels'
p313
aS'2 - Smaa'
p314
aS'2 - Smaa'
p315
aS'3 - Middels'
p316
aS'3 - Middels'
p317
aS'3 - Middels'
p318
aS'3 - Middels'
p319
aS'3 - Middels'
p320
aS'3 - Middels'
p321
aS'3 - Middels'
p322
aS'3 - Middels'
p323
aS'2 - Smaa'
p324
aS'2 - Smaa'
p325
aS'2 - Smaa'
p326
aS'3 - Middels'
p327
aS'3 - Middels'
p328
aS'2 - Smaa'
p329
aS'2 - Smaa'
p330
aS'2 - Smaa'
p331
aS'2 - Smaa'
p332
aS'2 - Smaa'
p333
aS'2 - Smaa'
p334
aS'2 - Smaa'
p335
aS'2 - Smaa'
p336
aS'2 - Smaa'
p337
aS'2 - Smaa'
p338
aS'2 - Smaa'
p339
aS'2 - Smaa'
p340
aS'2 - Smaa'
p341
aS'2 - Smaa'
p342
aS'2 - Smaa'
p343
aS'2 - Smaa'
p344
aS'2 - Smaa'
p345
aS'2 - Smaa'
p346
aS'1 - Harmloest'
p347
aS'1 - Harmloest'
p348
aS'1 - Harmloest'
p349
aS'1 - Harmloest'
p350
aS'1 - Harmloest'
p351
aS'2 - Smaa'
p352
aS'2 - Smaa'
p353
aS'2 - Smaa'
p354
aS'2 - Smaa'
p355
aS'2 - Smaa'
p356
aS'2 - Smaa'
p357
aS'2 - Smaa'
p358
aS'2 - Smaa'
p359
aS'2 - Smaa'
p360
aS'2 - Smaa'
p361
aS'2 - Smaa'
p362
aS'2 - Smaa'
p363
aS'2 - Smaa'
p364
aS'2 - Smaa'
p365
aS'2 - Smaa'
p366
aS'2 - Smaa'
p367
aS'2 - Smaa'
p368
aS'2 - Smaa'
p369
aS'2 - Smaa'
p370
aS'2 - Smaa'
p371
aS'2 - Smaa'
p372
aS'2 - Smaa'
p373
aS'2 - Smaa'
p374
aS'1 - Harmloest'
p375
aS'2 - Smaa'
p376
aS'2 - Smaa'
p377
aS'2 - Smaa'
p378
assS'probability'
p379
(dp380
g3
(lp381
S'Lite sannsynlig'
p382
aS'Mulig'
p383
aS'Sannsynlig'
p384
aS'Meget sannsynlig'
p385
asg8
(lp386
g10
asg11
(lp387
S'Mulig'
p388
aS'Mulig'
p389
aS'Lite sannsynlig'
p390
aS'Mulig'
p391
aS'Mulig'
p392
aS'Mulig'
p393
aS'Mulig'
p394
aS'Mulig'
p395
aS'Mulig'
p396
aS'Lite sannsynlig'
p397
aS'Mulig'
p398
aS'Mulig'
p399
aS'Mulig'
p400
aS'Mulig'
p401
aS'Mulig'
p402
aS'Mulig'
p403
aS'Mulig'
p404
aS'Mulig'
p405
aS'Mulig'
p406
aS'Mulig'
p407
aS'Mulig'
p408
aS'Mulig'
p409
aS'Lite sannsynlig'
p410
aS'Lite sannsynlig'
p411
aS'Mulig'
p412
aS'Mulig'
p413
aS'Mulig'
p414
aS'Mulig'
p415
aS'Mulig'
p416
aS'Lite sannsynlig'
p417
aS'Mulig'
p418
aS'Mulig'
p419
aS'Mulig'
p420
aS'Mulig'
p421
aS'Mulig'
p422
aS'Mulig'
p423
aS'Mulig'
p424
aS'Mulig'
p425
aS'Mulig'
p426
aS'Mulig'
p427
aS'Mulig'
p428
aS'Mulig'
p429
aS'Mulig'
p430
aS'Mulig'
p431
aS'Mulig'
p432
aS'Mulig'
p433
aS'Mulig'
p434
aS'Mulig'
p435
aS'Mulig'
p436
aS'Mulig'
p437
aS'Mulig'
p438
aS'Mulig'
p439
aS'Mulig'
p440
aS'Mulig'
p441
aS'Mulig'
p442
aS'Mulig'
p443
aS'Mulig'
p444
aS'Mulig'
p445
aS'Mulig'
p446
aS'Mulig'
p447
aS'Mulig'
p448
aS'Mulig'
p449
aS'Mulig'
p450
aS'Mulig'
p451
aS'Mulig'
p452
aS'Mulig'
p453
aS'Mulig'
p454
aS'Mulig'
p455
aS'Mulig'
p456
aS'Mulig'
p457
aS'Mulig'
p458
aS'Mulig'
p459
aS'Mulig'
p460
aS'Mulig'
p461
aS'Mulig'
p462
aS'Mulig'
p463
aS'Mulig'
p464
aS'Mulig'
p465
aS'Mulig'
p466
aS'Mulig'
p467
aS'Mulig'
p468
aS'Mulig'
p469
aS'Mulig'
p470
aS'Mulig'
p471
aS'Mulig'
p472
aS'Mulig'
p473
aS'Mulig'
p474
aS'Mulig'
p475
aS'Mulig'
p476
aS'Mulig'
p477
aS'Mulig'
p478
aS'Mulig'
p479
aS'Mulig'
p480
aS'Mulig'
p481
aS'Mulig'
p482
aS'Mulig'
p483
aS'Mulig'
p484
aS'Mulig'
p485
aS'Mulig'
p486
aS'Mulig'
p487
aS'Mulig'
p488
aS'Mulig'
p489
aS'Mulig'
p490
aS'Mulig'
p491
aS'Mulig'
p492
aS'Mulig'
p493
aS'Mulig'
p494
aS'Mulig'
p495
aS'Mulig'
p496
aS'Mulig'
p497
aS'Lite sannsynlig'
p498
aS'Lite sannsynlig'
p499
aS'Mulig'
p500
aS'Mulig'
p501
aS'Mulig'
p502
assS'level'
p503
(dp504
g3
(lp505
I1
aI2
aI3
aI4
aI5
asg8
(lp506
S'#ccff66'
p507
aS'#ffff00'
p508
aS'#ff9900'
p509
aS'#ff0000'
p510
aS'k'
p511
asg11
(lp512
I2
aI2
aI1
aI1
aI1
aI1
aI2
aI2
aI2
aI1
aI1
aI1
aI1
aI2
aI2
aI2
aI2
aI2
aI2
aI2
aI2
aI2
aI2
aI1
aI1
aI2
aI2
aI2
aI2
aI2
aI2
aI2
aI2
aI1
aI2
aI2
aI2
aI2
aI2
aI2
aI2
aI2
aI2
aI2
aI2
aI2
aI2
aI3
aI3
aI3
aI3
aI3
aI3
aI2
aI3
aI3
aI3
aI3
aI3
aI3
aI3
aI2
aI2
aI3
aI3
aI2
aI2
aI2
aI2
aI2
aI2
aI2
aI2
aI2
aI2
aI2
aI2
aI2
aI2
aI2
aI2
aI1
aI1
aI1
aI1
aI1
aI1
aI1
aI2
aI2
aI1
aI1
aI2
aI1
aI1
aI1
aI1
aI1
aI1
aI2
aI1
aI1
aI1
aI1
aI1
aI1
aI2
aI2
aI2
aI2
aI1
aI1
aI2
aI2
aI2
ass.