(lp0
(irunmatrix
M3Element
p1
(dp2
S'danger_level_average'
p3
NsS'probability'
p4
S'Lite sannsynlig, Mulig'
p5
sS'colour'
p6
S'white'
p7
sS'danger_level_list'
p8
(lp9
sS'label_probalility'
p10
S'Possible'
p11
sS'label_distribution'
p12
S'Isolated'
p13
sS'recomended_colour'
p14
S'#ccff66'
p15
sS'recomended_danger_level'
p16
I1
sS'label_trigger'
p17
S'High'
p18
sS'trigger'
p19
S'Stor tilleggsbelastning'
p20
sS'occurrences'
p21
NsS'y'
p22
S'100'
p23
sS'x'
p24
S'100'
p25
sS'distribution'
p26
S'Isolerte faresoner'
p27
sS'danger_level_standard_dev'
p28
NsS'label_size'
p29
S'1'
p30
sS'avalanche_size'
p31
S'1 - Harmloest'
p32
sba(irunmatrix
M3Element
p33
(dp34
g3
Nsg4
S'Lite sannsynlig, Mulig'
p35
sg6
S'white'
p36
sg8
(lp37
sg10
S'Possible'
p38
sg12
S'Isolated'
p39
sg14
g15
sg16
I1
sg17
S'Low'
p40
sg19
S'Liten tilleggsbelastning'
p41
sg21
Nsg22
S'100'
p42
sg24
S'200'
p43
sg26
S'Isolerte faresoner'
p44
sg28
Nsg29
g30
sg31
S'1 - Harmloest'
p45
sba(irunmatrix
M3Element
p46
(dp47
g3
Nsg4
S'Lite sannsynlig, Mulig'
p48
sg6
S'white'
p49
sg8
(lp50
sg10
S'Possible'
p51
sg12
S'Isolated'
p52
sg14
g15
sg16
I1
sg17
S'Nat'
p53
sg19
S'Naturlig utloest'
p54
sg21
Nsg22
S'100'
p55
sg24
S'300'
p56
sg26
S'Isolerte faresoner'
p57
sg28
Nsg29
g30
sg31
S'1 - Harmloest'
p58
sba(irunmatrix
M3Element
p59
(dp60
g3
Nsg4
S'Sannsynlig, Meget sannsynlig'
p61
sg6
S'gray'
p62
sg8
(lp63
sg10
S'Likely'
p64
sg12
S'Isolated'
p65
sg14
S'gray'
p66
sg16
I0
sg17
S'High'
p67
sg19
S'Stor tilleggsbelastning'
p68
sg21
Nsg22
S'100'
p69
sg24
S'400'
p70
sg26
S'Isolerte faresoner'
p71
sg28
Nsg29
g30
sg31
S'1 - Harmloest'
p72
sba(irunmatrix
M3Element
p73
(dp74
g3
Nsg4
S'Sannsynlig, Meget sannsynlig'
p75
sg6
S'gray'
p76
sg8
(lp77
sg10
S'Likely'
p78
sg12
S'Isolated'
p79
sg14
g66
sg16
I0
sg17
S'Low'
p80
sg19
S'Liten tilleggsbelastning'
p81
sg21
Nsg22
S'100'
p82
sg24
S'500'
p83
sg26
S'Isolerte faresoner'
p84
sg28
Nsg29
g30
sg31
S'1 - Harmloest'
p85
sba(irunmatrix
M3Element
p86
(dp87
g3
Nsg4
S'Sannsynlig, Meget sannsynlig'
p88
sg6
S'gray'
p89
sg8
(lp90
sg10
S'Likely'
p91
sg12
S'Isolated'
p92
sg14
g66
sg16
I0
sg17
S'Nat'
p93
sg19
S'Naturlig utloest'
p94
sg21
Nsg22
S'100'
p95
sg24
S'600'
p96
sg26
S'Isolerte faresoner'
p97
sg28
Nsg29
g30
sg31
S'1 - Harmloest'
p98
sba(irunmatrix
M3Element
p99
(dp100
g3
Nsg4
S'Lite sannsynlig, Mulig'
p101
sg6
S'white'
p102
sg8
(lp103
sg10
S'Possible'
p104
sg12
S'Some'
p105
sg14
g15
sg16
I1
sg17
S'High'
p106
sg19
S'Stor tilleggsbelastning'
p107
sg21
Nsg22
S'100'
p108
sg24
S'700'
p109
sg26
S'Noen bratte heng'
p110
sg28
Nsg29
g30
sg31
S'1 - Harmloest'
p111
sba(irunmatrix
M3Element
p112
(dp113
g3
Nsg4
S'Lite sannsynlig, Mulig'
p114
sg6
S'white'
p115
sg8
(lp116
sg10
S'Possible'
p117
sg12
S'Some'
p118
sg14
g15
sg16
I1
sg17
S'Low'
p119
sg19
S'Liten tilleggsbelastning'
p120
sg21
Nsg22
S'100'
p121
sg24
S'800'
p122
sg26
S'Noen bratte heng'
p123
sg28
Nsg29
g30
sg31
S'1 - Harmloest'
p124
sba(irunmatrix
M3Element
p125
(dp126
g3
F1.0
sg4
S'Lite sannsynlig, Mulig'
p127
sg6
S'#ccff66'
p128
sg8
(lp129
I1
aI1
asg10
S'Possible'
p130
sg12
S'Some'
p131
sg14
g15
sg16
I1
sg17
S'Nat'
p132
sg19
S'Naturlig utloest'
p133
sg21
I2
sg22
S'100'
p134
sg24
S'900'
p135
sg26
S'Noen bratte heng'
p136
sg28
cnumpy.core.multiarray
scalar
p137
(cnumpy
dtype
p138
(S'f8'
p139
I0
I1
tp140
Rp141
(I3
S'<'
p142
NNNI-1
I-1
I0
tp143
bS'\x00\x00\x00\x00\x00\x00\x00\x00'
p144
tp145
Rp146
sg29
g30
sg31
S'1 - Harmloest'
p147
sba(irunmatrix
M3Element
p148
(dp149
g3
Nsg4
S'Sannsynlig, Meget sannsynlig'
p150
sg6
S'gray'
p151
sg8
(lp152
sg10
S'Likely'
p153
sg12
S'Some'
p154
sg14
g66
sg16
I0
sg17
S'High'
p155
sg19
S'Stor tilleggsbelastning'
p156
sg21
Nsg22
S'100'
p157
sg24
S'1000'
p158
sg26
S'Noen bratte heng'
p159
sg28
Nsg29
g30
sg31
S'1 - Harmloest'
p160
sba(irunmatrix
M3Element
p161
(dp162
g3
Nsg4
S'Sannsynlig, Meget sannsynlig'
p163
sg6
S'gray'
p164
sg8
(lp165
sg10
S'Likely'
p166
sg12
S'Some'
p167
sg14
g66
sg16
I0
sg17
S'Low'
p168
sg19
S'Liten tilleggsbelastning'
p169
sg21
Nsg22
S'100'
p170
sg24
S'1100'
p171
sg26
S'Noen bratte heng'
p172
sg28
Nsg29
g30
sg31
S'1 - Harmloest'
p173
sba(irunmatrix
M3Element
p174
(dp175
g3
Nsg4
S'Sannsynlig, Meget sannsynlig'
p176
sg6
S'white'
p177
sg8
(lp178
sg10
S'Likely'
p179
sg12
S'Some'
p180
sg14
g15
sg16
I1
sg17
S'Nat'
p181
sg19
S'Naturlig utloest'
p182
sg21
Nsg22
S'100'
p183
sg24
S'1200'
p184
sg26
S'Noen bratte heng'
p185
sg28
Nsg29
g30
sg31
S'1 - Harmloest'
p186
sba(irunmatrix
M3Element
p187
(dp188
g3
Nsg4
S'Lite sannsynlig, Mulig'
p189
sg6
S'gray'
p190
sg8
(lp191
sg10
S'Possible'
p192
sg12
S'Many'
p193
sg14
g66
sg16
I0
sg17
S'High'
p194
sg19
S'Stor tilleggsbelastning'
p195
sg21
Nsg22
S'100'
p196
sg24
S'1300'
p197
sg26
S'Mange bratte heng'
p198
sg28
Nsg29
g30
sg31
S'1 - Harmloest'
p199
sba(irunmatrix
M3Element
p200
(dp201
g3
Nsg4
S'Lite sannsynlig, Mulig'
p202
sg6
S'white'
p203
sg8
(lp204
sg10
S'Possible'
p205
sg12
S'Many'
p206
sg14
g15
sg16
I1
sg17
S'Low'
p207
sg19
S'Liten tilleggsbelastning'
p208
sg21
Nsg22
S'100'
p209
sg24
S'1400'
p210
sg26
S'Mange bratte heng'
p211
sg28
Nsg29
g30
sg31
S'1 - Harmloest'
p212
sba(irunmatrix
M3Element
p213
(dp214
g3
F2.0
sg4
S'Lite sannsynlig, Mulig'
p215
sg6
S'#ffff00'
p216
sg8
(lp217
I2
asg10
S'Possible'
p218
sg12
S'Many'
p219
sg14
g66
sg16
I0
sg17
S'Nat'
p220
sg19
S'Naturlig utloest'
p221
sg21
I1
sg22
S'100'
p222
sg24
S'1500'
p223
sg26
S'Mange bratte heng'
p224
sg28
g137
(g141
S'\x00\x00\x00\x00\x00\x00\x00\x00'
p225
tp226
Rp227
sg29
g30
sg31
S'1 - Harmloest'
p228
sba(irunmatrix
M3Element
p229
(dp230
g3
Nsg4
S'Sannsynlig, Meget sannsynlig'
p231
sg6
S'gray'
p232
sg8
(lp233
sg10
S'Likely'
p234
sg12
S'Many'
p235
sg14
g66
sg16
I0
sg17
S'High'
p236
sg19
S'Stor tilleggsbelastning'
p237
sg21
Nsg22
S'100'
p238
sg24
S'1600'
p239
sg26
S'Mange bratte heng'
p240
sg28
Nsg29
g30
sg31
S'1 - Harmloest'
p241
sba(irunmatrix
M3Element
p242
(dp243
g3
Nsg4
S'Sannsynlig, Meget sannsynlig'
p244
sg6
S'white'
p245
sg8
(lp246
sg10
S'Likely'
p247
sg12
S'Many'
p248
sg14
S'#ffff00'
p249
sg16
I2
sg17
S'Low'
p250
sg19
S'Liten tilleggsbelastning'
p251
sg21
Nsg22
S'100'
p252
sg24
S'1700'
p253
sg26
S'Mange bratte heng'
p254
sg28
Nsg29
g30
sg31
S'1 - Harmloest'
p255
sba(irunmatrix
M3Element
p256
(dp257
g3
F2.0
sg4
S'Sannsynlig, Meget sannsynlig'
p258
sg6
g216
sg8
(lp259
I2
aI2
aI2
aI2
asg10
S'Likely'
p260
sg12
S'Many'
p261
sg14
g249
sg16
I2
sg17
S'Nat'
p262
sg19
S'Naturlig utloest'
p263
sg21
I4
sg22
S'100'
p264
sg24
S'1800'
p265
sg26
S'Mange bratte heng'
p266
sg28
g137
(g141
S'\x00\x00\x00\x00\x00\x00\x00\x00'
p267
tp268
Rp269
sg29
g30
sg31
S'1 - Harmloest'
p270
sba(irunmatrix
M3Element
p271
(dp272
g3
Nsg4
S'Lite sannsynlig, Mulig'
p273
sg6
S'gray'
p274
sg8
(lp275
sg10
S'Possible'
p276
sg12
S'Most'
p277
sg14
g66
sg16
I0
sg17
S'High'
p278
sg19
S'Stor tilleggsbelastning'
p279
sg21
Nsg22
S'100'
p280
sg24
S'1900'
p281
sg26
S'De fleste bratte heng, Ogsaa i mindre bratt terreng'
p282
sg28
Nsg29
g30
sg31
S'1 - Harmloest'
p283
sba(irunmatrix
M3Element
p284
(dp285
g3
Nsg4
S'Lite sannsynlig, Mulig'
p286
sg6
S'gray'
p287
sg8
(lp288
sg10
S'Possible'
p289
sg12
S'Most'
p290
sg14
g66
sg16
I0
sg17
S'Low'
p291
sg19
S'Liten tilleggsbelastning'
p292
sg21
Nsg22
S'100'
p293
sg24
S'2000'
p294
sg26
S'De fleste bratte heng, Ogsaa i mindre bratt terreng'
p295
sg28
Nsg29
g30
sg31
S'1 - Harmloest'
p296
sba(irunmatrix
M3Element
p297
(dp298
g3
Nsg4
S'Lite sannsynlig, Mulig'
p299
sg6
S'gray'
p300
sg8
(lp301
sg10
S'Possible'
p302
sg12
S'Most'
p303
sg14
g66
sg16
I0
sg17
S'Nat'
p304
sg19
S'Naturlig utloest'
p305
sg21
Nsg22
S'100'
p306
sg24
S'2100'
p307
sg26
S'De fleste bratte heng, Ogsaa i mindre bratt terreng'
p308
sg28
Nsg29
g30
sg31
S'1 - Harmloest'
p309
sba(irunmatrix
M3Element
p310
(dp311
g3
Nsg4
S'Sannsynlig, Meget sannsynlig'
p312
sg6
S'gray'
p313
sg8
(lp314
sg10
S'Likely'
p315
sg12
S'Most'
p316
sg14
g66
sg16
I0
sg17
S'High'
p317
sg19
S'Stor tilleggsbelastning'
p318
sg21
Nsg22
S'100'
p319
sg24
S'2200'
p320
sg26
S'De fleste bratte heng, Ogsaa i mindre bratt terreng'
p321
sg28
Nsg29
g30
sg31
S'1 - Harmloest'
p322
sba(irunmatrix
M3Element
p323
(dp324
g3
Nsg4
S'Sannsynlig, Meget sannsynlig'
p325
sg6
S'gray'
p326
sg8
(lp327
sg10
S'Likely'
p328
sg12
S'Most'
p329
sg14
g66
sg16
I0
sg17
S'Low'
p330
sg19
S'Liten tilleggsbelastning'
p331
sg21
Nsg22
S'100'
p332
sg24
S'2300'
p333
sg26
S'De fleste bratte heng, Ogsaa i mindre bratt terreng'
p334
sg28
Nsg29
g30
sg31
S'1 - Harmloest'
p335
sba(irunmatrix
M3Element
p336
(dp337
g3
Nsg4
S'Sannsynlig, Meget sannsynlig'
p338
sg6
S'white'
p339
sg8
(lp340
sg10
S'Likely'
p341
sg12
S'Most'
p342
sg14
g66
sg16
I0
sg17
S'Nat'
p343
sg19
S'Naturlig utloest'
p344
sg21
Nsg22
S'100'
p345
sg24
S'2400'
p346
sg26
S'De fleste bratte heng, Ogsaa i mindre bratt terreng'
p347
sg28
Nsg29
S'2'
p348
sg31
S'1 - Harmloest'
p349
sba(irunmatrix
M3Element
p350
(dp351
g3
F2.0
sg4
S'Lite sannsynlig, Mulig'
p352
sg6
g216
sg8
(lp353
I2
asg10
S'Possible'
p354
sg12
S'Isolated'
p355
sg14
g15
sg16
I1
sg17
S'High'
p356
sg19
S'Stor tilleggsbelastning'
p357
sg21
I1
sg22
S'200'
p358
sg24
S'100'
p359
sg26
S'Isolerte faresoner'
p360
sg28
g137
(g141
S'\x00\x00\x00\x00\x00\x00\x00\x00'
p361
tp362
Rp363
sg29
g348
sg31
S'2 - Smaa'
p364
sba(irunmatrix
M3Element
p365
(dp366
g3
F2.0
sg4
S'Lite sannsynlig, Mulig'
p367
sg6
g216
sg8
(lp368
I2
asg10
S'Possible'
p369
sg12
S'Isolated'
p370
sg14
g15
sg16
I1
sg17
S'Low'
p371
sg19
S'Liten tilleggsbelastning'
p372
sg21
I1
sg22
S'200'
p373
sg24
S'200'
p374
sg26
S'Isolerte faresoner'
p375
sg28
g137
(g141
S'\x00\x00\x00\x00\x00\x00\x00\x00'
p376
tp377
Rp378
sg29
g348
sg31
S'2 - Smaa'
p379
sba(irunmatrix
M3Element
p380
(dp381
g3
F1.0
sg4
S'Lite sannsynlig, Mulig'
p382
sg6
g128
sg8
(lp383
I1
aI1
aI1
asg10
S'Possible'
p384
sg12
S'Isolated'
p385
sg14
g15
sg16
I1
sg17
S'Nat'
p386
sg19
S'Naturlig utloest'
p387
sg21
I3
sg22
S'200'
p388
sg24
S'300'
p389
sg26
S'Isolerte faresoner'
p390
sg28
g137
(g141
S'\x00\x00\x00\x00\x00\x00\x00\x00'
p391
tp392
Rp393
sg29
g348
sg31
S'2 - Smaa'
p394
sba(irunmatrix
M3Element
p395
(dp396
g3
Nsg4
S'Sannsynlig, Meget sannsynlig'
p397
sg6
S'gray'
p398
sg8
(lp399
sg10
S'Likely'
p400
sg12
S'Isolated'
p401
sg14
g66
sg16
I0
sg17
S'High'
p402
sg19
S'Stor tilleggsbelastning'
p403
sg21
Nsg22
S'200'
p404
sg24
S'400'
p405
sg26
S'Isolerte faresoner'
p406
sg28
Nsg29
g348
sg31
S'2 - Smaa'
p407
sba(irunmatrix
M3Element
p408
(dp409
g3
Nsg4
S'Sannsynlig, Meget sannsynlig'
p410
sg6
S'gray'
p411
sg8
(lp412
sg10
S'Likely'
p413
sg12
S'Isolated'
p414
sg14
g66
sg16
I0
sg17
S'Low'
p415
sg19
S'Liten tilleggsbelastning'
p416
sg21
Nsg22
S'200'
p417
sg24
S'500'
p418
sg26
S'Isolerte faresoner'
p419
sg28
Nsg29
g348
sg31
S'2 - Smaa'
p420
sba(irunmatrix
M3Element
p421
(dp422
g3
Nsg4
S'Sannsynlig, Meget sannsynlig'
p423
sg6
S'gray'
p424
sg8
(lp425
sg10
S'Likely'
p426
sg12
S'Isolated'
p427
sg14
g66
sg16
I0
sg17
S'Nat'
p428
sg19
S'Naturlig utloest'
p429
sg21
Nsg22
S'200'
p430
sg24
S'600'
p431
sg26
S'Isolerte faresoner'
p432
sg28
Nsg29
g348
sg31
S'2 - Smaa'
p433
sba(irunmatrix
M3Element
p434
(dp435
g3
F2.0
sg4
S'Lite sannsynlig, Mulig'
p436
sg6
g216
sg8
(lp437
I2
aI2
aI2
aI2
aI2
asg10
S'Possible'
p438
sg12
S'Some'
p439
sg14
g249
sg16
I2
sg17
S'High'
p440
sg19
S'Stor tilleggsbelastning'
p441
sg21
I5
sg22
S'200'
p442
sg24
S'700'
p443
sg26
S'Noen bratte heng'
p444
sg28
g137
(g141
S'\x00\x00\x00\x00\x00\x00\x00\x00'
p445
tp446
Rp447
sg29
g348
sg31
S'2 - Smaa'
p448
sba(irunmatrix
M3Element
p449
(dp450
g3
F2.0
sg4
S'Lite sannsynlig, Mulig'
p451
sg6
g216
sg8
(lp452
I2
aI2
aI2
aI2
aI2
aI2
asg10
S'Possible'
p453
sg12
S'Some'
p454
sg14
g249
sg16
I2
sg17
S'Low'
p455
sg19
S'Liten tilleggsbelastning'
p456
sg21
I6
sg22
S'200'
p457
sg24
S'800'
p458
sg26
S'Noen bratte heng'
p459
sg28
g137
(g141
S'\x00\x00\x00\x00\x00\x00\x00\x00'
p460
tp461
Rp462
sg29
g348
sg31
S'2 - Smaa'
p463
sba(irunmatrix
M3Element
p464
(dp465
g3
F2.0
sg4
S'Lite sannsynlig, Mulig'
p466
sg6
g216
sg8
(lp467
I2
aI2
aI2
aI2
aI2
aI2
aI2
aI2
aI2
aI2
aI2
aI2
aI2
asg10
S'Possible'
p468
sg12
S'Some'
p469
sg14
g249
sg16
I2
sg17
S'Nat'
p470
sg19
S'Naturlig utloest'
p471
sg21
I13
sg22
S'200'
p472
sg24
S'900'
p473
sg26
S'Noen bratte heng'
p474
sg28
g137
(g141
S'\x00\x00\x00\x00\x00\x00\x00\x00'
p475
tp476
Rp477
sg29
g348
sg31
S'2 - Smaa'
p478
sba(irunmatrix
M3Element
p479
(dp480
g3
Nsg4
S'Sannsynlig, Meget sannsynlig'
p481
sg6
S'gray'
p482
sg8
(lp483
sg10
S'Likely'
p484
sg12
S'Some'
p485
sg14
g66
sg16
I0
sg17
S'High'
p486
sg19
S'Stor tilleggsbelastning'
p487
sg21
Nsg22
S'200'
p488
sg24
S'1000'
p489
sg26
S'Noen bratte heng'
p490
sg28
Nsg29
g348
sg31
S'2 - Smaa'
p491
sba(irunmatrix
M3Element
p492
(dp493
g3
Nsg4
S'Sannsynlig, Meget sannsynlig'
p494
sg6
S'gray'
p495
sg8
(lp496
sg10
S'Likely'
p497
sg12
S'Some'
p498
sg14
g66
sg16
I0
sg17
S'Low'
p499
sg19
S'Liten tilleggsbelastning'
p500
sg21
Nsg22
S'200'
p501
sg24
S'1100'
p502
sg26
S'Noen bratte heng'
p503
sg28
Nsg29
g348
sg31
S'2 - Smaa'
p504
sba(irunmatrix
M3Element
p505
(dp506
g3
Nsg4
S'Sannsynlig, Meget sannsynlig'
p507
sg6
S'white'
p508
sg8
(lp509
sg10
S'Likely'
p510
sg12
S'Some'
p511
sg14
S'#ff9900'
p512
sg16
I3
sg17
S'Nat'
p513
sg19
S'Naturlig utloest'
p514
sg21
Nsg22
S'200'
p515
sg24
S'1200'
p516
sg26
S'Noen bratte heng'
p517
sg28
Nsg29
g348
sg31
S'2 - Smaa'
p518
sba(irunmatrix
M3Element
p519
(dp520
g3
Nsg4
S'Lite sannsynlig, Mulig'
p521
sg6
S'gray'
p522
sg8
(lp523
sg10
S'Possible'
p524
sg12
S'Many'
p525
sg14
g66
sg16
I0
sg17
S'High'
p526
sg19
S'Stor tilleggsbelastning'
p527
sg21
Nsg22
S'200'
p528
sg24
S'1300'
p529
sg26
S'Mange bratte heng'
p530
sg28
Nsg29
g348
sg31
S'2 - Smaa'
p531
sba(irunmatrix
M3Element
p532
(dp533
g3
Nsg4
S'Lite sannsynlig, Mulig'
p534
sg6
S'white'
p535
sg8
(lp536
sg10
S'Possible'
p537
sg12
S'Many'
p538
sg14
g512
sg16
I3
sg17
S'Low'
p539
sg19
S'Liten tilleggsbelastning'
p540
sg21
Nsg22
S'200'
p541
sg24
S'1400'
p542
sg26
S'Mange bratte heng'
p543
sg28
Nsg29
g348
sg31
S'2 - Smaa'
p544
sba(irunmatrix
M3Element
p545
(dp546
g3
Nsg4
S'Lite sannsynlig, Mulig'
p547
sg6
S'gray'
p548
sg8
(lp549
sg10
S'Possible'
p550
sg12
S'Many'
p551
sg14
g66
sg16
I0
sg17
S'Nat'
p552
sg19
S'Naturlig utloest'
p553
sg21
Nsg22
S'200'
p554
sg24
S'1500'
p555
sg26
S'Mange bratte heng'
p556
sg28
Nsg29
g348
sg31
S'2 - Smaa'
p557
sba(irunmatrix
M3Element
p558
(dp559
g3
Nsg4
S'Sannsynlig, Meget sannsynlig'
p560
sg6
S'gray'
p561
sg8
(lp562
sg10
S'Likely'
p563
sg12
S'Many'
p564
sg14
g66
sg16
I0
sg17
S'High'
p565
sg19
S'Stor tilleggsbelastning'
p566
sg21
Nsg22
S'200'
p567
sg24
S'1600'
p568
sg26
S'Mange bratte heng'
p569
sg28
Nsg29
g348
sg31
S'2 - Smaa'
p570
sba(irunmatrix
M3Element
p571
(dp572
g3
Nsg4
S'Sannsynlig, Meget sannsynlig'
p573
sg6
S'white'
p574
sg8
(lp575
sg10
S'Likely'
p576
sg12
S'Many'
p577
sg14
S'#ff0000'
p578
sg16
I4
sg17
S'Low'
p579
sg19
S'Liten tilleggsbelastning'
p580
sg21
Nsg22
S'200'
p581
sg24
S'1700'
p582
sg26
S'Mange bratte heng'
p583
sg28
Nsg29
g348
sg31
S'2 - Smaa'
p584
sba(irunmatrix
M3Element
p585
(dp586
g3
Nsg4
S'Sannsynlig, Meget sannsynlig'
p587
sg6
S'white'
p588
sg8
(lp589
sg10
S'Likely'
p590
sg12
S'Many'
p591
sg14
g578
sg16
I4
sg17
S'Nat'
p592
sg19
S'Naturlig utloest'
p593
sg21
Nsg22
S'200'
p594
sg24
S'1800'
p595
sg26
S'Mange bratte heng'
p596
sg28
Nsg29
g348
sg31
S'2 - Smaa'
p597
sba(irunmatrix
M3Element
p598
(dp599
g3
Nsg4
S'Lite sannsynlig, Mulig'
p600
sg6
S'gray'
p601
sg8
(lp602
sg10
S'Possible'
p603
sg12
S'Most'
p604
sg14
g66
sg16
I0
sg17
S'High'
p605
sg19
S'Stor tilleggsbelastning'
p606
sg21
Nsg22
S'200'
p607
sg24
S'1900'
p608
sg26
S'De fleste bratte heng, Ogsaa i mindre bratt terreng'
p609
sg28
Nsg29
g348
sg31
S'2 - Smaa'
p610
sba(irunmatrix
M3Element
p611
(dp612
g3
Nsg4
S'Lite sannsynlig, Mulig'
p613
sg6
S'gray'
p614
sg8
(lp615
sg10
S'Possible'
p616
sg12
S'Most'
p617
sg14
g66
sg16
I0
sg17
S'Low'
p618
sg19
S'Liten tilleggsbelastning'
p619
sg21
Nsg22
S'200'
p620
sg24
S'2000'
p621
sg26
S'De fleste bratte heng, Ogsaa i mindre bratt terreng'
p622
sg28
Nsg29
g348
sg31
S'2 - Smaa'
p623
sba(irunmatrix
M3Element
p624
(dp625
g3
Nsg4
S'Lite sannsynlig, Mulig'
p626
sg6
S'gray'
p627
sg8
(lp628
sg10
S'Possible'
p629
sg12
S'Most'
p630
sg14
g66
sg16
I0
sg17
S'Nat'
p631
sg19
S'Naturlig utloest'
p632
sg21
Nsg22
S'200'
p633
sg24
S'2100'
p634
sg26
S'De fleste bratte heng, Ogsaa i mindre bratt terreng'
p635
sg28
Nsg29
g348
sg31
S'2 - Smaa'
p636
sba(irunmatrix
M3Element
p637
(dp638
g3
Nsg4
S'Sannsynlig, Meget sannsynlig'
p639
sg6
S'gray'
p640
sg8
(lp641
sg10
S'Likely'
p642
sg12
S'Most'
p643
sg14
g66
sg16
I0
sg17
S'High'
p644
sg19
S'Stor tilleggsbelastning'
p645
sg21
Nsg22
S'200'
p646
sg24
S'2200'
p647
sg26
S'De fleste bratte heng, Ogsaa i mindre bratt terreng'
p648
sg28
Nsg29
g348
sg31
S'2 - Smaa'
p649
sba(irunmatrix
M3Element
p650
(dp651
g3
Nsg4
S'Sannsynlig, Meget sannsynlig'
p652
sg6
S'gray'
p653
sg8
(lp654
sg10
S'Likely'
p655
sg12
S'Most'
p656
sg14
g66
sg16
I0
sg17
S'Low'
p657
sg19
S'Liten tilleggsbelastning'
p658
sg21
Nsg22
S'200'
p659
sg24
S'2300'
p660
sg26
S'De fleste bratte heng, Ogsaa i mindre bratt terreng'
p661
sg28
Nsg29
g348
sg31
S'2 - Smaa'
p662
sba(irunmatrix
M3Element
p663
(dp664
g3
Nsg4
S'Sannsynlig, Meget sannsynlig'
p665
sg6
S'white'
p666
sg8
(lp667
sg10
S'Likely'
p668
sg12
S'Most'
p669
sg14
g66
sg16
I0
sg17
S'Nat'
p670
sg19
S'Naturlig utloest'
p671
sg21
Nsg22
S'200'
p672
sg24
S'2400'
p673
sg26
S'De fleste bratte heng, Ogsaa i mindre bratt terreng'
p674
sg28
Nsg29
g348
sg31
S'2 - Smaa'
p675
sba(irunmatrix
M3Element
p676
(dp677
g3
Nsg4
S'Lite sannsynlig, Mulig'
p678
sg6
S'white'
p679
sg8
(lp680
sg10
S'Possible'
p681
sg12
S'Isolated'
p682
sg14
g15
sg16
I1
sg17
S'High'
p683
sg19
S'Stor tilleggsbelastning'
p684
sg21
Nsg22
S'300'
p685
sg24
S'100'
p686
sg26
S'Isolerte faresoner'
p687
sg28
Nsg29
S'3'
p688
sg31
S'3 - Middels'
p689
sba(irunmatrix
M3Element
p690
(dp691
g3
Nsg4
S'Lite sannsynlig, Mulig'
p692
sg6
S'white'
p693
sg8
(lp694
sg10
S'Possible'
p695
sg12
S'Isolated'
p696
sg14
g249
sg16
I2
sg17
S'Low'
p697
sg19
S'Liten tilleggsbelastning'
p698
sg21
Nsg22
S'300'
p699
sg24
S'200'
p700
sg26
S'Isolerte faresoner'
p701
sg28
Nsg29
g688
sg31
S'3 - Middels'
p702
sba(irunmatrix
M3Element
p703
(dp704
g3
F3.0
sg4
S'Lite sannsynlig, Mulig'
p705
sg6
S'#ff9900'
p706
sg8
(lp707
I3
asg10
S'Possible'
p708
sg12
S'Isolated'
p709
sg14
g249
sg16
I2
sg17
S'Nat'
p710
sg19
S'Naturlig utloest'
p711
sg21
I1
sg22
S'300'
p712
sg24
S'300'
p713
sg26
S'Isolerte faresoner'
p714
sg28
g137
(g141
S'\x00\x00\x00\x00\x00\x00\x00\x00'
p715
tp716
Rp717
sg29
g688
sg31
S'3 - Middels'
p718
sba(irunmatrix
M3Element
p719
(dp720
g3
Nsg4
S'Sannsynlig, Meget sannsynlig'
p721
sg6
S'gray'
p722
sg8
(lp723
sg10
S'Likely'
p724
sg12
S'Isolated'
p725
sg14
g66
sg16
I0
sg17
S'High'
p726
sg19
S'Stor tilleggsbelastning'
p727
sg21
Nsg22
S'300'
p728
sg24
S'400'
p729
sg26
S'Isolerte faresoner'
p730
sg28
Nsg29
g688
sg31
S'3 - Middels'
p731
sba(irunmatrix
M3Element
p732
(dp733
g3
Nsg4
S'Sannsynlig, Meget sannsynlig'
p734
sg6
S'gray'
p735
sg8
(lp736
sg10
S'Likely'
p737
sg12
S'Isolated'
p738
sg14
g66
sg16
I0
sg17
S'Low'
p739
sg19
S'Liten tilleggsbelastning'
p740
sg21
Nsg22
S'300'
p741
sg24
S'500'
p742
sg26
S'Isolerte faresoner'
p743
sg28
Nsg29
g688
sg31
S'3 - Middels'
p744
sba(irunmatrix
M3Element
p745
(dp746
g3
Nsg4
S'Sannsynlig, Meget sannsynlig'
p747
sg6
S'gray'
p748
sg8
(lp749
sg10
S'Likely'
p750
sg12
S'Isolated'
p751
sg14
g66
sg16
I0
sg17
S'Nat'
p752
sg19
S'Naturlig utloest'
p753
sg21
Nsg22
S'300'
p754
sg24
S'600'
p755
sg26
S'Isolerte faresoner'
p756
sg28
Nsg29
g688
sg31
S'3 - Middels'
p757
sba(irunmatrix
M3Element
p758
(dp759
g3
F2.0
sg4
S'Lite sannsynlig, Mulig'
p760
sg6
g216
sg8
(lp761
I2
aI2
aI2
aI2
aI2
aI2
aI2
aI2
asg10
S'Possible'
p762
sg12
S'Some'
p763
sg14
g249
sg16
I2
sg17
S'High'
p764
sg19
S'Stor tilleggsbelastning'
p765
sg21
I8
sg22
S'300'
p766
sg24
S'700'
p767
sg26
S'Noen bratte heng'
p768
sg28
g137
(g141
S'\x00\x00\x00\x00\x00\x00\x00\x00'
p769
tp770
Rp771
sg29
g688
sg31
S'3 - Middels'
p772
sba(irunmatrix
M3Element
p773
(dp774
g3
F3.0
sg4
S'Lite sannsynlig, Mulig'
p775
sg6
g706
sg8
(lp776
I3
aI3
aI3
aI3
aI3
aI3
aI3
aI3
asg10
S'Possible'
p777
sg12
S'Some'
p778
sg14
g512
sg16
I3
sg17
S'Low'
p779
sg19
S'Liten tilleggsbelastning'
p780
sg21
I8
sg22
S'300'
p781
sg24
S'800'
p782
sg26
S'Noen bratte heng'
p783
sg28
g137
(g141
S'\x00\x00\x00\x00\x00\x00\x00\x00'
p784
tp785
Rp786
sg29
g688
sg31
S'3 - Middels'
p787
sba(irunmatrix
M3Element
p788
(dp789
g3
Nsg4
S'Lite sannsynlig, Mulig'
p790
sg6
S'white'
p791
sg8
(lp792
sg10
S'Possible'
p793
sg12
S'Some'
p794
sg14
g512
sg16
I3
sg17
S'Nat'
p795
sg19
S'Naturlig utloest'
p796
sg21
Nsg22
S'300'
p797
sg24
S'900'
p798
sg26
S'Noen bratte heng'
p799
sg28
Nsg29
g688
sg31
S'3 - Middels'
p800
sba(irunmatrix
M3Element
p801
(dp802
g3
Nsg4
S'Sannsynlig, Meget sannsynlig'
p803
sg6
S'gray'
p804
sg8
(lp805
sg10
S'Likely'
p806
sg12
S'Some'
p807
sg14
g66
sg16
I0
sg17
S'High'
p808
sg19
S'Stor tilleggsbelastning'
p809
sg21
Nsg22
S'300'
p810
sg24
S'1000'
p811
sg26
S'Noen bratte heng'
p812
sg28
Nsg29
g688
sg31
S'3 - Middels'
p813
sba(irunmatrix
M3Element
p814
(dp815
g3
Nsg4
S'Sannsynlig, Meget sannsynlig'
p816
sg6
S'gray'
p817
sg8
(lp818
sg10
S'Likely'
p819
sg12
S'Some'
p820
sg14
g66
sg16
I0
sg17
S'Low'
p821
sg19
S'Liten tilleggsbelastning'
p822
sg21
Nsg22
S'300'
p823
sg24
S'1100'
p824
sg26
S'Noen bratte heng'
p825
sg28
Nsg29
g688
sg31
S'3 - Middels'
p826
sba(irunmatrix
M3Element
p827
(dp828
g3
Nsg4
S'Sannsynlig, Meget sannsynlig'
p829
sg6
S'white'
p830
sg8
(lp831
sg10
S'Likely'
p832
sg12
S'Some'
p833
sg14
g578
sg16
I4
sg17
S'Nat'
p834
sg19
S'Naturlig utloest'
p835
sg21
Nsg22
S'300'
p836
sg24
S'1200'
p837
sg26
S'Noen bratte heng'
p838
sg28
Nsg29
g688
sg31
S'3 - Middels'
p839
sba(irunmatrix
M3Element
p840
(dp841
g3
Nsg4
S'Lite sannsynlig, Mulig'
p842
sg6
S'gray'
p843
sg8
(lp844
sg10
S'Possible'
p845
sg12
S'Many'
p846
sg14
g66
sg16
I0
sg17
S'High'
p847
sg19
S'Stor tilleggsbelastning'
p848
sg21
Nsg22
S'300'
p849
sg24
S'1300'
p850
sg26
S'Mange bratte heng'
p851
sg28
Nsg29
g688
sg31
S'3 - Middels'
p852
sba(irunmatrix
M3Element
p853
(dp854
g3
Nsg4
S'Lite sannsynlig, Mulig'
p855
sg6
S'white'
p856
sg8
(lp857
sg10
S'Possible'
p858
sg12
S'Many'
p859
sg14
g578
sg16
I4
sg17
S'Low'
p860
sg19
S'Liten tilleggsbelastning'
p861
sg21
Nsg22
S'300'
p862
sg24
S'1400'
p863
sg26
S'Mange bratte heng'
p864
sg28
Nsg29
g688
sg31
S'3 - Middels'
p865
sba(irunmatrix
M3Element
p866
(dp867
g3
Nsg4
S'Lite sannsynlig, Mulig'
p868
sg6
S'gray'
p869
sg8
(lp870
sg10
S'Possible'
p871
sg12
S'Many'
p872
sg14
g66
sg16
I0
sg17
S'Nat'
p873
sg19
S'Naturlig utloest'
p874
sg21
Nsg22
S'300'
p875
sg24
S'1500'
p876
sg26
S'Mange bratte heng'
p877
sg28
Nsg29
g688
sg31
S'3 - Middels'
p878
sba(irunmatrix
M3Element
p879
(dp880
g3
Nsg4
S'Sannsynlig, Meget sannsynlig'
p881
sg6
S'gray'
p882
sg8
(lp883
sg10
S'Likely'
p884
sg12
S'Many'
p885
sg14
g66
sg16
I0
sg17
S'High'
p886
sg19
S'Stor tilleggsbelastning'
p887
sg21
Nsg22
S'300'
p888
sg24
S'1600'
p889
sg26
S'Mange bratte heng'
p890
sg28
Nsg29
g688
sg31
S'3 - Middels'
p891
sba(irunmatrix
M3Element
p892
(dp893
g3
Nsg4
S'Sannsynlig, Meget sannsynlig'
p894
sg6
S'white'
p895
sg8
(lp896
sg10
S'Likely'
p897
sg12
S'Many'
p898
sg14
g578
sg16
I4
sg17
S'Low'
p899
sg19
S'Liten tilleggsbelastning'
p900
sg21
Nsg22
S'300'
p901
sg24
S'1700'
p902
sg26
S'Mange bratte heng'
p903
sg28
Nsg29
g688
sg31
S'3 - Middels'
p904
sba(irunmatrix
M3Element
p905
(dp906
g3
Nsg4
S'Sannsynlig, Meget sannsynlig'
p907
sg6
S'white'
p908
sg8
(lp909
sg10
S'Likely'
p910
sg12
S'Many'
p911
sg14
g578
sg16
I4
sg17
S'Nat'
p912
sg19
S'Naturlig utloest'
p913
sg21
Nsg22
S'300'
p914
sg24
S'1800'
p915
sg26
S'Mange bratte heng'
p916
sg28
Nsg29
g688
sg31
S'3 - Middels'
p917
sba(irunmatrix
M3Element
p918
(dp919
g3
Nsg4
S'Lite sannsynlig, Mulig'
p920
sg6
S'gray'
p921
sg8
(lp922
sg10
S'Possible'
p923
sg12
S'Most'
p924
sg14
g66
sg16
I0
sg17
S'High'
p925
sg19
S'Stor tilleggsbelastning'
p926
sg21
Nsg22
S'300'
p927
sg24
S'1900'
p928
sg26
S'De fleste bratte heng, Ogsaa i mindre bratt terreng'
p929
sg28
Nsg29
g688
sg31
S'3 - Middels'
p930
sba(irunmatrix
M3Element
p931
(dp932
g3
Nsg4
S'Lite sannsynlig, Mulig'
p933
sg6
S'gray'
p934
sg8
(lp935
sg10
S'Possible'
p936
sg12
S'Most'
p937
sg14
g66
sg16
I0
sg17
S'Low'
p938
sg19
S'Liten tilleggsbelastning'
p939
sg21
Nsg22
S'300'
p940
sg24
S'2000'
p941
sg26
S'De fleste bratte heng, Ogsaa i mindre bratt terreng'
p942
sg28
Nsg29
g688
sg31
S'3 - Middels'
p943
sba(irunmatrix
M3Element
p944
(dp945
g3
Nsg4
S'Lite sannsynlig, Mulig'
p946
sg6
S'gray'
p947
sg8
(lp948
sg10
S'Possible'
p949
sg12
S'Most'
p950
sg14
g66
sg16
I0
sg17
S'Nat'
p951
sg19
S'Naturlig utloest'
p952
sg21
Nsg22
S'300'
p953
sg24
S'2100'
p954
sg26
S'De fleste bratte heng, Ogsaa i mindre bratt terreng'
p955
sg28
Nsg29
g688
sg31
S'3 - Middels'
p956
sba(irunmatrix
M3Element
p957
(dp958
g3
Nsg4
S'Sannsynlig, Meget sannsynlig'
p959
sg6
S'gray'
p960
sg8
(lp961
sg10
S'Likely'
p962
sg12
S'Most'
p963
sg14
g66
sg16
I0
sg17
S'High'
p964
sg19
S'Stor tilleggsbelastning'
p965
sg21
Nsg22
S'300'
p966
sg24
S'2200'
p967
sg26
S'De fleste bratte heng, Ogsaa i mindre bratt terreng'
p968
sg28
Nsg29
g688
sg31
S'3 - Middels'
p969
sba(irunmatrix
M3Element
p970
(dp971
g3
Nsg4
S'Sannsynlig, Meget sannsynlig'
p972
sg6
S'gray'
p973
sg8
(lp974
sg10
S'Likely'
p975
sg12
S'Most'
p976
sg14
g66
sg16
I0
sg17
S'Low'
p977
sg19
S'Liten tilleggsbelastning'
p978
sg21
Nsg22
S'300'
p979
sg24
S'2300'
p980
sg26
S'De fleste bratte heng, Ogsaa i mindre bratt terreng'
p981
sg28
Nsg29
g688
sg31
S'3 - Middels'
p982
sba(irunmatrix
M3Element
p983
(dp984
g3
Nsg4
S'Sannsynlig, Meget sannsynlig'
p985
sg6
S'white'
p986
sg8
(lp987
sg10
S'Likely'
p988
sg12
S'Most'
p989
sg14
g66
sg16
I0
sg17
S'Nat'
p990
sg19
S'Naturlig utloest'
p991
sg21
Nsg22
S'300'
p992
sg24
S'2400'
p993
sg26
S'De fleste bratte heng, Ogsaa i mindre bratt terreng'
p994
sg28
Nsg29
g688
sg31
S'3 - Middels'
p995
sba(irunmatrix
M3Element
p996
(dp997
g3
Nsg4
S'Lite sannsynlig, Mulig'
p998
sg6
S'white'
p999
sg8
(lp1000
sg10
S'Possible'
p1001
sg12
S'Isolated'
p1002
sg14
g249
sg16
I2
sg17
S'High'
p1003
sg19
S'Stor tilleggsbelastning'
p1004
sg21
Nsg22
S'400'
p1005
sg24
S'100'
p1006
sg26
S'Isolerte faresoner'
p1007
sg28
Nsg29
S'4'
p1008
sg31
S'4 - Store'
p1009
sba(irunmatrix
M3Element
p1010
(dp1011
g3
Nsg4
S'Lite sannsynlig, Mulig'
p1012
sg6
S'white'
p1013
sg8
(lp1014
sg10
S'Possible'
p1015
sg12
S'Isolated'
p1016
sg14
g512
sg16
I3
sg17
S'Low'
p1017
sg19
S'Liten tilleggsbelastning'
p1018
sg21
Nsg22
S'400'
p1019
sg24
S'200'
p1020
sg26
S'Isolerte faresoner'
p1021
sg28
Nsg29
g1008
sg31
S'4 - Store'
p1022
sba(irunmatrix
M3Element
p1023
(dp1024
g3
Nsg4
S'Lite sannsynlig, Mulig'
p1025
sg6
S'white'
p1026
sg8
(lp1027
sg10
S'Possible'
p1028
sg12
S'Isolated'
p1029
sg14
g512
sg16
I3
sg17
S'Nat'
p1030
sg19
S'Naturlig utloest'
p1031
sg21
Nsg22
S'400'
p1032
sg24
S'300'
p1033
sg26
S'Isolerte faresoner'
p1034
sg28
Nsg29
g1008
sg31
S'4 - Store'
p1035
sba(irunmatrix
M3Element
p1036
(dp1037
g3
Nsg4
S'Sannsynlig, Meget sannsynlig'
p1038
sg6
S'gray'
p1039
sg8
(lp1040
sg10
S'Likely'
p1041
sg12
S'Isolated'
p1042
sg14
g66
sg16
I0
sg17
S'High'
p1043
sg19
S'Stor tilleggsbelastning'
p1044
sg21
Nsg22
S'400'
p1045
sg24
S'400'
p1046
sg26
S'Isolerte faresoner'
p1047
sg28
Nsg29
g1008
sg31
S'4 - Store'
p1048
sba(irunmatrix
M3Element
p1049
(dp1050
g3
Nsg4
S'Sannsynlig, Meget sannsynlig'
p1051
sg6
S'gray'
p1052
sg8
(lp1053
sg10
S'Likely'
p1054
sg12
S'Isolated'
p1055
sg14
g66
sg16
I0
sg17
S'Low'
p1056
sg19
S'Liten tilleggsbelastning'
p1057
sg21
Nsg22
S'400'
p1058
sg24
S'500'
p1059
sg26
S'Isolerte faresoner'
p1060
sg28
Nsg29
g1008
sg31
S'4 - Store'
p1061
sba(irunmatrix
M3Element
p1062
(dp1063
g3
Nsg4
S'Sannsynlig, Meget sannsynlig'
p1064
sg6
S'gray'
p1065
sg8
(lp1066
sg10
S'Likely'
p1067
sg12
S'Isolated'
p1068
sg14
g66
sg16
I0
sg17
S'Nat'
p1069
sg19
S'Naturlig utloest'
p1070
sg21
Nsg22
S'400'
p1071
sg24
S'600'
p1072
sg26
S'Isolerte faresoner'
p1073
sg28
Nsg29
g1008
sg31
S'4 - Store'
p1074
sba(irunmatrix
M3Element
p1075
(dp1076
g3
Nsg4
S'Lite sannsynlig, Mulig'
p1077
sg6
S'white'
p1078
sg8
(lp1079
sg10
S'Possible'
p1080
sg12
S'Some'
p1081
sg14
g512
sg16
I3
sg17
S'High'
p1082
sg19
S'Stor tilleggsbelastning'
p1083
sg21
Nsg22
S'400'
p1084
sg24
S'700'
p1085
sg26
S'Noen bratte heng'
p1086
sg28
Nsg29
g1008
sg31
S'4 - Store'
p1087
sba(irunmatrix
M3Element
p1088
(dp1089
g3
Nsg4
S'Lite sannsynlig, Mulig'
p1090
sg6
S'white'
p1091
sg8
(lp1092
sg10
S'Possible'
p1093
sg12
S'Some'
p1094
sg14
g578
sg16
I4
sg17
S'Low'
p1095
sg19
S'Liten tilleggsbelastning'
p1096
sg21
Nsg22
S'400'
p1097
sg24
S'800'
p1098
sg26
S'Noen bratte heng'
p1099
sg28
Nsg29
g1008
sg31
S'4 - Store'
p1100
sba(irunmatrix
M3Element
p1101
(dp1102
g3
Nsg4
S'Lite sannsynlig, Mulig'
p1103
sg6
S'white'
p1104
sg8
(lp1105
sg10
S'Possible'
p1106
sg12
S'Some'
p1107
sg14
g578
sg16
I4
sg17
S'Nat'
p1108
sg19
S'Naturlig utloest'
p1109
sg21
Nsg22
S'400'
p1110
sg24
S'900'
p1111
sg26
S'Noen bratte heng'
p1112
sg28
Nsg29
g1008
sg31
S'4 - Store'
p1113
sba(irunmatrix
M3Element
p1114
(dp1115
g3
Nsg4
S'Sannsynlig, Meget sannsynlig'
p1116
sg6
S'gray'
p1117
sg8
(lp1118
sg10
S'Likely'
p1119
sg12
S'Some'
p1120
sg14
g66
sg16
I0
sg17
S'High'
p1121
sg19
S'Stor tilleggsbelastning'
p1122
sg21
Nsg22
S'400'
p1123
sg24
S'1000'
p1124
sg26
S'Noen bratte heng'
p1125
sg28
Nsg29
g1008
sg31
S'4 - Store'
p1126
sba(irunmatrix
M3Element
p1127
(dp1128
g3
Nsg4
S'Sannsynlig, Meget sannsynlig'
p1129
sg6
S'gray'
p1130
sg8
(lp1131
sg10
S'Likely'
p1132
sg12
S'Some'
p1133
sg14
g66
sg16
I0
sg17
S'Low'
p1134
sg19
S'Liten tilleggsbelastning'
p1135
sg21
Nsg22
S'400'
p1136
sg24
S'1100'
p1137
sg26
S'Noen bratte heng'
p1138
sg28
Nsg29
g1008
sg31
S'4 - Store'
p1139
sba(irunmatrix
M3Element
p1140
(dp1141
g3
Nsg4
S'Sannsynlig, Meget sannsynlig'
p1142
sg6
S'white'
p1143
sg8
(lp1144
sg10
S'Likely'
p1145
sg12
S'Some'
p1146
sg14
g578
sg16
I4
sg17
S'Nat'
p1147
sg19
S'Naturlig utloest'
p1148
sg21
Nsg22
S'400'
p1149
sg24
S'1200'
p1150
sg26
S'Noen bratte heng'
p1151
sg28
Nsg29
g1008
sg31
S'4 - Store'
p1152
sba(irunmatrix
M3Element
p1153
(dp1154
g3
Nsg4
S'Lite sannsynlig, Mulig'
p1155
sg6
S'gray'
p1156
sg8
(lp1157
sg10
S'Possible'
p1158
sg12
S'Many'
p1159
sg14
g66
sg16
I0
sg17
S'High'
p1160
sg19
S'Stor tilleggsbelastning'
p1161
sg21
Nsg22
S'400'
p1162
sg24
S'1300'
p1163
sg26
S'Mange bratte heng'
p1164
sg28
Nsg29
g1008
sg31
S'4 - Store'
p1165
sba(irunmatrix
M3Element
p1166
(dp1167
g3
Nsg4
S'Lite sannsynlig, Mulig'
p1168
sg6
S'white'
p1169
sg8
(lp1170
sg10
S'Possible'
p1171
sg12
S'Many'
p1172
sg14
g66
sg16
I0
sg17
S'Low'
p1173
sg19
S'Liten tilleggsbelastning'
p1174
sg21
Nsg22
S'400'
p1175
sg24
S'1400'
p1176
sg26
S'Mange bratte heng'
p1177
sg28
Nsg29
g1008
sg31
S'4 - Store'
p1178
sba(irunmatrix
M3Element
p1179
(dp1180
g3
Nsg4
S'Lite sannsynlig, Mulig'
p1181
sg6
S'gray'
p1182
sg8
(lp1183
sg10
S'Possible'
p1184
sg12
S'Many'
p1185
sg14
g66
sg16
I0
sg17
S'Nat'
p1186
sg19
S'Naturlig utloest'
p1187
sg21
Nsg22
S'400'
p1188
sg24
S'1500'
p1189
sg26
S'Mange bratte heng'
p1190
sg28
Nsg29
g1008
sg31
S'4 - Store'
p1191
sba(irunmatrix
M3Element
p1192
(dp1193
g3
Nsg4
S'Sannsynlig, Meget sannsynlig'
p1194
sg6
S'gray'
p1195
sg8
(lp1196
sg10
S'Likely'
p1197
sg12
S'Many'
p1198
sg14
g66
sg16
I0
sg17
S'High'
p1199
sg19
S'Stor tilleggsbelastning'
p1200
sg21
Nsg22
S'400'
p1201
sg24
S'1600'
p1202
sg26
S'Mange bratte heng'
p1203
sg28
Nsg29
g1008
sg31
S'4 - Store'
p1204
sba(irunmatrix
M3Element
p1205
(dp1206
g3
Nsg4
S'Sannsynlig, Meget sannsynlig'
p1207
sg6
S'white'
p1208
sg8
(lp1209
sg10
S'Likely'
p1210
sg12
S'Many'
p1211
sg14
g66
sg16
I0
sg17
S'Low'
p1212
sg19
S'Liten tilleggsbelastning'
p1213
sg21
Nsg22
S'400'
p1214
sg24
S'1700'
p1215
sg26
S'Mange bratte heng'
p1216
sg28
Nsg29
g1008
sg31
S'4 - Store'
p1217
sba(irunmatrix
M3Element
p1218
(dp1219
g3
Nsg4
S'Sannsynlig, Meget sannsynlig'
p1220
sg6
S'white'
p1221
sg8
(lp1222
sg10
S'Likely'
p1223
sg12
S'Many'
p1224
sg14
S'k'
p1225
sg16
I5
sg17
S'Nat'
p1226
sg19
S'Naturlig utloest'
p1227
sg21
Nsg22
S'400'
p1228
sg24
S'1800'
p1229
sg26
S'Mange bratte heng'
p1230
sg28
Nsg29
g1008
sg31
S'4 - Store'
p1231
sba(irunmatrix
M3Element
p1232
(dp1233
g3
Nsg4
S'Lite sannsynlig, Mulig'
p1234
sg6
S'gray'
p1235
sg8
(lp1236
sg10
S'Possible'
p1237
sg12
S'Most'
p1238
sg14
g66
sg16
I0
sg17
S'High'
p1239
sg19
S'Stor tilleggsbelastning'
p1240
sg21
Nsg22
S'400'
p1241
sg24
S'1900'
p1242
sg26
S'De fleste bratte heng, Ogsaa i mindre bratt terreng'
p1243
sg28
Nsg29
g1008
sg31
S'4 - Store'
p1244
sba(irunmatrix
M3Element
p1245
(dp1246
g3
Nsg4
S'Lite sannsynlig, Mulig'
p1247
sg6
S'gray'
p1248
sg8
(lp1249
sg10
S'Possible'
p1250
sg12
S'Most'
p1251
sg14
g66
sg16
I0
sg17
S'Low'
p1252
sg19
S'Liten tilleggsbelastning'
p1253
sg21
Nsg22
S'400'
p1254
sg24
S'2000'
p1255
sg26
S'De fleste bratte heng, Ogsaa i mindre bratt terreng'
p1256
sg28
Nsg29
g1008
sg31
S'4 - Store'
p1257
sba(irunmatrix
M3Element
p1258
(dp1259
g3
Nsg4
S'Lite sannsynlig, Mulig'
p1260
sg6
S'gray'
p1261
sg8
(lp1262
sg10
S'Possible'
p1263
sg12
S'Most'
p1264
sg14
g66
sg16
I0
sg17
S'Nat'
p1265
sg19
S'Naturlig utloest'
p1266
sg21
Nsg22
S'400'
p1267
sg24
S'2100'
p1268
sg26
S'De fleste bratte heng, Ogsaa i mindre bratt terreng'
p1269
sg28
Nsg29
g1008
sg31
S'4 - Store'
p1270
sba(irunmatrix
M3Element
p1271
(dp1272
g3
Nsg4
S'Sannsynlig, Meget sannsynlig'
p1273
sg6
S'gray'
p1274
sg8
(lp1275
sg10
S'Likely'
p1276
sg12
S'Most'
p1277
sg14
g66
sg16
I0
sg17
S'High'
p1278
sg19
S'Stor tilleggsbelastning'
p1279
sg21
Nsg22
S'400'
p1280
sg24
S'2200'
p1281
sg26
S'De fleste bratte heng, Ogsaa i mindre bratt terreng'
p1282
sg28
Nsg29
g1008
sg31
S'4 - Store'
p1283
sba(irunmatrix
M3Element
p1284
(dp1285
g3
Nsg4
S'Sannsynlig, Meget sannsynlig'
p1286
sg6
S'gray'
p1287
sg8
(lp1288
sg10
S'Likely'
p1289
sg12
S'Most'
p1290
sg14
g66
sg16
I0
sg17
S'Low'
p1291
sg19
S'Liten tilleggsbelastning'
p1292
sg21
Nsg22
S'400'
p1293
sg24
S'2300'
p1294
sg26
S'De fleste bratte heng, Ogsaa i mindre bratt terreng'
p1295
sg28
Nsg29
g1008
sg31
S'4 - Store'
p1296
sba(irunmatrix
M3Element
p1297
(dp1298
g3
Nsg4
S'Sannsynlig, Meget sannsynlig'
p1299
sg6
S'white'
p1300
sg8
(lp1301
sg10
S'Likely'
p1302
sg12
S'Most'
p1303
sg14
g66
sg16
I0
sg17
S'Nat'
p1304
sg19
S'Naturlig utloest'
p1305
sg21
Nsg22
S'400'
p1306
sg24
S'2400'
p1307
sg26
S'De fleste bratte heng, Ogsaa i mindre bratt terreng'
p1308
sg28
Nsg29
g1008
sg31
S'4 - Store'
p1309
sba(irunmatrix
M3Element
p1310
(dp1311
g3
Nsg4
S'Lite sannsynlig, Mulig'
p1312
sg6
S'white'
p1313
sg8
(lp1314
sg10
S'Possible'
p1315
sg12
S'Isolated'
p1316
sg14
g66
sg16
I0
sg17
S'High'
p1317
sg19
S'Stor tilleggsbelastning'
p1318
sg21
Nsg22
S'500'
p1319
sg24
S'100'
p1320
sg26
S'Isolerte faresoner'
p1321
sg28
Nsg29
S'5'
p1322
sg31
S'5 - Svaert store'
p1323
sba(irunmatrix
M3Element
p1324
(dp1325
g3
Nsg4
S'Lite sannsynlig, Mulig'
p1326
sg6
S'white'
p1327
sg8
(lp1328
sg10
S'Possible'
p1329
sg12
S'Isolated'
p1330
sg14
g66
sg16
I0
sg17
S'Low'
p1331
sg19
S'Liten tilleggsbelastning'
p1332
sg21
Nsg22
S'500'
p1333
sg24
S'200'
p1334
sg26
S'Isolerte faresoner'
p1335
sg28
Nsg29
g1322
sg31
S'5 - Svaert store'
p1336
sba(irunmatrix
M3Element
p1337
(dp1338
g3
Nsg4
S'Lite sannsynlig, Mulig'
p1339
sg6
S'white'
p1340
sg8
(lp1341
sg10
S'Possible'
p1342
sg12
S'Isolated'
p1343
sg14
g66
sg16
I0
sg17
S'Nat'
p1344
sg19
S'Naturlig utloest'
p1345
sg21
Nsg22
S'500'
p1346
sg24
S'300'
p1347
sg26
S'Isolerte faresoner'
p1348
sg28
Nsg29
g1322
sg31
S'5 - Svaert store'
p1349
sba(irunmatrix
M3Element
p1350
(dp1351
g3
Nsg4
S'Sannsynlig, Meget sannsynlig'
p1352
sg6
S'gray'
p1353
sg8
(lp1354
sg10
S'Likely'
p1355
sg12
S'Isolated'
p1356
sg14
g66
sg16
I0
sg17
S'High'
p1357
sg19
S'Stor tilleggsbelastning'
p1358
sg21
Nsg22
S'500'
p1359
sg24
S'400'
p1360
sg26
S'Isolerte faresoner'
p1361
sg28
Nsg29
g1322
sg31
S'5 - Svaert store'
p1362
sba(irunmatrix
M3Element
p1363
(dp1364
g3
Nsg4
S'Sannsynlig, Meget sannsynlig'
p1365
sg6
S'gray'
p1366
sg8
(lp1367
sg10
S'Likely'
p1368
sg12
S'Isolated'
p1369
sg14
g66
sg16
I0
sg17
S'Low'
p1370
sg19
S'Liten tilleggsbelastning'
p1371
sg21
Nsg22
S'500'
p1372
sg24
S'500'
p1373
sg26
S'Isolerte faresoner'
p1374
sg28
Nsg29
g1322
sg31
S'5 - Svaert store'
p1375
sba(irunmatrix
M3Element
p1376
(dp1377
g3
Nsg4
S'Sannsynlig, Meget sannsynlig'
p1378
sg6
S'gray'
p1379
sg8
(lp1380
sg10
S'Likely'
p1381
sg12
S'Isolated'
p1382
sg14
g66
sg16
I0
sg17
S'Nat'
p1383
sg19
S'Naturlig utloest'
p1384
sg21
Nsg22
S'500'
p1385
sg24
S'600'
p1386
sg26
S'Isolerte faresoner'
p1387
sg28
Nsg29
g1322
sg31
S'5 - Svaert store'
p1388
sba(irunmatrix
M3Element
p1389
(dp1390
g3
Nsg4
S'Lite sannsynlig, Mulig'
p1391
sg6
S'white'
p1392
sg8
(lp1393
sg10
S'Possible'
p1394
sg12
S'Some'
p1395
sg14
g66
sg16
I0
sg17
S'High'
p1396
sg19
S'Stor tilleggsbelastning'
p1397
sg21
Nsg22
S'500'
p1398
sg24
S'700'
p1399
sg26
S'Noen bratte heng'
p1400
sg28
Nsg29
g1322
sg31
S'5 - Svaert store'
p1401
sba(irunmatrix
M3Element
p1402
(dp1403
g3
Nsg4
S'Lite sannsynlig, Mulig'
p1404
sg6
S'white'
p1405
sg8
(lp1406
sg10
S'Possible'
p1407
sg12
S'Some'
p1408
sg14
g66
sg16
I0
sg17
S'Low'
p1409
sg19
S'Liten tilleggsbelastning'
p1410
sg21
Nsg22
S'500'
p1411
sg24
S'800'
p1412
sg26
S'Noen bratte heng'
p1413
sg28
Nsg29
g1322
sg31
S'5 - Svaert store'
p1414
sba(irunmatrix
M3Element
p1415
(dp1416
g3
Nsg4
S'Lite sannsynlig, Mulig'
p1417
sg6
S'white'
p1418
sg8
(lp1419
sg10
S'Possible'
p1420
sg12
S'Some'
p1421
sg14
g66
sg16
I0
sg17
S'Nat'
p1422
sg19
S'Naturlig utloest'
p1423
sg21
Nsg22
S'500'
p1424
sg24
S'900'
p1425
sg26
S'Noen bratte heng'
p1426
sg28
Nsg29
g1322
sg31
S'5 - Svaert store'
p1427
sba(irunmatrix
M3Element
p1428
(dp1429
g3
Nsg4
S'Sannsynlig, Meget sannsynlig'
p1430
sg6
S'gray'
p1431
sg8
(lp1432
sg10
S'Likely'
p1433
sg12
S'Some'
p1434
sg14
g66
sg16
I0
sg17
S'High'
p1435
sg19
S'Stor tilleggsbelastning'
p1436
sg21
Nsg22
S'500'
p1437
sg24
S'1000'
p1438
sg26
S'Noen bratte heng'
p1439
sg28
Nsg29
g1322
sg31
S'5 - Svaert store'
p1440
sba(irunmatrix
M3Element
p1441
(dp1442
g3
Nsg4
S'Sannsynlig, Meget sannsynlig'
p1443
sg6
S'gray'
p1444
sg8
(lp1445
sg10
S'Likely'
p1446
sg12
S'Some'
p1447
sg14
g66
sg16
I0
sg17
S'Low'
p1448
sg19
S'Liten tilleggsbelastning'
p1449
sg21
Nsg22
S'500'
p1450
sg24
S'1100'
p1451
sg26
S'Noen bratte heng'
p1452
sg28
Nsg29
g1322
sg31
S'5 - Svaert store'
p1453
sba(irunmatrix
M3Element
p1454
(dp1455
g3
Nsg4
S'Sannsynlig, Meget sannsynlig'
p1456
sg6
S'white'
p1457
sg8
(lp1458
sg10
S'Likely'
p1459
sg12
S'Some'
p1460
sg14
g66
sg16
I0
sg17
S'Nat'
p1461
sg19
S'Naturlig utloest'
p1462
sg21
Nsg22
S'500'
p1463
sg24
S'1200'
p1464
sg26
S'Noen bratte heng'
p1465
sg28
Nsg29
g1322
sg31
S'5 - Svaert store'
p1466
sba(irunmatrix
M3Element
p1467
(dp1468
g3
Nsg4
S'Lite sannsynlig, Mulig'
p1469
sg6
S'gray'
p1470
sg8
(lp1471
sg10
S'Possible'
p1472
sg12
S'Many'
p1473
sg14
g66
sg16
I0
sg17
S'High'
p1474
sg19
S'Stor tilleggsbelastning'
p1475
sg21
Nsg22
S'500'
p1476
sg24
S'1300'
p1477
sg26
S'Mange bratte heng'
p1478
sg28
Nsg29
g1322
sg31
S'5 - Svaert store'
p1479
sba(irunmatrix
M3Element
p1480
(dp1481
g3
Nsg4
S'Lite sannsynlig, Mulig'
p1482
sg6
S'white'
p1483
sg8
(lp1484
sg10
S'Possible'
p1485
sg12
S'Many'
p1486
sg14
g66
sg16
I0
sg17
S'Low'
p1487
sg19
S'Liten tilleggsbelastning'
p1488
sg21
Nsg22
S'500'
p1489
sg24
S'1400'
p1490
sg26
S'Mange bratte heng'
p1491
sg28
Nsg29
g1322
sg31
S'5 - Svaert store'
p1492
sba(irunmatrix
M3Element
p1493
(dp1494
g3
Nsg4
S'Lite sannsynlig, Mulig'
p1495
sg6
S'gray'
p1496
sg8
(lp1497
sg10
S'Possible'
p1498
sg12
S'Many'
p1499
sg14
g66
sg16
I0
sg17
S'Nat'
p1500
sg19
S'Naturlig utloest'
p1501
sg21
Nsg22
S'500'
p1502
sg24
S'1500'
p1503
sg26
S'Mange bratte heng'
p1504
sg28
Nsg29
g1322
sg31
S'5 - Svaert store'
p1505
sba(irunmatrix
M3Element
p1506
(dp1507
g3
Nsg4
S'Sannsynlig, Meget sannsynlig'
p1508
sg6
S'gray'
p1509
sg8
(lp1510
sg10
S'Likely'
p1511
sg12
S'Many'
p1512
sg14
g66
sg16
I0
sg17
S'High'
p1513
sg19
S'Stor tilleggsbelastning'
p1514
sg21
Nsg22
S'500'
p1515
sg24
S'1600'
p1516
sg26
S'Mange bratte heng'
p1517
sg28
Nsg29
g1322
sg31
S'5 - Svaert store'
p1518
sba(irunmatrix
M3Element
p1519
(dp1520
g3
Nsg4
S'Sannsynlig, Meget sannsynlig'
p1521
sg6
S'white'
p1522
sg8
(lp1523
sg10
S'Likely'
p1524
sg12
S'Many'
p1525
sg14
g66
sg16
I0
sg17
S'Low'
p1526
sg19
S'Liten tilleggsbelastning'
p1527
sg21
Nsg22
S'500'
p1528
sg24
S'1700'
p1529
sg26
S'Mange bratte heng'
p1530
sg28
Nsg29
g1322
sg31
S'5 - Svaert store'
p1531
sba(irunmatrix
M3Element
p1532
(dp1533
g3
Nsg4
S'Sannsynlig, Meget sannsynlig'
p1534
sg6
S'white'
p1535
sg8
(lp1536
sg10
S'Likely'
p1537
sg12
S'Many'
p1538
sg14
g1225
sg16
I5
sg17
S'Nat'
p1539
sg19
S'Naturlig utloest'
p1540
sg21
Nsg22
S'500'
p1541
sg24
S'1800'
p1542
sg26
S'Mange bratte heng'
p1543
sg28
Nsg29
g1322
sg31
S'5 - Svaert store'
p1544
sba(irunmatrix
M3Element
p1545
(dp1546
g3
Nsg4
S'Lite sannsynlig, Mulig'
p1547
sg6
S'gray'
p1548
sg8
(lp1549
sg10
S'Possible'
p1550
sg12
S'Most'
p1551
sg14
g66
sg16
I0
sg17
S'High'
p1552
sg19
S'Stor tilleggsbelastning'
p1553
sg21
Nsg22
S'500'
p1554
sg24
S'1900'
p1555
sg26
S'De fleste bratte heng, Ogsaa i mindre bratt terreng'
p1556
sg28
Nsg29
g1322
sg31
S'5 - Svaert store'
p1557
sba(irunmatrix
M3Element
p1558
(dp1559
g3
Nsg4
S'Lite sannsynlig, Mulig'
p1560
sg6
S'gray'
p1561
sg8
(lp1562
sg10
S'Possible'
p1563
sg12
S'Most'
p1564
sg14
g66
sg16
I0
sg17
S'Low'
p1565
sg19
S'Liten tilleggsbelastning'
p1566
sg21
Nsg22
S'500'
p1567
sg24
S'2000'
p1568
sg26
S'De fleste bratte heng, Ogsaa i mindre bratt terreng'
p1569
sg28
Nsg29
g1322
sg31
S'5 - Svaert store'
p1570
sba(irunmatrix
M3Element
p1571
(dp1572
g3
Nsg4
S'Lite sannsynlig, Mulig'
p1573
sg6
S'gray'
p1574
sg8
(lp1575
sg10
S'Possible'
p1576
sg12
S'Most'
p1577
sg14
g66
sg16
I0
sg17
S'Nat'
p1578
sg19
S'Naturlig utloest'
p1579
sg21
Nsg22
S'500'
p1580
sg24
S'2100'
p1581
sg26
S'De fleste bratte heng, Ogsaa i mindre bratt terreng'
p1582
sg28
Nsg29
g1322
sg31
S'5 - Svaert store'
p1583
sba(irunmatrix
M3Element
p1584
(dp1585
g3
Nsg4
S'Sannsynlig, Meget sannsynlig'
p1586
sg6
S'gray'
p1587
sg8
(lp1588
sg10
S'Likely'
p1589
sg12
S'Most'
p1590
sg14
g66
sg16
I0
sg17
S'High'
p1591
sg19
S'Stor tilleggsbelastning'
p1592
sg21
Nsg22
S'500'
p1593
sg24
S'2200'
p1594
sg26
S'De fleste bratte heng, Ogsaa i mindre bratt terreng'
p1595
sg28
Nsg29
g1322
sg31
S'5 - Svaert store'
p1596
sba(irunmatrix
M3Element
p1597
(dp1598
g3
Nsg4
S'Sannsynlig, Meget sannsynlig'
p1599
sg6
S'gray'
p1600
sg8
(lp1601
sg10
S'Likely'
p1602
sg12
S'Most'
p1603
sg14
g66
sg16
I0
sg17
S'Low'
p1604
sg19
S'Liten tilleggsbelastning'
p1605
sg21
Nsg22
S'500'
p1606
sg24
S'2300'
p1607
sg26
S'De fleste bratte heng, Ogsaa i mindre bratt terreng'
p1608
sg28
Nsg29
g1322
sg31
S'5 - Svaert store'
p1609
sba(irunmatrix
M3Element
p1610
(dp1611
g3
Nsg4
S'Sannsynlig, Meget sannsynlig'
p1612
sg6
S'white'
p1613
sg8
(lp1614
sg10
S'Likely'
p1615
sg12
S'Most'
p1616
sg14
g66
sg16
I0
sg17
S'Nat'
p1617
sg19
S'Naturlig utloest'
p1618
sg21
Nsg22
S'500'
p1619
sg24
S'2400'
p1620
sg26
S'De fleste bratte heng, Ogsaa i mindre bratt terreng'
p1621
sg28
Nsg29
g1322
sg31
S'5 - Svaert store'
p1622
sba.