(dp0
S'trigger'
p1
(dp2
S'keys'
p3
(lp4
S'Stor tilleggsbelastning'
p5
aS'Liten tilleggsbelastning'
p6
aS'Naturlig utloest'
p7
asS'colors'
p8
(lp9
S'0.7'
p10
asS'values'
p11
(lp12
S'Liten tilleggsbelastning'
p13
aS'Liten tilleggsbelastning'
p14
aS'Liten tilleggsbelastning'
p15
aS'Liten tilleggsbelastning'
p16
aS'Liten tilleggsbelastning'
p17
aS'Liten tilleggsbelastning'
p18
aS'Liten tilleggsbelastning'
p19
aS'Liten tilleggsbelastning'
p20
aS'Liten tilleggsbelastning'
p21
aS'Liten tilleggsbelastning'
p22
aS'Liten tilleggsbelastning'
p23
aS'Liten tilleggsbelastning'
p24
aS'Liten tilleggsbelastning'
p25
aS'Liten tilleggsbelastning'
p26
aS'Liten tilleggsbelastning'
p27
aS'Liten tilleggsbelastning'
p28
aS'Liten tilleggsbelastning'
p29
aS'Liten tilleggsbelastning'
p30
aS'Liten tilleggsbelastning'
p31
aS'Liten tilleggsbelastning'
p32
aS'Liten tilleggsbelastning'
p33
aS'Liten tilleggsbelastning'
p34
aS'Liten tilleggsbelastning'
p35
aS'Liten tilleggsbelastning'
p36
aS'Liten tilleggsbelastning'
p37
aS'Liten tilleggsbelastning'
p38
aS'Liten tilleggsbelastning'
p39
aS'Liten tilleggsbelastning'
p40
aS'Stor tilleggsbelastning'
p41
aS'Liten tilleggsbelastning'
p42
aS'Stor tilleggsbelastning'
p43
aS'Liten tilleggsbelastning'
p44
aS'Stor tilleggsbelastning'
p45
aS'Stor tilleggsbelastning'
p46
aS'Stor tilleggsbelastning'
p47
aS'Stor tilleggsbelastning'
p48
aS'Stor tilleggsbelastning'
p49
aS'Stor tilleggsbelastning'
p50
aS'Stor tilleggsbelastning'
p51
aS'Stor tilleggsbelastning'
p52
aS'Stor tilleggsbelastning'
p53
aS'Stor tilleggsbelastning'
p54
aS'Naturlig utloest'
p55
aS'Naturlig utloest'
p56
aS'Naturlig utloest'
p57
aS'Naturlig utloest'
p58
aS'Naturlig utloest'
p59
aS'Naturlig utloest'
p60
aS'Liten tilleggsbelastning'
p61
aS'Liten tilleggsbelastning'
p62
aS'Liten tilleggsbelastning'
p63
aS'Liten tilleggsbelastning'
p64
aS'Liten tilleggsbelastning'
p65
aS'Liten tilleggsbelastning'
p66
aS'Liten tilleggsbelastning'
p67
aS'Liten tilleggsbelastning'
p68
aS'Liten tilleggsbelastning'
p69
aS'Liten tilleggsbelastning'
p70
aS'Liten tilleggsbelastning'
p71
aS'Liten tilleggsbelastning'
p72
aS'Liten tilleggsbelastning'
p73
aS'Liten tilleggsbelastning'
p74
aS'Liten tilleggsbelastning'
p75
aS'Liten tilleggsbelastning'
p76
aS'Liten tilleggsbelastning'
p77
aS'Naturlig utloest'
p78
aS'Liten tilleggsbelastning'
p79
aS'Liten tilleggsbelastning'
p80
aS'Liten tilleggsbelastning'
p81
aS'Liten tilleggsbelastning'
p82
aS'Stor tilleggsbelastning'
p83
aS'Stor tilleggsbelastning'
p84
aS'Liten tilleggsbelastning'
p85
aS'Naturlig utloest'
p86
aS'Naturlig utloest'
p87
aS'Liten tilleggsbelastning'
p88
aS'Naturlig utloest'
p89
aS'Naturlig utloest'
p90
aS'Liten tilleggsbelastning'
p91
aS'Stor tilleggsbelastning'
p92
aS'Liten tilleggsbelastning'
p93
aS'Liten tilleggsbelastning'
p94
aS'Liten tilleggsbelastning'
p95
aS'Naturlig utloest'
p96
aS'Stor tilleggsbelastning'
p97
aS'Stor tilleggsbelastning'
p98
aS'Liten tilleggsbelastning'
p99
aS'Stor tilleggsbelastning'
p100
aS'Stor tilleggsbelastning'
p101
aS'Stor tilleggsbelastning'
p102
aS'Liten tilleggsbelastning'
p103
aS'Liten tilleggsbelastning'
p104
aS'Liten tilleggsbelastning'
p105
aS'Stor tilleggsbelastning'
p106
aS'Liten tilleggsbelastning'
p107
aS'Liten tilleggsbelastning'
p108
aS'Naturlig utloest'
p109
aS'Stor tilleggsbelastning'
p110
aS'Liten tilleggsbelastning'
p111
aS'Liten tilleggsbelastning'
p112
aS'Naturlig utloest'
p113
aS'Stor tilleggsbelastning'
p114
aS'Stor tilleggsbelastning'
p115
aS'Naturlig utloest'
p116
aS'Naturlig utloest'
p117
assS'distribution'
p118
(dp119
g3
(lp120
S'Isolerte faresoner'
p121
aS'Noen bratte heng'
p122
aS'Mange bratte heng'
p123
aS'De fleste bratte heng'
p124
aS'Ogsaa i mindre bratt terreng'
p125
asg8
(lp126
g10
asg11
(lp127
S'Noen bratte heng'
p128
aS'Noen bratte heng'
p129
aS'Noen bratte heng'
p130
aS'Noen bratte heng'
p131
aS'Noen bratte heng'
p132
aS'Noen bratte heng'
p133
aS'Noen bratte heng'
p134
aS'Noen bratte heng'
p135
aS'Noen bratte heng'
p136
aS'Noen bratte heng'
p137
aS'Noen bratte heng'
p138
aS'Noen bratte heng'
p139
aS'Noen bratte heng'
p140
aS'Noen bratte heng'
p141
aS'Isolerte faresoner'
p142
aS'Noen bratte heng'
p143
aS'Noen bratte heng'
p144
aS'Noen bratte heng'
p145
aS'Noen bratte heng'
p146
aS'Noen bratte heng'
p147
aS'Noen bratte heng'
p148
aS'Isolerte faresoner'
p149
aS'Noen bratte heng'
p150
aS'Noen bratte heng'
p151
aS'Noen bratte heng'
p152
aS'Noen bratte heng'
p153
aS'Noen bratte heng'
p154
aS'Noen bratte heng'
p155
aS'Noen bratte heng'
p156
aS'Noen bratte heng'
p157
aS'Noen bratte heng'
p158
aS'Noen bratte heng'
p159
aS'Noen bratte heng'
p160
aS'Noen bratte heng'
p161
aS'Noen bratte heng'
p162
aS'Isolerte faresoner'
p163
aS'Noen bratte heng'
p164
aS'Noen bratte heng'
p165
aS'Isolerte faresoner'
p166
aS'Isolerte faresoner'
p167
aS'Noen bratte heng'
p168
aS'Noen bratte heng'
p169
aS'Noen bratte heng'
p170
aS'Noen bratte heng'
p171
aS'Mange bratte heng'
p172
aS'Mange bratte heng'
p173
aS'Mange bratte heng'
p174
aS'Mange bratte heng'
p175
aS'Noen bratte heng'
p176
aS'Isolerte faresoner'
p177
aS'Isolerte faresoner'
p178
aS'Isolerte faresoner'
p179
aS'Noen bratte heng'
p180
aS'Noen bratte heng'
p181
aS'Noen bratte heng'
p182
aS'Noen bratte heng'
p183
aS'Noen bratte heng'
p184
aS'Noen bratte heng'
p185
aS'Noen bratte heng'
p186
aS'Noen bratte heng'
p187
aS'Noen bratte heng'
p188
aS'Noen bratte heng'
p189
aS'Noen bratte heng'
p190
aS'Noen bratte heng'
p191
aS'Noen bratte heng'
p192
aS'Noen bratte heng'
p193
aS'Noen bratte heng'
p194
aS'Noen bratte heng'
p195
aS'Isolerte faresoner'
p196
aS'Isolerte faresoner'
p197
aS'Isolerte faresoner'
p198
aS'Isolerte faresoner'
p199
aS'Noen bratte heng'
p200
aS'Noen bratte heng'
p201
aS'Noen bratte heng'
p202
aS'Noen bratte heng'
p203
aS'Noen bratte heng'
p204
aS'Noen bratte heng'
p205
aS'Noen bratte heng'
p206
aS'Noen bratte heng'
p207
aS'Noen bratte heng'
p208
aS'Noen bratte heng'
p209
aS'Noen bratte heng'
p210
aS'Noen bratte heng'
p211
aS'Isolerte faresoner'
p212
aS'Noen bratte heng'
p213
aS'Noen bratte heng'
p214
aS'Isolerte faresoner'
p215
aS'Isolerte faresoner'
p216
aS'Noen bratte heng'
p217
aS'Noen bratte heng'
p218
aS'Noen bratte heng'
p219
aS'Isolerte faresoner'
p220
aS'Noen bratte heng'
p221
aS'Noen bratte heng'
p222
aS'Noen bratte heng'
p223
aS'Noen bratte heng'
p224
aS'Noen bratte heng'
p225
aS'Noen bratte heng'
p226
aS'Noen bratte heng'
p227
aS'Noen bratte heng'
p228
aS'Noen bratte heng'
p229
aS'Noen bratte heng'
p230
aS'Noen bratte heng'
p231
aS'Noen bratte heng'
p232
assS'size'
p233
(dp234
g3
(lp235
S'1 - Harmloest'
p236
aS'2 - Smaa'
p237
aS'3 - Middels'
p238
aS'4 - Store'
p239
aS'5 - Svaert store'
p240
aS'Ukjent'
p241
asg8
(lp242
g10
asg11
(lp243
S'2 - Smaa'
p244
aS'2 - Smaa'
p245
aS'2 - Smaa'
p246
aS'2 - Smaa'
p247
aS'2 - Smaa'
p248
aS'3 - Middels'
p249
aS'3 - Middels'
p250
aS'3 - Middels'
p251
aS'2 - Smaa'
p252
aS'3 - Middels'
p253
aS'2 - Smaa'
p254
aS'2 - Smaa'
p255
aS'2 - Smaa'
p256
aS'2 - Smaa'
p257
aS'2 - Smaa'
p258
aS'2 - Smaa'
p259
aS'3 - Middels'
p260
aS'2 - Smaa'
p261
aS'3 - Middels'
p262
aS'3 - Middels'
p263
aS'3 - Middels'
p264
aS'2 - Smaa'
p265
aS'3 - Middels'
p266
aS'3 - Middels'
p267
aS'3 - Middels'
p268
aS'3 - Middels'
p269
aS'3 - Middels'
p270
aS'3 - Middels'
p271
aS'3 - Middels'
p272
aS'3 - Middels'
p273
aS'3 - Middels'
p274
aS'3 - Middels'
p275
aS'3 - Middels'
p276
aS'3 - Middels'
p277
aS'2 - Smaa'
p278
aS'2 - Smaa'
p279
aS'3 - Middels'
p280
aS'3 - Middels'
p281
aS'2 - Smaa'
p282
aS'2 - Smaa'
p283
aS'3 - Middels'
p284
aS'3 - Middels'
p285
aS'2 - Smaa'
p286
aS'2 - Smaa'
p287
aS'2 - Smaa'
p288
aS'2 - Smaa'
p289
aS'2 - Smaa'
p290
aS'2 - Smaa'
p291
aS'2 - Smaa'
p292
aS'2 - Smaa'
p293
aS'2 - Smaa'
p294
aS'2 - Smaa'
p295
aS'2 - Smaa'
p296
aS'2 - Smaa'
p297
aS'2 - Smaa'
p298
aS'2 - Smaa'
p299
aS'2 - Smaa'
p300
aS'2 - Smaa'
p301
aS'2 - Smaa'
p302
aS'2 - Smaa'
p303
aS'3 - Middels'
p304
aS'2 - Smaa'
p305
aS'2 - Smaa'
p306
aS'2 - Smaa'
p307
aS'3 - Middels'
p308
aS'3 - Middels'
p309
aS'3 - Middels'
p310
aS'2 - Smaa'
p311
aS'2 - Smaa'
p312
aS'2 - Smaa'
p313
aS'2 - Smaa'
p314
aS'2 - Smaa'
p315
aS'2 - Smaa'
p316
aS'1 - Harmloest'
p317
aS'2 - Smaa'
p318
aS'2 - Smaa'
p319
aS'1 - Harmloest'
p320
aS'1 - Harmloest'
p321
aS'3 - Middels'
p322
aS'2 - Smaa'
p323
aS'2 - Smaa'
p324
aS'3 - Middels'
p325
aS'3 - Middels'
p326
aS'1 - Harmloest'
p327
aS'2 - Smaa'
p328
aS'3 - Middels'
p329
aS'3 - Middels'
p330
aS'2 - Smaa'
p331
aS'2 - Smaa'
p332
aS'3 - Middels'
p333
aS'3 - Middels'
p334
aS'3 - Middels'
p335
aS'2 - Smaa'
p336
aS'3 - Middels'
p337
aS'3 - Middels'
p338
aS'3 - Middels'
p339
aS'2 - Smaa'
p340
aS'3 - Middels'
p341
aS'3 - Middels'
p342
aS'3 - Middels'
p343
aS'2 - Smaa'
p344
aS'3 - Middels'
p345
aS'3 - Middels'
p346
aS'2 - Smaa'
p347
aS'2 - Smaa'
p348
assS'probability'
p349
(dp350
g3
(lp351
S'Lite sannsynlig'
p352
aS'Mulig'
p353
aS'Sannsynlig'
p354
aS'Meget sannsynlig'
p355
asg8
(lp356
g10
asg11
(lp357
S'Mulig'
p358
aS'Mulig'
p359
aS'Mulig'
p360
aS'Mulig'
p361
aS'Mulig'
p362
aS'Mulig'
p363
aS'Mulig'
p364
aS'Mulig'
p365
aS'Mulig'
p366
aS'Mulig'
p367
aS'Mulig'
p368
aS'Mulig'
p369
aS'Mulig'
p370
aS'Mulig'
p371
aS'Mulig'
p372
aS'Mulig'
p373
aS'Mulig'
p374
aS'Mulig'
p375
aS'Mulig'
p376
aS'Mulig'
p377
aS'Mulig'
p378
aS'Mulig'
p379
aS'Mulig'
p380
aS'Mulig'
p381
aS'Mulig'
p382
aS'Mulig'
p383
aS'Mulig'
p384
aS'Mulig'
p385
aS'Mulig'
p386
aS'Mulig'
p387
aS'Mulig'
p388
aS'Mulig'
p389
aS'Mulig'
p390
aS'Mulig'
p391
aS'Mulig'
p392
aS'Mulig'
p393
aS'Mulig'
p394
aS'Lite sannsynlig'
p395
aS'Mulig'
p396
aS'Mulig'
p397
aS'Lite sannsynlig'
p398
aS'Lite sannsynlig'
p399
aS'Mulig'
p400
aS'Mulig'
p401
aS'Sannsynlig'
p402
aS'Sannsynlig'
p403
aS'Sannsynlig'
p404
aS'Sannsynlig'
p405
aS'Mulig'
p406
aS'Mulig'
p407
aS'Mulig'
p408
aS'Mulig'
p409
aS'Mulig'
p410
aS'Mulig'
p411
aS'Mulig'
p412
aS'Mulig'
p413
aS'Mulig'
p414
aS'Mulig'
p415
aS'Mulig'
p416
aS'Mulig'
p417
aS'Mulig'
p418
aS'Mulig'
p419
aS'Mulig'
p420
aS'Mulig'
p421
aS'Mulig'
p422
aS'Mulig'
p423
aS'Mulig'
p424
aS'Mulig'
p425
aS'Mulig'
p426
aS'Mulig'
p427
aS'Mulig'
p428
aS'Mulig'
p429
aS'Mulig'
p430
aS'Mulig'
p431
aS'Mulig'
p432
aS'Mulig'
p433
aS'Mulig'
p434
aS'Mulig'
p435
aS'Mulig'
p436
aS'Lite sannsynlig'
p437
aS'Mulig'
p438
aS'Mulig'
p439
aS'Mulig'
p440
aS'Mulig'
p441
aS'Mulig'
p442
aS'Mulig'
p443
aS'Mulig'
p444
aS'Lite sannsynlig'
p445
aS'Mulig'
p446
aS'Mulig'
p447
aS'Mulig'
p448
aS'Mulig'
p449
aS'Mulig'
p450
aS'Mulig'
p451
aS'Sannsynlig'
p452
aS'Sannsynlig'
p453
aS'Sannsynlig'
p454
aS'Mulig'
p455
aS'Sannsynlig'
p456
aS'Sannsynlig'
p457
aS'Sannsynlig'
p458
aS'Mulig'
p459
aS'Mulig'
p460
aS'Mulig'
p461
aS'Mulig'
p462
assS'level'
p463
(dp464
g3
(lp465
I1
aI2
aI3
aI4
aI5
asg8
(lp466
S'#ccff66'
p467
aS'#ffff00'
p468
aS'#ff9900'
p469
aS'#ff0000'
p470
aS'k'
p471
asg11
(lp472
I2
aI2
aI2
aI2
aI2
aI3
aI3
aI3
aI2
aI3
aI2
aI2
aI2
aI2
aI2
aI2
aI3
aI2
aI3
aI3
aI3
aI2
aI3
aI3
aI3
aI3
aI3
aI3
aI2
aI3
aI2
aI3
aI2
aI2
aI2
aI2
aI2
aI2
aI2
aI2
aI2
aI2
aI2
aI2
aI3
aI3
aI3
aI3
aI2
aI1
aI1
aI1
aI2
aI2
aI2
aI2
aI2
aI2
aI2
aI2
aI3
aI2
aI2
aI2
aI3
aI3
aI3
aI2
aI1
aI1
aI1
aI2
aI2
aI1
aI2
aI2
aI1
aI1
aI3
aI1
aI2
aI3
aI3
aI1
aI1
aI2
aI3
aI1
aI1
aI2
aI3
aI3
aI2
aI2
aI3
aI3
aI2
aI2
aI3
aI3
aI2
aI2
aI2
aI2
aI2
ass.