(lp0
(irunmatrix
M3Element
p1
(dp2
S'danger_level_average'
p3
NsS'probability'
p4
S'Lite sannsynlig, Mulig'
p5
sS'colour'
p6
S'white'
p7
sS'danger_level_list'
p8
(lp9
sS'label_probalility'
p10
S'Possible'
p11
sS'label_distribution'
p12
S'Isolated'
p13
sS'recomended_colour'
p14
S'#ccff66'
p15
sS'recomended_danger_level'
p16
I1
sS'label_trigger'
p17
S'High'
p18
sS'trigger'
p19
S'Stor tilleggsbelastning'
p20
sS'occurrences'
p21
NsS'y'
p22
S'100'
p23
sS'x'
p24
S'100'
p25
sS'distribution'
p26
S'Isolerte faresoner'
p27
sS'danger_level_standard_dev'
p28
NsS'label_size'
p29
S'1'
p30
sS'avalanche_size'
p31
S'1 - Harmloest'
p32
sba(irunmatrix
M3Element
p33
(dp34
g3
Nsg4
S'Lite sannsynlig, Mulig'
p35
sg6
S'white'
p36
sg8
(lp37
sg10
S'Possible'
p38
sg12
S'Isolated'
p39
sg14
g15
sg16
I1
sg17
S'Low'
p40
sg19
S'Liten tilleggsbelastning'
p41
sg21
Nsg22
S'100'
p42
sg24
S'200'
p43
sg26
S'Isolerte faresoner'
p44
sg28
Nsg29
g30
sg31
S'1 - Harmloest'
p45
sba(irunmatrix
M3Element
p46
(dp47
g3
Nsg4
S'Lite sannsynlig, Mulig'
p48
sg6
S'white'
p49
sg8
(lp50
sg10
S'Possible'
p51
sg12
S'Isolated'
p52
sg14
g15
sg16
I1
sg17
S'Nat'
p53
sg19
S'Naturlig utloest'
p54
sg21
Nsg22
S'100'
p55
sg24
S'300'
p56
sg26
S'Isolerte faresoner'
p57
sg28
Nsg29
g30
sg31
S'1 - Harmloest'
p58
sba(irunmatrix
M3Element
p59
(dp60
g3
Nsg4
S'Sannsynlig, Meget sannsynlig'
p61
sg6
S'gray'
p62
sg8
(lp63
sg10
S'Likely'
p64
sg12
S'Isolated'
p65
sg14
S'gray'
p66
sg16
I0
sg17
S'High'
p67
sg19
S'Stor tilleggsbelastning'
p68
sg21
Nsg22
S'100'
p69
sg24
S'400'
p70
sg26
S'Isolerte faresoner'
p71
sg28
Nsg29
g30
sg31
S'1 - Harmloest'
p72
sba(irunmatrix
M3Element
p73
(dp74
g3
Nsg4
S'Sannsynlig, Meget sannsynlig'
p75
sg6
S'gray'
p76
sg8
(lp77
sg10
S'Likely'
p78
sg12
S'Isolated'
p79
sg14
g66
sg16
I0
sg17
S'Low'
p80
sg19
S'Liten tilleggsbelastning'
p81
sg21
Nsg22
S'100'
p82
sg24
S'500'
p83
sg26
S'Isolerte faresoner'
p84
sg28
Nsg29
g30
sg31
S'1 - Harmloest'
p85
sba(irunmatrix
M3Element
p86
(dp87
g3
Nsg4
S'Sannsynlig, Meget sannsynlig'
p88
sg6
S'gray'
p89
sg8
(lp90
sg10
S'Likely'
p91
sg12
S'Isolated'
p92
sg14
g66
sg16
I0
sg17
S'Nat'
p93
sg19
S'Naturlig utloest'
p94
sg21
Nsg22
S'100'
p95
sg24
S'600'
p96
sg26
S'Isolerte faresoner'
p97
sg28
Nsg29
g30
sg31
S'1 - Harmloest'
p98
sba(irunmatrix
M3Element
p99
(dp100
g3
Nsg4
S'Lite sannsynlig, Mulig'
p101
sg6
S'white'
p102
sg8
(lp103
sg10
S'Possible'
p104
sg12
S'Some'
p105
sg14
g15
sg16
I1
sg17
S'High'
p106
sg19
S'Stor tilleggsbelastning'
p107
sg21
Nsg22
S'100'
p108
sg24
S'700'
p109
sg26
S'Noen bratte heng'
p110
sg28
Nsg29
g30
sg31
S'1 - Harmloest'
p111
sba(irunmatrix
M3Element
p112
(dp113
g3
Nsg4
S'Lite sannsynlig, Mulig'
p114
sg6
S'white'
p115
sg8
(lp116
sg10
S'Possible'
p117
sg12
S'Some'
p118
sg14
g15
sg16
I1
sg17
S'Low'
p119
sg19
S'Liten tilleggsbelastning'
p120
sg21
Nsg22
S'100'
p121
sg24
S'800'
p122
sg26
S'Noen bratte heng'
p123
sg28
Nsg29
g30
sg31
S'1 - Harmloest'
p124
sba(irunmatrix
M3Element
p125
(dp126
g3
Nsg4
S'Lite sannsynlig, Mulig'
p127
sg6
S'white'
p128
sg8
(lp129
sg10
S'Possible'
p130
sg12
S'Some'
p131
sg14
g15
sg16
I1
sg17
S'Nat'
p132
sg19
S'Naturlig utloest'
p133
sg21
Nsg22
S'100'
p134
sg24
S'900'
p135
sg26
S'Noen bratte heng'
p136
sg28
Nsg29
g30
sg31
S'1 - Harmloest'
p137
sba(irunmatrix
M3Element
p138
(dp139
g3
Nsg4
S'Sannsynlig, Meget sannsynlig'
p140
sg6
S'gray'
p141
sg8
(lp142
sg10
S'Likely'
p143
sg12
S'Some'
p144
sg14
g66
sg16
I0
sg17
S'High'
p145
sg19
S'Stor tilleggsbelastning'
p146
sg21
Nsg22
S'100'
p147
sg24
S'1000'
p148
sg26
S'Noen bratte heng'
p149
sg28
Nsg29
g30
sg31
S'1 - Harmloest'
p150
sba(irunmatrix
M3Element
p151
(dp152
g3
Nsg4
S'Sannsynlig, Meget sannsynlig'
p153
sg6
S'gray'
p154
sg8
(lp155
sg10
S'Likely'
p156
sg12
S'Some'
p157
sg14
g66
sg16
I0
sg17
S'Low'
p158
sg19
S'Liten tilleggsbelastning'
p159
sg21
Nsg22
S'100'
p160
sg24
S'1100'
p161
sg26
S'Noen bratte heng'
p162
sg28
Nsg29
g30
sg31
S'1 - Harmloest'
p163
sba(irunmatrix
M3Element
p164
(dp165
g3
Nsg4
S'Sannsynlig, Meget sannsynlig'
p166
sg6
S'white'
p167
sg8
(lp168
sg10
S'Likely'
p169
sg12
S'Some'
p170
sg14
g15
sg16
I1
sg17
S'Nat'
p171
sg19
S'Naturlig utloest'
p172
sg21
Nsg22
S'100'
p173
sg24
S'1200'
p174
sg26
S'Noen bratte heng'
p175
sg28
Nsg29
g30
sg31
S'1 - Harmloest'
p176
sba(irunmatrix
M3Element
p177
(dp178
g3
Nsg4
S'Lite sannsynlig, Mulig'
p179
sg6
S'gray'
p180
sg8
(lp181
sg10
S'Possible'
p182
sg12
S'Many'
p183
sg14
g66
sg16
I0
sg17
S'High'
p184
sg19
S'Stor tilleggsbelastning'
p185
sg21
Nsg22
S'100'
p186
sg24
S'1300'
p187
sg26
S'Mange bratte heng'
p188
sg28
Nsg29
g30
sg31
S'1 - Harmloest'
p189
sba(irunmatrix
M3Element
p190
(dp191
g3
Nsg4
S'Lite sannsynlig, Mulig'
p192
sg6
S'white'
p193
sg8
(lp194
sg10
S'Possible'
p195
sg12
S'Many'
p196
sg14
g15
sg16
I1
sg17
S'Low'
p197
sg19
S'Liten tilleggsbelastning'
p198
sg21
Nsg22
S'100'
p199
sg24
S'1400'
p200
sg26
S'Mange bratte heng'
p201
sg28
Nsg29
g30
sg31
S'1 - Harmloest'
p202
sba(irunmatrix
M3Element
p203
(dp204
g3
Nsg4
S'Lite sannsynlig, Mulig'
p205
sg6
S'gray'
p206
sg8
(lp207
sg10
S'Possible'
p208
sg12
S'Many'
p209
sg14
g66
sg16
I0
sg17
S'Nat'
p210
sg19
S'Naturlig utloest'
p211
sg21
Nsg22
S'100'
p212
sg24
S'1500'
p213
sg26
S'Mange bratte heng'
p214
sg28
Nsg29
g30
sg31
S'1 - Harmloest'
p215
sba(irunmatrix
M3Element
p216
(dp217
g3
Nsg4
S'Sannsynlig, Meget sannsynlig'
p218
sg6
S'gray'
p219
sg8
(lp220
sg10
S'Likely'
p221
sg12
S'Many'
p222
sg14
g66
sg16
I0
sg17
S'High'
p223
sg19
S'Stor tilleggsbelastning'
p224
sg21
Nsg22
S'100'
p225
sg24
S'1600'
p226
sg26
S'Mange bratte heng'
p227
sg28
Nsg29
g30
sg31
S'1 - Harmloest'
p228
sba(irunmatrix
M3Element
p229
(dp230
g3
Nsg4
S'Sannsynlig, Meget sannsynlig'
p231
sg6
S'white'
p232
sg8
(lp233
sg10
S'Likely'
p234
sg12
S'Many'
p235
sg14
S'#ffff00'
p236
sg16
I2
sg17
S'Low'
p237
sg19
S'Liten tilleggsbelastning'
p238
sg21
Nsg22
S'100'
p239
sg24
S'1700'
p240
sg26
S'Mange bratte heng'
p241
sg28
Nsg29
g30
sg31
S'1 - Harmloest'
p242
sba(irunmatrix
M3Element
p243
(dp244
g3
F2.0
sg4
S'Sannsynlig, Meget sannsynlig'
p245
sg6
S'#ffff00'
p246
sg8
(lp247
I2
aI2
aI2
aI2
aI2
aI2
asg10
S'Likely'
p248
sg12
S'Many'
p249
sg14
g236
sg16
I2
sg17
S'Nat'
p250
sg19
S'Naturlig utloest'
p251
sg21
I6
sg22
S'100'
p252
sg24
S'1800'
p253
sg26
S'Mange bratte heng'
p254
sg28
cnumpy.core.multiarray
scalar
p255
(cnumpy
dtype
p256
(S'f8'
p257
I0
I1
tp258
Rp259
(I3
S'<'
p260
NNNI-1
I-1
I0
tp261
bS'\x00\x00\x00\x00\x00\x00\x00\x00'
p262
tp263
Rp264
sg29
g30
sg31
S'1 - Harmloest'
p265
sba(irunmatrix
M3Element
p266
(dp267
g3
Nsg4
S'Lite sannsynlig, Mulig'
p268
sg6
S'gray'
p269
sg8
(lp270
sg10
S'Possible'
p271
sg12
S'Most'
p272
sg14
g66
sg16
I0
sg17
S'High'
p273
sg19
S'Stor tilleggsbelastning'
p274
sg21
Nsg22
S'100'
p275
sg24
S'1900'
p276
sg26
S'De fleste bratte heng, Ogsaa i mindre bratt terreng'
p277
sg28
Nsg29
g30
sg31
S'1 - Harmloest'
p278
sba(irunmatrix
M3Element
p279
(dp280
g3
Nsg4
S'Lite sannsynlig, Mulig'
p281
sg6
S'gray'
p282
sg8
(lp283
sg10
S'Possible'
p284
sg12
S'Most'
p285
sg14
g66
sg16
I0
sg17
S'Low'
p286
sg19
S'Liten tilleggsbelastning'
p287
sg21
Nsg22
S'100'
p288
sg24
S'2000'
p289
sg26
S'De fleste bratte heng, Ogsaa i mindre bratt terreng'
p290
sg28
Nsg29
g30
sg31
S'1 - Harmloest'
p291
sba(irunmatrix
M3Element
p292
(dp293
g3
Nsg4
S'Lite sannsynlig, Mulig'
p294
sg6
S'gray'
p295
sg8
(lp296
sg10
S'Possible'
p297
sg12
S'Most'
p298
sg14
g66
sg16
I0
sg17
S'Nat'
p299
sg19
S'Naturlig utloest'
p300
sg21
Nsg22
S'100'
p301
sg24
S'2100'
p302
sg26
S'De fleste bratte heng, Ogsaa i mindre bratt terreng'
p303
sg28
Nsg29
g30
sg31
S'1 - Harmloest'
p304
sba(irunmatrix
M3Element
p305
(dp306
g3
Nsg4
S'Sannsynlig, Meget sannsynlig'
p307
sg6
S'gray'
p308
sg8
(lp309
sg10
S'Likely'
p310
sg12
S'Most'
p311
sg14
g66
sg16
I0
sg17
S'High'
p312
sg19
S'Stor tilleggsbelastning'
p313
sg21
Nsg22
S'100'
p314
sg24
S'2200'
p315
sg26
S'De fleste bratte heng, Ogsaa i mindre bratt terreng'
p316
sg28
Nsg29
g30
sg31
S'1 - Harmloest'
p317
sba(irunmatrix
M3Element
p318
(dp319
g3
Nsg4
S'Sannsynlig, Meget sannsynlig'
p320
sg6
S'gray'
p321
sg8
(lp322
sg10
S'Likely'
p323
sg12
S'Most'
p324
sg14
g66
sg16
I0
sg17
S'Low'
p325
sg19
S'Liten tilleggsbelastning'
p326
sg21
Nsg22
S'100'
p327
sg24
S'2300'
p328
sg26
S'De fleste bratte heng, Ogsaa i mindre bratt terreng'
p329
sg28
Nsg29
g30
sg31
S'1 - Harmloest'
p330
sba(irunmatrix
M3Element
p331
(dp332
g3
Nsg4
S'Sannsynlig, Meget sannsynlig'
p333
sg6
S'white'
p334
sg8
(lp335
sg10
S'Likely'
p336
sg12
S'Most'
p337
sg14
g66
sg16
I0
sg17
S'Nat'
p338
sg19
S'Naturlig utloest'
p339
sg21
Nsg22
S'100'
p340
sg24
S'2400'
p341
sg26
S'De fleste bratte heng, Ogsaa i mindre bratt terreng'
p342
sg28
Nsg29
S'2'
p343
sg31
S'1 - Harmloest'
p344
sba(irunmatrix
M3Element
p345
(dp346
g3
F1.5
sg4
S'Lite sannsynlig, Mulig'
p347
sg6
g246
sg8
(lp348
I1
aI2
asg10
S'Possible'
p349
sg12
S'Isolated'
p350
sg14
g15
sg16
I1
sg17
S'High'
p351
sg19
S'Stor tilleggsbelastning'
p352
sg21
I2
sg22
S'200'
p353
sg24
S'100'
p354
sg26
S'Isolerte faresoner'
p355
sg28
g255
(g259
S'\x00\x00\x00\x00\x00\x00\xe0?'
p356
tp357
Rp358
sg29
g343
sg31
S'2 - Smaa'
p359
sba(irunmatrix
M3Element
p360
(dp361
g3
F1.3333333333333333
sg4
S'Lite sannsynlig, Mulig'
p362
sg6
S'#ccff66'
p363
sg8
(lp364
I2
aI2
aI2
aI1
aI1
aI1
aI1
aI1
aI1
asg10
S'Possible'
p365
sg12
S'Isolated'
p366
sg14
g15
sg16
I1
sg17
S'Low'
p367
sg19
S'Liten tilleggsbelastning'
p368
sg21
I9
sg22
S'200'
p369
sg24
S'200'
p370
sg26
S'Isolerte faresoner'
p371
sg28
g255
(g259
S'f\xfa\xfe\xdd}+\xde?'
p372
tp373
Rp374
sg29
g343
sg31
S'2 - Smaa'
p375
sba(irunmatrix
M3Element
p376
(dp377
g3
F2.0
sg4
S'Lite sannsynlig, Mulig'
p378
sg6
g246
sg8
(lp379
I2
asg10
S'Possible'
p380
sg12
S'Isolated'
p381
sg14
g15
sg16
I1
sg17
S'Nat'
p382
sg19
S'Naturlig utloest'
p383
sg21
I1
sg22
S'200'
p384
sg24
S'300'
p385
sg26
S'Isolerte faresoner'
p386
sg28
g255
(g259
S'\x00\x00\x00\x00\x00\x00\x00\x00'
p387
tp388
Rp389
sg29
g343
sg31
S'2 - Smaa'
p390
sba(irunmatrix
M3Element
p391
(dp392
g3
Nsg4
S'Sannsynlig, Meget sannsynlig'
p393
sg6
S'gray'
p394
sg8
(lp395
sg10
S'Likely'
p396
sg12
S'Isolated'
p397
sg14
g66
sg16
I0
sg17
S'High'
p398
sg19
S'Stor tilleggsbelastning'
p399
sg21
Nsg22
S'200'
p400
sg24
S'400'
p401
sg26
S'Isolerte faresoner'
p402
sg28
Nsg29
g343
sg31
S'2 - Smaa'
p403
sba(irunmatrix
M3Element
p404
(dp405
g3
Nsg4
S'Sannsynlig, Meget sannsynlig'
p406
sg6
S'gray'
p407
sg8
(lp408
sg10
S'Likely'
p409
sg12
S'Isolated'
p410
sg14
g66
sg16
I0
sg17
S'Low'
p411
sg19
S'Liten tilleggsbelastning'
p412
sg21
Nsg22
S'200'
p413
sg24
S'500'
p414
sg26
S'Isolerte faresoner'
p415
sg28
Nsg29
g343
sg31
S'2 - Smaa'
p416
sba(irunmatrix
M3Element
p417
(dp418
g3
Nsg4
S'Sannsynlig, Meget sannsynlig'
p419
sg6
S'gray'
p420
sg8
(lp421
sg10
S'Likely'
p422
sg12
S'Isolated'
p423
sg14
g66
sg16
I0
sg17
S'Nat'
p424
sg19
S'Naturlig utloest'
p425
sg21
Nsg22
S'200'
p426
sg24
S'600'
p427
sg26
S'Isolerte faresoner'
p428
sg28
Nsg29
g343
sg31
S'2 - Smaa'
p429
sba(irunmatrix
M3Element
p430
(dp431
g3
F2.3333333333333335
sg4
S'Lite sannsynlig, Mulig'
p432
sg6
g246
sg8
(lp433
I3
aI2
aI2
asg10
S'Possible'
p434
sg12
S'Some'
p435
sg14
g236
sg16
I2
sg17
S'High'
p436
sg19
S'Stor tilleggsbelastning'
p437
sg21
I3
sg22
S'200'
p438
sg24
S'700'
p439
sg26
S'Noen bratte heng'
p440
sg28
g255
(g259
S'f\xfa\xfe\xdd}+\xde?'
p441
tp442
Rp443
sg29
g343
sg31
S'2 - Smaa'
p444
sba(irunmatrix
M3Element
p445
(dp446
g3
F2.1403508771929824
sg4
S'Lite sannsynlig, Mulig'
p447
sg6
g246
sg8
(lp448
I2
aI2
aI2
aI2
aI2
aI2
aI2
aI2
aI2
aI2
aI2
aI2
aI3
aI2
aI2
aI2
aI2
aI2
aI2
aI2
aI2
aI2
aI2
aI2
aI3
aI3
aI2
aI3
aI3
aI2
aI3
aI3
aI3
aI2
aI2
aI2
aI2
aI2
aI2
aI2
aI2
aI2
aI2
aI2
aI2
aI2
aI2
aI2
aI2
aI2
aI2
aI2
aI2
aI2
aI2
aI2
aI2
asg10
S'Possible'
p449
sg12
S'Some'
p450
sg14
g236
sg16
I2
sg17
S'Low'
p451
sg19
S'Liten tilleggsbelastning'
p452
sg21
I57
sg22
S'200'
p453
sg24
S'800'
p454
sg26
S'Noen bratte heng'
p455
sg28
g255
(g259
S'\xaag\xaem\xfe:\xd6?'
p456
tp457
Rp458
sg29
g343
sg31
S'2 - Smaa'
p459
sba(irunmatrix
M3Element
p460
(dp461
g3
F2.0434782608695654
sg4
S'Lite sannsynlig, Mulig'
p462
sg6
g246
sg8
(lp463
I3
aI2
aI2
aI2
aI2
aI2
aI2
aI2
aI2
aI2
aI2
aI2
aI2
aI2
aI2
aI2
aI2
aI2
aI2
aI2
aI2
aI2
aI2
asg10
S'Possible'
p464
sg12
S'Some'
p465
sg14
g236
sg16
I2
sg17
S'Nat'
p466
sg19
S'Naturlig utloest'
p467
sg21
I23
sg22
S'200'
p468
sg24
S'900'
p469
sg26
S'Noen bratte heng'
p470
sg28
g255
(g259
S'\x8fx\x809j\x1a\xca?'
p471
tp472
Rp473
sg29
g343
sg31
S'2 - Smaa'
p474
sba(irunmatrix
M3Element
p475
(dp476
g3
Nsg4
S'Sannsynlig, Meget sannsynlig'
p477
sg6
S'gray'
p478
sg8
(lp479
sg10
S'Likely'
p480
sg12
S'Some'
p481
sg14
g66
sg16
I0
sg17
S'High'
p482
sg19
S'Stor tilleggsbelastning'
p483
sg21
Nsg22
S'200'
p484
sg24
S'1000'
p485
sg26
S'Noen bratte heng'
p486
sg28
Nsg29
g343
sg31
S'2 - Smaa'
p487
sba(irunmatrix
M3Element
p488
(dp489
g3
Nsg4
S'Sannsynlig, Meget sannsynlig'
p490
sg6
S'gray'
p491
sg8
(lp492
sg10
S'Likely'
p493
sg12
S'Some'
p494
sg14
g66
sg16
I0
sg17
S'Low'
p495
sg19
S'Liten tilleggsbelastning'
p496
sg21
Nsg22
S'200'
p497
sg24
S'1100'
p498
sg26
S'Noen bratte heng'
p499
sg28
Nsg29
g343
sg31
S'2 - Smaa'
p500
sba(irunmatrix
M3Element
p501
(dp502
g3
F2.8333333333333335
sg4
S'Sannsynlig, Meget sannsynlig'
p503
sg6
S'#ff9900'
p504
sg8
(lp505
I3
aI3
aI3
aI3
aI3
aI2
asg10
S'Likely'
p506
sg12
S'Some'
p507
sg14
S'#ff9900'
p508
sg16
I3
sg17
S'Nat'
p509
sg19
S'Naturlig utloest'
p510
sg21
I6
sg22
S'200'
p511
sg24
S'1200'
p512
sg26
S'Noen bratte heng'
p513
sg28
g255
(g259
S'4Fu\xcf\xf4\xd9\xd7?'
p514
tp515
Rp516
sg29
g343
sg31
S'2 - Smaa'
p517
sba(irunmatrix
M3Element
p518
(dp519
g3
Nsg4
S'Lite sannsynlig, Mulig'
p520
sg6
S'gray'
p521
sg8
(lp522
sg10
S'Possible'
p523
sg12
S'Many'
p524
sg14
g66
sg16
I0
sg17
S'High'
p525
sg19
S'Stor tilleggsbelastning'
p526
sg21
Nsg22
S'200'
p527
sg24
S'1300'
p528
sg26
S'Mange bratte heng'
p529
sg28
Nsg29
g343
sg31
S'2 - Smaa'
p530
sba(irunmatrix
M3Element
p531
(dp532
g3
F3.0
sg4
S'Lite sannsynlig, Mulig'
p533
sg6
g504
sg8
(lp534
I3
aI3
aI3
aI3
aI3
aI3
aI3
asg10
S'Possible'
p535
sg12
S'Many'
p536
sg14
g508
sg16
I3
sg17
S'Low'
p537
sg19
S'Liten tilleggsbelastning'
p538
sg21
I7
sg22
S'200'
p539
sg24
S'1400'
p540
sg26
S'Mange bratte heng'
p541
sg28
g255
(g259
S'\x00\x00\x00\x00\x00\x00\x00\x00'
p542
tp543
Rp544
sg29
g343
sg31
S'2 - Smaa'
p545
sba(irunmatrix
M3Element
p546
(dp547
g3
F2.3333333333333335
sg4
S'Lite sannsynlig, Mulig'
p548
sg6
g246
sg8
(lp549
I3
aI3
aI2
aI2
aI2
aI2
asg10
S'Possible'
p550
sg12
S'Many'
p551
sg14
g66
sg16
I0
sg17
S'Nat'
p552
sg19
S'Naturlig utloest'
p553
sg21
I6
sg22
S'200'
p554
sg24
S'1500'
p555
sg26
S'Mange bratte heng'
p556
sg28
g255
(g259
S'f\xfa\xfe\xdd}+\xde?'
p557
tp558
Rp559
sg29
g343
sg31
S'2 - Smaa'
p560
sba(irunmatrix
M3Element
p561
(dp562
g3
Nsg4
S'Sannsynlig, Meget sannsynlig'
p563
sg6
S'gray'
p564
sg8
(lp565
sg10
S'Likely'
p566
sg12
S'Many'
p567
sg14
g66
sg16
I0
sg17
S'High'
p568
sg19
S'Stor tilleggsbelastning'
p569
sg21
Nsg22
S'200'
p570
sg24
S'1600'
p571
sg26
S'Mange bratte heng'
p572
sg28
Nsg29
g343
sg31
S'2 - Smaa'
p573
sba(irunmatrix
M3Element
p574
(dp575
g3
F3.0
sg4
S'Sannsynlig, Meget sannsynlig'
p576
sg6
g504
sg8
(lp577
I3
aI3
asg10
S'Likely'
p578
sg12
S'Many'
p579
sg14
S'#ff0000'
p580
sg16
I4
sg17
S'Low'
p581
sg19
S'Liten tilleggsbelastning'
p582
sg21
I2
sg22
S'200'
p583
sg24
S'1700'
p584
sg26
S'Mange bratte heng'
p585
sg28
g255
(g259
S'\x00\x00\x00\x00\x00\x00\x00\x00'
p586
tp587
Rp588
sg29
g343
sg31
S'2 - Smaa'
p589
sba(irunmatrix
M3Element
p590
(dp591
g3
Nsg4
S'Sannsynlig, Meget sannsynlig'
p592
sg6
S'white'
p593
sg8
(lp594
sg10
S'Likely'
p595
sg12
S'Many'
p596
sg14
g580
sg16
I4
sg17
S'Nat'
p597
sg19
S'Naturlig utloest'
p598
sg21
Nsg22
S'200'
p599
sg24
S'1800'
p600
sg26
S'Mange bratte heng'
p601
sg28
Nsg29
g343
sg31
S'2 - Smaa'
p602
sba(irunmatrix
M3Element
p603
(dp604
g3
Nsg4
S'Lite sannsynlig, Mulig'
p605
sg6
S'gray'
p606
sg8
(lp607
sg10
S'Possible'
p608
sg12
S'Most'
p609
sg14
g66
sg16
I0
sg17
S'High'
p610
sg19
S'Stor tilleggsbelastning'
p611
sg21
Nsg22
S'200'
p612
sg24
S'1900'
p613
sg26
S'De fleste bratte heng, Ogsaa i mindre bratt terreng'
p614
sg28
Nsg29
g343
sg31
S'2 - Smaa'
p615
sba(irunmatrix
M3Element
p616
(dp617
g3
Nsg4
S'Lite sannsynlig, Mulig'
p618
sg6
S'gray'
p619
sg8
(lp620
sg10
S'Possible'
p621
sg12
S'Most'
p622
sg14
g66
sg16
I0
sg17
S'Low'
p623
sg19
S'Liten tilleggsbelastning'
p624
sg21
Nsg22
S'200'
p625
sg24
S'2000'
p626
sg26
S'De fleste bratte heng, Ogsaa i mindre bratt terreng'
p627
sg28
Nsg29
g343
sg31
S'2 - Smaa'
p628
sba(irunmatrix
M3Element
p629
(dp630
g3
Nsg4
S'Lite sannsynlig, Mulig'
p631
sg6
S'gray'
p632
sg8
(lp633
sg10
S'Possible'
p634
sg12
S'Most'
p635
sg14
g66
sg16
I0
sg17
S'Nat'
p636
sg19
S'Naturlig utloest'
p637
sg21
Nsg22
S'200'
p638
sg24
S'2100'
p639
sg26
S'De fleste bratte heng, Ogsaa i mindre bratt terreng'
p640
sg28
Nsg29
g343
sg31
S'2 - Smaa'
p641
sba(irunmatrix
M3Element
p642
(dp643
g3
Nsg4
S'Sannsynlig, Meget sannsynlig'
p644
sg6
S'gray'
p645
sg8
(lp646
sg10
S'Likely'
p647
sg12
S'Most'
p648
sg14
g66
sg16
I0
sg17
S'High'
p649
sg19
S'Stor tilleggsbelastning'
p650
sg21
Nsg22
S'200'
p651
sg24
S'2200'
p652
sg26
S'De fleste bratte heng, Ogsaa i mindre bratt terreng'
p653
sg28
Nsg29
g343
sg31
S'2 - Smaa'
p654
sba(irunmatrix
M3Element
p655
(dp656
g3
Nsg4
S'Sannsynlig, Meget sannsynlig'
p657
sg6
S'gray'
p658
sg8
(lp659
sg10
S'Likely'
p660
sg12
S'Most'
p661
sg14
g66
sg16
I0
sg17
S'Low'
p662
sg19
S'Liten tilleggsbelastning'
p663
sg21
Nsg22
S'200'
p664
sg24
S'2300'
p665
sg26
S'De fleste bratte heng, Ogsaa i mindre bratt terreng'
p666
sg28
Nsg29
g343
sg31
S'2 - Smaa'
p667
sba(irunmatrix
M3Element
p668
(dp669
g3
Nsg4
S'Sannsynlig, Meget sannsynlig'
p670
sg6
S'white'
p671
sg8
(lp672
sg10
S'Likely'
p673
sg12
S'Most'
p674
sg14
g66
sg16
I0
sg17
S'Nat'
p675
sg19
S'Naturlig utloest'
p676
sg21
Nsg22
S'200'
p677
sg24
S'2400'
p678
sg26
S'De fleste bratte heng, Ogsaa i mindre bratt terreng'
p679
sg28
Nsg29
g343
sg31
S'2 - Smaa'
p680
sba(irunmatrix
M3Element
p681
(dp682
g3
Nsg4
S'Lite sannsynlig, Mulig'
p683
sg6
S'white'
p684
sg8
(lp685
sg10
S'Possible'
p686
sg12
S'Isolated'
p687
sg14
g15
sg16
I1
sg17
S'High'
p688
sg19
S'Stor tilleggsbelastning'
p689
sg21
Nsg22
S'300'
p690
sg24
S'100'
p691
sg26
S'Isolerte faresoner'
p692
sg28
Nsg29
S'3'
p693
sg31
S'3 - Middels'
p694
sba(irunmatrix
M3Element
p695
(dp696
g3
F2.6
sg4
S'Lite sannsynlig, Mulig'
p697
sg6
g504
sg8
(lp698
I2
aI2
aI3
aI3
aI3
asg10
S'Possible'
p699
sg12
S'Isolated'
p700
sg14
g236
sg16
I2
sg17
S'Low'
p701
sg19
S'Liten tilleggsbelastning'
p702
sg21
I5
sg22
S'300'
p703
sg24
S'200'
p704
sg26
S'Isolerte faresoner'
p705
sg28
g255
(g259
S'Jh\xdb\xec|Z\xdf?'
p706
tp707
Rp708
sg29
g693
sg31
S'3 - Middels'
p709
sba(irunmatrix
M3Element
p710
(dp711
g3
F3.0
sg4
S'Lite sannsynlig, Mulig'
p712
sg6
g504
sg8
(lp713
I3
aI3
asg10
S'Possible'
p714
sg12
S'Isolated'
p715
sg14
g236
sg16
I2
sg17
S'Nat'
p716
sg19
S'Naturlig utloest'
p717
sg21
I2
sg22
S'300'
p718
sg24
S'300'
p719
sg26
S'Isolerte faresoner'
p720
sg28
g255
(g259
S'\x00\x00\x00\x00\x00\x00\x00\x00'
p721
tp722
Rp723
sg29
g693
sg31
S'3 - Middels'
p724
sba(irunmatrix
M3Element
p725
(dp726
g3
Nsg4
S'Sannsynlig, Meget sannsynlig'
p727
sg6
S'gray'
p728
sg8
(lp729
sg10
S'Likely'
p730
sg12
S'Isolated'
p731
sg14
g66
sg16
I0
sg17
S'High'
p732
sg19
S'Stor tilleggsbelastning'
p733
sg21
Nsg22
S'300'
p734
sg24
S'400'
p735
sg26
S'Isolerte faresoner'
p736
sg28
Nsg29
g693
sg31
S'3 - Middels'
p737
sba(irunmatrix
M3Element
p738
(dp739
g3
Nsg4
S'Sannsynlig, Meget sannsynlig'
p740
sg6
S'gray'
p741
sg8
(lp742
sg10
S'Likely'
p743
sg12
S'Isolated'
p744
sg14
g66
sg16
I0
sg17
S'Low'
p745
sg19
S'Liten tilleggsbelastning'
p746
sg21
Nsg22
S'300'
p747
sg24
S'500'
p748
sg26
S'Isolerte faresoner'
p749
sg28
Nsg29
g693
sg31
S'3 - Middels'
p750
sba(irunmatrix
M3Element
p751
(dp752
g3
Nsg4
S'Sannsynlig, Meget sannsynlig'
p753
sg6
S'gray'
p754
sg8
(lp755
sg10
S'Likely'
p756
sg12
S'Isolated'
p757
sg14
g66
sg16
I0
sg17
S'Nat'
p758
sg19
S'Naturlig utloest'
p759
sg21
Nsg22
S'300'
p760
sg24
S'600'
p761
sg26
S'Isolerte faresoner'
p762
sg28
Nsg29
g693
sg31
S'3 - Middels'
p763
sba(irunmatrix
M3Element
p764
(dp765
g3
Nsg4
S'Lite sannsynlig, Mulig'
p766
sg6
S'white'
p767
sg8
(lp768
sg10
S'Possible'
p769
sg12
S'Some'
p770
sg14
g236
sg16
I2
sg17
S'High'
p771
sg19
S'Stor tilleggsbelastning'
p772
sg21
Nsg22
S'300'
p773
sg24
S'700'
p774
sg26
S'Noen bratte heng'
p775
sg28
Nsg29
g693
sg31
S'3 - Middels'
p776
sba(irunmatrix
M3Element
p777
(dp778
g3
F3.0
sg4
S'Lite sannsynlig, Mulig'
p779
sg6
g504
sg8
(lp780
I3
aI3
aI3
aI3
aI3
aI3
aI3
aI3
aI3
aI3
aI3
aI3
aI3
aI3
aI3
aI3
aI3
aI3
aI3
aI3
aI3
aI3
asg10
S'Possible'
p781
sg12
S'Some'
p782
sg14
g508
sg16
I3
sg17
S'Low'
p783
sg19
S'Liten tilleggsbelastning'
p784
sg21
I22
sg22
S'300'
p785
sg24
S'800'
p786
sg26
S'Noen bratte heng'
p787
sg28
g255
(g259
S'\x00\x00\x00\x00\x00\x00\x00\x00'
p788
tp789
Rp790
sg29
g693
sg31
S'3 - Middels'
p791
sba(irunmatrix
M3Element
p792
(dp793
g3
F2.892857142857143
sg4
S'Lite sannsynlig, Mulig'
p794
sg6
g504
sg8
(lp795
I3
aI3
aI3
aI3
aI3
aI3
aI3
aI3
aI3
aI2
aI2
aI2
aI3
aI3
aI3
aI3
aI3
aI3
aI3
aI3
aI3
aI3
aI3
aI3
aI3
aI3
aI3
aI3
asg10
S'Possible'
p796
sg12
S'Some'
p797
sg14
g508
sg16
I3
sg17
S'Nat'
p798
sg19
S'Naturlig utloest'
p799
sg21
I28
sg22
S'300'
p800
sg24
S'900'
p801
sg26
S'Noen bratte heng'
p802
sg28
g255
(g259
S'V[\xd1\\|\xcb\xd3?'
p803
tp804
Rp805
sg29
g693
sg31
S'3 - Middels'
p806
sba(irunmatrix
M3Element
p807
(dp808
g3
Nsg4
S'Sannsynlig, Meget sannsynlig'
p809
sg6
S'gray'
p810
sg8
(lp811
sg10
S'Likely'
p812
sg12
S'Some'
p813
sg14
g66
sg16
I0
sg17
S'High'
p814
sg19
S'Stor tilleggsbelastning'
p815
sg21
Nsg22
S'300'
p816
sg24
S'1000'
p817
sg26
S'Noen bratte heng'
p818
sg28
Nsg29
g693
sg31
S'3 - Middels'
p819
sba(irunmatrix
M3Element
p820
(dp821
g3
Nsg4
S'Sannsynlig, Meget sannsynlig'
p822
sg6
S'gray'
p823
sg8
(lp824
sg10
S'Likely'
p825
sg12
S'Some'
p826
sg14
g66
sg16
I0
sg17
S'Low'
p827
sg19
S'Liten tilleggsbelastning'
p828
sg21
Nsg22
S'300'
p829
sg24
S'1100'
p830
sg26
S'Noen bratte heng'
p831
sg28
Nsg29
g693
sg31
S'3 - Middels'
p832
sba(irunmatrix
M3Element
p833
(dp834
g3
Nsg4
S'Sannsynlig, Meget sannsynlig'
p835
sg6
S'white'
p836
sg8
(lp837
sg10
S'Likely'
p838
sg12
S'Some'
p839
sg14
g580
sg16
I4
sg17
S'Nat'
p840
sg19
S'Naturlig utloest'
p841
sg21
Nsg22
S'300'
p842
sg24
S'1200'
p843
sg26
S'Noen bratte heng'
p844
sg28
Nsg29
g693
sg31
S'3 - Middels'
p845
sba(irunmatrix
M3Element
p846
(dp847
g3
Nsg4
S'Lite sannsynlig, Mulig'
p848
sg6
S'gray'
p849
sg8
(lp850
sg10
S'Possible'
p851
sg12
S'Many'
p852
sg14
g66
sg16
I0
sg17
S'High'
p853
sg19
S'Stor tilleggsbelastning'
p854
sg21
Nsg22
S'300'
p855
sg24
S'1300'
p856
sg26
S'Mange bratte heng'
p857
sg28
Nsg29
g693
sg31
S'3 - Middels'
p858
sba(irunmatrix
M3Element
p859
(dp860
g3
Nsg4
S'Lite sannsynlig, Mulig'
p861
sg6
S'white'
p862
sg8
(lp863
sg10
S'Possible'
p864
sg12
S'Many'
p865
sg14
g580
sg16
I4
sg17
S'Low'
p866
sg19
S'Liten tilleggsbelastning'
p867
sg21
Nsg22
S'300'
p868
sg24
S'1400'
p869
sg26
S'Mange bratte heng'
p870
sg28
Nsg29
g693
sg31
S'3 - Middels'
p871
sba(irunmatrix
M3Element
p872
(dp873
g3
Nsg4
S'Lite sannsynlig, Mulig'
p874
sg6
S'gray'
p875
sg8
(lp876
sg10
S'Possible'
p877
sg12
S'Many'
p878
sg14
g66
sg16
I0
sg17
S'Nat'
p879
sg19
S'Naturlig utloest'
p880
sg21
Nsg22
S'300'
p881
sg24
S'1500'
p882
sg26
S'Mange bratte heng'
p883
sg28
Nsg29
g693
sg31
S'3 - Middels'
p884
sba(irunmatrix
M3Element
p885
(dp886
g3
Nsg4
S'Sannsynlig, Meget sannsynlig'
p887
sg6
S'gray'
p888
sg8
(lp889
sg10
S'Likely'
p890
sg12
S'Many'
p891
sg14
g66
sg16
I0
sg17
S'High'
p892
sg19
S'Stor tilleggsbelastning'
p893
sg21
Nsg22
S'300'
p894
sg24
S'1600'
p895
sg26
S'Mange bratte heng'
p896
sg28
Nsg29
g693
sg31
S'3 - Middels'
p897
sba(irunmatrix
M3Element
p898
(dp899
g3
Nsg4
S'Sannsynlig, Meget sannsynlig'
p900
sg6
S'white'
p901
sg8
(lp902
sg10
S'Likely'
p903
sg12
S'Many'
p904
sg14
g580
sg16
I4
sg17
S'Low'
p905
sg19
S'Liten tilleggsbelastning'
p906
sg21
Nsg22
S'300'
p907
sg24
S'1700'
p908
sg26
S'Mange bratte heng'
p909
sg28
Nsg29
g693
sg31
S'3 - Middels'
p910
sba(irunmatrix
M3Element
p911
(dp912
g3
Nsg4
S'Sannsynlig, Meget sannsynlig'
p913
sg6
S'white'
p914
sg8
(lp915
sg10
S'Likely'
p916
sg12
S'Many'
p917
sg14
g580
sg16
I4
sg17
S'Nat'
p918
sg19
S'Naturlig utloest'
p919
sg21
Nsg22
S'300'
p920
sg24
S'1800'
p921
sg26
S'Mange bratte heng'
p922
sg28
Nsg29
g693
sg31
S'3 - Middels'
p923
sba(irunmatrix
M3Element
p924
(dp925
g3
Nsg4
S'Lite sannsynlig, Mulig'
p926
sg6
S'gray'
p927
sg8
(lp928
sg10
S'Possible'
p929
sg12
S'Most'
p930
sg14
g66
sg16
I0
sg17
S'High'
p931
sg19
S'Stor tilleggsbelastning'
p932
sg21
Nsg22
S'300'
p933
sg24
S'1900'
p934
sg26
S'De fleste bratte heng, Ogsaa i mindre bratt terreng'
p935
sg28
Nsg29
g693
sg31
S'3 - Middels'
p936
sba(irunmatrix
M3Element
p937
(dp938
g3
Nsg4
S'Lite sannsynlig, Mulig'
p939
sg6
S'gray'
p940
sg8
(lp941
sg10
S'Possible'
p942
sg12
S'Most'
p943
sg14
g66
sg16
I0
sg17
S'Low'
p944
sg19
S'Liten tilleggsbelastning'
p945
sg21
Nsg22
S'300'
p946
sg24
S'2000'
p947
sg26
S'De fleste bratte heng, Ogsaa i mindre bratt terreng'
p948
sg28
Nsg29
g693
sg31
S'3 - Middels'
p949
sba(irunmatrix
M3Element
p950
(dp951
g3
Nsg4
S'Lite sannsynlig, Mulig'
p952
sg6
S'gray'
p953
sg8
(lp954
sg10
S'Possible'
p955
sg12
S'Most'
p956
sg14
g66
sg16
I0
sg17
S'Nat'
p957
sg19
S'Naturlig utloest'
p958
sg21
Nsg22
S'300'
p959
sg24
S'2100'
p960
sg26
S'De fleste bratte heng, Ogsaa i mindre bratt terreng'
p961
sg28
Nsg29
g693
sg31
S'3 - Middels'
p962
sba(irunmatrix
M3Element
p963
(dp964
g3
Nsg4
S'Sannsynlig, Meget sannsynlig'
p965
sg6
S'gray'
p966
sg8
(lp967
sg10
S'Likely'
p968
sg12
S'Most'
p969
sg14
g66
sg16
I0
sg17
S'High'
p970
sg19
S'Stor tilleggsbelastning'
p971
sg21
Nsg22
S'300'
p972
sg24
S'2200'
p973
sg26
S'De fleste bratte heng, Ogsaa i mindre bratt terreng'
p974
sg28
Nsg29
g693
sg31
S'3 - Middels'
p975
sba(irunmatrix
M3Element
p976
(dp977
g3
Nsg4
S'Sannsynlig, Meget sannsynlig'
p978
sg6
S'gray'
p979
sg8
(lp980
sg10
S'Likely'
p981
sg12
S'Most'
p982
sg14
g66
sg16
I0
sg17
S'Low'
p983
sg19
S'Liten tilleggsbelastning'
p984
sg21
Nsg22
S'300'
p985
sg24
S'2300'
p986
sg26
S'De fleste bratte heng, Ogsaa i mindre bratt terreng'
p987
sg28
Nsg29
g693
sg31
S'3 - Middels'
p988
sba(irunmatrix
M3Element
p989
(dp990
g3
Nsg4
S'Sannsynlig, Meget sannsynlig'
p991
sg6
S'white'
p992
sg8
(lp993
sg10
S'Likely'
p994
sg12
S'Most'
p995
sg14
g66
sg16
I0
sg17
S'Nat'
p996
sg19
S'Naturlig utloest'
p997
sg21
Nsg22
S'300'
p998
sg24
S'2400'
p999
sg26
S'De fleste bratte heng, Ogsaa i mindre bratt terreng'
p1000
sg28
Nsg29
g693
sg31
S'3 - Middels'
p1001
sba(irunmatrix
M3Element
p1002
(dp1003
g3
Nsg4
S'Lite sannsynlig, Mulig'
p1004
sg6
S'white'
p1005
sg8
(lp1006
sg10
S'Possible'
p1007
sg12
S'Isolated'
p1008
sg14
g236
sg16
I2
sg17
S'High'
p1009
sg19
S'Stor tilleggsbelastning'
p1010
sg21
Nsg22
S'400'
p1011
sg24
S'100'
p1012
sg26
S'Isolerte faresoner'
p1013
sg28
Nsg29
S'4'
p1014
sg31
S'4 - Store'
p1015
sba(irunmatrix
M3Element
p1016
(dp1017
g3
Nsg4
S'Lite sannsynlig, Mulig'
p1018
sg6
S'white'
p1019
sg8
(lp1020
sg10
S'Possible'
p1021
sg12
S'Isolated'
p1022
sg14
g508
sg16
I3
sg17
S'Low'
p1023
sg19
S'Liten tilleggsbelastning'
p1024
sg21
Nsg22
S'400'
p1025
sg24
S'200'
p1026
sg26
S'Isolerte faresoner'
p1027
sg28
Nsg29
g1014
sg31
S'4 - Store'
p1028
sba(irunmatrix
M3Element
p1029
(dp1030
g3
Nsg4
S'Lite sannsynlig, Mulig'
p1031
sg6
S'white'
p1032
sg8
(lp1033
sg10
S'Possible'
p1034
sg12
S'Isolated'
p1035
sg14
g508
sg16
I3
sg17
S'Nat'
p1036
sg19
S'Naturlig utloest'
p1037
sg21
Nsg22
S'400'
p1038
sg24
S'300'
p1039
sg26
S'Isolerte faresoner'
p1040
sg28
Nsg29
g1014
sg31
S'4 - Store'
p1041
sba(irunmatrix
M3Element
p1042
(dp1043
g3
Nsg4
S'Sannsynlig, Meget sannsynlig'
p1044
sg6
S'gray'
p1045
sg8
(lp1046
sg10
S'Likely'
p1047
sg12
S'Isolated'
p1048
sg14
g66
sg16
I0
sg17
S'High'
p1049
sg19
S'Stor tilleggsbelastning'
p1050
sg21
Nsg22
S'400'
p1051
sg24
S'400'
p1052
sg26
S'Isolerte faresoner'
p1053
sg28
Nsg29
g1014
sg31
S'4 - Store'
p1054
sba(irunmatrix
M3Element
p1055
(dp1056
g3
Nsg4
S'Sannsynlig, Meget sannsynlig'
p1057
sg6
S'gray'
p1058
sg8
(lp1059
sg10
S'Likely'
p1060
sg12
S'Isolated'
p1061
sg14
g66
sg16
I0
sg17
S'Low'
p1062
sg19
S'Liten tilleggsbelastning'
p1063
sg21
Nsg22
S'400'
p1064
sg24
S'500'
p1065
sg26
S'Isolerte faresoner'
p1066
sg28
Nsg29
g1014
sg31
S'4 - Store'
p1067
sba(irunmatrix
M3Element
p1068
(dp1069
g3
Nsg4
S'Sannsynlig, Meget sannsynlig'
p1070
sg6
S'gray'
p1071
sg8
(lp1072
sg10
S'Likely'
p1073
sg12
S'Isolated'
p1074
sg14
g66
sg16
I0
sg17
S'Nat'
p1075
sg19
S'Naturlig utloest'
p1076
sg21
Nsg22
S'400'
p1077
sg24
S'600'
p1078
sg26
S'Isolerte faresoner'
p1079
sg28
Nsg29
g1014
sg31
S'4 - Store'
p1080
sba(irunmatrix
M3Element
p1081
(dp1082
g3
Nsg4
S'Lite sannsynlig, Mulig'
p1083
sg6
S'white'
p1084
sg8
(lp1085
sg10
S'Possible'
p1086
sg12
S'Some'
p1087
sg14
g508
sg16
I3
sg17
S'High'
p1088
sg19
S'Stor tilleggsbelastning'
p1089
sg21
Nsg22
S'400'
p1090
sg24
S'700'
p1091
sg26
S'Noen bratte heng'
p1092
sg28
Nsg29
g1014
sg31
S'4 - Store'
p1093
sba(irunmatrix
M3Element
p1094
(dp1095
g3
Nsg4
S'Lite sannsynlig, Mulig'
p1096
sg6
S'white'
p1097
sg8
(lp1098
sg10
S'Possible'
p1099
sg12
S'Some'
p1100
sg14
g580
sg16
I4
sg17
S'Low'
p1101
sg19
S'Liten tilleggsbelastning'
p1102
sg21
Nsg22
S'400'
p1103
sg24
S'800'
p1104
sg26
S'Noen bratte heng'
p1105
sg28
Nsg29
g1014
sg31
S'4 - Store'
p1106
sba(irunmatrix
M3Element
p1107
(dp1108
g3
Nsg4
S'Lite sannsynlig, Mulig'
p1109
sg6
S'white'
p1110
sg8
(lp1111
sg10
S'Possible'
p1112
sg12
S'Some'
p1113
sg14
g580
sg16
I4
sg17
S'Nat'
p1114
sg19
S'Naturlig utloest'
p1115
sg21
Nsg22
S'400'
p1116
sg24
S'900'
p1117
sg26
S'Noen bratte heng'
p1118
sg28
Nsg29
g1014
sg31
S'4 - Store'
p1119
sba(irunmatrix
M3Element
p1120
(dp1121
g3
Nsg4
S'Sannsynlig, Meget sannsynlig'
p1122
sg6
S'gray'
p1123
sg8
(lp1124
sg10
S'Likely'
p1125
sg12
S'Some'
p1126
sg14
g66
sg16
I0
sg17
S'High'
p1127
sg19
S'Stor tilleggsbelastning'
p1128
sg21
Nsg22
S'400'
p1129
sg24
S'1000'
p1130
sg26
S'Noen bratte heng'
p1131
sg28
Nsg29
g1014
sg31
S'4 - Store'
p1132
sba(irunmatrix
M3Element
p1133
(dp1134
g3
Nsg4
S'Sannsynlig, Meget sannsynlig'
p1135
sg6
S'gray'
p1136
sg8
(lp1137
sg10
S'Likely'
p1138
sg12
S'Some'
p1139
sg14
g66
sg16
I0
sg17
S'Low'
p1140
sg19
S'Liten tilleggsbelastning'
p1141
sg21
Nsg22
S'400'
p1142
sg24
S'1100'
p1143
sg26
S'Noen bratte heng'
p1144
sg28
Nsg29
g1014
sg31
S'4 - Store'
p1145
sba(irunmatrix
M3Element
p1146
(dp1147
g3
Nsg4
S'Sannsynlig, Meget sannsynlig'
p1148
sg6
S'white'
p1149
sg8
(lp1150
sg10
S'Likely'
p1151
sg12
S'Some'
p1152
sg14
g580
sg16
I4
sg17
S'Nat'
p1153
sg19
S'Naturlig utloest'
p1154
sg21
Nsg22
S'400'
p1155
sg24
S'1200'
p1156
sg26
S'Noen bratte heng'
p1157
sg28
Nsg29
g1014
sg31
S'4 - Store'
p1158
sba(irunmatrix
M3Element
p1159
(dp1160
g3
Nsg4
S'Lite sannsynlig, Mulig'
p1161
sg6
S'gray'
p1162
sg8
(lp1163
sg10
S'Possible'
p1164
sg12
S'Many'
p1165
sg14
g66
sg16
I0
sg17
S'High'
p1166
sg19
S'Stor tilleggsbelastning'
p1167
sg21
Nsg22
S'400'
p1168
sg24
S'1300'
p1169
sg26
S'Mange bratte heng'
p1170
sg28
Nsg29
g1014
sg31
S'4 - Store'
p1171
sba(irunmatrix
M3Element
p1172
(dp1173
g3
Nsg4
S'Lite sannsynlig, Mulig'
p1174
sg6
S'white'
p1175
sg8
(lp1176
sg10
S'Possible'
p1177
sg12
S'Many'
p1178
sg14
g66
sg16
I0
sg17
S'Low'
p1179
sg19
S'Liten tilleggsbelastning'
p1180
sg21
Nsg22
S'400'
p1181
sg24
S'1400'
p1182
sg26
S'Mange bratte heng'
p1183
sg28
Nsg29
g1014
sg31
S'4 - Store'
p1184
sba(irunmatrix
M3Element
p1185
(dp1186
g3
Nsg4
S'Lite sannsynlig, Mulig'
p1187
sg6
S'gray'
p1188
sg8
(lp1189
sg10
S'Possible'
p1190
sg12
S'Many'
p1191
sg14
g66
sg16
I0
sg17
S'Nat'
p1192
sg19
S'Naturlig utloest'
p1193
sg21
Nsg22
S'400'
p1194
sg24
S'1500'
p1195
sg26
S'Mange bratte heng'
p1196
sg28
Nsg29
g1014
sg31
S'4 - Store'
p1197
sba(irunmatrix
M3Element
p1198
(dp1199
g3
Nsg4
S'Sannsynlig, Meget sannsynlig'
p1200
sg6
S'gray'
p1201
sg8
(lp1202
sg10
S'Likely'
p1203
sg12
S'Many'
p1204
sg14
g66
sg16
I0
sg17
S'High'
p1205
sg19
S'Stor tilleggsbelastning'
p1206
sg21
Nsg22
S'400'
p1207
sg24
S'1600'
p1208
sg26
S'Mange bratte heng'
p1209
sg28
Nsg29
g1014
sg31
S'4 - Store'
p1210
sba(irunmatrix
M3Element
p1211
(dp1212
g3
Nsg4
S'Sannsynlig, Meget sannsynlig'
p1213
sg6
S'white'
p1214
sg8
(lp1215
sg10
S'Likely'
p1216
sg12
S'Many'
p1217
sg14
g66
sg16
I0
sg17
S'Low'
p1218
sg19
S'Liten tilleggsbelastning'
p1219
sg21
Nsg22
S'400'
p1220
sg24
S'1700'
p1221
sg26
S'Mange bratte heng'
p1222
sg28
Nsg29
g1014
sg31
S'4 - Store'
p1223
sba(irunmatrix
M3Element
p1224
(dp1225
g3
Nsg4
S'Sannsynlig, Meget sannsynlig'
p1226
sg6
S'white'
p1227
sg8
(lp1228
sg10
S'Likely'
p1229
sg12
S'Many'
p1230
sg14
S'k'
p1231
sg16
I5
sg17
S'Nat'
p1232
sg19
S'Naturlig utloest'
p1233
sg21
Nsg22
S'400'
p1234
sg24
S'1800'
p1235
sg26
S'Mange bratte heng'
p1236
sg28
Nsg29
g1014
sg31
S'4 - Store'
p1237
sba(irunmatrix
M3Element
p1238
(dp1239
g3
Nsg4
S'Lite sannsynlig, Mulig'
p1240
sg6
S'gray'
p1241
sg8
(lp1242
sg10
S'Possible'
p1243
sg12
S'Most'
p1244
sg14
g66
sg16
I0
sg17
S'High'
p1245
sg19
S'Stor tilleggsbelastning'
p1246
sg21
Nsg22
S'400'
p1247
sg24
S'1900'
p1248
sg26
S'De fleste bratte heng, Ogsaa i mindre bratt terreng'
p1249
sg28
Nsg29
g1014
sg31
S'4 - Store'
p1250
sba(irunmatrix
M3Element
p1251
(dp1252
g3
Nsg4
S'Lite sannsynlig, Mulig'
p1253
sg6
S'gray'
p1254
sg8
(lp1255
sg10
S'Possible'
p1256
sg12
S'Most'
p1257
sg14
g66
sg16
I0
sg17
S'Low'
p1258
sg19
S'Liten tilleggsbelastning'
p1259
sg21
Nsg22
S'400'
p1260
sg24
S'2000'
p1261
sg26
S'De fleste bratte heng, Ogsaa i mindre bratt terreng'
p1262
sg28
Nsg29
g1014
sg31
S'4 - Store'
p1263
sba(irunmatrix
M3Element
p1264
(dp1265
g3
Nsg4
S'Lite sannsynlig, Mulig'
p1266
sg6
S'gray'
p1267
sg8
(lp1268
sg10
S'Possible'
p1269
sg12
S'Most'
p1270
sg14
g66
sg16
I0
sg17
S'Nat'
p1271
sg19
S'Naturlig utloest'
p1272
sg21
Nsg22
S'400'
p1273
sg24
S'2100'
p1274
sg26
S'De fleste bratte heng, Ogsaa i mindre bratt terreng'
p1275
sg28
Nsg29
g1014
sg31
S'4 - Store'
p1276
sba(irunmatrix
M3Element
p1277
(dp1278
g3
Nsg4
S'Sannsynlig, Meget sannsynlig'
p1279
sg6
S'gray'
p1280
sg8
(lp1281
sg10
S'Likely'
p1282
sg12
S'Most'
p1283
sg14
g66
sg16
I0
sg17
S'High'
p1284
sg19
S'Stor tilleggsbelastning'
p1285
sg21
Nsg22
S'400'
p1286
sg24
S'2200'
p1287
sg26
S'De fleste bratte heng, Ogsaa i mindre bratt terreng'
p1288
sg28
Nsg29
g1014
sg31
S'4 - Store'
p1289
sba(irunmatrix
M3Element
p1290
(dp1291
g3
Nsg4
S'Sannsynlig, Meget sannsynlig'
p1292
sg6
S'gray'
p1293
sg8
(lp1294
sg10
S'Likely'
p1295
sg12
S'Most'
p1296
sg14
g66
sg16
I0
sg17
S'Low'
p1297
sg19
S'Liten tilleggsbelastning'
p1298
sg21
Nsg22
S'400'
p1299
sg24
S'2300'
p1300
sg26
S'De fleste bratte heng, Ogsaa i mindre bratt terreng'
p1301
sg28
Nsg29
g1014
sg31
S'4 - Store'
p1302
sba(irunmatrix
M3Element
p1303
(dp1304
g3
Nsg4
S'Sannsynlig, Meget sannsynlig'
p1305
sg6
S'white'
p1306
sg8
(lp1307
sg10
S'Likely'
p1308
sg12
S'Most'
p1309
sg14
g66
sg16
I0
sg17
S'Nat'
p1310
sg19
S'Naturlig utloest'
p1311
sg21
Nsg22
S'400'
p1312
sg24
S'2400'
p1313
sg26
S'De fleste bratte heng, Ogsaa i mindre bratt terreng'
p1314
sg28
Nsg29
g1014
sg31
S'4 - Store'
p1315
sba(irunmatrix
M3Element
p1316
(dp1317
g3
Nsg4
S'Lite sannsynlig, Mulig'
p1318
sg6
S'white'
p1319
sg8
(lp1320
sg10
S'Possible'
p1321
sg12
S'Isolated'
p1322
sg14
g66
sg16
I0
sg17
S'High'
p1323
sg19
S'Stor tilleggsbelastning'
p1324
sg21
Nsg22
S'500'
p1325
sg24
S'100'
p1326
sg26
S'Isolerte faresoner'
p1327
sg28
Nsg29
S'5'
p1328
sg31
S'5 - Svaert store'
p1329
sba(irunmatrix
M3Element
p1330
(dp1331
g3
Nsg4
S'Lite sannsynlig, Mulig'
p1332
sg6
S'white'
p1333
sg8
(lp1334
sg10
S'Possible'
p1335
sg12
S'Isolated'
p1336
sg14
g66
sg16
I0
sg17
S'Low'
p1337
sg19
S'Liten tilleggsbelastning'
p1338
sg21
Nsg22
S'500'
p1339
sg24
S'200'
p1340
sg26
S'Isolerte faresoner'
p1341
sg28
Nsg29
g1328
sg31
S'5 - Svaert store'
p1342
sba(irunmatrix
M3Element
p1343
(dp1344
g3
Nsg4
S'Lite sannsynlig, Mulig'
p1345
sg6
S'white'
p1346
sg8
(lp1347
sg10
S'Possible'
p1348
sg12
S'Isolated'
p1349
sg14
g66
sg16
I0
sg17
S'Nat'
p1350
sg19
S'Naturlig utloest'
p1351
sg21
Nsg22
S'500'
p1352
sg24
S'300'
p1353
sg26
S'Isolerte faresoner'
p1354
sg28
Nsg29
g1328
sg31
S'5 - Svaert store'
p1355
sba(irunmatrix
M3Element
p1356
(dp1357
g3
Nsg4
S'Sannsynlig, Meget sannsynlig'
p1358
sg6
S'gray'
p1359
sg8
(lp1360
sg10
S'Likely'
p1361
sg12
S'Isolated'
p1362
sg14
g66
sg16
I0
sg17
S'High'
p1363
sg19
S'Stor tilleggsbelastning'
p1364
sg21
Nsg22
S'500'
p1365
sg24
S'400'
p1366
sg26
S'Isolerte faresoner'
p1367
sg28
Nsg29
g1328
sg31
S'5 - Svaert store'
p1368
sba(irunmatrix
M3Element
p1369
(dp1370
g3
Nsg4
S'Sannsynlig, Meget sannsynlig'
p1371
sg6
S'gray'
p1372
sg8
(lp1373
sg10
S'Likely'
p1374
sg12
S'Isolated'
p1375
sg14
g66
sg16
I0
sg17
S'Low'
p1376
sg19
S'Liten tilleggsbelastning'
p1377
sg21
Nsg22
S'500'
p1378
sg24
S'500'
p1379
sg26
S'Isolerte faresoner'
p1380
sg28
Nsg29
g1328
sg31
S'5 - Svaert store'
p1381
sba(irunmatrix
M3Element
p1382
(dp1383
g3
Nsg4
S'Sannsynlig, Meget sannsynlig'
p1384
sg6
S'gray'
p1385
sg8
(lp1386
sg10
S'Likely'
p1387
sg12
S'Isolated'
p1388
sg14
g66
sg16
I0
sg17
S'Nat'
p1389
sg19
S'Naturlig utloest'
p1390
sg21
Nsg22
S'500'
p1391
sg24
S'600'
p1392
sg26
S'Isolerte faresoner'
p1393
sg28
Nsg29
g1328
sg31
S'5 - Svaert store'
p1394
sba(irunmatrix
M3Element
p1395
(dp1396
g3
Nsg4
S'Lite sannsynlig, Mulig'
p1397
sg6
S'white'
p1398
sg8
(lp1399
sg10
S'Possible'
p1400
sg12
S'Some'
p1401
sg14
g66
sg16
I0
sg17
S'High'
p1402
sg19
S'Stor tilleggsbelastning'
p1403
sg21
Nsg22
S'500'
p1404
sg24
S'700'
p1405
sg26
S'Noen bratte heng'
p1406
sg28
Nsg29
g1328
sg31
S'5 - Svaert store'
p1407
sba(irunmatrix
M3Element
p1408
(dp1409
g3
Nsg4
S'Lite sannsynlig, Mulig'
p1410
sg6
S'white'
p1411
sg8
(lp1412
sg10
S'Possible'
p1413
sg12
S'Some'
p1414
sg14
g66
sg16
I0
sg17
S'Low'
p1415
sg19
S'Liten tilleggsbelastning'
p1416
sg21
Nsg22
S'500'
p1417
sg24
S'800'
p1418
sg26
S'Noen bratte heng'
p1419
sg28
Nsg29
g1328
sg31
S'5 - Svaert store'
p1420
sba(irunmatrix
M3Element
p1421
(dp1422
g3
Nsg4
S'Lite sannsynlig, Mulig'
p1423
sg6
S'white'
p1424
sg8
(lp1425
sg10
S'Possible'
p1426
sg12
S'Some'
p1427
sg14
g66
sg16
I0
sg17
S'Nat'
p1428
sg19
S'Naturlig utloest'
p1429
sg21
Nsg22
S'500'
p1430
sg24
S'900'
p1431
sg26
S'Noen bratte heng'
p1432
sg28
Nsg29
g1328
sg31
S'5 - Svaert store'
p1433
sba(irunmatrix
M3Element
p1434
(dp1435
g3
Nsg4
S'Sannsynlig, Meget sannsynlig'
p1436
sg6
S'gray'
p1437
sg8
(lp1438
sg10
S'Likely'
p1439
sg12
S'Some'
p1440
sg14
g66
sg16
I0
sg17
S'High'
p1441
sg19
S'Stor tilleggsbelastning'
p1442
sg21
Nsg22
S'500'
p1443
sg24
S'1000'
p1444
sg26
S'Noen bratte heng'
p1445
sg28
Nsg29
g1328
sg31
S'5 - Svaert store'
p1446
sba(irunmatrix
M3Element
p1447
(dp1448
g3
Nsg4
S'Sannsynlig, Meget sannsynlig'
p1449
sg6
S'gray'
p1450
sg8
(lp1451
sg10
S'Likely'
p1452
sg12
S'Some'
p1453
sg14
g66
sg16
I0
sg17
S'Low'
p1454
sg19
S'Liten tilleggsbelastning'
p1455
sg21
Nsg22
S'500'
p1456
sg24
S'1100'
p1457
sg26
S'Noen bratte heng'
p1458
sg28
Nsg29
g1328
sg31
S'5 - Svaert store'
p1459
sba(irunmatrix
M3Element
p1460
(dp1461
g3
Nsg4
S'Sannsynlig, Meget sannsynlig'
p1462
sg6
S'white'
p1463
sg8
(lp1464
sg10
S'Likely'
p1465
sg12
S'Some'
p1466
sg14
g66
sg16
I0
sg17
S'Nat'
p1467
sg19
S'Naturlig utloest'
p1468
sg21
Nsg22
S'500'
p1469
sg24
S'1200'
p1470
sg26
S'Noen bratte heng'
p1471
sg28
Nsg29
g1328
sg31
S'5 - Svaert store'
p1472
sba(irunmatrix
M3Element
p1473
(dp1474
g3
Nsg4
S'Lite sannsynlig, Mulig'
p1475
sg6
S'gray'
p1476
sg8
(lp1477
sg10
S'Possible'
p1478
sg12
S'Many'
p1479
sg14
g66
sg16
I0
sg17
S'High'
p1480
sg19
S'Stor tilleggsbelastning'
p1481
sg21
Nsg22
S'500'
p1482
sg24
S'1300'
p1483
sg26
S'Mange bratte heng'
p1484
sg28
Nsg29
g1328
sg31
S'5 - Svaert store'
p1485
sba(irunmatrix
M3Element
p1486
(dp1487
g3
Nsg4
S'Lite sannsynlig, Mulig'
p1488
sg6
S'white'
p1489
sg8
(lp1490
sg10
S'Possible'
p1491
sg12
S'Many'
p1492
sg14
g66
sg16
I0
sg17
S'Low'
p1493
sg19
S'Liten tilleggsbelastning'
p1494
sg21
Nsg22
S'500'
p1495
sg24
S'1400'
p1496
sg26
S'Mange bratte heng'
p1497
sg28
Nsg29
g1328
sg31
S'5 - Svaert store'
p1498
sba(irunmatrix
M3Element
p1499
(dp1500
g3
Nsg4
S'Lite sannsynlig, Mulig'
p1501
sg6
S'gray'
p1502
sg8
(lp1503
sg10
S'Possible'
p1504
sg12
S'Many'
p1505
sg14
g66
sg16
I0
sg17
S'Nat'
p1506
sg19
S'Naturlig utloest'
p1507
sg21
Nsg22
S'500'
p1508
sg24
S'1500'
p1509
sg26
S'Mange bratte heng'
p1510
sg28
Nsg29
g1328
sg31
S'5 - Svaert store'
p1511
sba(irunmatrix
M3Element
p1512
(dp1513
g3
Nsg4
S'Sannsynlig, Meget sannsynlig'
p1514
sg6
S'gray'
p1515
sg8
(lp1516
sg10
S'Likely'
p1517
sg12
S'Many'
p1518
sg14
g66
sg16
I0
sg17
S'High'
p1519
sg19
S'Stor tilleggsbelastning'
p1520
sg21
Nsg22
S'500'
p1521
sg24
S'1600'
p1522
sg26
S'Mange bratte heng'
p1523
sg28
Nsg29
g1328
sg31
S'5 - Svaert store'
p1524
sba(irunmatrix
M3Element
p1525
(dp1526
g3
Nsg4
S'Sannsynlig, Meget sannsynlig'
p1527
sg6
S'white'
p1528
sg8
(lp1529
sg10
S'Likely'
p1530
sg12
S'Many'
p1531
sg14
g66
sg16
I0
sg17
S'Low'
p1532
sg19
S'Liten tilleggsbelastning'
p1533
sg21
Nsg22
S'500'
p1534
sg24
S'1700'
p1535
sg26
S'Mange bratte heng'
p1536
sg28
Nsg29
g1328
sg31
S'5 - Svaert store'
p1537
sba(irunmatrix
M3Element
p1538
(dp1539
g3
Nsg4
S'Sannsynlig, Meget sannsynlig'
p1540
sg6
S'white'
p1541
sg8
(lp1542
sg10
S'Likely'
p1543
sg12
S'Many'
p1544
sg14
g1231
sg16
I5
sg17
S'Nat'
p1545
sg19
S'Naturlig utloest'
p1546
sg21
Nsg22
S'500'
p1547
sg24
S'1800'
p1548
sg26
S'Mange bratte heng'
p1549
sg28
Nsg29
g1328
sg31
S'5 - Svaert store'
p1550
sba(irunmatrix
M3Element
p1551
(dp1552
g3
Nsg4
S'Lite sannsynlig, Mulig'
p1553
sg6
S'gray'
p1554
sg8
(lp1555
sg10
S'Possible'
p1556
sg12
S'Most'
p1557
sg14
g66
sg16
I0
sg17
S'High'
p1558
sg19
S'Stor tilleggsbelastning'
p1559
sg21
Nsg22
S'500'
p1560
sg24
S'1900'
p1561
sg26
S'De fleste bratte heng, Ogsaa i mindre bratt terreng'
p1562
sg28
Nsg29
g1328
sg31
S'5 - Svaert store'
p1563
sba(irunmatrix
M3Element
p1564
(dp1565
g3
Nsg4
S'Lite sannsynlig, Mulig'
p1566
sg6
S'gray'
p1567
sg8
(lp1568
sg10
S'Possible'
p1569
sg12
S'Most'
p1570
sg14
g66
sg16
I0
sg17
S'Low'
p1571
sg19
S'Liten tilleggsbelastning'
p1572
sg21
Nsg22
S'500'
p1573
sg24
S'2000'
p1574
sg26
S'De fleste bratte heng, Ogsaa i mindre bratt terreng'
p1575
sg28
Nsg29
g1328
sg31
S'5 - Svaert store'
p1576
sba(irunmatrix
M3Element
p1577
(dp1578
g3
Nsg4
S'Lite sannsynlig, Mulig'
p1579
sg6
S'gray'
p1580
sg8
(lp1581
sg10
S'Possible'
p1582
sg12
S'Most'
p1583
sg14
g66
sg16
I0
sg17
S'Nat'
p1584
sg19
S'Naturlig utloest'
p1585
sg21
Nsg22
S'500'
p1586
sg24
S'2100'
p1587
sg26
S'De fleste bratte heng, Ogsaa i mindre bratt terreng'
p1588
sg28
Nsg29
g1328
sg31
S'5 - Svaert store'
p1589
sba(irunmatrix
M3Element
p1590
(dp1591
g3
Nsg4
S'Sannsynlig, Meget sannsynlig'
p1592
sg6
S'gray'
p1593
sg8
(lp1594
sg10
S'Likely'
p1595
sg12
S'Most'
p1596
sg14
g66
sg16
I0
sg17
S'High'
p1597
sg19
S'Stor tilleggsbelastning'
p1598
sg21
Nsg22
S'500'
p1599
sg24
S'2200'
p1600
sg26
S'De fleste bratte heng, Ogsaa i mindre bratt terreng'
p1601
sg28
Nsg29
g1328
sg31
S'5 - Svaert store'
p1602
sba(irunmatrix
M3Element
p1603
(dp1604
g3
Nsg4
S'Sannsynlig, Meget sannsynlig'
p1605
sg6
S'gray'
p1606
sg8
(lp1607
sg10
S'Likely'
p1608
sg12
S'Most'
p1609
sg14
g66
sg16
I0
sg17
S'Low'
p1610
sg19
S'Liten tilleggsbelastning'
p1611
sg21
Nsg22
S'500'
p1612
sg24
S'2300'
p1613
sg26
S'De fleste bratte heng, Ogsaa i mindre bratt terreng'
p1614
sg28
Nsg29
g1328
sg31
S'5 - Svaert store'
p1615
sba(irunmatrix
M3Element
p1616
(dp1617
g3
Nsg4
S'Sannsynlig, Meget sannsynlig'
p1618
sg6
S'white'
p1619
sg8
(lp1620
sg10
S'Likely'
p1621
sg12
S'Most'
p1622
sg14
g66
sg16
I0
sg17
S'Nat'
p1623
sg19
S'Naturlig utloest'
p1624
sg21
Nsg22
S'500'
p1625
sg24
S'2400'
p1626
sg26
S'De fleste bratte heng, Ogsaa i mindre bratt terreng'
p1627
sg28
Nsg29
g1328
sg31
S'5 - Svaert store'
p1628
sba.