(dp0
S'trigger'
p1
(dp2
S'keys'
p3
(lp4
S'Stor tilleggsbelastning'
p5
aS'Liten tilleggsbelastning'
p6
aS'Naturlig utloest'
p7
asS'colors'
p8
(lp9
S'0.7'
p10
asS'values'
p11
(lp12
S'Liten tilleggsbelastning'
p13
aS'Stor tilleggsbelastning'
p14
aS'Stor tilleggsbelastning'
p15
aS'Stor tilleggsbelastning'
p16
aS'Liten tilleggsbelastning'
p17
aS'Stor tilleggsbelastning'
p18
aS'Liten tilleggsbelastning'
p19
aS'Naturlig utloest'
p20
aS'Stor tilleggsbelastning'
p21
aS'Liten tilleggsbelastning'
p22
aS'Liten tilleggsbelastning'
p23
aS'Naturlig utloest'
p24
aS'Liten tilleggsbelastning'
p25
aS'Liten tilleggsbelastning'
p26
aS'Liten tilleggsbelastning'
p27
aS'Liten tilleggsbelastning'
p28
aS'Stor tilleggsbelastning'
p29
aS'Liten tilleggsbelastning'
p30
aS'Liten tilleggsbelastning'
p31
aS'Liten tilleggsbelastning'
p32
aS'Liten tilleggsbelastning'
p33
aS'Naturlig utloest'
p34
aS'Liten tilleggsbelastning'
p35
aS'Liten tilleggsbelastning'
p36
aS'Liten tilleggsbelastning'
p37
aS'Naturlig utloest'
p38
aS'Liten tilleggsbelastning'
p39
aS'Liten tilleggsbelastning'
p40
aS'Liten tilleggsbelastning'
p41
aS'Liten tilleggsbelastning'
p42
aS'Liten tilleggsbelastning'
p43
aS'Liten tilleggsbelastning'
p44
aS'Liten tilleggsbelastning'
p45
aS'Stor tilleggsbelastning'
p46
aS'Liten tilleggsbelastning'
p47
aS'Naturlig utloest'
p48
aS'Naturlig utloest'
p49
aS'Naturlig utloest'
p50
aS'Naturlig utloest'
p51
aS'Naturlig utloest'
p52
aS'Naturlig utloest'
p53
aS'Naturlig utloest'
p54
aS'Naturlig utloest'
p55
aS'Naturlig utloest'
p56
aS'Naturlig utloest'
p57
aS'Naturlig utloest'
p58
aS'Naturlig utloest'
p59
aS'Liten tilleggsbelastning'
p60
aS'Naturlig utloest'
p61
aS'Liten tilleggsbelastning'
p62
aS'Naturlig utloest'
p63
aS'Naturlig utloest'
p64
aS'Naturlig utloest'
p65
aS'Liten tilleggsbelastning'
p66
aS'Naturlig utloest'
p67
aS'Liten tilleggsbelastning'
p68
aS'Liten tilleggsbelastning'
p69
aS'Naturlig utloest'
p70
aS'Naturlig utloest'
p71
aS'Liten tilleggsbelastning'
p72
aS'Naturlig utloest'
p73
aS'Liten tilleggsbelastning'
p74
aS'Naturlig utloest'
p75
aS'Liten tilleggsbelastning'
p76
aS'Liten tilleggsbelastning'
p77
aS'Liten tilleggsbelastning'
p78
aS'Liten tilleggsbelastning'
p79
aS'Liten tilleggsbelastning'
p80
aS'Liten tilleggsbelastning'
p81
aS'Liten tilleggsbelastning'
p82
aS'Liten tilleggsbelastning'
p83
aS'Liten tilleggsbelastning'
p84
aS'Stor tilleggsbelastning'
p85
aS'Liten tilleggsbelastning'
p86
aS'Naturlig utloest'
p87
aS'Liten tilleggsbelastning'
p88
aS'Liten tilleggsbelastning'
p89
aS'Stor tilleggsbelastning'
p90
aS'Liten tilleggsbelastning'
p91
aS'Stor tilleggsbelastning'
p92
aS'Liten tilleggsbelastning'
p93
aS'Liten tilleggsbelastning'
p94
aS'Liten tilleggsbelastning'
p95
aS'Liten tilleggsbelastning'
p96
aS'Stor tilleggsbelastning'
p97
aS'Stor tilleggsbelastning'
p98
aS'Stor tilleggsbelastning'
p99
aS'Stor tilleggsbelastning'
p100
aS'Stor tilleggsbelastning'
p101
aS'Naturlig utloest'
p102
aS'Naturlig utloest'
p103
aS'Naturlig utloest'
p104
aS'Naturlig utloest'
p105
aS'Naturlig utloest'
p106
aS'Naturlig utloest'
p107
aS'Naturlig utloest'
p108
aS'Naturlig utloest'
p109
aS'Naturlig utloest'
p110
aS'Naturlig utloest'
p111
aS'Naturlig utloest'
p112
aS'Naturlig utloest'
p113
aS'Naturlig utloest'
p114
aS'Naturlig utloest'
p115
aS'Naturlig utloest'
p116
aS'Naturlig utloest'
p117
aS'Naturlig utloest'
p118
aS'Naturlig utloest'
p119
aS'Naturlig utloest'
p120
aS'Naturlig utloest'
p121
aS'Naturlig utloest'
p122
aS'Naturlig utloest'
p123
aS'Naturlig utloest'
p124
aS'Naturlig utloest'
p125
aS'Naturlig utloest'
p126
aS'Naturlig utloest'
p127
aS'Naturlig utloest'
p128
aS'Naturlig utloest'
p129
aS'Naturlig utloest'
p130
aS'Naturlig utloest'
p131
aS'Naturlig utloest'
p132
aS'Naturlig utloest'
p133
aS'Naturlig utloest'
p134
aS'Naturlig utloest'
p135
aS'Naturlig utloest'
p136
aS'Naturlig utloest'
p137
aS'Naturlig utloest'
p138
aS'Naturlig utloest'
p139
aS'Naturlig utloest'
p140
aS'Naturlig utloest'
p141
aS'Naturlig utloest'
p142
aS'Naturlig utloest'
p143
aS'Naturlig utloest'
p144
aS'Naturlig utloest'
p145
assS'distribution'
p146
(dp147
g3
(lp148
S'Isolerte faresoner'
p149
aS'Noen bratte heng'
p150
aS'Mange bratte heng'
p151
aS'De fleste bratte heng'
p152
aS'Ogsaa i mindre bratt terreng'
p153
asg8
(lp154
g10
asg11
(lp155
S'Noen bratte heng'
p156
aS'Noen bratte heng'
p157
aS'Noen bratte heng'
p158
aS'Isolerte faresoner'
p159
aS'Isolerte faresoner'
p160
aS'Noen bratte heng'
p161
aS'Isolerte faresoner'
p162
aS'Noen bratte heng'
p163
aS'Noen bratte heng'
p164
aS'Noen bratte heng'
p165
aS'Noen bratte heng'
p166
aS'Mange bratte heng'
p167
aS'Noen bratte heng'
p168
aS'Noen bratte heng'
p169
aS'Noen bratte heng'
p170
aS'Noen bratte heng'
p171
aS'Noen bratte heng'
p172
aS'Noen bratte heng'
p173
aS'Noen bratte heng'
p174
aS'Noen bratte heng'
p175
aS'Noen bratte heng'
p176
aS'Noen bratte heng'
p177
aS'Isolerte faresoner'
p178
aS'Noen bratte heng'
p179
aS'Noen bratte heng'
p180
aS'Noen bratte heng'
p181
aS'Noen bratte heng'
p182
aS'Noen bratte heng'
p183
aS'Noen bratte heng'
p184
aS'Noen bratte heng'
p185
aS'Noen bratte heng'
p186
aS'Isolerte faresoner'
p187
aS'Isolerte faresoner'
p188
aS'Isolerte faresoner'
p189
aS'Isolerte faresoner'
p190
aS'Isolerte faresoner'
p191
aS'Isolerte faresoner'
p192
aS'Isolerte faresoner'
p193
aS'Isolerte faresoner'
p194
aS'Isolerte faresoner'
p195
aS'Isolerte faresoner'
p196
aS'Isolerte faresoner'
p197
aS'Isolerte faresoner'
p198
aS'Isolerte faresoner'
p199
aS'Isolerte faresoner'
p200
aS'Isolerte faresoner'
p201
aS'Isolerte faresoner'
p202
aS'Noen bratte heng'
p203
aS'Isolerte faresoner'
p204
aS'Noen bratte heng'
p205
aS'Isolerte faresoner'
p206
aS'Isolerte faresoner'
p207
aS'Isolerte faresoner'
p208
aS'Noen bratte heng'
p209
aS'Isolerte faresoner'
p210
aS'Noen bratte heng'
p211
aS'Noen bratte heng'
p212
aS'Isolerte faresoner'
p213
aS'Isolerte faresoner'
p214
aS'Noen bratte heng'
p215
aS'Isolerte faresoner'
p216
aS'Noen bratte heng'
p217
aS'Isolerte faresoner'
p218
aS'Isolerte faresoner'
p219
aS'Noen bratte heng'
p220
aS'Noen bratte heng'
p221
aS'Noen bratte heng'
p222
aS'Noen bratte heng'
p223
aS'Noen bratte heng'
p224
aS'Isolerte faresoner'
p225
aS'Isolerte faresoner'
p226
aS'Isolerte faresoner'
p227
aS'Isolerte faresoner'
p228
aS'Isolerte faresoner'
p229
aS'Noen bratte heng'
p230
aS'Noen bratte heng'
p231
aS'Noen bratte heng'
p232
aS'Isolerte faresoner'
p233
aS'Noen bratte heng'
p234
aS'Noen bratte heng'
p235
aS'Noen bratte heng'
p236
aS'Noen bratte heng'
p237
aS'Noen bratte heng'
p238
aS'Noen bratte heng'
p239
aS'Noen bratte heng'
p240
aS'Noen bratte heng'
p241
aS'Noen bratte heng'
p242
aS'Noen bratte heng'
p243
aS'Noen bratte heng'
p244
aS'Noen bratte heng'
p245
aS'Isolerte faresoner'
p246
aS'Noen bratte heng'
p247
aS'Noen bratte heng'
p248
aS'Noen bratte heng'
p249
aS'Noen bratte heng'
p250
aS'Isolerte faresoner'
p251
aS'Noen bratte heng'
p252
aS'Noen bratte heng'
p253
aS'Noen bratte heng'
p254
aS'Noen bratte heng'
p255
aS'Noen bratte heng'
p256
aS'Noen bratte heng'
p257
aS'Noen bratte heng'
p258
aS'Noen bratte heng'
p259
aS'Noen bratte heng'
p260
aS'Noen bratte heng'
p261
aS'Noen bratte heng'
p262
aS'Noen bratte heng'
p263
aS'Noen bratte heng'
p264
aS'Noen bratte heng'
p265
aS'Noen bratte heng'
p266
aS'Noen bratte heng'
p267
aS'Noen bratte heng'
p268
aS'Noen bratte heng'
p269
aS'Noen bratte heng'
p270
aS'Noen bratte heng'
p271
aS'Noen bratte heng'
p272
aS'Noen bratte heng'
p273
aS'Noen bratte heng'
p274
aS'Noen bratte heng'
p275
aS'Noen bratte heng'
p276
aS'Noen bratte heng'
p277
aS'Noen bratte heng'
p278
aS'Noen bratte heng'
p279
aS'Noen bratte heng'
p280
aS'Noen bratte heng'
p281
aS'Noen bratte heng'
p282
aS'Noen bratte heng'
p283
aS'Noen bratte heng'
p284
aS'Noen bratte heng'
p285
aS'Noen bratte heng'
p286
aS'Noen bratte heng'
p287
aS'Noen bratte heng'
p288
assS'size'
p289
(dp290
g3
(lp291
S'1 - Harmloest'
p292
aS'2 - Smaa'
p293
aS'3 - Middels'
p294
aS'4 - Store'
p295
aS'5 - Svaert store'
p296
aS'Ukjent'
p297
asg8
(lp298
g10
asg11
(lp299
S'3 - Middels'
p300
aS'2 - Smaa'
p301
aS'2 - Smaa'
p302
aS'1 - Harmloest'
p303
aS'2 - Smaa'
p304
aS'2 - Smaa'
p305
aS'2 - Smaa'
p306
aS'3 - Middels'
p307
aS'2 - Smaa'
p308
aS'2 - Smaa'
p309
aS'3 - Middels'
p310
aS'3 - Middels'
p311
aS'3 - Middels'
p312
aS'3 - Middels'
p313
aS'2 - Smaa'
p314
aS'2 - Smaa'
p315
aS'2 - Smaa'
p316
aS'2 - Smaa'
p317
aS'2 - Smaa'
p318
aS'3 - Middels'
p319
aS'2 - Smaa'
p320
aS'3 - Middels'
p321
aS'2 - Smaa'
p322
aS'2 - Smaa'
p323
aS'2 - Smaa'
p324
aS'3 - Middels'
p325
aS'2 - Smaa'
p326
aS'2 - Smaa'
p327
aS'2 - Smaa'
p328
aS'2 - Smaa'
p329
aS'3 - Middels'
p330
aS'3 - Middels'
p331
aS'3 - Middels'
p332
aS'2 - Smaa'
p333
aS'3 - Middels'
p334
aS'3 - Middels'
p335
aS'2 - Smaa'
p336
aS'3 - Middels'
p337
aS'3 - Middels'
p338
aS'2 - Smaa'
p339
aS'2 - Smaa'
p340
aS'3 - Middels'
p341
aS'2 - Smaa'
p342
aS'3 - Middels'
p343
aS'3 - Middels'
p344
aS'2 - Smaa'
p345
aS'2 - Smaa'
p346
aS'2 - Smaa'
p347
aS'2 - Smaa'
p348
aS'2 - Smaa'
p349
aS'3 - Middels'
p350
aS'2 - Smaa'
p351
aS'2 - Smaa'
p352
aS'2 - Smaa'
p353
aS'2 - Smaa'
p354
aS'2 - Smaa'
p355
aS'2 - Smaa'
p356
aS'2 - Smaa'
p357
aS'2 - Smaa'
p358
aS'2 - Smaa'
p359
aS'2 - Smaa'
p360
aS'2 - Smaa'
p361
aS'2 - Smaa'
p362
aS'2 - Smaa'
p363
aS'2 - Smaa'
p364
aS'2 - Smaa'
p365
aS'2 - Smaa'
p366
aS'2 - Smaa'
p367
aS'2 - Smaa'
p368
aS'2 - Smaa'
p369
aS'2 - Smaa'
p370
aS'2 - Smaa'
p371
aS'2 - Smaa'
p372
aS'2 - Smaa'
p373
aS'2 - Smaa'
p374
aS'2 - Smaa'
p375
aS'2 - Smaa'
p376
aS'2 - Smaa'
p377
aS'2 - Smaa'
p378
aS'3 - Middels'
p379
aS'2 - Smaa'
p380
aS'2 - Smaa'
p381
aS'2 - Smaa'
p382
aS'2 - Smaa'
p383
aS'3 - Middels'
p384
aS'3 - Middels'
p385
aS'3 - Middels'
p386
aS'3 - Middels'
p387
aS'3 - Middels'
p388
aS'2 - Smaa'
p389
aS'2 - Smaa'
p390
aS'2 - Smaa'
p391
aS'2 - Smaa'
p392
aS'2 - Smaa'
p393
aS'2 - Smaa'
p394
aS'2 - Smaa'
p395
aS'2 - Smaa'
p396
aS'2 - Smaa'
p397
aS'2 - Smaa'
p398
aS'2 - Smaa'
p399
aS'2 - Smaa'
p400
aS'2 - Smaa'
p401
aS'2 - Smaa'
p402
aS'2 - Smaa'
p403
aS'2 - Smaa'
p404
aS'2 - Smaa'
p405
aS'2 - Smaa'
p406
aS'2 - Smaa'
p407
aS'2 - Smaa'
p408
aS'2 - Smaa'
p409
aS'2 - Smaa'
p410
aS'2 - Smaa'
p411
aS'2 - Smaa'
p412
aS'2 - Smaa'
p413
aS'2 - Smaa'
p414
aS'3 - Middels'
p415
aS'3 - Middels'
p416
aS'3 - Middels'
p417
aS'3 - Middels'
p418
aS'3 - Middels'
p419
aS'3 - Middels'
p420
aS'3 - Middels'
p421
aS'3 - Middels'
p422
aS'3 - Middels'
p423
aS'2 - Smaa'
p424
aS'2 - Smaa'
p425
aS'2 - Smaa'
p426
aS'2 - Smaa'
p427
aS'3 - Middels'
p428
aS'2 - Smaa'
p429
aS'2 - Smaa'
p430
aS'2 - Smaa'
p431
aS'2 - Smaa'
p432
assS'probability'
p433
(dp434
g3
(lp435
S'Lite sannsynlig'
p436
aS'Mulig'
p437
aS'Sannsynlig'
p438
aS'Meget sannsynlig'
p439
asg8
(lp440
g10
asg11
(lp441
S'Mulig'
p442
aS'Mulig'
p443
aS'Mulig'
p444
aS'Mulig'
p445
aS'Mulig'
p446
aS'Mulig'
p447
aS'Mulig'
p448
aS'Mulig'
p449
aS'Mulig'
p450
aS'Mulig'
p451
aS'Sannsynlig'
p452
aS'Mulig'
p453
aS'Sannsynlig'
p454
aS'Mulig'
p455
aS'Mulig'
p456
aS'Mulig'
p457
aS'Mulig'
p458
aS'Mulig'
p459
aS'Mulig'
p460
aS'Mulig'
p461
aS'Mulig'
p462
aS'Mulig'
p463
aS'Mulig'
p464
aS'Mulig'
p465
aS'Mulig'
p466
aS'Mulig'
p467
aS'Mulig'
p468
aS'Mulig'
p469
aS'Mulig'
p470
aS'Mulig'
p471
aS'Mulig'
p472
aS'Mulig'
p473
aS'Mulig'
p474
aS'Mulig'
p475
aS'Mulig'
p476
aS'Lite sannsynlig'
p477
aS'Mulig'
p478
aS'Lite sannsynlig'
p479
aS'Lite sannsynlig'
p480
aS'Mulig'
p481
aS'Mulig'
p482
aS'Lite sannsynlig'
p483
aS'Mulig'
p484
aS'Lite sannsynlig'
p485
aS'Lite sannsynlig'
p486
aS'Mulig'
p487
aS'Mulig'
p488
aS'Mulig'
p489
aS'Mulig'
p490
aS'Mulig'
p491
aS'Lite sannsynlig'
p492
aS'Mulig'
p493
aS'Mulig'
p494
aS'Mulig'
p495
aS'Mulig'
p496
aS'Mulig'
p497
aS'Mulig'
p498
aS'Mulig'
p499
aS'Mulig'
p500
aS'Mulig'
p501
aS'Mulig'
p502
aS'Mulig'
p503
aS'Mulig'
p504
aS'Mulig'
p505
aS'Mulig'
p506
aS'Mulig'
p507
aS'Mulig'
p508
aS'Mulig'
p509
aS'Mulig'
p510
aS'Mulig'
p511
aS'Mulig'
p512
aS'Mulig'
p513
aS'Mulig'
p514
aS'Mulig'
p515
aS'Mulig'
p516
aS'Mulig'
p517
aS'Mulig'
p518
aS'Mulig'
p519
aS'Mulig'
p520
aS'Mulig'
p521
aS'Mulig'
p522
aS'Mulig'
p523
aS'Mulig'
p524
aS'Mulig'
p525
aS'Mulig'
p526
aS'Mulig'
p527
aS'Mulig'
p528
aS'Mulig'
p529
aS'Mulig'
p530
aS'Mulig'
p531
aS'Mulig'
p532
aS'Mulig'
p533
aS'Mulig'
p534
aS'Mulig'
p535
aS'Mulig'
p536
aS'Mulig'
p537
aS'Mulig'
p538
aS'Mulig'
p539
aS'Mulig'
p540
aS'Mulig'
p541
aS'Mulig'
p542
aS'Mulig'
p543
aS'Mulig'
p544
aS'Mulig'
p545
aS'Mulig'
p546
aS'Mulig'
p547
aS'Mulig'
p548
aS'Mulig'
p549
aS'Mulig'
p550
aS'Mulig'
p551
aS'Mulig'
p552
aS'Mulig'
p553
aS'Mulig'
p554
aS'Mulig'
p555
aS'Mulig'
p556
aS'Mulig'
p557
aS'Mulig'
p558
aS'Mulig'
p559
aS'Mulig'
p560
aS'Mulig'
p561
aS'Mulig'
p562
aS'Mulig'
p563
aS'Mulig'
p564
aS'Mulig'
p565
aS'Mulig'
p566
aS'Mulig'
p567
aS'Mulig'
p568
aS'Mulig'
p569
aS'Mulig'
p570
aS'Mulig'
p571
aS'Mulig'
p572
aS'Mulig'
p573
aS'Mulig'
p574
assS'level'
p575
(dp576
g3
(lp577
I1
aI2
aI3
aI4
aI5
asg8
(lp578
S'#ccff66'
p579
aS'#ffff00'
p580
aS'#ff9900'
p581
aS'#ff0000'
p582
aS'k'
p583
asg11
(lp584
I3
aI2
aI2
aI1
aI1
aI2
aI2
aI3
aI2
aI2
aI3
aI3
aI3
aI3
aI3
aI2
aI2
aI2
aI2
aI3
aI2
aI3
aI2
aI2
aI2
aI3
aI2
aI2
aI2
aI2
aI3
aI2
aI2
aI2
aI2
aI1
aI1
aI1
aI1
aI1
aI1
aI1
aI1
aI1
aI1
aI1
aI1
aI2
aI1
aI2
aI2
aI1
aI1
aI2
aI1
aI2
aI2
aI1
aI1
aI2
aI1
aI2
aI1
aI1
aI2
aI2
aI2
aI2
aI2
aI1
aI1
aI1
aI2
aI1
aI3
aI2
aI2
aI2
aI2
aI2
aI2
aI2
aI2
aI2
aI2
aI2
aI2
aI2
aI2
aI2
aI2
aI2
aI2
aI2
aI2
aI1
aI2
aI2
aI2
aI2
aI2
aI2
aI2
aI2
aI2
aI2
aI2
aI2
aI2
aI2
aI2
aI2
aI2
aI2
aI2
aI3
aI3
aI3
aI3
aI3
aI3
aI3
aI3
aI3
aI2
aI2
aI2
aI2
aI3
aI2
aI2
aI3
aI3
ass.