(dp0
S'trigger'
p1
(dp2
S'keys'
p3
(lp4
S'Stor tilleggsbelastning'
p5
aS'Liten tilleggsbelastning'
p6
aS'Naturlig utloest'
p7
asS'colors'
p8
(lp9
S'0.7'
p10
asS'values'
p11
(lp12
S'Liten tilleggsbelastning'
p13
aS'Liten tilleggsbelastning'
p14
aS'Liten tilleggsbelastning'
p15
aS'Liten tilleggsbelastning'
p16
aS'Liten tilleggsbelastning'
p17
aS'Liten tilleggsbelastning'
p18
aS'Liten tilleggsbelastning'
p19
aS'Liten tilleggsbelastning'
p20
aS'Stor tilleggsbelastning'
p21
aS'Stor tilleggsbelastning'
p22
aS'Stor tilleggsbelastning'
p23
aS'Stor tilleggsbelastning'
p24
aS'Stor tilleggsbelastning'
p25
aS'Stor tilleggsbelastning'
p26
aS'Stor tilleggsbelastning'
p27
aS'Stor tilleggsbelastning'
p28
aS'Stor tilleggsbelastning'
p29
aS'Stor tilleggsbelastning'
p30
aS'Stor tilleggsbelastning'
p31
aS'Stor tilleggsbelastning'
p32
aS'Liten tilleggsbelastning'
p33
aS'Liten tilleggsbelastning'
p34
aS'Naturlig utloest'
p35
aS'Liten tilleggsbelastning'
p36
aS'Stor tilleggsbelastning'
p37
aS'Liten tilleggsbelastning'
p38
aS'Liten tilleggsbelastning'
p39
aS'Liten tilleggsbelastning'
p40
aS'Stor tilleggsbelastning'
p41
assS'distribution'
p42
(dp43
g3
(lp44
S'Isolerte faresoner'
p45
aS'Noen bratte heng'
p46
aS'Mange bratte heng'
p47
aS'De fleste bratte heng'
p48
aS'Ogsaa i mindre bratt terreng'
p49
asg8
(lp50
g10
asg11
(lp51
S'Noen bratte heng'
p52
aS'Noen bratte heng'
p53
aS'Noen bratte heng'
p54
aS'Noen bratte heng'
p55
aS'Noen bratte heng'
p56
aS'Noen bratte heng'
p57
aS'Noen bratte heng'
p58
aS'Noen bratte heng'
p59
aS'Noen bratte heng'
p60
aS'Noen bratte heng'
p61
aS'Noen bratte heng'
p62
aS'Noen bratte heng'
p63
aS'Noen bratte heng'
p64
aS'Noen bratte heng'
p65
aS'Noen bratte heng'
p66
aS'Noen bratte heng'
p67
aS'Noen bratte heng'
p68
aS'Noen bratte heng'
p69
aS'Noen bratte heng'
p70
aS'Noen bratte heng'
p71
aS'Noen bratte heng'
p72
aS'Noen bratte heng'
p73
aS'Isolerte faresoner'
p74
aS'Noen bratte heng'
p75
aS'Isolerte faresoner'
p76
aS'Noen bratte heng'
p77
aS'Noen bratte heng'
p78
aS'Isolerte faresoner'
p79
aS'Noen bratte heng'
p80
assS'size'
p81
(dp82
g3
(lp83
S'1 - Harmloest'
p84
aS'2 - Smaa'
p85
aS'3 - Middels'
p86
aS'4 - Store'
p87
aS'5 - Svaert store'
p88
aS'Ukjent'
p89
asg8
(lp90
g10
asg11
(lp91
S'2 - Smaa'
p92
aS'2 - Smaa'
p93
aS'2 - Smaa'
p94
aS'3 - Middels'
p95
aS'2 - Smaa'
p96
aS'3 - Middels'
p97
aS'3 - Middels'
p98
aS'2 - Smaa'
p99
aS'3 - Middels'
p100
aS'3 - Middels'
p101
aS'3 - Middels'
p102
aS'2 - Smaa'
p103
aS'3 - Middels'
p104
aS'3 - Middels'
p105
aS'2 - Smaa'
p106
aS'2 - Smaa'
p107
aS'3 - Middels'
p108
aS'3 - Middels'
p109
aS'2 - Smaa'
p110
aS'2 - Smaa'
p111
aS'3 - Middels'
p112
aS'3 - Middels'
p113
aS'3 - Middels'
p114
aS'3 - Middels'
p115
aS'2 - Smaa'
p116
aS'3 - Middels'
p117
aS'3 - Middels'
p118
aS'2 - Smaa'
p119
aS'3 - Middels'
p120
assS'probability'
p121
(dp122
g3
(lp123
S'Lite sannsynlig'
p124
aS'Mulig'
p125
aS'Sannsynlig'
p126
aS'Meget sannsynlig'
p127
asg8
(lp128
g10
asg11
(lp129
S'Mulig'
p130
aS'Mulig'
p131
aS'Mulig'
p132
aS'Mulig'
p133
aS'Mulig'
p134
aS'Mulig'
p135
aS'Mulig'
p136
aS'Mulig'
p137
aS'Mulig'
p138
aS'Mulig'
p139
aS'Mulig'
p140
aS'Mulig'
p141
aS'Mulig'
p142
aS'Mulig'
p143
aS'Mulig'
p144
aS'Mulig'
p145
aS'Mulig'
p146
aS'Mulig'
p147
aS'Mulig'
p148
aS'Mulig'
p149
aS'Mulig'
p150
aS'Mulig'
p151
aS'Mulig'
p152
aS'Mulig'
p153
aS'Mulig'
p154
aS'Mulig'
p155
aS'Mulig'
p156
aS'Mulig'
p157
aS'Mulig'
p158
assS'level'
p159
(dp160
g3
(lp161
I1
aI2
aI3
aI4
aI5
asg8
(lp162
S'#ccff66'
p163
aS'#ffff00'
p164
aS'#ff9900'
p165
aS'#ff0000'
p166
aS'k'
p167
asg11
(lp168
I2
aI2
aI2
aI3
aI2
aI3
aI3
aI2
aI2
aI2
aI2
aI2
aI2
aI2
aI2
aI2
aI2
aI2
aI2
aI2
aI3
aI3
aI3
aI3
aI2
aI3
aI3
aI2
aI2
ass.