(lp0
(irunmatrix
M3Element
p1
(dp2
S'danger_level_average'
p3
NsS'probability'
p4
S'Lite sannsynlig, Mulig'
p5
sS'colour'
p6
S'white'
p7
sS'danger_level_list'
p8
(lp9
sS'label_probalility'
p10
S'Possible'
p11
sS'label_distribution'
p12
S'Isolated'
p13
sS'recomended_colour'
p14
S'#ccff66'
p15
sS'recomended_danger_level'
p16
I1
sS'label_trigger'
p17
S'High'
p18
sS'trigger'
p19
S'Stor tilleggsbelastning'
p20
sS'occurrences'
p21
NsS'y'
p22
S'100'
p23
sS'x'
p24
S'100'
p25
sS'distribution'
p26
S'Isolerte faresoner'
p27
sS'danger_level_standard_dev'
p28
NsS'label_size'
p29
S'1'
p30
sS'avalanche_size'
p31
S'1 - Harmloest'
p32
sba(irunmatrix
M3Element
p33
(dp34
g3
Nsg4
S'Lite sannsynlig, Mulig'
p35
sg6
S'white'
p36
sg8
(lp37
sg10
S'Possible'
p38
sg12
S'Isolated'
p39
sg14
g15
sg16
I1
sg17
S'Low'
p40
sg19
S'Liten tilleggsbelastning'
p41
sg21
Nsg22
S'100'
p42
sg24
S'200'
p43
sg26
S'Isolerte faresoner'
p44
sg28
Nsg29
g30
sg31
S'1 - Harmloest'
p45
sba(irunmatrix
M3Element
p46
(dp47
g3
Nsg4
S'Lite sannsynlig, Mulig'
p48
sg6
S'white'
p49
sg8
(lp50
sg10
S'Possible'
p51
sg12
S'Isolated'
p52
sg14
g15
sg16
I1
sg17
S'Nat'
p53
sg19
S'Naturlig utloest'
p54
sg21
Nsg22
S'100'
p55
sg24
S'300'
p56
sg26
S'Isolerte faresoner'
p57
sg28
Nsg29
g30
sg31
S'1 - Harmloest'
p58
sba(irunmatrix
M3Element
p59
(dp60
g3
Nsg4
S'Sannsynlig, Meget sannsynlig'
p61
sg6
S'gray'
p62
sg8
(lp63
sg10
S'Likely'
p64
sg12
S'Isolated'
p65
sg14
S'gray'
p66
sg16
I0
sg17
S'High'
p67
sg19
S'Stor tilleggsbelastning'
p68
sg21
Nsg22
S'100'
p69
sg24
S'400'
p70
sg26
S'Isolerte faresoner'
p71
sg28
Nsg29
g30
sg31
S'1 - Harmloest'
p72
sba(irunmatrix
M3Element
p73
(dp74
g3
Nsg4
S'Sannsynlig, Meget sannsynlig'
p75
sg6
S'gray'
p76
sg8
(lp77
sg10
S'Likely'
p78
sg12
S'Isolated'
p79
sg14
g66
sg16
I0
sg17
S'Low'
p80
sg19
S'Liten tilleggsbelastning'
p81
sg21
Nsg22
S'100'
p82
sg24
S'500'
p83
sg26
S'Isolerte faresoner'
p84
sg28
Nsg29
g30
sg31
S'1 - Harmloest'
p85
sba(irunmatrix
M3Element
p86
(dp87
g3
Nsg4
S'Sannsynlig, Meget sannsynlig'
p88
sg6
S'gray'
p89
sg8
(lp90
sg10
S'Likely'
p91
sg12
S'Isolated'
p92
sg14
g66
sg16
I0
sg17
S'Nat'
p93
sg19
S'Naturlig utloest'
p94
sg21
Nsg22
S'100'
p95
sg24
S'600'
p96
sg26
S'Isolerte faresoner'
p97
sg28
Nsg29
g30
sg31
S'1 - Harmloest'
p98
sba(irunmatrix
M3Element
p99
(dp100
g3
Nsg4
S'Lite sannsynlig, Mulig'
p101
sg6
S'white'
p102
sg8
(lp103
sg10
S'Possible'
p104
sg12
S'Some'
p105
sg14
g15
sg16
I1
sg17
S'High'
p106
sg19
S'Stor tilleggsbelastning'
p107
sg21
Nsg22
S'100'
p108
sg24
S'700'
p109
sg26
S'Noen bratte heng'
p110
sg28
Nsg29
g30
sg31
S'1 - Harmloest'
p111
sba(irunmatrix
M3Element
p112
(dp113
g3
Nsg4
S'Lite sannsynlig, Mulig'
p114
sg6
S'white'
p115
sg8
(lp116
sg10
S'Possible'
p117
sg12
S'Some'
p118
sg14
g15
sg16
I1
sg17
S'Low'
p119
sg19
S'Liten tilleggsbelastning'
p120
sg21
Nsg22
S'100'
p121
sg24
S'800'
p122
sg26
S'Noen bratte heng'
p123
sg28
Nsg29
g30
sg31
S'1 - Harmloest'
p124
sba(irunmatrix
M3Element
p125
(dp126
g3
F1.0
sg4
S'Lite sannsynlig, Mulig'
p127
sg6
S'#ccff66'
p128
sg8
(lp129
I1
aI1
asg10
S'Possible'
p130
sg12
S'Some'
p131
sg14
g15
sg16
I1
sg17
S'Nat'
p132
sg19
S'Naturlig utloest'
p133
sg21
I2
sg22
S'100'
p134
sg24
S'900'
p135
sg26
S'Noen bratte heng'
p136
sg28
cnumpy.core.multiarray
scalar
p137
(cnumpy
dtype
p138
(S'f8'
p139
I0
I1
tp140
Rp141
(I3
S'<'
p142
NNNI-1
I-1
I0
tp143
bS'\x00\x00\x00\x00\x00\x00\x00\x00'
p144
tp145
Rp146
sg29
g30
sg31
S'1 - Harmloest'
p147
sba(irunmatrix
M3Element
p148
(dp149
g3
Nsg4
S'Sannsynlig, Meget sannsynlig'
p150
sg6
S'gray'
p151
sg8
(lp152
sg10
S'Likely'
p153
sg12
S'Some'
p154
sg14
g66
sg16
I0
sg17
S'High'
p155
sg19
S'Stor tilleggsbelastning'
p156
sg21
Nsg22
S'100'
p157
sg24
S'1000'
p158
sg26
S'Noen bratte heng'
p159
sg28
Nsg29
g30
sg31
S'1 - Harmloest'
p160
sba(irunmatrix
M3Element
p161
(dp162
g3
Nsg4
S'Sannsynlig, Meget sannsynlig'
p163
sg6
S'gray'
p164
sg8
(lp165
sg10
S'Likely'
p166
sg12
S'Some'
p167
sg14
g66
sg16
I0
sg17
S'Low'
p168
sg19
S'Liten tilleggsbelastning'
p169
sg21
Nsg22
S'100'
p170
sg24
S'1100'
p171
sg26
S'Noen bratte heng'
p172
sg28
Nsg29
g30
sg31
S'1 - Harmloest'
p173
sba(irunmatrix
M3Element
p174
(dp175
g3
Nsg4
S'Sannsynlig, Meget sannsynlig'
p176
sg6
S'white'
p177
sg8
(lp178
sg10
S'Likely'
p179
sg12
S'Some'
p180
sg14
g15
sg16
I1
sg17
S'Nat'
p181
sg19
S'Naturlig utloest'
p182
sg21
Nsg22
S'100'
p183
sg24
S'1200'
p184
sg26
S'Noen bratte heng'
p185
sg28
Nsg29
g30
sg31
S'1 - Harmloest'
p186
sba(irunmatrix
M3Element
p187
(dp188
g3
Nsg4
S'Lite sannsynlig, Mulig'
p189
sg6
S'gray'
p190
sg8
(lp191
sg10
S'Possible'
p192
sg12
S'Many'
p193
sg14
g66
sg16
I0
sg17
S'High'
p194
sg19
S'Stor tilleggsbelastning'
p195
sg21
Nsg22
S'100'
p196
sg24
S'1300'
p197
sg26
S'Mange bratte heng'
p198
sg28
Nsg29
g30
sg31
S'1 - Harmloest'
p199
sba(irunmatrix
M3Element
p200
(dp201
g3
Nsg4
S'Lite sannsynlig, Mulig'
p202
sg6
S'white'
p203
sg8
(lp204
sg10
S'Possible'
p205
sg12
S'Many'
p206
sg14
g15
sg16
I1
sg17
S'Low'
p207
sg19
S'Liten tilleggsbelastning'
p208
sg21
Nsg22
S'100'
p209
sg24
S'1400'
p210
sg26
S'Mange bratte heng'
p211
sg28
Nsg29
g30
sg31
S'1 - Harmloest'
p212
sba(irunmatrix
M3Element
p213
(dp214
g3
Nsg4
S'Lite sannsynlig, Mulig'
p215
sg6
S'gray'
p216
sg8
(lp217
sg10
S'Possible'
p218
sg12
S'Many'
p219
sg14
g66
sg16
I0
sg17
S'Nat'
p220
sg19
S'Naturlig utloest'
p221
sg21
Nsg22
S'100'
p222
sg24
S'1500'
p223
sg26
S'Mange bratte heng'
p224
sg28
Nsg29
g30
sg31
S'1 - Harmloest'
p225
sba(irunmatrix
M3Element
p226
(dp227
g3
Nsg4
S'Sannsynlig, Meget sannsynlig'
p228
sg6
S'gray'
p229
sg8
(lp230
sg10
S'Likely'
p231
sg12
S'Many'
p232
sg14
g66
sg16
I0
sg17
S'High'
p233
sg19
S'Stor tilleggsbelastning'
p234
sg21
Nsg22
S'100'
p235
sg24
S'1600'
p236
sg26
S'Mange bratte heng'
p237
sg28
Nsg29
g30
sg31
S'1 - Harmloest'
p238
sba(irunmatrix
M3Element
p239
(dp240
g3
Nsg4
S'Sannsynlig, Meget sannsynlig'
p241
sg6
S'white'
p242
sg8
(lp243
sg10
S'Likely'
p244
sg12
S'Many'
p245
sg14
S'#ffff00'
p246
sg16
I2
sg17
S'Low'
p247
sg19
S'Liten tilleggsbelastning'
p248
sg21
Nsg22
S'100'
p249
sg24
S'1700'
p250
sg26
S'Mange bratte heng'
p251
sg28
Nsg29
g30
sg31
S'1 - Harmloest'
p252
sba(irunmatrix
M3Element
p253
(dp254
g3
Nsg4
S'Sannsynlig, Meget sannsynlig'
p255
sg6
S'white'
p256
sg8
(lp257
sg10
S'Likely'
p258
sg12
S'Many'
p259
sg14
g246
sg16
I2
sg17
S'Nat'
p260
sg19
S'Naturlig utloest'
p261
sg21
Nsg22
S'100'
p262
sg24
S'1800'
p263
sg26
S'Mange bratte heng'
p264
sg28
Nsg29
g30
sg31
S'1 - Harmloest'
p265
sba(irunmatrix
M3Element
p266
(dp267
g3
Nsg4
S'Lite sannsynlig, Mulig'
p268
sg6
S'gray'
p269
sg8
(lp270
sg10
S'Possible'
p271
sg12
S'Most'
p272
sg14
g66
sg16
I0
sg17
S'High'
p273
sg19
S'Stor tilleggsbelastning'
p274
sg21
Nsg22
S'100'
p275
sg24
S'1900'
p276
sg26
S'De fleste bratte heng, Ogsaa i mindre bratt terreng'
p277
sg28
Nsg29
g30
sg31
S'1 - Harmloest'
p278
sba(irunmatrix
M3Element
p279
(dp280
g3
Nsg4
S'Lite sannsynlig, Mulig'
p281
sg6
S'gray'
p282
sg8
(lp283
sg10
S'Possible'
p284
sg12
S'Most'
p285
sg14
g66
sg16
I0
sg17
S'Low'
p286
sg19
S'Liten tilleggsbelastning'
p287
sg21
Nsg22
S'100'
p288
sg24
S'2000'
p289
sg26
S'De fleste bratte heng, Ogsaa i mindre bratt terreng'
p290
sg28
Nsg29
g30
sg31
S'1 - Harmloest'
p291
sba(irunmatrix
M3Element
p292
(dp293
g3
Nsg4
S'Lite sannsynlig, Mulig'
p294
sg6
S'gray'
p295
sg8
(lp296
sg10
S'Possible'
p297
sg12
S'Most'
p298
sg14
g66
sg16
I0
sg17
S'Nat'
p299
sg19
S'Naturlig utloest'
p300
sg21
Nsg22
S'100'
p301
sg24
S'2100'
p302
sg26
S'De fleste bratte heng, Ogsaa i mindre bratt terreng'
p303
sg28
Nsg29
g30
sg31
S'1 - Harmloest'
p304
sba(irunmatrix
M3Element
p305
(dp306
g3
Nsg4
S'Sannsynlig, Meget sannsynlig'
p307
sg6
S'gray'
p308
sg8
(lp309
sg10
S'Likely'
p310
sg12
S'Most'
p311
sg14
g66
sg16
I0
sg17
S'High'
p312
sg19
S'Stor tilleggsbelastning'
p313
sg21
Nsg22
S'100'
p314
sg24
S'2200'
p315
sg26
S'De fleste bratte heng, Ogsaa i mindre bratt terreng'
p316
sg28
Nsg29
g30
sg31
S'1 - Harmloest'
p317
sba(irunmatrix
M3Element
p318
(dp319
g3
Nsg4
S'Sannsynlig, Meget sannsynlig'
p320
sg6
S'gray'
p321
sg8
(lp322
sg10
S'Likely'
p323
sg12
S'Most'
p324
sg14
g66
sg16
I0
sg17
S'Low'
p325
sg19
S'Liten tilleggsbelastning'
p326
sg21
Nsg22
S'100'
p327
sg24
S'2300'
p328
sg26
S'De fleste bratte heng, Ogsaa i mindre bratt terreng'
p329
sg28
Nsg29
g30
sg31
S'1 - Harmloest'
p330
sba(irunmatrix
M3Element
p331
(dp332
g3
Nsg4
S'Sannsynlig, Meget sannsynlig'
p333
sg6
S'white'
p334
sg8
(lp335
sg10
S'Likely'
p336
sg12
S'Most'
p337
sg14
g66
sg16
I0
sg17
S'Nat'
p338
sg19
S'Naturlig utloest'
p339
sg21
Nsg22
S'100'
p340
sg24
S'2400'
p341
sg26
S'De fleste bratte heng, Ogsaa i mindre bratt terreng'
p342
sg28
Nsg29
S'2'
p343
sg31
S'1 - Harmloest'
p344
sba(irunmatrix
M3Element
p345
(dp346
g3
F1.3333333333333333
sg4
S'Lite sannsynlig, Mulig'
p347
sg6
g128
sg8
(lp348
I2
aI2
aI1
aI1
aI1
aI1
asg10
S'Possible'
p349
sg12
S'Isolated'
p350
sg14
g15
sg16
I1
sg17
S'High'
p351
sg19
S'Stor tilleggsbelastning'
p352
sg21
I6
sg22
S'200'
p353
sg24
S'100'
p354
sg26
S'Isolerte faresoner'
p355
sg28
g137
(g141
S'g\xfa\xfe\xdd}+\xde?'
p356
tp357
Rp358
sg29
g343
sg31
S'2 - Smaa'
p359
sba(irunmatrix
M3Element
p360
(dp361
g3
F1.4375
sg4
S'Lite sannsynlig, Mulig'
p362
sg6
g128
sg8
(lp363
I2
aI2
aI2
aI2
aI2
aI2
aI2
aI1
aI1
aI1
aI1
aI1
aI1
aI1
aI1
aI1
asg10
S'Possible'
p364
sg12
S'Isolated'
p365
sg14
g15
sg16
I1
sg17
S'Low'
p366
sg19
S'Liten tilleggsbelastning'
p367
sg21
I16
sg22
S'200'
p368
sg24
S'200'
p369
sg26
S'Isolerte faresoner'
p370
sg28
g137
(g141
S'_u\xbc~\xbf\xbf\xdf?'
p371
tp372
Rp373
sg29
g343
sg31
S'2 - Smaa'
p374
sba(irunmatrix
M3Element
p375
(dp376
g3
F1.0
sg4
S'Lite sannsynlig, Mulig'
p377
sg6
g128
sg8
(lp378
I1
aI1
aI1
aI1
aI1
aI1
aI1
asg10
S'Possible'
p379
sg12
S'Isolated'
p380
sg14
g15
sg16
I1
sg17
S'Nat'
p381
sg19
S'Naturlig utloest'
p382
sg21
I7
sg22
S'200'
p383
sg24
S'300'
p384
sg26
S'Isolerte faresoner'
p385
sg28
g137
(g141
S'\x00\x00\x00\x00\x00\x00\x00\x00'
p386
tp387
Rp388
sg29
g343
sg31
S'2 - Smaa'
p389
sba(irunmatrix
M3Element
p390
(dp391
g3
Nsg4
S'Sannsynlig, Meget sannsynlig'
p392
sg6
S'gray'
p393
sg8
(lp394
sg10
S'Likely'
p395
sg12
S'Isolated'
p396
sg14
g66
sg16
I0
sg17
S'High'
p397
sg19
S'Stor tilleggsbelastning'
p398
sg21
Nsg22
S'200'
p399
sg24
S'400'
p400
sg26
S'Isolerte faresoner'
p401
sg28
Nsg29
g343
sg31
S'2 - Smaa'
p402
sba(irunmatrix
M3Element
p403
(dp404
g3
Nsg4
S'Sannsynlig, Meget sannsynlig'
p405
sg6
S'gray'
p406
sg8
(lp407
sg10
S'Likely'
p408
sg12
S'Isolated'
p409
sg14
g66
sg16
I0
sg17
S'Low'
p410
sg19
S'Liten tilleggsbelastning'
p411
sg21
Nsg22
S'200'
p412
sg24
S'500'
p413
sg26
S'Isolerte faresoner'
p414
sg28
Nsg29
g343
sg31
S'2 - Smaa'
p415
sba(irunmatrix
M3Element
p416
(dp417
g3
Nsg4
S'Sannsynlig, Meget sannsynlig'
p418
sg6
S'gray'
p419
sg8
(lp420
sg10
S'Likely'
p421
sg12
S'Isolated'
p422
sg14
g66
sg16
I0
sg17
S'Nat'
p423
sg19
S'Naturlig utloest'
p424
sg21
Nsg22
S'200'
p425
sg24
S'600'
p426
sg26
S'Isolerte faresoner'
p427
sg28
Nsg29
g343
sg31
S'2 - Smaa'
p428
sba(irunmatrix
M3Element
p429
(dp430
g3
F2.0
sg4
S'Lite sannsynlig, Mulig'
p431
sg6
S'#ffff00'
p432
sg8
(lp433
I2
aI2
aI2
aI2
asg10
S'Possible'
p434
sg12
S'Some'
p435
sg14
g246
sg16
I2
sg17
S'High'
p436
sg19
S'Stor tilleggsbelastning'
p437
sg21
I4
sg22
S'200'
p438
sg24
S'700'
p439
sg26
S'Noen bratte heng'
p440
sg28
g137
(g141
S'\x00\x00\x00\x00\x00\x00\x00\x00'
p441
tp442
Rp443
sg29
g343
sg31
S'2 - Smaa'
p444
sba(irunmatrix
M3Element
p445
(dp446
g3
F2.08
sg4
S'Lite sannsynlig, Mulig'
p447
sg6
g432
sg8
(lp448
I3
aI3
aI3
aI2
aI2
aI2
aI2
aI2
aI2
aI2
aI2
aI2
aI3
aI2
aI2
aI2
aI2
aI2
aI2
aI2
aI2
aI2
aI2
aI2
aI2
aI2
aI2
aI2
aI2
aI2
aI2
aI2
aI2
aI2
aI2
aI2
aI2
aI2
aI2
aI2
aI2
aI2
aI2
aI2
aI2
aI2
aI2
aI2
aI2
aI2
asg10
S'Possible'
p449
sg12
S'Some'
p450
sg14
g246
sg16
I2
sg17
S'Low'
p451
sg19
S'Liten tilleggsbelastning'
p452
sg21
I50
sg22
S'200'
p453
sg24
S'800'
p454
sg26
S'Noen bratte heng'
p455
sg28
g137
(g141
S'\xb0\x99\xae&\xde\\\xd1?'
p456
tp457
Rp458
sg29
g343
sg31
S'2 - Smaa'
p459
sba(irunmatrix
M3Element
p460
(dp461
g3
F2.0
sg4
S'Lite sannsynlig, Mulig'
p462
sg6
g432
sg8
(lp463
I2
aI2
aI2
aI2
aI2
aI2
aI2
aI2
aI2
aI2
aI2
aI2
aI2
aI2
aI2
aI2
aI2
aI2
aI2
aI2
aI2
asg10
S'Possible'
p464
sg12
S'Some'
p465
sg14
g246
sg16
I2
sg17
S'Nat'
p466
sg19
S'Naturlig utloest'
p467
sg21
I21
sg22
S'200'
p468
sg24
S'900'
p469
sg26
S'Noen bratte heng'
p470
sg28
g137
(g141
S'\x00\x00\x00\x00\x00\x00\x00\x00'
p471
tp472
Rp473
sg29
g343
sg31
S'2 - Smaa'
p474
sba(irunmatrix
M3Element
p475
(dp476
g3
Nsg4
S'Sannsynlig, Meget sannsynlig'
p477
sg6
S'gray'
p478
sg8
(lp479
sg10
S'Likely'
p480
sg12
S'Some'
p481
sg14
g66
sg16
I0
sg17
S'High'
p482
sg19
S'Stor tilleggsbelastning'
p483
sg21
Nsg22
S'200'
p484
sg24
S'1000'
p485
sg26
S'Noen bratte heng'
p486
sg28
Nsg29
g343
sg31
S'2 - Smaa'
p487
sba(irunmatrix
M3Element
p488
(dp489
g3
F3.0
sg4
S'Sannsynlig, Meget sannsynlig'
p490
sg6
S'#ff9900'
p491
sg8
(lp492
I3
aI3
aI3
aI3
aI3
aI3
asg10
S'Likely'
p493
sg12
S'Some'
p494
sg14
g66
sg16
I0
sg17
S'Low'
p495
sg19
S'Liten tilleggsbelastning'
p496
sg21
I6
sg22
S'200'
p497
sg24
S'1100'
p498
sg26
S'Noen bratte heng'
p499
sg28
g137
(g141
S'\x00\x00\x00\x00\x00\x00\x00\x00'
p500
tp501
Rp502
sg29
g343
sg31
S'2 - Smaa'
p503
sba(irunmatrix
M3Element
p504
(dp505
g3
Nsg4
S'Sannsynlig, Meget sannsynlig'
p506
sg6
S'white'
p507
sg8
(lp508
sg10
S'Likely'
p509
sg12
S'Some'
p510
sg14
S'#ff9900'
p511
sg16
I3
sg17
S'Nat'
p512
sg19
S'Naturlig utloest'
p513
sg21
Nsg22
S'200'
p514
sg24
S'1200'
p515
sg26
S'Noen bratte heng'
p516
sg28
Nsg29
g343
sg31
S'2 - Smaa'
p517
sba(irunmatrix
M3Element
p518
(dp519
g3
Nsg4
S'Lite sannsynlig, Mulig'
p520
sg6
S'gray'
p521
sg8
(lp522
sg10
S'Possible'
p523
sg12
S'Many'
p524
sg14
g66
sg16
I0
sg17
S'High'
p525
sg19
S'Stor tilleggsbelastning'
p526
sg21
Nsg22
S'200'
p527
sg24
S'1300'
p528
sg26
S'Mange bratte heng'
p529
sg28
Nsg29
g343
sg31
S'2 - Smaa'
p530
sba(irunmatrix
M3Element
p531
(dp532
g3
F3.0
sg4
S'Lite sannsynlig, Mulig'
p533
sg6
g491
sg8
(lp534
I3
aI3
aI3
aI3
aI3
aI3
aI3
aI3
aI3
aI3
aI3
aI3
aI3
aI3
aI3
aI3
asg10
S'Possible'
p535
sg12
S'Many'
p536
sg14
g511
sg16
I3
sg17
S'Low'
p537
sg19
S'Liten tilleggsbelastning'
p538
sg21
I16
sg22
S'200'
p539
sg24
S'1400'
p540
sg26
S'Mange bratte heng'
p541
sg28
g137
(g141
S'\x00\x00\x00\x00\x00\x00\x00\x00'
p542
tp543
Rp544
sg29
g343
sg31
S'2 - Smaa'
p545
sba(irunmatrix
M3Element
p546
(dp547
g3
Nsg4
S'Lite sannsynlig, Mulig'
p548
sg6
S'gray'
p549
sg8
(lp550
sg10
S'Possible'
p551
sg12
S'Many'
p552
sg14
g66
sg16
I0
sg17
S'Nat'
p553
sg19
S'Naturlig utloest'
p554
sg21
Nsg22
S'200'
p555
sg24
S'1500'
p556
sg26
S'Mange bratte heng'
p557
sg28
Nsg29
g343
sg31
S'2 - Smaa'
p558
sba(irunmatrix
M3Element
p559
(dp560
g3
Nsg4
S'Sannsynlig, Meget sannsynlig'
p561
sg6
S'gray'
p562
sg8
(lp563
sg10
S'Likely'
p564
sg12
S'Many'
p565
sg14
g66
sg16
I0
sg17
S'High'
p566
sg19
S'Stor tilleggsbelastning'
p567
sg21
Nsg22
S'200'
p568
sg24
S'1600'
p569
sg26
S'Mange bratte heng'
p570
sg28
Nsg29
g343
sg31
S'2 - Smaa'
p571
sba(irunmatrix
M3Element
p572
(dp573
g3
Nsg4
S'Sannsynlig, Meget sannsynlig'
p574
sg6
S'white'
p575
sg8
(lp576
sg10
S'Likely'
p577
sg12
S'Many'
p578
sg14
S'#ff0000'
p579
sg16
I4
sg17
S'Low'
p580
sg19
S'Liten tilleggsbelastning'
p581
sg21
Nsg22
S'200'
p582
sg24
S'1700'
p583
sg26
S'Mange bratte heng'
p584
sg28
Nsg29
g343
sg31
S'2 - Smaa'
p585
sba(irunmatrix
M3Element
p586
(dp587
g3
Nsg4
S'Sannsynlig, Meget sannsynlig'
p588
sg6
S'white'
p589
sg8
(lp590
sg10
S'Likely'
p591
sg12
S'Many'
p592
sg14
g579
sg16
I4
sg17
S'Nat'
p593
sg19
S'Naturlig utloest'
p594
sg21
Nsg22
S'200'
p595
sg24
S'1800'
p596
sg26
S'Mange bratte heng'
p597
sg28
Nsg29
g343
sg31
S'2 - Smaa'
p598
sba(irunmatrix
M3Element
p599
(dp600
g3
Nsg4
S'Lite sannsynlig, Mulig'
p601
sg6
S'gray'
p602
sg8
(lp603
sg10
S'Possible'
p604
sg12
S'Most'
p605
sg14
g66
sg16
I0
sg17
S'High'
p606
sg19
S'Stor tilleggsbelastning'
p607
sg21
Nsg22
S'200'
p608
sg24
S'1900'
p609
sg26
S'De fleste bratte heng, Ogsaa i mindre bratt terreng'
p610
sg28
Nsg29
g343
sg31
S'2 - Smaa'
p611
sba(irunmatrix
M3Element
p612
(dp613
g3
Nsg4
S'Lite sannsynlig, Mulig'
p614
sg6
S'gray'
p615
sg8
(lp616
sg10
S'Possible'
p617
sg12
S'Most'
p618
sg14
g66
sg16
I0
sg17
S'Low'
p619
sg19
S'Liten tilleggsbelastning'
p620
sg21
Nsg22
S'200'
p621
sg24
S'2000'
p622
sg26
S'De fleste bratte heng, Ogsaa i mindre bratt terreng'
p623
sg28
Nsg29
g343
sg31
S'2 - Smaa'
p624
sba(irunmatrix
M3Element
p625
(dp626
g3
Nsg4
S'Lite sannsynlig, Mulig'
p627
sg6
S'gray'
p628
sg8
(lp629
sg10
S'Possible'
p630
sg12
S'Most'
p631
sg14
g66
sg16
I0
sg17
S'Nat'
p632
sg19
S'Naturlig utloest'
p633
sg21
Nsg22
S'200'
p634
sg24
S'2100'
p635
sg26
S'De fleste bratte heng, Ogsaa i mindre bratt terreng'
p636
sg28
Nsg29
g343
sg31
S'2 - Smaa'
p637
sba(irunmatrix
M3Element
p638
(dp639
g3
Nsg4
S'Sannsynlig, Meget sannsynlig'
p640
sg6
S'gray'
p641
sg8
(lp642
sg10
S'Likely'
p643
sg12
S'Most'
p644
sg14
g66
sg16
I0
sg17
S'High'
p645
sg19
S'Stor tilleggsbelastning'
p646
sg21
Nsg22
S'200'
p647
sg24
S'2200'
p648
sg26
S'De fleste bratte heng, Ogsaa i mindre bratt terreng'
p649
sg28
Nsg29
g343
sg31
S'2 - Smaa'
p650
sba(irunmatrix
M3Element
p651
(dp652
g3
Nsg4
S'Sannsynlig, Meget sannsynlig'
p653
sg6
S'gray'
p654
sg8
(lp655
sg10
S'Likely'
p656
sg12
S'Most'
p657
sg14
g66
sg16
I0
sg17
S'Low'
p658
sg19
S'Liten tilleggsbelastning'
p659
sg21
Nsg22
S'200'
p660
sg24
S'2300'
p661
sg26
S'De fleste bratte heng, Ogsaa i mindre bratt terreng'
p662
sg28
Nsg29
g343
sg31
S'2 - Smaa'
p663
sba(irunmatrix
M3Element
p664
(dp665
g3
Nsg4
S'Sannsynlig, Meget sannsynlig'
p666
sg6
S'white'
p667
sg8
(lp668
sg10
S'Likely'
p669
sg12
S'Most'
p670
sg14
g66
sg16
I0
sg17
S'Nat'
p671
sg19
S'Naturlig utloest'
p672
sg21
Nsg22
S'200'
p673
sg24
S'2400'
p674
sg26
S'De fleste bratte heng, Ogsaa i mindre bratt terreng'
p675
sg28
Nsg29
g343
sg31
S'2 - Smaa'
p676
sba(irunmatrix
M3Element
p677
(dp678
g3
Nsg4
S'Lite sannsynlig, Mulig'
p679
sg6
S'white'
p680
sg8
(lp681
sg10
S'Possible'
p682
sg12
S'Isolated'
p683
sg14
g15
sg16
I1
sg17
S'High'
p684
sg19
S'Stor tilleggsbelastning'
p685
sg21
Nsg22
S'300'
p686
sg24
S'100'
p687
sg26
S'Isolerte faresoner'
p688
sg28
Nsg29
S'3'
p689
sg31
S'3 - Middels'
p690
sba(irunmatrix
M3Element
p691
(dp692
g3
Nsg4
S'Lite sannsynlig, Mulig'
p693
sg6
S'white'
p694
sg8
(lp695
sg10
S'Possible'
p696
sg12
S'Isolated'
p697
sg14
g246
sg16
I2
sg17
S'Low'
p698
sg19
S'Liten tilleggsbelastning'
p699
sg21
Nsg22
S'300'
p700
sg24
S'200'
p701
sg26
S'Isolerte faresoner'
p702
sg28
Nsg29
g689
sg31
S'3 - Middels'
p703
sba(irunmatrix
M3Element
p704
(dp705
g3
Nsg4
S'Lite sannsynlig, Mulig'
p706
sg6
S'white'
p707
sg8
(lp708
sg10
S'Possible'
p709
sg12
S'Isolated'
p710
sg14
g246
sg16
I2
sg17
S'Nat'
p711
sg19
S'Naturlig utloest'
p712
sg21
Nsg22
S'300'
p713
sg24
S'300'
p714
sg26
S'Isolerte faresoner'
p715
sg28
Nsg29
g689
sg31
S'3 - Middels'
p716
sba(irunmatrix
M3Element
p717
(dp718
g3
Nsg4
S'Sannsynlig, Meget sannsynlig'
p719
sg6
S'gray'
p720
sg8
(lp721
sg10
S'Likely'
p722
sg12
S'Isolated'
p723
sg14
g66
sg16
I0
sg17
S'High'
p724
sg19
S'Stor tilleggsbelastning'
p725
sg21
Nsg22
S'300'
p726
sg24
S'400'
p727
sg26
S'Isolerte faresoner'
p728
sg28
Nsg29
g689
sg31
S'3 - Middels'
p729
sba(irunmatrix
M3Element
p730
(dp731
g3
Nsg4
S'Sannsynlig, Meget sannsynlig'
p732
sg6
S'gray'
p733
sg8
(lp734
sg10
S'Likely'
p735
sg12
S'Isolated'
p736
sg14
g66
sg16
I0
sg17
S'Low'
p737
sg19
S'Liten tilleggsbelastning'
p738
sg21
Nsg22
S'300'
p739
sg24
S'500'
p740
sg26
S'Isolerte faresoner'
p741
sg28
Nsg29
g689
sg31
S'3 - Middels'
p742
sba(irunmatrix
M3Element
p743
(dp744
g3
Nsg4
S'Sannsynlig, Meget sannsynlig'
p745
sg6
S'gray'
p746
sg8
(lp747
sg10
S'Likely'
p748
sg12
S'Isolated'
p749
sg14
g66
sg16
I0
sg17
S'Nat'
p750
sg19
S'Naturlig utloest'
p751
sg21
Nsg22
S'300'
p752
sg24
S'600'
p753
sg26
S'Isolerte faresoner'
p754
sg28
Nsg29
g689
sg31
S'3 - Middels'
p755
sba(irunmatrix
M3Element
p756
(dp757
g3
Nsg4
S'Lite sannsynlig, Mulig'
p758
sg6
S'white'
p759
sg8
(lp760
sg10
S'Possible'
p761
sg12
S'Some'
p762
sg14
g246
sg16
I2
sg17
S'High'
p763
sg19
S'Stor tilleggsbelastning'
p764
sg21
Nsg22
S'300'
p765
sg24
S'700'
p766
sg26
S'Noen bratte heng'
p767
sg28
Nsg29
g689
sg31
S'3 - Middels'
p768
sba(irunmatrix
M3Element
p769
(dp770
g3
Nsg4
S'Lite sannsynlig, Mulig'
p771
sg6
S'white'
p772
sg8
(lp773
sg10
S'Possible'
p774
sg12
S'Some'
p775
sg14
g511
sg16
I3
sg17
S'Low'
p776
sg19
S'Liten tilleggsbelastning'
p777
sg21
Nsg22
S'300'
p778
sg24
S'800'
p779
sg26
S'Noen bratte heng'
p780
sg28
Nsg29
g689
sg31
S'3 - Middels'
p781
sba(irunmatrix
M3Element
p782
(dp783
g3
Nsg4
S'Lite sannsynlig, Mulig'
p784
sg6
S'white'
p785
sg8
(lp786
sg10
S'Possible'
p787
sg12
S'Some'
p788
sg14
g511
sg16
I3
sg17
S'Nat'
p789
sg19
S'Naturlig utloest'
p790
sg21
Nsg22
S'300'
p791
sg24
S'900'
p792
sg26
S'Noen bratte heng'
p793
sg28
Nsg29
g689
sg31
S'3 - Middels'
p794
sba(irunmatrix
M3Element
p795
(dp796
g3
Nsg4
S'Sannsynlig, Meget sannsynlig'
p797
sg6
S'gray'
p798
sg8
(lp799
sg10
S'Likely'
p800
sg12
S'Some'
p801
sg14
g66
sg16
I0
sg17
S'High'
p802
sg19
S'Stor tilleggsbelastning'
p803
sg21
Nsg22
S'300'
p804
sg24
S'1000'
p805
sg26
S'Noen bratte heng'
p806
sg28
Nsg29
g689
sg31
S'3 - Middels'
p807
sba(irunmatrix
M3Element
p808
(dp809
g3
Nsg4
S'Sannsynlig, Meget sannsynlig'
p810
sg6
S'gray'
p811
sg8
(lp812
sg10
S'Likely'
p813
sg12
S'Some'
p814
sg14
g66
sg16
I0
sg17
S'Low'
p815
sg19
S'Liten tilleggsbelastning'
p816
sg21
Nsg22
S'300'
p817
sg24
S'1100'
p818
sg26
S'Noen bratte heng'
p819
sg28
Nsg29
g689
sg31
S'3 - Middels'
p820
sba(irunmatrix
M3Element
p821
(dp822
g3
Nsg4
S'Sannsynlig, Meget sannsynlig'
p823
sg6
S'white'
p824
sg8
(lp825
sg10
S'Likely'
p826
sg12
S'Some'
p827
sg14
g579
sg16
I4
sg17
S'Nat'
p828
sg19
S'Naturlig utloest'
p829
sg21
Nsg22
S'300'
p830
sg24
S'1200'
p831
sg26
S'Noen bratte heng'
p832
sg28
Nsg29
g689
sg31
S'3 - Middels'
p833
sba(irunmatrix
M3Element
p834
(dp835
g3
Nsg4
S'Lite sannsynlig, Mulig'
p836
sg6
S'gray'
p837
sg8
(lp838
sg10
S'Possible'
p839
sg12
S'Many'
p840
sg14
g66
sg16
I0
sg17
S'High'
p841
sg19
S'Stor tilleggsbelastning'
p842
sg21
Nsg22
S'300'
p843
sg24
S'1300'
p844
sg26
S'Mange bratte heng'
p845
sg28
Nsg29
g689
sg31
S'3 - Middels'
p846
sba(irunmatrix
M3Element
p847
(dp848
g3
Nsg4
S'Lite sannsynlig, Mulig'
p849
sg6
S'white'
p850
sg8
(lp851
sg10
S'Possible'
p852
sg12
S'Many'
p853
sg14
g579
sg16
I4
sg17
S'Low'
p854
sg19
S'Liten tilleggsbelastning'
p855
sg21
Nsg22
S'300'
p856
sg24
S'1400'
p857
sg26
S'Mange bratte heng'
p858
sg28
Nsg29
g689
sg31
S'3 - Middels'
p859
sba(irunmatrix
M3Element
p860
(dp861
g3
Nsg4
S'Lite sannsynlig, Mulig'
p862
sg6
S'gray'
p863
sg8
(lp864
sg10
S'Possible'
p865
sg12
S'Many'
p866
sg14
g66
sg16
I0
sg17
S'Nat'
p867
sg19
S'Naturlig utloest'
p868
sg21
Nsg22
S'300'
p869
sg24
S'1500'
p870
sg26
S'Mange bratte heng'
p871
sg28
Nsg29
g689
sg31
S'3 - Middels'
p872
sba(irunmatrix
M3Element
p873
(dp874
g3
Nsg4
S'Sannsynlig, Meget sannsynlig'
p875
sg6
S'gray'
p876
sg8
(lp877
sg10
S'Likely'
p878
sg12
S'Many'
p879
sg14
g66
sg16
I0
sg17
S'High'
p880
sg19
S'Stor tilleggsbelastning'
p881
sg21
Nsg22
S'300'
p882
sg24
S'1600'
p883
sg26
S'Mange bratte heng'
p884
sg28
Nsg29
g689
sg31
S'3 - Middels'
p885
sba(irunmatrix
M3Element
p886
(dp887
g3
Nsg4
S'Sannsynlig, Meget sannsynlig'
p888
sg6
S'white'
p889
sg8
(lp890
sg10
S'Likely'
p891
sg12
S'Many'
p892
sg14
g579
sg16
I4
sg17
S'Low'
p893
sg19
S'Liten tilleggsbelastning'
p894
sg21
Nsg22
S'300'
p895
sg24
S'1700'
p896
sg26
S'Mange bratte heng'
p897
sg28
Nsg29
g689
sg31
S'3 - Middels'
p898
sba(irunmatrix
M3Element
p899
(dp900
g3
Nsg4
S'Sannsynlig, Meget sannsynlig'
p901
sg6
S'white'
p902
sg8
(lp903
sg10
S'Likely'
p904
sg12
S'Many'
p905
sg14
g579
sg16
I4
sg17
S'Nat'
p906
sg19
S'Naturlig utloest'
p907
sg21
Nsg22
S'300'
p908
sg24
S'1800'
p909
sg26
S'Mange bratte heng'
p910
sg28
Nsg29
g689
sg31
S'3 - Middels'
p911
sba(irunmatrix
M3Element
p912
(dp913
g3
Nsg4
S'Lite sannsynlig, Mulig'
p914
sg6
S'gray'
p915
sg8
(lp916
sg10
S'Possible'
p917
sg12
S'Most'
p918
sg14
g66
sg16
I0
sg17
S'High'
p919
sg19
S'Stor tilleggsbelastning'
p920
sg21
Nsg22
S'300'
p921
sg24
S'1900'
p922
sg26
S'De fleste bratte heng, Ogsaa i mindre bratt terreng'
p923
sg28
Nsg29
g689
sg31
S'3 - Middels'
p924
sba(irunmatrix
M3Element
p925
(dp926
g3
Nsg4
S'Lite sannsynlig, Mulig'
p927
sg6
S'gray'
p928
sg8
(lp929
sg10
S'Possible'
p930
sg12
S'Most'
p931
sg14
g66
sg16
I0
sg17
S'Low'
p932
sg19
S'Liten tilleggsbelastning'
p933
sg21
Nsg22
S'300'
p934
sg24
S'2000'
p935
sg26
S'De fleste bratte heng, Ogsaa i mindre bratt terreng'
p936
sg28
Nsg29
g689
sg31
S'3 - Middels'
p937
sba(irunmatrix
M3Element
p938
(dp939
g3
Nsg4
S'Lite sannsynlig, Mulig'
p940
sg6
S'gray'
p941
sg8
(lp942
sg10
S'Possible'
p943
sg12
S'Most'
p944
sg14
g66
sg16
I0
sg17
S'Nat'
p945
sg19
S'Naturlig utloest'
p946
sg21
Nsg22
S'300'
p947
sg24
S'2100'
p948
sg26
S'De fleste bratte heng, Ogsaa i mindre bratt terreng'
p949
sg28
Nsg29
g689
sg31
S'3 - Middels'
p950
sba(irunmatrix
M3Element
p951
(dp952
g3
Nsg4
S'Sannsynlig, Meget sannsynlig'
p953
sg6
S'gray'
p954
sg8
(lp955
sg10
S'Likely'
p956
sg12
S'Most'
p957
sg14
g66
sg16
I0
sg17
S'High'
p958
sg19
S'Stor tilleggsbelastning'
p959
sg21
Nsg22
S'300'
p960
sg24
S'2200'
p961
sg26
S'De fleste bratte heng, Ogsaa i mindre bratt terreng'
p962
sg28
Nsg29
g689
sg31
S'3 - Middels'
p963
sba(irunmatrix
M3Element
p964
(dp965
g3
Nsg4
S'Sannsynlig, Meget sannsynlig'
p966
sg6
S'gray'
p967
sg8
(lp968
sg10
S'Likely'
p969
sg12
S'Most'
p970
sg14
g66
sg16
I0
sg17
S'Low'
p971
sg19
S'Liten tilleggsbelastning'
p972
sg21
Nsg22
S'300'
p973
sg24
S'2300'
p974
sg26
S'De fleste bratte heng, Ogsaa i mindre bratt terreng'
p975
sg28
Nsg29
g689
sg31
S'3 - Middels'
p976
sba(irunmatrix
M3Element
p977
(dp978
g3
Nsg4
S'Sannsynlig, Meget sannsynlig'
p979
sg6
S'white'
p980
sg8
(lp981
sg10
S'Likely'
p982
sg12
S'Most'
p983
sg14
g66
sg16
I0
sg17
S'Nat'
p984
sg19
S'Naturlig utloest'
p985
sg21
Nsg22
S'300'
p986
sg24
S'2400'
p987
sg26
S'De fleste bratte heng, Ogsaa i mindre bratt terreng'
p988
sg28
Nsg29
g689
sg31
S'3 - Middels'
p989
sba(irunmatrix
M3Element
p990
(dp991
g3
Nsg4
S'Lite sannsynlig, Mulig'
p992
sg6
S'white'
p993
sg8
(lp994
sg10
S'Possible'
p995
sg12
S'Isolated'
p996
sg14
g246
sg16
I2
sg17
S'High'
p997
sg19
S'Stor tilleggsbelastning'
p998
sg21
Nsg22
S'400'
p999
sg24
S'100'
p1000
sg26
S'Isolerte faresoner'
p1001
sg28
Nsg29
S'4'
p1002
sg31
S'4 - Store'
p1003
sba(irunmatrix
M3Element
p1004
(dp1005
g3
Nsg4
S'Lite sannsynlig, Mulig'
p1006
sg6
S'white'
p1007
sg8
(lp1008
sg10
S'Possible'
p1009
sg12
S'Isolated'
p1010
sg14
g511
sg16
I3
sg17
S'Low'
p1011
sg19
S'Liten tilleggsbelastning'
p1012
sg21
Nsg22
S'400'
p1013
sg24
S'200'
p1014
sg26
S'Isolerte faresoner'
p1015
sg28
Nsg29
g1002
sg31
S'4 - Store'
p1016
sba(irunmatrix
M3Element
p1017
(dp1018
g3
Nsg4
S'Lite sannsynlig, Mulig'
p1019
sg6
S'white'
p1020
sg8
(lp1021
sg10
S'Possible'
p1022
sg12
S'Isolated'
p1023
sg14
g511
sg16
I3
sg17
S'Nat'
p1024
sg19
S'Naturlig utloest'
p1025
sg21
Nsg22
S'400'
p1026
sg24
S'300'
p1027
sg26
S'Isolerte faresoner'
p1028
sg28
Nsg29
g1002
sg31
S'4 - Store'
p1029
sba(irunmatrix
M3Element
p1030
(dp1031
g3
Nsg4
S'Sannsynlig, Meget sannsynlig'
p1032
sg6
S'gray'
p1033
sg8
(lp1034
sg10
S'Likely'
p1035
sg12
S'Isolated'
p1036
sg14
g66
sg16
I0
sg17
S'High'
p1037
sg19
S'Stor tilleggsbelastning'
p1038
sg21
Nsg22
S'400'
p1039
sg24
S'400'
p1040
sg26
S'Isolerte faresoner'
p1041
sg28
Nsg29
g1002
sg31
S'4 - Store'
p1042
sba(irunmatrix
M3Element
p1043
(dp1044
g3
Nsg4
S'Sannsynlig, Meget sannsynlig'
p1045
sg6
S'gray'
p1046
sg8
(lp1047
sg10
S'Likely'
p1048
sg12
S'Isolated'
p1049
sg14
g66
sg16
I0
sg17
S'Low'
p1050
sg19
S'Liten tilleggsbelastning'
p1051
sg21
Nsg22
S'400'
p1052
sg24
S'500'
p1053
sg26
S'Isolerte faresoner'
p1054
sg28
Nsg29
g1002
sg31
S'4 - Store'
p1055
sba(irunmatrix
M3Element
p1056
(dp1057
g3
Nsg4
S'Sannsynlig, Meget sannsynlig'
p1058
sg6
S'gray'
p1059
sg8
(lp1060
sg10
S'Likely'
p1061
sg12
S'Isolated'
p1062
sg14
g66
sg16
I0
sg17
S'Nat'
p1063
sg19
S'Naturlig utloest'
p1064
sg21
Nsg22
S'400'
p1065
sg24
S'600'
p1066
sg26
S'Isolerte faresoner'
p1067
sg28
Nsg29
g1002
sg31
S'4 - Store'
p1068
sba(irunmatrix
M3Element
p1069
(dp1070
g3
Nsg4
S'Lite sannsynlig, Mulig'
p1071
sg6
S'white'
p1072
sg8
(lp1073
sg10
S'Possible'
p1074
sg12
S'Some'
p1075
sg14
g511
sg16
I3
sg17
S'High'
p1076
sg19
S'Stor tilleggsbelastning'
p1077
sg21
Nsg22
S'400'
p1078
sg24
S'700'
p1079
sg26
S'Noen bratte heng'
p1080
sg28
Nsg29
g1002
sg31
S'4 - Store'
p1081
sba(irunmatrix
M3Element
p1082
(dp1083
g3
Nsg4
S'Lite sannsynlig, Mulig'
p1084
sg6
S'white'
p1085
sg8
(lp1086
sg10
S'Possible'
p1087
sg12
S'Some'
p1088
sg14
g579
sg16
I4
sg17
S'Low'
p1089
sg19
S'Liten tilleggsbelastning'
p1090
sg21
Nsg22
S'400'
p1091
sg24
S'800'
p1092
sg26
S'Noen bratte heng'
p1093
sg28
Nsg29
g1002
sg31
S'4 - Store'
p1094
sba(irunmatrix
M3Element
p1095
(dp1096
g3
Nsg4
S'Lite sannsynlig, Mulig'
p1097
sg6
S'white'
p1098
sg8
(lp1099
sg10
S'Possible'
p1100
sg12
S'Some'
p1101
sg14
g579
sg16
I4
sg17
S'Nat'
p1102
sg19
S'Naturlig utloest'
p1103
sg21
Nsg22
S'400'
p1104
sg24
S'900'
p1105
sg26
S'Noen bratte heng'
p1106
sg28
Nsg29
g1002
sg31
S'4 - Store'
p1107
sba(irunmatrix
M3Element
p1108
(dp1109
g3
Nsg4
S'Sannsynlig, Meget sannsynlig'
p1110
sg6
S'gray'
p1111
sg8
(lp1112
sg10
S'Likely'
p1113
sg12
S'Some'
p1114
sg14
g66
sg16
I0
sg17
S'High'
p1115
sg19
S'Stor tilleggsbelastning'
p1116
sg21
Nsg22
S'400'
p1117
sg24
S'1000'
p1118
sg26
S'Noen bratte heng'
p1119
sg28
Nsg29
g1002
sg31
S'4 - Store'
p1120
sba(irunmatrix
M3Element
p1121
(dp1122
g3
Nsg4
S'Sannsynlig, Meget sannsynlig'
p1123
sg6
S'gray'
p1124
sg8
(lp1125
sg10
S'Likely'
p1126
sg12
S'Some'
p1127
sg14
g66
sg16
I0
sg17
S'Low'
p1128
sg19
S'Liten tilleggsbelastning'
p1129
sg21
Nsg22
S'400'
p1130
sg24
S'1100'
p1131
sg26
S'Noen bratte heng'
p1132
sg28
Nsg29
g1002
sg31
S'4 - Store'
p1133
sba(irunmatrix
M3Element
p1134
(dp1135
g3
Nsg4
S'Sannsynlig, Meget sannsynlig'
p1136
sg6
S'white'
p1137
sg8
(lp1138
sg10
S'Likely'
p1139
sg12
S'Some'
p1140
sg14
g579
sg16
I4
sg17
S'Nat'
p1141
sg19
S'Naturlig utloest'
p1142
sg21
Nsg22
S'400'
p1143
sg24
S'1200'
p1144
sg26
S'Noen bratte heng'
p1145
sg28
Nsg29
g1002
sg31
S'4 - Store'
p1146
sba(irunmatrix
M3Element
p1147
(dp1148
g3
Nsg4
S'Lite sannsynlig, Mulig'
p1149
sg6
S'gray'
p1150
sg8
(lp1151
sg10
S'Possible'
p1152
sg12
S'Many'
p1153
sg14
g66
sg16
I0
sg17
S'High'
p1154
sg19
S'Stor tilleggsbelastning'
p1155
sg21
Nsg22
S'400'
p1156
sg24
S'1300'
p1157
sg26
S'Mange bratte heng'
p1158
sg28
Nsg29
g1002
sg31
S'4 - Store'
p1159
sba(irunmatrix
M3Element
p1160
(dp1161
g3
Nsg4
S'Lite sannsynlig, Mulig'
p1162
sg6
S'white'
p1163
sg8
(lp1164
sg10
S'Possible'
p1165
sg12
S'Many'
p1166
sg14
g66
sg16
I0
sg17
S'Low'
p1167
sg19
S'Liten tilleggsbelastning'
p1168
sg21
Nsg22
S'400'
p1169
sg24
S'1400'
p1170
sg26
S'Mange bratte heng'
p1171
sg28
Nsg29
g1002
sg31
S'4 - Store'
p1172
sba(irunmatrix
M3Element
p1173
(dp1174
g3
Nsg4
S'Lite sannsynlig, Mulig'
p1175
sg6
S'gray'
p1176
sg8
(lp1177
sg10
S'Possible'
p1178
sg12
S'Many'
p1179
sg14
g66
sg16
I0
sg17
S'Nat'
p1180
sg19
S'Naturlig utloest'
p1181
sg21
Nsg22
S'400'
p1182
sg24
S'1500'
p1183
sg26
S'Mange bratte heng'
p1184
sg28
Nsg29
g1002
sg31
S'4 - Store'
p1185
sba(irunmatrix
M3Element
p1186
(dp1187
g3
Nsg4
S'Sannsynlig, Meget sannsynlig'
p1188
sg6
S'gray'
p1189
sg8
(lp1190
sg10
S'Likely'
p1191
sg12
S'Many'
p1192
sg14
g66
sg16
I0
sg17
S'High'
p1193
sg19
S'Stor tilleggsbelastning'
p1194
sg21
Nsg22
S'400'
p1195
sg24
S'1600'
p1196
sg26
S'Mange bratte heng'
p1197
sg28
Nsg29
g1002
sg31
S'4 - Store'
p1198
sba(irunmatrix
M3Element
p1199
(dp1200
g3
Nsg4
S'Sannsynlig, Meget sannsynlig'
p1201
sg6
S'white'
p1202
sg8
(lp1203
sg10
S'Likely'
p1204
sg12
S'Many'
p1205
sg14
g66
sg16
I0
sg17
S'Low'
p1206
sg19
S'Liten tilleggsbelastning'
p1207
sg21
Nsg22
S'400'
p1208
sg24
S'1700'
p1209
sg26
S'Mange bratte heng'
p1210
sg28
Nsg29
g1002
sg31
S'4 - Store'
p1211
sba(irunmatrix
M3Element
p1212
(dp1213
g3
Nsg4
S'Sannsynlig, Meget sannsynlig'
p1214
sg6
S'white'
p1215
sg8
(lp1216
sg10
S'Likely'
p1217
sg12
S'Many'
p1218
sg14
S'k'
p1219
sg16
I5
sg17
S'Nat'
p1220
sg19
S'Naturlig utloest'
p1221
sg21
Nsg22
S'400'
p1222
sg24
S'1800'
p1223
sg26
S'Mange bratte heng'
p1224
sg28
Nsg29
g1002
sg31
S'4 - Store'
p1225
sba(irunmatrix
M3Element
p1226
(dp1227
g3
Nsg4
S'Lite sannsynlig, Mulig'
p1228
sg6
S'gray'
p1229
sg8
(lp1230
sg10
S'Possible'
p1231
sg12
S'Most'
p1232
sg14
g66
sg16
I0
sg17
S'High'
p1233
sg19
S'Stor tilleggsbelastning'
p1234
sg21
Nsg22
S'400'
p1235
sg24
S'1900'
p1236
sg26
S'De fleste bratte heng, Ogsaa i mindre bratt terreng'
p1237
sg28
Nsg29
g1002
sg31
S'4 - Store'
p1238
sba(irunmatrix
M3Element
p1239
(dp1240
g3
Nsg4
S'Lite sannsynlig, Mulig'
p1241
sg6
S'gray'
p1242
sg8
(lp1243
sg10
S'Possible'
p1244
sg12
S'Most'
p1245
sg14
g66
sg16
I0
sg17
S'Low'
p1246
sg19
S'Liten tilleggsbelastning'
p1247
sg21
Nsg22
S'400'
p1248
sg24
S'2000'
p1249
sg26
S'De fleste bratte heng, Ogsaa i mindre bratt terreng'
p1250
sg28
Nsg29
g1002
sg31
S'4 - Store'
p1251
sba(irunmatrix
M3Element
p1252
(dp1253
g3
Nsg4
S'Lite sannsynlig, Mulig'
p1254
sg6
S'gray'
p1255
sg8
(lp1256
sg10
S'Possible'
p1257
sg12
S'Most'
p1258
sg14
g66
sg16
I0
sg17
S'Nat'
p1259
sg19
S'Naturlig utloest'
p1260
sg21
Nsg22
S'400'
p1261
sg24
S'2100'
p1262
sg26
S'De fleste bratte heng, Ogsaa i mindre bratt terreng'
p1263
sg28
Nsg29
g1002
sg31
S'4 - Store'
p1264
sba(irunmatrix
M3Element
p1265
(dp1266
g3
Nsg4
S'Sannsynlig, Meget sannsynlig'
p1267
sg6
S'gray'
p1268
sg8
(lp1269
sg10
S'Likely'
p1270
sg12
S'Most'
p1271
sg14
g66
sg16
I0
sg17
S'High'
p1272
sg19
S'Stor tilleggsbelastning'
p1273
sg21
Nsg22
S'400'
p1274
sg24
S'2200'
p1275
sg26
S'De fleste bratte heng, Ogsaa i mindre bratt terreng'
p1276
sg28
Nsg29
g1002
sg31
S'4 - Store'
p1277
sba(irunmatrix
M3Element
p1278
(dp1279
g3
Nsg4
S'Sannsynlig, Meget sannsynlig'
p1280
sg6
S'gray'
p1281
sg8
(lp1282
sg10
S'Likely'
p1283
sg12
S'Most'
p1284
sg14
g66
sg16
I0
sg17
S'Low'
p1285
sg19
S'Liten tilleggsbelastning'
p1286
sg21
Nsg22
S'400'
p1287
sg24
S'2300'
p1288
sg26
S'De fleste bratte heng, Ogsaa i mindre bratt terreng'
p1289
sg28
Nsg29
g1002
sg31
S'4 - Store'
p1290
sba(irunmatrix
M3Element
p1291
(dp1292
g3
Nsg4
S'Sannsynlig, Meget sannsynlig'
p1293
sg6
S'white'
p1294
sg8
(lp1295
sg10
S'Likely'
p1296
sg12
S'Most'
p1297
sg14
g66
sg16
I0
sg17
S'Nat'
p1298
sg19
S'Naturlig utloest'
p1299
sg21
Nsg22
S'400'
p1300
sg24
S'2400'
p1301
sg26
S'De fleste bratte heng, Ogsaa i mindre bratt terreng'
p1302
sg28
Nsg29
g1002
sg31
S'4 - Store'
p1303
sba(irunmatrix
M3Element
p1304
(dp1305
g3
Nsg4
S'Lite sannsynlig, Mulig'
p1306
sg6
S'white'
p1307
sg8
(lp1308
sg10
S'Possible'
p1309
sg12
S'Isolated'
p1310
sg14
g66
sg16
I0
sg17
S'High'
p1311
sg19
S'Stor tilleggsbelastning'
p1312
sg21
Nsg22
S'500'
p1313
sg24
S'100'
p1314
sg26
S'Isolerte faresoner'
p1315
sg28
Nsg29
S'5'
p1316
sg31
S'5 - Svaert store'
p1317
sba(irunmatrix
M3Element
p1318
(dp1319
g3
Nsg4
S'Lite sannsynlig, Mulig'
p1320
sg6
S'white'
p1321
sg8
(lp1322
sg10
S'Possible'
p1323
sg12
S'Isolated'
p1324
sg14
g66
sg16
I0
sg17
S'Low'
p1325
sg19
S'Liten tilleggsbelastning'
p1326
sg21
Nsg22
S'500'
p1327
sg24
S'200'
p1328
sg26
S'Isolerte faresoner'
p1329
sg28
Nsg29
g1316
sg31
S'5 - Svaert store'
p1330
sba(irunmatrix
M3Element
p1331
(dp1332
g3
Nsg4
S'Lite sannsynlig, Mulig'
p1333
sg6
S'white'
p1334
sg8
(lp1335
sg10
S'Possible'
p1336
sg12
S'Isolated'
p1337
sg14
g66
sg16
I0
sg17
S'Nat'
p1338
sg19
S'Naturlig utloest'
p1339
sg21
Nsg22
S'500'
p1340
sg24
S'300'
p1341
sg26
S'Isolerte faresoner'
p1342
sg28
Nsg29
g1316
sg31
S'5 - Svaert store'
p1343
sba(irunmatrix
M3Element
p1344
(dp1345
g3
Nsg4
S'Sannsynlig, Meget sannsynlig'
p1346
sg6
S'gray'
p1347
sg8
(lp1348
sg10
S'Likely'
p1349
sg12
S'Isolated'
p1350
sg14
g66
sg16
I0
sg17
S'High'
p1351
sg19
S'Stor tilleggsbelastning'
p1352
sg21
Nsg22
S'500'
p1353
sg24
S'400'
p1354
sg26
S'Isolerte faresoner'
p1355
sg28
Nsg29
g1316
sg31
S'5 - Svaert store'
p1356
sba(irunmatrix
M3Element
p1357
(dp1358
g3
Nsg4
S'Sannsynlig, Meget sannsynlig'
p1359
sg6
S'gray'
p1360
sg8
(lp1361
sg10
S'Likely'
p1362
sg12
S'Isolated'
p1363
sg14
g66
sg16
I0
sg17
S'Low'
p1364
sg19
S'Liten tilleggsbelastning'
p1365
sg21
Nsg22
S'500'
p1366
sg24
S'500'
p1367
sg26
S'Isolerte faresoner'
p1368
sg28
Nsg29
g1316
sg31
S'5 - Svaert store'
p1369
sba(irunmatrix
M3Element
p1370
(dp1371
g3
Nsg4
S'Sannsynlig, Meget sannsynlig'
p1372
sg6
S'gray'
p1373
sg8
(lp1374
sg10
S'Likely'
p1375
sg12
S'Isolated'
p1376
sg14
g66
sg16
I0
sg17
S'Nat'
p1377
sg19
S'Naturlig utloest'
p1378
sg21
Nsg22
S'500'
p1379
sg24
S'600'
p1380
sg26
S'Isolerte faresoner'
p1381
sg28
Nsg29
g1316
sg31
S'5 - Svaert store'
p1382
sba(irunmatrix
M3Element
p1383
(dp1384
g3
Nsg4
S'Lite sannsynlig, Mulig'
p1385
sg6
S'white'
p1386
sg8
(lp1387
sg10
S'Possible'
p1388
sg12
S'Some'
p1389
sg14
g66
sg16
I0
sg17
S'High'
p1390
sg19
S'Stor tilleggsbelastning'
p1391
sg21
Nsg22
S'500'
p1392
sg24
S'700'
p1393
sg26
S'Noen bratte heng'
p1394
sg28
Nsg29
g1316
sg31
S'5 - Svaert store'
p1395
sba(irunmatrix
M3Element
p1396
(dp1397
g3
Nsg4
S'Lite sannsynlig, Mulig'
p1398
sg6
S'white'
p1399
sg8
(lp1400
sg10
S'Possible'
p1401
sg12
S'Some'
p1402
sg14
g66
sg16
I0
sg17
S'Low'
p1403
sg19
S'Liten tilleggsbelastning'
p1404
sg21
Nsg22
S'500'
p1405
sg24
S'800'
p1406
sg26
S'Noen bratte heng'
p1407
sg28
Nsg29
g1316
sg31
S'5 - Svaert store'
p1408
sba(irunmatrix
M3Element
p1409
(dp1410
g3
Nsg4
S'Lite sannsynlig, Mulig'
p1411
sg6
S'white'
p1412
sg8
(lp1413
sg10
S'Possible'
p1414
sg12
S'Some'
p1415
sg14
g66
sg16
I0
sg17
S'Nat'
p1416
sg19
S'Naturlig utloest'
p1417
sg21
Nsg22
S'500'
p1418
sg24
S'900'
p1419
sg26
S'Noen bratte heng'
p1420
sg28
Nsg29
g1316
sg31
S'5 - Svaert store'
p1421
sba(irunmatrix
M3Element
p1422
(dp1423
g3
Nsg4
S'Sannsynlig, Meget sannsynlig'
p1424
sg6
S'gray'
p1425
sg8
(lp1426
sg10
S'Likely'
p1427
sg12
S'Some'
p1428
sg14
g66
sg16
I0
sg17
S'High'
p1429
sg19
S'Stor tilleggsbelastning'
p1430
sg21
Nsg22
S'500'
p1431
sg24
S'1000'
p1432
sg26
S'Noen bratte heng'
p1433
sg28
Nsg29
g1316
sg31
S'5 - Svaert store'
p1434
sba(irunmatrix
M3Element
p1435
(dp1436
g3
Nsg4
S'Sannsynlig, Meget sannsynlig'
p1437
sg6
S'gray'
p1438
sg8
(lp1439
sg10
S'Likely'
p1440
sg12
S'Some'
p1441
sg14
g66
sg16
I0
sg17
S'Low'
p1442
sg19
S'Liten tilleggsbelastning'
p1443
sg21
Nsg22
S'500'
p1444
sg24
S'1100'
p1445
sg26
S'Noen bratte heng'
p1446
sg28
Nsg29
g1316
sg31
S'5 - Svaert store'
p1447
sba(irunmatrix
M3Element
p1448
(dp1449
g3
Nsg4
S'Sannsynlig, Meget sannsynlig'
p1450
sg6
S'white'
p1451
sg8
(lp1452
sg10
S'Likely'
p1453
sg12
S'Some'
p1454
sg14
g66
sg16
I0
sg17
S'Nat'
p1455
sg19
S'Naturlig utloest'
p1456
sg21
Nsg22
S'500'
p1457
sg24
S'1200'
p1458
sg26
S'Noen bratte heng'
p1459
sg28
Nsg29
g1316
sg31
S'5 - Svaert store'
p1460
sba(irunmatrix
M3Element
p1461
(dp1462
g3
Nsg4
S'Lite sannsynlig, Mulig'
p1463
sg6
S'gray'
p1464
sg8
(lp1465
sg10
S'Possible'
p1466
sg12
S'Many'
p1467
sg14
g66
sg16
I0
sg17
S'High'
p1468
sg19
S'Stor tilleggsbelastning'
p1469
sg21
Nsg22
S'500'
p1470
sg24
S'1300'
p1471
sg26
S'Mange bratte heng'
p1472
sg28
Nsg29
g1316
sg31
S'5 - Svaert store'
p1473
sba(irunmatrix
M3Element
p1474
(dp1475
g3
Nsg4
S'Lite sannsynlig, Mulig'
p1476
sg6
S'white'
p1477
sg8
(lp1478
sg10
S'Possible'
p1479
sg12
S'Many'
p1480
sg14
g66
sg16
I0
sg17
S'Low'
p1481
sg19
S'Liten tilleggsbelastning'
p1482
sg21
Nsg22
S'500'
p1483
sg24
S'1400'
p1484
sg26
S'Mange bratte heng'
p1485
sg28
Nsg29
g1316
sg31
S'5 - Svaert store'
p1486
sba(irunmatrix
M3Element
p1487
(dp1488
g3
Nsg4
S'Lite sannsynlig, Mulig'
p1489
sg6
S'gray'
p1490
sg8
(lp1491
sg10
S'Possible'
p1492
sg12
S'Many'
p1493
sg14
g66
sg16
I0
sg17
S'Nat'
p1494
sg19
S'Naturlig utloest'
p1495
sg21
Nsg22
S'500'
p1496
sg24
S'1500'
p1497
sg26
S'Mange bratte heng'
p1498
sg28
Nsg29
g1316
sg31
S'5 - Svaert store'
p1499
sba(irunmatrix
M3Element
p1500
(dp1501
g3
Nsg4
S'Sannsynlig, Meget sannsynlig'
p1502
sg6
S'gray'
p1503
sg8
(lp1504
sg10
S'Likely'
p1505
sg12
S'Many'
p1506
sg14
g66
sg16
I0
sg17
S'High'
p1507
sg19
S'Stor tilleggsbelastning'
p1508
sg21
Nsg22
S'500'
p1509
sg24
S'1600'
p1510
sg26
S'Mange bratte heng'
p1511
sg28
Nsg29
g1316
sg31
S'5 - Svaert store'
p1512
sba(irunmatrix
M3Element
p1513
(dp1514
g3
Nsg4
S'Sannsynlig, Meget sannsynlig'
p1515
sg6
S'white'
p1516
sg8
(lp1517
sg10
S'Likely'
p1518
sg12
S'Many'
p1519
sg14
g66
sg16
I0
sg17
S'Low'
p1520
sg19
S'Liten tilleggsbelastning'
p1521
sg21
Nsg22
S'500'
p1522
sg24
S'1700'
p1523
sg26
S'Mange bratte heng'
p1524
sg28
Nsg29
g1316
sg31
S'5 - Svaert store'
p1525
sba(irunmatrix
M3Element
p1526
(dp1527
g3
Nsg4
S'Sannsynlig, Meget sannsynlig'
p1528
sg6
S'white'
p1529
sg8
(lp1530
sg10
S'Likely'
p1531
sg12
S'Many'
p1532
sg14
g1219
sg16
I5
sg17
S'Nat'
p1533
sg19
S'Naturlig utloest'
p1534
sg21
Nsg22
S'500'
p1535
sg24
S'1800'
p1536
sg26
S'Mange bratte heng'
p1537
sg28
Nsg29
g1316
sg31
S'5 - Svaert store'
p1538
sba(irunmatrix
M3Element
p1539
(dp1540
g3
Nsg4
S'Lite sannsynlig, Mulig'
p1541
sg6
S'gray'
p1542
sg8
(lp1543
sg10
S'Possible'
p1544
sg12
S'Most'
p1545
sg14
g66
sg16
I0
sg17
S'High'
p1546
sg19
S'Stor tilleggsbelastning'
p1547
sg21
Nsg22
S'500'
p1548
sg24
S'1900'
p1549
sg26
S'De fleste bratte heng, Ogsaa i mindre bratt terreng'
p1550
sg28
Nsg29
g1316
sg31
S'5 - Svaert store'
p1551
sba(irunmatrix
M3Element
p1552
(dp1553
g3
Nsg4
S'Lite sannsynlig, Mulig'
p1554
sg6
S'gray'
p1555
sg8
(lp1556
sg10
S'Possible'
p1557
sg12
S'Most'
p1558
sg14
g66
sg16
I0
sg17
S'Low'
p1559
sg19
S'Liten tilleggsbelastning'
p1560
sg21
Nsg22
S'500'
p1561
sg24
S'2000'
p1562
sg26
S'De fleste bratte heng, Ogsaa i mindre bratt terreng'
p1563
sg28
Nsg29
g1316
sg31
S'5 - Svaert store'
p1564
sba(irunmatrix
M3Element
p1565
(dp1566
g3
Nsg4
S'Lite sannsynlig, Mulig'
p1567
sg6
S'gray'
p1568
sg8
(lp1569
sg10
S'Possible'
p1570
sg12
S'Most'
p1571
sg14
g66
sg16
I0
sg17
S'Nat'
p1572
sg19
S'Naturlig utloest'
p1573
sg21
Nsg22
S'500'
p1574
sg24
S'2100'
p1575
sg26
S'De fleste bratte heng, Ogsaa i mindre bratt terreng'
p1576
sg28
Nsg29
g1316
sg31
S'5 - Svaert store'
p1577
sba(irunmatrix
M3Element
p1578
(dp1579
g3
Nsg4
S'Sannsynlig, Meget sannsynlig'
p1580
sg6
S'gray'
p1581
sg8
(lp1582
sg10
S'Likely'
p1583
sg12
S'Most'
p1584
sg14
g66
sg16
I0
sg17
S'High'
p1585
sg19
S'Stor tilleggsbelastning'
p1586
sg21
Nsg22
S'500'
p1587
sg24
S'2200'
p1588
sg26
S'De fleste bratte heng, Ogsaa i mindre bratt terreng'
p1589
sg28
Nsg29
g1316
sg31
S'5 - Svaert store'
p1590
sba(irunmatrix
M3Element
p1591
(dp1592
g3
Nsg4
S'Sannsynlig, Meget sannsynlig'
p1593
sg6
S'gray'
p1594
sg8
(lp1595
sg10
S'Likely'
p1596
sg12
S'Most'
p1597
sg14
g66
sg16
I0
sg17
S'Low'
p1598
sg19
S'Liten tilleggsbelastning'
p1599
sg21
Nsg22
S'500'
p1600
sg24
S'2300'
p1601
sg26
S'De fleste bratte heng, Ogsaa i mindre bratt terreng'
p1602
sg28
Nsg29
g1316
sg31
S'5 - Svaert store'
p1603
sba(irunmatrix
M3Element
p1604
(dp1605
g3
Nsg4
S'Sannsynlig, Meget sannsynlig'
p1606
sg6
S'white'
p1607
sg8
(lp1608
sg10
S'Likely'
p1609
sg12
S'Most'
p1610
sg14
g66
sg16
I0
sg17
S'Nat'
p1611
sg19
S'Naturlig utloest'
p1612
sg21
Nsg22
S'500'
p1613
sg24
S'2400'
p1614
sg26
S'De fleste bratte heng, Ogsaa i mindre bratt terreng'
p1615
sg28
Nsg29
g1316
sg31
S'5 - Svaert store'
p1616
sba.