(dp0
S'trigger'
p1
(dp2
S'keys'
p3
(lp4
S'Stor tilleggsbelastning'
p5
aS'Liten tilleggsbelastning'
p6
aS'Naturlig utloest'
p7
asS'colors'
p8
(lp9
S'0.7'
p10
asS'values'
p11
(lp12
S'Stor tilleggsbelastning'
p13
aS'Stor tilleggsbelastning'
p14
aS'Stor tilleggsbelastning'
p15
aS'Stor tilleggsbelastning'
p16
aS'Stor tilleggsbelastning'
p17
aS'Stor tilleggsbelastning'
p18
aS'Stor tilleggsbelastning'
p19
aS'Liten tilleggsbelastning'
p20
aS'Liten tilleggsbelastning'
p21
aS'Liten tilleggsbelastning'
p22
aS'Liten tilleggsbelastning'
p23
aS'Liten tilleggsbelastning'
p24
aS'Liten tilleggsbelastning'
p25
aS'Liten tilleggsbelastning'
p26
aS'Liten tilleggsbelastning'
p27
aS'Liten tilleggsbelastning'
p28
aS'Liten tilleggsbelastning'
p29
aS'Liten tilleggsbelastning'
p30
aS'Stor tilleggsbelastning'
p31
aS'Liten tilleggsbelastning'
p32
aS'Liten tilleggsbelastning'
p33
aS'Liten tilleggsbelastning'
p34
aS'Liten tilleggsbelastning'
p35
aS'Liten tilleggsbelastning'
p36
aS'Liten tilleggsbelastning'
p37
aS'Liten tilleggsbelastning'
p38
aS'Liten tilleggsbelastning'
p39
aS'Liten tilleggsbelastning'
p40
aS'Liten tilleggsbelastning'
p41
aS'Liten tilleggsbelastning'
p42
aS'Liten tilleggsbelastning'
p43
aS'Liten tilleggsbelastning'
p44
aS'Liten tilleggsbelastning'
p45
aS'Liten tilleggsbelastning'
p46
aS'Liten tilleggsbelastning'
p47
aS'Liten tilleggsbelastning'
p48
aS'Liten tilleggsbelastning'
p49
aS'Liten tilleggsbelastning'
p50
aS'Liten tilleggsbelastning'
p51
aS'Liten tilleggsbelastning'
p52
aS'Liten tilleggsbelastning'
p53
aS'Liten tilleggsbelastning'
p54
aS'Liten tilleggsbelastning'
p55
aS'Liten tilleggsbelastning'
p56
aS'Liten tilleggsbelastning'
p57
aS'Liten tilleggsbelastning'
p58
aS'Liten tilleggsbelastning'
p59
aS'Liten tilleggsbelastning'
p60
aS'Liten tilleggsbelastning'
p61
aS'Liten tilleggsbelastning'
p62
aS'Liten tilleggsbelastning'
p63
aS'Liten tilleggsbelastning'
p64
aS'Liten tilleggsbelastning'
p65
aS'Liten tilleggsbelastning'
p66
aS'Liten tilleggsbelastning'
p67
aS'Liten tilleggsbelastning'
p68
aS'Liten tilleggsbelastning'
p69
aS'Liten tilleggsbelastning'
p70
aS'Liten tilleggsbelastning'
p71
aS'Liten tilleggsbelastning'
p72
aS'Liten tilleggsbelastning'
p73
aS'Liten tilleggsbelastning'
p74
aS'Liten tilleggsbelastning'
p75
aS'Liten tilleggsbelastning'
p76
aS'Liten tilleggsbelastning'
p77
aS'Liten tilleggsbelastning'
p78
aS'Liten tilleggsbelastning'
p79
aS'Liten tilleggsbelastning'
p80
aS'Liten tilleggsbelastning'
p81
aS'Liten tilleggsbelastning'
p82
aS'Liten tilleggsbelastning'
p83
aS'Liten tilleggsbelastning'
p84
aS'Liten tilleggsbelastning'
p85
aS'Liten tilleggsbelastning'
p86
aS'Liten tilleggsbelastning'
p87
aS'Liten tilleggsbelastning'
p88
aS'Liten tilleggsbelastning'
p89
aS'Liten tilleggsbelastning'
p90
aS'Liten tilleggsbelastning'
p91
aS'Liten tilleggsbelastning'
p92
aS'Liten tilleggsbelastning'
p93
aS'Liten tilleggsbelastning'
p94
aS'Liten tilleggsbelastning'
p95
aS'Liten tilleggsbelastning'
p96
aS'Liten tilleggsbelastning'
p97
aS'Liten tilleggsbelastning'
p98
aS'Liten tilleggsbelastning'
p99
aS'Liten tilleggsbelastning'
p100
aS'Liten tilleggsbelastning'
p101
aS'Liten tilleggsbelastning'
p102
aS'Liten tilleggsbelastning'
p103
aS'Liten tilleggsbelastning'
p104
aS'Liten tilleggsbelastning'
p105
aS'Liten tilleggsbelastning'
p106
aS'Liten tilleggsbelastning'
p107
aS'Liten tilleggsbelastning'
p108
aS'Stor tilleggsbelastning'
p109
aS'Stor tilleggsbelastning'
p110
aS'Stor tilleggsbelastning'
p111
aS'Stor tilleggsbelastning'
p112
aS'Liten tilleggsbelastning'
p113
aS'Liten tilleggsbelastning'
p114
aS'Liten tilleggsbelastning'
p115
aS'Liten tilleggsbelastning'
p116
aS'Liten tilleggsbelastning'
p117
aS'Liten tilleggsbelastning'
p118
aS'Liten tilleggsbelastning'
p119
aS'Liten tilleggsbelastning'
p120
aS'Liten tilleggsbelastning'
p121
aS'Liten tilleggsbelastning'
p122
aS'Liten tilleggsbelastning'
p123
aS'Liten tilleggsbelastning'
p124
aS'Liten tilleggsbelastning'
p125
aS'Stor tilleggsbelastning'
p126
aS'Liten tilleggsbelastning'
p127
aS'Liten tilleggsbelastning'
p128
aS'Liten tilleggsbelastning'
p129
aS'Liten tilleggsbelastning'
p130
aS'Liten tilleggsbelastning'
p131
aS'Liten tilleggsbelastning'
p132
aS'Stor tilleggsbelastning'
p133
aS'Liten tilleggsbelastning'
p134
aS'Liten tilleggsbelastning'
p135
aS'Liten tilleggsbelastning'
p136
aS'Liten tilleggsbelastning'
p137
aS'Liten tilleggsbelastning'
p138
aS'Liten tilleggsbelastning'
p139
aS'Stor tilleggsbelastning'
p140
aS'Naturlig utloest'
p141
aS'Naturlig utloest'
p142
aS'Naturlig utloest'
p143
aS'Naturlig utloest'
p144
aS'Naturlig utloest'
p145
aS'Naturlig utloest'
p146
aS'Stor tilleggsbelastning'
p147
aS'Liten tilleggsbelastning'
p148
aS'Liten tilleggsbelastning'
p149
aS'Liten tilleggsbelastning'
p150
aS'Liten tilleggsbelastning'
p151
aS'Liten tilleggsbelastning'
p152
aS'Liten tilleggsbelastning'
p153
aS'Liten tilleggsbelastning'
p154
aS'Liten tilleggsbelastning'
p155
aS'Liten tilleggsbelastning'
p156
aS'Liten tilleggsbelastning'
p157
aS'Liten tilleggsbelastning'
p158
aS'Liten tilleggsbelastning'
p159
aS'Liten tilleggsbelastning'
p160
aS'Liten tilleggsbelastning'
p161
aS'Liten tilleggsbelastning'
p162
aS'Liten tilleggsbelastning'
p163
aS'Liten tilleggsbelastning'
p164
aS'Liten tilleggsbelastning'
p165
aS'Liten tilleggsbelastning'
p166
aS'Liten tilleggsbelastning'
p167
aS'Liten tilleggsbelastning'
p168
aS'Liten tilleggsbelastning'
p169
aS'Liten tilleggsbelastning'
p170
aS'Liten tilleggsbelastning'
p171
aS'Liten tilleggsbelastning'
p172
aS'Liten tilleggsbelastning'
p173
aS'Liten tilleggsbelastning'
p174
aS'Naturlig utloest'
p175
aS'Liten tilleggsbelastning'
p176
aS'Naturlig utloest'
p177
aS'Liten tilleggsbelastning'
p178
aS'Naturlig utloest'
p179
aS'Liten tilleggsbelastning'
p180
aS'Liten tilleggsbelastning'
p181
aS'Liten tilleggsbelastning'
p182
aS'Liten tilleggsbelastning'
p183
aS'Liten tilleggsbelastning'
p184
aS'Liten tilleggsbelastning'
p185
aS'Liten tilleggsbelastning'
p186
aS'Liten tilleggsbelastning'
p187
aS'Liten tilleggsbelastning'
p188
aS'Liten tilleggsbelastning'
p189
assS'distribution'
p190
(dp191
g3
(lp192
S'Isolerte faresoner'
p193
aS'Noen bratte heng'
p194
aS'Mange bratte heng'
p195
aS'De fleste bratte heng'
p196
aS'Ogsaa i mindre bratt terreng'
p197
asg8
(lp198
g10
asg11
(lp199
S'Noen bratte heng'
p200
aS'Noen bratte heng'
p201
aS'Noen bratte heng'
p202
aS'Noen bratte heng'
p203
aS'Noen bratte heng'
p204
aS'Noen bratte heng'
p205
aS'Isolerte faresoner'
p206
aS'Noen bratte heng'
p207
aS'Noen bratte heng'
p208
aS'Noen bratte heng'
p209
aS'Noen bratte heng'
p210
aS'Noen bratte heng'
p211
aS'Isolerte faresoner'
p212
aS'Noen bratte heng'
p213
aS'Noen bratte heng'
p214
aS'Noen bratte heng'
p215
aS'Noen bratte heng'
p216
aS'Noen bratte heng'
p217
aS'Isolerte faresoner'
p218
aS'Noen bratte heng'
p219
aS'Noen bratte heng'
p220
aS'Noen bratte heng'
p221
aS'Noen bratte heng'
p222
aS'Noen bratte heng'
p223
aS'Isolerte faresoner'
p224
aS'Noen bratte heng'
p225
aS'Noen bratte heng'
p226
aS'Noen bratte heng'
p227
aS'Noen bratte heng'
p228
aS'Noen bratte heng'
p229
aS'Noen bratte heng'
p230
aS'Noen bratte heng'
p231
aS'Noen bratte heng'
p232
aS'Noen bratte heng'
p233
aS'Noen bratte heng'
p234
aS'Noen bratte heng'
p235
aS'Mange bratte heng'
p236
aS'Mange bratte heng'
p237
aS'Noen bratte heng'
p238
aS'Mange bratte heng'
p239
aS'Mange bratte heng'
p240
aS'Mange bratte heng'
p241
aS'Mange bratte heng'
p242
aS'Mange bratte heng'
p243
aS'Noen bratte heng'
p244
aS'Noen bratte heng'
p245
aS'Noen bratte heng'
p246
aS'Mange bratte heng'
p247
aS'Mange bratte heng'
p248
aS'Noen bratte heng'
p249
aS'Noen bratte heng'
p250
aS'Mange bratte heng'
p251
aS'Mange bratte heng'
p252
aS'Noen bratte heng'
p253
aS'Mange bratte heng'
p254
aS'Noen bratte heng'
p255
aS'Noen bratte heng'
p256
aS'Noen bratte heng'
p257
aS'Noen bratte heng'
p258
aS'Noen bratte heng'
p259
aS'Noen bratte heng'
p260
aS'Noen bratte heng'
p261
aS'Noen bratte heng'
p262
aS'Noen bratte heng'
p263
aS'Noen bratte heng'
p264
aS'Noen bratte heng'
p265
aS'Noen bratte heng'
p266
aS'Noen bratte heng'
p267
aS'Noen bratte heng'
p268
aS'Noen bratte heng'
p269
aS'Noen bratte heng'
p270
aS'Noen bratte heng'
p271
aS'Noen bratte heng'
p272
aS'Noen bratte heng'
p273
aS'Noen bratte heng'
p274
aS'Noen bratte heng'
p275
aS'Noen bratte heng'
p276
aS'Noen bratte heng'
p277
aS'Noen bratte heng'
p278
aS'Noen bratte heng'
p279
aS'Noen bratte heng'
p280
aS'Noen bratte heng'
p281
aS'Noen bratte heng'
p282
aS'Noen bratte heng'
p283
aS'Noen bratte heng'
p284
aS'Noen bratte heng'
p285
aS'Noen bratte heng'
p286
aS'Noen bratte heng'
p287
aS'Noen bratte heng'
p288
aS'Noen bratte heng'
p289
aS'Noen bratte heng'
p290
aS'Noen bratte heng'
p291
aS'Noen bratte heng'
p292
aS'Noen bratte heng'
p293
aS'Noen bratte heng'
p294
aS'Noen bratte heng'
p295
aS'Noen bratte heng'
p296
aS'Noen bratte heng'
p297
aS'Noen bratte heng'
p298
aS'Noen bratte heng'
p299
aS'Noen bratte heng'
p300
aS'Noen bratte heng'
p301
aS'Noen bratte heng'
p302
aS'Noen bratte heng'
p303
aS'Noen bratte heng'
p304
aS'Noen bratte heng'
p305
aS'Noen bratte heng'
p306
aS'Noen bratte heng'
p307
aS'Noen bratte heng'
p308
aS'Noen bratte heng'
p309
aS'Noen bratte heng'
p310
aS'Noen bratte heng'
p311
aS'Noen bratte heng'
p312
aS'Noen bratte heng'
p313
aS'Noen bratte heng'
p314
aS'Noen bratte heng'
p315
aS'Noen bratte heng'
p316
aS'Noen bratte heng'
p317
aS'Noen bratte heng'
p318
aS'Noen bratte heng'
p319
aS'Noen bratte heng'
p320
aS'Mange bratte heng'
p321
aS'Mange bratte heng'
p322
aS'Mange bratte heng'
p323
aS'Mange bratte heng'
p324
aS'Mange bratte heng'
p325
aS'Mange bratte heng'
p326
aS'Noen bratte heng'
p327
aS'Noen bratte heng'
p328
aS'Noen bratte heng'
p329
aS'Noen bratte heng'
p330
aS'Noen bratte heng'
p331
aS'Noen bratte heng'
p332
aS'Noen bratte heng'
p333
aS'Noen bratte heng'
p334
aS'Noen bratte heng'
p335
aS'Noen bratte heng'
p336
aS'Noen bratte heng'
p337
aS'Noen bratte heng'
p338
aS'Noen bratte heng'
p339
aS'Noen bratte heng'
p340
aS'Noen bratte heng'
p341
aS'Noen bratte heng'
p342
aS'Isolerte faresoner'
p343
aS'Isolerte faresoner'
p344
aS'Isolerte faresoner'
p345
aS'Noen bratte heng'
p346
aS'Isolerte faresoner'
p347
aS'Noen bratte heng'
p348
aS'Noen bratte heng'
p349
aS'Isolerte faresoner'
p350
aS'Isolerte faresoner'
p351
aS'Isolerte faresoner'
p352
aS'Noen bratte heng'
p353
aS'Isolerte faresoner'
p354
aS'Noen bratte heng'
p355
aS'Noen bratte heng'
p356
aS'Noen bratte heng'
p357
aS'Noen bratte heng'
p358
aS'Noen bratte heng'
p359
aS'Noen bratte heng'
p360
aS'Noen bratte heng'
p361
aS'Noen bratte heng'
p362
aS'Noen bratte heng'
p363
aS'Noen bratte heng'
p364
aS'Noen bratte heng'
p365
aS'Noen bratte heng'
p366
aS'Noen bratte heng'
p367
aS'Noen bratte heng'
p368
aS'Noen bratte heng'
p369
aS'Noen bratte heng'
p370
aS'Noen bratte heng'
p371
aS'Noen bratte heng'
p372
aS'Noen bratte heng'
p373
aS'Noen bratte heng'
p374
aS'Noen bratte heng'
p375
aS'Noen bratte heng'
p376
assS'size'
p377
(dp378
g3
(lp379
S'1 - Harmloest'
p380
aS'2 - Smaa'
p381
aS'3 - Middels'
p382
aS'4 - Store'
p383
aS'5 - Svaert store'
p384
aS'Ukjent'
p385
asg8
(lp386
g10
asg11
(lp387
S'2 - Smaa'
p388
aS'3 - Middels'
p389
aS'2 - Smaa'
p390
aS'2 - Smaa'
p391
aS'2 - Smaa'
p392
aS'2 - Smaa'
p393
aS'2 - Smaa'
p394
aS'2 - Smaa'
p395
aS'2 - Smaa'
p396
aS'2 - Smaa'
p397
aS'2 - Smaa'
p398
aS'2 - Smaa'
p399
aS'2 - Smaa'
p400
aS'2 - Smaa'
p401
aS'2 - Smaa'
p402
aS'2 - Smaa'
p403
aS'2 - Smaa'
p404
aS'2 - Smaa'
p405
aS'2 - Smaa'
p406
aS'2 - Smaa'
p407
aS'2 - Smaa'
p408
aS'2 - Smaa'
p409
aS'2 - Smaa'
p410
aS'2 - Smaa'
p411
aS'2 - Smaa'
p412
aS'2 - Smaa'
p413
aS'2 - Smaa'
p414
aS'2 - Smaa'
p415
aS'2 - Smaa'
p416
aS'2 - Smaa'
p417
aS'2 - Smaa'
p418
aS'2 - Smaa'
p419
aS'2 - Smaa'
p420
aS'2 - Smaa'
p421
aS'2 - Smaa'
p422
aS'2 - Smaa'
p423
aS'2 - Smaa'
p424
aS'3 - Middels'
p425
aS'2 - Smaa'
p426
aS'2 - Smaa'
p427
aS'3 - Middels'
p428
aS'3 - Middels'
p429
aS'3 - Middels'
p430
aS'3 - Middels'
p431
aS'3 - Middels'
p432
aS'3 - Middels'
p433
aS'2 - Smaa'
p434
aS'2 - Smaa'
p435
aS'2 - Smaa'
p436
aS'3 - Middels'
p437
aS'3 - Middels'
p438
aS'3 - Middels'
p439
aS'3 - Middels'
p440
aS'2 - Smaa'
p441
aS'3 - Middels'
p442
aS'3 - Middels'
p443
aS'3 - Middels'
p444
aS'2 - Smaa'
p445
aS'2 - Smaa'
p446
aS'2 - Smaa'
p447
aS'2 - Smaa'
p448
aS'2 - Smaa'
p449
aS'2 - Smaa'
p450
aS'3 - Middels'
p451
aS'3 - Middels'
p452
aS'2 - Smaa'
p453
aS'2 - Smaa'
p454
aS'2 - Smaa'
p455
aS'2 - Smaa'
p456
aS'2 - Smaa'
p457
aS'2 - Smaa'
p458
aS'2 - Smaa'
p459
aS'2 - Smaa'
p460
aS'2 - Smaa'
p461
aS'2 - Smaa'
p462
aS'2 - Smaa'
p463
aS'3 - Middels'
p464
aS'2 - Smaa'
p465
aS'2 - Smaa'
p466
aS'2 - Smaa'
p467
aS'2 - Smaa'
p468
aS'2 - Smaa'
p469
aS'2 - Smaa'
p470
aS'2 - Smaa'
p471
aS'2 - Smaa'
p472
aS'2 - Smaa'
p473
aS'2 - Smaa'
p474
aS'2 - Smaa'
p475
aS'2 - Smaa'
p476
aS'2 - Smaa'
p477
aS'2 - Smaa'
p478
aS'2 - Smaa'
p479
aS'2 - Smaa'
p480
aS'2 - Smaa'
p481
aS'2 - Smaa'
p482
aS'2 - Smaa'
p483
aS'2 - Smaa'
p484
aS'2 - Smaa'
p485
aS'2 - Smaa'
p486
aS'2 - Smaa'
p487
aS'2 - Smaa'
p488
aS'3 - Middels'
p489
aS'3 - Middels'
p490
aS'3 - Middels'
p491
aS'3 - Middels'
p492
aS'3 - Middels'
p493
aS'3 - Middels'
p494
aS'2 - Smaa'
p495
aS'2 - Smaa'
p496
aS'2 - Smaa'
p497
aS'2 - Smaa'
p498
aS'2 - Smaa'
p499
aS'2 - Smaa'
p500
aS'3 - Middels'
p501
aS'2 - Smaa'
p502
aS'2 - Smaa'
p503
aS'2 - Smaa'
p504
aS'2 - Smaa'
p505
aS'2 - Smaa'
p506
aS'2 - Smaa'
p507
aS'3 - Middels'
p508
aS'2 - Smaa'
p509
aS'2 - Smaa'
p510
aS'2 - Smaa'
p511
aS'2 - Smaa'
p512
aS'2 - Smaa'
p513
aS'2 - Smaa'
p514
aS'3 - Middels'
p515
aS'3 - Middels'
p516
aS'3 - Middels'
p517
aS'3 - Middels'
p518
aS'3 - Middels'
p519
aS'3 - Middels'
p520
aS'3 - Middels'
p521
aS'3 - Middels'
p522
aS'2 - Smaa'
p523
aS'2 - Smaa'
p524
aS'2 - Smaa'
p525
aS'2 - Smaa'
p526
aS'2 - Smaa'
p527
aS'2 - Smaa'
p528
aS'2 - Smaa'
p529
aS'2 - Smaa'
p530
aS'2 - Smaa'
p531
aS'2 - Smaa'
p532
aS'2 - Smaa'
p533
aS'2 - Smaa'
p534
aS'2 - Smaa'
p535
aS'2 - Smaa'
p536
aS'2 - Smaa'
p537
aS'2 - Smaa'
p538
aS'2 - Smaa'
p539
aS'2 - Smaa'
p540
aS'2 - Smaa'
p541
aS'2 - Smaa'
p542
aS'2 - Smaa'
p543
aS'2 - Smaa'
p544
aS'2 - Smaa'
p545
aS'2 - Smaa'
p546
aS'2 - Smaa'
p547
aS'2 - Smaa'
p548
aS'2 - Smaa'
p549
aS'1 - Harmloest'
p550
aS'2 - Smaa'
p551
aS'1 - Harmloest'
p552
aS'3 - Middels'
p553
aS'1 - Harmloest'
p554
aS'2 - Smaa'
p555
aS'2 - Smaa'
p556
aS'2 - Smaa'
p557
aS'2 - Smaa'
p558
aS'2 - Smaa'
p559
aS'2 - Smaa'
p560
aS'2 - Smaa'
p561
aS'2 - Smaa'
p562
aS'2 - Smaa'
p563
aS'2 - Smaa'
p564
assS'probability'
p565
(dp566
g3
(lp567
S'Lite sannsynlig'
p568
aS'Mulig'
p569
aS'Sannsynlig'
p570
aS'Meget sannsynlig'
p571
asg8
(lp572
g10
asg11
(lp573
S'Mulig'
p574
aS'Mulig'
p575
aS'Mulig'
p576
aS'Mulig'
p577
aS'Mulig'
p578
aS'Mulig'
p579
aS'Mulig'
p580
aS'Mulig'
p581
aS'Mulig'
p582
aS'Mulig'
p583
aS'Mulig'
p584
aS'Mulig'
p585
aS'Mulig'
p586
aS'Mulig'
p587
aS'Mulig'
p588
aS'Mulig'
p589
aS'Mulig'
p590
aS'Mulig'
p591
aS'Mulig'
p592
aS'Mulig'
p593
aS'Mulig'
p594
aS'Mulig'
p595
aS'Mulig'
p596
aS'Mulig'
p597
aS'Mulig'
p598
aS'Mulig'
p599
aS'Mulig'
p600
aS'Mulig'
p601
aS'Mulig'
p602
aS'Mulig'
p603
aS'Mulig'
p604
aS'Mulig'
p605
aS'Mulig'
p606
aS'Mulig'
p607
aS'Mulig'
p608
aS'Mulig'
p609
aS'Mulig'
p610
aS'Mulig'
p611
aS'Mulig'
p612
aS'Mulig'
p613
aS'Mulig'
p614
aS'Mulig'
p615
aS'Mulig'
p616
aS'Mulig'
p617
aS'Mulig'
p618
aS'Mulig'
p619
aS'Mulig'
p620
aS'Mulig'
p621
aS'Mulig'
p622
aS'Mulig'
p623
aS'Mulig'
p624
aS'Mulig'
p625
aS'Mulig'
p626
aS'Mulig'
p627
aS'Mulig'
p628
aS'Mulig'
p629
aS'Mulig'
p630
aS'Mulig'
p631
aS'Mulig'
p632
aS'Mulig'
p633
aS'Mulig'
p634
aS'Mulig'
p635
aS'Mulig'
p636
aS'Mulig'
p637
aS'Mulig'
p638
aS'Mulig'
p639
aS'Mulig'
p640
aS'Mulig'
p641
aS'Mulig'
p642
aS'Mulig'
p643
aS'Mulig'
p644
aS'Mulig'
p645
aS'Mulig'
p646
aS'Mulig'
p647
aS'Mulig'
p648
aS'Mulig'
p649
aS'Mulig'
p650
aS'Mulig'
p651
aS'Mulig'
p652
aS'Mulig'
p653
aS'Mulig'
p654
aS'Mulig'
p655
aS'Mulig'
p656
aS'Mulig'
p657
aS'Mulig'
p658
aS'Mulig'
p659
aS'Mulig'
p660
aS'Mulig'
p661
aS'Mulig'
p662
aS'Mulig'
p663
aS'Mulig'
p664
aS'Mulig'
p665
aS'Mulig'
p666
aS'Mulig'
p667
aS'Mulig'
p668
aS'Mulig'
p669
aS'Mulig'
p670
aS'Mulig'
p671
aS'Mulig'
p672
aS'Mulig'
p673
aS'Mulig'
p674
aS'Mulig'
p675
aS'Mulig'
p676
aS'Mulig'
p677
aS'Mulig'
p678
aS'Mulig'
p679
aS'Mulig'
p680
aS'Mulig'
p681
aS'Mulig'
p682
aS'Mulig'
p683
aS'Mulig'
p684
aS'Mulig'
p685
aS'Mulig'
p686
aS'Mulig'
p687
aS'Mulig'
p688
aS'Mulig'
p689
aS'Mulig'
p690
aS'Mulig'
p691
aS'Mulig'
p692
aS'Mulig'
p693
aS'Mulig'
p694
aS'Mulig'
p695
aS'Mulig'
p696
aS'Mulig'
p697
aS'Mulig'
p698
aS'Mulig'
p699
aS'Mulig'
p700
aS'Mulig'
p701
aS'Mulig'
p702
aS'Mulig'
p703
aS'Mulig'
p704
aS'Mulig'
p705
aS'Mulig'
p706
aS'Mulig'
p707
aS'Mulig'
p708
aS'Mulig'
p709
aS'Mulig'
p710
aS'Mulig'
p711
aS'Mulig'
p712
aS'Mulig'
p713
aS'Mulig'
p714
aS'Mulig'
p715
aS'Mulig'
p716
aS'Mulig'
p717
aS'Mulig'
p718
aS'Mulig'
p719
aS'Mulig'
p720
aS'Mulig'
p721
aS'Mulig'
p722
aS'Mulig'
p723
aS'Mulig'
p724
aS'Mulig'
p725
aS'Mulig'
p726
aS'Mulig'
p727
aS'Mulig'
p728
aS'Mulig'
p729
aS'Mulig'
p730
aS'Mulig'
p731
aS'Mulig'
p732
aS'Mulig'
p733
aS'Mulig'
p734
aS'Mulig'
p735
aS'Mulig'
p736
aS'Mulig'
p737
aS'Mulig'
p738
aS'Mulig'
p739
aS'Mulig'
p740
aS'Mulig'
p741
aS'Mulig'
p742
aS'Mulig'
p743
aS'Mulig'
p744
aS'Mulig'
p745
aS'Mulig'
p746
aS'Mulig'
p747
aS'Mulig'
p748
aS'Mulig'
p749
aS'Mulig'
p750
assS'level'
p751
(dp752
g3
(lp753
I1
aI2
aI3
aI4
aI5
asg8
(lp754
S'#ccff66'
p755
aS'#ffff00'
p756
aS'#ff9900'
p757
aS'#ff0000'
p758
aS'k'
p759
asg11
(lp760
I2
aI2
aI2
aI2
aI2
aI2
aI1
aI2
aI2
aI2
aI2
aI2
aI1
aI2
aI2
aI2
aI2
aI2
aI1
aI2
aI2
aI2
aI2
aI2
aI2
aI2
aI2
aI2
aI2
aI2
aI2
aI2
aI2
aI2
aI2
aI2
aI3
aI3
aI3
aI3
aI3
aI3
aI3
aI3
aI3
aI3
aI2
aI3
aI3
aI3
aI3
aI3
aI3
aI2
aI3
aI3
aI3
aI2
aI2
aI2
aI2
aI2
aI2
aI3
aI3
aI2
aI2
aI2
aI2
aI2
aI2
aI2
aI2
aI2
aI2
aI2
aI3
aI2
aI2
aI2
aI2
aI2
aI2
aI2
aI2
aI2
aI2
aI2
aI2
aI2
aI2
aI2
aI2
aI2
aI2
aI2
aI2
aI2
aI2
aI2
aI2
aI3
aI3
aI3
aI3
aI3
aI3
aI2
aI2
aI2
aI2
aI2
aI2
aI2
aI2
aI2
aI2
aI2
aI2
aI2
aI2
aI3
aI3
aI3
aI3
aI3
aI3
aI2
aI3
aI3
aI3
aI3
aI3
aI3
aI2
aI2
aI2
aI2
aI2
aI2
aI2
aI2
aI2
aI1
aI1
aI1
aI2
aI1
aI2
aI2
aI1
aI1
aI1
aI2
aI1
aI2
aI2
aI2
aI2
aI2
aI2
aI2
aI1
aI2
aI1
aI3
aI1
aI2
aI2
aI2
aI2
aI2
aI2
aI2
aI2
aI2
aI2
ass.