(dp0
S'trigger'
p1
(dp2
S'keys'
p3
(lp4
S'Stor tilleggsbelastning'
p5
aS'Liten tilleggsbelastning'
p6
aS'Naturlig utloest'
p7
asS'colors'
p8
(lp9
S'0.7'
p10
asS'values'
p11
(lp12
S'Liten tilleggsbelastning'
p13
aS'Liten tilleggsbelastning'
p14
aS'Liten tilleggsbelastning'
p15
aS'Liten tilleggsbelastning'
p16
aS'Liten tilleggsbelastning'
p17
aS'Liten tilleggsbelastning'
p18
aS'Stor tilleggsbelastning'
p19
aS'Stor tilleggsbelastning'
p20
aS'Stor tilleggsbelastning'
p21
aS'Liten tilleggsbelastning'
p22
aS'Stor tilleggsbelastning'
p23
aS'Liten tilleggsbelastning'
p24
aS'Liten tilleggsbelastning'
p25
aS'Liten tilleggsbelastning'
p26
aS'Liten tilleggsbelastning'
p27
aS'Liten tilleggsbelastning'
p28
aS'Liten tilleggsbelastning'
p29
aS'Liten tilleggsbelastning'
p30
aS'Stor tilleggsbelastning'
p31
aS'Liten tilleggsbelastning'
p32
aS'Naturlig utloest'
p33
aS'Naturlig utloest'
p34
aS'Liten tilleggsbelastning'
p35
aS'Liten tilleggsbelastning'
p36
aS'Stor tilleggsbelastning'
p37
aS'Liten tilleggsbelastning'
p38
aS'Liten tilleggsbelastning'
p39
aS'Liten tilleggsbelastning'
p40
aS'Liten tilleggsbelastning'
p41
aS'Liten tilleggsbelastning'
p42
aS'Liten tilleggsbelastning'
p43
aS'Liten tilleggsbelastning'
p44
aS'Liten tilleggsbelastning'
p45
aS'Liten tilleggsbelastning'
p46
aS'Liten tilleggsbelastning'
p47
aS'Liten tilleggsbelastning'
p48
aS'Liten tilleggsbelastning'
p49
aS'Liten tilleggsbelastning'
p50
aS'Liten tilleggsbelastning'
p51
aS'Liten tilleggsbelastning'
p52
aS'Liten tilleggsbelastning'
p53
aS'Liten tilleggsbelastning'
p54
aS'Liten tilleggsbelastning'
p55
aS'Liten tilleggsbelastning'
p56
aS'Stor tilleggsbelastning'
p57
aS'Liten tilleggsbelastning'
p58
aS'Liten tilleggsbelastning'
p59
aS'Liten tilleggsbelastning'
p60
aS'Stor tilleggsbelastning'
p61
aS'Stor tilleggsbelastning'
p62
aS'Liten tilleggsbelastning'
p63
aS'Stor tilleggsbelastning'
p64
aS'Liten tilleggsbelastning'
p65
aS'Liten tilleggsbelastning'
p66
aS'Liten tilleggsbelastning'
p67
aS'Liten tilleggsbelastning'
p68
aS'Liten tilleggsbelastning'
p69
aS'Liten tilleggsbelastning'
p70
aS'Stor tilleggsbelastning'
p71
aS'Stor tilleggsbelastning'
p72
aS'Stor tilleggsbelastning'
p73
aS'Liten tilleggsbelastning'
p74
aS'Stor tilleggsbelastning'
p75
aS'Stor tilleggsbelastning'
p76
aS'Liten tilleggsbelastning'
p77
aS'Liten tilleggsbelastning'
p78
aS'Liten tilleggsbelastning'
p79
aS'Liten tilleggsbelastning'
p80
aS'Liten tilleggsbelastning'
p81
aS'Liten tilleggsbelastning'
p82
aS'Liten tilleggsbelastning'
p83
aS'Liten tilleggsbelastning'
p84
aS'Liten tilleggsbelastning'
p85
aS'Liten tilleggsbelastning'
p86
aS'Liten tilleggsbelastning'
p87
aS'Liten tilleggsbelastning'
p88
aS'Naturlig utloest'
p89
aS'Naturlig utloest'
p90
assS'distribution'
p91
(dp92
g3
(lp93
S'Isolerte faresoner'
p94
aS'Noen bratte heng'
p95
aS'Mange bratte heng'
p96
aS'De fleste bratte heng'
p97
aS'Ogsaa i mindre bratt terreng'
p98
asg8
(lp99
g10
asg11
(lp100
S'Isolerte faresoner'
p101
aS'Isolerte faresoner'
p102
aS'Isolerte faresoner'
p103
aS'Isolerte faresoner'
p104
aS'Isolerte faresoner'
p105
aS'Isolerte faresoner'
p106
aS'Noen bratte heng'
p107
aS'Noen bratte heng'
p108
aS'Noen bratte heng'
p109
aS'Isolerte faresoner'
p110
aS'Noen bratte heng'
p111
aS'Mange bratte heng'
p112
aS'Noen bratte heng'
p113
aS'Noen bratte heng'
p114
aS'Noen bratte heng'
p115
aS'Noen bratte heng'
p116
aS'Noen bratte heng'
p117
aS'Noen bratte heng'
p118
aS'Isolerte faresoner'
p119
aS'Noen bratte heng'
p120
aS'Noen bratte heng'
p121
aS'Noen bratte heng'
p122
aS'Noen bratte heng'
p123
aS'Noen bratte heng'
p124
aS'Noen bratte heng'
p125
aS'Noen bratte heng'
p126
aS'Isolerte faresoner'
p127
aS'Isolerte faresoner'
p128
aS'Noen bratte heng'
p129
aS'Noen bratte heng'
p130
aS'Noen bratte heng'
p131
aS'Isolerte faresoner'
p132
aS'Isolerte faresoner'
p133
aS'Noen bratte heng'
p134
aS'Noen bratte heng'
p135
aS'Noen bratte heng'
p136
aS'Noen bratte heng'
p137
aS'Noen bratte heng'
p138
aS'Noen bratte heng'
p139
aS'Noen bratte heng'
p140
aS'Noen bratte heng'
p141
aS'Noen bratte heng'
p142
aS'Noen bratte heng'
p143
aS'Noen bratte heng'
p144
aS'Noen bratte heng'
p145
aS'Noen bratte heng'
p146
aS'Noen bratte heng'
p147
aS'Noen bratte heng'
p148
aS'Noen bratte heng'
p149
aS'Noen bratte heng'
p150
aS'Noen bratte heng'
p151
aS'Noen bratte heng'
p152
aS'Noen bratte heng'
p153
aS'Noen bratte heng'
p154
aS'Noen bratte heng'
p155
aS'Noen bratte heng'
p156
aS'Noen bratte heng'
p157
aS'Noen bratte heng'
p158
aS'Noen bratte heng'
p159
aS'Noen bratte heng'
p160
aS'Noen bratte heng'
p161
aS'Noen bratte heng'
p162
aS'Noen bratte heng'
p163
aS'Noen bratte heng'
p164
aS'Noen bratte heng'
p165
aS'Noen bratte heng'
p166
aS'Noen bratte heng'
p167
aS'Noen bratte heng'
p168
aS'Noen bratte heng'
p169
aS'Noen bratte heng'
p170
aS'Noen bratte heng'
p171
aS'Noen bratte heng'
p172
aS'Noen bratte heng'
p173
aS'Noen bratte heng'
p174
aS'Noen bratte heng'
p175
aS'Noen bratte heng'
p176
aS'Noen bratte heng'
p177
aS'Noen bratte heng'
p178
assS'size'
p179
(dp180
g3
(lp181
S'1 - Harmloest'
p182
aS'2 - Smaa'
p183
aS'3 - Middels'
p184
aS'4 - Store'
p185
aS'5 - Svaert store'
p186
aS'Ukjent'
p187
asg8
(lp188
g10
asg11
(lp189
S'2 - Smaa'
p190
aS'3 - Middels'
p191
aS'2 - Smaa'
p192
aS'2 - Smaa'
p193
aS'2 - Smaa'
p194
aS'2 - Smaa'
p195
aS'2 - Smaa'
p196
aS'2 - Smaa'
p197
aS'2 - Smaa'
p198
aS'2 - Smaa'
p199
aS'2 - Smaa'
p200
aS'2 - Smaa'
p201
aS'2 - Smaa'
p202
aS'3 - Middels'
p203
aS'2 - Smaa'
p204
aS'3 - Middels'
p205
aS'3 - Middels'
p206
aS'2 - Smaa'
p207
aS'2 - Smaa'
p208
aS'2 - Smaa'
p209
aS'3 - Middels'
p210
aS'3 - Middels'
p211
aS'2 - Smaa'
p212
aS'2 - Smaa'
p213
aS'3 - Middels'
p214
aS'2 - Smaa'
p215
aS'2 - Smaa'
p216
aS'2 - Smaa'
p217
aS'2 - Smaa'
p218
aS'2 - Smaa'
p219
aS'2 - Smaa'
p220
aS'2 - Smaa'
p221
aS'2 - Smaa'
p222
aS'2 - Smaa'
p223
aS'2 - Smaa'
p224
aS'2 - Smaa'
p225
aS'2 - Smaa'
p226
aS'2 - Smaa'
p227
aS'3 - Middels'
p228
aS'3 - Middels'
p229
aS'2 - Smaa'
p230
aS'2 - Smaa'
p231
aS'2 - Smaa'
p232
aS'2 - Smaa'
p233
aS'2 - Smaa'
p234
aS'2 - Smaa'
p235
aS'2 - Smaa'
p236
aS'2 - Smaa'
p237
aS'2 - Smaa'
p238
aS'2 - Smaa'
p239
aS'2 - Smaa'
p240
aS'3 - Middels'
p241
aS'2 - Smaa'
p242
aS'2 - Smaa'
p243
aS'2 - Smaa'
p244
aS'1 - Harmloest'
p245
aS'1 - Harmloest'
p246
aS'2 - Smaa'
p247
aS'3 - Middels'
p248
aS'2 - Smaa'
p249
aS'2 - Smaa'
p250
aS'2 - Smaa'
p251
aS'2 - Smaa'
p252
aS'2 - Smaa'
p253
aS'2 - Smaa'
p254
aS'2 - Smaa'
p255
aS'2 - Smaa'
p256
aS'2 - Smaa'
p257
aS'2 - Smaa'
p258
aS'2 - Smaa'
p259
aS'2 - Smaa'
p260
aS'2 - Smaa'
p261
aS'2 - Smaa'
p262
aS'2 - Smaa'
p263
aS'2 - Smaa'
p264
aS'2 - Smaa'
p265
aS'2 - Smaa'
p266
aS'2 - Smaa'
p267
assS'probability'
p268
(dp269
g3
(lp270
S'Lite sannsynlig'
p271
aS'Mulig'
p272
aS'Sannsynlig'
p273
aS'Meget sannsynlig'
p274
asg8
(lp275
g10
asg11
(lp276
S'Mulig'
p277
aS'Mulig'
p278
aS'Mulig'
p279
aS'Mulig'
p280
aS'Mulig'
p281
aS'Mulig'
p282
aS'Mulig'
p283
aS'Mulig'
p284
aS'Mulig'
p285
aS'Mulig'
p286
aS'Mulig'
p287
aS'Mulig'
p288
aS'Mulig'
p289
aS'Mulig'
p290
aS'Mulig'
p291
aS'Mulig'
p292
aS'Mulig'
p293
aS'Mulig'
p294
aS'Mulig'
p295
aS'Mulig'
p296
aS'Mulig'
p297
aS'Sannsynlig'
p298
aS'Mulig'
p299
aS'Mulig'
p300
aS'Lite sannsynlig'
p301
aS'Mulig'
p302
aS'Mulig'
p303
aS'Mulig'
p304
aS'Mulig'
p305
aS'Mulig'
p306
aS'Mulig'
p307
aS'Mulig'
p308
aS'Mulig'
p309
aS'Mulig'
p310
aS'Mulig'
p311
aS'Mulig'
p312
aS'Mulig'
p313
aS'Mulig'
p314
aS'Mulig'
p315
aS'Mulig'
p316
aS'Mulig'
p317
aS'Mulig'
p318
aS'Mulig'
p319
aS'Mulig'
p320
aS'Mulig'
p321
aS'Mulig'
p322
aS'Mulig'
p323
aS'Mulig'
p324
aS'Mulig'
p325
aS'Mulig'
p326
aS'Mulig'
p327
aS'Mulig'
p328
aS'Mulig'
p329
aS'Mulig'
p330
aS'Mulig'
p331
aS'Mulig'
p332
aS'Mulig'
p333
aS'Mulig'
p334
aS'Mulig'
p335
aS'Mulig'
p336
aS'Mulig'
p337
aS'Mulig'
p338
aS'Mulig'
p339
aS'Mulig'
p340
aS'Mulig'
p341
aS'Mulig'
p342
aS'Mulig'
p343
aS'Mulig'
p344
aS'Mulig'
p345
aS'Mulig'
p346
aS'Mulig'
p347
aS'Mulig'
p348
aS'Mulig'
p349
aS'Mulig'
p350
aS'Mulig'
p351
aS'Mulig'
p352
aS'Mulig'
p353
aS'Mulig'
p354
assS'level'
p355
(dp356
g3
(lp357
I1
aI2
aI3
aI4
aI5
asg8
(lp358
S'#ccff66'
p359
aS'#ffff00'
p360
aS'#ff9900'
p361
aS'#ff0000'
p362
aS'k'
p363
asg11
(lp364
I2
aI2
aI2
aI2
aI2
aI2
aI2
aI2
aI2
aI2
aI2
aI3
aI2
aI3
aI2
aI3
aI3
aI2
aI1
aI3
aI3
aI4
aI3
aI2
aI2
aI2
aI1
aI1
aI2
aI2
aI2
aI1
aI1
aI2
aI2
aI2
aI2
aI2
aI3
aI3
aI2
aI2
aI2
aI2
aI2
aI2
aI2
aI2
aI2
aI2
aI2
aI2
aI2
aI2
aI2
aI2
aI2
aI2
aI2
aI2
aI2
aI2
aI2
aI2
aI2
aI2
aI2
aI2
aI2
aI2
aI2
aI2
aI2
aI2
aI2
aI2
aI2
aI2
ass.