(lp0
(lp1
(igetproblems
AvalancheProblem
p2
(dp3
S'municipal_name'
p4
S'FAUSKE'
p5
sS'nick_name'
p6
VJohanK
p7
sS'region_id'
p8
I133
sS'aval_probability'
p9
NsS'regobs_view'
p10
S'AvalancheEvalProblem2V'
p11
sS'regid'
p12
I55936
sS'aval_distribution'
p13
NsS'url'
p14
S'http://www.regobs.no/Registration/55936'
p15
sS'aval_type'
p16
NsS'aval_trigger'
p17
NsS'main_cause'
p18
NsS'source'
p19
S'Observasjon'
p20
sS'aval_size'
p21
NsS'problem_combined'
p22
S'Daarlig binding mellom lag i fokksnoeen'
p23
sS'cause_name'
p24
S'I fokksnoeen'
p25
sS'date'
p26
cdatetime
date
p27
(S'\x07\xdf\x03\x0b'
p28
tp29
Rp30
sS'metadata'
p31
(dp32
sS'order'
p33
I0
sS'cause_tid'
p34
I15
sS'region_name'
p35
S'Salten'
p36
sba(igetproblems
AvalancheProblem
p37
(dp38
g4
Nsg6
Nsg8
I133
sg9
S'Sannsynlig'
p39
sg10
S'AvalancheWarnProblemV'
p40
sg12
Nsg13
S'Noen bratte heng'
p41
sg14
S'http://www.varsom.no/Snoskred/Salten/?date=13.03.2015'
p42
sg16
S'Toerre flakskred'
p43
sg17
S'Liten tilleggsbelastning'
p44
sg18
S'Fokksnoe'
p45
sg19
S'Varsel'
p46
sg21
S'2 - Smaa'
p47
sg22
S'Daarlig binding mellom lag i fokksnoeen'
p48
sg24
S'I fokksnoeen'
p49
sg26
g27
(S'\x07\xdf\x03\r'
p50
tp51
Rp52
sg31
(dp53
sg33
I0
sg34
I15
sg35
S'Salten'
p54
sba(igetproblems
AvalancheProblem
p55
(dp56
g4
Nsg6
Nsg8
I133
sg9
S'Mulig'
p57
sg10
g40
sg12
Nsg13
S'Noen bratte heng'
p58
sg14
S'http://www.varsom.no/Snoskred/Salten/?date=14.03.2015'
p59
sg16
S'Toerre flakskred'
p60
sg17
S'Stor tilleggsbelastning'
p61
sg18
g45
sg19
S'Varsel'
p62
sg21
S'2 - Smaa'
p63
sg22
S'Daarlig binding mellom lag i fokksnoeen'
p64
sg24
S'I fokksnoeen'
p65
sg26
g27
(S'\x07\xdf\x03\x0e'
p66
tp67
Rp68
sg31
(dp69
sg33
I0
sg34
I15
sg35
S'Salten'
p70
sba(igetproblems
AvalancheProblem
p71
(dp72
g4
S'BOD'
p73
sg6
Vper@SVV
p74
sg8
I133
sg9
Nsg10
g11
sg12
I56422
sg13
Nsg14
S'http://www.regobs.no/Registration/56422'
p75
sg16
Nsg17
Nsg18
Nsg19
S'Observasjon'
p76
sg21
Nsg22
S'Ubundet loes snoe'
p77
sg24
S'Ubundet loes snoe'
p78
sg26
g27
(S'\x07\xdf\x03\x0f'
p79
tp80
Rp81
sg31
(dp82
sg33
I0
sg34
I24
sg35
S'Salten'
p83
sba(igetproblems
AvalancheProblem
p84
(dp85
g4
Nsg6
Nsg8
I133
sg9
S'Mulig'
p86
sg10
g40
sg12
Nsg13
S'Noen bratte heng'
p87
sg14
S'http://www.varsom.no/Snoskred/Salten/?date=15.03.2015'
p88
sg16
S'Toerre flakskred'
p89
sg17
S'Stor tilleggsbelastning'
p90
sg18
g45
sg19
S'Varsel'
p91
sg21
S'2 - Smaa'
p92
sg22
S'Daarlig binding mellom lag i fokksnoeen'
p93
sg24
S'I fokksnoeen'
p94
sg26
g27
(S'\x07\xdf\x03\x0f'
p95
tp96
Rp97
sg31
(dp98
sg33
I0
sg34
I15
sg35
S'Salten'
p99
sba(igetproblems
AvalancheProblem
p100
(dp101
g4
Nsg6
Nsg8
I133
sg9
S'Mulig'
p102
sg10
g40
sg12
Nsg13
S'Isolerte faresoner'
p103
sg14
S'http://www.varsom.no/Snoskred/Salten/?date=16.03.2015'
p104
sg16
S'Toerre flakskred'
p105
sg17
S'Stor tilleggsbelastning'
p106
sg18
g45
sg19
S'Varsel'
p107
sg21
S'2 - Smaa'
p108
sg22
S'Daarlig binding mellom lag i fokksnoeen'
p109
sg24
S'I fokksnoeen'
p110
sg26
g27
(S'\x07\xdf\x03\x10'
p111
tp112
Rp113
sg31
(dp114
sg33
I0
sg34
I15
sg35
S'Salten'
p115
sba(igetproblems
AvalancheProblem
p116
(dp117
g4
S'FAUSKE'
p118
sg6
VSindreH@ObsKorps
p119
sg8
I133
sg9
Nsg10
g11
sg12
I56697
sg13
Nsg14
S'http://www.regobs.no/Registration/56697'
p120
sg16
Nsg17
Nsg18
Nsg19
S'Observasjon'
p121
sg21
S'2 - Smaa'
p122
sg22
S'Daarlig binding mellom lag i fokksnoeen'
p123
sg24
S'I fokksnoeen'
p124
sg26
g27
(S'\x07\xdf\x03\x11'
p125
tp126
Rp127
sg31
(dp128
sg33
I0
sg34
I15
sg35
S'Salten'
p129
sba(igetproblems
AvalancheProblem
p130
(dp131
g4
Nsg6
Nsg8
I133
sg9
S'Mulig'
p132
sg10
g40
sg12
Nsg13
S'Isolerte faresoner'
p133
sg14
S'http://www.varsom.no/Snoskred/Salten/?date=17.03.2015'
p134
sg16
S'Toerre flakskred'
p135
sg17
S'Stor tilleggsbelastning'
p136
sg18
g45
sg19
S'Varsel'
p137
sg21
S'2 - Smaa'
p138
sg22
S'Daarlig binding mellom lag i fokksnoeen'
p139
sg24
S'I fokksnoeen'
p140
sg26
g27
(S'\x07\xdf\x03\x11'
p141
tp142
Rp143
sg31
(dp144
sg33
I0
sg34
I15
sg35
S'Salten'
p145
sba(igetproblems
AvalancheProblem
p146
(dp147
g4
Nsg6
Nsg8
I133
sg9
S'Mulig'
p148
sg10
g40
sg12
Nsg13
S'Noen bratte heng'
p149
sg14
S'http://www.varsom.no/Snoskred/Salten/?date=18.03.2015'
p150
sg16
S'Vaate loessnoeskred'
p151
sg17
S'Naturlig utloest'
p152
sg18
S'Vaat snoe'
p153
sg19
S'Varsel'
p154
sg21
S'2 - Smaa'
p155
sg22
S'Regn / temperaturstigning / soloppvarming'
p156
sg24
S'Regn/temperaturstigning'
p157
sg26
g27
(S'\x07\xdf\x03\x12'
p158
tp159
Rp160
sg31
(dp161
sg33
I1
sg34
I25
sg35
S'Salten'
p162
sba(igetproblems
AvalancheProblem
p163
(dp164
g4
Nsg6
Nsg8
I133
sg9
S'Mulig'
p165
sg10
g40
sg12
Nsg13
S'Noen bratte heng'
p166
sg14
S'http://www.varsom.no/Snoskred/Salten/?date=19.03.2015'
p167
sg16
S'Toerre flakskred'
p168
sg17
S'Liten tilleggsbelastning'
p169
sg18
g45
sg19
S'Varsel'
p170
sg21
S'2 - Smaa'
p171
sg22
S'Nedsnoedd eller nedfoeyket svakt lag med loes nysnoe'
p172
sg24
S'Lag med loes nysnoe'
p173
sg26
g27
(S'\x07\xdf\x03\x13'
p174
tp175
Rp176
sg31
(dp177
sg33
I1
sg34
I10
sg35
S'Salten'
p178
sba(igetproblems
AvalancheProblem
p179
(dp180
g4
Nsg6
Nsg8
I133
sg9
S'Mulig'
p181
sg10
g40
sg12
Nsg13
S'Noen bratte heng'
p182
sg14
S'http://www.varsom.no/Snoskred/Salten/?date=20.03.2015'
p183
sg16
S'Toerre flakskred'
p184
sg17
S'Liten tilleggsbelastning'
p185
sg18
g45
sg19
S'Varsel'
p186
sg21
S'2 - Smaa'
p187
sg22
S'Nedsnoedd eller nedfoeyket svakt lag med loes nysnoe'
p188
sg24
S'Lag med loes nysnoe'
p189
sg26
g27
(S'\x07\xdf\x03\x14'
p190
tp191
Rp192
sg31
(dp193
sg33
I1
sg34
I10
sg35
S'Salten'
p194
sba(igetproblems
AvalancheProblem
p195
(dp196
g4
Nsg6
Nsg8
I133
sg9
S'Mulig'
p197
sg10
g40
sg12
Nsg13
S'Noen bratte heng'
p198
sg14
S'http://www.varsom.no/Snoskred/Salten/?date=21.03.2015'
p199
sg16
S'Toerre flakskred'
p200
sg17
S'Liten tilleggsbelastning'
p201
sg18
g45
sg19
S'Varsel'
p202
sg21
S'2 - Smaa'
p203
sg22
S'Nedsnoedd eller nedfoeyket svakt lag med loes nysnoe'
p204
sg24
S'Lag med loes nysnoe'
p205
sg26
g27
(S'\x07\xdf\x03\x15'
p206
tp207
Rp208
sg31
(dp209
sg33
I0
sg34
I10
sg35
S'Salten'
p210
sba(igetproblems
AvalancheProblem
p211
(dp212
g4
Nsg6
Nsg8
I133
sg9
S'Mulig'
p213
sg10
g40
sg12
Nsg13
S'Noen bratte heng'
p214
sg14
S'http://www.varsom.no/Snoskred/Salten/?date=22.03.2015'
p215
sg16
S'Toerre flakskred'
p216
sg17
S'Liten tilleggsbelastning'
p217
sg18
g45
sg19
S'Varsel'
p218
sg21
S'3 - Middels'
p219
sg22
S'Nedsnoedd eller nedfoeyket svakt lag med loes nysnoe'
p220
sg24
S'Lag med loes nysnoe'
p221
sg26
g27
(S'\x07\xdf\x03\x16'
p222
tp223
Rp224
sg31
(dp225
sg33
I0
sg34
I10
sg35
S'Salten'
p226
sba(igetproblems
AvalancheProblem
p227
(dp228
g4
Nsg6
Nsg8
I133
sg9
S'Mulig'
p229
sg10
g40
sg12
Nsg13
S'Isolerte faresoner'
p230
sg14
S'http://www.varsom.no/Snoskred/Salten/?date=22.03.2015'
p231
sg16
S'Vaate loessnoeskred'
p232
sg17
S'Naturlig utloest'
p233
sg18
g153
sg19
S'Varsel'
p234
sg21
S'2 - Smaa'
p235
sg22
S'Regn / temperaturstigning / soloppvarming'
p236
sg24
S'Regn/temperaturstigning'
p237
sg26
g27
(S'\x07\xdf\x03\x16'
p238
tp239
Rp240
sg31
(dp241
sg33
I1
sg34
I25
sg35
S'Salten'
p242
sba(igetproblems
AvalancheProblem
p243
(dp244
g4
S'FAUSKE'
p245
sg6
VSindreH@ObsKorps
p246
sg8
I133
sg9
Nsg10
g11
sg12
I57405
sg13
Nsg14
S'http://www.regobs.no/Registration/57405'
p247
sg16
Nsg17
Nsg18
Nsg19
S'Observasjon'
p248
sg21
S'2 - Smaa'
p249
sg22
S'Nedsnoedd eller nedfoeyket svakt lag med loes nysnoe'
p250
sg24
S'Lag med loes nysnoe'
p251
sg26
g27
(S'\x07\xdf\x03\x17'
p252
tp253
Rp254
sg31
(dp255
sg33
I0
sg34
I10
sg35
S'Salten'
p256
sba(igetproblems
AvalancheProblem
p257
(dp258
g4
Nsg6
Nsg8
I133
sg9
S'Mulig'
p259
sg10
g40
sg12
Nsg13
S'Noen bratte heng'
p260
sg14
S'http://www.varsom.no/Snoskred/Salten/?date=23.03.2015'
p261
sg16
S'Toerre flakskred'
p262
sg17
S'Stor tilleggsbelastning'
p263
sg18
g45
sg19
S'Varsel'
p264
sg21
S'2 - Smaa'
p265
sg22
S'Daarlig binding mellom lag i fokksnoeen'
p266
sg24
S'I fokksnoeen'
p267
sg26
g27
(S'\x07\xdf\x03\x17'
p268
tp269
Rp270
sg31
(dp271
sg33
I0
sg34
I15
sg35
S'Salten'
p272
sba(igetproblems
AvalancheProblem
p273
(dp274
g4
S'FAUSKE'
p275
sg6
VDagTheodor@SVV
p276
sg8
I133
sg9
Nsg10
g11
sg12
I57512
sg13
Nsg14
S'http://www.regobs.no/Registration/57512'
p277
sg16
Nsg17
Nsg18
Nsg19
S'Observasjon'
p278
sg21
S'2 - Smaa'
p279
sg22
S'Daarlig binding mellom lag i fokksnoeen'
p280
sg24
S'I fokksnoeen'
p281
sg26
g27
(S'\x07\xdf\x03\x18'
p282
tp283
Rp284
sg31
(dp285
sg33
I0
sg34
I15
sg35
S'Salten'
p286
sba(igetproblems
AvalancheProblem
p287
(dp288
g4
Nsg6
Nsg8
I133
sg9
S'Mulig'
p289
sg10
g40
sg12
Nsg13
S'Noen bratte heng'
p290
sg14
S'http://www.varsom.no/Snoskred/Salten/?date=24.03.2015'
p291
sg16
S'Toerre flakskred'
p292
sg17
S'Stor tilleggsbelastning'
p293
sg18
g45
sg19
S'Varsel'
p294
sg21
S'2 - Smaa'
p295
sg22
S'Daarlig binding mellom lag i fokksnoeen'
p296
sg24
S'I fokksnoeen'
p297
sg26
g27
(S'\x07\xdf\x03\x18'
p298
tp299
Rp300
sg31
(dp301
sg33
I0
sg34
I15
sg35
S'Salten'
p302
sba(igetproblems
AvalancheProblem
p303
(dp304
g4
Nsg6
Nsg8
I133
sg9
S'Mulig'
p305
sg10
g40
sg12
Nsg13
S'Noen bratte heng'
p306
sg14
S'http://www.varsom.no/Snoskred/Salten/?date=25.03.2015'
p307
sg16
S'Toerre flakskred'
p308
sg17
S'Stor tilleggsbelastning'
p309
sg18
g45
sg19
S'Varsel'
p310
sg21
S'2 - Smaa'
p311
sg22
S'Daarlig binding mellom lag i fokksnoeen'
p312
sg24
S'I fokksnoeen'
p313
sg26
g27
(S'\x07\xdf\x03\x19'
p314
tp315
Rp316
sg31
(dp317
sg33
I0
sg34
I15
sg35
S'Salten'
p318
sba(igetproblems
AvalancheProblem
p319
(dp320
g4
S'FAUSKE'
p321
sg6
VSindreH@ObsKorps
p322
sg8
I133
sg9
Nsg10
g11
sg12
I57806
sg13
Nsg14
S'http://www.regobs.no/Registration/57806'
p323
sg16
Nsg17
Nsg18
Nsg19
S'Observasjon'
p324
sg21
S'2 - Smaa'
p325
sg22
S'Daarlig binding mellom lag i fokksnoeen'
p326
sg24
S'I fokksnoeen'
p327
sg26
g27
(S'\x07\xdf\x03\x1a'
p328
tp329
Rp330
sg31
(dp331
sg33
I0
sg34
I15
sg35
S'Salten'
p332
sba(igetproblems
AvalancheProblem
p333
(dp334
g4
Nsg6
Nsg8
I133
sg9
S'Mulig'
p335
sg10
g40
sg12
Nsg13
S'Noen bratte heng'
p336
sg14
S'http://www.varsom.no/Snoskred/Salten/?date=26.03.2015'
p337
sg16
S'Toerre flakskred'
p338
sg17
S'Stor tilleggsbelastning'
p339
sg18
g45
sg19
S'Varsel'
p340
sg21
S'2 - Smaa'
p341
sg22
S'Daarlig binding mellom lag i fokksnoeen'
p342
sg24
S'I fokksnoeen'
p343
sg26
g27
(S'\x07\xdf\x03\x1a'
p344
tp345
Rp346
sg31
(dp347
sg33
I0
sg34
I15
sg35
S'Salten'
p348
sba(igetproblems
AvalancheProblem
p349
(dp350
g4
S'FAUSKE'
p351
sg6
Vper@SVV
p352
sg8
I133
sg9
Nsg10
g11
sg12
I57881
sg13
Nsg14
S'http://www.regobs.no/Registration/57881'
p353
sg16
Nsg17
Nsg18
Nsg19
S'Observasjon'
p354
sg21
S'2 - Smaa'
p355
sg22
S'Ubundet loes snoe'
p356
sg24
S'Ubundet loes snoe'
p357
sg26
g27
(S'\x07\xdf\x03\x1b'
p358
tp359
Rp360
sg31
(dp361
sg33
I0
sg34
I24
sg35
S'Salten'
p362
sba(igetproblems
AvalancheProblem
p363
(dp364
g4
Nsg6
Nsg8
I133
sg9
S'Mulig'
p365
sg10
g40
sg12
Nsg13
S'Noen bratte heng'
p366
sg14
S'http://www.varsom.no/Snoskred/Salten/?date=27.03.2015'
p367
sg16
S'Toerre flakskred'
p368
sg17
S'Stor tilleggsbelastning'
p369
sg18
g45
sg19
S'Varsel'
p370
sg21
S'2 - Smaa'
p371
sg22
S'Daarlig binding mellom lag i fokksnoeen'
p372
sg24
S'I fokksnoeen'
p373
sg26
g27
(S'\x07\xdf\x03\x1b'
p374
tp375
Rp376
sg31
(dp377
sg33
I0
sg34
I15
sg35
S'Salten'
p378
sba(igetproblems
AvalancheProblem
p379
(dp380
g4
S'SALTDAL'
p381
sg6
VBjelvin
p382
sg8
I133
sg9
Nsg10
g11
sg12
I58034
sg13
Nsg14
S'http://www.regobs.no/Registration/58034'
p383
sg16
Nsg17
Nsg18
Nsg19
S'Observasjon'
p384
sg21
Nsg22
S'Kantkornet snoe under skarelag'
p385
sg24
S'Kantkornet under skaren'
p386
sg26
g27
(S'\x07\xdf\x03\x1c'
p387
tp388
Rp389
sg31
(dp390
sg33
I0
sg34
I19
sg35
S'Salten'
p391
sba(igetproblems
AvalancheProblem
p392
(dp393
g4
Nsg6
Nsg8
I133
sg9
S'Mulig'
p394
sg10
g40
sg12
Nsg13
S'Noen bratte heng'
p395
sg14
S'http://www.varsom.no/Snoskred/Salten/?date=28.03.2015'
p396
sg16
S'Toerre flakskred'
p397
sg17
S'Stor tilleggsbelastning'
p398
sg18
g45
sg19
S'Varsel'
p399
sg21
S'2 - Smaa'
p400
sg22
S'Daarlig binding mellom lag i fokksnoeen'
p401
sg24
S'I fokksnoeen'
p402
sg26
g27
(S'\x07\xdf\x03\x1c'
p403
tp404
Rp405
sg31
(dp406
sg33
I0
sg34
I15
sg35
S'Salten'
p407
sba(igetproblems
AvalancheProblem
p408
(dp409
g4
Nsg6
Nsg8
I133
sg9
S'Mulig'
p410
sg10
g40
sg12
Nsg13
S'Isolerte faresoner'
p411
sg14
S'http://www.varsom.no/Snoskred/Salten/?date=29.03.2015'
p412
sg16
S'Toerre flakskred'
p413
sg17
S'Stor tilleggsbelastning'
p414
sg18
g45
sg19
S'Varsel'
p415
sg21
S'2 - Smaa'
p416
sg22
S'Daarlig binding mellom lag i fokksnoeen'
p417
sg24
S'I fokksnoeen'
p418
sg26
g27
(S'\x07\xdf\x03\x1d'
p419
tp420
Rp421
sg31
(dp422
sg33
I0
sg34
I15
sg35
S'Salten'
p423
sba(igetproblems
AvalancheProblem
p424
(dp425
g4
S'FAUSKE'
p426
sg6
VSindreH@ObsKorps
p427
sg8
I133
sg9
Nsg10
g11
sg12
I58241
sg13
Nsg14
S'http://www.regobs.no/Registration/58241'
p428
sg16
Nsg17
Nsg18
Nsg19
S'Observasjon'
p429
sg21
S'2 - Smaa'
p430
sg22
S'Snoedekket gjennomfuktet og ustabilt fra overflaten'
p431
sg24
S'Gjennomfuktet fra overflaten'
p432
sg26
g27
(S'\x07\xdf\x03\x1e'
p433
tp434
Rp435
sg31
(dp436
sg33
I0
sg34
I21
sg35
S'Salten'
p437
sba(igetproblems
AvalancheProblem
p438
(dp439
g4
Nsg6
Nsg8
I133
sg9
S'Mulig'
p440
sg10
g40
sg12
Nsg13
S'Isolerte faresoner'
p441
sg14
S'http://www.varsom.no/Snoskred/Salten/?date=30.03.2015'
p442
sg16
S'Toerre flakskred'
p443
sg17
S'Stor tilleggsbelastning'
p444
sg18
g45
sg19
S'Varsel'
p445
sg21
S'2 - Smaa'
p446
sg22
S'Daarlig binding mellom lag i fokksnoeen'
p447
sg24
S'I fokksnoeen'
p448
sg26
g27
(S'\x07\xdf\x03\x1e'
p449
tp450
Rp451
sg31
(dp452
sg33
I0
sg34
I15
sg35
S'Salten'
p453
sba(igetproblems
AvalancheProblem
p454
(dp455
g4
Nsg6
Nsg8
I133
sg9
S'Mulig'
p456
sg10
g40
sg12
Nsg13
S'Mange bratte heng'
p457
sg14
S'http://www.varsom.no/Snoskred/Salten/?date=31.03.2015'
p458
sg16
S'Toerre flakskred'
p459
sg17
S'Stor tilleggsbelastning'
p460
sg18
g45
sg19
S'Varsel'
p461
sg21
S'2 - Smaa'
p462
sg22
S'Daarlig binding mellom lag i fokksnoeen'
p463
sg24
S'I fokksnoeen'
p464
sg26
g27
(S'\x07\xdf\x03\x1f'
p465
tp466
Rp467
sg31
(dp468
sg33
I0
sg34
I15
sg35
S'Salten'
p469
sba(igetproblems
AvalancheProblem
p470
(dp471
g4
Nsg6
Nsg8
I133
sg9
S'Mulig'
p472
sg10
g40
sg12
Nsg13
S'Noen bratte heng'
p473
sg14
S'http://www.varsom.no/Snoskred/Salten/?date=01.04.2015'
p474
sg16
S'Toerre flakskred'
p475
sg17
S'Liten tilleggsbelastning'
p476
sg18
g45
sg19
S'Varsel'
p477
sg21
S'2 - Smaa'
p478
sg22
S'Nedsnoedd eller nedfoeyket svakt lag med loes nysnoe'
p479
sg24
S'Lag med loes nysnoe'
p480
sg26
g27
(S'\x07\xdf\x04\x01'
p481
tp482
Rp483
sg31
(dp484
sg33
I0
sg34
I10
sg35
S'Salten'
p485
sba(igetproblems
AvalancheProblem
p486
(dp487
g4
S'FAUSKE'
p488
sg6
VSindreH@ObsKorps
p489
sg8
I133
sg9
Nsg10
g11
sg12
I58599
sg13
Nsg14
S'http://www.regobs.no/Registration/58599'
p490
sg16
Nsg17
Nsg18
Nsg19
S'Observasjon'
p491
sg21
S'2 - Smaa'
p492
sg22
S'Snoedekket gjennomfuktet og ustabilt fra overflaten'
p493
sg24
S'Gjennomfuktet fra overflaten'
p494
sg26
g27
(S'\x07\xdf\x04\x02'
p495
tp496
Rp497
sg31
(dp498
sg33
I0
sg34
I21
sg35
S'Salten'
p499
sba(igetproblems
AvalancheProblem
p500
(dp501
g4
Nsg6
Nsg8
I133
sg9
S'Mulig'
p502
sg10
g40
sg12
Nsg13
S'Noen bratte heng'
p503
sg14
S'http://www.varsom.no/Snoskred/Salten/?date=02.04.2015'
p504
sg16
S'Toerre flakskred'
p505
sg17
S'Stor tilleggsbelastning'
p506
sg18
g45
sg19
S'Varsel'
p507
sg21
S'2 - Smaa'
p508
sg22
S'Daarlig binding mellom lag i fokksnoeen'
p509
sg24
S'I fokksnoeen'
p510
sg26
g27
(S'\x07\xdf\x04\x02'
p511
tp512
Rp513
sg31
(dp514
sg33
I0
sg34
I15
sg35
S'Salten'
p515
sba(igetproblems
AvalancheProblem
p516
(dp517
g4
Nsg6
Nsg8
I133
sg9
S'Mulig'
p518
sg10
g40
sg12
Nsg13
S'Noen bratte heng'
p519
sg14
S'http://www.varsom.no/Snoskred/Salten/?date=03.04.2015'
p520
sg16
S'Toerre flakskred'
p521
sg17
S'Stor tilleggsbelastning'
p522
sg18
g45
sg19
S'Varsel'
p523
sg21
S'2 - Smaa'
p524
sg22
S'Daarlig binding mellom lag i fokksnoeen'
p525
sg24
S'I fokksnoeen'
p526
sg26
g27
(S'\x07\xdf\x04\x03'
p527
tp528
Rp529
sg31
(dp530
sg33
I0
sg34
I15
sg35
S'Salten'
p531
sba(igetproblems
AvalancheProblem
p532
(dp533
g4
Nsg6
Nsg8
I133
sg9
S'Mulig'
p534
sg10
g40
sg12
Nsg13
S'Noen bratte heng'
p535
sg14
S'http://www.varsom.no/Snoskred/Salten/?date=03.04.2015'
p536
sg16
S'Vaate loessnoeskred'
p537
sg17
S'Naturlig utloest'
p538
sg18
g153
sg19
S'Varsel'
p539
sg21
S'1 - Harmloest'
p540
sg22
S'Regn / temperaturstigning / soloppvarming'
p541
sg24
S'Regn/temperaturstigning'
p542
sg26
g27
(S'\x07\xdf\x04\x03'
p543
tp544
Rp545
sg31
(dp546
sg33
I1
sg34
I25
sg35
S'Salten'
p547
sba(igetproblems
AvalancheProblem
p548
(dp549
g4
Nsg6
Nsg8
I133
sg9
S'Mulig'
p550
sg10
g40
sg12
Nsg13
S'Noen bratte heng'
p551
sg14
S'http://www.varsom.no/Snoskred/Salten/?date=04.04.2015'
p552
sg16
S'Toerre flakskred'
p553
sg17
S'Stor tilleggsbelastning'
p554
sg18
g45
sg19
S'Varsel'
p555
sg21
S'2 - Smaa'
p556
sg22
S'Daarlig binding mellom lag i fokksnoeen'
p557
sg24
S'I fokksnoeen'
p558
sg26
g27
(S'\x07\xdf\x04\x04'
p559
tp560
Rp561
sg31
(dp562
sg33
I0
sg34
I15
sg35
S'Salten'
p563
sba(igetproblems
AvalancheProblem
p564
(dp565
g4
Nsg6
Nsg8
I133
sg9
S'Sannsynlig'
p566
sg10
g40
sg12
Nsg13
S'Noen bratte heng'
p567
sg14
S'http://www.varsom.no/Snoskred/Salten/?date=04.04.2015'
p568
sg16
S'Vaate loessnoeskred'
p569
sg17
S'Naturlig utloest'
p570
sg18
g153
sg19
S'Varsel'
p571
sg21
S'2 - Smaa'
p572
sg22
S'Regn / temperaturstigning / soloppvarming'
p573
sg24
S'Regn/temperaturstigning'
p574
sg26
g27
(S'\x07\xdf\x04\x04'
p575
tp576
Rp577
sg31
(dp578
sg33
I1
sg34
I25
sg35
S'Salten'
p579
sba(igetproblems
AvalancheProblem
p580
(dp581
g4
Nsg6
Nsg8
I133
sg9
S'Mulig'
p582
sg10
g40
sg12
Nsg13
S'Isolerte faresoner'
p583
sg14
S'http://www.varsom.no/Snoskred/Salten/?date=05.04.2015'
p584
sg16
S'Toerre flakskred'
p585
sg17
S'Liten tilleggsbelastning'
p586
sg18
g45
sg19
S'Varsel'
p587
sg21
S'2 - Smaa'
p588
sg22
S'Daarlig binding mellom lag i fokksnoeen'
p589
sg24
S'I fokksnoeen'
p590
sg26
g27
(S'\x07\xdf\x04\x05'
p591
tp592
Rp593
sg31
(dp594
sg33
I1
sg34
I15
sg35
S'Salten'
p595
sba(igetproblems
AvalancheProblem
p596
(dp597
g4
Nsg6
Nsg8
I133
sg9
S'Mulig'
p598
sg10
g40
sg12
Nsg13
S'Mange bratte heng'
p599
sg14
S'http://www.varsom.no/Snoskred/Salten/?date=06.04.2015'
p600
sg16
S'Toerre flakskred'
p601
sg17
S'Liten tilleggsbelastning'
p602
sg18
g45
sg19
S'Varsel'
p603
sg21
S'3 - Middels'
p604
sg22
S'Nedsnoedd eller nedfoeyket svakt lag med loes nysnoe'
p605
sg24
S'Lag med loes nysnoe'
p606
sg26
g27
(S'\x07\xdf\x04\x06'
p607
tp608
Rp609
sg31
(dp610
sg33
I0
sg34
I10
sg35
S'Salten'
p611
sba(igetproblems
AvalancheProblem
p612
(dp613
g4
Nsg6
Nsg8
I133
sg9
S'Mulig'
p614
sg10
g40
sg12
Nsg13
S'Noen bratte heng'
p615
sg14
S'http://www.varsom.no/Snoskred/Salten/?date=06.04.2015'
p616
sg16
S'Vaate loessnoeskred'
p617
sg17
S'Naturlig utloest'
p618
sg18
g153
sg19
S'Varsel'
p619
sg21
S'2 - Smaa'
p620
sg22
S'Snoedekket er overmettet av vann'
p621
sg24
S'Snoedekket er overmettet av vann'
p622
sg26
g27
(S'\x07\xdf\x04\x06'
p623
tp624
Rp625
sg31
(dp626
sg33
I1
sg34
I23
sg35
S'Salten'
p627
sba(igetproblems
AvalancheProblem
p628
(dp629
g4
Nsg6
Nsg8
I133
sg9
S'Mulig'
p630
sg10
g40
sg12
Nsg13
S'Mange bratte heng'
p631
sg14
S'http://www.varsom.no/Snoskred/Salten/?date=07.04.2015'
p632
sg16
S'Toerre flakskred'
p633
sg17
S'Naturlig utloest'
p634
sg18
g45
sg19
S'Varsel'
p635
sg21
S'3 - Middels'
p636
sg22
S'Nedsnoedd eller nedfoeyket svakt lag med loes nysnoe'
p637
sg24
S'Lag med loes nysnoe'
p638
sg26
g27
(S'\x07\xdf\x04\x07'
p639
tp640
Rp641
sg31
(dp642
sg33
I0
sg34
I10
sg35
S'Salten'
p643
sba(igetproblems
AvalancheProblem
p644
(dp645
g4
Nsg6
Nsg8
I133
sg9
S'Mulig'
p646
sg10
g40
sg12
Nsg13
S'Noen bratte heng'
p647
sg14
S'http://www.varsom.no/Snoskred/Salten/?date=07.04.2015'
p648
sg16
S'Vaate loessnoeskred'
p649
sg17
S'Naturlig utloest'
p650
sg18
g153
sg19
S'Varsel'
p651
sg21
S'2 - Smaa'
p652
sg22
S'Snoedekket er overmettet av vann'
p653
sg24
S'Snoedekket er overmettet av vann'
p654
sg26
g27
(S'\x07\xdf\x04\x07'
p655
tp656
Rp657
sg31
(dp658
sg33
I1
sg34
I23
sg35
S'Salten'
p659
sba(igetproblems
AvalancheProblem
p660
(dp661
g4
Nsg6
Nsg8
I133
sg9
S'Sannsynlig'
p662
sg10
g40
sg12
Nsg13
S'Mange bratte heng'
p663
sg14
S'http://www.varsom.no/Snoskred/Salten/?date=08.04.2015'
p664
sg16
S'Toerre flakskred'
p665
sg17
S'Naturlig utloest'
p666
sg18
g45
sg19
S'Varsel'
p667
sg21
S'3 - Middels'
p668
sg22
S'Daarlig binding mellom lag i fokksnoeen'
p669
sg24
S'I fokksnoeen'
p670
sg26
g27
(S'\x07\xdf\x04\x08'
p671
tp672
Rp673
sg31
(dp674
sg33
I0
sg34
I15
sg35
S'Salten'
p675
sba(igetproblems
AvalancheProblem
p676
(dp677
g4
Nsg6
Nsg8
I133
sg9
S'Sannsynlig'
p678
sg10
g40
sg12
Nsg13
S'Mange bratte heng'
p679
sg14
S'http://www.varsom.no/Snoskred/Salten/?date=08.04.2015'
p680
sg16
S'Vaate loessnoeskred'
p681
sg17
S'Naturlig utloest'
p682
sg18
g153
sg19
S'Varsel'
p683
sg21
S'2 - Smaa'
p684
sg22
S'Snoedekket er overmettet av vann'
p685
sg24
S'Snoedekket er overmettet av vann'
p686
sg26
g27
(S'\x07\xdf\x04\x08'
p687
tp688
Rp689
sg31
(dp690
sg33
I1
sg34
I23
sg35
S'Salten'
p691
sba(igetproblems
AvalancheProblem
p692
(dp693
g4
Nsg6
Nsg8
I133
sg9
S'Sannsynlig'
p694
sg10
g40
sg12
Nsg13
S'Mange bratte heng'
p695
sg14
S'http://www.varsom.no/Snoskred/Salten/?date=09.04.2015'
p696
sg16
S'Toerre flakskred'
p697
sg17
S'Naturlig utloest'
p698
sg18
g45
sg19
S'Varsel'
p699
sg21
S'3 - Middels'
p700
sg22
S'Daarlig binding mellom lag i fokksnoeen'
p701
sg24
S'I fokksnoeen'
p702
sg26
g27
(S'\x07\xdf\x04\t'
p703
tp704
Rp705
sg31
(dp706
sg33
I0
sg34
I15
sg35
S'Salten'
p707
sba(igetproblems
AvalancheProblem
p708
(dp709
g4
Nsg6
Nsg8
I133
sg9
S'Sannsynlig'
p710
sg10
g40
sg12
Nsg13
S'Mange bratte heng'
p711
sg14
S'http://www.varsom.no/Snoskred/Salten/?date=09.04.2015'
p712
sg16
S'Toerre loessnoeskred'
p713
sg17
S'Naturlig utloest'
p714
sg18
S'Nysnoe'
p715
sg19
S'Varsel'
p716
sg21
S'3 - Middels'
p717
sg22
S'Ubundet loes snoe'
p718
sg24
S'Ubundet loes snoe'
p719
sg26
g27
(S'\x07\xdf\x04\t'
p720
tp721
Rp722
sg31
(dp723
sg33
I1
sg34
I24
sg35
S'Salten'
p724
sba(igetproblems
AvalancheProblem
p725
(dp726
g4
Nsg6
Nsg8
I133
sg9
S'Sannsynlig'
p727
sg10
g40
sg12
Nsg13
S'Mange bratte heng'
p728
sg14
S'http://www.varsom.no/Snoskred/Salten/?date=09.04.2015'
p729
sg16
S'Vaate loessnoeskred'
p730
sg17
S'Naturlig utloest'
p731
sg18
g153
sg19
S'Varsel'
p732
sg21
S'2 - Smaa'
p733
sg22
S'Snoedekket er overmettet av vann'
p734
sg24
S'Snoedekket er overmettet av vann'
p735
sg26
g27
(S'\x07\xdf\x04\t'
p736
tp737
Rp738
sg31
(dp739
sg33
I2
sg34
I23
sg35
S'Salten'
p740
sba(igetproblems
AvalancheProblem
p741
(dp742
g4
Nsg6
Nsg8
I133
sg9
S'Sannsynlig'
p743
sg10
g40
sg12
Nsg13
S'Mange bratte heng'
p744
sg14
S'http://www.varsom.no/Snoskred/Salten/?date=10.04.2015'
p745
sg16
S'Toerre flakskred'
p746
sg17
S'Naturlig utloest'
p747
sg18
g45
sg19
S'Varsel'
p748
sg21
S'3 - Middels'
p749
sg22
S'Daarlig binding mellom lag i fokksnoeen'
p750
sg24
S'I fokksnoeen'
p751
sg26
g27
(S'\x07\xdf\x04\n'
p752
tp753
Rp754
sg31
(dp755
sg33
I0
sg34
I15
sg35
S'Salten'
p756
sba(igetproblems
AvalancheProblem
p757
(dp758
g4
Nsg6
Nsg8
I133
sg9
S'Sannsynlig'
p759
sg10
g40
sg12
Nsg13
S'Mange bratte heng'
p760
sg14
S'http://www.varsom.no/Snoskred/Salten/?date=10.04.2015'
p761
sg16
S'Toerre loessnoeskred'
p762
sg17
S'Naturlig utloest'
p763
sg18
g715
sg19
S'Varsel'
p764
sg21
S'3 - Middels'
p765
sg22
S'Ubundet loes snoe'
p766
sg24
S'Ubundet loes snoe'
p767
sg26
g27
(S'\x07\xdf\x04\n'
p768
tp769
Rp770
sg31
(dp771
sg33
I1
sg34
I24
sg35
S'Salten'
p772
sba(igetproblems
AvalancheProblem
p773
(dp774
g4
Nsg6
Nsg8
I133
sg9
S'Mulig'
p775
sg10
g40
sg12
Nsg13
S'Noen bratte heng'
p776
sg14
S'http://www.varsom.no/Snoskred/Salten/?date=10.04.2015'
p777
sg16
S'Vaate loessnoeskred'
p778
sg17
S'Naturlig utloest'
p779
sg18
g153
sg19
S'Varsel'
p780
sg21
S'2 - Smaa'
p781
sg22
S'Snoedekket er overmettet av vann'
p782
sg24
S'Snoedekket er overmettet av vann'
p783
sg26
g27
(S'\x07\xdf\x04\n'
p784
tp785
Rp786
sg31
(dp787
sg33
I2
sg34
I23
sg35
S'Salten'
p788
sba(igetproblems
AvalancheProblem
p789
(dp790
g4
Nsg6
Nsg8
I133
sg9
S'Sannsynlig'
p791
sg10
g40
sg12
Nsg13
S'Mange bratte heng'
p792
sg14
S'http://www.varsom.no/Snoskred/Salten/?date=11.04.2015'
p793
sg16
S'Toerre flakskred'
p794
sg17
S'Liten tilleggsbelastning'
p795
sg18
g45
sg19
S'Varsel'
p796
sg21
S'3 - Middels'
p797
sg22
S'Daarlig binding mellom lag i fokksnoeen'
p798
sg24
S'I fokksnoeen'
p799
sg26
g27
(S'\x07\xdf\x04\x0b'
p800
tp801
Rp802
sg31
(dp803
sg33
I0
sg34
I15
sg35
S'Salten'
p804
sba(igetproblems
AvalancheProblem
p805
(dp806
g4
Nsg6
Nsg8
I133
sg9
S'Mulig'
p807
sg10
g40
sg12
Nsg13
S'Noen bratte heng'
p808
sg14
S'http://www.varsom.no/Snoskred/Salten/?date=11.04.2015'
p809
sg16
S'Vaate loessnoeskred'
p810
sg17
S'Naturlig utloest'
p811
sg18
g153
sg19
S'Varsel'
p812
sg21
S'2 - Smaa'
p813
sg22
S'Regn / temperaturstigning / soloppvarming'
p814
sg24
S'Regn/temperaturstigning'
p815
sg26
g27
(S'\x07\xdf\x04\x0b'
p816
tp817
Rp818
sg31
(dp819
sg33
I1
sg34
I25
sg35
S'Salten'
p820
sba(igetproblems
AvalancheProblem
p821
(dp822
g4
Nsg6
Nsg8
I133
sg9
S'Mulig'
p823
sg10
g40
sg12
Nsg13
S'Mange bratte heng'
p824
sg14
S'http://www.varsom.no/Snoskred/Salten/?date=12.04.2015'
p825
sg16
S'Toerre flakskred'
p826
sg17
S'Liten tilleggsbelastning'
p827
sg18
g45
sg19
S'Varsel'
p828
sg21
S'3 - Middels'
p829
sg22
S'Daarlig binding mellom lag i fokksnoeen'
p830
sg24
S'I fokksnoeen'
p831
sg26
g27
(S'\x07\xdf\x04\x0c'
p832
tp833
Rp834
sg31
(dp835
sg33
I0
sg34
I15
sg35
S'Salten'
p836
sba(igetproblems
AvalancheProblem
p837
(dp838
g4
S'FAUSKE'
p839
sg6
VSindreH@ObsKorps
p840
sg8
I133
sg9
Nsg10
g11
sg12
I59863
sg13
Nsg14
S'http://www.regobs.no/Registration/59863'
p841
sg16
Nsg17
Nsg18
Nsg19
S'Observasjon'
p842
sg21
S'2 - Smaa'
p843
sg22
S'Snoedekket gjennomfuktet og ustabilt fra overflaten'
p844
sg24
S'Gjennomfuktet fra overflaten'
p845
sg26
g27
(S'\x07\xdf\x04\r'
p846
tp847
Rp848
sg31
(dp849
sg33
I0
sg34
I21
sg35
S'Salten'
p850
sba(igetproblems
AvalancheProblem
p851
(dp852
g4
Nsg6
Nsg8
I133
sg9
S'Mulig'
p853
sg10
g40
sg12
Nsg13
S'Mange bratte heng'
p854
sg14
S'http://www.varsom.no/Snoskred/Salten/?date=13.04.2015'
p855
sg16
S'Toerre flakskred'
p856
sg17
S'Liten tilleggsbelastning'
p857
sg18
g45
sg19
S'Varsel'
p858
sg21
S'3 - Middels'
p859
sg22
S'Daarlig binding mellom lag i fokksnoeen'
p860
sg24
S'I fokksnoeen'
p861
sg26
g27
(S'\x07\xdf\x04\r'
p862
tp863
Rp864
sg31
(dp865
sg33
I0
sg34
I15
sg35
S'Salten'
p866
sba(igetproblems
AvalancheProblem
p867
(dp868
g4
Nsg6
Nsg8
I133
sg9
S'Mulig'
p869
sg10
g40
sg12
Nsg13
S'Mange bratte heng'
p870
sg14
S'http://www.varsom.no/Snoskred/Salten/?date=14.04.2015'
p871
sg16
S'Toerre flakskred'
p872
sg17
S'Stor tilleggsbelastning'
p873
sg18
g45
sg19
S'Varsel'
p874
sg21
S'2 - Smaa'
p875
sg22
S'Daarlig binding mellom lag i fokksnoeen'
p876
sg24
S'I fokksnoeen'
p877
sg26
g27
(S'\x07\xdf\x04\x0e'
p878
tp879
Rp880
sg31
(dp881
sg33
I0
sg34
I15
sg35
S'Salten'
p882
sba(igetproblems
AvalancheProblem
p883
(dp884
g4
Nsg6
Nsg8
I133
sg9
S'Mulig'
p885
sg10
g40
sg12
Nsg13
S'Noen bratte heng'
p886
sg14
S'http://www.varsom.no/Snoskred/Salten/?date=15.04.2015'
p887
sg16
S'Toerre flakskred'
p888
sg17
S'Stor tilleggsbelastning'
p889
sg18
g45
sg19
S'Varsel'
p890
sg21
S'2 - Smaa'
p891
sg22
S'Daarlig binding mellom lag i fokksnoeen'
p892
sg24
S'I fokksnoeen'
p893
sg26
g27
(S'\x07\xdf\x04\x0f'
p894
tp895
Rp896
sg31
(dp897
sg33
I0
sg34
I15
sg35
S'Salten'
p898
sba(igetproblems
AvalancheProblem
p899
(dp900
g4
Nsg6
Nsg8
I133
sg9
S'Mulig'
p901
sg10
g40
sg12
Nsg13
S'Noen bratte heng'
p902
sg14
S'http://www.varsom.no/Snoskred/Salten/?date=15.04.2015'
p903
sg16
S'Vaate loessnoeskred'
p904
sg17
S'Naturlig utloest'
p905
sg18
g153
sg19
S'Varsel'
p906
sg21
S'2 - Smaa'
p907
sg22
S'Regn / temperaturstigning / soloppvarming'
p908
sg24
S'Regn/temperaturstigning'
p909
sg26
g27
(S'\x07\xdf\x04\x0f'
p910
tp911
Rp912
sg31
(dp913
sg33
I1
sg34
I25
sg35
S'Salten'
p914
sba(igetproblems
AvalancheProblem
p915
(dp916
g4
S'FAUSKE'
p917
sg6
Vper@SVV
p918
sg8
I133
sg9
Nsg10
g11
sg12
I60208
sg13
Nsg14
S'http://www.regobs.no/Registration/60208'
p919
sg16
Nsg17
Nsg18
Nsg19
S'Observasjon'
p920
sg21
S'3 - Middels'
p921
sg22
S'Nedsnoedd eller nedfoeyket svakt lag med sproehagl'
p922
sg24
S'Lag med sproehagl'
p923
sg26
g27
(S'\x07\xdf\x04\x10'
p924
tp925
Rp926
sg31
(dp927
sg33
I0
sg34
I12
sg35
S'Salten'
p928
sba(igetproblems
AvalancheProblem
p929
(dp930
g4
S'FAUSKE'
p931
sg6
Vper@SVV
p932
sg8
I133
sg9
Nsg10
g11
sg12
I60208
sg13
Nsg14
S'http://www.regobs.no/Registration/60208'
p933
sg16
Nsg17
Nsg18
Nsg19
S'Observasjon'
p934
sg21
S'2 - Smaa'
p935
sg22
S'Nedsnoedd eller nedfoeyket svakt lag med sproehagl'
p936
sg24
S'Lag med sproehagl'
p937
sg26
g27
(S'\x07\xdf\x04\x10'
p938
tp939
Rp940
sg31
(dp941
sg33
I1
sg34
I12
sg35
S'Salten'
p942
sba(igetproblems
AvalancheProblem
p943
(dp944
g4
Nsg6
Nsg8
I133
sg9
S'Mulig'
p945
sg10
g40
sg12
Nsg13
S'Noen bratte heng'
p946
sg14
S'http://www.varsom.no/Snoskred/Salten/?date=16.04.2015'
p947
sg16
S'Toerre flakskred'
p948
sg17
S'Stor tilleggsbelastning'
p949
sg18
g45
sg19
S'Varsel'
p950
sg21
S'2 - Smaa'
p951
sg22
S'Daarlig binding mellom lag i fokksnoeen'
p952
sg24
S'I fokksnoeen'
p953
sg26
g27
(S'\x07\xdf\x04\x10'
p954
tp955
Rp956
sg31
(dp957
sg33
I0
sg34
I15
sg35
S'Salten'
p958
sba(igetproblems
AvalancheProblem
p959
(dp960
g4
Nsg6
Nsg8
I133
sg9
S'Mulig'
p961
sg10
g40
sg12
Nsg13
S'Noen bratte heng'
p962
sg14
S'http://www.varsom.no/Snoskred/Salten/?date=16.04.2015'
p963
sg16
S'Vaate loessnoeskred'
p964
sg17
S'Naturlig utloest'
p965
sg18
g153
sg19
S'Varsel'
p966
sg21
S'2 - Smaa'
p967
sg22
S'Regn / temperaturstigning / soloppvarming'
p968
sg24
S'Regn/temperaturstigning'
p969
sg26
g27
(S'\x07\xdf\x04\x10'
p970
tp971
Rp972
sg31
(dp973
sg33
I1
sg34
I25
sg35
S'Salten'
p974
sba(igetproblems
AvalancheProblem
p975
(dp976
g4
Nsg6
Nsg8
I133
sg9
S'Mulig'
p977
sg10
g40
sg12
Nsg13
S'Isolerte faresoner'
p978
sg14
S'http://www.varsom.no/Snoskred/Salten/?date=17.04.2015'
p979
sg16
S'Toerre flakskred'
p980
sg17
S'Stor tilleggsbelastning'
p981
sg18
g45
sg19
S'Varsel'
p982
sg21
S'2 - Smaa'
p983
sg22
S'Daarlig binding mellom lag i fokksnoeen'
p984
sg24
S'I fokksnoeen'
p985
sg26
g27
(S'\x07\xdf\x04\x11'
p986
tp987
Rp988
sg31
(dp989
sg33
I0
sg34
I15
sg35
S'Salten'
p990
sba(igetproblems
AvalancheProblem
p991
(dp992
g4
Nsg6
Nsg8
I133
sg9
S'Mulig'
p993
sg10
g40
sg12
Nsg13
S'Noen bratte heng'
p994
sg14
S'http://www.varsom.no/Snoskred/Salten/?date=18.04.2015'
p995
sg16
S'Toerre flakskred'
p996
sg17
S'Liten tilleggsbelastning'
p997
sg18
g45
sg19
S'Varsel'
p998
sg21
S'2 - Smaa'
p999
sg22
S'Nedsnoedd eller nedfoeyket svakt lag med loes nysnoe'
p1000
sg24
S'Lag med loes nysnoe'
p1001
sg26
g27
(S'\x07\xdf\x04\x12'
p1002
tp1003
Rp1004
sg31
(dp1005
sg33
I0
sg34
I10
sg35
S'Salten'
p1006
sba(igetproblems
AvalancheProblem
p1007
(dp1008
g4
Nsg6
Nsg8
I133
sg9
S'Mulig'
p1009
sg10
g40
sg12
Nsg13
S'Noen bratte heng'
p1010
sg14
S'http://www.varsom.no/Snoskred/Salten/?date=18.04.2015'
p1011
sg16
S'Vaate loessnoeskred'
p1012
sg17
S'Naturlig utloest'
p1013
sg18
g153
sg19
S'Varsel'
p1014
sg21
S'1 - Harmloest'
p1015
sg22
S'Snoedekket er overmettet av vann'
p1016
sg24
S'Snoedekket er overmettet av vann'
p1017
sg26
g27
(S'\x07\xdf\x04\x12'
p1018
tp1019
Rp1020
sg31
(dp1021
sg33
I1
sg34
I23
sg35
S'Salten'
p1022
sba(igetproblems
AvalancheProblem
p1023
(dp1024
g4
Nsg6
Nsg8
I133
sg9
S'Mulig'
p1025
sg10
g40
sg12
Nsg13
S'Noen bratte heng'
p1026
sg14
S'http://www.varsom.no/Snoskred/Salten/?date=19.04.2015'
p1027
sg16
S'Toerre flakskred'
p1028
sg17
S'Liten tilleggsbelastning'
p1029
sg18
g45
sg19
S'Varsel'
p1030
sg21
S'2 - Smaa'
p1031
sg22
S'Nedsnoedd eller nedfoeyket svakt lag med loes nysnoe'
p1032
sg24
S'Lag med loes nysnoe'
p1033
sg26
g27
(S'\x07\xdf\x04\x13'
p1034
tp1035
Rp1036
sg31
(dp1037
sg33
I0
sg34
I10
sg35
S'Salten'
p1038
sba(igetproblems
AvalancheProblem
p1039
(dp1040
g4
Nsg6
Nsg8
I133
sg9
S'Mulig'
p1041
sg10
g40
sg12
Nsg13
S'Isolerte faresoner'
p1042
sg14
S'http://www.varsom.no/Snoskred/Salten/?date=20.04.2015'
p1043
sg16
S'Toerre flakskred'
p1044
sg17
S'Liten tilleggsbelastning'
p1045
sg18
g45
sg19
S'Varsel'
p1046
sg21
S'2 - Smaa'
p1047
sg22
S'Nedsnoedd eller nedfoeyket svakt lag med loes nysnoe'
p1048
sg24
S'Lag med loes nysnoe'
p1049
sg26
g27
(S'\x07\xdf\x04\x14'
p1050
tp1051
Rp1052
sg31
(dp1053
sg33
I0
sg34
I10
sg35
S'Salten'
p1054
sba(igetproblems
AvalancheProblem
p1055
(dp1056
g4
Nsg6
Nsg8
I133
sg9
S'Mulig'
p1057
sg10
g40
sg12
Nsg13
S'Noen bratte heng'
p1058
sg14
S'http://www.varsom.no/Snoskred/Salten/?date=21.04.2015'
p1059
sg16
S'Vaate flakskred'
p1060
sg17
S'Naturlig utloest'
p1061
sg18
g153
sg19
S'Varsel'
p1062
sg21
S'2 - Smaa'
p1063
sg22
S'Regn / temperaturstigning / soloppvarming'
p1064
sg24
S'Regn/temperaturstigning'
p1065
sg26
g27
(S'\x07\xdf\x04\x15'
p1066
tp1067
Rp1068
sg31
(dp1069
sg33
I0
sg34
I25
sg35
S'Salten'
p1070
sba(igetproblems
AvalancheProblem
p1071
(dp1072
g4
Nsg6
Nsg8
I133
sg9
S'Mulig'
p1073
sg10
g40
sg12
Nsg13
S'Isolerte faresoner'
p1074
sg14
S'http://www.varsom.no/Snoskred/Salten/?date=21.04.2015'
p1075
sg16
S'Toerre flakskred'
p1076
sg17
S'Liten tilleggsbelastning'
p1077
sg18
g45
sg19
S'Varsel'
p1078
sg21
S'1 - Harmloest'
p1079
sg22
S'Daarlig binding mellom lag i fokksnoeen'
p1080
sg24
S'I fokksnoeen'
p1081
sg26
g27
(S'\x07\xdf\x04\x15'
p1082
tp1083
Rp1084
sg31
(dp1085
sg33
I1
sg34
I15
sg35
S'Salten'
p1086
sba(igetproblems
AvalancheProblem
p1087
(dp1088
g4
S'FAUSKE'
p1089
sg6
VSindreH@ObsKorps
p1090
sg8
I133
sg9
Nsg10
g11
sg12
I60758
sg13
Nsg14
S'http://www.regobs.no/Registration/60758'
p1091
sg16
Nsg17
Nsg18
Nsg19
S'Observasjon'
p1092
sg21
S'2 - Smaa'
p1093
sg22
S'Snoedekket gjennomfuktet og ustabilt fra overflaten'
p1094
sg24
S'Gjennomfuktet fra overflaten'
p1095
sg26
g27
(S'\x07\xdf\x04\x16'
p1096
tp1097
Rp1098
sg31
(dp1099
sg33
I0
sg34
I21
sg35
S'Salten'
p1100
sba(igetproblems
AvalancheProblem
p1101
(dp1102
g4
Nsg6
Nsg8
I133
sg9
S'Mulig'
p1103
sg10
g40
sg12
Nsg13
S'Noen bratte heng'
p1104
sg14
S'http://www.varsom.no/Snoskred/Salten/?date=22.04.2015'
p1105
sg16
S'Toerre flakskred'
p1106
sg17
S'Liten tilleggsbelastning'
p1107
sg18
g45
sg19
S'Varsel'
p1108
sg21
S'3 - Middels'
p1109
sg22
S'Daarlig binding mellom lag i fokksnoeen'
p1110
sg24
S'I fokksnoeen'
p1111
sg26
g27
(S'\x07\xdf\x04\x16'
p1112
tp1113
Rp1114
sg31
(dp1115
sg33
I1
sg34
I15
sg35
S'Salten'
p1116
sba(igetproblems
AvalancheProblem
p1117
(dp1118
g4
Nsg6
Nsg8
I133
sg9
S'Mulig'
p1119
sg10
g40
sg12
Nsg13
S'Noen bratte heng'
p1120
sg14
S'http://www.varsom.no/Snoskred/Salten/?date=23.04.2015'
p1121
sg16
S'Toerre flakskred'
p1122
sg17
S'Liten tilleggsbelastning'
p1123
sg18
g45
sg19
S'Varsel'
p1124
sg21
S'3 - Middels'
p1125
sg22
S'Daarlig binding mellom lag i fokksnoeen'
p1126
sg24
S'I fokksnoeen'
p1127
sg26
g27
(S'\x07\xdf\x04\x17'
p1128
tp1129
Rp1130
sg31
(dp1131
sg33
I1
sg34
I15
sg35
S'Salten'
p1132
sba(igetproblems
AvalancheProblem
p1133
(dp1134
g4
Nsg6
Nsg8
I133
sg9
S'Mulig'
p1135
sg10
g40
sg12
Nsg13
S'Noen bratte heng'
p1136
sg14
S'http://www.varsom.no/Snoskred/Salten/?date=24.04.2015'
p1137
sg16
S'Vaate loessnoeskred'
p1138
sg17
S'Naturlig utloest'
p1139
sg18
g153
sg19
S'Varsel'
p1140
sg21
S'2 - Smaa'
p1141
sg22
S'Regn / temperaturstigning / soloppvarming'
p1142
sg24
S'Regn/temperaturstigning'
p1143
sg26
g27
(S'\x07\xdf\x04\x18'
p1144
tp1145
Rp1146
sg31
(dp1147
sg33
I1
sg34
I25
sg35
S'Salten'
p1148
sba(igetproblems
AvalancheProblem
p1149
(dp1150
g4
Nsg6
Nsg8
I133
sg9
S'Mulig'
p1151
sg10
g40
sg12
Nsg13
S'Isolerte faresoner'
p1152
sg14
S'http://www.varsom.no/Snoskred/Salten/?date=24.04.2015'
p1153
sg16
S'Toerre flakskred'
p1154
sg17
S'Liten tilleggsbelastning'
p1155
sg18
g45
sg19
S'Varsel'
p1156
sg21
S'2 - Smaa'
p1157
sg22
S'Nedsnoedd eller nedfoeyket svakt lag med loes nysnoe'
p1158
sg24
S'Lag med loes nysnoe'
p1159
sg26
g27
(S'\x07\xdf\x04\x18'
p1160
tp1161
Rp1162
sg31
(dp1163
sg33
I2
sg34
I10
sg35
S'Salten'
p1164
sba(igetproblems
AvalancheProblem
p1165
(dp1166
g4
Nsg6
Nsg8
I133
sg9
S'Mulig'
p1167
sg10
g40
sg12
Nsg13
S'Noen bratte heng'
p1168
sg14
S'http://www.varsom.no/Snoskred/Salten/?date=25.04.2015'
p1169
sg16
S'Vaate loessnoeskred'
p1170
sg17
S'Naturlig utloest'
p1171
sg18
g153
sg19
S'Varsel'
p1172
sg21
S'2 - Smaa'
p1173
sg22
S'Regn / temperaturstigning / soloppvarming'
p1174
sg24
S'Regn/temperaturstigning'
p1175
sg26
g27
(S'\x07\xdf\x04\x19'
p1176
tp1177
Rp1178
sg31
(dp1179
sg33
I1
sg34
I25
sg35
S'Salten'
p1180
sba(igetproblems
AvalancheProblem
p1181
(dp1182
g4
Nsg6
Nsg8
I133
sg9
S'Mulig'
p1183
sg10
g40
sg12
Nsg13
S'Isolerte faresoner'
p1184
sg14
S'http://www.varsom.no/Snoskred/Salten/?date=25.04.2015'
p1185
sg16
S'Toerre flakskred'
p1186
sg17
S'Stor tilleggsbelastning'
p1187
sg18
g45
sg19
S'Varsel'
p1188
sg21
S'2 - Smaa'
p1189
sg22
S'Daarlig binding mellom lag i fokksnoeen'
p1190
sg24
S'I fokksnoeen'
p1191
sg26
g27
(S'\x07\xdf\x04\x19'
p1192
tp1193
Rp1194
sg31
(dp1195
sg33
I3
sg34
I15
sg35
S'Salten'
p1196
sba(igetproblems
AvalancheProblem
p1197
(dp1198
g4
Nsg6
Nsg8
I133
sg9
S'Mulig'
p1199
sg10
g40
sg12
Nsg13
S'Noen bratte heng'
p1200
sg14
S'http://www.varsom.no/Snoskred/Salten/?date=26.04.2015'
p1201
sg16
S'Vaate loessnoeskred'
p1202
sg17
S'Naturlig utloest'
p1203
sg18
g153
sg19
S'Varsel'
p1204
sg21
S'2 - Smaa'
p1205
sg22
S'Regn / temperaturstigning / soloppvarming'
p1206
sg24
S'Regn/temperaturstigning'
p1207
sg26
g27
(S'\x07\xdf\x04\x1a'
p1208
tp1209
Rp1210
sg31
(dp1211
sg33
I1
sg34
I25
sg35
S'Salten'
p1212
sba(igetproblems
AvalancheProblem
p1213
(dp1214
g4
Nsg6
Nsg8
I133
sg9
S'Mulig'
p1215
sg10
g40
sg12
Nsg13
S'Isolerte faresoner'
p1216
sg14
S'http://www.varsom.no/Snoskred/Salten/?date=26.04.2015'
p1217
sg16
S'Toerre flakskred'
p1218
sg17
S'Liten tilleggsbelastning'
p1219
sg18
g45
sg19
S'Varsel'
p1220
sg21
S'2 - Smaa'
p1221
sg22
S'Daarlig binding mellom lag i fokksnoeen'
p1222
sg24
S'I fokksnoeen'
p1223
sg26
g27
(S'\x07\xdf\x04\x1a'
p1224
tp1225
Rp1226
sg31
(dp1227
sg33
I2
sg34
I15
sg35
S'Salten'
p1228
sba(igetproblems
AvalancheProblem
p1229
(dp1230
g4
S'FAUSKE'
p1231
sg6
VSindreH@ObsKorps
p1232
sg8
I133
sg9
Nsg10
g11
sg12
I61265
sg13
Nsg14
S'http://www.regobs.no/Registration/61265'
p1233
sg16
Nsg17
Nsg18
Nsg19
S'Observasjon'
p1234
sg21
S'2 - Smaa'
p1235
sg22
S'Snoedekket gjennomfuktet og ustabilt fra overflaten'
p1236
sg24
S'Gjennomfuktet fra overflaten'
p1237
sg26
g27
(S'\x07\xdf\x04\x1b'
p1238
tp1239
Rp1240
sg31
(dp1241
sg33
I0
sg34
I21
sg35
S'Salten'
p1242
sba(igetproblems
AvalancheProblem
p1243
(dp1244
g4
Nsg6
Nsg8
I133
sg9
S'Mulig'
p1245
sg10
g40
sg12
Nsg13
S'Isolerte faresoner'
p1246
sg14
S'http://www.varsom.no/Snoskred/Salten/?date=27.04.2015'
p1247
sg16
S'Toerre flakskred'
p1248
sg17
S'Liten tilleggsbelastning'
p1249
sg18
g45
sg19
S'Varsel'
p1250
sg21
S'2 - Smaa'
p1251
sg22
S'Nedsnoedd eller nedfoeyket svakt lag med loes nysnoe'
p1252
sg24
S'Lag med loes nysnoe'
p1253
sg26
g27
(S'\x07\xdf\x04\x1b'
p1254
tp1255
Rp1256
sg31
(dp1257
sg33
I1
sg34
I10
sg35
S'Salten'
p1258
sba(igetproblems
AvalancheProblem
p1259
(dp1260
g4
Nsg6
Nsg8
I133
sg9
S'Mulig'
p1261
sg10
g40
sg12
Nsg13
S'Noen bratte heng'
p1262
sg14
S'http://www.varsom.no/Snoskred/Salten/?date=27.04.2015'
p1263
sg16
S'Vaate loessnoeskred'
p1264
sg17
S'Naturlig utloest'
p1265
sg18
g153
sg19
S'Varsel'
p1266
sg21
S'2 - Smaa'
p1267
sg22
S'Regn / temperaturstigning / soloppvarming'
p1268
sg24
S'Regn/temperaturstigning'
p1269
sg26
g27
(S'\x07\xdf\x04\x1b'
p1270
tp1271
Rp1272
sg31
(dp1273
sg33
I2
sg34
I25
sg35
S'Salten'
p1274
sba(igetproblems
AvalancheProblem
p1275
(dp1276
g4
Nsg6
Nsg8
I133
sg9
S'Mulig'
p1277
sg10
g40
sg12
Nsg13
S'Noen bratte heng'
p1278
sg14
S'http://www.varsom.no/Snoskred/Salten/?date=28.04.2015'
p1279
sg16
S'Toerre flakskred'
p1280
sg17
S'Liten tilleggsbelastning'
p1281
sg18
g45
sg19
S'Varsel'
p1282
sg21
S'2 - Smaa'
p1283
sg22
S'Nedsnoedd eller nedfoeyket svakt lag med loes nysnoe'
p1284
sg24
S'Lag med loes nysnoe'
p1285
sg26
g27
(S'\x07\xdf\x04\x1c'
p1286
tp1287
Rp1288
sg31
(dp1289
sg33
I0
sg34
I10
sg35
S'Salten'
p1290
sba(igetproblems
AvalancheProblem
p1291
(dp1292
g4
Nsg6
Nsg8
I133
sg9
S'Mulig'
p1293
sg10
g40
sg12
Nsg13
S'Noen bratte heng'
p1294
sg14
S'http://www.varsom.no/Snoskred/Salten/?date=28.04.2015'
p1295
sg16
S'Vaate loessnoeskred'
p1296
sg17
S'Naturlig utloest'
p1297
sg18
g153
sg19
S'Varsel'
p1298
sg21
S'2 - Smaa'
p1299
sg22
S'Regn / temperaturstigning / soloppvarming'
p1300
sg24
S'Regn/temperaturstigning'
p1301
sg26
g27
(S'\x07\xdf\x04\x1c'
p1302
tp1303
Rp1304
sg31
(dp1305
sg33
I1
sg34
I25
sg35
S'Salten'
p1306
sba(igetproblems
AvalancheProblem
p1307
(dp1308
g4
S'FAUSKE'
p1309
sg6
VSindreH@ObsKorps
p1310
sg8
I133
sg9
Nsg10
g11
sg12
I61481
sg13
Nsg14
S'http://www.regobs.no/Registration/61481'
p1311
sg16
Nsg17
Nsg18
Nsg19
S'Observasjon'
p1312
sg21
S'2 - Smaa'
p1313
sg22
S'Snoedekket gjennomfuktet og ustabilt fra overflaten'
p1314
sg24
S'Gjennomfuktet fra overflaten'
p1315
sg26
g27
(S'\x07\xdf\x04\x1d'
p1316
tp1317
Rp1318
sg31
(dp1319
sg33
I0
sg34
I21
sg35
S'Salten'
p1320
sba(igetproblems
AvalancheProblem
p1321
(dp1322
g4
Nsg6
Nsg8
I133
sg9
S'Mulig'
p1323
sg10
g40
sg12
Nsg13
S'Noen bratte heng'
p1324
sg14
S'http://www.varsom.no/Snoskred/Salten/?date=29.04.2015'
p1325
sg16
S'Toerre flakskred'
p1326
sg17
S'Liten tilleggsbelastning'
p1327
sg18
g45
sg19
S'Varsel'
p1328
sg21
S'2 - Smaa'
p1329
sg22
S'Nedsnoedd eller nedfoeyket svakt lag med loes nysnoe'
p1330
sg24
S'Lag med loes nysnoe'
p1331
sg26
g27
(S'\x07\xdf\x04\x1d'
p1332
tp1333
Rp1334
sg31
(dp1335
sg33
I0
sg34
I10
sg35
S'Salten'
p1336
sba(igetproblems
AvalancheProblem
p1337
(dp1338
g4
Nsg6
Nsg8
I133
sg9
S'Mulig'
p1339
sg10
g40
sg12
Nsg13
S'Noen bratte heng'
p1340
sg14
S'http://www.varsom.no/Snoskred/Salten/?date=29.04.2015'
p1341
sg16
S'Vaate loessnoeskred'
p1342
sg17
S'Liten tilleggsbelastning'
p1343
sg18
g153
sg19
S'Varsel'
p1344
sg21
S'1 - Harmloest'
p1345
sg22
S'Regn / temperaturstigning / soloppvarming'
p1346
sg24
S'Regn/temperaturstigning'
p1347
sg26
g27
(S'\x07\xdf\x04\x1d'
p1348
tp1349
Rp1350
sg31
(dp1351
sg33
I1
sg34
I25
sg35
S'Salten'
p1352
sba(igetproblems
AvalancheProblem
p1353
(dp1354
g4
Nsg6
Nsg8
I133
sg9
S'Mulig'
p1355
sg10
g40
sg12
Nsg13
S'Isolerte faresoner'
p1356
sg14
S'http://www.varsom.no/Snoskred/Salten/?date=30.04.2015'
p1357
sg16
S'Toerre flakskred'
p1358
sg17
S'Stor tilleggsbelastning'
p1359
sg18
g45
sg19
S'Varsel'
p1360
sg21
S'2 - Smaa'
p1361
sg22
S'Nedsnoedd eller nedfoeyket svakt lag med loes nysnoe'
p1362
sg24
S'Lag med loes nysnoe'
p1363
sg26
g27
(S'\x07\xdf\x04\x1e'
p1364
tp1365
Rp1366
sg31
(dp1367
sg33
I0
sg34
I10
sg35
S'Salten'
p1368
sba(igetproblems
AvalancheProblem
p1369
(dp1370
g4
Nsg6
Nsg8
I133
sg9
S'Mulig'
p1371
sg10
g40
sg12
Nsg13
S'Isolerte faresoner'
p1372
sg14
S'http://www.varsom.no/Snoskred/Salten/?date=01.05.2015'
p1373
sg16
S'Toerre flakskred'
p1374
sg17
S'Stor tilleggsbelastning'
p1375
sg18
g45
sg19
S'Varsel'
p1376
sg21
S'2 - Smaa'
p1377
sg22
S'Nedsnoedd eller nedfoeyket svakt lag med loes nysnoe'
p1378
sg24
S'Lag med loes nysnoe'
p1379
sg26
g27
(S'\x07\xdf\x05\x01'
p1380
tp1381
Rp1382
sg31
(dp1383
sg33
I0
sg34
I10
sg35
S'Salten'
p1384
sba(igetproblems
AvalancheProblem
p1385
(dp1386
g4
Nsg6
Nsg8
I133
sg9
S'Mulig'
p1387
sg10
g40
sg12
Nsg13
S'Isolerte faresoner'
p1388
sg14
S'http://www.varsom.no/Snoskred/Salten/?date=02.05.2015'
p1389
sg16
S'Toerre flakskred'
p1390
sg17
S'Liten tilleggsbelastning'
p1391
sg18
g45
sg19
S'Varsel'
p1392
sg21
S'2 - Smaa'
p1393
sg22
S'Nedsnoedd eller nedfoeyket svakt lag med loes nysnoe'
p1394
sg24
S'Lag med loes nysnoe'
p1395
sg26
g27
(S'\x07\xdf\x05\x02'
p1396
tp1397
Rp1398
sg31
(dp1399
sg33
I0
sg34
I10
sg35
S'Salten'
p1400
sba(igetproblems
AvalancheProblem
p1401
(dp1402
g4
Nsg6
Nsg8
I133
sg9
S'Mulig'
p1403
sg10
g40
sg12
Nsg13
S'Isolerte faresoner'
p1404
sg14
S'http://www.varsom.no/Snoskred/Salten/?date=03.05.2015'
p1405
sg16
S'Toerre flakskred'
p1406
sg17
S'Liten tilleggsbelastning'
p1407
sg18
g45
sg19
S'Varsel'
p1408
sg21
S'2 - Smaa'
p1409
sg22
S'Nedsnoedd eller nedfoeyket svakt lag med loes nysnoe'
p1410
sg24
S'Lag med loes nysnoe'
p1411
sg26
g27
(S'\x07\xdf\x05\x03'
p1412
tp1413
Rp1414
sg31
(dp1415
sg33
I0
sg34
I10
sg35
S'Salten'
p1416
sba(igetproblems
AvalancheProblem
p1417
(dp1418
g4
Nsg6
Nsg8
I133
sg9
S'Mulig'
p1419
sg10
g40
sg12
Nsg13
S'Noen bratte heng'
p1420
sg14
S'http://www.varsom.no/Snoskred/Salten/?date=03.05.2015'
p1421
sg16
S'Vaate loessnoeskred'
p1422
sg17
S'Naturlig utloest'
p1423
sg18
g153
sg19
S'Varsel'
p1424
sg21
S'1 - Harmloest'
p1425
sg22
S'Regn / temperaturstigning / soloppvarming'
p1426
sg24
S'Regn/temperaturstigning'
p1427
sg26
g27
(S'\x07\xdf\x05\x03'
p1428
tp1429
Rp1430
sg31
(dp1431
sg33
I1
sg34
I25
sg35
S'Salten'
p1432
sba(igetproblems
AvalancheProblem
p1433
(dp1434
g4
Nsg6
Nsg8
I133
sg9
S'Mulig'
p1435
sg10
g40
sg12
Nsg13
S'Isolerte faresoner'
p1436
sg14
S'http://www.varsom.no/Snoskred/Salten/?date=04.05.2015'
p1437
sg16
S'Toerre flakskred'
p1438
sg17
S'Liten tilleggsbelastning'
p1439
sg18
g45
sg19
S'Varsel'
p1440
sg21
S'2 - Smaa'
p1441
sg22
S'Nedsnoedd eller nedfoeyket svakt lag med loes nysnoe'
p1442
sg24
S'Lag med loes nysnoe'
p1443
sg26
g27
(S'\x07\xdf\x05\x04'
p1444
tp1445
Rp1446
sg31
(dp1447
sg33
I0
sg34
I10
sg35
S'Salten'
p1448
sba(igetproblems
AvalancheProblem
p1449
(dp1450
g4
Nsg6
Nsg8
I133
sg9
S'Mulig'
p1451
sg10
g40
sg12
Nsg13
S'Noen bratte heng'
p1452
sg14
S'http://www.varsom.no/Snoskred/Salten/?date=04.05.2015'
p1453
sg16
S'Vaate loessnoeskred'
p1454
sg17
S'Naturlig utloest'
p1455
sg18
g153
sg19
S'Varsel'
p1456
sg21
S'1 - Harmloest'
p1457
sg22
S'Regn / temperaturstigning / soloppvarming'
p1458
sg24
S'Regn/temperaturstigning'
p1459
sg26
g27
(S'\x07\xdf\x05\x04'
p1460
tp1461
Rp1462
sg31
(dp1463
sg33
I1
sg34
I25
sg35
S'Salten'
p1464
sba(igetproblems
AvalancheProblem
p1465
(dp1466
g4
Nsg6
Nsg8
I133
sg9
S'Mulig'
p1467
sg10
g40
sg12
Nsg13
S'Isolerte faresoner'
p1468
sg14
S'http://www.varsom.no/Snoskred/Salten/?date=05.05.2015'
p1469
sg16
S'Toerre flakskred'
p1470
sg17
S'Liten tilleggsbelastning'
p1471
sg18
g45
sg19
S'Varsel'
p1472
sg21
S'2 - Smaa'
p1473
sg22
S'Nedsnoedd eller nedfoeyket svakt lag med loes nysnoe'
p1474
sg24
S'Lag med loes nysnoe'
p1475
sg26
g27
(S'\x07\xdf\x05\x05'
p1476
tp1477
Rp1478
sg31
(dp1479
sg33
I0
sg34
I10
sg35
S'Salten'
p1480
sba(igetproblems
AvalancheProblem
p1481
(dp1482
g4
Nsg6
Nsg8
I133
sg9
S'Mulig'
p1483
sg10
g40
sg12
Nsg13
S'Isolerte faresoner'
p1484
sg14
S'http://www.varsom.no/Snoskred/Salten/?date=05.05.2015'
p1485
sg16
S'Vaate flakskred'
p1486
sg17
S'Naturlig utloest'
p1487
sg18
S'Vedvarende svakt lag'
p1488
sg19
S'Varsel'
p1489
sg21
S'3 - Middels'
p1490
sg22
S'Kantkornet snoe under skarelag'
p1491
sg24
S'Kantkornet under skaren'
p1492
sg26
g27
(S'\x07\xdf\x05\x05'
p1493
tp1494
Rp1495
sg31
(dp1496
sg33
I1
sg34
I19
sg35
S'Salten'
p1497
sba(igetproblems
AvalancheProblem
p1498
(dp1499
g4
Nsg6
Nsg8
I133
sg9
S'Mulig'
p1500
sg10
g40
sg12
Nsg13
S'Noen bratte heng'
p1501
sg14
S'http://www.varsom.no/Snoskred/Salten/?date=05.05.2015'
p1502
sg16
S'Vaate loessnoeskred'
p1503
sg17
S'Naturlig utloest'
p1504
sg18
g153
sg19
S'Varsel'
p1505
sg21
S'2 - Smaa'
p1506
sg22
S'Regn / temperaturstigning / soloppvarming'
p1507
sg24
S'Regn/temperaturstigning'
p1508
sg26
g27
(S'\x07\xdf\x05\x05'
p1509
tp1510
Rp1511
sg31
(dp1512
sg33
I3
sg34
I25
sg35
S'Salten'
p1513
sba(igetproblems
AvalancheProblem
p1514
(dp1515
g4
Nsg6
Nsg8
I133
sg9
S'Mulig'
p1516
sg10
g40
sg12
Nsg13
S'Noen bratte heng'
p1517
sg14
S'http://www.varsom.no/Snoskred/Salten/?date=06.05.2015'
p1518
sg16
S'Toerre flakskred'
p1519
sg17
S'Liten tilleggsbelastning'
p1520
sg18
g45
sg19
S'Varsel'
p1521
sg21
S'2 - Smaa'
p1522
sg22
S'Nedsnoedd eller nedfoeyket svakt lag med loes nysnoe'
p1523
sg24
S'Lag med loes nysnoe'
p1524
sg26
g27
(S'\x07\xdf\x05\x06'
p1525
tp1526
Rp1527
sg31
(dp1528
sg33
I0
sg34
I10
sg35
S'Salten'
p1529
sba(igetproblems
AvalancheProblem
p1530
(dp1531
g4
Nsg6
Nsg8
I133
sg9
S'Mulig'
p1532
sg10
g40
sg12
Nsg13
S'Noen bratte heng'
p1533
sg14
S'http://www.varsom.no/Snoskred/Salten/?date=06.05.2015'
p1534
sg16
S'Vaate flakskred'
p1535
sg17
S'Naturlig utloest'
p1536
sg18
g1488
sg19
S'Varsel'
p1537
sg21
S'3 - Middels'
p1538
sg22
S'Kantkornet snoe under skarelag'
p1539
sg24
S'Kantkornet under skaren'
p1540
sg26
g27
(S'\x07\xdf\x05\x06'
p1541
tp1542
Rp1543
sg31
(dp1544
sg33
I1
sg34
I19
sg35
S'Salten'
p1545
sba(igetproblems
AvalancheProblem
p1546
(dp1547
g4
S'FAUSKE'
p1548
sg6
VSindreH@ObsKorps
p1549
sg8
I133
sg9
Nsg10
g11
sg12
I62284
sg13
Nsg14
S'http://www.regobs.no/Registration/62284'
p1550
sg16
Nsg17
Nsg18
Nsg19
S'Observasjon'
p1551
sg21
S'1 - Harmloest'
p1552
sg22
S'Snoedekket gjennomfuktet og ustabilt fra overflaten'
p1553
sg24
S'Gjennomfuktet fra overflaten'
p1554
sg26
g27
(S'\x07\xdf\x05\x07'
p1555
tp1556
Rp1557
sg31
(dp1558
sg33
I0
sg34
I21
sg35
S'Salten'
p1559
sba(igetproblems
AvalancheProblem
p1560
(dp1561
g4
Nsg6
Nsg8
I133
sg9
S'Lite sannsynlig'
p1562
sg10
g40
sg12
Nsg13
S'Noen bratte heng'
p1563
sg14
S'http://www.varsom.no/Snoskred/Salten/?date=07.05.2015'
p1564
sg16
S'Vaate flakskred'
p1565
sg17
S'Naturlig utloest'
p1566
sg18
g1488
sg19
S'Varsel'
p1567
sg21
S'3 - Middels'
p1568
sg22
S'Kantkornet snoe under skarelag'
p1569
sg24
S'Kantkornet under skaren'
p1570
sg26
g27
(S'\x07\xdf\x05\x07'
p1571
tp1572
Rp1573
sg31
(dp1574
sg33
I0
sg34
I19
sg35
S'Salten'
p1575
sba(igetproblems
AvalancheProblem
p1576
(dp1577
g4
Nsg6
Nsg8
I133
sg9
S'Mulig'
p1578
sg10
g40
sg12
Nsg13
S'Mange bratte heng'
p1579
sg14
S'http://www.varsom.no/Snoskred/Salten/?date=07.05.2015'
p1580
sg16
S'Vaate loessnoeskred'
p1581
sg17
S'Naturlig utloest'
p1582
sg18
g153
sg19
S'Varsel'
p1583
sg21
S'2 - Smaa'
p1584
sg22
S'Regn / temperaturstigning / soloppvarming'
p1585
sg24
S'Regn/temperaturstigning'
p1586
sg26
g27
(S'\x07\xdf\x05\x07'
p1587
tp1588
Rp1589
sg31
(dp1590
sg33
I2
sg34
I25
sg35
S'Salten'
p1591
sba(igetproblems
AvalancheProblem
p1592
(dp1593
g4
Nsg6
Nsg8
I133
sg9
S'Mulig'
p1594
sg10
g40
sg12
Nsg13
S'Mange bratte heng'
p1595
sg14
S'http://www.varsom.no/Snoskred/Salten/?date=08.05.2015'
p1596
sg16
S'Vaate loessnoeskred'
p1597
sg17
S'Naturlig utloest'
p1598
sg18
g153
sg19
S'Varsel'
p1599
sg21
S'1 - Harmloest'
p1600
sg22
S'Snoedekket er overmettet av vann'
p1601
sg24
S'Snoedekket er overmettet av vann'
p1602
sg26
g27
(S'\x07\xdf\x05\x08'
p1603
tp1604
Rp1605
sg31
(dp1606
sg33
I0
sg34
I23
sg35
S'Salten'
p1607
sba(igetproblems
AvalancheProblem
p1608
(dp1609
g4
Nsg6
Nsg8
I133
sg9
S'Lite sannsynlig'
p1610
sg10
g40
sg12
Nsg13
S'Isolerte faresoner'
p1611
sg14
S'http://www.varsom.no/Snoskred/Salten/?date=08.05.2015'
p1612
sg16
S'Vaate flakskred'
p1613
sg17
S'Naturlig utloest'
p1614
sg18
g1488
sg19
S'Varsel'
p1615
sg21
S'3 - Middels'
p1616
sg22
S'Kantkornet snoe ved bakken'
p1617
sg24
S'Kantkornet ved bakken'
p1618
sg26
g27
(S'\x07\xdf\x05\x08'
p1619
tp1620
Rp1621
sg31
(dp1622
sg33
I1
sg34
I16
sg35
S'Salten'
p1623
sba(igetproblems
AvalancheProblem
p1624
(dp1625
g4
Nsg6
Nsg8
I133
sg9
S'Mulig'
p1626
sg10
g40
sg12
Nsg13
S'Mange bratte heng'
p1627
sg14
S'http://www.varsom.no/Snoskred/Salten/?date=09.05.2015'
p1628
sg16
S'Vaate loessnoeskred'
p1629
sg17
S'Naturlig utloest'
p1630
sg18
g153
sg19
S'Varsel'
p1631
sg21
S'1 - Harmloest'
p1632
sg22
S'Snoedekket er overmettet av vann'
p1633
sg24
S'Snoedekket er overmettet av vann'
p1634
sg26
g27
(S'\x07\xdf\x05\t'
p1635
tp1636
Rp1637
sg31
(dp1638
sg33
I0
sg34
I23
sg35
S'Salten'
p1639
sba(igetproblems
AvalancheProblem
p1640
(dp1641
g4
Nsg6
Nsg8
I133
sg9
S'Mulig'
p1642
sg10
g40
sg12
Nsg13
S'Noen bratte heng'
p1643
sg14
S'http://www.varsom.no/Snoskred/Salten/?date=09.05.2015'
p1644
sg16
S'Toerre flakskred'
p1645
sg17
S'Stor tilleggsbelastning'
p1646
sg18
g45
sg19
S'Varsel'
p1647
sg21
S'2 - Smaa'
p1648
sg22
S'Nedsnoedd eller nedfoeyket svakt lag med loes nysnoe'
p1649
sg24
S'Lag med loes nysnoe'
p1650
sg26
g27
(S'\x07\xdf\x05\t'
p1651
tp1652
Rp1653
sg31
(dp1654
sg33
I2
sg34
I10
sg35
S'Salten'
p1655
sba(igetproblems
AvalancheProblem
p1656
(dp1657
g4
S'FAUSKE'
p1658
sg6
VSindreH@ObsKorps
p1659
sg8
I133
sg9
Nsg10
g11
sg12
I62538
sg13
Nsg14
S'http://www.regobs.no/Registration/62538'
p1660
sg16
Nsg17
Nsg18
Nsg19
S'Observasjon'
p1661
sg21
S'1 - Harmloest'
p1662
sg22
S'Snoedekket gjennomfuktet og ustabilt fra overflaten'
p1663
sg24
S'Gjennomfuktet fra overflaten'
p1664
sg26
g27
(S'\x07\xdf\x05\n'
p1665
tp1666
Rp1667
sg31
(dp1668
sg33
I0
sg34
I21
sg35
S'Salten'
p1669
sba(igetproblems
AvalancheProblem
p1670
(dp1671
g4
Nsg6
Nsg8
I133
sg9
S'Mulig'
p1672
sg10
g40
sg12
Nsg13
S'Noen bratte heng'
p1673
sg14
S'http://www.varsom.no/Snoskred/Salten/?date=10.05.2015'
p1674
sg16
S'Toerre flakskred'
p1675
sg17
S'Stor tilleggsbelastning'
p1676
sg18
g45
sg19
S'Varsel'
p1677
sg21
S'2 - Smaa'
p1678
sg22
S'Nedsnoedd eller nedfoeyket svakt lag med loes nysnoe'
p1679
sg24
S'Lag med loes nysnoe'
p1680
sg26
g27
(S'\x07\xdf\x05\n'
p1681
tp1682
Rp1683
sg31
(dp1684
sg33
I0
sg34
I10
sg35
S'Salten'
p1685
sba(igetproblems
AvalancheProblem
p1686
(dp1687
g4
Nsg6
Nsg8
I133
sg9
S'Mulig'
p1688
sg10
g40
sg12
Nsg13
S'Mange bratte heng'
p1689
sg14
S'http://www.varsom.no/Snoskred/Salten/?date=10.05.2015'
p1690
sg16
S'Vaate loessnoeskred'
p1691
sg17
S'Naturlig utloest'
p1692
sg18
g153
sg19
S'Varsel'
p1693
sg21
S'1 - Harmloest'
p1694
sg22
S'Regn / temperaturstigning / soloppvarming'
p1695
sg24
S'Regn/temperaturstigning'
p1696
sg26
g27
(S'\x07\xdf\x05\n'
p1697
tp1698
Rp1699
sg31
(dp1700
sg33
I1
sg34
I25
sg35
S'Salten'
p1701
sba(igetproblems
AvalancheProblem
p1702
(dp1703
g4
S'FAUSKE'
p1704
sg6
VJeanette@SVV
p1705
sg8
I133
sg9
Nsg10
g11
sg12
I62597
sg13
Nsg14
S'http://www.regobs.no/Registration/62597'
p1706
sg16
Nsg17
Nsg18
Nsg19
S'Observasjon'
p1707
sg21
S'1 - Harmloest'
p1708
sg22
S'Snoedekket gjennomfuktet og ustabilt fra overflaten'
p1709
sg24
S'Gjennomfuktet fra overflaten'
p1710
sg26
g27
(S'\x07\xdf\x05\x0b'
p1711
tp1712
Rp1713
sg31
(dp1714
sg33
I0
sg34
I21
sg35
S'Salten'
p1715
sba(igetproblems
AvalancheProblem
p1716
(dp1717
g4
Nsg6
Nsg8
I133
sg9
S'Mulig'
p1718
sg10
g40
sg12
Nsg13
S'Isolerte faresoner'
p1719
sg14
S'http://www.varsom.no/Snoskred/Salten/?date=11.05.2015'
p1720
sg16
S'Toerre flakskred'
p1721
sg17
S'Liten tilleggsbelastning'
p1722
sg18
g45
sg19
S'Varsel'
p1723
sg21
S'2 - Smaa'
p1724
sg22
S'Nedsnoedd eller nedfoeyket svakt lag med loes nysnoe'
p1725
sg24
S'Lag med loes nysnoe'
p1726
sg26
g27
(S'\x07\xdf\x05\x0b'
p1727
tp1728
Rp1729
sg31
(dp1730
sg33
I0
sg34
I10
sg35
S'Salten'
p1731
sba(igetproblems
AvalancheProblem
p1732
(dp1733
g4
Nsg6
Nsg8
I133
sg9
S'Mulig'
p1734
sg10
g40
sg12
Nsg13
S'Mange bratte heng'
p1735
sg14
S'http://www.varsom.no/Snoskred/Salten/?date=11.05.2015'
p1736
sg16
S'Vaate loessnoeskred'
p1737
sg17
S'Naturlig utloest'
p1738
sg18
g153
sg19
S'Varsel'
p1739
sg21
S'1 - Harmloest'
p1740
sg22
S'Regn / temperaturstigning / soloppvarming'
p1741
sg24
S'Regn/temperaturstigning'
p1742
sg26
g27
(S'\x07\xdf\x05\x0b'
p1743
tp1744
Rp1745
sg31
(dp1746
sg33
I1
sg34
I25
sg35
S'Salten'
p1747
sba(igetproblems
AvalancheProblem
p1748
(dp1749
g4
Nsg6
Nsg8
I133
sg9
S'Mulig'
p1750
sg10
g40
sg12
Nsg13
S'Isolerte faresoner'
p1751
sg14
S'http://www.varsom.no/Snoskred/Salten/?date=12.05.2015'
p1752
sg16
S'Toerre flakskred'
p1753
sg17
S'Liten tilleggsbelastning'
p1754
sg18
g45
sg19
S'Varsel'
p1755
sg21
S'2 - Smaa'
p1756
sg22
S'Nedsnoedd eller nedfoeyket svakt lag med loes nysnoe'
p1757
sg24
S'Lag med loes nysnoe'
p1758
sg26
g27
(S'\x07\xdf\x05\x0c'
p1759
tp1760
Rp1761
sg31
(dp1762
sg33
I0
sg34
I10
sg35
S'Salten'
p1763
sba(igetproblems
AvalancheProblem
p1764
(dp1765
g4
Nsg6
Nsg8
I133
sg9
S'Mulig'
p1766
sg10
g40
sg12
Nsg13
S'Mange bratte heng'
p1767
sg14
S'http://www.varsom.no/Snoskred/Salten/?date=12.05.2015'
p1768
sg16
S'Vaate loessnoeskred'
p1769
sg17
S'Liten tilleggsbelastning'
p1770
sg18
g153
sg19
S'Varsel'
p1771
sg21
S'1 - Harmloest'
p1772
sg22
S'Regn / temperaturstigning / soloppvarming'
p1773
sg24
S'Regn/temperaturstigning'
p1774
sg26
g27
(S'\x07\xdf\x05\x0c'
p1775
tp1776
Rp1777
sg31
(dp1778
sg33
I1
sg34
I25
sg35
S'Salten'
p1779
sba(igetproblems
AvalancheProblem
p1780
(dp1781
g4
Nsg6
Nsg8
I133
sg9
S'Mulig'
p1782
sg10
g40
sg12
Nsg13
S'Mange bratte heng'
p1783
sg14
S'http://www.varsom.no/Snoskred/Salten/?date=13.05.2015'
p1784
sg16
S'Vaate loessnoeskred'
p1785
sg17
S'Liten tilleggsbelastning'
p1786
sg18
g153
sg19
S'Varsel'
p1787
sg21
S'1 - Harmloest'
p1788
sg22
S'Regn / temperaturstigning / soloppvarming'
p1789
sg24
S'Regn/temperaturstigning'
p1790
sg26
g27
(S'\x07\xdf\x05\r'
p1791
tp1792
Rp1793
sg31
(dp1794
sg33
I1
sg34
I25
sg35
S'Salten'
p1795
sba(igetproblems
AvalancheProblem
p1796
(dp1797
g4
S'FAUSKE'
p1798
sg6
VSindreH@ObsKorps
p1799
sg8
I133
sg9
Nsg10
g11
sg12
I62928
sg13
Nsg14
S'http://www.regobs.no/Registration/62928'
p1800
sg16
Nsg17
Nsg18
Nsg19
S'Observasjon'
p1801
sg21
S'1 - Harmloest'
p1802
sg22
S'Snoedekket gjennomfuktet og ustabilt fra overflaten'
p1803
sg24
S'Gjennomfuktet fra overflaten'
p1804
sg26
g27
(S'\x07\xdf\x05\x0e'
p1805
tp1806
Rp1807
sg31
(dp1808
sg33
I0
sg34
I21
sg35
S'Salten'
p1809
sba(igetproblems
AvalancheProblem
p1810
(dp1811
g4
S'FAUSKE'
p1812
sg6
VSindreH@ObsKorps
p1813
sg8
I133
sg9
Nsg10
g11
sg12
I62931
sg13
Nsg14
S'http://www.regobs.no/Registration/62931'
p1814
sg16
Nsg17
Nsg18
Nsg19
S'Observasjon'
p1815
sg21
S'2 - Smaa'
p1816
sg22
S'Nedsnoedd eller nedfoeyket svakt lag med loes nysnoe'
p1817
sg24
S'Lag med loes nysnoe'
p1818
sg26
g27
(S'\x07\xdf\x05\x0e'
p1819
tp1820
Rp1821
sg31
(dp1822
sg33
I0
sg34
I10
sg35
S'Salten'
p1823
sba(igetproblems
AvalancheProblem
p1824
(dp1825
g4
Nsg6
Nsg8
I133
sg9
S'Mulig'
p1826
sg10
g40
sg12
Nsg13
S'Isolerte faresoner'
p1827
sg14
S'http://www.varsom.no/Snoskred/Salten/?date=14.05.2015'
p1828
sg16
S'Toerre flakskred'
p1829
sg17
S'Liten tilleggsbelastning'
p1830
sg18
g45
sg19
S'Varsel'
p1831
sg21
S'2 - Smaa'
p1832
sg22
S'Nedsnoedd eller nedfoeyket svakt lag med loes nysnoe'
p1833
sg24
S'Lag med loes nysnoe'
p1834
sg26
g27
(S'\x07\xdf\x05\x0e'
p1835
tp1836
Rp1837
sg31
(dp1838
sg33
I2
sg34
I10
sg35
S'Salten'
p1839
sba(igetproblems
AvalancheProblem
p1840
(dp1841
g4
Nsg6
Nsg8
I133
sg9
S'Mulig'
p1842
sg10
g40
sg12
Nsg13
S'Isolerte faresoner'
p1843
sg14
S'http://www.varsom.no/Snoskred/Salten/?date=15.05.2015'
p1844
sg16
S'Toerre flakskred'
p1845
sg17
S'Liten tilleggsbelastning'
p1846
sg18
g45
sg19
S'Varsel'
p1847
sg21
S'2 - Smaa'
p1848
sg22
S'Nedsnoedd eller nedfoeyket svakt lag med loes nysnoe'
p1849
sg24
S'Lag med loes nysnoe'
p1850
sg26
g27
(S'\x07\xdf\x05\x0f'
p1851
tp1852
Rp1853
sg31
(dp1854
sg33
I0
sg34
I10
sg35
S'Salten'
p1855
sba(igetproblems
AvalancheProblem
p1856
(dp1857
g4
Nsg6
Nsg8
I133
sg9
S'Mulig'
p1858
sg10
g40
sg12
Nsg13
S'Mange bratte heng'
p1859
sg14
S'http://www.varsom.no/Snoskred/Salten/?date=15.05.2015'
p1860
sg16
S'Vaate loessnoeskred'
p1861
sg17
S'Naturlig utloest'
p1862
sg18
g153
sg19
S'Varsel'
p1863
sg21
S'1 - Harmloest'
p1864
sg22
S'Regn / temperaturstigning / soloppvarming'
p1865
sg24
S'Regn/temperaturstigning'
p1866
sg26
g27
(S'\x07\xdf\x05\x0f'
p1867
tp1868
Rp1869
sg31
(dp1870
sg33
I1
sg34
I25
sg35
S'Salten'
p1871
sba(igetproblems
AvalancheProblem
p1872
(dp1873
g4
S'FAUSKE'
p1874
sg6
VSindreH@ObsKorps
p1875
sg8
I133
sg9
Nsg10
g11
sg12
I63101
sg13
Nsg14
S'http://www.regobs.no/Registration/63101'
p1876
sg16
Nsg17
Nsg18
Nsg19
S'Observasjon'
p1877
sg21
S'1 - Harmloest'
p1878
sg22
S'Snoedekket gjennomfuktet og ustabilt fra overflaten'
p1879
sg24
S'Gjennomfuktet fra overflaten'
p1880
sg26
g27
(S'\x07\xdf\x05\x10'
p1881
tp1882
Rp1883
sg31
(dp1884
sg33
I0
sg34
I21
sg35
S'Salten'
p1885
sba(igetproblems
AvalancheProblem
p1886
(dp1887
g4
Nsg6
Nsg8
I133
sg9
S'Mulig'
p1888
sg10
g40
sg12
Nsg13
S'Noen bratte heng'
p1889
sg14
S'http://www.varsom.no/Snoskred/Salten/?date=16.05.2015'
p1890
sg16
S'Vaate loessnoeskred'
p1891
sg17
S'Liten tilleggsbelastning'
p1892
sg18
g153
sg19
S'Varsel'
p1893
sg21
S'1 - Harmloest'
p1894
sg22
S'Regn / temperaturstigning / soloppvarming'
p1895
sg24
S'Regn/temperaturstigning'
p1896
sg26
g27
(S'\x07\xdf\x05\x10'
p1897
tp1898
Rp1899
sg31
(dp1900
sg33
I1
sg34
I25
sg35
S'Salten'
p1901
sba(igetproblems
AvalancheProblem
p1902
(dp1903
g4
Nsg6
Nsg8
I133
sg9
S'Mulig'
p1904
sg10
g40
sg12
Nsg13
S'Noen bratte heng'
p1905
sg14
S'http://www.varsom.no/Snoskred/Salten/?date=17.05.2015'
p1906
sg16
S'Vaate loessnoeskred'
p1907
sg17
S'Liten tilleggsbelastning'
p1908
sg18
g153
sg19
S'Varsel'
p1909
sg21
S'1 - Harmloest'
p1910
sg22
S'Snoedekket er overmettet av vann'
p1911
sg24
S'Snoedekket er overmettet av vann'
p1912
sg26
g27
(S'\x07\xdf\x05\x11'
p1913
tp1914
Rp1915
sg31
(dp1916
sg33
I1
sg34
I23
sg35
S'Salten'
p1917
sba(igetproblems
AvalancheProblem
p1918
(dp1919
g4
S'FAUSKE'
p1920
sg6
VSindreH@ObsKorps
p1921
sg8
I133
sg9
Nsg10
g11
sg12
I63246
sg13
Nsg14
S'http://www.regobs.no/Registration/63246'
p1922
sg16
Nsg17
Nsg18
Nsg19
S'Observasjon'
p1923
sg21
S'1 - Harmloest'
p1924
sg22
S'Snoedekket gjennomfuktet og ustabilt fra overflaten'
p1925
sg24
S'Gjennomfuktet fra overflaten'
p1926
sg26
g27
(S'\x07\xdf\x05\x12'
p1927
tp1928
Rp1929
sg31
(dp1930
sg33
I0
sg34
I21
sg35
S'Salten'
p1931
sba(igetproblems
AvalancheProblem
p1932
(dp1933
g4
Nsg6
Nsg8
I133
sg9
S'Mulig'
p1934
sg10
g40
sg12
Nsg13
S'Noen bratte heng'
p1935
sg14
S'http://www.varsom.no/Snoskred/Salten/?date=18.05.2015'
p1936
sg16
S'Vaate loessnoeskred'
p1937
sg17
S'Liten tilleggsbelastning'
p1938
sg18
g153
sg19
S'Varsel'
p1939
sg21
S'1 - Harmloest'
p1940
sg22
S'Snoedekket er overmettet av vann'
p1941
sg24
S'Snoedekket er overmettet av vann'
p1942
sg26
g27
(S'\x07\xdf\x05\x12'
p1943
tp1944
Rp1945
sg31
(dp1946
sg33
I1
sg34
I23
sg35
S'Salten'
p1947
sba(igetproblems
AvalancheProblem
p1948
(dp1949
g4
Nsg6
Nsg8
I133
sg9
S'Mulig'
p1950
sg10
g40
sg12
Nsg13
S'Noen bratte heng'
p1951
sg14
S'http://www.varsom.no/Snoskred/Salten/?date=19.05.2015'
p1952
sg16
S'Vaate loessnoeskred'
p1953
sg17
S'Liten tilleggsbelastning'
p1954
sg18
g153
sg19
S'Varsel'
p1955
sg21
S'1 - Harmloest'
p1956
sg22
S'Snoedekket er overmettet av vann'
p1957
sg24
S'Snoedekket er overmettet av vann'
p1958
sg26
g27
(S'\x07\xdf\x05\x13'
p1959
tp1960
Rp1961
sg31
(dp1962
sg33
I0
sg34
I23
sg35
S'Salten'
p1963
sba(igetproblems
AvalancheProblem
p1964
(dp1965
g4
Nsg6
Nsg8
I133
sg9
S'Mulig'
p1966
sg10
g40
sg12
Nsg13
S'Noen bratte heng'
p1967
sg14
S'http://www.varsom.no/Snoskred/Salten/?date=20.05.2015'
p1968
sg16
S'Vaate loessnoeskred'
p1969
sg17
S'Liten tilleggsbelastning'
p1970
sg18
g153
sg19
S'Varsel'
p1971
sg21
S'1 - Harmloest'
p1972
sg22
S'Snoedekket er overmettet av vann'
p1973
sg24
S'Snoedekket er overmettet av vann'
p1974
sg26
g27
(S'\x07\xdf\x05\x14'
p1975
tp1976
Rp1977
sg31
(dp1978
sg33
I0
sg34
I23
sg35
S'Salten'
p1979
sba(igetproblems
AvalancheProblem
p1980
(dp1981
g4
S'FAUSKE'
p1982
sg6
VSindreH@ObsKorps
p1983
sg8
I133
sg9
Nsg10
g11
sg12
I63609
sg13
Nsg14
S'http://www.regobs.no/Registration/63609'
p1984
sg16
Nsg17
Nsg18
Nsg19
S'Observasjon'
p1985
sg21
S'1 - Harmloest'
p1986
sg22
S'Snoedekket gjennomfuktet og ustabilt fra overflaten'
p1987
sg24
S'Gjennomfuktet fra overflaten'
p1988
sg26
g27
(S'\x07\xdf\x05\x15'
p1989
tp1990
Rp1991
sg31
(dp1992
sg33
I0
sg34
I21
sg35
S'Salten'
p1993
sba(igetproblems
AvalancheProblem
p1994
(dp1995
g4
Nsg6
Nsg8
I133
sg9
S'Mulig'
p1996
sg10
g40
sg12
Nsg13
S'Noen bratte heng'
p1997
sg14
S'http://www.varsom.no/Snoskred/Salten/?date=21.05.2015'
p1998
sg16
S'Toerre loessnoeskred'
p1999
sg17
S'Liten tilleggsbelastning'
p2000
sg18
g715
sg19
S'Varsel'
p2001
sg21
S'1 - Harmloest'
p2002
sg22
S'Ubundet loes snoe'
p2003
sg24
S'Ubundet loes snoe'
p2004
sg26
g27
(S'\x07\xdf\x05\x15'
p2005
tp2006
Rp2007
sg31
(dp2008
sg33
I0
sg34
I24
sg35
S'Salten'
p2009
sba(igetproblems
AvalancheProblem
p2010
(dp2011
g4
Nsg6
Nsg8
I133
sg9
S'Mulig'
p2012
sg10
g40
sg12
Nsg13
S'Noen bratte heng'
p2013
sg14
S'http://www.varsom.no/Snoskred/Salten/?date=22.05.2015'
p2014
sg16
S'Toerre flakskred'
p2015
sg17
S'Liten tilleggsbelastning'
p2016
sg18
g45
sg19
S'Varsel'
p2017
sg21
S'1 - Harmloest'
p2018
sg22
S'Nedsnoedd eller nedfoeyket svakt lag med loes nysnoe'
p2019
sg24
S'Lag med loes nysnoe'
p2020
sg26
g27
(S'\x07\xdf\x05\x16'
p2021
tp2022
Rp2023
sg31
(dp2024
sg33
I0
sg34
I10
sg35
S'Salten'
p2025
sba(igetproblems
AvalancheProblem
p2026
(dp2027
g4
Nsg6
Nsg8
I133
sg9
S'Mulig'
p2028
sg10
g40
sg12
Nsg13
S'Noen bratte heng'
p2029
sg14
S'http://www.varsom.no/Snoskred/Salten/?date=23.05.2015'
p2030
sg16
S'Toerre flakskred'
p2031
sg17
S'Liten tilleggsbelastning'
p2032
sg18
g45
sg19
S'Varsel'
p2033
sg21
S'1 - Harmloest'
p2034
sg22
S'Nedsnoedd eller nedfoeyket svakt lag med loes nysnoe'
p2035
sg24
S'Lag med loes nysnoe'
p2036
sg26
g27
(S'\x07\xdf\x05\x17'
p2037
tp2038
Rp2039
sg31
(dp2040
sg33
I0
sg34
I10
sg35
S'Salten'
p2041
sba(igetproblems
AvalancheProblem
p2042
(dp2043
g4
Nsg6
Nsg8
I133
sg9
S'Mulig'
p2044
sg10
g40
sg12
Nsg13
S'Isolerte faresoner'
p2045
sg14
S'http://www.varsom.no/Snoskred/Salten/?date=24.05.2015'
p2046
sg16
S'Toerre flakskred'
p2047
sg17
S'Stor tilleggsbelastning'
p2048
sg18
g45
sg19
S'Varsel'
p2049
sg21
S'2 - Smaa'
p2050
sg22
S'Nedsnoedd eller nedfoeyket svakt lag med loes nysnoe'
p2051
sg24
S'Lag med loes nysnoe'
p2052
sg26
g27
(S'\x07\xdf\x05\x18'
p2053
tp2054
Rp2055
sg31
(dp2056
sg33
I0
sg34
I10
sg35
S'Salten'
p2057
sba(igetproblems
AvalancheProblem
p2058
(dp2059
g4
Nsg6
Nsg8
I133
sg9
S'Mulig'
p2060
sg10
g40
sg12
Nsg13
S'Isolerte faresoner'
p2061
sg14
S'http://www.varsom.no/Snoskred/Salten/?date=25.05.2015'
p2062
sg16
S'Vaate loessnoeskred'
p2063
sg17
S'Naturlig utloest'
p2064
sg18
g153
sg19
S'Varsel'
p2065
sg21
S'1 - Harmloest'
p2066
sg22
S'Regn / temperaturstigning / soloppvarming'
p2067
sg24
S'Regn/temperaturstigning'
p2068
sg26
g27
(S'\x07\xdf\x05\x19'
p2069
tp2070
Rp2071
sg31
(dp2072
sg33
I0
sg34
I25
sg35
S'Salten'
p2073
sba(igetproblems
AvalancheProblem
p2074
(dp2075
g4
Nsg6
Nsg8
I133
sg9
S'Mulig'
p2076
sg10
g40
sg12
Nsg13
S'Isolerte faresoner'
p2077
sg14
S'http://www.varsom.no/Snoskred/Salten/?date=26.05.2015'
p2078
sg16
S'Vaate loessnoeskred'
p2079
sg17
S'Naturlig utloest'
p2080
sg18
g153
sg19
S'Varsel'
p2081
sg21
S'1 - Harmloest'
p2082
sg22
S'Regn / temperaturstigning / soloppvarming'
p2083
sg24
S'Regn/temperaturstigning'
p2084
sg26
g27
(S'\x07\xdf\x05\x1a'
p2085
tp2086
Rp2087
sg31
(dp2088
sg33
I0
sg34
I25
sg35
S'Salten'
p2089
sba(igetproblems
AvalancheProblem
p2090
(dp2091
g4
Nsg6
Nsg8
I133
sg9
S'Mulig'
p2092
sg10
g40
sg12
Nsg13
S'Isolerte faresoner'
p2093
sg14
S'http://www.varsom.no/Snoskred/Salten/?date=27.05.2015'
p2094
sg16
S'Vaate loessnoeskred'
p2095
sg17
S'Naturlig utloest'
p2096
sg18
g153
sg19
S'Varsel'
p2097
sg21
S'2 - Smaa'
p2098
sg22
S'Regn / temperaturstigning / soloppvarming'
p2099
sg24
S'Regn/temperaturstigning'
p2100
sg26
g27
(S'\x07\xdf\x05\x1b'
p2101
tp2102
Rp2103
sg31
(dp2104
sg33
I0
sg34
I25
sg35
S'Salten'
p2105
sba(igetproblems
AvalancheProblem
p2106
(dp2107
g4
Nsg6
Nsg8
I133
sg9
S'Mulig'
p2108
sg10
g40
sg12
Nsg13
S'Isolerte faresoner'
p2109
sg14
S'http://www.varsom.no/Snoskred/Salten/?date=28.05.2015'
p2110
sg16
S'Vaate loessnoeskred'
p2111
sg17
S'Liten tilleggsbelastning'
p2112
sg18
g153
sg19
S'Varsel'
p2113
sg21
S'2 - Smaa'
p2114
sg22
S'Regn / temperaturstigning / soloppvarming'
p2115
sg24
S'Regn/temperaturstigning'
p2116
sg26
g27
(S'\x07\xdf\x05\x1c'
p2117
tp2118
Rp2119
sg31
(dp2120
sg33
I0
sg34
I25
sg35
S'Salten'
p2121
sba(igetproblems
AvalancheProblem
p2122
(dp2123
g4
Nsg6
Nsg8
I133
sg9
S'Mulig'
p2124
sg10
g40
sg12
Nsg13
S'Noen bratte heng'
p2125
sg14
S'http://www.varsom.no/Snoskred/Salten/?date=29.05.2015'
p2126
sg16
S'Vaate loessnoeskred'
p2127
sg17
S'Liten tilleggsbelastning'
p2128
sg18
g153
sg19
S'Varsel'
p2129
sg21
S'2 - Smaa'
p2130
sg22
S'Regn / temperaturstigning / soloppvarming'
p2131
sg24
S'Regn/temperaturstigning'
p2132
sg26
g27
(S'\x07\xdf\x05\x1d'
p2133
tp2134
Rp2135
sg31
(dp2136
sg33
I0
sg34
I25
sg35
S'Salten'
p2137
sba(igetproblems
AvalancheProblem
p2138
(dp2139
g4
Nsg6
Nsg8
I133
sg9
S'Mulig'
p2140
sg10
g40
sg12
Nsg13
S'Noen bratte heng'
p2141
sg14
S'http://www.varsom.no/Snoskred/Salten/?date=30.05.2015'
p2142
sg16
S'Vaate loessnoeskred'
p2143
sg17
S'Liten tilleggsbelastning'
p2144
sg18
g153
sg19
S'Varsel'
p2145
sg21
S'2 - Smaa'
p2146
sg22
S'Regn / temperaturstigning / soloppvarming'
p2147
sg24
S'Regn/temperaturstigning'
p2148
sg26
g27
(S'\x07\xdf\x05\x1e'
p2149
tp2150
Rp2151
sg31
(dp2152
sg33
I0
sg34
I25
sg35
S'Salten'
p2153
sba(igetproblems
AvalancheProblem
p2154
(dp2155
g4
Nsg6
Nsg8
I133
sg9
S'Mulig'
p2156
sg10
g40
sg12
Nsg13
S'Isolerte faresoner'
p2157
sg14
S'http://www.varsom.no/Snoskred/Salten/?date=31.05.2015'
p2158
sg16
S'Vaate loessnoeskred'
p2159
sg17
S'Liten tilleggsbelastning'
p2160
sg18
g153
sg19
S'Varsel'
p2161
sg21
S'2 - Smaa'
p2162
sg22
S'Regn / temperaturstigning / soloppvarming'
p2163
sg24
S'Regn/temperaturstigning'
p2164
sg26
g27
(S'\x07\xdf\x05\x1f'
p2165
tp2166
Rp2167
sg31
(dp2168
sg33
I0
sg34
I25
sg35
S'Salten'
p2169
sbaa(lp2170
(igetdangers
AvalancheDanger
p2171
(dp2172
S'main_message_no'
p2173
S'Ikke vurdert'
p2174
sS'main_message_en'
p2175
NsS'danger_level'
p2176
I0
sg35
S'Salten'
p2177
sg19
S'Varsel'
p2178
sS'avalanche_problems'
p2179
(lp2180
sS'nick'
p2181
NsS'region_regobs_id'
p2182
I133
sg26
g27
(S'\x07\xde\x0c\x01'
p2183
tp2184
Rp2185
sS'danger_level_name'
p2186
Nsg31
(dp2187
S'Original norwegian main message'
p2188
VIkke vurdert
p2189
ssS'data_table'
p2190
S'Forecast API'
p2191
sba(igetdangers
AvalancheDanger
p2192
(dp2193
g2173
S'Ikke vurdert'
p2194
sg2175
Nsg2176
I0
sg35
S'Salten'
p2195
sg19
g2178
sg2179
(lp2196
sg2181
Nsg2182
I133
sg26
g27
(S'\x07\xde\x0c\x02'
p2197
tp2198
Rp2199
sg2186
Nsg31
(dp2200
g2188
VIkke vurdert
p2201
ssg2190
S'Forecast API'
p2202
sba(igetdangers
AvalancheDanger
p2203
(dp2204
g2173
S'Ikke vurdert'
p2205
sg2175
Nsg2176
I0
sg35
S'Salten'
p2206
sg19
g2178
sg2179
(lp2207
sg2181
Nsg2182
I133
sg26
g27
(S'\x07\xde\x0c\x03'
p2208
tp2209
Rp2210
sg2186
Nsg31
(dp2211
g2188
VIkke vurdert
p2212
ssg2190
S'Forecast API'
p2213
sba(igetdangers
AvalancheDanger
p2214
(dp2215
g2173
S'Ikke vurdert'
p2216
sg2175
Nsg2176
I0
sg35
S'Salten'
p2217
sg19
g2178
sg2179
(lp2218
sg2181
Nsg2182
I133
sg26
g27
(S'\x07\xde\x0c\x04'
p2219
tp2220
Rp2221
sg2186
Nsg31
(dp2222
g2188
VIkke vurdert
p2223
ssg2190
S'Forecast API'
p2224
sba(igetdangers
AvalancheDanger
p2225
(dp2226
g2173
S'Ikke vurdert'
p2227
sg2175
Nsg2176
I0
sg35
S'Salten'
p2228
sg19
g2178
sg2179
(lp2229
sg2181
Nsg2182
I133
sg26
g27
(S'\x07\xde\x0c\x05'
p2230
tp2231
Rp2232
sg2186
Nsg31
(dp2233
g2188
VIkke vurdert
p2234
ssg2190
S'Forecast API'
p2235
sba(igetdangers
AvalancheDanger
p2236
(dp2237
g2173
S'Ikke vurdert'
p2238
sg2175
Nsg2176
I0
sg35
S'Salten'
p2239
sg19
g2178
sg2179
(lp2240
sg2181
Nsg2182
I133
sg26
g27
(S'\x07\xde\x0c\x06'
p2241
tp2242
Rp2243
sg2186
Nsg31
(dp2244
g2188
VIkke vurdert
p2245
ssg2190
S'Forecast API'
p2246
sba(igetdangers
AvalancheDanger
p2247
(dp2248
g2173
S'Ikke vurdert'
p2249
sg2175
Nsg2176
I0
sg35
S'Salten'
p2250
sg19
g2178
sg2179
(lp2251
sg2181
Nsg2182
I133
sg26
g27
(S'\x07\xde\x0c\x07'
p2252
tp2253
Rp2254
sg2186
Nsg31
(dp2255
g2188
VIkke vurdert
p2256
ssg2190
S'Forecast API'
p2257
sba(igetdangers
AvalancheDanger
p2258
(dp2259
g2173
S'Ikke vurdert'
p2260
sg2175
Nsg2176
I0
sg35
S'Salten'
p2261
sg19
g2178
sg2179
(lp2262
sg2181
Nsg2182
I133
sg26
g27
(S'\x07\xde\x0c\x08'
p2263
tp2264
Rp2265
sg2186
Nsg31
(dp2266
g2188
VIkke vurdert
p2267
ssg2190
S'Forecast API'
p2268
sba(igetdangers
AvalancheDanger
p2269
(dp2270
g2173
S'Ikke vurdert'
p2271
sg2175
Nsg2176
I0
sg35
S'Salten'
p2272
sg19
g2178
sg2179
(lp2273
sg2181
Nsg2182
I133
sg26
g27
(S'\x07\xde\x0c\t'
p2274
tp2275
Rp2276
sg2186
Nsg31
(dp2277
g2188
VIkke vurdert
p2278
ssg2190
S'Forecast API'
p2279
sba(igetdangers
AvalancheDanger
p2280
(dp2281
g2173
S'Ikke vurdert'
p2282
sg2175
Nsg2176
I0
sg35
S'Salten'
p2283
sg19
g2178
sg2179
(lp2284
sg2181
Nsg2182
I133
sg26
g27
(S'\x07\xde\x0c\n'
p2285
tp2286
Rp2287
sg2186
Nsg31
(dp2288
g2188
VIkke vurdert
p2289
ssg2190
S'Forecast API'
p2290
sba(igetdangers
AvalancheDanger
p2291
(dp2292
g2173
S'Ikke vurdert'
p2293
sg2175
Nsg2176
I0
sg35
S'Salten'
p2294
sg19
g2178
sg2179
(lp2295
sg2181
Nsg2182
I133
sg26
g27
(S'\x07\xde\x0c\x0b'
p2296
tp2297
Rp2298
sg2186
Nsg31
(dp2299
g2188
VIkke vurdert
p2300
ssg2190
S'Forecast API'
p2301
sba(igetdangers
AvalancheDanger
p2302
(dp2303
g2173
S'Ikke vurdert'
p2304
sg2175
Nsg2176
I0
sg35
S'Salten'
p2305
sg19
g2178
sg2179
(lp2306
sg2181
Nsg2182
I133
sg26
g27
(S'\x07\xde\x0c\x0c'
p2307
tp2308
Rp2309
sg2186
Nsg31
(dp2310
g2188
VIkke vurdert
p2311
ssg2190
S'Forecast API'
p2312
sba(igetdangers
AvalancheDanger
p2313
(dp2314
g2173
S'Ikke vurdert'
p2315
sg2175
Nsg2176
I0
sg35
S'Salten'
p2316
sg19
g2178
sg2179
(lp2317
sg2181
Nsg2182
I133
sg26
g27
(S'\x07\xde\x0c\r'
p2318
tp2319
Rp2320
sg2186
Nsg31
(dp2321
g2188
VIkke vurdert
p2322
ssg2190
S'Forecast API'
p2323
sba(igetdangers
AvalancheDanger
p2324
(dp2325
g2173
S'Ikke vurdert'
p2326
sg2175
Nsg2176
I0
sg35
S'Salten'
p2327
sg19
g2178
sg2179
(lp2328
sg2181
Nsg2182
I133
sg26
g27
(S'\x07\xde\x0c\x0e'
p2329
tp2330
Rp2331
sg2186
Nsg31
(dp2332
g2188
VIkke vurdert
p2333
ssg2190
S'Forecast API'
p2334
sba(igetdangers
AvalancheDanger
p2335
(dp2336
g2173
S'Ikke vurdert'
p2337
sg2175
Nsg2176
I0
sg35
S'Salten'
p2338
sg19
g2178
sg2179
(lp2339
sg2181
Nsg2182
I133
sg26
g27
(S'\x07\xde\x0c\x0f'
p2340
tp2341
Rp2342
sg2186
Nsg31
(dp2343
g2188
VIkke vurdert
p2344
ssg2190
S'Forecast API'
p2345
sba(igetdangers
AvalancheDanger
p2346
(dp2347
g2173
S'Ikke vurdert'
p2348
sg2175
Nsg2176
I0
sg35
S'Salten'
p2349
sg19
g2178
sg2179
(lp2350
sg2181
Nsg2182
I133
sg26
g27
(S'\x07\xde\x0c\x10'
p2351
tp2352
Rp2353
sg2186
Nsg31
(dp2354
g2188
VIkke vurdert
p2355
ssg2190
S'Forecast API'
p2356
sba(igetdangers
AvalancheDanger
p2357
(dp2358
g2173
S'Ikke vurdert'
p2359
sg2175
Nsg2176
I0
sg35
S'Salten'
p2360
sg19
g2178
sg2179
(lp2361
sg2181
Nsg2182
I133
sg26
g27
(S'\x07\xde\x0c\x11'
p2362
tp2363
Rp2364
sg2186
Nsg31
(dp2365
g2188
VIkke vurdert
p2366
ssg2190
S'Forecast API'
p2367
sba(igetdangers
AvalancheDanger
p2368
(dp2369
g2173
S'Ikke vurdert'
p2370
sg2175
Nsg2176
I0
sg35
S'Salten'
p2371
sg19
g2178
sg2179
(lp2372
sg2181
Nsg2182
I133
sg26
g27
(S'\x07\xde\x0c\x12'
p2373
tp2374
Rp2375
sg2186
Nsg31
(dp2376
g2188
VIkke vurdert
p2377
ssg2190
S'Forecast API'
p2378
sba(igetdangers
AvalancheDanger
p2379
(dp2380
g2173
S'Ikke vurdert'
p2381
sg2175
Nsg2176
I0
sg35
S'Salten'
p2382
sg19
g2178
sg2179
(lp2383
sg2181
Nsg2182
I133
sg26
g27
(S'\x07\xde\x0c\x13'
p2384
tp2385
Rp2386
sg2186
Nsg31
(dp2387
g2188
VIkke vurdert
p2388
ssg2190
S'Forecast API'
p2389
sba(igetdangers
AvalancheDanger
p2390
(dp2391
g2173
S'Ikke vurdert'
p2392
sg2175
Nsg2176
I0
sg35
S'Salten'
p2393
sg19
g2178
sg2179
(lp2394
sg2181
Nsg2182
I133
sg26
g27
(S'\x07\xde\x0c\x14'
p2395
tp2396
Rp2397
sg2186
Nsg31
(dp2398
g2188
VIkke vurdert
p2399
ssg2190
S'Forecast API'
p2400
sba(igetdangers
AvalancheDanger
p2401
(dp2402
g2173
S'Ikke vurdert'
p2403
sg2175
Nsg2176
I0
sg35
S'Salten'
p2404
sg19
g2178
sg2179
(lp2405
sg2181
Nsg2182
I133
sg26
g27
(S'\x07\xde\x0c\x15'
p2406
tp2407
Rp2408
sg2186
Nsg31
(dp2409
g2188
VIkke vurdert
p2410
ssg2190
S'Forecast API'
p2411
sba(igetdangers
AvalancheDanger
p2412
(dp2413
g2173
S'Ikke vurdert'
p2414
sg2175
Nsg2176
I0
sg35
S'Salten'
p2415
sg19
g2178
sg2179
(lp2416
sg2181
Nsg2182
I133
sg26
g27
(S'\x07\xde\x0c\x16'
p2417
tp2418
Rp2419
sg2186
Nsg31
(dp2420
g2188
VIkke vurdert
p2421
ssg2190
S'Forecast API'
p2422
sba(igetdangers
AvalancheDanger
p2423
(dp2424
g2173
S'Ikke vurdert'
p2425
sg2175
Nsg2176
I0
sg35
S'Salten'
p2426
sg19
g2178
sg2179
(lp2427
sg2181
Nsg2182
I133
sg26
g27
(S'\x07\xde\x0c\x17'
p2428
tp2429
Rp2430
sg2186
Nsg31
(dp2431
g2188
VIkke vurdert
p2432
ssg2190
S'Forecast API'
p2433
sba(igetdangers
AvalancheDanger
p2434
(dp2435
g2173
S'Ikke vurdert'
p2436
sg2175
Nsg2176
I0
sg35
S'Salten'
p2437
sg19
g2178
sg2179
(lp2438
sg2181
Nsg2182
I133
sg26
g27
(S'\x07\xde\x0c\x18'
p2439
tp2440
Rp2441
sg2186
Nsg31
(dp2442
g2188
VIkke vurdert
p2443
ssg2190
S'Forecast API'
p2444
sba(igetdangers
AvalancheDanger
p2445
(dp2446
g2173
S'Ikke vurdert'
p2447
sg2175
Nsg2176
I0
sg35
S'Salten'
p2448
sg19
g2178
sg2179
(lp2449
sg2181
Nsg2182
I133
sg26
g27
(S'\x07\xde\x0c\x19'
p2450
tp2451
Rp2452
sg2186
Nsg31
(dp2453
g2188
VIkke vurdert
p2454
ssg2190
S'Forecast API'
p2455
sba(igetdangers
AvalancheDanger
p2456
(dp2457
g2173
S'Ikke vurdert'
p2458
sg2175
Nsg2176
I0
sg35
S'Salten'
p2459
sg19
g2178
sg2179
(lp2460
sg2181
Nsg2182
I133
sg26
g27
(S'\x07\xde\x0c\x1a'
p2461
tp2462
Rp2463
sg2186
Nsg31
(dp2464
g2188
VIkke vurdert
p2465
ssg2190
S'Forecast API'
p2466
sba(igetdangers
AvalancheDanger
p2467
(dp2468
g2173
S'Ikke vurdert'
p2469
sg2175
Nsg2176
I0
sg35
S'Salten'
p2470
sg19
g2178
sg2179
(lp2471
sg2181
Nsg2182
I133
sg26
g27
(S'\x07\xde\x0c\x1b'
p2472
tp2473
Rp2474
sg2186
Nsg31
(dp2475
g2188
VIkke vurdert
p2476
ssg2190
S'Forecast API'
p2477
sba(igetdangers
AvalancheDanger
p2478
(dp2479
g2173
S'Ikke vurdert'
p2480
sg2175
Nsg2176
I0
sg35
S'Salten'
p2481
sg19
g2178
sg2179
(lp2482
sg2181
Nsg2182
I133
sg26
g27
(S'\x07\xde\x0c\x1c'
p2483
tp2484
Rp2485
sg2186
Nsg31
(dp2486
g2188
VIkke vurdert
p2487
ssg2190
S'Forecast API'
p2488
sba(igetdangers
AvalancheDanger
p2489
(dp2490
g2173
S'Ikke vurdert'
p2491
sg2175
Nsg2176
I0
sg35
S'Salten'
p2492
sg19
g2178
sg2179
(lp2493
sg2181
Nsg2182
I133
sg26
g27
(S'\x07\xde\x0c\x1d'
p2494
tp2495
Rp2496
sg2186
Nsg31
(dp2497
g2188
VIkke vurdert
p2498
ssg2190
S'Forecast API'
p2499
sba(igetdangers
AvalancheDanger
p2500
(dp2501
g2173
S'Ikke vurdert'
p2502
sg2175
Nsg2176
I0
sg35
S'Salten'
p2503
sg19
g2178
sg2179
(lp2504
sg2181
Nsg2182
I133
sg26
g27
(S'\x07\xde\x0c\x1e'
p2505
tp2506
Rp2507
sg2186
Nsg31
(dp2508
g2188
VIkke vurdert
p2509
ssg2190
S'Forecast API'
p2510
sba(igetdangers
AvalancheDanger
p2511
(dp2512
g2173
S'Ikke vurdert'
p2513
sg2175
Nsg2176
I0
sg35
S'Salten'
p2514
sg19
g2178
sg2179
(lp2515
sg2181
Nsg2182
I133
sg26
g27
(S'\x07\xde\x0c\x1f'
p2516
tp2517
Rp2518
sg2186
Nsg31
(dp2519
g2188
VIkke vurdert
p2520
ssg2190
S'Forecast API'
p2521
sba(igetdangers
AvalancheDanger
p2522
(dp2523
g2173
S'Ikke vurdert'
p2524
sg2175
Nsg2176
I0
sg35
S'Salten'
p2525
sg19
g2178
sg2179
(lp2526
sg2181
Nsg2182
I133
sg26
g27
(S'\x07\xdf\x01\x01'
p2527
tp2528
Rp2529
sg2186
Nsg31
(dp2530
g2188
VIkke vurdert
p2531
ssg2190
S'Forecast API'
p2532
sba(igetdangers
AvalancheDanger
p2533
(dp2534
g2173
S'Ikke vurdert'
p2535
sg2175
Nsg2176
I0
sg35
S'Salten'
p2536
sg19
g2178
sg2179
(lp2537
sg2181
Nsg2182
I133
sg26
g27
(S'\x07\xdf\x01\x02'
p2538
tp2539
Rp2540
sg2186
Nsg31
(dp2541
g2188
VIkke vurdert
p2542
ssg2190
S'Forecast API'
p2543
sba(igetdangers
AvalancheDanger
p2544
(dp2545
g2173
S'Ikke vurdert'
p2546
sg2175
Nsg2176
I0
sg35
S'Salten'
p2547
sg19
g2178
sg2179
(lp2548
sg2181
Nsg2182
I133
sg26
g27
(S'\x07\xdf\x01\x03'
p2549
tp2550
Rp2551
sg2186
Nsg31
(dp2552
g2188
VIkke vurdert
p2553
ssg2190
S'Forecast API'
p2554
sba(igetdangers
AvalancheDanger
p2555
(dp2556
g2173
S'Ikke vurdert'
p2557
sg2175
Nsg2176
I0
sg35
S'Salten'
p2558
sg19
g2178
sg2179
(lp2559
sg2181
Nsg2182
I133
sg26
g27
(S'\x07\xdf\x01\x04'
p2560
tp2561
Rp2562
sg2186
Nsg31
(dp2563
g2188
VIkke vurdert
p2564
ssg2190
S'Forecast API'
p2565
sba(igetdangers
AvalancheDanger
p2566
(dp2567
g2173
S'Ikke vurdert'
p2568
sg2175
Nsg2176
I0
sg35
S'Salten'
p2569
sg19
g2178
sg2179
(lp2570
sg2181
Nsg2182
I133
sg26
g27
(S'\x07\xdf\x01\x05'
p2571
tp2572
Rp2573
sg2186
Nsg31
(dp2574
g2188
VIkke vurdert
p2575
ssg2190
S'Forecast API'
p2576
sba(igetdangers
AvalancheDanger
p2577
(dp2578
g2173
S'Ikke vurdert'
p2579
sg2175
Nsg2176
I0
sg35
S'Salten'
p2580
sg19
g2178
sg2179
(lp2581
sg2181
Nsg2182
I133
sg26
g27
(S'\x07\xdf\x01\x06'
p2582
tp2583
Rp2584
sg2186
Nsg31
(dp2585
g2188
VIkke vurdert
p2586
ssg2190
S'Forecast API'
p2587
sba(igetdangers
AvalancheDanger
p2588
(dp2589
g2173
S'Ikke vurdert'
p2590
sg2175
Nsg2176
I0
sg35
S'Salten'
p2591
sg19
g2178
sg2179
(lp2592
sg2181
Nsg2182
I133
sg26
g27
(S'\x07\xdf\x01\x07'
p2593
tp2594
Rp2595
sg2186
Nsg31
(dp2596
g2188
VIkke vurdert
p2597
ssg2190
S'Forecast API'
p2598
sba(igetdangers
AvalancheDanger
p2599
(dp2600
g2173
S'Ikke vurdert'
p2601
sg2175
Nsg2176
I0
sg35
S'Salten'
p2602
sg19
g2178
sg2179
(lp2603
sg2181
Nsg2182
I133
sg26
g27
(S'\x07\xdf\x01\x08'
p2604
tp2605
Rp2606
sg2186
Nsg31
(dp2607
g2188
VIkke vurdert
p2608
ssg2190
S'Forecast API'
p2609
sba(igetdangers
AvalancheDanger
p2610
(dp2611
g2173
S'Ikke vurdert'
p2612
sg2175
Nsg2176
I0
sg35
S'Salten'
p2613
sg19
g2178
sg2179
(lp2614
sg2181
Nsg2182
I133
sg26
g27
(S'\x07\xdf\x01\t'
p2615
tp2616
Rp2617
sg2186
Nsg31
(dp2618
g2188
VIkke vurdert
p2619
ssg2190
S'Forecast API'
p2620
sba(igetdangers
AvalancheDanger
p2621
(dp2622
g2173
S'Ikke vurdert'
p2623
sg2175
Nsg2176
I0
sg35
S'Salten'
p2624
sg19
g2178
sg2179
(lp2625
sg2181
Nsg2182
I133
sg26
g27
(S'\x07\xdf\x01\n'
p2626
tp2627
Rp2628
sg2186
Nsg31
(dp2629
g2188
VIkke vurdert
p2630
ssg2190
S'Forecast API'
p2631
sba(igetdangers
AvalancheDanger
p2632
(dp2633
g2173
S'Ikke vurdert'
p2634
sg2175
Nsg2176
I0
sg35
S'Salten'
p2635
sg19
g2178
sg2179
(lp2636
sg2181
Nsg2182
I133
sg26
g27
(S'\x07\xdf\x01\x0b'
p2637
tp2638
Rp2639
sg2186
Nsg31
(dp2640
g2188
VIkke vurdert
p2641
ssg2190
S'Forecast API'
p2642
sba(igetdangers
AvalancheDanger
p2643
(dp2644
g2173
S'Ikke vurdert'
p2645
sg2175
Nsg2176
I0
sg35
S'Salten'
p2646
sg19
g2178
sg2179
(lp2647
sg2181
Nsg2182
I133
sg26
g27
(S'\x07\xdf\x01\x0c'
p2648
tp2649
Rp2650
sg2186
Nsg31
(dp2651
g2188
VIkke vurdert
p2652
ssg2190
S'Forecast API'
p2653
sba(igetdangers
AvalancheDanger
p2654
(dp2655
g2173
S'Ikke vurdert'
p2656
sg2175
Nsg2176
I0
sg35
S'Salten'
p2657
sg19
g2178
sg2179
(lp2658
sg2181
Nsg2182
I133
sg26
g27
(S'\x07\xdf\x01\r'
p2659
tp2660
Rp2661
sg2186
Nsg31
(dp2662
g2188
VIkke vurdert
p2663
ssg2190
S'Forecast API'
p2664
sba(igetdangers
AvalancheDanger
p2665
(dp2666
g2173
S'Ikke vurdert'
p2667
sg2175
Nsg2176
I0
sg35
S'Salten'
p2668
sg19
g2178
sg2179
(lp2669
sg2181
Nsg2182
I133
sg26
g27
(S'\x07\xdf\x01\x0e'
p2670
tp2671
Rp2672
sg2186
Nsg31
(dp2673
g2188
VIkke vurdert
p2674
ssg2190
S'Forecast API'
p2675
sba(igetdangers
AvalancheDanger
p2676
(dp2677
g2173
S'Ikke vurdert'
p2678
sg2175
Nsg2176
I0
sg35
S'Salten'
p2679
sg19
g2178
sg2179
(lp2680
sg2181
Nsg2182
I133
sg26
g27
(S'\x07\xdf\x01\x0f'
p2681
tp2682
Rp2683
sg2186
Nsg31
(dp2684
g2188
VIkke vurdert
p2685
ssg2190
S'Forecast API'
p2686
sba(igetdangers
AvalancheDanger
p2687
(dp2688
g2173
S'Ikke vurdert'
p2689
sg2175
Nsg2176
I0
sg35
S'Salten'
p2690
sg19
g2178
sg2179
(lp2691
sg2181
Nsg2182
I133
sg26
g27
(S'\x07\xdf\x01\x10'
p2692
tp2693
Rp2694
sg2186
Nsg31
(dp2695
g2188
VIkke vurdert
p2696
ssg2190
S'Forecast API'
p2697
sba(igetdangers
AvalancheDanger
p2698
(dp2699
g2173
S'Ikke vurdert'
p2700
sg2175
Nsg2176
I0
sg35
S'Salten'
p2701
sg19
g2178
sg2179
(lp2702
sg2181
Nsg2182
I133
sg26
g27
(S'\x07\xdf\x01\x11'
p2703
tp2704
Rp2705
sg2186
Nsg31
(dp2706
g2188
VIkke vurdert
p2707
ssg2190
S'Forecast API'
p2708
sba(igetdangers
AvalancheDanger
p2709
(dp2710
g2173
S'Ikke vurdert'
p2711
sg2175
Nsg2176
I0
sg35
S'Salten'
p2712
sg19
g2178
sg2179
(lp2713
sg2181
Nsg2182
I133
sg26
g27
(S'\x07\xdf\x01\x12'
p2714
tp2715
Rp2716
sg2186
Nsg31
(dp2717
g2188
VIkke vurdert
p2718
ssg2190
S'Forecast API'
p2719
sba(igetdangers
AvalancheDanger
p2720
(dp2721
g2173
S'Ikke vurdert'
p2722
sg2175
Nsg2176
I0
sg35
S'Salten'
p2723
sg19
g2178
sg2179
(lp2724
sg2181
Nsg2182
I133
sg26
g27
(S'\x07\xdf\x01\x13'
p2725
tp2726
Rp2727
sg2186
Nsg31
(dp2728
g2188
VIkke vurdert
p2729
ssg2190
S'Forecast API'
p2730
sba(igetdangers
AvalancheDanger
p2731
(dp2732
g2173
S'Ikke vurdert'
p2733
sg2175
Nsg2176
I0
sg35
S'Salten'
p2734
sg19
g2178
sg2179
(lp2735
sg2181
Nsg2182
I133
sg26
g27
(S'\x07\xdf\x01\x14'
p2736
tp2737
Rp2738
sg2186
Nsg31
(dp2739
g2188
VIkke vurdert
p2740
ssg2190
S'Forecast API'
p2741
sba(igetdangers
AvalancheDanger
p2742
(dp2743
g2173
S'Ikke vurdert'
p2744
sg2175
Nsg2176
I0
sg35
S'Salten'
p2745
sg19
g2178
sg2179
(lp2746
sg2181
Nsg2182
I133
sg26
g27
(S'\x07\xdf\x01\x15'
p2747
tp2748
Rp2749
sg2186
Nsg31
(dp2750
g2188
VIkke vurdert
p2751
ssg2190
S'Forecast API'
p2752
sba(igetdangers
AvalancheDanger
p2753
(dp2754
g2173
S'Ikke vurdert'
p2755
sg2175
Nsg2176
I0
sg35
S'Salten'
p2756
sg19
g2178
sg2179
(lp2757
sg2181
Nsg2182
I133
sg26
g27
(S'\x07\xdf\x01\x16'
p2758
tp2759
Rp2760
sg2186
Nsg31
(dp2761
g2188
VIkke vurdert
p2762
ssg2190
S'Forecast API'
p2763
sba(igetdangers
AvalancheDanger
p2764
(dp2765
g2173
S'Ikke vurdert'
p2766
sg2175
Nsg2176
I0
sg35
S'Salten'
p2767
sg19
g2178
sg2179
(lp2768
sg2181
Nsg2182
I133
sg26
g27
(S'\x07\xdf\x01\x17'
p2769
tp2770
Rp2771
sg2186
Nsg31
(dp2772
g2188
VIkke vurdert
p2773
ssg2190
S'Forecast API'
p2774
sba(igetdangers
AvalancheDanger
p2775
(dp2776
g2173
S'Ikke vurdert'
p2777
sg2175
Nsg2176
I0
sg35
S'Salten'
p2778
sg19
g2178
sg2179
(lp2779
sg2181
Nsg2182
I133
sg26
g27
(S'\x07\xdf\x01\x18'
p2780
tp2781
Rp2782
sg2186
Nsg31
(dp2783
g2188
VIkke vurdert
p2784
ssg2190
S'Forecast API'
p2785
sba(igetdangers
AvalancheDanger
p2786
(dp2787
g2173
S'Ikke vurdert'
p2788
sg2175
Nsg2176
I0
sg35
S'Salten'
p2789
sg19
g2178
sg2179
(lp2790
sg2181
Nsg2182
I133
sg26
g27
(S'\x07\xdf\x01\x19'
p2791
tp2792
Rp2793
sg2186
Nsg31
(dp2794
g2188
VIkke vurdert
p2795
ssg2190
S'Forecast API'
p2796
sba(igetdangers
AvalancheDanger
p2797
(dp2798
g2173
S'Ikke vurdert'
p2799
sg2175
Nsg2176
I0
sg35
S'Salten'
p2800
sg19
g2178
sg2179
(lp2801
sg2181
Nsg2182
I133
sg26
g27
(S'\x07\xdf\x01\x1a'
p2802
tp2803
Rp2804
sg2186
Nsg31
(dp2805
g2188
VIkke vurdert
p2806
ssg2190
S'Forecast API'
p2807
sba(igetdangers
AvalancheDanger
p2808
(dp2809
g2173
S'Ikke vurdert'
p2810
sg2175
Nsg2176
I0
sg35
S'Salten'
p2811
sg19
g2178
sg2179
(lp2812
sg2181
Nsg2182
I133
sg26
g27
(S'\x07\xdf\x01\x1b'
p2813
tp2814
Rp2815
sg2186
Nsg31
(dp2816
g2188
VIkke vurdert
p2817
ssg2190
S'Forecast API'
p2818
sba(igetdangers
AvalancheDanger
p2819
(dp2820
g2173
S'Ikke vurdert'
p2821
sg2175
Nsg2176
I0
sg35
S'Salten'
p2822
sg19
g2178
sg2179
(lp2823
sg2181
Nsg2182
I133
sg26
g27
(S'\x07\xdf\x01\x1c'
p2824
tp2825
Rp2826
sg2186
Nsg31
(dp2827
g2188
VIkke vurdert
p2828
ssg2190
S'Forecast API'
p2829
sba(igetdangers
AvalancheDanger
p2830
(dp2831
g2173
S'Ikke vurdert'
p2832
sg2175
Nsg2176
I0
sg35
S'Salten'
p2833
sg19
g2178
sg2179
(lp2834
sg2181
Nsg2182
I133
sg26
g27
(S'\x07\xdf\x01\x1d'
p2835
tp2836
Rp2837
sg2186
Nsg31
(dp2838
g2188
VIkke vurdert
p2839
ssg2190
S'Forecast API'
p2840
sba(igetdangers
AvalancheDanger
p2841
(dp2842
g2173
S'Ikke vurdert'
p2843
sg2175
Nsg2176
I0
sg35
S'Salten'
p2844
sg19
g2178
sg2179
(lp2845
sg2181
Nsg2182
I133
sg26
g27
(S'\x07\xdf\x01\x1e'
p2846
tp2847
Rp2848
sg2186
Nsg31
(dp2849
g2188
VIkke vurdert
p2850
ssg2190
S'Forecast API'
p2851
sba(igetdangers
AvalancheDanger
p2852
(dp2853
g2173
S'Ikke vurdert'
p2854
sg2175
Nsg2176
I0
sg35
S'Salten'
p2855
sg19
g2178
sg2179
(lp2856
sg2181
Nsg2182
I133
sg26
g27
(S'\x07\xdf\x01\x1f'
p2857
tp2858
Rp2859
sg2186
Nsg31
(dp2860
g2188
VIkke vurdert
p2861
ssg2190
S'Forecast API'
p2862
sba(igetdangers
AvalancheDanger
p2863
(dp2864
g2173
S'Ikke vurdert'
p2865
sg2175
Nsg2176
I0
sg35
S'Salten'
p2866
sg19
g2178
sg2179
(lp2867
sg2181
Nsg2182
I133
sg26
g27
(S'\x07\xdf\x02\x01'
p2868
tp2869
Rp2870
sg2186
Nsg31
(dp2871
g2188
VIkke vurdert
p2872
ssg2190
S'Forecast API'
p2873
sba(igetdangers
AvalancheDanger
p2874
(dp2875
g2173
S'Ikke vurdert'
p2876
sg2175
Nsg2176
I0
sg35
S'Salten'
p2877
sg19
g2178
sg2179
(lp2878
sg2181
Nsg2182
I133
sg26
g27
(S'\x07\xdf\x02\x02'
p2879
tp2880
Rp2881
sg2186
Nsg31
(dp2882
g2188
VIkke vurdert
p2883
ssg2190
S'Forecast API'
p2884
sba(igetdangers
AvalancheDanger
p2885
(dp2886
g2173
S'Ikke vurdert'
p2887
sg2175
Nsg2176
I0
sg35
S'Salten'
p2888
sg19
g2178
sg2179
(lp2889
sg2181
Nsg2182
I133
sg26
g27
(S'\x07\xdf\x02\x03'
p2890
tp2891
Rp2892
sg2186
Nsg31
(dp2893
g2188
VIkke vurdert
p2894
ssg2190
S'Forecast API'
p2895
sba(igetdangers
AvalancheDanger
p2896
(dp2897
g2173
S'Ikke vurdert'
p2898
sg2175
Nsg2176
I0
sg35
S'Salten'
p2899
sg19
g2178
sg2179
(lp2900
sg2181
Nsg2182
I133
sg26
g27
(S'\x07\xdf\x02\x04'
p2901
tp2902
Rp2903
sg2186
Nsg31
(dp2904
g2188
VIkke vurdert
p2905
ssg2190
S'Forecast API'
p2906
sba(igetdangers
AvalancheDanger
p2907
(dp2908
g2173
S'Ikke vurdert'
p2909
sg2175
Nsg2176
I0
sg35
S'Salten'
p2910
sg19
g2178
sg2179
(lp2911
sg2181
Nsg2182
I133
sg26
g27
(S'\x07\xdf\x02\x05'
p2912
tp2913
Rp2914
sg2186
Nsg31
(dp2915
g2188
VIkke vurdert
p2916
ssg2190
S'Forecast API'
p2917
sba(igetdangers
AvalancheDanger
p2918
(dp2919
g2173
S'Ikke vurdert'
p2920
sg2175
Nsg2176
I0
sg35
S'Salten'
p2921
sg19
g2178
sg2179
(lp2922
sg2181
Nsg2182
I133
sg26
g27
(S'\x07\xdf\x02\x06'
p2923
tp2924
Rp2925
sg2186
Nsg31
(dp2926
g2188
VIkke vurdert
p2927
ssg2190
S'Forecast API'
p2928
sba(igetdangers
AvalancheDanger
p2929
(dp2930
g2173
S'Ikke vurdert'
p2931
sg2175
Nsg2176
I0
sg35
S'Salten'
p2932
sg19
g2178
sg2179
(lp2933
sg2181
Nsg2182
I133
sg26
g27
(S'\x07\xdf\x02\x07'
p2934
tp2935
Rp2936
sg2186
Nsg31
(dp2937
g2188
VIkke vurdert
p2938
ssg2190
S'Forecast API'
p2939
sba(igetdangers
AvalancheDanger
p2940
(dp2941
g2173
S'Ikke vurdert'
p2942
sg2175
Nsg2176
I0
sg35
S'Salten'
p2943
sg19
g2178
sg2179
(lp2944
sg2181
Nsg2182
I133
sg26
g27
(S'\x07\xdf\x02\x08'
p2945
tp2946
Rp2947
sg2186
Nsg31
(dp2948
g2188
VIkke vurdert
p2949
ssg2190
S'Forecast API'
p2950
sba(igetdangers
AvalancheDanger
p2951
(dp2952
g2173
S'Ikke vurdert'
p2953
sg2175
Nsg2176
I0
sg35
S'Salten'
p2954
sg19
g2178
sg2179
(lp2955
sg2181
Nsg2182
I133
sg26
g27
(S'\x07\xdf\x02\t'
p2956
tp2957
Rp2958
sg2186
Nsg31
(dp2959
g2188
VIkke vurdert
p2960
ssg2190
S'Forecast API'
p2961
sba(igetdangers
AvalancheDanger
p2962
(dp2963
g2173
S'Ikke vurdert'
p2964
sg2175
Nsg2176
I0
sg35
S'Salten'
p2965
sg19
g2178
sg2179
(lp2966
sg2181
Nsg2182
I133
sg26
g27
(S'\x07\xdf\x02\n'
p2967
tp2968
Rp2969
sg2186
Nsg31
(dp2970
g2188
VIkke vurdert
p2971
ssg2190
S'Forecast API'
p2972
sba(igetdangers
AvalancheDanger
p2973
(dp2974
g2173
S'Ikke vurdert'
p2975
sg2175
Nsg2176
I0
sg35
S'Salten'
p2976
sg19
g2178
sg2179
(lp2977
sg2181
Nsg2182
I133
sg26
g27
(S'\x07\xdf\x02\x0b'
p2978
tp2979
Rp2980
sg2186
Nsg31
(dp2981
g2188
VIkke vurdert
p2982
ssg2190
S'Forecast API'
p2983
sba(igetdangers
AvalancheDanger
p2984
(dp2985
g2173
S'Ikke vurdert'
p2986
sg2175
Nsg2176
I0
sg35
S'Salten'
p2987
sg19
g2178
sg2179
(lp2988
sg2181
Nsg2182
I133
sg26
g27
(S'\x07\xdf\x02\x0c'
p2989
tp2990
Rp2991
sg2186
Nsg31
(dp2992
g2188
VIkke vurdert
p2993
ssg2190
S'Forecast API'
p2994
sba(igetdangers
AvalancheDanger
p2995
(dp2996
g2173
S'Ikke vurdert'
p2997
sg2175
Nsg2176
I0
sg35
S'Salten'
p2998
sg19
g2178
sg2179
(lp2999
sg2181
Nsg2182
I133
sg26
g27
(S'\x07\xdf\x02\r'
p3000
tp3001
Rp3002
sg2186
Nsg31
(dp3003
g2188
VIkke vurdert
p3004
ssg2190
S'Forecast API'
p3005
sba(igetdangers
AvalancheDanger
p3006
(dp3007
g2173
S'Ikke vurdert'
p3008
sg2175
Nsg2176
I0
sg35
S'Salten'
p3009
sg19
g2178
sg2179
(lp3010
sg2181
Nsg2182
I133
sg26
g27
(S'\x07\xdf\x02\x0e'
p3011
tp3012
Rp3013
sg2186
Nsg31
(dp3014
g2188
VIkke vurdert
p3015
ssg2190
S'Forecast API'
p3016
sba(igetdangers
AvalancheDanger
p3017
(dp3018
g2173
S'Ikke vurdert'
p3019
sg2175
Nsg2176
I0
sg35
S'Salten'
p3020
sg19
g2178
sg2179
(lp3021
sg2181
Nsg2182
I133
sg26
g27
(S'\x07\xdf\x02\x0f'
p3022
tp3023
Rp3024
sg2186
Nsg31
(dp3025
g2188
VIkke vurdert
p3026
ssg2190
S'Forecast API'
p3027
sba(igetdangers
AvalancheDanger
p3028
(dp3029
g2173
S'Ikke vurdert'
p3030
sg2175
Nsg2176
I0
sg35
S'Salten'
p3031
sg19
g2178
sg2179
(lp3032
sg2181
Nsg2182
I133
sg26
g27
(S'\x07\xdf\x02\x10'
p3033
tp3034
Rp3035
sg2186
Nsg31
(dp3036
g2188
VIkke vurdert
p3037
ssg2190
S'Forecast API'
p3038
sba(igetdangers
AvalancheDanger
p3039
(dp3040
g2173
S'Ikke vurdert'
p3041
sg2175
Nsg2176
I0
sg35
S'Salten'
p3042
sg19
g2178
sg2179
(lp3043
sg2181
Nsg2182
I133
sg26
g27
(S'\x07\xdf\x02\x11'
p3044
tp3045
Rp3046
sg2186
Nsg31
(dp3047
g2188
VIkke vurdert
p3048
ssg2190
S'Forecast API'
p3049
sba(igetdangers
AvalancheDanger
p3050
(dp3051
g2173
S'Ikke vurdert'
p3052
sg2175
Nsg2176
I0
sg35
S'Salten'
p3053
sg19
g2178
sg2179
(lp3054
sg2181
Nsg2182
I133
sg26
g27
(S'\x07\xdf\x02\x12'
p3055
tp3056
Rp3057
sg2186
Nsg31
(dp3058
g2188
VIkke vurdert
p3059
ssg2190
S'Forecast API'
p3060
sba(igetdangers
AvalancheDanger
p3061
(dp3062
g2173
S'Ikke vurdert'
p3063
sg2175
Nsg2176
I0
sg35
S'Salten'
p3064
sg19
g2178
sg2179
(lp3065
sg2181
Nsg2182
I133
sg26
g27
(S'\x07\xdf\x02\x13'
p3066
tp3067
Rp3068
sg2186
Nsg31
(dp3069
g2188
VIkke vurdert
p3070
ssg2190
S'Forecast API'
p3071
sba(igetdangers
AvalancheDanger
p3072
(dp3073
g2173
S'Ikke vurdert'
p3074
sg2175
Nsg2176
I0
sg35
S'Salten'
p3075
sg19
g2178
sg2179
(lp3076
sg2181
Nsg2182
I133
sg26
g27
(S'\x07\xdf\x02\x14'
p3077
tp3078
Rp3079
sg2186
Nsg31
(dp3080
g2188
VIkke vurdert
p3081
ssg2190
S'Forecast API'
p3082
sba(igetdangers
AvalancheDanger
p3083
(dp3084
g2173
S'Ikke vurdert'
p3085
sg2175
Nsg2176
I0
sg35
S'Salten'
p3086
sg19
g2178
sg2179
(lp3087
sg2181
Nsg2182
I133
sg26
g27
(S'\x07\xdf\x02\x15'
p3088
tp3089
Rp3090
sg2186
Nsg31
(dp3091
g2188
VIkke vurdert
p3092
ssg2190
S'Forecast API'
p3093
sba(igetdangers
AvalancheDanger
p3094
(dp3095
g2173
S'Ikke vurdert'
p3096
sg2175
Nsg2176
I0
sg35
S'Salten'
p3097
sg19
g2178
sg2179
(lp3098
sg2181
Nsg2182
I133
sg26
g27
(S'\x07\xdf\x02\x16'
p3099
tp3100
Rp3101
sg2186
Nsg31
(dp3102
g2188
VIkke vurdert
p3103
ssg2190
S'Forecast API'
p3104
sba(igetdangers
AvalancheDanger
p3105
(dp3106
g2173
S'Ikke vurdert'
p3107
sg2175
Nsg2176
I0
sg35
S'Salten'
p3108
sg19
g2178
sg2179
(lp3109
sg2181
Nsg2182
I133
sg26
g27
(S'\x07\xdf\x02\x17'
p3110
tp3111
Rp3112
sg2186
Nsg31
(dp3113
g2188
VIkke vurdert
p3114
ssg2190
S'Forecast API'
p3115
sba(igetdangers
AvalancheDanger
p3116
(dp3117
g2173
S'Ikke vurdert'
p3118
sg2175
Nsg2176
I0
sg35
S'Salten'
p3119
sg19
g2178
sg2179
(lp3120
sg2181
Nsg2182
I133
sg26
g27
(S'\x07\xdf\x02\x18'
p3121
tp3122
Rp3123
sg2186
Nsg31
(dp3124
g2188
VIkke vurdert
p3125
ssg2190
S'Forecast API'
p3126
sba(igetdangers
AvalancheDanger
p3127
(dp3128
g2173
S'Ikke vurdert'
p3129
sg2175
Nsg2176
I0
sg35
S'Salten'
p3130
sg19
g2178
sg2179
(lp3131
sg2181
Nsg2182
I133
sg26
g27
(S'\x07\xdf\x02\x19'
p3132
tp3133
Rp3134
sg2186
Nsg31
(dp3135
g2188
VIkke vurdert
p3136
ssg2190
S'Forecast API'
p3137
sba(igetdangers
AvalancheDanger
p3138
(dp3139
g2173
S'Ikke vurdert'
p3140
sg2175
Nsg2176
I0
sg35
S'Salten'
p3141
sg19
g2178
sg2179
(lp3142
sg2181
Nsg2182
I133
sg26
g27
(S'\x07\xdf\x02\x1a'
p3143
tp3144
Rp3145
sg2186
Nsg31
(dp3146
g2188
VIkke vurdert
p3147
ssg2190
S'Forecast API'
p3148
sba(igetdangers
AvalancheDanger
p3149
(dp3150
g2173
S'Ikke vurdert'
p3151
sg2175
Nsg2176
I0
sg35
S'Salten'
p3152
sg19
g2178
sg2179
(lp3153
sg2181
Nsg2182
I133
sg26
g27
(S'\x07\xdf\x02\x1b'
p3154
tp3155
Rp3156
sg2186
Nsg31
(dp3157
g2188
VIkke vurdert
p3158
ssg2190
S'Forecast API'
p3159
sba(igetdangers
AvalancheDanger
p3160
(dp3161
g2173
S'Ikke vurdert'
p3162
sg2175
Nsg2176
I0
sg35
S'Salten'
p3163
sg19
g2178
sg2179
(lp3164
sg2181
Nsg2182
I133
sg26
g27
(S'\x07\xdf\x02\x1c'
p3165
tp3166
Rp3167
sg2186
Nsg31
(dp3168
g2188
VIkke vurdert
p3169
ssg2190
S'Forecast API'
p3170
sba(igetdangers
AvalancheDanger
p3171
(dp3172
g2173
S'Ikke vurdert'
p3173
sg2175
Nsg2176
I0
sg35
S'Salten'
p3174
sg19
g2178
sg2179
(lp3175
sg2181
Nsg2182
I133
sg26
g27
(S'\x07\xdf\x03\x01'
p3176
tp3177
Rp3178
sg2186
Nsg31
(dp3179
g2188
VIkke vurdert
p3180
ssg2190
S'Forecast API'
p3181
sba(igetdangers
AvalancheDanger
p3182
(dp3183
g2173
S'Ikke vurdert'
p3184
sg2175
Nsg2176
I0
sg35
S'Salten'
p3185
sg19
g2178
sg2179
(lp3186
sg2181
Nsg2182
I133
sg26
g27
(S'\x07\xdf\x03\x02'
p3187
tp3188
Rp3189
sg2186
Nsg31
(dp3190
g2188
VIkke vurdert
p3191
ssg2190
S'Forecast API'
p3192
sba(igetdangers
AvalancheDanger
p3193
(dp3194
g2173
S'Ikke vurdert'
p3195
sg2175
Nsg2176
I0
sg35
S'Salten'
p3196
sg19
g2178
sg2179
(lp3197
sg2181
Nsg2182
I133
sg26
g27
(S'\x07\xdf\x03\x03'
p3198
tp3199
Rp3200
sg2186
Nsg31
(dp3201
g2188
VIkke vurdert
p3202
ssg2190
S'Forecast API'
p3203
sba(igetdangers
AvalancheDanger
p3204
(dp3205
g2173
S'Ikke vurdert'
p3206
sg2175
Nsg2176
I0
sg35
S'Salten'
p3207
sg19
g2178
sg2179
(lp3208
sg2181
Nsg2182
I133
sg26
g27
(S'\x07\xdf\x03\x04'
p3209
tp3210
Rp3211
sg2186
Nsg31
(dp3212
g2188
VIkke vurdert
p3213
ssg2190
S'Forecast API'
p3214
sba(igetdangers
AvalancheDanger
p3215
(dp3216
g2173
S'Ikke vurdert'
p3217
sg2175
Nsg2176
I0
sg35
S'Salten'
p3218
sg19
g2178
sg2179
(lp3219
sg2181
Nsg2182
I133
sg26
g27
(S'\x07\xdf\x03\x05'
p3220
tp3221
Rp3222
sg2186
Nsg31
(dp3223
g2188
VIkke vurdert
p3224
ssg2190
S'Forecast API'
p3225
sba(igetdangers
AvalancheDanger
p3226
(dp3227
g2173
S'Ikke vurdert'
p3228
sg2175
Nsg2176
I0
sg35
S'Salten'
p3229
sg19
g2178
sg2179
(lp3230
sg2181
Nsg2182
I133
sg26
g27
(S'\x07\xdf\x03\x06'
p3231
tp3232
Rp3233
sg2186
Nsg31
(dp3234
g2188
VIkke vurdert
p3235
ssg2190
S'Forecast API'
p3236
sba(igetdangers
AvalancheDanger
p3237
(dp3238
g2173
S'Ikke vurdert'
p3239
sg2175
Nsg2176
I0
sg35
S'Salten'
p3240
sg19
g2178
sg2179
(lp3241
sg2181
Nsg2182
I133
sg26
g27
(S'\x07\xdf\x03\x07'
p3242
tp3243
Rp3244
sg2186
Nsg31
(dp3245
g2188
VIkke vurdert
p3246
ssg2190
S'Forecast API'
p3247
sba(igetdangers
AvalancheDanger
p3248
(dp3249
g2173
S'Ikke vurdert'
p3250
sg2175
Nsg2176
I0
sg35
S'Salten'
p3251
sg19
g2178
sg2179
(lp3252
sg2181
Nsg2182
I133
sg26
g27
(S'\x07\xdf\x03\x08'
p3253
tp3254
Rp3255
sg2186
Nsg31
(dp3256
g2188
VIkke vurdert
p3257
ssg2190
S'Forecast API'
p3258
sba(igetdangers
AvalancheDanger
p3259
(dp3260
g2173
S'Ikke vurdert'
p3261
sg2175
Nsg2176
I0
sg35
S'Salten'
p3262
sg19
g2178
sg2179
(lp3263
sg2181
Nsg2182
I133
sg26
g27
(S'\x07\xdf\x03\t'
p3264
tp3265
Rp3266
sg2186
Nsg31
(dp3267
g2188
VIkke vurdert
p3268
ssg2190
S'Forecast API'
p3269
sba(igetdangers
AvalancheDanger
p3270
(dp3271
g2173
S'Ikke vurdert'
p3272
sg2175
Nsg2176
I0
sg35
S'Salten'
p3273
sg19
g2178
sg2179
(lp3274
sg2181
Nsg2182
I133
sg26
g27
(S'\x07\xdf\x03\n'
p3275
tp3276
Rp3277
sg2186
Nsg31
(dp3278
g2188
VIkke vurdert
p3279
ssg2190
S'Forecast API'
p3280
sba(igetdangers
AvalancheDanger
p3281
(dp3282
g2173
S'Ikke vurdert'
p3283
sg2175
Nsg2176
I0
sg35
S'Salten'
p3284
sg19
g2178
sg2179
(lp3285
sg2181
Nsg2182
I133
sg26
g27
(S'\x07\xdf\x03\x0b'
p3286
tp3287
Rp3288
sg2186
Nsg31
(dp3289
g2188
VIkke vurdert
p3290
ssg2190
S'Forecast API'
p3291
sba(igetdangers
AvalancheDanger
p3292
(dp3293
g2173
S'Ikke vurdert'
p3294
sg2175
Nsg2176
I0
sg35
S'Salten'
p3295
sg19
g2178
sg2179
(lp3296
sg2181
Nsg2182
I133
sg26
g27
(S'\x07\xdf\x03\x0c'
p3297
tp3298
Rp3299
sg2186
Nsg31
(dp3300
g2188
VIkke vurdert
p3301
ssg2190
S'Forecast API'
p3302
sba(igetdangers
AvalancheDanger
p3303
(dp3304
g2173
S'Generelt ustabile forhold. Stedvis kan en enkelt skikjoerer loese ut skred i den ferske fokksnoeen. Stor variasjon i forholdene grunnet snoebyger.'
p3305
sg2175
Nsg2176
I3
sg35
S'Salten'
p3306
sg19
g2178
sg2179
(lp3307
sg2181
Nsg2182
I133
sg26
g27
(S'\x07\xdf\x03\r'
p3308
tp3309
Rp3310
sg2186
S'3 Betydelig'
p3311
sg31
(dp3312
g2188
VGenerelt ustabile forhold. Stedvis kan en enkelt skikjrer lse ut skred i den ferske fokksnen. Stor variasjon i forholdene grunnet snbyger.
p3313
ssg2190
S'Forecast API'
p3314
sba(igetdangers
AvalancheDanger
p3315
(dp3316
g2173
S'Lokalt ustabile forhold. Vaer forsiktig i omraader med fersk fokksnoe. Stor variasjon i forholdene grunnet snoebyger.'
p3317
sg2175
Nsg2176
I2
sg35
S'Salten'
p3318
sg19
g2178
sg2179
(lp3319
sg2181
Nsg2182
I133
sg26
g27
(S'\x07\xdf\x03\x0e'
p3320
tp3321
Rp3322
sg2186
S'2 Moderat'
p3323
sg31
(dp3324
g2188
VLokalt ustabile forhold. Vr forsiktig i omrder med fersk fokksn. Stor variasjon i forholdene grunnet snbyger.
p3325
ssg2190
S'Forecast API'
p3326
sba(igetdangers
AvalancheDanger
p3327
(dp3328
g2173
S'Lokalt ustabile forhold. Vaer forsiktig i omraader med fokksnoe.'
p3329
sg2175
Nsg2176
I2
sg35
S'Salten'
p3330
sg19
g2178
sg2179
(lp3331
sg2181
Nsg2182
I133
sg26
g27
(S'\x07\xdf\x03\x0f'
p3332
tp3333
Rp3334
sg2186
S'2 Moderat'
p3335
sg31
(dp3336
g2188
VLokalt ustabile forhold. Vr forsiktig i omrder med fokksn. 
p3337
ssg2190
S'Forecast API'
p3338
sba(igetdangers
AvalancheDanger
p3339
(dp3340
g2173
Nsg2175
Nsg2176
I1
sg35
S'Salten'
p3341
sg19
S'Observasjon'
p3342
sg2179
(lp3343
sg2181
Vper@SVV
p3344
sg2182
I133
sg26
g27
(S'\x07\xdf\x03\x0f'
p3345
tp3346
Rp3347
sg2186
S'1 Liten'
p3348
sg31
(dp3349
S'Original datetime'
p3350
cdatetime
datetime
p3351
(S'\x07\xdf\x03\x0f\x0b\x12\x0b\x00\x00\x00'
p3352
tp3353
Rp3354
ssg2190
S'AvalancheEvaluation3V'
p3355
sba(igetdangers
AvalancheDanger
p3356
(dp3357
g2173
S'Lokalt ustabile forhold. Vaer forsiktig i omraader med fokksnoe.'
p3358
sg2175
Nsg2176
I2
sg35
S'Salten'
p3359
sg19
g2178
sg2179
(lp3360
sg2181
Nsg2182
I133
sg26
g27
(S'\x07\xdf\x03\x10'
p3361
tp3362
Rp3363
sg2186
S'2 Moderat'
p3364
sg31
(dp3365
g2188
VLokalt ustabile forhold. Vr forsiktig i omrder med fokksn. 
p3366
ssg2190
S'Forecast API'
p3367
sba(igetdangers
AvalancheDanger
p3368
(dp3369
g2173
S'Generelt stabile forhold. Vaer oppmerksom for ustabil snoe i isolerte bratte heng.'
p3370
sg2175
Nsg2176
I1
sg35
S'Salten'
p3371
sg19
g2178
sg2179
(lp3372
sg2181
Nsg2182
I133
sg26
g27
(S'\x07\xdf\x03\x11'
p3373
tp3374
Rp3375
sg2186
S'1 Liten'
p3376
sg31
(dp3377
g2188
VGenerelt stabile forhold. Vr oppmerksom for ustabil sn i isolerte bratte heng.
p3378
ssg2190
S'Forecast API'
p3379
sba(igetdangers
AvalancheDanger
p3380
(dp3381
g2173
Nsg2175
Nsg2176
I2
sg35
S'Salten'
p3382
sg19
g3342
sg2179
(lp3383
sg2181
VSindreH@ObsKorps
p3384
sg2182
I133
sg26
g27
(S'\x07\xdf\x03\x11'
p3385
tp3386
Rp3387
sg2186
S'2 Moderat'
p3388
sg31
(dp3389
g3350
g3351
(S'\x07\xdf\x03\x11\x0b\x1f\x15\x00\x00\x00'
p3390
tp3391
Rp3392
ssg2190
S'AvalancheEvaluation3V'
p3393
sba(igetdangers
AvalancheDanger
p3394
(dp3395
g2173
S'Generelt stabile forhold. Vaer oppmerksom paa ustabil snoe i isolerte bratte heng.'
p3396
sg2175
Nsg2176
I1
sg35
S'Salten'
p3397
sg19
g2178
sg2179
(lp3398
sg2181
Nsg2182
I133
sg26
g27
(S'\x07\xdf\x03\x12'
p3399
tp3400
Rp3401
sg2186
S'1 Liten'
p3402
sg31
(dp3403
g2188
VGenerelt stabile forhold. Vr oppmerksom p ustabil sn i isolerte bratte heng.
p3404
ssg2190
S'Forecast API'
p3405
sba(igetdangers
AvalancheDanger
p3406
(dp3407
g2173
S'Lokalt ustabile forhold. Vaer forsiktig i leomraader og andre terrengformasjoner som samler fokksnoe i hoeyden.'
p3408
sg2175
Nsg2176
I2
sg35
S'Salten'
p3409
sg19
g2178
sg2179
(lp3410
sg2181
Nsg2182
I133
sg26
g27
(S'\x07\xdf\x03\x13'
p3411
tp3412
Rp3413
sg2186
S'2 Moderat'
p3414
sg31
(dp3415
g2188
VLokalt ustabile forhold. Vr forsiktig i leomrder og andre terrengformasjoner som samler fokksn i hyden.
p3416
ssg2190
S'Forecast API'
p3417
sba(igetdangers
AvalancheDanger
p3418
(dp3419
g2173
S'Lokalt ustabile forhold. Vaer forsiktig i leomraader og andre terrengformasjoner som samler fokksnoe i hoeyden. Generelt stabile forhold i lavlandet.'
p3420
sg2175
Nsg2176
I2
sg35
S'Salten'
p3421
sg19
g2178
sg2179
(lp3422
sg2181
Nsg2182
I133
sg26
g27
(S'\x07\xdf\x03\x14'
p3423
tp3424
Rp3425
sg2186
S'2 Moderat'
p3426
sg31
(dp3427
g2188
VLokalt ustabile forhold. Vr forsiktig i leomrder og andre terrengformasjoner som samler fokksn i hyden. Generelt stabile forhold i lavlandet.
p3428
ssg2190
S'Forecast API'
p3429
sba(igetdangers
AvalancheDanger
p3430
(dp3431
g2173
S'Lokalt ustabile forhold. Vaer forsiktig i leomraader og andre terrengformasjoner som samler fokksnoe i hoeyden. Generelt stabile forhold i lavlandet.'
p3432
sg2175
Nsg2176
I2
sg35
S'Salten'
p3433
sg19
g2178
sg2179
(lp3434
sg2181
Nsg2182
I133
sg26
g27
(S'\x07\xdf\x03\x15'
p3435
tp3436
Rp3437
sg2186
S'2 Moderat'
p3438
sg31
(dp3439
g2188
VLokalt ustabile forhold. Vr forsiktig i leomrder og andre terrengformasjoner som samler fokksn i hyden. Generelt stabile forhold i lavlandet.
p3440
ssg2190
S'Forecast API'
p3441
sba(igetdangers
AvalancheDanger
p3442
(dp3443
g2173
S'Vaer forsiktig der det ligger fersk fokksnoe i hoeyden. Stigende temperatur foerer til midlertidig svekkelse av snoedekket.'
p3444
sg2175
Nsg2176
I3
sg35
S'Salten'
p3445
sg19
g2178
sg2179
(lp3446
sg2181
Nsg2182
I133
sg26
g27
(S'\x07\xdf\x03\x16'
p3447
tp3448
Rp3449
sg2186
S'3 Betydelig'
p3450
sg31
(dp3451
g2188
VVr forsiktig der det ligger fersk fokksn i hyden. Stigende temperatur frer til midlertidig svekkelse av sndekket.
p3452
ssg2190
S'Forecast API'
p3453
sba(igetdangers
AvalancheDanger
p3454
(dp3455
g2173
S'Vaer forsiktig der det ligger fersk fokksnoe i hoeyden.'
p3456
sg2175
Nsg2176
I2
sg35
S'Salten'
p3457
sg19
g2178
sg2179
(lp3458
sg2181
Nsg2182
I133
sg26
g27
(S'\x07\xdf\x03\x17'
p3459
tp3460
Rp3461
sg2186
S'2 Moderat'
p3462
sg31
(dp3463
g2188
VVr forsiktig der det ligger fersk fokksn i hyden.
p3464
ssg2190
S'Forecast API'
p3465
sba(igetdangers
AvalancheDanger
p3466
(dp3467
g2173
Nsg2175
Nsg2176
I2
sg35
S'Salten'
p3468
sg19
g3342
sg2179
(lp3469
sg2181
VSindreH@ObsKorps
p3470
sg2182
I133
sg26
g27
(S'\x07\xdf\x03\x17'
p3471
tp3472
Rp3473
sg2186
S'2 Moderat'
p3474
sg31
(dp3475
g3350
g3351
(S'\x07\xdf\x03\x17\x12-3\x00\x00\x00'
p3476
tp3477
Rp3478
ssg2190
S'AvalancheEvaluation3V'
p3479
sba(igetdangers
AvalancheDanger
p3480
(dp3481
g2173
S'Vaer forsiktig der det ligger fersk fokksnoe i hoeyden.'
p3482
sg2175
Nsg2176
I2
sg35
S'Salten'
p3483
sg19
g2178
sg2179
(lp3484
sg2181
Nsg2182
I133
sg26
g27
(S'\x07\xdf\x03\x18'
p3485
tp3486
Rp3487
sg2186
S'2 Moderat'
p3488
sg31
(dp3489
g2188
VVr forsiktig der det ligger fersk fokksn i hyden.
p3490
ssg2190
S'Forecast API'
p3491
sba(igetdangers
AvalancheDanger
p3492
(dp3493
g2173
Nsg2175
Nsg2176
I2
sg35
S'Salten'
p3494
sg19
g3342
sg2179
(lp3495
sg2181
VDagTheodor@SVV
p3496
sg2182
I133
sg26
g27
(S'\x07\xdf\x03\x18'
p3497
tp3498
Rp3499
sg2186
S'2 Moderat'
p3500
sg31
(dp3501
g3350
g3351
(S'\x07\xdf\x03\x18\r\x17\x07\x00\x00\x00'
p3502
tp3503
Rp3504
ssg2190
S'AvalancheEvaluation3V'
p3505
sba(igetdangers
AvalancheDanger
p3506
(dp3507
g2173
S'Vaer forsiktig i leomraader og andre terrengformasjoner som har samlet fokksnoe, saerlig der snoedekket er tynt feks naer rygger og klipper.'
p3508
sg2175
Nsg2176
I2
sg35
S'Salten'
p3509
sg19
g2178
sg2179
(lp3510
sg2181
Nsg2182
I133
sg26
g27
(S'\x07\xdf\x03\x19'
p3511
tp3512
Rp3513
sg2186
S'2 Moderat'
p3514
sg31
(dp3515
g2188
VVr forsiktig i leomrder og andre terrengformasjoner som har samlet fokksn, srlig der sndekket er tynt feks nr rygger og klipper.
p3516
ssg2190
S'Forecast API'
p3517
sba(igetdangers
AvalancheDanger
p3518
(dp3519
g2173
S'Vaer forsiktig i leomraader og andre terrengformasjoner som har samlet fokksnoe, saerlig der snoedekket er tynt feks naer rygger og klipper.'
p3520
sg2175
Nsg2176
I2
sg35
S'Salten'
p3521
sg19
g2178
sg2179
(lp3522
sg2181
Nsg2182
I133
sg26
g27
(S'\x07\xdf\x03\x1a'
p3523
tp3524
Rp3525
sg2186
S'2 Moderat'
p3526
sg31
(dp3527
g2188
VVr forsiktig i leomrder og andre terrengformasjoner som har samlet fokksn, srlig der sndekket er tynt feks nr rygger og klipper.
p3528
ssg2190
S'Forecast API'
p3529
sba(igetdangers
AvalancheDanger
p3530
(dp3531
g2173
Nsg2175
Nsg2176
I2
sg35
S'Salten'
p3532
sg19
g3342
sg2179
(lp3533
sg2181
VSindreH@ObsKorps
p3534
sg2182
I133
sg26
g27
(S'\x07\xdf\x03\x1a'
p3535
tp3536
Rp3537
sg2186
S'2 Moderat'
p3538
sg31
(dp3539
g3350
g3351
(S'\x07\xdf\x03\x1a\x12-,\x00\x00\x00'
p3540
tp3541
Rp3542
ssg2190
S'AvalancheEvaluation3V'
p3543
sba(igetdangers
AvalancheDanger
p3544
(dp3545
g2173
S'Vaer forsiktig i leomraader og andre terrengformasjoner som har samlet fokksnoe, saerlig der snoedekket er tynt feks naer rygger og klipper.'
p3546
sg2175
Nsg2176
I2
sg35
S'Salten'
p3547
sg19
g2178
sg2179
(lp3548
sg2181
Nsg2182
I133
sg26
g27
(S'\x07\xdf\x03\x1b'
p3549
tp3550
Rp3551
sg2186
S'2 Moderat'
p3552
sg31
(dp3553
g2188
VVr forsiktig i leomrder og andre terrengformasjoner som har samlet fokksn, srlig der sndekket er tynt feks nr rygger og klipper.
p3554
ssg2190
S'Forecast API'
p3555
sba(igetdangers
AvalancheDanger
p3556
(dp3557
g2173
Nsg2175
Nsg2176
I2
sg35
S'Salten'
p3558
sg19
g3342
sg2179
(lp3559
sg2181
Vper@SVV
p3560
sg2182
I133
sg26
g27
(S'\x07\xdf\x03\x1b'
p3561
tp3562
Rp3563
sg2186
S'2 Moderat'
p3564
sg31
(dp3565
g3350
g3351
(S'\x07\xdf\x03\x1b\x0c-\x16\x00\x00\x00'
p3566
tp3567
Rp3568
ssg2190
S'AvalancheEvaluation3V'
p3569
sba(igetdangers
AvalancheDanger
p3570
(dp3571
g2173
S'Vaer forsiktig i leomraader og andre terrengformasjoner som har samlet fokksnoe, saerlig der snoedekket er tynt feks naer rygger og klipper.'
p3572
sg2175
Nsg2176
I2
sg35
S'Salten'
p3573
sg19
g2178
sg2179
(lp3574
sg2181
Nsg2182
I133
sg26
g27
(S'\x07\xdf\x03\x1c'
p3575
tp3576
Rp3577
sg2186
S'2 Moderat'
p3578
sg31
(dp3579
g2188
VVr forsiktig i leomrder og andre terrengformasjoner som har samlet fokksn, srlig der sndekket er tynt feks nr rygger og klipper.
p3580
ssg2190
S'Forecast API'
p3581
sba(igetdangers
AvalancheDanger
p3582
(dp3583
g2173
S'Lokalt ustabile forhold. Utvis varsomhet i leomraader og forsenkninger hvor det ligger fersk fokksnoe.'
p3584
sg2175
Nsg2176
I2
sg35
S'Salten'
p3585
sg19
g2178
sg2179
(lp3586
sg2181
Nsg2182
I133
sg26
g27
(S'\x07\xdf\x03\x1d'
p3587
tp3588
Rp3589
sg2186
S'2 Moderat'
p3590
sg31
(dp3591
g2188
VLokalt ustabile forhold. Utvis varsomhet i leomrder og forsenkninger hvor det ligger fersk fokksn.
p3592
ssg2190
S'Forecast API'
p3593
sba(igetdangers
AvalancheDanger
p3594
(dp3595
g2173
S'Lokalt ustabile forhold. Utvis varsomhet i leomraader og forsenkninger hvor det ligger fersk fokksnoe.'
p3596
sg2175
Nsg2176
I2
sg35
S'Salten'
p3597
sg19
g2178
sg2179
(lp3598
sg2181
Nsg2182
I133
sg26
g27
(S'\x07\xdf\x03\x1e'
p3599
tp3600
Rp3601
sg2186
S'2 Moderat'
p3602
sg31
(dp3603
g2188
VLokalt ustabile forhold. Utvis varsomhet i leomrder og forsenkninger hvor det ligger fersk fokksn.
p3604
ssg2190
S'Forecast API'
p3605
sba(igetdangers
AvalancheDanger
p3606
(dp3607
g2173
Nsg2175
Nsg2176
I2
sg35
S'Salten'
p3608
sg19
g3342
sg2179
(lp3609
sg2181
VSindreH@ObsKorps
p3610
sg2182
I133
sg26
g27
(S'\x07\xdf\x03\x1e'
p3611
tp3612
Rp3613
sg2186
S'2 Moderat'
p3614
sg31
(dp3615
g3350
g3351
(S'\x07\xdf\x03\x1e\x14\x14\x14\x00\x00\x00'
p3616
tp3617
Rp3618
ssg2190
S'AvalancheEvaluation3V'
p3619
sba(igetdangers
AvalancheDanger
p3620
(dp3621
g2173
S'Lokalt ustabile forhold. Utvis varsomhet i leomraader og forsenkninger hvor det ligger fersk fokksnoe.'
p3622
sg2175
Nsg2176
I2
sg35
S'Salten'
p3623
sg19
g2178
sg2179
(lp3624
sg2181
Nsg2182
I133
sg26
g27
(S'\x07\xdf\x03\x1f'
p3625
tp3626
Rp3627
sg2186
S'2 Moderat'
p3628
sg31
(dp3629
g2188
VLokalt ustabile forhold. Utvis varsomhet i leomrder og forsenkninger hvor det ligger fersk fokksn.
p3630
ssg2190
S'Forecast API'
p3631
sba(igetdangers
AvalancheDanger
p3632
(dp3633
g2173
S'Vaer forsiktig i leomraader hvor det samler seg fokksnoe, typisk bak rygger, i soekk og renneformasjoner. Vaer spesielt oppmerksom paa steder der fokksnoelaget er tynt'
p3634
sg2175
Nsg2176
I2
sg35
S'Salten'
p3635
sg19
g2178
sg2179
(lp3636
sg2181
Nsg2182
I133
sg26
g27
(S'\x07\xdf\x04\x01'
p3637
tp3638
Rp3639
sg2186
S'2 Moderat'
p3640
sg31
(dp3641
g2188
VVr forsiktig i leomrder hvor det samler seg fokksn, typisk bak rygger, i skk og renneformasjoner. Vr spesielt oppmerksom p steder der fokksnlaget er tynt
p3642
ssg2190
S'Forecast API'
p3643
sba(igetdangers
AvalancheDanger
p3644
(dp3645
g2173
S'Lokalt ustabile forhold. Vaer varsom i omraader med flak av fersk fokksnoe.'
p3646
sg2175
Nsg2176
I2
sg35
S'Salten'
p3647
sg19
g2178
sg2179
(lp3648
sg2181
Nsg2182
I133
sg26
g27
(S'\x07\xdf\x04\x02'
p3649
tp3650
Rp3651
sg2186
S'2 Moderat'
p3652
sg31
(dp3653
g2188
VLokalt ustabile forhold. Vr varsom i omrder med flak av fersk fokksn.
p3654
ssg2190
S'Forecast API'
p3655
sba(igetdangers
AvalancheDanger
p3656
(dp3657
g2173
Nsg2175
Nsg2176
I2
sg35
S'Salten'
p3658
sg19
g3342
sg2179
(lp3659
sg2181
VSindreH@ObsKorps
p3660
sg2182
I133
sg26
g27
(S'\x07\xdf\x04\x02'
p3661
tp3662
Rp3663
sg2186
S'2 Moderat'
p3664
sg31
(dp3665
g3350
g3351
(S'\x07\xdf\x04\x02\x12\x07)\x00\x00\x00'
p3666
tp3667
Rp3668
ssg2190
S'AvalancheEvaluation3V'
p3669
sba(igetdangers
AvalancheDanger
p3670
(dp3671
g2173
S'Vaer forsiktig i leomraader og andre terrengformasjoner som har samlet fokksnoe, Soloppvarming kan foere til skred i soersider.'
p3672
sg2175
Nsg2176
I2
sg35
S'Salten'
p3673
sg19
g2178
sg2179
(lp3674
sg2181
Nsg2182
I133
sg26
g27
(S'\x07\xdf\x04\x03'
p3675
tp3676
Rp3677
sg2186
S'2 Moderat'
p3678
sg31
(dp3679
g2188
VVr forsiktig i leomrder og andre terrengformasjoner som har samlet fokksn, Soloppvarming kan fre til skred i srsider.
p3680
ssg2190
S'Forecast API'
p3681
sba(igetdangers
AvalancheDanger
p3682
(dp3683
g2173
S'Lokalt ustabile forhold. Vaer forsiktig i leomraader og andre terrengformasjoner som har samlet fokksnoe. Soloppvarming vil foere til mindre skred .'
p3684
sg2175
Nsg2176
I2
sg35
S'Salten'
p3685
sg19
g2178
sg2179
(lp3686
sg2181
Nsg2182
I133
sg26
g27
(S'\x07\xdf\x04\x04'
p3687
tp3688
Rp3689
sg2186
S'2 Moderat'
p3690
sg31
(dp3691
g2188
VLokalt ustabile forhold. Vr forsiktig i leomrder og andre terrengformasjoner som har samlet fokksn. Soloppvarming vil fre til mindre skred .
p3692
ssg2190
S'Forecast API'
p3693
sba(igetdangers
AvalancheDanger
p3694
(dp3695
g2173
S'Lokalt ustabile forhold. Vaer forsiktig i leomraader og andre terrengformasjoner som har samlet fokksnoe.'
p3696
sg2175
Nsg2176
I2
sg35
S'Salten'
p3697
sg19
g2178
sg2179
(lp3698
sg2181
Nsg2182
I133
sg26
g27
(S'\x07\xdf\x04\x05'
p3699
tp3700
Rp3701
sg2186
S'2 Moderat'
p3702
sg31
(dp3703
g2188
VLokalt ustabile forhold. Vr forsiktig i leomrder og andre terrengformasjoner som har samlet fokksn. 
p3704
ssg2190
S'Forecast API'
p3705
sba(igetdangers
AvalancheDanger
p3706
(dp3707
g2173
S'Generelt ustabile forhold. Vaer forsiktig i leomraader og andre terrengformasjoner som har samlet fokksnoe. Ventes vaate snoeskred i lavlandet.'
p3708
sg2175
Nsg2176
I3
sg35
S'Salten'
p3709
sg19
g2178
sg2179
(lp3710
sg2181
Nsg2182
I133
sg26
g27
(S'\x07\xdf\x04\x06'
p3711
tp3712
Rp3713
sg2186
S'3 Betydelig'
p3714
sg31
(dp3715
g2188
VGenerelt ustabile forhold. Vr forsiktig i leomrder og andre terrengformasjoner som har samlet fokksn. Ventes vte snskred i lavlandet.
p3716
ssg2190
S'Forecast API'
p3717
sba(igetdangers
AvalancheDanger
p3718
(dp3719
g2173
S'Generelt ustabile forhold. Unngaa leomraader og andre terrengformasjoner som har samlet fokksnoe. Det ventes vaate snoeskred i lavlandet.'
p3720
sg2175
Nsg2176
I3
sg35
S'Salten'
p3721
sg19
g2178
sg2179
(lp3722
sg2181
Nsg2182
I133
sg26
g27
(S'\x07\xdf\x04\x07'
p3723
tp3724
Rp3725
sg2186
S'3 Betydelig'
p3726
sg31
(dp3727
g2188
VGenerelt ustabile forhold. Unng leomrder og andre terrengformasjoner som har samlet fokksn. Det ventes vte snskred i lavlandet.
p3728
ssg2190
S'Forecast API'
p3729
sba(igetdangers
AvalancheDanger
p3730
(dp3731
g2173
Nsg2175
Nsg2176
I3
sg35
S'Salten'
p3732
sg19
g3342
sg2179
(lp3733
sg2181
Vper@SVV
p3734
sg2182
I133
sg26
g27
(S'\x07\xdf\x04\x07'
p3735
tp3736
Rp3737
sg2186
S'3 Betydelig'
p3738
sg31
(dp3739
g3350
g3351
(S'\x07\xdf\x04\x07\x0e \x00\x00\x00\x00'
p3740
tp3741
Rp3742
ssg2190
S'AvalancheEvaluation3V'
p3743
sba(igetdangers
AvalancheDanger
p3744
(dp3745
g2173
S'Hold deg som skiloeper/skuterkjoerer unna alt skredterreng. Enkelte vegstrekninger kan vaere utsatt.'
p3746
sg2175
Nsg2176
I4
sg35
S'Salten'
p3747
sg19
g2178
sg2179
(lp3748
sg2181
Nsg2182
I133
sg26
g27
(S'\x07\xdf\x04\x08'
p3749
tp3750
Rp3751
sg2186
S'4 Stor'
p3752
sg31
(dp3753
g2188
VHold deg som skilper/skuterkjrer unna alt skredterreng. Enkelte vegstrekninger kan vre utsatt.
p3754
ssg2190
S'Forecast API'
p3755
sba(igetdangers
AvalancheDanger
p3756
(dp3757
g2173
Nsg2175
Nsg2176
I4
sg35
S'Salten'
p3758
sg19
g3342
sg2179
(lp3759
sg2181
Vdrift@svv
p3760
sg2182
I133
sg26
g27
(S'\x07\xdf\x04\x08'
p3761
tp3762
Rp3763
sg2186
S'4 Stor'
p3764
sg31
(dp3765
g3350
g3351
(S'\x07\xdf\x04\x08\t0\x00\x00\x00\x00'
p3766
tp3767
Rp3768
ssg2190
S'AvalancheEvaluation3V'
p3769
sba(igetdangers
AvalancheDanger
p3770
(dp3771
g2173
S'Hold deg som skiloeper/skuterkjoerer unna alt skredterreng. Enkelte vegstrekninger kan vaere utsatt.'
p3772
sg2175
Nsg2176
I4
sg35
S'Salten'
p3773
sg19
g2178
sg2179
(lp3774
sg2181
Nsg2182
I133
sg26
g27
(S'\x07\xdf\x04\t'
p3775
tp3776
Rp3777
sg2186
S'4 Stor'
p3778
sg31
(dp3779
g2188
VHold deg som skilper/skuterkjrer unna alt skredterreng. Enkelte vegstrekninger kan vre utsatt.
p3780
ssg2190
S'Forecast API'
p3781
sba(igetdangers
AvalancheDanger
p3782
(dp3783
g2173
S'Hold deg som skiloeper/skuterkjoerer unna alt skredterreng. Enkelte vegstrekninger kan vaere utsatt.'
p3784
sg2175
Nsg2176
I4
sg35
S'Salten'
p3785
sg19
g2178
sg2179
(lp3786
sg2181
Nsg2182
I133
sg26
g27
(S'\x07\xdf\x04\n'
p3787
tp3788
Rp3789
sg2186
S'4 Stor'
p3790
sg31
(dp3791
g2188
VHold deg som skilper/skuterkjrer unna alt skredterreng. Enkelte vegstrekninger kan vre utsatt.
p3792
ssg2190
S'Forecast API'
p3793
sba(igetdangers
AvalancheDanger
p3794
(dp3795
g2173
S'Generelt ustabile forhold. Unngaa leomraader og andre terrengformasjoner som har samlet fokksnoe.'
p3796
sg2175
Nsg2176
I3
sg35
S'Salten'
p3797
sg19
g2178
sg2179
(lp3798
sg2181
Nsg2182
I133
sg26
g27
(S'\x07\xdf\x04\x0b'
p3799
tp3800
Rp3801
sg2186
S'3 Betydelig'
p3802
sg31
(dp3803
g2188
VGenerelt ustabile forhold. Unng leomrder og andre terrengformasjoner som har samlet fokksn.
p3804
ssg2190
S'Forecast API'
p3805
sba(igetdangers
AvalancheDanger
p3806
(dp3807
g2173
S'Generelt ustabile forhold. Unngaa leomraader og andre terrengformasjoner som har samlet fokksnoe.'
p3808
sg2175
Nsg2176
I3
sg35
S'Salten'
p3809
sg19
g2178
sg2179
(lp3810
sg2181
Nsg2182
I133
sg26
g27
(S'\x07\xdf\x04\x0c'
p3811
tp3812
Rp3813
sg2186
S'3 Betydelig'
p3814
sg31
(dp3815
g2188
VGenerelt ustabile forhold. Unng leomrder og andre terrengformasjoner som har samlet fokksn.
p3816
ssg2190
S'Forecast API'
p3817
sba(igetdangers
AvalancheDanger
p3818
(dp3819
g2173
S'Generelt ustabile forhold. Unngaa leomraader og andre terrengformasjoner som har samlet fokksnoe.'
p3820
sg2175
Nsg2176
I3
sg35
S'Salten'
p3821
sg19
g2178
sg2179
(lp3822
sg2181
Nsg2182
I133
sg26
g27
(S'\x07\xdf\x04\r'
p3823
tp3824
Rp3825
sg2186
S'3 Betydelig'
p3826
sg31
(dp3827
g2188
VGenerelt ustabile forhold. Unng leomrder og andre terrengformasjoner som har samlet fokksn.
p3828
ssg2190
S'Forecast API'
p3829
sba(igetdangers
AvalancheDanger
p3830
(dp3831
g2173
Nsg2175
Nsg2176
I2
sg35
S'Salten'
p3832
sg19
g3342
sg2179
(lp3833
sg2181
VDagTheodor@SVV
p3834
sg2182
I133
sg26
g27
(S'\x07\xdf\x04\r'
p3835
tp3836
Rp3837
sg2186
S'2 Moderat'
p3838
sg31
(dp3839
g3350
g3351
(S'\x07\xdf\x04\r\x0f%$\x00\x00\x00'
p3840
tp3841
Rp3842
ssg2190
S'AvalancheEvaluation3V'
p3843
sba(igetdangers
AvalancheDanger
p3844
(dp3845
g2173
Nsg2175
Nsg2176
I2
sg35
S'Salten'
p3846
sg19
g3342
sg2179
(lp3847
sg2181
VSindreH@ObsKorps
p3848
sg2182
I133
sg26
g27
(S'\x07\xdf\x04\r'
p3849
tp3850
Rp3851
sg2186
S'2 Moderat'
p3852
sg31
(dp3853
g3350
g3351
(S'\x07\xdf\x04\r\x14.\x13\x00\x00\x00'
p3854
tp3855
Rp3856
ssg2190
S'AvalancheEvaluation3V'
p3857
sba(igetdangers
AvalancheDanger
p3858
(dp3859
g2173
S'Lokalt ustabile forhold. Vaer forsiktig i leomraader og andre terrengformasjoner som har samlet fokksnoe.'
p3860
sg2175
Nsg2176
I2
sg35
S'Salten'
p3861
sg19
g2178
sg2179
(lp3862
sg2181
Nsg2182
I133
sg26
g27
(S'\x07\xdf\x04\x0e'
p3863
tp3864
Rp3865
sg2186
S'2 Moderat'
p3866
sg31
(dp3867
g2188
VLokalt ustabile forhold. Vr forsiktig i leomrder og andre terrengformasjoner som har samlet fokksn.
p3868
ssg2190
S'Forecast API'
p3869
sba(igetdangers
AvalancheDanger
p3870
(dp3871
g2173
S'Lokalt ustabile forhold. Vaer forsiktig i leomraader og andre terrengformasjoner som har samlet fokksnoe.'
p3872
sg2175
Nsg2176
I2
sg35
S'Salten'
p3873
sg19
g2178
sg2179
(lp3874
sg2181
Nsg2182
I133
sg26
g27
(S'\x07\xdf\x04\x0f'
p3875
tp3876
Rp3877
sg2186
S'2 Moderat'
p3878
sg31
(dp3879
g2188
VLokalt ustabile forhold. Vr forsiktig i leomrder og andre terrengformasjoner som har samlet fokksn.
p3880
ssg2190
S'Forecast API'
p3881
sba(igetdangers
AvalancheDanger
p3882
(dp3883
g2173
S'Lokalt ustabile forhold. Vaer forsiktig i leomraader og andre terrengformasjoner som har samlet fokksnoe, saerlig hoeyt til fjells.'
p3884
sg2175
Nsg2176
I2
sg35
S'Salten'
p3885
sg19
g2178
sg2179
(lp3886
sg2181
Nsg2182
I133
sg26
g27
(S'\x07\xdf\x04\x10'
p3887
tp3888
Rp3889
sg2186
S'2 Moderat'
p3890
sg31
(dp3891
g2188
VLokalt ustabile forhold. Vr forsiktig i leomrder og andre terrengformasjoner som har samlet fokksn, srlig hyt til fjells.
p3892
ssg2190
S'Forecast API'
p3893
sba(igetdangers
AvalancheDanger
p3894
(dp3895
g2173
Nsg2175
Nsg2176
I1
sg35
S'Salten'
p3896
sg19
g3342
sg2179
(lp3897
sg2181
Vper@SVV
p3898
sg2182
I133
sg26
g27
(S'\x07\xdf\x04\x10'
p3899
tp3900
Rp3901
sg2186
S'1 Liten'
p3902
sg31
(dp3903
g3350
g3351
(S'\x07\xdf\x04\x10\x10\x01\x13\x00\x00\x00'
p3904
tp3905
Rp3906
ssg2190
S'AvalancheEvaluation3V'
p3907
sba(igetdangers
AvalancheDanger
p3908
(dp3909
g2173
S'Generelt stabile forhold. Vaer fortsatt oppmerksom i leomraader og andre terrengformasjoner som har samlet fokksnoe i svaert bratt terreng hoeyt til fjells.'
p3910
sg2175
Nsg2176
I1
sg35
S'Salten'
p3911
sg19
g2178
sg2179
(lp3912
sg2181
Nsg2182
I133
sg26
g27
(S'\x07\xdf\x04\x11'
p3913
tp3914
Rp3915
sg2186
S'1 Liten'
p3916
sg31
(dp3917
g2188
VGenerelt stabile forhold. Vr fortsatt oppmerksom i leomrder og andre terrengformasjoner som har samlet fokksn i svrt bratt terreng hyt til fjells.
p3918
ssg2190
S'Forecast API'
p3919
sba(igetdangers
AvalancheDanger
p3920
(dp3921
g2173
S'Vaer forsiktig i leomraader og andre terrengformasjoner som har samlet fokksnoe, saerlig der snoedekket er tynt feks naer rygger og klipper.'
p3922
sg2175
Nsg2176
I2
sg35
S'Salten'
p3923
sg19
g2178
sg2179
(lp3924
sg2181
Nsg2182
I133
sg26
g27
(S'\x07\xdf\x04\x12'
p3925
tp3926
Rp3927
sg2186
S'2 Moderat'
p3928
sg31
(dp3929
g2188
VVr forsiktig i leomrder og andre terrengformasjoner som har samlet fokksn, srlig der sndekket er tynt feks nr rygger og klipper.
p3930
ssg2190
S'Forecast API'
p3931
sba(igetdangers
AvalancheDanger
p3932
(dp3933
g2173
S'Vaer forsiktig i leomraader og andre terrengformasjoner som har samlet fokksnoe.'
p3934
sg2175
Nsg2176
I2
sg35
S'Salten'
p3935
sg19
g2178
sg2179
(lp3936
sg2181
Nsg2182
I133
sg26
g27
(S'\x07\xdf\x04\x13'
p3937
tp3938
Rp3939
sg2186
S'2 Moderat'
p3940
sg31
(dp3941
g2188
VVr forsiktig i leomrder og andre terrengformasjoner som har samlet fokksn.
p3942
ssg2190
S'Forecast API'
p3943
sba(igetdangers
AvalancheDanger
p3944
(dp3945
g2173
S'Vaer forsiktig i leomraader og andre terrengformasjoner som har samlet fokksnoe.'
p3946
sg2175
Nsg2176
I2
sg35
S'Salten'
p3947
sg19
g2178
sg2179
(lp3948
sg2181
Nsg2182
I133
sg26
g27
(S'\x07\xdf\x04\x14'
p3949
tp3950
Rp3951
sg2186
S'2 Moderat'
p3952
sg31
(dp3953
g2188
VVr forsiktig i leomrder og andre terrengformasjoner som har samlet fokksn.
p3954
ssg2190
S'Forecast API'
p3955
sba(igetdangers
AvalancheDanger
p3956
(dp3957
g2173
S'Stigende temperatur foerer til oekt fare for vaate skred. I hoeyden er gammel fokksnoe problemet, vaer forsiktig i leomraader. I lavlandet kan det gaa vaate skred.'
p3958
sg2175
Nsg2176
I2
sg35
S'Salten'
p3959
sg19
g2178
sg2179
(lp3960
sg2181
Nsg2182
I133
sg26
g27
(S'\x07\xdf\x04\x15'
p3961
tp3962
Rp3963
sg2186
S'2 Moderat'
p3964
sg31
(dp3965
g2188
VStigende temperatur frer til kt fare for vte skred. I hyden er gammel fokksn problemet, vr forsiktig i leomrder. I lavlandet kan det g vte skred. 
p3966
ssg2190
S'Forecast API'
p3967
sba(igetdangers
AvalancheDanger
p3968
(dp3969
g2173
S'Unngaa leomraader og andre terrengformasjoner som har samlet fokksnoe, saerlig der snoedekket er tynt feks naer rygger og klipper.'
p3970
sg2175
Nsg2176
I3
sg35
S'Salten'
p3971
sg19
g2178
sg2179
(lp3972
sg2181
Nsg2182
I133
sg26
g27
(S'\x07\xdf\x04\x16'
p3973
tp3974
Rp3975
sg2186
S'3 Betydelig'
p3976
sg31
(dp3977
g2188
VUnng leomrder og andre terrengformasjoner som har samlet fokksn, srlig der sndekket er tynt feks nr rygger og klipper.
p3978
ssg2190
S'Forecast API'
p3979
sba(igetdangers
AvalancheDanger
p3980
(dp3981
g2173
Nsg2175
Nsg2176
I2
sg35
S'Salten'
p3982
sg19
g3342
sg2179
(lp3983
sg2181
VSindreH@ObsKorps
p3984
sg2182
I133
sg26
g27
(S'\x07\xdf\x04\x16'
p3985
tp3986
Rp3987
sg2186
S'2 Moderat'
p3988
sg31
(dp3989
g3350
g3351
(S'\x07\xdf\x04\x16\x146\r\x00\x00\x00'
p3990
tp3991
Rp3992
ssg2190
S'AvalancheEvaluation3V'
p3993
sba(igetdangers
AvalancheDanger
p3994
(dp3995
g2173
S'Unngaa leomraader og andre terrengformasjoner som har samlet fokksnoe, saerlig der snoedekket er tynt feks naer rygger og klipper.'
p3996
sg2175
Nsg2176
I3
sg35
S'Salten'
p3997
sg19
g2178
sg2179
(lp3998
sg2181
Nsg2182
I133
sg26
g27
(S'\x07\xdf\x04\x17'
p3999
tp4000
Rp4001
sg2186
S'3 Betydelig'
p4002
sg31
(dp4003
g2188
VUnng leomrder og andre terrengformasjoner som har samlet fokksn, srlig der sndekket er tynt feks nr rygger og klipper.
p4004
ssg2190
S'Forecast API'
p4005
sba(igetdangers
AvalancheDanger
p4006
(dp4007
g2173
S'Vaer forsiktig i solutsatte brattheng, og i leomraader og andre terrengformasjoner som har samlet fokksnoe.'
p4008
sg2175
Nsg2176
I2
sg35
S'Salten'
p4009
sg19
g2178
sg2179
(lp4010
sg2181
Nsg2182
I133
sg26
g27
(S'\x07\xdf\x04\x18'
p4011
tp4012
Rp4013
sg2186
S'2 Moderat'
p4014
sg31
(dp4015
g2188
VVr forsiktig i solutsatte brattheng, og i leomrder og andre terrengformasjoner som har samlet fokksn.
p4016
ssg2190
S'Forecast API'
p4017
sba(igetdangers
AvalancheDanger
p4018
(dp4019
g2173
S'Vaer forsiktig i solutsatte brattheng, og i leomraader og andre terrengformasjoner som har samlet fokksnoe.'
p4020
sg2175
Nsg2176
I2
sg35
S'Salten'
p4021
sg19
g2178
sg2179
(lp4022
sg2181
Nsg2182
I133
sg26
g27
(S'\x07\xdf\x04\x19'
p4023
tp4024
Rp4025
sg2186
S'2 Moderat'
p4026
sg31
(dp4027
g2188
VVr forsiktig i solutsatte brattheng, og i leomrder og andre terrengformasjoner som har samlet fokksn.
p4028
ssg2190
S'Forecast API'
p4029
sba(igetdangers
AvalancheDanger
p4030
(dp4031
g2173
S'Vaer forsiktig i leomraader og andre terrengformasjoner som har samlet fokksnoe hoeyt til fjells.'
p4032
sg2175
Nsg2176
I2
sg35
S'Salten'
p4033
sg19
g2178
sg2179
(lp4034
sg2181
Nsg2182
I133
sg26
g27
(S'\x07\xdf\x04\x1a'
p4035
tp4036
Rp4037
sg2186
S'2 Moderat'
p4038
sg31
(dp4039
g2188
VVr forsiktig i leomrder og andre terrengformasjoner som har samlet fokksn hyt til fjells.
p4040
ssg2190
S'Forecast API'
p4041
sba(igetdangers
AvalancheDanger
p4042
(dp4043
g2173
S'Vaer forsiktig i leomraader og andre terrengformasjoner som har samlet fokksnoe hoeyt til fjells.'
p4044
sg2175
Nsg2176
I2
sg35
S'Salten'
p4045
sg19
g2178
sg2179
(lp4046
sg2181
Nsg2182
I133
sg26
g27
(S'\x07\xdf\x04\x1b'
p4047
tp4048
Rp4049
sg2186
S'2 Moderat'
p4050
sg31
(dp4051
g2188
VVr forsiktig i leomrder og andre terrengformasjoner som har samlet fokksn hyt til fjells.
p4052
ssg2190
S'Forecast API'
p4053
sba(igetdangers
AvalancheDanger
p4054
(dp4055
g2173
Nsg2175
Nsg2176
I2
sg35
S'Salten'
p4056
sg19
g3342
sg2179
(lp4057
sg2181
VSindreH@ObsKorps
p4058
sg2182
I133
sg26
g27
(S'\x07\xdf\x04\x1b'
p4059
tp4060
Rp4061
sg2186
S'2 Moderat'
p4062
sg31
(dp4063
g3350
g3351
(S'\x07\xdf\x04\x1b\x14#;\x00\x00\x00'
p4064
tp4065
Rp4066
ssg2190
S'AvalancheEvaluation3V'
p4067
sba(igetdangers
AvalancheDanger
p4068
(dp4069
g2173
S'Lokalt ustabile forhold. Ha ulik tilnaerming til vaatt og toert snoedekke. Fare for ustabile nysnoeflak i hoeyden.'
p4070
sg2175
Nsg2176
I2
sg35
S'Salten'
p4071
sg19
g2178
sg2179
(lp4072
sg2181
Nsg2182
I133
sg26
g27
(S'\x07\xdf\x04\x1c'
p4073
tp4074
Rp4075
sg2186
S'2 Moderat'
p4076
sg31
(dp4077
g2188
VLokalt ustabile forhold. Ha ulik tilnrming til vtt og trt sndekke. Fare for ustabile nysnflak i hyden. 
p4078
ssg2190
S'Forecast API'
p4079
sba(igetdangers
AvalancheDanger
p4080
(dp4081
g2173
S'Lokalt ustabile forhold. Ha ulik tilnaerming til vaatt og toert snoedekke. Fare for ustabile nysnoeflak i hoeyden.'
p4082
sg2175
Nsg2176
I2
sg35
S'Salten'
p4083
sg19
g2178
sg2179
(lp4084
sg2181
Nsg2182
I133
sg26
g27
(S'\x07\xdf\x04\x1d'
p4085
tp4086
Rp4087
sg2186
S'2 Moderat'
p4088
sg31
(dp4089
g2188
VLokalt ustabile forhold. Ha ulik tilnrming til vtt og trt sndekke. Fare for ustabile nysnflak i hyden. 
p4090
ssg2190
S'Forecast API'
p4091
sba(igetdangers
AvalancheDanger
p4092
(dp4093
g2173
Nsg2175
Nsg2176
I1
sg35
S'Salten'
p4094
sg19
g3342
sg2179
(lp4095
sg2181
Vper@SVV
p4096
sg2182
I133
sg26
g27
(S'\x07\xdf\x04\x1d'
p4097
tp4098
Rp4099
sg2186
S'1 Liten'
p4100
sg31
(dp4101
g3350
g3351
(S'\x07\xdf\x04\x1d\x11:\x00\x00\x00\x00'
p4102
tp4103
Rp4104
ssg2190
S'AvalancheEvaluation3V'
p4105
sba(igetdangers
AvalancheDanger
p4106
(dp4107
g2173
Nsg2175
Nsg2176
I2
sg35
S'Salten'
p4108
sg19
g3342
sg2179
(lp4109
sg2181
VSindreH@ObsKorps
p4110
sg2182
I133
sg26
g27
(S'\x07\xdf\x04\x1d'
p4111
tp4112
Rp4113
sg2186
S'2 Moderat'
p4114
sg31
(dp4115
g3350
g3351
(S'\x07\xdf\x04\x1d\x14\x0f\x11\x00\x00\x00'
p4116
tp4117
Rp4118
ssg2190
S'AvalancheEvaluation3V'
p4119
sba(igetdangers
AvalancheDanger
p4120
(dp4121
g2173
S'Generelt stabile forhold. Mindre ansamlinger av toerrsnoe i hoeyden kan fortsatt vaere ustablie.'
p4122
sg2175
Nsg2176
I1
sg35
S'Salten'
p4123
sg19
g2178
sg2179
(lp4124
sg2181
Nsg2182
I133
sg26
g27
(S'\x07\xdf\x04\x1e'
p4125
tp4126
Rp4127
sg2186
S'1 Liten'
p4128
sg31
(dp4129
g2188
VGenerelt stabile forhold. Mindre ansamlinger av trrsn i hyden kan fortsatt vre ustablie. 
p4130
ssg2190
S'Forecast API'
p4131
sba(igetdangers
AvalancheDanger
p4132
(dp4133
g2173
S'Generelt stabile forhold. Mindre ansamlinger av toerrsnoe i hoeyden kan fortsatt vaere ustablie.'
p4134
sg2175
Nsg2176
I1
sg35
S'Salten'
p4135
sg19
g2178
sg2179
(lp4136
sg2181
Nsg2182
I133
sg26
g27
(S'\x07\xdf\x05\x01'
p4137
tp4138
Rp4139
sg2186
S'1 Liten'
p4140
sg31
(dp4141
g2188
VGenerelt stabile forhold. Mindre ansamlinger av trrsn i hyden kan fortsatt vre ustablie. 
p4142
ssg2190
S'Forecast API'
p4143
sba(igetdangers
AvalancheDanger
p4144
(dp4145
g2173
S'Generelt stabile forhold i vest, men ansamlinger av toerrsnoe i hoeyden og i oest kan fortsatt vaere ustabile.'
p4146
sg2175
Nsg2176
I2
sg35
S'Salten'
p4147
sg19
g2178
sg2179
(lp4148
sg2181
Nsg2182
I133
sg26
g27
(S'\x07\xdf\x05\x02'
p4149
tp4150
Rp4151
sg2186
S'2 Moderat'
p4152
sg31
(dp4153
g2188
VGenerelt stabile forhold i vest, men ansamlinger av trrsn i hyden og i st kan fortsatt vre ustabile.
p4154
ssg2190
S'Forecast API'
p4155
sba(igetdangers
AvalancheDanger
p4156
(dp4157
g2173
S'Generelt stabile forhold i vest og i lavlandet, men ansamlinger av toerrsnoe i hoeyden og i oest kan fortsatt vaere ustabile.'
p4158
sg2175
Nsg2176
I2
sg35
S'Salten'
p4159
sg19
g2178
sg2179
(lp4160
sg2181
Nsg2182
I133
sg26
g27
(S'\x07\xdf\x05\x03'
p4161
tp4162
Rp4163
sg2186
S'2 Moderat'
p4164
sg31
(dp4165
g2188
VGenerelt stabile forhold i vest og i lavlandet, men ansamlinger av trrsn i hyden og i st kan fortsatt vre ustabile.
p4166
ssg2190
S'Forecast API'
p4167
sba(igetdangers
AvalancheDanger
p4168
(dp4169
g2173
S'Generelt stabile forhold i vest og lavlandet, men ansamlinger av nysnoe i hoeyden kan vaere ustabile og der sola tar fatt kan det gaa loessnoeskred.'
p4170
sg2175
Nsg2176
I2
sg35
S'Salten'
p4171
sg19
g2178
sg2179
(lp4172
sg2181
Nsg2182
I133
sg26
g27
(S'\x07\xdf\x05\x04'
p4173
tp4174
Rp4175
sg2186
S'2 Moderat'
p4176
sg31
(dp4177
g2188
VGenerelt stabile forhold i vest og lavlandet, men ansamlinger av nysn i hyden kan vre ustabile og der sola tar fatt kan det g lssnskred.
p4178
ssg2190
S'Forecast API'
p4179
sba(igetdangers
AvalancheDanger
p4180
(dp4181
g2173
S'Temperaturstigning oeker faren for vaate skred.'
p4182
sg2175
Nsg2176
I2
sg35
S'Salten'
p4183
sg19
g2178
sg2179
(lp4184
sg2181
Nsg2182
I133
sg26
g27
(S'\x07\xdf\x05\x05'
p4185
tp4186
Rp4187
sg2186
S'2 Moderat'
p4188
sg31
(dp4189
g2188
VTemperaturstigning ker faren for vte skred.
p4190
ssg2190
S'Forecast API'
p4191
sba(igetdangers
AvalancheDanger
p4192
(dp4193
g2173
S'Temperaturstigning og regn oeker faren for vaate skred. Fokksnoe er et problem i hoeyden.'
p4194
sg2175
Nsg2176
I3
sg35
S'Salten'
p4195
sg19
g2178
sg2179
(lp4196
sg2181
Nsg2182
I133
sg26
g27
(S'\x07\xdf\x05\x06'
p4197
tp4198
Rp4199
sg2186
S'3 Betydelig'
p4200
sg31
(dp4201
g2188
VTemperaturstigning og regn ker faren for vte skred. Fokksn er et problem i hyden.
p4202
ssg2190
S'Forecast API'
p4203
sba(igetdangers
AvalancheDanger
p4204
(dp4205
g2173
S'Hoeye temperaturer og regn oeker faren for vaate skred.'
p4206
sg2175
Nsg2176
I2
sg35
S'Salten'
p4207
sg19
g2178
sg2179
(lp4208
sg2181
Nsg2182
I133
sg26
g27
(S'\x07\xdf\x05\x07'
p4209
tp4210
Rp4211
sg2186
S'2 Moderat'
p4212
sg31
(dp4213
g2188
VHye temperaturer og regn ker faren for vte skred. 
p4214
ssg2190
S'Forecast API'
p4215
sba(igetdangers
AvalancheDanger
p4216
(dp4217
g2173
Nsg2175
Nsg2176
I2
sg35
S'Salten'
p4218
sg19
g3342
sg2179
(lp4219
sg2181
VSindreH@ObsKorps
p4220
sg2182
I133
sg26
g27
(S'\x07\xdf\x05\x07'
p4221
tp4222
Rp4223
sg2186
S'2 Moderat'
p4224
sg31
(dp4225
g3350
g3351
(S'\x07\xdf\x05\x07\x145\x1e\x00\x00\x00'
p4226
tp4227
Rp4228
ssg2190
S'AvalancheEvaluation3V'
p4229
sba(igetdangers
AvalancheDanger
p4230
(dp4231
g2173
S'Hoeye temperaturer og regn oeker faren for vaate skred.'
p4232
sg2175
Nsg2176
I2
sg35
S'Salten'
p4233
sg19
g2178
sg2179
(lp4234
sg2181
Nsg2182
I133
sg26
g27
(S'\x07\xdf\x05\x08'
p4235
tp4236
Rp4237
sg2186
S'2 Moderat'
p4238
sg31
(dp4239
g2188
VHye temperaturer og regn ker faren for vte skred. 
p4240
ssg2190
S'Forecast API'
p4241
sba(igetdangers
AvalancheDanger
p4242
(dp4243
g2173
S'I lavlandet og i solvendte fjellsider ventes smaa loessnoeskred. I hoeyden er fokksnoe problemet. Unngaa omraader under glidesprekker.'
p4244
sg2175
Nsg2176
I2
sg35
S'Salten'
p4245
sg19
g2178
sg2179
(lp4246
sg2181
Nsg2182
I133
sg26
g27
(S'\x07\xdf\x05\t'
p4247
tp4248
Rp4249
sg2186
S'2 Moderat'
p4250
sg31
(dp4251
g2188
VI lavlandet og i solvendte fjellsider ventes sm lssnskred. I hyden er fokksn problemet. Unng omrder under glidesprekker.
p4252
ssg2190
S'Forecast API'
p4253
sba(igetdangers
AvalancheDanger
p4254
(dp4255
g2173
S'I lavlandet og i solvendte fjellsider ventes smaa loessnoeskred. I hoeyden er fokksnoe problemet. Unngaa omraader under glidesprekker.'
p4256
sg2175
Nsg2176
I2
sg35
S'Salten'
p4257
sg19
g2178
sg2179
(lp4258
sg2181
Nsg2182
I133
sg26
g27
(S'\x07\xdf\x05\n'
p4259
tp4260
Rp4261
sg2186
S'2 Moderat'
p4262
sg31
(dp4263
g2188
VI lavlandet og i solvendte fjellsider ventes sm lssnskred. I hyden er fokksn problemet. Unng omrder under glidesprekker.
p4264
ssg2190
S'Forecast API'
p4265
sba(igetdangers
AvalancheDanger
p4266
(dp4267
g2173
Nsg2175
Nsg2176
I2
sg35
S'Salten'
p4268
sg19
g3342
sg2179
(lp4269
sg2181
VSindreH@ObsKorps
p4270
sg2182
I133
sg26
g27
(S'\x07\xdf\x05\n'
p4271
tp4272
Rp4273
sg2186
S'2 Moderat'
p4274
sg31
(dp4275
g3350
g3351
(S'\x07\xdf\x05\n\x12\x10\x06\x00\x00\x00'
p4276
tp4277
Rp4278
ssg2190
S'AvalancheEvaluation3V'
p4279
sba(igetdangers
AvalancheDanger
p4280
(dp4281
g2173
S'Vaer forsiktig i leomraader med toerre nysnoeflak i hoeyden. I lavlandet og i solvendte fjellsider kan det gaa smaa loessnoeskred. Unngaa omraader under glidesprekker.'
p4282
sg2175
Nsg2176
I2
sg35
S'Salten'
p4283
sg19
g2178
sg2179
(lp4284
sg2181
Nsg2182
I133
sg26
g27
(S'\x07\xdf\x05\x0b'
p4285
tp4286
Rp4287
sg2186
S'2 Moderat'
p4288
sg31
(dp4289
g2188
VVr forsiktig i leomrder med trre nysnflak i hyden. I lavlandet og i solvendte fjellsider kan det g sm lssnskred. Unng omrder under glidesprekker.
p4290
ssg2190
S'Forecast API'
p4291
sba(igetdangers
AvalancheDanger
p4292
(dp4293
g2173
Nsg2175
Nsg2176
I1
sg35
S'Salten'
p4294
sg19
g3342
sg2179
(lp4295
sg2181
VJeanette@SVV
p4296
sg2182
I133
sg26
g27
(S'\x07\xdf\x05\x0b'
p4297
tp4298
Rp4299
sg2186
S'1 Liten'
p4300
sg31
(dp4301
g3350
g3351
(S'\x07\xdf\x05\x0b\x0e\x19\x06\x00\x00\x00'
p4302
tp4303
Rp4304
ssg2190
S'AvalancheEvaluation3V'
p4305
sba(igetdangers
AvalancheDanger
p4306
(dp4307
g2173
S'Vaer forsiktig i leomraader med toerre nysnoeflak i hoeyden. I lavlandet og i solvendte fjellsider kan det gaa smaa loessnoeskred. Unngaa omraader under glidesprekker.'
p4308
sg2175
Nsg2176
I2
sg35
S'Salten'
p4309
sg19
g2178
sg2179
(lp4310
sg2181
Nsg2182
I133
sg26
g27
(S'\x07\xdf\x05\x0c'
p4311
tp4312
Rp4313
sg2186
S'2 Moderat'
p4314
sg31
(dp4315
g2188
VVr forsiktig i leomrder med trre nysnflak i hyden. I lavlandet og i solvendte fjellsider kan det g sm lssnskred. Unng omrder under glidesprekker.
p4316
ssg2190
S'Forecast API'
p4317
sba(igetdangers
AvalancheDanger
p4318
(dp4319
g2173
S'Generelt gunstige forhold. I lavlandet og i solvendte fjellsider kan det gaa smaa loessnoeskred. Unngaa omraader under glidesprekker.'
p4320
sg2175
Nsg2176
I1
sg35
S'Salten'
p4321
sg19
g2178
sg2179
(lp4322
sg2181
Nsg2182
I133
sg26
g27
(S'\x07\xdf\x05\r'
p4323
tp4324
Rp4325
sg2186
S'1 Liten'
p4326
sg31
(dp4327
g2188
VGenerelt gunstige forhold. I lavlandet og i solvendte fjellsider kan det g sm lssnskred. Unng omrder under glidesprekker.
p4328
ssg2190
S'Forecast API'
p4329
sba(igetdangers
AvalancheDanger
p4330
(dp4331
g2173
S'Vaer forsiktig i terrengfeller og i bratte heng til nysnoeen har stabilisert seg.'
p4332
sg2175
Nsg2176
I2
sg35
S'Salten'
p4333
sg19
g2178
sg2179
(lp4334
sg2181
Nsg2182
I133
sg26
g27
(S'\x07\xdf\x05\x0e'
p4335
tp4336
Rp4337
sg2186
S'2 Moderat'
p4338
sg31
(dp4339
g2188
VVr forsiktig i terrengfeller og i bratte heng til nysnen har stabilisert seg.
p4340
ssg2190
S'Forecast API'
p4341
sba(igetdangers
AvalancheDanger
p4342
(dp4343
g2173
Nsg2175
Nsg2176
I2
sg35
S'Salten'
p4344
sg19
g3342
sg2179
(lp4345
sg2181
VSindreH@ObsKorps
p4346
sg2182
I133
sg26
g27
(S'\x07\xdf\x05\x0e'
p4347
tp4348
Rp4349
sg2186
S'2 Moderat'
p4350
sg31
(dp4351
g3350
g3351
(S'\x07\xdf\x05\x0e\x0f1;\x00\x00\x00'
p4352
tp4353
Rp4354
ssg2190
S'AvalancheEvaluation3V'
p4355
sba(igetdangers
AvalancheDanger
p4356
(dp4357
g2173
Nsg2175
Nsg2176
I2
sg35
S'Salten'
p4358
sg19
g3342
sg2179
(lp4359
sg2181
VSindreH@ObsKorps
p4360
sg2182
I133
sg26
g27
(S'\x07\xdf\x05\x0e'
p4361
tp4362
Rp4363
sg2186
S'2 Moderat'
p4364
sg31
(dp4365
g3350
g3351
(S'\x07\xdf\x05\x0e\x0f1;\x00\x00\x00'
p4366
tp4367
Rp4368
ssg2190
S'AvalancheEvaluation3V'
p4369
sba(igetdangers
AvalancheDanger
p4370
(dp4371
g2173
S'Temperaturstigning og solinnstraaling gir fare for mindre vaate skred. Over ca 1000 moh forventes det isolerte lommer med ustabil fokksnoe.'
p4372
sg2175
Nsg2176
I2
sg35
S'Salten'
p4373
sg19
g2178
sg2179
(lp4374
sg2181
Nsg2182
I133
sg26
g27
(S'\x07\xdf\x05\x0f'
p4375
tp4376
Rp4377
sg2186
S'2 Moderat'
p4378
sg31
(dp4379
g2188
VTemperaturstigning og solinnstrling gir fare for mindre vte skred. Over ca 1000 moh forventes det isolerte lommer med ustabil fokksn.
p4380
ssg2190
S'Forecast API'
p4381
sba(igetdangers
AvalancheDanger
p4382
(dp4383
g2173
S'Generelt gunstige forhold. Temperaturstigning og solinnstraaling gir fare for mindre vaate skred.'
p4384
sg2175
Nsg2176
I1
sg35
S'Salten'
p4385
sg19
g2178
sg2179
(lp4386
sg2181
Nsg2182
I133
sg26
g27
(S'\x07\xdf\x05\x10'
p4387
tp4388
Rp4389
sg2186
S'1 Liten'
p4390
sg31
(dp4391
g2188
VGenerelt gunstige forhold. Temperaturstigning og solinnstrling gir fare for mindre vte skred.
p4392
ssg2190
S'Forecast API'
p4393
sba(igetdangers
AvalancheDanger
p4394
(dp4395
g2173
Nsg2175
Nsg2176
I1
sg35
S'Salten'
p4396
sg19
g3342
sg2179
(lp4397
sg2181
VSindreH@ObsKorps
p4398
sg2182
I133
sg26
g27
(S'\x07\xdf\x05\x10'
p4399
tp4400
Rp4401
sg2186
S'1 Liten'
p4402
sg31
(dp4403
g3350
g3351
(S'\x07\xdf\x05\x10\x0f#4\x00\x00\x00'
p4404
tp4405
Rp4406
ssg2190
S'AvalancheEvaluation3V'
p4407
sba(igetdangers
AvalancheDanger
p4408
(dp4409
g2173
S'Generelt gunstige forhold. Hoeye dagtemperaturer og solinnstraaling gir fare for mindre vaate skred.'
p4410
sg2175
Nsg2176
I1
sg35
S'Salten'
p4411
sg19
g2178
sg2179
(lp4412
sg2181
Nsg2182
I133
sg26
g27
(S'\x07\xdf\x05\x11'
p4413
tp4414
Rp4415
sg2186
S'1 Liten'
p4416
sg31
(dp4417
g2188
VGenerelt gunstige forhold. Hye dagtemperaturer og solinnstrling gir fare for mindre vte skred.
p4418
ssg2190
S'Forecast API'
p4419
sba(igetdangers
AvalancheDanger
p4420
(dp4421
g2173
S'Generelt gunstige forhold. Hoeye dagtemperaturer og solinnstraaling gir fare for mindre vaate skred. Ogsaa enkelte glideskred kan forekomme'
p4422
sg2175
Nsg2176
I1
sg35
S'Salten'
p4423
sg19
g2178
sg2179
(lp4424
sg2181
Nsg2182
I133
sg26
g27
(S'\x07\xdf\x05\x12'
p4425
tp4426
Rp4427
sg2186
S'1 Liten'
p4428
sg31
(dp4429
g2188
VGenerelt gunstige forhold. Hye dagtemperaturer og solinnstrling gir fare for mindre vte skred. Ogs enkelte glideskred kan forekomme
p4430
ssg2190
S'Forecast API'
p4431
sba(igetdangers
AvalancheDanger
p4432
(dp4433
g2173
Nsg2175
Nsg2176
I1
sg35
S'Salten'
p4434
sg19
g3342
sg2179
(lp4435
sg2181
VSindreH@ObsKorps
p4436
sg2182
I133
sg26
g27
(S'\x07\xdf\x05\x12'
p4437
tp4438
Rp4439
sg2186
S'1 Liten'
p4440
sg31
(dp4441
g3350
g3351
(S'\x07\xdf\x05\x12\x14\x17+\x00\x00\x00'
p4442
tp4443
Rp4444
ssg2190
S'AvalancheEvaluation3V'
p4445
sba(igetdangers
AvalancheDanger
p4446
(dp4447
g2173
S'Generelt gunstige forhold. Hoeye dagtemperaturer og solinnstraaling gir fare for mindre vaate skred. Ogsaa enkelte glideskred kan forekomme'
p4448
sg2175
Nsg2176
I1
sg35
S'Salten'
p4449
sg19
g2178
sg2179
(lp4450
sg2181
Nsg2182
I133
sg26
g27
(S'\x07\xdf\x05\x13'
p4451
tp4452
Rp4453
sg2186
S'1 Liten'
p4454
sg31
(dp4455
g2188
VGenerelt gunstige forhold. Hye dagtemperaturer og solinnstrling gir fare for mindre vte skred. Ogs enkelte glideskred kan forekomme
p4456
ssg2190
S'Forecast API'
p4457
sba(igetdangers
AvalancheDanger
p4458
(dp4459
g2173
S'Generelt gunstige forhold. Regn og varme gir fare for mindre vaate skred.Glideskred kan forekomme.'
p4460
sg2175
Nsg2176
I1
sg35
S'Salten'
p4461
sg19
g2178
sg2179
(lp4462
sg2181
Nsg2182
I133
sg26
g27
(S'\x07\xdf\x05\x14'
p4463
tp4464
Rp4465
sg2186
S'1 Liten'
p4466
sg31
(dp4467
g2188
VGenerelt gunstige forhold. Regn og varme gir fare for mindre vte skred.Glideskred kan forekomme.
p4468
ssg2190
S'Forecast API'
p4469
sba(igetdangers
AvalancheDanger
p4470
(dp4471
g2173
S'Vaer varsom i omraader med fersk fokksnoe. Temperaturstigning og solinnstraaling gir fare for vaate flakskred i nysnoeen.'
p4472
sg2175
Nsg2176
I1
sg35
S'Salten'
p4473
sg19
g2178
sg2179
(lp4474
sg2181
Nsg2182
I133
sg26
g27
(S'\x07\xdf\x05\x15'
p4475
tp4476
Rp4477
sg2186
S'1 Liten'
p4478
sg31
(dp4479
g2188
VVr varsom i omrder med fersk fokksn. Temperaturstigning og solinnstrling gir fare for vte flakskred i nysnen.
p4480
ssg2190
S'Forecast API'
p4481
sba(igetdangers
AvalancheDanger
p4482
(dp4483
g2173
Nsg2175
Nsg2176
I1
sg35
S'Salten'
p4484
sg19
g3342
sg2179
(lp4485
sg2181
VSindreH@ObsKorps
p4486
sg2182
I133
sg26
g27
(S'\x07\xdf\x05\x15'
p4487
tp4488
Rp4489
sg2186
S'1 Liten'
p4490
sg31
(dp4491
g3350
g3351
(S'\x07\xdf\x05\x15\x16\x10\x19\x00\x00\x00'
p4492
tp4493
Rp4494
ssg2190
S'AvalancheEvaluation3V'
p4495
sba(igetdangers
AvalancheDanger
p4496
(dp4497
g2173
S'Generelt gunstige forhold men vaer varsom i omraader med fersk fokksnoe.'
p4498
sg2175
Nsg2176
I1
sg35
S'Salten'
p4499
sg19
g2178
sg2179
(lp4500
sg2181
Nsg2182
I133
sg26
g27
(S'\x07\xdf\x05\x16'
p4501
tp4502
Rp4503
sg2186
S'1 Liten'
p4504
sg31
(dp4505
g2188
VGenerelt gunstige forhold men vr varsom i omrder med fersk fokksn.
p4506
ssg2190
S'Forecast API'
p4507
sba(igetdangers
AvalancheDanger
p4508
(dp4509
g2173
S'Generelt gunstige forhold, men vaer varsom i omraader med fersk fokksnoe.'
p4510
sg2175
Nsg2176
I1
sg35
S'Salten'
p4511
sg19
g2178
sg2179
(lp4512
sg2181
Nsg2182
I133
sg26
g27
(S'\x07\xdf\x05\x17'
p4513
tp4514
Rp4515
sg2186
S'1 Liten'
p4516
sg31
(dp4517
g2188
VGenerelt gunstige forhold, men vr varsom i omrder med fersk fokksn.
p4518
ssg2190
S'Forecast API'
p4519
sba(igetdangers
AvalancheDanger
p4520
(dp4521
g2173
S'Gunstige forhold i regionen, men vaer forsiktig i leomraader og andre terrengformasjoner som kan ha samlet fokksnoe i hoeyden.'
p4522
sg2175
Nsg2176
I1
sg35
S'Salten'
p4523
sg19
g2178
sg2179
(lp4524
sg2181
Nsg2182
I133
sg26
g27
(S'\x07\xdf\x05\x18'
p4525
tp4526
Rp4527
sg2186
S'1 Liten'
p4528
sg31
(dp4529
g2188
VGunstige forhold i regionen, men vr forsiktig i leomrder og andre terrengformasjoner som kan ha samlet fokksn i hyden.
p4530
ssg2190
S'Forecast API'
p4531
sba(igetdangers
AvalancheDanger
p4532
(dp4533
g2173
S'Generelt gunstige forhold. Smelting i snoedekket gir fare for mindre vaate skred.'
p4534
sg2175
Nsg2176
I1
sg35
S'Salten'
p4535
sg19
g2178
sg2179
(lp4536
sg2181
Nsg2182
I133
sg26
g27
(S'\x07\xdf\x05\x19'
p4537
tp4538
Rp4539
sg2186
S'1 Liten'
p4540
sg31
(dp4541
g2188
VGenerelt gunstige forhold. Smelting i sndekket gir fare for mindre vte skred.
p4542
ssg2190
S'Forecast API'
p4543
sba(igetdangers
AvalancheDanger
p4544
(dp4545
g2173
S'Smelting i snoedekket gir fare for mindre vaate skred.'
p4546
sg2175
Nsg2176
I1
sg35
S'Salten'
p4547
sg19
g2178
sg2179
(lp4548
sg2181
Nsg2182
I133
sg26
g27
(S'\x07\xdf\x05\x1a'
p4549
tp4550
Rp4551
sg2186
S'1 Liten'
p4552
sg31
(dp4553
g2188
VSmelting i sndekket gir fare for mindre vte skred.
p4554
ssg2190
S'Forecast API'
p4555
sba(igetdangers
AvalancheDanger
p4556
(dp4557
g2173
S'Regn i lavlandet og nysnoe i fjellet gir fare for loessnoeskred i bratt terreng.'
p4558
sg2175
Nsg2176
I1
sg35
S'Salten'
p4559
sg19
g2178
sg2179
(lp4560
sg2181
Nsg2182
I133
sg26
g27
(S'\x07\xdf\x05\x1b'
p4561
tp4562
Rp4563
sg2186
S'1 Liten'
p4564
sg31
(dp4565
g2188
VRegn i lavlandet og nysn i fjellet gir fare for lssnskred i bratt terreng.
p4566
ssg2190
S'Forecast API'
p4567
sba(igetdangers
AvalancheDanger
p4568
(dp4569
g2173
S'Regn i lavlandet og nysnoe i fjellet gir fare for loessnoeskred i bratt terreng.'
p4570
sg2175
Nsg2176
I2
sg35
S'Salten'
p4571
sg19
g2178
sg2179
(lp4572
sg2181
Nsg2182
I133
sg26
g27
(S'\x07\xdf\x05\x1c'
p4573
tp4574
Rp4575
sg2186
S'2 Moderat'
p4576
sg31
(dp4577
g2188
VRegn i lavlandet og nysn i fjellet gir fare for lssnskred i bratt terreng.
p4578
ssg2190
S'Forecast API'
p4579
sba(igetdangers
AvalancheDanger
p4580
(dp4581
g2173
S'Vaatt snoedekke kan foere til vaate loessnoeskred. Vaer forsiktig i bratt terreng.'
p4582
sg2175
Nsg2176
I2
sg35
S'Salten'
p4583
sg19
g2178
sg2179
(lp4584
sg2181
Nsg2182
I133
sg26
g27
(S'\x07\xdf\x05\x1d'
p4585
tp4586
Rp4587
sg2186
S'2 Moderat'
p4588
sg31
(dp4589
g2188
VVtt sndekke kan fre til vte lssnskred. Vr forsiktig i bratt terreng.
p4590
ssg2190
S'Forecast API'
p4591
sba(igetdangers
AvalancheDanger
p4592
(dp4593
g2173
S'Vaatt snoedekke kan foere til vaate loessnoeskred. Vaer forsiktig i bratt terreng.'
p4594
sg2175
Nsg2176
I2
sg35
S'Salten'
p4595
sg19
g2178
sg2179
(lp4596
sg2181
Nsg2182
I133
sg26
g27
(S'\x07\xdf\x05\x1e'
p4597
tp4598
Rp4599
sg2186
S'2 Moderat'
p4600
sg31
(dp4601
g2188
VVtt sndekke kan fre til vte lssnskred. Vr forsiktig i bratt terreng.
p4602
ssg2190
S'Forecast API'
p4603
sba(igetdangers
AvalancheDanger
p4604
(dp4605
g2173
S'Generelt stabile forhold, men vaer oppmerksom paa at faren oeker naar temperaturen stiger.'
p4606
sg2175
Nsg2176
I1
sg35
S'Salten'
p4607
sg19
g2178
sg2179
(lp4608
sg2181
Nsg2182
I133
sg26
g27
(S'\x07\xdf\x05\x1f'
p4609
tp4610
Rp4611
sg2186
S'1 Liten'
p4612
sg31
(dp4613
g2188
VGenerelt stabile forhold, men vr oppmerksom p at faren ker nr temperaturen stiger.
p4614
ssg2190
S'Forecast API'
p4615
sba(igetdangers
AvalancheDanger
p4616
(dp4617
g2173
S''
p4618
sg2175
Nsg2176
I1
sg35
S'Salten'
p4619
sg19
g2178
sg2179
(lp4620
sg2181
Nsg2182
I133
sg26
g27
(S'\x07\xdf\x06\x01'
p4621
tp4622
Rp4623
sg2186
S'1 Liten'
p4624
sg31
(dp4625
g2188
V
p4626
ssg2190
S'Forecast API'
p4627
sbaa.