(dp0
S'trigger'
p1
(dp2
S'keys'
p3
(lp4
S'Stor tilleggsbelastning'
p5
aS'Liten tilleggsbelastning'
p6
aS'Naturlig utloest'
p7
asS'colors'
p8
(lp9
S'0.7'
p10
asS'values'
p11
(lp12
S'Liten tilleggsbelastning'
p13
aS'Stor tilleggsbelastning'
p14
aS'Stor tilleggsbelastning'
p15
aS'Liten tilleggsbelastning'
p16
aS'Liten tilleggsbelastning'
p17
aS'Liten tilleggsbelastning'
p18
aS'Liten tilleggsbelastning'
p19
aS'Liten tilleggsbelastning'
p20
aS'Liten tilleggsbelastning'
p21
aS'Liten tilleggsbelastning'
p22
aS'Liten tilleggsbelastning'
p23
aS'Liten tilleggsbelastning'
p24
aS'Liten tilleggsbelastning'
p25
aS'Liten tilleggsbelastning'
p26
aS'Liten tilleggsbelastning'
p27
aS'Liten tilleggsbelastning'
p28
aS'Liten tilleggsbelastning'
p29
aS'Liten tilleggsbelastning'
p30
aS'Liten tilleggsbelastning'
p31
aS'Liten tilleggsbelastning'
p32
aS'Liten tilleggsbelastning'
p33
aS'Liten tilleggsbelastning'
p34
aS'Liten tilleggsbelastning'
p35
aS'Liten tilleggsbelastning'
p36
aS'Liten tilleggsbelastning'
p37
aS'Liten tilleggsbelastning'
p38
aS'Liten tilleggsbelastning'
p39
aS'Liten tilleggsbelastning'
p40
aS'Liten tilleggsbelastning'
p41
aS'Liten tilleggsbelastning'
p42
aS'Liten tilleggsbelastning'
p43
aS'Liten tilleggsbelastning'
p44
aS'Stor tilleggsbelastning'
p45
aS'Liten tilleggsbelastning'
p46
aS'Liten tilleggsbelastning'
p47
aS'Liten tilleggsbelastning'
p48
aS'Stor tilleggsbelastning'
p49
aS'Liten tilleggsbelastning'
p50
aS'Liten tilleggsbelastning'
p51
aS'Liten tilleggsbelastning'
p52
aS'Stor tilleggsbelastning'
p53
aS'Stor tilleggsbelastning'
p54
aS'Stor tilleggsbelastning'
p55
aS'Stor tilleggsbelastning'
p56
aS'Stor tilleggsbelastning'
p57
aS'Stor tilleggsbelastning'
p58
aS'Stor tilleggsbelastning'
p59
aS'Stor tilleggsbelastning'
p60
aS'Stor tilleggsbelastning'
p61
aS'Stor tilleggsbelastning'
p62
aS'Liten tilleggsbelastning'
p63
aS'Liten tilleggsbelastning'
p64
aS'Liten tilleggsbelastning'
p65
aS'Naturlig utloest'
p66
aS'Liten tilleggsbelastning'
p67
aS'Naturlig utloest'
p68
aS'Liten tilleggsbelastning'
p69
aS'Naturlig utloest'
p70
aS'Liten tilleggsbelastning'
p71
aS'Liten tilleggsbelastning'
p72
aS'Liten tilleggsbelastning'
p73
aS'Naturlig utloest'
p74
aS'Liten tilleggsbelastning'
p75
aS'Liten tilleggsbelastning'
p76
aS'Liten tilleggsbelastning'
p77
aS'Naturlig utloest'
p78
aS'Liten tilleggsbelastning'
p79
aS'Liten tilleggsbelastning'
p80
aS'Liten tilleggsbelastning'
p81
aS'Liten tilleggsbelastning'
p82
aS'Liten tilleggsbelastning'
p83
aS'Liten tilleggsbelastning'
p84
aS'Liten tilleggsbelastning'
p85
aS'Liten tilleggsbelastning'
p86
aS'Liten tilleggsbelastning'
p87
aS'Stor tilleggsbelastning'
p88
aS'Liten tilleggsbelastning'
p89
aS'Liten tilleggsbelastning'
p90
aS'Liten tilleggsbelastning'
p91
aS'Liten tilleggsbelastning'
p92
aS'Stor tilleggsbelastning'
p93
aS'Stor tilleggsbelastning'
p94
aS'Liten tilleggsbelastning'
p95
aS'Liten tilleggsbelastning'
p96
aS'Liten tilleggsbelastning'
p97
aS'Liten tilleggsbelastning'
p98
aS'Liten tilleggsbelastning'
p99
assS'distribution'
p100
(dp101
g3
(lp102
S'Isolerte faresoner'
p103
aS'Noen bratte heng'
p104
aS'Mange bratte heng'
p105
aS'De fleste bratte heng'
p106
aS'Ogsaa i mindre bratt terreng'
p107
asg8
(lp108
g10
asg11
(lp109
S'Noen bratte heng'
p110
aS'Noen bratte heng'
p111
aS'Noen bratte heng'
p112
aS'Noen bratte heng'
p113
aS'Noen bratte heng'
p114
aS'Noen bratte heng'
p115
aS'Noen bratte heng'
p116
aS'Noen bratte heng'
p117
aS'Noen bratte heng'
p118
aS'Mange bratte heng'
p119
aS'Noen bratte heng'
p120
aS'Noen bratte heng'
p121
aS'Noen bratte heng'
p122
aS'Noen bratte heng'
p123
aS'Noen bratte heng'
p124
aS'Noen bratte heng'
p125
aS'Noen bratte heng'
p126
aS'Noen bratte heng'
p127
aS'Noen bratte heng'
p128
aS'Noen bratte heng'
p129
aS'Noen bratte heng'
p130
aS'Noen bratte heng'
p131
aS'Noen bratte heng'
p132
aS'Noen bratte heng'
p133
aS'Noen bratte heng'
p134
aS'Noen bratte heng'
p135
aS'Noen bratte heng'
p136
aS'Noen bratte heng'
p137
aS'Noen bratte heng'
p138
aS'Noen bratte heng'
p139
aS'Noen bratte heng'
p140
aS'Noen bratte heng'
p141
aS'Noen bratte heng'
p142
aS'Noen bratte heng'
p143
aS'Noen bratte heng'
p144
aS'Noen bratte heng'
p145
aS'Noen bratte heng'
p146
aS'Noen bratte heng'
p147
aS'Noen bratte heng'
p148
aS'Noen bratte heng'
p149
aS'Isolerte faresoner'
p150
aS'Noen bratte heng'
p151
aS'Noen bratte heng'
p152
aS'Noen bratte heng'
p153
aS'Noen bratte heng'
p154
aS'Noen bratte heng'
p155
aS'Noen bratte heng'
p156
aS'Noen bratte heng'
p157
aS'Noen bratte heng'
p158
aS'Noen bratte heng'
p159
aS'Noen bratte heng'
p160
aS'Noen bratte heng'
p161
aS'Noen bratte heng'
p162
aS'Mange bratte heng'
p163
aS'Noen bratte heng'
p164
aS'Noen bratte heng'
p165
aS'Noen bratte heng'
p166
aS'Mange bratte heng'
p167
aS'Noen bratte heng'
p168
aS'Noen bratte heng'
p169
aS'Noen bratte heng'
p170
aS'Noen bratte heng'
p171
aS'Noen bratte heng'
p172
aS'Noen bratte heng'
p173
aS'Noen bratte heng'
p174
aS'Noen bratte heng'
p175
aS'Noen bratte heng'
p176
aS'Noen bratte heng'
p177
aS'Noen bratte heng'
p178
aS'Noen bratte heng'
p179
aS'Noen bratte heng'
p180
aS'Noen bratte heng'
p181
aS'Noen bratte heng'
p182
aS'Isolerte faresoner'
p183
aS'Noen bratte heng'
p184
aS'Noen bratte heng'
p185
aS'Isolerte faresoner'
p186
aS'Isolerte faresoner'
p187
aS'Noen bratte heng'
p188
aS'Noen bratte heng'
p189
aS'Isolerte faresoner'
p190
aS'Isolerte faresoner'
p191
aS'Noen bratte heng'
p192
aS'Noen bratte heng'
p193
aS'Noen bratte heng'
p194
aS'Noen bratte heng'
p195
aS'Noen bratte heng'
p196
assS'size'
p197
(dp198
g3
(lp199
S'1 - Harmloest'
p200
aS'2 - Smaa'
p201
aS'3 - Middels'
p202
aS'4 - Store'
p203
aS'5 - Svaert store'
p204
aS'Ukjent'
p205
asg8
(lp206
g10
asg11
(lp207
S'2 - Smaa'
p208
aS'2 - Smaa'
p209
aS'2 - Smaa'
p210
aS'2 - Smaa'
p211
aS'2 - Smaa'
p212
aS'2 - Smaa'
p213
aS'2 - Smaa'
p214
aS'2 - Smaa'
p215
aS'2 - Smaa'
p216
aS'2 - Smaa'
p217
aS'2 - Smaa'
p218
aS'3 - Middels'
p219
aS'2 - Smaa'
p220
aS'2 - Smaa'
p221
aS'2 - Smaa'
p222
aS'2 - Smaa'
p223
aS'2 - Smaa'
p224
aS'2 - Smaa'
p225
aS'2 - Smaa'
p226
aS'2 - Smaa'
p227
aS'2 - Smaa'
p228
aS'2 - Smaa'
p229
aS'2 - Smaa'
p230
aS'2 - Smaa'
p231
aS'2 - Smaa'
p232
aS'2 - Smaa'
p233
aS'2 - Smaa'
p234
aS'2 - Smaa'
p235
aS'2 - Smaa'
p236
aS'2 - Smaa'
p237
aS'2 - Smaa'
p238
aS'2 - Smaa'
p239
aS'3 - Middels'
p240
aS'2 - Smaa'
p241
aS'2 - Smaa'
p242
aS'2 - Smaa'
p243
aS'3 - Middels'
p244
aS'2 - Smaa'
p245
aS'2 - Smaa'
p246
aS'2 - Smaa'
p247
aS'3 - Middels'
p248
aS'3 - Middels'
p249
aS'2 - Smaa'
p250
aS'2 - Smaa'
p251
aS'2 - Smaa'
p252
aS'2 - Smaa'
p253
aS'2 - Smaa'
p254
aS'2 - Smaa'
p255
aS'2 - Smaa'
p256
aS'2 - Smaa'
p257
aS'2 - Smaa'
p258
aS'2 - Smaa'
p259
aS'2 - Smaa'
p260
aS'2 - Smaa'
p261
aS'3 - Middels'
p262
aS'3 - Middels'
p263
aS'3 - Middels'
p264
aS'2 - Smaa'
p265
aS'2 - Smaa'
p266
aS'2 - Smaa'
p267
aS'2 - Smaa'
p268
aS'2 - Smaa'
p269
aS'2 - Smaa'
p270
aS'2 - Smaa'
p271
aS'2 - Smaa'
p272
aS'1 - Harmloest'
p273
aS'2 - Smaa'
p274
aS'2 - Smaa'
p275
aS'2 - Smaa'
p276
aS'2 - Smaa'
p277
aS'2 - Smaa'
p278
aS'2 - Smaa'
p279
aS'2 - Smaa'
p280
aS'2 - Smaa'
p281
aS'2 - Smaa'
p282
aS'2 - Smaa'
p283
aS'2 - Smaa'
p284
aS'2 - Smaa'
p285
aS'2 - Smaa'
p286
aS'3 - Middels'
p287
aS'2 - Smaa'
p288
aS'2 - Smaa'
p289
aS'2 - Smaa'
p290
aS'3 - Middels'
p291
aS'3 - Middels'
p292
aS'2 - Smaa'
p293
aS'3 - Middels'
p294
assS'probability'
p295
(dp296
g3
(lp297
S'Lite sannsynlig'
p298
aS'Mulig'
p299
aS'Sannsynlig'
p300
aS'Meget sannsynlig'
p301
asg8
(lp302
g10
asg11
(lp303
S'Mulig'
p304
aS'Mulig'
p305
aS'Mulig'
p306
aS'Mulig'
p307
aS'Mulig'
p308
aS'Mulig'
p309
aS'Mulig'
p310
aS'Mulig'
p311
aS'Mulig'
p312
aS'Mulig'
p313
aS'Mulig'
p314
aS'Mulig'
p315
aS'Mulig'
p316
aS'Mulig'
p317
aS'Mulig'
p318
aS'Mulig'
p319
aS'Mulig'
p320
aS'Mulig'
p321
aS'Mulig'
p322
aS'Mulig'
p323
aS'Mulig'
p324
aS'Mulig'
p325
aS'Mulig'
p326
aS'Mulig'
p327
aS'Mulig'
p328
aS'Mulig'
p329
aS'Mulig'
p330
aS'Mulig'
p331
aS'Mulig'
p332
aS'Mulig'
p333
aS'Mulig'
p334
aS'Mulig'
p335
aS'Mulig'
p336
aS'Mulig'
p337
aS'Mulig'
p338
aS'Mulig'
p339
aS'Mulig'
p340
aS'Mulig'
p341
aS'Mulig'
p342
aS'Mulig'
p343
aS'Mulig'
p344
aS'Mulig'
p345
aS'Mulig'
p346
aS'Mulig'
p347
aS'Mulig'
p348
aS'Mulig'
p349
aS'Mulig'
p350
aS'Mulig'
p351
aS'Mulig'
p352
aS'Mulig'
p353
aS'Mulig'
p354
aS'Mulig'
p355
aS'Mulig'
p356
aS'Mulig'
p357
aS'Mulig'
p358
aS'Mulig'
p359
aS'Mulig'
p360
aS'Mulig'
p361
aS'Mulig'
p362
aS'Mulig'
p363
aS'Mulig'
p364
aS'Mulig'
p365
aS'Mulig'
p366
aS'Mulig'
p367
aS'Mulig'
p368
aS'Mulig'
p369
aS'Mulig'
p370
aS'Mulig'
p371
aS'Mulig'
p372
aS'Mulig'
p373
aS'Mulig'
p374
aS'Mulig'
p375
aS'Mulig'
p376
aS'Mulig'
p377
aS'Mulig'
p378
aS'Mulig'
p379
aS'Mulig'
p380
aS'Mulig'
p381
aS'Mulig'
p382
aS'Mulig'
p383
aS'Lite sannsynlig'
p384
aS'Mulig'
p385
aS'Mulig'
p386
aS'Mulig'
p387
aS'Mulig'
p388
aS'Mulig'
p389
aS'Mulig'
p390
assS'level'
p391
(dp392
g3
(lp393
I1
aI2
aI3
aI4
aI5
asg8
(lp394
S'#ccff66'
p395
aS'#ffff00'
p396
aS'#ff9900'
p397
aS'#ff0000'
p398
aS'k'
p399
asg11
(lp400
I2
aI2
aI2
aI2
aI3
aI2
aI2
aI2
aI3
aI3
aI3
aI3
aI3
aI2
aI2
aI2
aI2
aI2
aI2
aI2
aI2
aI2
aI2
aI2
aI2
aI2
aI2
aI2
aI2
aI2
aI2
aI2
aI2
aI2
aI2
aI2
aI2
aI2
aI2
aI2
aI2
aI2
aI2
aI2
aI2
aI2
aI2
aI2
aI2
aI2
aI2
aI2
aI2
aI2
aI3
aI3
aI3
aI2
aI2
aI2
aI2
aI2
aI2
aI2
aI2
aI2
aI2
aI2
aI2
aI2
aI2
aI2
aI2
aI1
aI2
aI2
aI1
aI1
aI2
aI3
aI1
aI1
aI2
aI3
aI3
aI2
aI3
ass.