(lp0
(irunmatrix
M3Element
p1
(dp2
S'danger_level_average'
p3
NsS'probability'
p4
S'Lite sannsynlig, Mulig'
p5
sS'colour'
p6
S'white'
p7
sS'danger_level_list'
p8
(lp9
sS'label_probalility'
p10
S'Possible'
p11
sS'label_distribution'
p12
S'Isolated'
p13
sS'recomended_colour'
p14
S'#ccff66'
p15
sS'recomended_danger_level'
p16
I1
sS'label_trigger'
p17
S'High'
p18
sS'trigger'
p19
S'Stor tilleggsbelastning'
p20
sS'occurrences'
p21
NsS'y'
p22
S'100'
p23
sS'x'
p24
S'100'
p25
sS'distribution'
p26
S'Isolerte faresoner'
p27
sS'danger_level_standard_dev'
p28
NsS'label_size'
p29
S'1'
p30
sS'avalanche_size'
p31
S'1 - Harmloest'
p32
sba(irunmatrix
M3Element
p33
(dp34
g3
F1.0
sg4
S'Lite sannsynlig, Mulig'
p35
sg6
S'#ccff66'
p36
sg8
(lp37
I1
aI1
aI1
asg10
S'Possible'
p38
sg12
S'Isolated'
p39
sg14
g15
sg16
I1
sg17
S'Low'
p40
sg19
S'Liten tilleggsbelastning'
p41
sg21
I3
sg22
S'100'
p42
sg24
S'200'
p43
sg26
S'Isolerte faresoner'
p44
sg28
cnumpy.core.multiarray
scalar
p45
(cnumpy
dtype
p46
(S'f8'
p47
I0
I1
tp48
Rp49
(I3
S'<'
p50
NNNI-1
I-1
I0
tp51
bS'\x00\x00\x00\x00\x00\x00\x00\x00'
p52
tp53
Rp54
sg29
g30
sg31
S'1 - Harmloest'
p55
sba(irunmatrix
M3Element
p56
(dp57
g3
Nsg4
S'Lite sannsynlig, Mulig'
p58
sg6
S'white'
p59
sg8
(lp60
sg10
S'Possible'
p61
sg12
S'Isolated'
p62
sg14
g15
sg16
I1
sg17
S'Nat'
p63
sg19
S'Naturlig utloest'
p64
sg21
Nsg22
S'100'
p65
sg24
S'300'
p66
sg26
S'Isolerte faresoner'
p67
sg28
Nsg29
g30
sg31
S'1 - Harmloest'
p68
sba(irunmatrix
M3Element
p69
(dp70
g3
Nsg4
S'Sannsynlig, Meget sannsynlig'
p71
sg6
S'gray'
p72
sg8
(lp73
sg10
S'Likely'
p74
sg12
S'Isolated'
p75
sg14
S'gray'
p76
sg16
I0
sg17
S'High'
p77
sg19
S'Stor tilleggsbelastning'
p78
sg21
Nsg22
S'100'
p79
sg24
S'400'
p80
sg26
S'Isolerte faresoner'
p81
sg28
Nsg29
g30
sg31
S'1 - Harmloest'
p82
sba(irunmatrix
M3Element
p83
(dp84
g3
Nsg4
S'Sannsynlig, Meget sannsynlig'
p85
sg6
S'gray'
p86
sg8
(lp87
sg10
S'Likely'
p88
sg12
S'Isolated'
p89
sg14
g76
sg16
I0
sg17
S'Low'
p90
sg19
S'Liten tilleggsbelastning'
p91
sg21
Nsg22
S'100'
p92
sg24
S'500'
p93
sg26
S'Isolerte faresoner'
p94
sg28
Nsg29
g30
sg31
S'1 - Harmloest'
p95
sba(irunmatrix
M3Element
p96
(dp97
g3
Nsg4
S'Sannsynlig, Meget sannsynlig'
p98
sg6
S'gray'
p99
sg8
(lp100
sg10
S'Likely'
p101
sg12
S'Isolated'
p102
sg14
g76
sg16
I0
sg17
S'Nat'
p103
sg19
S'Naturlig utloest'
p104
sg21
Nsg22
S'100'
p105
sg24
S'600'
p106
sg26
S'Isolerte faresoner'
p107
sg28
Nsg29
g30
sg31
S'1 - Harmloest'
p108
sba(irunmatrix
M3Element
p109
(dp110
g3
Nsg4
S'Lite sannsynlig, Mulig'
p111
sg6
S'white'
p112
sg8
(lp113
sg10
S'Possible'
p114
sg12
S'Some'
p115
sg14
g15
sg16
I1
sg17
S'High'
p116
sg19
S'Stor tilleggsbelastning'
p117
sg21
Nsg22
S'100'
p118
sg24
S'700'
p119
sg26
S'Noen bratte heng'
p120
sg28
Nsg29
g30
sg31
S'1 - Harmloest'
p121
sba(irunmatrix
M3Element
p122
(dp123
g3
Nsg4
S'Lite sannsynlig, Mulig'
p124
sg6
S'white'
p125
sg8
(lp126
sg10
S'Possible'
p127
sg12
S'Some'
p128
sg14
g15
sg16
I1
sg17
S'Low'
p129
sg19
S'Liten tilleggsbelastning'
p130
sg21
Nsg22
S'100'
p131
sg24
S'800'
p132
sg26
S'Noen bratte heng'
p133
sg28
Nsg29
g30
sg31
S'1 - Harmloest'
p134
sba(irunmatrix
M3Element
p135
(dp136
g3
F1.375
sg4
S'Lite sannsynlig, Mulig'
p137
sg6
g36
sg8
(lp138
I1
aI1
aI1
aI1
aI1
aI2
aI2
aI2
asg10
S'Possible'
p139
sg12
S'Some'
p140
sg14
g15
sg16
I1
sg17
S'Nat'
p141
sg19
S'Naturlig utloest'
p142
sg21
I8
sg22
S'100'
p143
sg24
S'900'
p144
sg26
S'Noen bratte heng'
p145
sg28
g45
(g49
S'\xdaNO\xb1\xde\xfb\xde?'
p146
tp147
Rp148
sg29
g30
sg31
S'1 - Harmloest'
p149
sba(irunmatrix
M3Element
p150
(dp151
g3
Nsg4
S'Sannsynlig, Meget sannsynlig'
p152
sg6
S'gray'
p153
sg8
(lp154
sg10
S'Likely'
p155
sg12
S'Some'
p156
sg14
g76
sg16
I0
sg17
S'High'
p157
sg19
S'Stor tilleggsbelastning'
p158
sg21
Nsg22
S'100'
p159
sg24
S'1000'
p160
sg26
S'Noen bratte heng'
p161
sg28
Nsg29
g30
sg31
S'1 - Harmloest'
p162
sba(irunmatrix
M3Element
p163
(dp164
g3
Nsg4
S'Sannsynlig, Meget sannsynlig'
p165
sg6
S'gray'
p166
sg8
(lp167
sg10
S'Likely'
p168
sg12
S'Some'
p169
sg14
g76
sg16
I0
sg17
S'Low'
p170
sg19
S'Liten tilleggsbelastning'
p171
sg21
Nsg22
S'100'
p172
sg24
S'1100'
p173
sg26
S'Noen bratte heng'
p174
sg28
Nsg29
g30
sg31
S'1 - Harmloest'
p175
sba(irunmatrix
M3Element
p176
(dp177
g3
Nsg4
S'Sannsynlig, Meget sannsynlig'
p178
sg6
S'white'
p179
sg8
(lp180
sg10
S'Likely'
p181
sg12
S'Some'
p182
sg14
g15
sg16
I1
sg17
S'Nat'
p183
sg19
S'Naturlig utloest'
p184
sg21
Nsg22
S'100'
p185
sg24
S'1200'
p186
sg26
S'Noen bratte heng'
p187
sg28
Nsg29
g30
sg31
S'1 - Harmloest'
p188
sba(irunmatrix
M3Element
p189
(dp190
g3
Nsg4
S'Lite sannsynlig, Mulig'
p191
sg6
S'gray'
p192
sg8
(lp193
sg10
S'Possible'
p194
sg12
S'Many'
p195
sg14
g76
sg16
I0
sg17
S'High'
p196
sg19
S'Stor tilleggsbelastning'
p197
sg21
Nsg22
S'100'
p198
sg24
S'1300'
p199
sg26
S'Mange bratte heng'
p200
sg28
Nsg29
g30
sg31
S'1 - Harmloest'
p201
sba(irunmatrix
M3Element
p202
(dp203
g3
Nsg4
S'Lite sannsynlig, Mulig'
p204
sg6
S'white'
p205
sg8
(lp206
sg10
S'Possible'
p207
sg12
S'Many'
p208
sg14
g15
sg16
I1
sg17
S'Low'
p209
sg19
S'Liten tilleggsbelastning'
p210
sg21
Nsg22
S'100'
p211
sg24
S'1400'
p212
sg26
S'Mange bratte heng'
p213
sg28
Nsg29
g30
sg31
S'1 - Harmloest'
p214
sba(irunmatrix
M3Element
p215
(dp216
g3
Nsg4
S'Lite sannsynlig, Mulig'
p217
sg6
S'gray'
p218
sg8
(lp219
sg10
S'Possible'
p220
sg12
S'Many'
p221
sg14
g76
sg16
I0
sg17
S'Nat'
p222
sg19
S'Naturlig utloest'
p223
sg21
Nsg22
S'100'
p224
sg24
S'1500'
p225
sg26
S'Mange bratte heng'
p226
sg28
Nsg29
g30
sg31
S'1 - Harmloest'
p227
sba(irunmatrix
M3Element
p228
(dp229
g3
Nsg4
S'Sannsynlig, Meget sannsynlig'
p230
sg6
S'gray'
p231
sg8
(lp232
sg10
S'Likely'
p233
sg12
S'Many'
p234
sg14
g76
sg16
I0
sg17
S'High'
p235
sg19
S'Stor tilleggsbelastning'
p236
sg21
Nsg22
S'100'
p237
sg24
S'1600'
p238
sg26
S'Mange bratte heng'
p239
sg28
Nsg29
g30
sg31
S'1 - Harmloest'
p240
sba(irunmatrix
M3Element
p241
(dp242
g3
Nsg4
S'Sannsynlig, Meget sannsynlig'
p243
sg6
S'white'
p244
sg8
(lp245
sg10
S'Likely'
p246
sg12
S'Many'
p247
sg14
S'#ffff00'
p248
sg16
I2
sg17
S'Low'
p249
sg19
S'Liten tilleggsbelastning'
p250
sg21
Nsg22
S'100'
p251
sg24
S'1700'
p252
sg26
S'Mange bratte heng'
p253
sg28
Nsg29
g30
sg31
S'1 - Harmloest'
p254
sba(irunmatrix
M3Element
p255
(dp256
g3
Nsg4
S'Sannsynlig, Meget sannsynlig'
p257
sg6
S'white'
p258
sg8
(lp259
sg10
S'Likely'
p260
sg12
S'Many'
p261
sg14
g248
sg16
I2
sg17
S'Nat'
p262
sg19
S'Naturlig utloest'
p263
sg21
Nsg22
S'100'
p264
sg24
S'1800'
p265
sg26
S'Mange bratte heng'
p266
sg28
Nsg29
g30
sg31
S'1 - Harmloest'
p267
sba(irunmatrix
M3Element
p268
(dp269
g3
Nsg4
S'Lite sannsynlig, Mulig'
p270
sg6
S'gray'
p271
sg8
(lp272
sg10
S'Possible'
p273
sg12
S'Most'
p274
sg14
g76
sg16
I0
sg17
S'High'
p275
sg19
S'Stor tilleggsbelastning'
p276
sg21
Nsg22
S'100'
p277
sg24
S'1900'
p278
sg26
S'De fleste bratte heng, Ogsaa i mindre bratt terreng'
p279
sg28
Nsg29
g30
sg31
S'1 - Harmloest'
p280
sba(irunmatrix
M3Element
p281
(dp282
g3
Nsg4
S'Lite sannsynlig, Mulig'
p283
sg6
S'gray'
p284
sg8
(lp285
sg10
S'Possible'
p286
sg12
S'Most'
p287
sg14
g76
sg16
I0
sg17
S'Low'
p288
sg19
S'Liten tilleggsbelastning'
p289
sg21
Nsg22
S'100'
p290
sg24
S'2000'
p291
sg26
S'De fleste bratte heng, Ogsaa i mindre bratt terreng'
p292
sg28
Nsg29
g30
sg31
S'1 - Harmloest'
p293
sba(irunmatrix
M3Element
p294
(dp295
g3
Nsg4
S'Lite sannsynlig, Mulig'
p296
sg6
S'gray'
p297
sg8
(lp298
sg10
S'Possible'
p299
sg12
S'Most'
p300
sg14
g76
sg16
I0
sg17
S'Nat'
p301
sg19
S'Naturlig utloest'
p302
sg21
Nsg22
S'100'
p303
sg24
S'2100'
p304
sg26
S'De fleste bratte heng, Ogsaa i mindre bratt terreng'
p305
sg28
Nsg29
g30
sg31
S'1 - Harmloest'
p306
sba(irunmatrix
M3Element
p307
(dp308
g3
Nsg4
S'Sannsynlig, Meget sannsynlig'
p309
sg6
S'gray'
p310
sg8
(lp311
sg10
S'Likely'
p312
sg12
S'Most'
p313
sg14
g76
sg16
I0
sg17
S'High'
p314
sg19
S'Stor tilleggsbelastning'
p315
sg21
Nsg22
S'100'
p316
sg24
S'2200'
p317
sg26
S'De fleste bratte heng, Ogsaa i mindre bratt terreng'
p318
sg28
Nsg29
g30
sg31
S'1 - Harmloest'
p319
sba(irunmatrix
M3Element
p320
(dp321
g3
Nsg4
S'Sannsynlig, Meget sannsynlig'
p322
sg6
S'gray'
p323
sg8
(lp324
sg10
S'Likely'
p325
sg12
S'Most'
p326
sg14
g76
sg16
I0
sg17
S'Low'
p327
sg19
S'Liten tilleggsbelastning'
p328
sg21
Nsg22
S'100'
p329
sg24
S'2300'
p330
sg26
S'De fleste bratte heng, Ogsaa i mindre bratt terreng'
p331
sg28
Nsg29
g30
sg31
S'1 - Harmloest'
p332
sba(irunmatrix
M3Element
p333
(dp334
g3
Nsg4
S'Sannsynlig, Meget sannsynlig'
p335
sg6
S'white'
p336
sg8
(lp337
sg10
S'Likely'
p338
sg12
S'Most'
p339
sg14
g76
sg16
I0
sg17
S'Nat'
p340
sg19
S'Naturlig utloest'
p341
sg21
Nsg22
S'100'
p342
sg24
S'2400'
p343
sg26
S'De fleste bratte heng, Ogsaa i mindre bratt terreng'
p344
sg28
Nsg29
S'2'
p345
sg31
S'1 - Harmloest'
p346
sba(irunmatrix
M3Element
p347
(dp348
g3
Nsg4
S'Lite sannsynlig, Mulig'
p349
sg6
S'white'
p350
sg8
(lp351
sg10
S'Possible'
p352
sg12
S'Isolated'
p353
sg14
g15
sg16
I1
sg17
S'High'
p354
sg19
S'Stor tilleggsbelastning'
p355
sg21
Nsg22
S'200'
p356
sg24
S'100'
p357
sg26
S'Isolerte faresoner'
p358
sg28
Nsg29
g345
sg31
S'2 - Smaa'
p359
sba(irunmatrix
M3Element
p360
(dp361
g3
F1.8
sg4
S'Lite sannsynlig, Mulig'
p362
sg6
S'#ffff00'
p363
sg8
(lp364
I3
aI3
aI1
aI1
aI1
asg10
S'Possible'
p365
sg12
S'Isolated'
p366
sg14
g15
sg16
I1
sg17
S'Low'
p367
sg19
S'Liten tilleggsbelastning'
p368
sg21
I5
sg22
S'200'
p369
sg24
S'200'
p370
sg26
S'Isolerte faresoner'
p371
sg28
g45
(g49
S'Kh\xdb\xec|Z\xef?'
p372
tp373
Rp374
sg29
g345
sg31
S'2 - Smaa'
p375
sba(irunmatrix
M3Element
p376
(dp377
g3
Nsg4
S'Lite sannsynlig, Mulig'
p378
sg6
S'white'
p379
sg8
(lp380
sg10
S'Possible'
p381
sg12
S'Isolated'
p382
sg14
g15
sg16
I1
sg17
S'Nat'
p383
sg19
S'Naturlig utloest'
p384
sg21
Nsg22
S'200'
p385
sg24
S'300'
p386
sg26
S'Isolerte faresoner'
p387
sg28
Nsg29
g345
sg31
S'2 - Smaa'
p388
sba(irunmatrix
M3Element
p389
(dp390
g3
Nsg4
S'Sannsynlig, Meget sannsynlig'
p391
sg6
S'gray'
p392
sg8
(lp393
sg10
S'Likely'
p394
sg12
S'Isolated'
p395
sg14
g76
sg16
I0
sg17
S'High'
p396
sg19
S'Stor tilleggsbelastning'
p397
sg21
Nsg22
S'200'
p398
sg24
S'400'
p399
sg26
S'Isolerte faresoner'
p400
sg28
Nsg29
g345
sg31
S'2 - Smaa'
p401
sba(irunmatrix
M3Element
p402
(dp403
g3
Nsg4
S'Sannsynlig, Meget sannsynlig'
p404
sg6
S'gray'
p405
sg8
(lp406
sg10
S'Likely'
p407
sg12
S'Isolated'
p408
sg14
g76
sg16
I0
sg17
S'Low'
p409
sg19
S'Liten tilleggsbelastning'
p410
sg21
Nsg22
S'200'
p411
sg24
S'500'
p412
sg26
S'Isolerte faresoner'
p413
sg28
Nsg29
g345
sg31
S'2 - Smaa'
p414
sba(irunmatrix
M3Element
p415
(dp416
g3
Nsg4
S'Sannsynlig, Meget sannsynlig'
p417
sg6
S'gray'
p418
sg8
(lp419
sg10
S'Likely'
p420
sg12
S'Isolated'
p421
sg14
g76
sg16
I0
sg17
S'Nat'
p422
sg19
S'Naturlig utloest'
p423
sg21
Nsg22
S'200'
p424
sg24
S'600'
p425
sg26
S'Isolerte faresoner'
p426
sg28
Nsg29
g345
sg31
S'2 - Smaa'
p427
sba(irunmatrix
M3Element
p428
(dp429
g3
F2.0
sg4
S'Lite sannsynlig, Mulig'
p430
sg6
g363
sg8
(lp431
I2
aI2
aI2
aI2
aI2
aI2
aI2
aI2
aI2
aI2
aI2
aI2
aI2
aI2
aI2
aI2
aI2
aI2
aI2
asg10
S'Possible'
p432
sg12
S'Some'
p433
sg14
g248
sg16
I2
sg17
S'High'
p434
sg19
S'Stor tilleggsbelastning'
p435
sg21
I19
sg22
S'200'
p436
sg24
S'700'
p437
sg26
S'Noen bratte heng'
p438
sg28
g45
(g49
S'\x00\x00\x00\x00\x00\x00\x00\x00'
p439
tp440
Rp441
sg29
g345
sg31
S'2 - Smaa'
p442
sba(irunmatrix
M3Element
p443
(dp444
g3
F2.0657894736842106
sg4
S'Lite sannsynlig, Mulig'
p445
sg6
g363
sg8
(lp446
I2
aI2
aI2
aI2
aI2
aI2
aI2
aI2
aI2
aI2
aI2
aI3
aI3
aI3
aI2
aI2
aI3
aI3
aI2
aI2
aI1
aI2
aI2
aI3
aI2
aI2
aI2
aI2
aI2
aI2
aI2
aI2
aI2
aI2
aI2
aI2
aI2
aI2
aI2
aI2
aI2
aI2
aI2
aI2
aI2
aI2
aI2
aI2
aI2
aI2
aI2
aI2
aI2
aI2
aI2
aI2
aI2
aI2
aI2
aI2
aI2
aI2
aI2
aI2
aI2
aI2
aI2
aI2
aI2
aI2
aI2
aI2
aI2
aI2
aI2
aI2
asg10
S'Possible'
p447
sg12
S'Some'
p448
sg14
g248
sg16
I2
sg17
S'Low'
p449
sg19
S'Liten tilleggsbelastning'
p450
sg21
I76
sg22
S'200'
p451
sg24
S'800'
p452
sg26
S'Noen bratte heng'
p453
sg28
g45
(g49
S'\x15\xf1.3\x1e\xf6\xd2?'
p454
tp455
Rp456
sg29
g345
sg31
S'2 - Smaa'
p457
sba(irunmatrix
M3Element
p458
(dp459
g3
F2.0
sg4
S'Lite sannsynlig, Mulig'
p460
sg6
g363
sg8
(lp461
I2
aI2
aI2
aI2
aI2
aI2
aI2
aI2
aI2
aI2
aI2
aI2
aI2
aI2
asg10
S'Possible'
p462
sg12
S'Some'
p463
sg14
g248
sg16
I2
sg17
S'Nat'
p464
sg19
S'Naturlig utloest'
p465
sg21
I14
sg22
S'200'
p466
sg24
S'900'
p467
sg26
S'Noen bratte heng'
p468
sg28
g45
(g49
S'\x00\x00\x00\x00\x00\x00\x00\x00'
p469
tp470
Rp471
sg29
g345
sg31
S'2 - Smaa'
p472
sba(irunmatrix
M3Element
p473
(dp474
g3
Nsg4
S'Sannsynlig, Meget sannsynlig'
p475
sg6
S'gray'
p476
sg8
(lp477
sg10
S'Likely'
p478
sg12
S'Some'
p479
sg14
g76
sg16
I0
sg17
S'High'
p480
sg19
S'Stor tilleggsbelastning'
p481
sg21
Nsg22
S'200'
p482
sg24
S'1000'
p483
sg26
S'Noen bratte heng'
p484
sg28
Nsg29
g345
sg31
S'2 - Smaa'
p485
sba(irunmatrix
M3Element
p486
(dp487
g3
Nsg4
S'Sannsynlig, Meget sannsynlig'
p488
sg6
S'gray'
p489
sg8
(lp490
sg10
S'Likely'
p491
sg12
S'Some'
p492
sg14
g76
sg16
I0
sg17
S'Low'
p493
sg19
S'Liten tilleggsbelastning'
p494
sg21
Nsg22
S'200'
p495
sg24
S'1100'
p496
sg26
S'Noen bratte heng'
p497
sg28
Nsg29
g345
sg31
S'2 - Smaa'
p498
sba(irunmatrix
M3Element
p499
(dp500
g3
Nsg4
S'Sannsynlig, Meget sannsynlig'
p501
sg6
S'white'
p502
sg8
(lp503
sg10
S'Likely'
p504
sg12
S'Some'
p505
sg14
S'#ff9900'
p506
sg16
I3
sg17
S'Nat'
p507
sg19
S'Naturlig utloest'
p508
sg21
Nsg22
S'200'
p509
sg24
S'1200'
p510
sg26
S'Noen bratte heng'
p511
sg28
Nsg29
g345
sg31
S'2 - Smaa'
p512
sba(irunmatrix
M3Element
p513
(dp514
g3
F2.0
sg4
S'Lite sannsynlig, Mulig'
p515
sg6
g363
sg8
(lp516
I2
aI2
asg10
S'Possible'
p517
sg12
S'Many'
p518
sg14
g76
sg16
I0
sg17
S'High'
p519
sg19
S'Stor tilleggsbelastning'
p520
sg21
I2
sg22
S'200'
p521
sg24
S'1300'
p522
sg26
S'Mange bratte heng'
p523
sg28
g45
(g49
S'\x00\x00\x00\x00\x00\x00\x00\x00'
p524
tp525
Rp526
sg29
g345
sg31
S'2 - Smaa'
p527
sba(irunmatrix
M3Element
p528
(dp529
g3
F3.0
sg4
S'Lite sannsynlig, Mulig'
p530
sg6
S'#ff9900'
p531
sg8
(lp532
I3
aI3
aI3
aI3
aI3
aI3
aI3
aI3
aI3
aI3
aI3
aI3
aI3
aI3
aI3
asg10
S'Possible'
p533
sg12
S'Many'
p534
sg14
g506
sg16
I3
sg17
S'Low'
p535
sg19
S'Liten tilleggsbelastning'
p536
sg21
I15
sg22
S'200'
p537
sg24
S'1400'
p538
sg26
S'Mange bratte heng'
p539
sg28
g45
(g49
S'\x00\x00\x00\x00\x00\x00\x00\x00'
p540
tp541
Rp542
sg29
g345
sg31
S'2 - Smaa'
p543
sba(irunmatrix
M3Element
p544
(dp545
g3
Nsg4
S'Lite sannsynlig, Mulig'
p546
sg6
S'gray'
p547
sg8
(lp548
sg10
S'Possible'
p549
sg12
S'Many'
p550
sg14
g76
sg16
I0
sg17
S'Nat'
p551
sg19
S'Naturlig utloest'
p552
sg21
Nsg22
S'200'
p553
sg24
S'1500'
p554
sg26
S'Mange bratte heng'
p555
sg28
Nsg29
g345
sg31
S'2 - Smaa'
p556
sba(irunmatrix
M3Element
p557
(dp558
g3
Nsg4
S'Sannsynlig, Meget sannsynlig'
p559
sg6
S'gray'
p560
sg8
(lp561
sg10
S'Likely'
p562
sg12
S'Many'
p563
sg14
g76
sg16
I0
sg17
S'High'
p564
sg19
S'Stor tilleggsbelastning'
p565
sg21
Nsg22
S'200'
p566
sg24
S'1600'
p567
sg26
S'Mange bratte heng'
p568
sg28
Nsg29
g345
sg31
S'2 - Smaa'
p569
sba(irunmatrix
M3Element
p570
(dp571
g3
Nsg4
S'Sannsynlig, Meget sannsynlig'
p572
sg6
S'white'
p573
sg8
(lp574
sg10
S'Likely'
p575
sg12
S'Many'
p576
sg14
S'#ff0000'
p577
sg16
I4
sg17
S'Low'
p578
sg19
S'Liten tilleggsbelastning'
p579
sg21
Nsg22
S'200'
p580
sg24
S'1700'
p581
sg26
S'Mange bratte heng'
p582
sg28
Nsg29
g345
sg31
S'2 - Smaa'
p583
sba(irunmatrix
M3Element
p584
(dp585
g3
F3.0
sg4
S'Sannsynlig, Meget sannsynlig'
p586
sg6
g531
sg8
(lp587
I3
aI3
aI3
aI3
aI3
aI3
aI3
aI3
aI3
aI3
asg10
S'Likely'
p588
sg12
S'Many'
p589
sg14
g577
sg16
I4
sg17
S'Nat'
p590
sg19
S'Naturlig utloest'
p591
sg21
I10
sg22
S'200'
p592
sg24
S'1800'
p593
sg26
S'Mange bratte heng'
p594
sg28
g45
(g49
S'\x00\x00\x00\x00\x00\x00\x00\x00'
p595
tp596
Rp597
sg29
g345
sg31
S'2 - Smaa'
p598
sba(irunmatrix
M3Element
p599
(dp600
g3
Nsg4
S'Lite sannsynlig, Mulig'
p601
sg6
S'gray'
p602
sg8
(lp603
sg10
S'Possible'
p604
sg12
S'Most'
p605
sg14
g76
sg16
I0
sg17
S'High'
p606
sg19
S'Stor tilleggsbelastning'
p607
sg21
Nsg22
S'200'
p608
sg24
S'1900'
p609
sg26
S'De fleste bratte heng, Ogsaa i mindre bratt terreng'
p610
sg28
Nsg29
g345
sg31
S'2 - Smaa'
p611
sba(irunmatrix
M3Element
p612
(dp613
g3
Nsg4
S'Lite sannsynlig, Mulig'
p614
sg6
S'gray'
p615
sg8
(lp616
sg10
S'Possible'
p617
sg12
S'Most'
p618
sg14
g76
sg16
I0
sg17
S'Low'
p619
sg19
S'Liten tilleggsbelastning'
p620
sg21
Nsg22
S'200'
p621
sg24
S'2000'
p622
sg26
S'De fleste bratte heng, Ogsaa i mindre bratt terreng'
p623
sg28
Nsg29
g345
sg31
S'2 - Smaa'
p624
sba(irunmatrix
M3Element
p625
(dp626
g3
Nsg4
S'Lite sannsynlig, Mulig'
p627
sg6
S'gray'
p628
sg8
(lp629
sg10
S'Possible'
p630
sg12
S'Most'
p631
sg14
g76
sg16
I0
sg17
S'Nat'
p632
sg19
S'Naturlig utloest'
p633
sg21
Nsg22
S'200'
p634
sg24
S'2100'
p635
sg26
S'De fleste bratte heng, Ogsaa i mindre bratt terreng'
p636
sg28
Nsg29
g345
sg31
S'2 - Smaa'
p637
sba(irunmatrix
M3Element
p638
(dp639
g3
Nsg4
S'Sannsynlig, Meget sannsynlig'
p640
sg6
S'gray'
p641
sg8
(lp642
sg10
S'Likely'
p643
sg12
S'Most'
p644
sg14
g76
sg16
I0
sg17
S'High'
p645
sg19
S'Stor tilleggsbelastning'
p646
sg21
Nsg22
S'200'
p647
sg24
S'2200'
p648
sg26
S'De fleste bratte heng, Ogsaa i mindre bratt terreng'
p649
sg28
Nsg29
g345
sg31
S'2 - Smaa'
p650
sba(irunmatrix
M3Element
p651
(dp652
g3
Nsg4
S'Sannsynlig, Meget sannsynlig'
p653
sg6
S'gray'
p654
sg8
(lp655
sg10
S'Likely'
p656
sg12
S'Most'
p657
sg14
g76
sg16
I0
sg17
S'Low'
p658
sg19
S'Liten tilleggsbelastning'
p659
sg21
Nsg22
S'200'
p660
sg24
S'2300'
p661
sg26
S'De fleste bratte heng, Ogsaa i mindre bratt terreng'
p662
sg28
Nsg29
g345
sg31
S'2 - Smaa'
p663
sba(irunmatrix
M3Element
p664
(dp665
g3
Nsg4
S'Sannsynlig, Meget sannsynlig'
p666
sg6
S'white'
p667
sg8
(lp668
sg10
S'Likely'
p669
sg12
S'Most'
p670
sg14
g76
sg16
I0
sg17
S'Nat'
p671
sg19
S'Naturlig utloest'
p672
sg21
Nsg22
S'200'
p673
sg24
S'2400'
p674
sg26
S'De fleste bratte heng, Ogsaa i mindre bratt terreng'
p675
sg28
Nsg29
g345
sg31
S'2 - Smaa'
p676
sba(irunmatrix
M3Element
p677
(dp678
g3
Nsg4
S'Lite sannsynlig, Mulig'
p679
sg6
S'white'
p680
sg8
(lp681
sg10
S'Possible'
p682
sg12
S'Isolated'
p683
sg14
g15
sg16
I1
sg17
S'High'
p684
sg19
S'Stor tilleggsbelastning'
p685
sg21
Nsg22
S'300'
p686
sg24
S'100'
p687
sg26
S'Isolerte faresoner'
p688
sg28
Nsg29
S'3'
p689
sg31
S'3 - Middels'
p690
sba(irunmatrix
M3Element
p691
(dp692
g3
Nsg4
S'Lite sannsynlig, Mulig'
p693
sg6
S'white'
p694
sg8
(lp695
sg10
S'Possible'
p696
sg12
S'Isolated'
p697
sg14
g248
sg16
I2
sg17
S'Low'
p698
sg19
S'Liten tilleggsbelastning'
p699
sg21
Nsg22
S'300'
p700
sg24
S'200'
p701
sg26
S'Isolerte faresoner'
p702
sg28
Nsg29
g689
sg31
S'3 - Middels'
p703
sba(irunmatrix
M3Element
p704
(dp705
g3
Nsg4
S'Lite sannsynlig, Mulig'
p706
sg6
S'white'
p707
sg8
(lp708
sg10
S'Possible'
p709
sg12
S'Isolated'
p710
sg14
g248
sg16
I2
sg17
S'Nat'
p711
sg19
S'Naturlig utloest'
p712
sg21
Nsg22
S'300'
p713
sg24
S'300'
p714
sg26
S'Isolerte faresoner'
p715
sg28
Nsg29
g689
sg31
S'3 - Middels'
p716
sba(irunmatrix
M3Element
p717
(dp718
g3
Nsg4
S'Sannsynlig, Meget sannsynlig'
p719
sg6
S'gray'
p720
sg8
(lp721
sg10
S'Likely'
p722
sg12
S'Isolated'
p723
sg14
g76
sg16
I0
sg17
S'High'
p724
sg19
S'Stor tilleggsbelastning'
p725
sg21
Nsg22
S'300'
p726
sg24
S'400'
p727
sg26
S'Isolerte faresoner'
p728
sg28
Nsg29
g689
sg31
S'3 - Middels'
p729
sba(irunmatrix
M3Element
p730
(dp731
g3
Nsg4
S'Sannsynlig, Meget sannsynlig'
p732
sg6
S'gray'
p733
sg8
(lp734
sg10
S'Likely'
p735
sg12
S'Isolated'
p736
sg14
g76
sg16
I0
sg17
S'Low'
p737
sg19
S'Liten tilleggsbelastning'
p738
sg21
Nsg22
S'300'
p739
sg24
S'500'
p740
sg26
S'Isolerte faresoner'
p741
sg28
Nsg29
g689
sg31
S'3 - Middels'
p742
sba(irunmatrix
M3Element
p743
(dp744
g3
Nsg4
S'Sannsynlig, Meget sannsynlig'
p745
sg6
S'gray'
p746
sg8
(lp747
sg10
S'Likely'
p748
sg12
S'Isolated'
p749
sg14
g76
sg16
I0
sg17
S'Nat'
p750
sg19
S'Naturlig utloest'
p751
sg21
Nsg22
S'300'
p752
sg24
S'600'
p753
sg26
S'Isolerte faresoner'
p754
sg28
Nsg29
g689
sg31
S'3 - Middels'
p755
sba(irunmatrix
M3Element
p756
(dp757
g3
F2.0
sg4
S'Lite sannsynlig, Mulig'
p758
sg6
g363
sg8
(lp759
I2
aI2
aI2
asg10
S'Possible'
p760
sg12
S'Some'
p761
sg14
g248
sg16
I2
sg17
S'High'
p762
sg19
S'Stor tilleggsbelastning'
p763
sg21
I3
sg22
S'300'
p764
sg24
S'700'
p765
sg26
S'Noen bratte heng'
p766
sg28
g45
(g49
S'\x00\x00\x00\x00\x00\x00\x00\x00'
p767
tp768
Rp769
sg29
g689
sg31
S'3 - Middels'
p770
sba(irunmatrix
M3Element
p771
(dp772
g3
F2.888888888888889
sg4
S'Lite sannsynlig, Mulig'
p773
sg6
g531
sg8
(lp774
I3
aI3
aI3
aI3
aI2
aI3
aI3
aI3
aI3
asg10
S'Possible'
p775
sg12
S'Some'
p776
sg14
g506
sg16
I3
sg17
S'Low'
p777
sg19
S'Liten tilleggsbelastning'
p778
sg21
I9
sg22
S'300'
p779
sg24
S'800'
p780
sg26
S'Noen bratte heng'
p781
sg28
g45
(g49
S'\x9aQ\xff\x93\xfe\x1c\xd4?'
p782
tp783
Rp784
sg29
g689
sg31
S'3 - Middels'
p785
sba(irunmatrix
M3Element
p786
(dp787
g3
F3.0
sg4
S'Lite sannsynlig, Mulig'
p788
sg6
g531
sg8
(lp789
I3
asg10
S'Possible'
p790
sg12
S'Some'
p791
sg14
g506
sg16
I3
sg17
S'Nat'
p792
sg19
S'Naturlig utloest'
p793
sg21
I1
sg22
S'300'
p794
sg24
S'900'
p795
sg26
S'Noen bratte heng'
p796
sg28
g45
(g49
S'\x00\x00\x00\x00\x00\x00\x00\x00'
p797
tp798
Rp799
sg29
g689
sg31
S'3 - Middels'
p800
sba(irunmatrix
M3Element
p801
(dp802
g3
Nsg4
S'Sannsynlig, Meget sannsynlig'
p803
sg6
S'gray'
p804
sg8
(lp805
sg10
S'Likely'
p806
sg12
S'Some'
p807
sg14
g76
sg16
I0
sg17
S'High'
p808
sg19
S'Stor tilleggsbelastning'
p809
sg21
Nsg22
S'300'
p810
sg24
S'1000'
p811
sg26
S'Noen bratte heng'
p812
sg28
Nsg29
g689
sg31
S'3 - Middels'
p813
sba(irunmatrix
M3Element
p814
(dp815
g3
Nsg4
S'Sannsynlig, Meget sannsynlig'
p816
sg6
S'gray'
p817
sg8
(lp818
sg10
S'Likely'
p819
sg12
S'Some'
p820
sg14
g76
sg16
I0
sg17
S'Low'
p821
sg19
S'Liten tilleggsbelastning'
p822
sg21
Nsg22
S'300'
p823
sg24
S'1100'
p824
sg26
S'Noen bratte heng'
p825
sg28
Nsg29
g689
sg31
S'3 - Middels'
p826
sba(irunmatrix
M3Element
p827
(dp828
g3
Nsg4
S'Sannsynlig, Meget sannsynlig'
p829
sg6
S'white'
p830
sg8
(lp831
sg10
S'Likely'
p832
sg12
S'Some'
p833
sg14
g577
sg16
I4
sg17
S'Nat'
p834
sg19
S'Naturlig utloest'
p835
sg21
Nsg22
S'300'
p836
sg24
S'1200'
p837
sg26
S'Noen bratte heng'
p838
sg28
Nsg29
g689
sg31
S'3 - Middels'
p839
sba(irunmatrix
M3Element
p840
(dp841
g3
Nsg4
S'Lite sannsynlig, Mulig'
p842
sg6
S'gray'
p843
sg8
(lp844
sg10
S'Possible'
p845
sg12
S'Many'
p846
sg14
g76
sg16
I0
sg17
S'High'
p847
sg19
S'Stor tilleggsbelastning'
p848
sg21
Nsg22
S'300'
p849
sg24
S'1300'
p850
sg26
S'Mange bratte heng'
p851
sg28
Nsg29
g689
sg31
S'3 - Middels'
p852
sba(irunmatrix
M3Element
p853
(dp854
g3
Nsg4
S'Lite sannsynlig, Mulig'
p855
sg6
S'white'
p856
sg8
(lp857
sg10
S'Possible'
p858
sg12
S'Many'
p859
sg14
g577
sg16
I4
sg17
S'Low'
p860
sg19
S'Liten tilleggsbelastning'
p861
sg21
Nsg22
S'300'
p862
sg24
S'1400'
p863
sg26
S'Mange bratte heng'
p864
sg28
Nsg29
g689
sg31
S'3 - Middels'
p865
sba(irunmatrix
M3Element
p866
(dp867
g3
Nsg4
S'Lite sannsynlig, Mulig'
p868
sg6
S'gray'
p869
sg8
(lp870
sg10
S'Possible'
p871
sg12
S'Many'
p872
sg14
g76
sg16
I0
sg17
S'Nat'
p873
sg19
S'Naturlig utloest'
p874
sg21
Nsg22
S'300'
p875
sg24
S'1500'
p876
sg26
S'Mange bratte heng'
p877
sg28
Nsg29
g689
sg31
S'3 - Middels'
p878
sba(irunmatrix
M3Element
p879
(dp880
g3
Nsg4
S'Sannsynlig, Meget sannsynlig'
p881
sg6
S'gray'
p882
sg8
(lp883
sg10
S'Likely'
p884
sg12
S'Many'
p885
sg14
g76
sg16
I0
sg17
S'High'
p886
sg19
S'Stor tilleggsbelastning'
p887
sg21
Nsg22
S'300'
p888
sg24
S'1600'
p889
sg26
S'Mange bratte heng'
p890
sg28
Nsg29
g689
sg31
S'3 - Middels'
p891
sba(irunmatrix
M3Element
p892
(dp893
g3
Nsg4
S'Sannsynlig, Meget sannsynlig'
p894
sg6
S'white'
p895
sg8
(lp896
sg10
S'Likely'
p897
sg12
S'Many'
p898
sg14
g577
sg16
I4
sg17
S'Low'
p899
sg19
S'Liten tilleggsbelastning'
p900
sg21
Nsg22
S'300'
p901
sg24
S'1700'
p902
sg26
S'Mange bratte heng'
p903
sg28
Nsg29
g689
sg31
S'3 - Middels'
p904
sba(irunmatrix
M3Element
p905
(dp906
g3
Nsg4
S'Sannsynlig, Meget sannsynlig'
p907
sg6
S'white'
p908
sg8
(lp909
sg10
S'Likely'
p910
sg12
S'Many'
p911
sg14
g577
sg16
I4
sg17
S'Nat'
p912
sg19
S'Naturlig utloest'
p913
sg21
Nsg22
S'300'
p914
sg24
S'1800'
p915
sg26
S'Mange bratte heng'
p916
sg28
Nsg29
g689
sg31
S'3 - Middels'
p917
sba(irunmatrix
M3Element
p918
(dp919
g3
Nsg4
S'Lite sannsynlig, Mulig'
p920
sg6
S'gray'
p921
sg8
(lp922
sg10
S'Possible'
p923
sg12
S'Most'
p924
sg14
g76
sg16
I0
sg17
S'High'
p925
sg19
S'Stor tilleggsbelastning'
p926
sg21
Nsg22
S'300'
p927
sg24
S'1900'
p928
sg26
S'De fleste bratte heng, Ogsaa i mindre bratt terreng'
p929
sg28
Nsg29
g689
sg31
S'3 - Middels'
p930
sba(irunmatrix
M3Element
p931
(dp932
g3
Nsg4
S'Lite sannsynlig, Mulig'
p933
sg6
S'gray'
p934
sg8
(lp935
sg10
S'Possible'
p936
sg12
S'Most'
p937
sg14
g76
sg16
I0
sg17
S'Low'
p938
sg19
S'Liten tilleggsbelastning'
p939
sg21
Nsg22
S'300'
p940
sg24
S'2000'
p941
sg26
S'De fleste bratte heng, Ogsaa i mindre bratt terreng'
p942
sg28
Nsg29
g689
sg31
S'3 - Middels'
p943
sba(irunmatrix
M3Element
p944
(dp945
g3
Nsg4
S'Lite sannsynlig, Mulig'
p946
sg6
S'gray'
p947
sg8
(lp948
sg10
S'Possible'
p949
sg12
S'Most'
p950
sg14
g76
sg16
I0
sg17
S'Nat'
p951
sg19
S'Naturlig utloest'
p952
sg21
Nsg22
S'300'
p953
sg24
S'2100'
p954
sg26
S'De fleste bratte heng, Ogsaa i mindre bratt terreng'
p955
sg28
Nsg29
g689
sg31
S'3 - Middels'
p956
sba(irunmatrix
M3Element
p957
(dp958
g3
Nsg4
S'Sannsynlig, Meget sannsynlig'
p959
sg6
S'gray'
p960
sg8
(lp961
sg10
S'Likely'
p962
sg12
S'Most'
p963
sg14
g76
sg16
I0
sg17
S'High'
p964
sg19
S'Stor tilleggsbelastning'
p965
sg21
Nsg22
S'300'
p966
sg24
S'2200'
p967
sg26
S'De fleste bratte heng, Ogsaa i mindre bratt terreng'
p968
sg28
Nsg29
g689
sg31
S'3 - Middels'
p969
sba(irunmatrix
M3Element
p970
(dp971
g3
Nsg4
S'Sannsynlig, Meget sannsynlig'
p972
sg6
S'gray'
p973
sg8
(lp974
sg10
S'Likely'
p975
sg12
S'Most'
p976
sg14
g76
sg16
I0
sg17
S'Low'
p977
sg19
S'Liten tilleggsbelastning'
p978
sg21
Nsg22
S'300'
p979
sg24
S'2300'
p980
sg26
S'De fleste bratte heng, Ogsaa i mindre bratt terreng'
p981
sg28
Nsg29
g689
sg31
S'3 - Middels'
p982
sba(irunmatrix
M3Element
p983
(dp984
g3
Nsg4
S'Sannsynlig, Meget sannsynlig'
p985
sg6
S'white'
p986
sg8
(lp987
sg10
S'Likely'
p988
sg12
S'Most'
p989
sg14
g76
sg16
I0
sg17
S'Nat'
p990
sg19
S'Naturlig utloest'
p991
sg21
Nsg22
S'300'
p992
sg24
S'2400'
p993
sg26
S'De fleste bratte heng, Ogsaa i mindre bratt terreng'
p994
sg28
Nsg29
g689
sg31
S'3 - Middels'
p995
sba(irunmatrix
M3Element
p996
(dp997
g3
Nsg4
S'Lite sannsynlig, Mulig'
p998
sg6
S'white'
p999
sg8
(lp1000
sg10
S'Possible'
p1001
sg12
S'Isolated'
p1002
sg14
g248
sg16
I2
sg17
S'High'
p1003
sg19
S'Stor tilleggsbelastning'
p1004
sg21
Nsg22
S'400'
p1005
sg24
S'100'
p1006
sg26
S'Isolerte faresoner'
p1007
sg28
Nsg29
S'4'
p1008
sg31
S'4 - Store'
p1009
sba(irunmatrix
M3Element
p1010
(dp1011
g3
Nsg4
S'Lite sannsynlig, Mulig'
p1012
sg6
S'white'
p1013
sg8
(lp1014
sg10
S'Possible'
p1015
sg12
S'Isolated'
p1016
sg14
g506
sg16
I3
sg17
S'Low'
p1017
sg19
S'Liten tilleggsbelastning'
p1018
sg21
Nsg22
S'400'
p1019
sg24
S'200'
p1020
sg26
S'Isolerte faresoner'
p1021
sg28
Nsg29
g1008
sg31
S'4 - Store'
p1022
sba(irunmatrix
M3Element
p1023
(dp1024
g3
Nsg4
S'Lite sannsynlig, Mulig'
p1025
sg6
S'white'
p1026
sg8
(lp1027
sg10
S'Possible'
p1028
sg12
S'Isolated'
p1029
sg14
g506
sg16
I3
sg17
S'Nat'
p1030
sg19
S'Naturlig utloest'
p1031
sg21
Nsg22
S'400'
p1032
sg24
S'300'
p1033
sg26
S'Isolerte faresoner'
p1034
sg28
Nsg29
g1008
sg31
S'4 - Store'
p1035
sba(irunmatrix
M3Element
p1036
(dp1037
g3
Nsg4
S'Sannsynlig, Meget sannsynlig'
p1038
sg6
S'gray'
p1039
sg8
(lp1040
sg10
S'Likely'
p1041
sg12
S'Isolated'
p1042
sg14
g76
sg16
I0
sg17
S'High'
p1043
sg19
S'Stor tilleggsbelastning'
p1044
sg21
Nsg22
S'400'
p1045
sg24
S'400'
p1046
sg26
S'Isolerte faresoner'
p1047
sg28
Nsg29
g1008
sg31
S'4 - Store'
p1048
sba(irunmatrix
M3Element
p1049
(dp1050
g3
Nsg4
S'Sannsynlig, Meget sannsynlig'
p1051
sg6
S'gray'
p1052
sg8
(lp1053
sg10
S'Likely'
p1054
sg12
S'Isolated'
p1055
sg14
g76
sg16
I0
sg17
S'Low'
p1056
sg19
S'Liten tilleggsbelastning'
p1057
sg21
Nsg22
S'400'
p1058
sg24
S'500'
p1059
sg26
S'Isolerte faresoner'
p1060
sg28
Nsg29
g1008
sg31
S'4 - Store'
p1061
sba(irunmatrix
M3Element
p1062
(dp1063
g3
Nsg4
S'Sannsynlig, Meget sannsynlig'
p1064
sg6
S'gray'
p1065
sg8
(lp1066
sg10
S'Likely'
p1067
sg12
S'Isolated'
p1068
sg14
g76
sg16
I0
sg17
S'Nat'
p1069
sg19
S'Naturlig utloest'
p1070
sg21
Nsg22
S'400'
p1071
sg24
S'600'
p1072
sg26
S'Isolerte faresoner'
p1073
sg28
Nsg29
g1008
sg31
S'4 - Store'
p1074
sba(irunmatrix
M3Element
p1075
(dp1076
g3
Nsg4
S'Lite sannsynlig, Mulig'
p1077
sg6
S'white'
p1078
sg8
(lp1079
sg10
S'Possible'
p1080
sg12
S'Some'
p1081
sg14
g506
sg16
I3
sg17
S'High'
p1082
sg19
S'Stor tilleggsbelastning'
p1083
sg21
Nsg22
S'400'
p1084
sg24
S'700'
p1085
sg26
S'Noen bratte heng'
p1086
sg28
Nsg29
g1008
sg31
S'4 - Store'
p1087
sba(irunmatrix
M3Element
p1088
(dp1089
g3
Nsg4
S'Lite sannsynlig, Mulig'
p1090
sg6
S'white'
p1091
sg8
(lp1092
sg10
S'Possible'
p1093
sg12
S'Some'
p1094
sg14
g577
sg16
I4
sg17
S'Low'
p1095
sg19
S'Liten tilleggsbelastning'
p1096
sg21
Nsg22
S'400'
p1097
sg24
S'800'
p1098
sg26
S'Noen bratte heng'
p1099
sg28
Nsg29
g1008
sg31
S'4 - Store'
p1100
sba(irunmatrix
M3Element
p1101
(dp1102
g3
Nsg4
S'Lite sannsynlig, Mulig'
p1103
sg6
S'white'
p1104
sg8
(lp1105
sg10
S'Possible'
p1106
sg12
S'Some'
p1107
sg14
g577
sg16
I4
sg17
S'Nat'
p1108
sg19
S'Naturlig utloest'
p1109
sg21
Nsg22
S'400'
p1110
sg24
S'900'
p1111
sg26
S'Noen bratte heng'
p1112
sg28
Nsg29
g1008
sg31
S'4 - Store'
p1113
sba(irunmatrix
M3Element
p1114
(dp1115
g3
Nsg4
S'Sannsynlig, Meget sannsynlig'
p1116
sg6
S'gray'
p1117
sg8
(lp1118
sg10
S'Likely'
p1119
sg12
S'Some'
p1120
sg14
g76
sg16
I0
sg17
S'High'
p1121
sg19
S'Stor tilleggsbelastning'
p1122
sg21
Nsg22
S'400'
p1123
sg24
S'1000'
p1124
sg26
S'Noen bratte heng'
p1125
sg28
Nsg29
g1008
sg31
S'4 - Store'
p1126
sba(irunmatrix
M3Element
p1127
(dp1128
g3
Nsg4
S'Sannsynlig, Meget sannsynlig'
p1129
sg6
S'gray'
p1130
sg8
(lp1131
sg10
S'Likely'
p1132
sg12
S'Some'
p1133
sg14
g76
sg16
I0
sg17
S'Low'
p1134
sg19
S'Liten tilleggsbelastning'
p1135
sg21
Nsg22
S'400'
p1136
sg24
S'1100'
p1137
sg26
S'Noen bratte heng'
p1138
sg28
Nsg29
g1008
sg31
S'4 - Store'
p1139
sba(irunmatrix
M3Element
p1140
(dp1141
g3
Nsg4
S'Sannsynlig, Meget sannsynlig'
p1142
sg6
S'white'
p1143
sg8
(lp1144
sg10
S'Likely'
p1145
sg12
S'Some'
p1146
sg14
g577
sg16
I4
sg17
S'Nat'
p1147
sg19
S'Naturlig utloest'
p1148
sg21
Nsg22
S'400'
p1149
sg24
S'1200'
p1150
sg26
S'Noen bratte heng'
p1151
sg28
Nsg29
g1008
sg31
S'4 - Store'
p1152
sba(irunmatrix
M3Element
p1153
(dp1154
g3
Nsg4
S'Lite sannsynlig, Mulig'
p1155
sg6
S'gray'
p1156
sg8
(lp1157
sg10
S'Possible'
p1158
sg12
S'Many'
p1159
sg14
g76
sg16
I0
sg17
S'High'
p1160
sg19
S'Stor tilleggsbelastning'
p1161
sg21
Nsg22
S'400'
p1162
sg24
S'1300'
p1163
sg26
S'Mange bratte heng'
p1164
sg28
Nsg29
g1008
sg31
S'4 - Store'
p1165
sba(irunmatrix
M3Element
p1166
(dp1167
g3
Nsg4
S'Lite sannsynlig, Mulig'
p1168
sg6
S'white'
p1169
sg8
(lp1170
sg10
S'Possible'
p1171
sg12
S'Many'
p1172
sg14
g76
sg16
I0
sg17
S'Low'
p1173
sg19
S'Liten tilleggsbelastning'
p1174
sg21
Nsg22
S'400'
p1175
sg24
S'1400'
p1176
sg26
S'Mange bratte heng'
p1177
sg28
Nsg29
g1008
sg31
S'4 - Store'
p1178
sba(irunmatrix
M3Element
p1179
(dp1180
g3
Nsg4
S'Lite sannsynlig, Mulig'
p1181
sg6
S'gray'
p1182
sg8
(lp1183
sg10
S'Possible'
p1184
sg12
S'Many'
p1185
sg14
g76
sg16
I0
sg17
S'Nat'
p1186
sg19
S'Naturlig utloest'
p1187
sg21
Nsg22
S'400'
p1188
sg24
S'1500'
p1189
sg26
S'Mange bratte heng'
p1190
sg28
Nsg29
g1008
sg31
S'4 - Store'
p1191
sba(irunmatrix
M3Element
p1192
(dp1193
g3
Nsg4
S'Sannsynlig, Meget sannsynlig'
p1194
sg6
S'gray'
p1195
sg8
(lp1196
sg10
S'Likely'
p1197
sg12
S'Many'
p1198
sg14
g76
sg16
I0
sg17
S'High'
p1199
sg19
S'Stor tilleggsbelastning'
p1200
sg21
Nsg22
S'400'
p1201
sg24
S'1600'
p1202
sg26
S'Mange bratte heng'
p1203
sg28
Nsg29
g1008
sg31
S'4 - Store'
p1204
sba(irunmatrix
M3Element
p1205
(dp1206
g3
Nsg4
S'Sannsynlig, Meget sannsynlig'
p1207
sg6
S'white'
p1208
sg8
(lp1209
sg10
S'Likely'
p1210
sg12
S'Many'
p1211
sg14
g76
sg16
I0
sg17
S'Low'
p1212
sg19
S'Liten tilleggsbelastning'
p1213
sg21
Nsg22
S'400'
p1214
sg24
S'1700'
p1215
sg26
S'Mange bratte heng'
p1216
sg28
Nsg29
g1008
sg31
S'4 - Store'
p1217
sba(irunmatrix
M3Element
p1218
(dp1219
g3
Nsg4
S'Sannsynlig, Meget sannsynlig'
p1220
sg6
S'white'
p1221
sg8
(lp1222
sg10
S'Likely'
p1223
sg12
S'Many'
p1224
sg14
S'k'
p1225
sg16
I5
sg17
S'Nat'
p1226
sg19
S'Naturlig utloest'
p1227
sg21
Nsg22
S'400'
p1228
sg24
S'1800'
p1229
sg26
S'Mange bratte heng'
p1230
sg28
Nsg29
g1008
sg31
S'4 - Store'
p1231
sba(irunmatrix
M3Element
p1232
(dp1233
g3
Nsg4
S'Lite sannsynlig, Mulig'
p1234
sg6
S'gray'
p1235
sg8
(lp1236
sg10
S'Possible'
p1237
sg12
S'Most'
p1238
sg14
g76
sg16
I0
sg17
S'High'
p1239
sg19
S'Stor tilleggsbelastning'
p1240
sg21
Nsg22
S'400'
p1241
sg24
S'1900'
p1242
sg26
S'De fleste bratte heng, Ogsaa i mindre bratt terreng'
p1243
sg28
Nsg29
g1008
sg31
S'4 - Store'
p1244
sba(irunmatrix
M3Element
p1245
(dp1246
g3
Nsg4
S'Lite sannsynlig, Mulig'
p1247
sg6
S'gray'
p1248
sg8
(lp1249
sg10
S'Possible'
p1250
sg12
S'Most'
p1251
sg14
g76
sg16
I0
sg17
S'Low'
p1252
sg19
S'Liten tilleggsbelastning'
p1253
sg21
Nsg22
S'400'
p1254
sg24
S'2000'
p1255
sg26
S'De fleste bratte heng, Ogsaa i mindre bratt terreng'
p1256
sg28
Nsg29
g1008
sg31
S'4 - Store'
p1257
sba(irunmatrix
M3Element
p1258
(dp1259
g3
Nsg4
S'Lite sannsynlig, Mulig'
p1260
sg6
S'gray'
p1261
sg8
(lp1262
sg10
S'Possible'
p1263
sg12
S'Most'
p1264
sg14
g76
sg16
I0
sg17
S'Nat'
p1265
sg19
S'Naturlig utloest'
p1266
sg21
Nsg22
S'400'
p1267
sg24
S'2100'
p1268
sg26
S'De fleste bratte heng, Ogsaa i mindre bratt terreng'
p1269
sg28
Nsg29
g1008
sg31
S'4 - Store'
p1270
sba(irunmatrix
M3Element
p1271
(dp1272
g3
Nsg4
S'Sannsynlig, Meget sannsynlig'
p1273
sg6
S'gray'
p1274
sg8
(lp1275
sg10
S'Likely'
p1276
sg12
S'Most'
p1277
sg14
g76
sg16
I0
sg17
S'High'
p1278
sg19
S'Stor tilleggsbelastning'
p1279
sg21
Nsg22
S'400'
p1280
sg24
S'2200'
p1281
sg26
S'De fleste bratte heng, Ogsaa i mindre bratt terreng'
p1282
sg28
Nsg29
g1008
sg31
S'4 - Store'
p1283
sba(irunmatrix
M3Element
p1284
(dp1285
g3
Nsg4
S'Sannsynlig, Meget sannsynlig'
p1286
sg6
S'gray'
p1287
sg8
(lp1288
sg10
S'Likely'
p1289
sg12
S'Most'
p1290
sg14
g76
sg16
I0
sg17
S'Low'
p1291
sg19
S'Liten tilleggsbelastning'
p1292
sg21
Nsg22
S'400'
p1293
sg24
S'2300'
p1294
sg26
S'De fleste bratte heng, Ogsaa i mindre bratt terreng'
p1295
sg28
Nsg29
g1008
sg31
S'4 - Store'
p1296
sba(irunmatrix
M3Element
p1297
(dp1298
g3
Nsg4
S'Sannsynlig, Meget sannsynlig'
p1299
sg6
S'white'
p1300
sg8
(lp1301
sg10
S'Likely'
p1302
sg12
S'Most'
p1303
sg14
g76
sg16
I0
sg17
S'Nat'
p1304
sg19
S'Naturlig utloest'
p1305
sg21
Nsg22
S'400'
p1306
sg24
S'2400'
p1307
sg26
S'De fleste bratte heng, Ogsaa i mindre bratt terreng'
p1308
sg28
Nsg29
g1008
sg31
S'4 - Store'
p1309
sba(irunmatrix
M3Element
p1310
(dp1311
g3
Nsg4
S'Lite sannsynlig, Mulig'
p1312
sg6
S'white'
p1313
sg8
(lp1314
sg10
S'Possible'
p1315
sg12
S'Isolated'
p1316
sg14
g76
sg16
I0
sg17
S'High'
p1317
sg19
S'Stor tilleggsbelastning'
p1318
sg21
Nsg22
S'500'
p1319
sg24
S'100'
p1320
sg26
S'Isolerte faresoner'
p1321
sg28
Nsg29
S'5'
p1322
sg31
S'5 - Svaert store'
p1323
sba(irunmatrix
M3Element
p1324
(dp1325
g3
Nsg4
S'Lite sannsynlig, Mulig'
p1326
sg6
S'white'
p1327
sg8
(lp1328
sg10
S'Possible'
p1329
sg12
S'Isolated'
p1330
sg14
g76
sg16
I0
sg17
S'Low'
p1331
sg19
S'Liten tilleggsbelastning'
p1332
sg21
Nsg22
S'500'
p1333
sg24
S'200'
p1334
sg26
S'Isolerte faresoner'
p1335
sg28
Nsg29
g1322
sg31
S'5 - Svaert store'
p1336
sba(irunmatrix
M3Element
p1337
(dp1338
g3
Nsg4
S'Lite sannsynlig, Mulig'
p1339
sg6
S'white'
p1340
sg8
(lp1341
sg10
S'Possible'
p1342
sg12
S'Isolated'
p1343
sg14
g76
sg16
I0
sg17
S'Nat'
p1344
sg19
S'Naturlig utloest'
p1345
sg21
Nsg22
S'500'
p1346
sg24
S'300'
p1347
sg26
S'Isolerte faresoner'
p1348
sg28
Nsg29
g1322
sg31
S'5 - Svaert store'
p1349
sba(irunmatrix
M3Element
p1350
(dp1351
g3
Nsg4
S'Sannsynlig, Meget sannsynlig'
p1352
sg6
S'gray'
p1353
sg8
(lp1354
sg10
S'Likely'
p1355
sg12
S'Isolated'
p1356
sg14
g76
sg16
I0
sg17
S'High'
p1357
sg19
S'Stor tilleggsbelastning'
p1358
sg21
Nsg22
S'500'
p1359
sg24
S'400'
p1360
sg26
S'Isolerte faresoner'
p1361
sg28
Nsg29
g1322
sg31
S'5 - Svaert store'
p1362
sba(irunmatrix
M3Element
p1363
(dp1364
g3
Nsg4
S'Sannsynlig, Meget sannsynlig'
p1365
sg6
S'gray'
p1366
sg8
(lp1367
sg10
S'Likely'
p1368
sg12
S'Isolated'
p1369
sg14
g76
sg16
I0
sg17
S'Low'
p1370
sg19
S'Liten tilleggsbelastning'
p1371
sg21
Nsg22
S'500'
p1372
sg24
S'500'
p1373
sg26
S'Isolerte faresoner'
p1374
sg28
Nsg29
g1322
sg31
S'5 - Svaert store'
p1375
sba(irunmatrix
M3Element
p1376
(dp1377
g3
Nsg4
S'Sannsynlig, Meget sannsynlig'
p1378
sg6
S'gray'
p1379
sg8
(lp1380
sg10
S'Likely'
p1381
sg12
S'Isolated'
p1382
sg14
g76
sg16
I0
sg17
S'Nat'
p1383
sg19
S'Naturlig utloest'
p1384
sg21
Nsg22
S'500'
p1385
sg24
S'600'
p1386
sg26
S'Isolerte faresoner'
p1387
sg28
Nsg29
g1322
sg31
S'5 - Svaert store'
p1388
sba(irunmatrix
M3Element
p1389
(dp1390
g3
Nsg4
S'Lite sannsynlig, Mulig'
p1391
sg6
S'white'
p1392
sg8
(lp1393
sg10
S'Possible'
p1394
sg12
S'Some'
p1395
sg14
g76
sg16
I0
sg17
S'High'
p1396
sg19
S'Stor tilleggsbelastning'
p1397
sg21
Nsg22
S'500'
p1398
sg24
S'700'
p1399
sg26
S'Noen bratte heng'
p1400
sg28
Nsg29
g1322
sg31
S'5 - Svaert store'
p1401
sba(irunmatrix
M3Element
p1402
(dp1403
g3
Nsg4
S'Lite sannsynlig, Mulig'
p1404
sg6
S'white'
p1405
sg8
(lp1406
sg10
S'Possible'
p1407
sg12
S'Some'
p1408
sg14
g76
sg16
I0
sg17
S'Low'
p1409
sg19
S'Liten tilleggsbelastning'
p1410
sg21
Nsg22
S'500'
p1411
sg24
S'800'
p1412
sg26
S'Noen bratte heng'
p1413
sg28
Nsg29
g1322
sg31
S'5 - Svaert store'
p1414
sba(irunmatrix
M3Element
p1415
(dp1416
g3
Nsg4
S'Lite sannsynlig, Mulig'
p1417
sg6
S'white'
p1418
sg8
(lp1419
sg10
S'Possible'
p1420
sg12
S'Some'
p1421
sg14
g76
sg16
I0
sg17
S'Nat'
p1422
sg19
S'Naturlig utloest'
p1423
sg21
Nsg22
S'500'
p1424
sg24
S'900'
p1425
sg26
S'Noen bratte heng'
p1426
sg28
Nsg29
g1322
sg31
S'5 - Svaert store'
p1427
sba(irunmatrix
M3Element
p1428
(dp1429
g3
Nsg4
S'Sannsynlig, Meget sannsynlig'
p1430
sg6
S'gray'
p1431
sg8
(lp1432
sg10
S'Likely'
p1433
sg12
S'Some'
p1434
sg14
g76
sg16
I0
sg17
S'High'
p1435
sg19
S'Stor tilleggsbelastning'
p1436
sg21
Nsg22
S'500'
p1437
sg24
S'1000'
p1438
sg26
S'Noen bratte heng'
p1439
sg28
Nsg29
g1322
sg31
S'5 - Svaert store'
p1440
sba(irunmatrix
M3Element
p1441
(dp1442
g3
Nsg4
S'Sannsynlig, Meget sannsynlig'
p1443
sg6
S'gray'
p1444
sg8
(lp1445
sg10
S'Likely'
p1446
sg12
S'Some'
p1447
sg14
g76
sg16
I0
sg17
S'Low'
p1448
sg19
S'Liten tilleggsbelastning'
p1449
sg21
Nsg22
S'500'
p1450
sg24
S'1100'
p1451
sg26
S'Noen bratte heng'
p1452
sg28
Nsg29
g1322
sg31
S'5 - Svaert store'
p1453
sba(irunmatrix
M3Element
p1454
(dp1455
g3
Nsg4
S'Sannsynlig, Meget sannsynlig'
p1456
sg6
S'white'
p1457
sg8
(lp1458
sg10
S'Likely'
p1459
sg12
S'Some'
p1460
sg14
g76
sg16
I0
sg17
S'Nat'
p1461
sg19
S'Naturlig utloest'
p1462
sg21
Nsg22
S'500'
p1463
sg24
S'1200'
p1464
sg26
S'Noen bratte heng'
p1465
sg28
Nsg29
g1322
sg31
S'5 - Svaert store'
p1466
sba(irunmatrix
M3Element
p1467
(dp1468
g3
Nsg4
S'Lite sannsynlig, Mulig'
p1469
sg6
S'gray'
p1470
sg8
(lp1471
sg10
S'Possible'
p1472
sg12
S'Many'
p1473
sg14
g76
sg16
I0
sg17
S'High'
p1474
sg19
S'Stor tilleggsbelastning'
p1475
sg21
Nsg22
S'500'
p1476
sg24
S'1300'
p1477
sg26
S'Mange bratte heng'
p1478
sg28
Nsg29
g1322
sg31
S'5 - Svaert store'
p1479
sba(irunmatrix
M3Element
p1480
(dp1481
g3
Nsg4
S'Lite sannsynlig, Mulig'
p1482
sg6
S'white'
p1483
sg8
(lp1484
sg10
S'Possible'
p1485
sg12
S'Many'
p1486
sg14
g76
sg16
I0
sg17
S'Low'
p1487
sg19
S'Liten tilleggsbelastning'
p1488
sg21
Nsg22
S'500'
p1489
sg24
S'1400'
p1490
sg26
S'Mange bratte heng'
p1491
sg28
Nsg29
g1322
sg31
S'5 - Svaert store'
p1492
sba(irunmatrix
M3Element
p1493
(dp1494
g3
Nsg4
S'Lite sannsynlig, Mulig'
p1495
sg6
S'gray'
p1496
sg8
(lp1497
sg10
S'Possible'
p1498
sg12
S'Many'
p1499
sg14
g76
sg16
I0
sg17
S'Nat'
p1500
sg19
S'Naturlig utloest'
p1501
sg21
Nsg22
S'500'
p1502
sg24
S'1500'
p1503
sg26
S'Mange bratte heng'
p1504
sg28
Nsg29
g1322
sg31
S'5 - Svaert store'
p1505
sba(irunmatrix
M3Element
p1506
(dp1507
g3
Nsg4
S'Sannsynlig, Meget sannsynlig'
p1508
sg6
S'gray'
p1509
sg8
(lp1510
sg10
S'Likely'
p1511
sg12
S'Many'
p1512
sg14
g76
sg16
I0
sg17
S'High'
p1513
sg19
S'Stor tilleggsbelastning'
p1514
sg21
Nsg22
S'500'
p1515
sg24
S'1600'
p1516
sg26
S'Mange bratte heng'
p1517
sg28
Nsg29
g1322
sg31
S'5 - Svaert store'
p1518
sba(irunmatrix
M3Element
p1519
(dp1520
g3
Nsg4
S'Sannsynlig, Meget sannsynlig'
p1521
sg6
S'white'
p1522
sg8
(lp1523
sg10
S'Likely'
p1524
sg12
S'Many'
p1525
sg14
g76
sg16
I0
sg17
S'Low'
p1526
sg19
S'Liten tilleggsbelastning'
p1527
sg21
Nsg22
S'500'
p1528
sg24
S'1700'
p1529
sg26
S'Mange bratte heng'
p1530
sg28
Nsg29
g1322
sg31
S'5 - Svaert store'
p1531
sba(irunmatrix
M3Element
p1532
(dp1533
g3
Nsg4
S'Sannsynlig, Meget sannsynlig'
p1534
sg6
S'white'
p1535
sg8
(lp1536
sg10
S'Likely'
p1537
sg12
S'Many'
p1538
sg14
g1225
sg16
I5
sg17
S'Nat'
p1539
sg19
S'Naturlig utloest'
p1540
sg21
Nsg22
S'500'
p1541
sg24
S'1800'
p1542
sg26
S'Mange bratte heng'
p1543
sg28
Nsg29
g1322
sg31
S'5 - Svaert store'
p1544
sba(irunmatrix
M3Element
p1545
(dp1546
g3
Nsg4
S'Lite sannsynlig, Mulig'
p1547
sg6
S'gray'
p1548
sg8
(lp1549
sg10
S'Possible'
p1550
sg12
S'Most'
p1551
sg14
g76
sg16
I0
sg17
S'High'
p1552
sg19
S'Stor tilleggsbelastning'
p1553
sg21
Nsg22
S'500'
p1554
sg24
S'1900'
p1555
sg26
S'De fleste bratte heng, Ogsaa i mindre bratt terreng'
p1556
sg28
Nsg29
g1322
sg31
S'5 - Svaert store'
p1557
sba(irunmatrix
M3Element
p1558
(dp1559
g3
Nsg4
S'Lite sannsynlig, Mulig'
p1560
sg6
S'gray'
p1561
sg8
(lp1562
sg10
S'Possible'
p1563
sg12
S'Most'
p1564
sg14
g76
sg16
I0
sg17
S'Low'
p1565
sg19
S'Liten tilleggsbelastning'
p1566
sg21
Nsg22
S'500'
p1567
sg24
S'2000'
p1568
sg26
S'De fleste bratte heng, Ogsaa i mindre bratt terreng'
p1569
sg28
Nsg29
g1322
sg31
S'5 - Svaert store'
p1570
sba(irunmatrix
M3Element
p1571
(dp1572
g3
Nsg4
S'Lite sannsynlig, Mulig'
p1573
sg6
S'gray'
p1574
sg8
(lp1575
sg10
S'Possible'
p1576
sg12
S'Most'
p1577
sg14
g76
sg16
I0
sg17
S'Nat'
p1578
sg19
S'Naturlig utloest'
p1579
sg21
Nsg22
S'500'
p1580
sg24
S'2100'
p1581
sg26
S'De fleste bratte heng, Ogsaa i mindre bratt terreng'
p1582
sg28
Nsg29
g1322
sg31
S'5 - Svaert store'
p1583
sba(irunmatrix
M3Element
p1584
(dp1585
g3
Nsg4
S'Sannsynlig, Meget sannsynlig'
p1586
sg6
S'gray'
p1587
sg8
(lp1588
sg10
S'Likely'
p1589
sg12
S'Most'
p1590
sg14
g76
sg16
I0
sg17
S'High'
p1591
sg19
S'Stor tilleggsbelastning'
p1592
sg21
Nsg22
S'500'
p1593
sg24
S'2200'
p1594
sg26
S'De fleste bratte heng, Ogsaa i mindre bratt terreng'
p1595
sg28
Nsg29
g1322
sg31
S'5 - Svaert store'
p1596
sba(irunmatrix
M3Element
p1597
(dp1598
g3
Nsg4
S'Sannsynlig, Meget sannsynlig'
p1599
sg6
S'gray'
p1600
sg8
(lp1601
sg10
S'Likely'
p1602
sg12
S'Most'
p1603
sg14
g76
sg16
I0
sg17
S'Low'
p1604
sg19
S'Liten tilleggsbelastning'
p1605
sg21
Nsg22
S'500'
p1606
sg24
S'2300'
p1607
sg26
S'De fleste bratte heng, Ogsaa i mindre bratt terreng'
p1608
sg28
Nsg29
g1322
sg31
S'5 - Svaert store'
p1609
sba(irunmatrix
M3Element
p1610
(dp1611
g3
Nsg4
S'Sannsynlig, Meget sannsynlig'
p1612
sg6
S'white'
p1613
sg8
(lp1614
sg10
S'Likely'
p1615
sg12
S'Most'
p1616
sg14
g76
sg16
I0
sg17
S'Nat'
p1617
sg19
S'Naturlig utloest'
p1618
sg21
Nsg22
S'500'
p1619
sg24
S'2400'
p1620
sg26
S'De fleste bratte heng, Ogsaa i mindre bratt terreng'
p1621
sg28
Nsg29
g1322
sg31
S'5 - Svaert store'
p1622
sba.