(dp0
S'trigger'
p1
(dp2
S'keys'
p3
(lp4
S'Stor tilleggsbelastning'
p5
aS'Liten tilleggsbelastning'
p6
aS'Naturlig utloest'
p7
asS'colors'
p8
(lp9
S'0.7'
p10
asS'values'
p11
(lp12
S'Stor tilleggsbelastning'
p13
aS'Liten tilleggsbelastning'
p14
aS'Liten tilleggsbelastning'
p15
aS'Liten tilleggsbelastning'
p16
aS'Liten tilleggsbelastning'
p17
aS'Liten tilleggsbelastning'
p18
aS'Liten tilleggsbelastning'
p19
aS'Liten tilleggsbelastning'
p20
aS'Liten tilleggsbelastning'
p21
aS'Stor tilleggsbelastning'
p22
aS'Stor tilleggsbelastning'
p23
aS'Liten tilleggsbelastning'
p24
aS'Stor tilleggsbelastning'
p25
aS'Liten tilleggsbelastning'
p26
aS'Stor tilleggsbelastning'
p27
aS'Stor tilleggsbelastning'
p28
aS'Liten tilleggsbelastning'
p29
aS'Liten tilleggsbelastning'
p30
aS'Stor tilleggsbelastning'
p31
aS'Liten tilleggsbelastning'
p32
aS'Stor tilleggsbelastning'
p33
aS'Stor tilleggsbelastning'
p34
aS'Stor tilleggsbelastning'
p35
aS'Liten tilleggsbelastning'
p36
aS'Stor tilleggsbelastning'
p37
aS'Liten tilleggsbelastning'
p38
aS'Stor tilleggsbelastning'
p39
aS'Liten tilleggsbelastning'
p40
aS'Liten tilleggsbelastning'
p41
aS'Liten tilleggsbelastning'
p42
aS'Stor tilleggsbelastning'
p43
aS'Liten tilleggsbelastning'
p44
aS'Liten tilleggsbelastning'
p45
aS'Naturlig utloest'
p46
aS'Naturlig utloest'
p47
aS'Liten tilleggsbelastning'
p48
aS'Liten tilleggsbelastning'
p49
aS'Liten tilleggsbelastning'
p50
aS'Stor tilleggsbelastning'
p51
aS'Liten tilleggsbelastning'
p52
aS'Liten tilleggsbelastning'
p53
aS'Stor tilleggsbelastning'
p54
aS'Stor tilleggsbelastning'
p55
aS'Liten tilleggsbelastning'
p56
aS'Liten tilleggsbelastning'
p57
aS'Liten tilleggsbelastning'
p58
aS'Liten tilleggsbelastning'
p59
aS'Stor tilleggsbelastning'
p60
aS'Liten tilleggsbelastning'
p61
aS'Liten tilleggsbelastning'
p62
aS'Liten tilleggsbelastning'
p63
aS'Liten tilleggsbelastning'
p64
aS'Liten tilleggsbelastning'
p65
aS'Stor tilleggsbelastning'
p66
aS'Liten tilleggsbelastning'
p67
aS'Liten tilleggsbelastning'
p68
aS'Liten tilleggsbelastning'
p69
aS'Liten tilleggsbelastning'
p70
aS'Liten tilleggsbelastning'
p71
aS'Liten tilleggsbelastning'
p72
aS'Liten tilleggsbelastning'
p73
aS'Liten tilleggsbelastning'
p74
aS'Liten tilleggsbelastning'
p75
aS'Liten tilleggsbelastning'
p76
aS'Liten tilleggsbelastning'
p77
aS'Liten tilleggsbelastning'
p78
aS'Liten tilleggsbelastning'
p79
aS'Liten tilleggsbelastning'
p80
aS'Liten tilleggsbelastning'
p81
aS'Liten tilleggsbelastning'
p82
aS'Liten tilleggsbelastning'
p83
aS'Liten tilleggsbelastning'
p84
aS'Liten tilleggsbelastning'
p85
aS'Liten tilleggsbelastning'
p86
aS'Liten tilleggsbelastning'
p87
aS'Liten tilleggsbelastning'
p88
aS'Liten tilleggsbelastning'
p89
aS'Liten tilleggsbelastning'
p90
aS'Liten tilleggsbelastning'
p91
aS'Liten tilleggsbelastning'
p92
aS'Liten tilleggsbelastning'
p93
aS'Liten tilleggsbelastning'
p94
aS'Liten tilleggsbelastning'
p95
aS'Liten tilleggsbelastning'
p96
aS'Liten tilleggsbelastning'
p97
aS'Liten tilleggsbelastning'
p98
aS'Liten tilleggsbelastning'
p99
aS'Liten tilleggsbelastning'
p100
aS'Liten tilleggsbelastning'
p101
aS'Liten tilleggsbelastning'
p102
aS'Liten tilleggsbelastning'
p103
aS'Liten tilleggsbelastning'
p104
aS'Liten tilleggsbelastning'
p105
aS'Liten tilleggsbelastning'
p106
aS'Liten tilleggsbelastning'
p107
aS'Liten tilleggsbelastning'
p108
aS'Liten tilleggsbelastning'
p109
aS'Liten tilleggsbelastning'
p110
aS'Liten tilleggsbelastning'
p111
aS'Liten tilleggsbelastning'
p112
aS'Liten tilleggsbelastning'
p113
aS'Liten tilleggsbelastning'
p114
aS'Liten tilleggsbelastning'
p115
aS'Liten tilleggsbelastning'
p116
aS'Liten tilleggsbelastning'
p117
aS'Liten tilleggsbelastning'
p118
aS'Liten tilleggsbelastning'
p119
aS'Liten tilleggsbelastning'
p120
aS'Liten tilleggsbelastning'
p121
aS'Liten tilleggsbelastning'
p122
aS'Liten tilleggsbelastning'
p123
aS'Liten tilleggsbelastning'
p124
aS'Liten tilleggsbelastning'
p125
aS'Liten tilleggsbelastning'
p126
aS'Liten tilleggsbelastning'
p127
aS'Liten tilleggsbelastning'
p128
aS'Liten tilleggsbelastning'
p129
aS'Liten tilleggsbelastning'
p130
aS'Liten tilleggsbelastning'
p131
aS'Liten tilleggsbelastning'
p132
aS'Naturlig utloest'
p133
aS'Naturlig utloest'
p134
aS'Liten tilleggsbelastning'
p135
aS'Liten tilleggsbelastning'
p136
aS'Liten tilleggsbelastning'
p137
aS'Naturlig utloest'
p138
aS'Liten tilleggsbelastning'
p139
aS'Naturlig utloest'
p140
aS'Naturlig utloest'
p141
aS'Liten tilleggsbelastning'
p142
aS'Liten tilleggsbelastning'
p143
aS'Liten tilleggsbelastning'
p144
aS'Liten tilleggsbelastning'
p145
aS'Liten tilleggsbelastning'
p146
aS'Naturlig utloest'
p147
aS'Naturlig utloest'
p148
aS'Liten tilleggsbelastning'
p149
aS'Liten tilleggsbelastning'
p150
aS'Liten tilleggsbelastning'
p151
aS'Liten tilleggsbelastning'
p152
aS'Liten tilleggsbelastning'
p153
aS'Naturlig utloest'
p154
aS'Naturlig utloest'
p155
aS'Liten tilleggsbelastning'
p156
aS'Liten tilleggsbelastning'
p157
aS'Liten tilleggsbelastning'
p158
aS'Liten tilleggsbelastning'
p159
aS'Liten tilleggsbelastning'
p160
aS'Liten tilleggsbelastning'
p161
aS'Liten tilleggsbelastning'
p162
aS'Liten tilleggsbelastning'
p163
aS'Liten tilleggsbelastning'
p164
aS'Liten tilleggsbelastning'
p165
aS'Liten tilleggsbelastning'
p166
aS'Liten tilleggsbelastning'
p167
assS'distribution'
p168
(dp169
g3
(lp170
S'Isolerte faresoner'
p171
aS'Noen bratte heng'
p172
aS'Mange bratte heng'
p173
aS'De fleste bratte heng'
p174
aS'Ogsaa i mindre bratt terreng'
p175
asg8
(lp176
g10
asg11
(lp177
S'Noen bratte heng'
p178
aS'Noen bratte heng'
p179
aS'Noen bratte heng'
p180
aS'Noen bratte heng'
p181
aS'Noen bratte heng'
p182
aS'Noen bratte heng'
p183
aS'Noen bratte heng'
p184
aS'Noen bratte heng'
p185
aS'Noen bratte heng'
p186
aS'Noen bratte heng'
p187
aS'Noen bratte heng'
p188
aS'Noen bratte heng'
p189
aS'Noen bratte heng'
p190
aS'Noen bratte heng'
p191
aS'Noen bratte heng'
p192
aS'Noen bratte heng'
p193
aS'Noen bratte heng'
p194
aS'Noen bratte heng'
p195
aS'Noen bratte heng'
p196
aS'Noen bratte heng'
p197
aS'Noen bratte heng'
p198
aS'Noen bratte heng'
p199
aS'Noen bratte heng'
p200
aS'Noen bratte heng'
p201
aS'Noen bratte heng'
p202
aS'Noen bratte heng'
p203
aS'Noen bratte heng'
p204
aS'Noen bratte heng'
p205
aS'Noen bratte heng'
p206
aS'Noen bratte heng'
p207
aS'Noen bratte heng'
p208
aS'Noen bratte heng'
p209
aS'Noen bratte heng'
p210
aS'Noen bratte heng'
p211
aS'Noen bratte heng'
p212
aS'Noen bratte heng'
p213
aS'Noen bratte heng'
p214
aS'Noen bratte heng'
p215
aS'Noen bratte heng'
p216
aS'Isolerte faresoner'
p217
aS'Isolerte faresoner'
p218
aS'Noen bratte heng'
p219
aS'Noen bratte heng'
p220
aS'Noen bratte heng'
p221
aS'Noen bratte heng'
p222
aS'Noen bratte heng'
p223
aS'Noen bratte heng'
p224
aS'Noen bratte heng'
p225
aS'Noen bratte heng'
p226
aS'Noen bratte heng'
p227
aS'Noen bratte heng'
p228
aS'Noen bratte heng'
p229
aS'Noen bratte heng'
p230
aS'Noen bratte heng'
p231
aS'Noen bratte heng'
p232
aS'Noen bratte heng'
p233
aS'Noen bratte heng'
p234
aS'Noen bratte heng'
p235
aS'Noen bratte heng'
p236
aS'Noen bratte heng'
p237
aS'Noen bratte heng'
p238
aS'Noen bratte heng'
p239
aS'Noen bratte heng'
p240
aS'Noen bratte heng'
p241
aS'Noen bratte heng'
p242
aS'Noen bratte heng'
p243
aS'Noen bratte heng'
p244
aS'Noen bratte heng'
p245
aS'Noen bratte heng'
p246
aS'Noen bratte heng'
p247
aS'Noen bratte heng'
p248
aS'Noen bratte heng'
p249
aS'Noen bratte heng'
p250
aS'Noen bratte heng'
p251
aS'Noen bratte heng'
p252
aS'Noen bratte heng'
p253
aS'Noen bratte heng'
p254
aS'Noen bratte heng'
p255
aS'Noen bratte heng'
p256
aS'Noen bratte heng'
p257
aS'Noen bratte heng'
p258
aS'Noen bratte heng'
p259
aS'Noen bratte heng'
p260
aS'Noen bratte heng'
p261
aS'Noen bratte heng'
p262
aS'Mange bratte heng'
p263
aS'Mange bratte heng'
p264
aS'Noen bratte heng'
p265
aS'Noen bratte heng'
p266
aS'Noen bratte heng'
p267
aS'Mange bratte heng'
p268
aS'Noen bratte heng'
p269
aS'Noen bratte heng'
p270
aS'Noen bratte heng'
p271
aS'Noen bratte heng'
p272
aS'Noen bratte heng'
p273
aS'Noen bratte heng'
p274
aS'Noen bratte heng'
p275
aS'Noen bratte heng'
p276
aS'Noen bratte heng'
p277
aS'Noen bratte heng'
p278
aS'Noen bratte heng'
p279
aS'Noen bratte heng'
p280
aS'Noen bratte heng'
p281
aS'Noen bratte heng'
p282
aS'Noen bratte heng'
p283
aS'Noen bratte heng'
p284
aS'Noen bratte heng'
p285
aS'Noen bratte heng'
p286
aS'Noen bratte heng'
p287
aS'Noen bratte heng'
p288
aS'Noen bratte heng'
p289
aS'Noen bratte heng'
p290
aS'Noen bratte heng'
p291
aS'Noen bratte heng'
p292
aS'Noen bratte heng'
p293
aS'Noen bratte heng'
p294
aS'Noen bratte heng'
p295
aS'Noen bratte heng'
p296
aS'Noen bratte heng'
p297
aS'Noen bratte heng'
p298
aS'Noen bratte heng'
p299
aS'Noen bratte heng'
p300
aS'Noen bratte heng'
p301
aS'Noen bratte heng'
p302
aS'Noen bratte heng'
p303
aS'Isolerte faresoner'
p304
aS'Noen bratte heng'
p305
aS'Noen bratte heng'
p306
aS'Isolerte faresoner'
p307
aS'Isolerte faresoner'
p308
aS'Isolerte faresoner'
p309
aS'Isolerte faresoner'
p310
aS'Isolerte faresoner'
p311
aS'Noen bratte heng'
p312
aS'Noen bratte heng'
p313
aS'Isolerte faresoner'
p314
aS'Isolerte faresoner'
p315
aS'Isolerte faresoner'
p316
aS'Isolerte faresoner'
p317
aS'Isolerte faresoner'
p318
aS'Noen bratte heng'
p319
aS'Noen bratte heng'
p320
aS'Noen bratte heng'
p321
aS'Noen bratte heng'
p322
aS'Noen bratte heng'
p323
aS'Noen bratte heng'
p324
aS'Noen bratte heng'
p325
aS'Noen bratte heng'
p326
aS'Noen bratte heng'
p327
aS'Noen bratte heng'
p328
aS'Noen bratte heng'
p329
aS'Noen bratte heng'
p330
aS'Noen bratte heng'
p331
aS'Noen bratte heng'
p332
assS'size'
p333
(dp334
g3
(lp335
S'1 - Harmloest'
p336
aS'2 - Smaa'
p337
aS'3 - Middels'
p338
aS'4 - Store'
p339
aS'5 - Svaert store'
p340
aS'Ukjent'
p341
asg8
(lp342
g10
asg11
(lp343
S'2 - Smaa'
p344
aS'2 - Smaa'
p345
aS'2 - Smaa'
p346
aS'2 - Smaa'
p347
aS'2 - Smaa'
p348
aS'2 - Smaa'
p349
aS'2 - Smaa'
p350
aS'2 - Smaa'
p351
aS'2 - Smaa'
p352
aS'2 - Smaa'
p353
aS'2 - Smaa'
p354
aS'2 - Smaa'
p355
aS'2 - Smaa'
p356
aS'2 - Smaa'
p357
aS'2 - Smaa'
p358
aS'2 - Smaa'
p359
aS'2 - Smaa'
p360
aS'2 - Smaa'
p361
aS'2 - Smaa'
p362
aS'2 - Smaa'
p363
aS'2 - Smaa'
p364
aS'2 - Smaa'
p365
aS'2 - Smaa'
p366
aS'2 - Smaa'
p367
aS'2 - Smaa'
p368
aS'2 - Smaa'
p369
aS'2 - Smaa'
p370
aS'2 - Smaa'
p371
aS'2 - Smaa'
p372
aS'2 - Smaa'
p373
aS'2 - Smaa'
p374
aS'2 - Smaa'
p375
aS'2 - Smaa'
p376
aS'2 - Smaa'
p377
aS'3 - Middels'
p378
aS'2 - Smaa'
p379
aS'2 - Smaa'
p380
aS'2 - Smaa'
p381
aS'2 - Smaa'
p382
aS'2 - Smaa'
p383
aS'2 - Smaa'
p384
aS'2 - Smaa'
p385
aS'2 - Smaa'
p386
aS'2 - Smaa'
p387
aS'2 - Smaa'
p388
aS'2 - Smaa'
p389
aS'2 - Smaa'
p390
aS'2 - Smaa'
p391
aS'2 - Smaa'
p392
aS'2 - Smaa'
p393
aS'2 - Smaa'
p394
aS'2 - Smaa'
p395
aS'2 - Smaa'
p396
aS'2 - Smaa'
p397
aS'2 - Smaa'
p398
aS'2 - Smaa'
p399
aS'2 - Smaa'
p400
aS'2 - Smaa'
p401
aS'2 - Smaa'
p402
aS'2 - Smaa'
p403
aS'2 - Smaa'
p404
aS'2 - Smaa'
p405
aS'2 - Smaa'
p406
aS'2 - Smaa'
p407
aS'2 - Smaa'
p408
aS'2 - Smaa'
p409
aS'2 - Smaa'
p410
aS'3 - Middels'
p411
aS'3 - Middels'
p412
aS'3 - Middels'
p413
aS'3 - Middels'
p414
aS'3 - Middels'
p415
aS'3 - Middels'
p416
aS'3 - Middels'
p417
aS'3 - Middels'
p418
aS'3 - Middels'
p419
aS'3 - Middels'
p420
aS'3 - Middels'
p421
aS'3 - Middels'
p422
aS'3 - Middels'
p423
aS'3 - Middels'
p424
aS'3 - Middels'
p425
aS'3 - Middels'
p426
aS'3 - Middels'
p427
aS'3 - Middels'
p428
aS'2 - Smaa'
p429
aS'2 - Smaa'
p430
aS'2 - Smaa'
p431
aS'2 - Smaa'
p432
aS'2 - Smaa'
p433
aS'2 - Smaa'
p434
aS'2 - Smaa'
p435
aS'2 - Smaa'
p436
aS'2 - Smaa'
p437
aS'2 - Smaa'
p438
aS'2 - Smaa'
p439
aS'2 - Smaa'
p440
aS'2 - Smaa'
p441
aS'2 - Smaa'
p442
aS'2 - Smaa'
p443
aS'2 - Smaa'
p444
aS'2 - Smaa'
p445
aS'2 - Smaa'
p446
aS'2 - Smaa'
p447
aS'2 - Smaa'
p448
aS'2 - Smaa'
p449
aS'2 - Smaa'
p450
aS'2 - Smaa'
p451
aS'2 - Smaa'
p452
aS'2 - Smaa'
p453
aS'2 - Smaa'
p454
aS'2 - Smaa'
p455
aS'2 - Smaa'
p456
aS'2 - Smaa'
p457
aS'2 - Smaa'
p458
aS'2 - Smaa'
p459
aS'2 - Smaa'
p460
aS'2 - Smaa'
p461
aS'2 - Smaa'
p462
aS'2 - Smaa'
p463
aS'1 - Harmloest'
p464
aS'1 - Harmloest'
p465
aS'1 - Harmloest'
p466
aS'1 - Harmloest'
p467
aS'1 - Harmloest'
p468
aS'1 - Harmloest'
p469
aS'2 - Smaa'
p470
aS'1 - Harmloest'
p471
aS'1 - Harmloest'
p472
aS'2 - Smaa'
p473
aS'2 - Smaa'
p474
aS'2 - Smaa'
p475
aS'2 - Smaa'
p476
aS'2 - Smaa'
p477
aS'1 - Harmloest'
p478
aS'1 - Harmloest'
p479
aS'2 - Smaa'
p480
aS'2 - Smaa'
p481
aS'2 - Smaa'
p482
aS'2 - Smaa'
p483
aS'2 - Smaa'
p484
aS'1 - Harmloest'
p485
aS'1 - Harmloest'
p486
aS'2 - Smaa'
p487
aS'2 - Smaa'
p488
aS'2 - Smaa'
p489
aS'2 - Smaa'
p490
aS'2 - Smaa'
p491
aS'2 - Smaa'
p492
aS'2 - Smaa'
p493
aS'2 - Smaa'
p494
aS'2 - Smaa'
p495
aS'2 - Smaa'
p496
aS'2 - Smaa'
p497
aS'2 - Smaa'
p498
assS'probability'
p499
(dp500
g3
(lp501
S'Lite sannsynlig'
p502
aS'Mulig'
p503
aS'Sannsynlig'
p504
aS'Meget sannsynlig'
p505
asg8
(lp506
g10
asg11
(lp507
S'Mulig'
p508
aS'Mulig'
p509
aS'Mulig'
p510
aS'Mulig'
p511
aS'Mulig'
p512
aS'Mulig'
p513
aS'Mulig'
p514
aS'Mulig'
p515
aS'Mulig'
p516
aS'Mulig'
p517
aS'Mulig'
p518
aS'Mulig'
p519
aS'Mulig'
p520
aS'Mulig'
p521
aS'Mulig'
p522
aS'Mulig'
p523
aS'Mulig'
p524
aS'Mulig'
p525
aS'Mulig'
p526
aS'Mulig'
p527
aS'Mulig'
p528
aS'Mulig'
p529
aS'Mulig'
p530
aS'Mulig'
p531
aS'Mulig'
p532
aS'Mulig'
p533
aS'Mulig'
p534
aS'Mulig'
p535
aS'Mulig'
p536
aS'Mulig'
p537
aS'Mulig'
p538
aS'Mulig'
p539
aS'Mulig'
p540
aS'Mulig'
p541
aS'Mulig'
p542
aS'Mulig'
p543
aS'Mulig'
p544
aS'Mulig'
p545
aS'Mulig'
p546
aS'Mulig'
p547
aS'Mulig'
p548
aS'Mulig'
p549
aS'Mulig'
p550
aS'Mulig'
p551
aS'Mulig'
p552
aS'Mulig'
p553
aS'Mulig'
p554
aS'Mulig'
p555
aS'Mulig'
p556
aS'Mulig'
p557
aS'Mulig'
p558
aS'Mulig'
p559
aS'Mulig'
p560
aS'Mulig'
p561
aS'Mulig'
p562
aS'Mulig'
p563
aS'Mulig'
p564
aS'Mulig'
p565
aS'Mulig'
p566
aS'Mulig'
p567
aS'Mulig'
p568
aS'Mulig'
p569
aS'Mulig'
p570
aS'Mulig'
p571
aS'Mulig'
p572
aS'Mulig'
p573
aS'Mulig'
p574
aS'Mulig'
p575
aS'Mulig'
p576
aS'Mulig'
p577
aS'Mulig'
p578
aS'Mulig'
p579
aS'Mulig'
p580
aS'Mulig'
p581
aS'Mulig'
p582
aS'Mulig'
p583
aS'Mulig'
p584
aS'Mulig'
p585
aS'Mulig'
p586
aS'Mulig'
p587
aS'Mulig'
p588
aS'Mulig'
p589
aS'Mulig'
p590
aS'Mulig'
p591
aS'Mulig'
p592
aS'Mulig'
p593
aS'Mulig'
p594
aS'Mulig'
p595
aS'Mulig'
p596
aS'Mulig'
p597
aS'Mulig'
p598
aS'Mulig'
p599
aS'Mulig'
p600
aS'Mulig'
p601
aS'Mulig'
p602
aS'Mulig'
p603
aS'Mulig'
p604
aS'Mulig'
p605
aS'Mulig'
p606
aS'Mulig'
p607
aS'Mulig'
p608
aS'Mulig'
p609
aS'Mulig'
p610
aS'Mulig'
p611
aS'Mulig'
p612
aS'Mulig'
p613
aS'Mulig'
p614
aS'Mulig'
p615
aS'Mulig'
p616
aS'Mulig'
p617
aS'Mulig'
p618
aS'Mulig'
p619
aS'Mulig'
p620
aS'Mulig'
p621
aS'Mulig'
p622
aS'Mulig'
p623
aS'Mulig'
p624
aS'Mulig'
p625
aS'Mulig'
p626
aS'Mulig'
p627
aS'Mulig'
p628
aS'Mulig'
p629
aS'Mulig'
p630
aS'Mulig'
p631
aS'Mulig'
p632
aS'Mulig'
p633
aS'Mulig'
p634
aS'Mulig'
p635
aS'Mulig'
p636
aS'Mulig'
p637
aS'Mulig'
p638
aS'Mulig'
p639
aS'Mulig'
p640
aS'Mulig'
p641
aS'Mulig'
p642
aS'Mulig'
p643
aS'Mulig'
p644
aS'Mulig'
p645
aS'Mulig'
p646
aS'Mulig'
p647
aS'Mulig'
p648
aS'Mulig'
p649
aS'Mulig'
p650
aS'Mulig'
p651
aS'Mulig'
p652
aS'Mulig'
p653
aS'Mulig'
p654
aS'Mulig'
p655
aS'Mulig'
p656
aS'Mulig'
p657
aS'Mulig'
p658
aS'Mulig'
p659
aS'Mulig'
p660
aS'Mulig'
p661
aS'Mulig'
p662
assS'level'
p663
(dp664
g3
(lp665
I1
aI2
aI3
aI4
aI5
asg8
(lp666
S'#ccff66'
p667
aS'#ffff00'
p668
aS'#ff9900'
p669
aS'#ff0000'
p670
aS'k'
p671
asg11
(lp672
I2
aI2
aI2
aI2
aI2
aI2
aI2
aI2
aI2
aI2
aI2
aI2
aI2
aI2
aI2
aI2
aI2
aI2
aI2
aI2
aI2
aI2
aI2
aI2
aI2
aI2
aI2
aI3
aI3
aI3
aI2
aI2
aI2
aI3
aI3
aI3
aI3
aI2
aI2
aI2
aI2
aI2
aI2
aI2
aI2
aI2
aI2
aI2
aI2
aI2
aI2
aI2
aI2
aI2
aI2
aI2
aI2
aI2
aI2
aI2
aI2
aI2
aI2
aI2
aI2
aI2
aI2
aI3
aI3
aI3
aI3
aI3
aI3
aI3
aI3
aI3
aI3
aI3
aI3
aI3
aI3
aI3
aI3
aI3
aI3
aI3
aI3
aI2
aI2
aI2
aI3
aI2
aI2
aI2
aI2
aI2
aI2
aI2
aI2
aI2
aI2
aI2
aI2
aI2
aI2
aI2
aI2
aI2
aI2
aI2
aI2
aI2
aI2
aI2
aI2
aI2
aI2
aI2
aI2
aI2
aI1
aI1
aI1
aI1
aI1
aI1
aI1
aI1
aI1
aI1
aI1
aI1
aI1
aI1
aI1
aI1
aI1
aI1
aI1
aI1
aI1
aI2
aI2
aI2
aI2
aI2
aI2
aI2
aI2
aI2
aI2
aI2
aI2
aI2
aI2
ass.