(lp0
(irunmatrix
M3Element
p1
(dp2
S'danger_level_average'
p3
F1.0
sS'probability'
p4
S'Lite sannsynlig, Mulig'
p5
sS'colour'
p6
S'#ccff66'
p7
sS'danger_level_list'
p8
(lp9
I1
asS'label_probalility'
p10
S'Possible'
p11
sS'label_distribution'
p12
S'Isolated'
p13
sS'recomended_colour'
p14
S'#ccff66'
p15
sS'recomended_danger_level'
p16
I1
sS'label_trigger'
p17
S'High'
p18
sS'trigger'
p19
S'Stor tilleggsbelastning'
p20
sS'occurrences'
p21
I1
sS'y'
p22
S'100'
p23
sS'x'
p24
S'100'
p25
sS'distribution'
p26
S'Isolerte faresoner'
p27
sS'danger_level_standard_dev'
p28
cnumpy.core.multiarray
scalar
p29
(cnumpy
dtype
p30
(S'f8'
p31
I0
I1
tp32
Rp33
(I3
S'<'
p34
NNNI-1
I-1
I0
tp35
bS'\x00\x00\x00\x00\x00\x00\x00\x00'
p36
tp37
Rp38
sS'label_size'
p39
S'1'
p40
sS'avalanche_size'
p41
S'1 - Harmloest'
p42
sba(irunmatrix
M3Element
p43
(dp44
g3
Nsg4
S'Lite sannsynlig, Mulig'
p45
sg6
S'white'
p46
sg8
(lp47
sg10
S'Possible'
p48
sg12
S'Isolated'
p49
sg14
g15
sg16
I1
sg17
S'Low'
p50
sg19
S'Liten tilleggsbelastning'
p51
sg21
Nsg22
S'100'
p52
sg24
S'200'
p53
sg26
S'Isolerte faresoner'
p54
sg28
Nsg39
g40
sg41
S'1 - Harmloest'
p55
sba(irunmatrix
M3Element
p56
(dp57
g3
Nsg4
S'Lite sannsynlig, Mulig'
p58
sg6
S'white'
p59
sg8
(lp60
sg10
S'Possible'
p61
sg12
S'Isolated'
p62
sg14
g15
sg16
I1
sg17
S'Nat'
p63
sg19
S'Naturlig utloest'
p64
sg21
Nsg22
S'100'
p65
sg24
S'300'
p66
sg26
S'Isolerte faresoner'
p67
sg28
Nsg39
g40
sg41
S'1 - Harmloest'
p68
sba(irunmatrix
M3Element
p69
(dp70
g3
Nsg4
S'Sannsynlig, Meget sannsynlig'
p71
sg6
S'gray'
p72
sg8
(lp73
sg10
S'Likely'
p74
sg12
S'Isolated'
p75
sg14
S'gray'
p76
sg16
I0
sg17
S'High'
p77
sg19
S'Stor tilleggsbelastning'
p78
sg21
Nsg22
S'100'
p79
sg24
S'400'
p80
sg26
S'Isolerte faresoner'
p81
sg28
Nsg39
g40
sg41
S'1 - Harmloest'
p82
sba(irunmatrix
M3Element
p83
(dp84
g3
Nsg4
S'Sannsynlig, Meget sannsynlig'
p85
sg6
S'gray'
p86
sg8
(lp87
sg10
S'Likely'
p88
sg12
S'Isolated'
p89
sg14
g76
sg16
I0
sg17
S'Low'
p90
sg19
S'Liten tilleggsbelastning'
p91
sg21
Nsg22
S'100'
p92
sg24
S'500'
p93
sg26
S'Isolerte faresoner'
p94
sg28
Nsg39
g40
sg41
S'1 - Harmloest'
p95
sba(irunmatrix
M3Element
p96
(dp97
g3
Nsg4
S'Sannsynlig, Meget sannsynlig'
p98
sg6
S'gray'
p99
sg8
(lp100
sg10
S'Likely'
p101
sg12
S'Isolated'
p102
sg14
g76
sg16
I0
sg17
S'Nat'
p103
sg19
S'Naturlig utloest'
p104
sg21
Nsg22
S'100'
p105
sg24
S'600'
p106
sg26
S'Isolerte faresoner'
p107
sg28
Nsg39
g40
sg41
S'1 - Harmloest'
p108
sba(irunmatrix
M3Element
p109
(dp110
g3
F1.0
sg4
S'Lite sannsynlig, Mulig'
p111
sg6
g7
sg8
(lp112
I1
aI1
aI1
asg10
S'Possible'
p113
sg12
S'Some'
p114
sg14
g15
sg16
I1
sg17
S'High'
p115
sg19
S'Stor tilleggsbelastning'
p116
sg21
I3
sg22
S'100'
p117
sg24
S'700'
p118
sg26
S'Noen bratte heng'
p119
sg28
g29
(g33
S'\x00\x00\x00\x00\x00\x00\x00\x00'
p120
tp121
Rp122
sg39
g40
sg41
S'1 - Harmloest'
p123
sba(irunmatrix
M3Element
p124
(dp125
g3
Nsg4
S'Lite sannsynlig, Mulig'
p126
sg6
S'white'
p127
sg8
(lp128
sg10
S'Possible'
p129
sg12
S'Some'
p130
sg14
g15
sg16
I1
sg17
S'Low'
p131
sg19
S'Liten tilleggsbelastning'
p132
sg21
Nsg22
S'100'
p133
sg24
S'800'
p134
sg26
S'Noen bratte heng'
p135
sg28
Nsg39
g40
sg41
S'1 - Harmloest'
p136
sba(irunmatrix
M3Element
p137
(dp138
g3
Nsg4
S'Lite sannsynlig, Mulig'
p139
sg6
S'white'
p140
sg8
(lp141
sg10
S'Possible'
p142
sg12
S'Some'
p143
sg14
g15
sg16
I1
sg17
S'Nat'
p144
sg19
S'Naturlig utloest'
p145
sg21
Nsg22
S'100'
p146
sg24
S'900'
p147
sg26
S'Noen bratte heng'
p148
sg28
Nsg39
g40
sg41
S'1 - Harmloest'
p149
sba(irunmatrix
M3Element
p150
(dp151
g3
Nsg4
S'Sannsynlig, Meget sannsynlig'
p152
sg6
S'gray'
p153
sg8
(lp154
sg10
S'Likely'
p155
sg12
S'Some'
p156
sg14
g76
sg16
I0
sg17
S'High'
p157
sg19
S'Stor tilleggsbelastning'
p158
sg21
Nsg22
S'100'
p159
sg24
S'1000'
p160
sg26
S'Noen bratte heng'
p161
sg28
Nsg39
g40
sg41
S'1 - Harmloest'
p162
sba(irunmatrix
M3Element
p163
(dp164
g3
Nsg4
S'Sannsynlig, Meget sannsynlig'
p165
sg6
S'gray'
p166
sg8
(lp167
sg10
S'Likely'
p168
sg12
S'Some'
p169
sg14
g76
sg16
I0
sg17
S'Low'
p170
sg19
S'Liten tilleggsbelastning'
p171
sg21
Nsg22
S'100'
p172
sg24
S'1100'
p173
sg26
S'Noen bratte heng'
p174
sg28
Nsg39
g40
sg41
S'1 - Harmloest'
p175
sba(irunmatrix
M3Element
p176
(dp177
g3
Nsg4
S'Sannsynlig, Meget sannsynlig'
p178
sg6
S'white'
p179
sg8
(lp180
sg10
S'Likely'
p181
sg12
S'Some'
p182
sg14
g15
sg16
I1
sg17
S'Nat'
p183
sg19
S'Naturlig utloest'
p184
sg21
Nsg22
S'100'
p185
sg24
S'1200'
p186
sg26
S'Noen bratte heng'
p187
sg28
Nsg39
g40
sg41
S'1 - Harmloest'
p188
sba(irunmatrix
M3Element
p189
(dp190
g3
Nsg4
S'Lite sannsynlig, Mulig'
p191
sg6
S'gray'
p192
sg8
(lp193
sg10
S'Possible'
p194
sg12
S'Many'
p195
sg14
g76
sg16
I0
sg17
S'High'
p196
sg19
S'Stor tilleggsbelastning'
p197
sg21
Nsg22
S'100'
p198
sg24
S'1300'
p199
sg26
S'Mange bratte heng'
p200
sg28
Nsg39
g40
sg41
S'1 - Harmloest'
p201
sba(irunmatrix
M3Element
p202
(dp203
g3
Nsg4
S'Lite sannsynlig, Mulig'
p204
sg6
S'white'
p205
sg8
(lp206
sg10
S'Possible'
p207
sg12
S'Many'
p208
sg14
g15
sg16
I1
sg17
S'Low'
p209
sg19
S'Liten tilleggsbelastning'
p210
sg21
Nsg22
S'100'
p211
sg24
S'1400'
p212
sg26
S'Mange bratte heng'
p213
sg28
Nsg39
g40
sg41
S'1 - Harmloest'
p214
sba(irunmatrix
M3Element
p215
(dp216
g3
Nsg4
S'Lite sannsynlig, Mulig'
p217
sg6
S'gray'
p218
sg8
(lp219
sg10
S'Possible'
p220
sg12
S'Many'
p221
sg14
g76
sg16
I0
sg17
S'Nat'
p222
sg19
S'Naturlig utloest'
p223
sg21
Nsg22
S'100'
p224
sg24
S'1500'
p225
sg26
S'Mange bratte heng'
p226
sg28
Nsg39
g40
sg41
S'1 - Harmloest'
p227
sba(irunmatrix
M3Element
p228
(dp229
g3
Nsg4
S'Sannsynlig, Meget sannsynlig'
p230
sg6
S'gray'
p231
sg8
(lp232
sg10
S'Likely'
p233
sg12
S'Many'
p234
sg14
g76
sg16
I0
sg17
S'High'
p235
sg19
S'Stor tilleggsbelastning'
p236
sg21
Nsg22
S'100'
p237
sg24
S'1600'
p238
sg26
S'Mange bratte heng'
p239
sg28
Nsg39
g40
sg41
S'1 - Harmloest'
p240
sba(irunmatrix
M3Element
p241
(dp242
g3
Nsg4
S'Sannsynlig, Meget sannsynlig'
p243
sg6
S'white'
p244
sg8
(lp245
sg10
S'Likely'
p246
sg12
S'Many'
p247
sg14
S'#ffff00'
p248
sg16
I2
sg17
S'Low'
p249
sg19
S'Liten tilleggsbelastning'
p250
sg21
Nsg22
S'100'
p251
sg24
S'1700'
p252
sg26
S'Mange bratte heng'
p253
sg28
Nsg39
g40
sg41
S'1 - Harmloest'
p254
sba(irunmatrix
M3Element
p255
(dp256
g3
Nsg4
S'Sannsynlig, Meget sannsynlig'
p257
sg6
S'white'
p258
sg8
(lp259
sg10
S'Likely'
p260
sg12
S'Many'
p261
sg14
g248
sg16
I2
sg17
S'Nat'
p262
sg19
S'Naturlig utloest'
p263
sg21
Nsg22
S'100'
p264
sg24
S'1800'
p265
sg26
S'Mange bratte heng'
p266
sg28
Nsg39
g40
sg41
S'1 - Harmloest'
p267
sba(irunmatrix
M3Element
p268
(dp269
g3
Nsg4
S'Lite sannsynlig, Mulig'
p270
sg6
S'gray'
p271
sg8
(lp272
sg10
S'Possible'
p273
sg12
S'Most'
p274
sg14
g76
sg16
I0
sg17
S'High'
p275
sg19
S'Stor tilleggsbelastning'
p276
sg21
Nsg22
S'100'
p277
sg24
S'1900'
p278
sg26
S'De fleste bratte heng, Ogsaa i mindre bratt terreng'
p279
sg28
Nsg39
g40
sg41
S'1 - Harmloest'
p280
sba(irunmatrix
M3Element
p281
(dp282
g3
Nsg4
S'Lite sannsynlig, Mulig'
p283
sg6
S'gray'
p284
sg8
(lp285
sg10
S'Possible'
p286
sg12
S'Most'
p287
sg14
g76
sg16
I0
sg17
S'Low'
p288
sg19
S'Liten tilleggsbelastning'
p289
sg21
Nsg22
S'100'
p290
sg24
S'2000'
p291
sg26
S'De fleste bratte heng, Ogsaa i mindre bratt terreng'
p292
sg28
Nsg39
g40
sg41
S'1 - Harmloest'
p293
sba(irunmatrix
M3Element
p294
(dp295
g3
Nsg4
S'Lite sannsynlig, Mulig'
p296
sg6
S'gray'
p297
sg8
(lp298
sg10
S'Possible'
p299
sg12
S'Most'
p300
sg14
g76
sg16
I0
sg17
S'Nat'
p301
sg19
S'Naturlig utloest'
p302
sg21
Nsg22
S'100'
p303
sg24
S'2100'
p304
sg26
S'De fleste bratte heng, Ogsaa i mindre bratt terreng'
p305
sg28
Nsg39
g40
sg41
S'1 - Harmloest'
p306
sba(irunmatrix
M3Element
p307
(dp308
g3
Nsg4
S'Sannsynlig, Meget sannsynlig'
p309
sg6
S'gray'
p310
sg8
(lp311
sg10
S'Likely'
p312
sg12
S'Most'
p313
sg14
g76
sg16
I0
sg17
S'High'
p314
sg19
S'Stor tilleggsbelastning'
p315
sg21
Nsg22
S'100'
p316
sg24
S'2200'
p317
sg26
S'De fleste bratte heng, Ogsaa i mindre bratt terreng'
p318
sg28
Nsg39
g40
sg41
S'1 - Harmloest'
p319
sba(irunmatrix
M3Element
p320
(dp321
g3
Nsg4
S'Sannsynlig, Meget sannsynlig'
p322
sg6
S'gray'
p323
sg8
(lp324
sg10
S'Likely'
p325
sg12
S'Most'
p326
sg14
g76
sg16
I0
sg17
S'Low'
p327
sg19
S'Liten tilleggsbelastning'
p328
sg21
Nsg22
S'100'
p329
sg24
S'2300'
p330
sg26
S'De fleste bratte heng, Ogsaa i mindre bratt terreng'
p331
sg28
Nsg39
g40
sg41
S'1 - Harmloest'
p332
sba(irunmatrix
M3Element
p333
(dp334
g3
Nsg4
S'Sannsynlig, Meget sannsynlig'
p335
sg6
S'white'
p336
sg8
(lp337
sg10
S'Likely'
p338
sg12
S'Most'
p339
sg14
g76
sg16
I0
sg17
S'Nat'
p340
sg19
S'Naturlig utloest'
p341
sg21
Nsg22
S'100'
p342
sg24
S'2400'
p343
sg26
S'De fleste bratte heng, Ogsaa i mindre bratt terreng'
p344
sg28
Nsg39
S'2'
p345
sg41
S'1 - Harmloest'
p346
sba(irunmatrix
M3Element
p347
(dp348
g3
F1.0
sg4
S'Lite sannsynlig, Mulig'
p349
sg6
g7
sg8
(lp350
I1
asg10
S'Possible'
p351
sg12
S'Isolated'
p352
sg14
g15
sg16
I1
sg17
S'High'
p353
sg19
S'Stor tilleggsbelastning'
p354
sg21
I1
sg22
S'200'
p355
sg24
S'100'
p356
sg26
S'Isolerte faresoner'
p357
sg28
g29
(g33
S'\x00\x00\x00\x00\x00\x00\x00\x00'
p358
tp359
Rp360
sg39
g345
sg41
S'2 - Smaa'
p361
sba(irunmatrix
M3Element
p362
(dp363
g3
F1.8
sg4
S'Lite sannsynlig, Mulig'
p364
sg6
S'#ffff00'
p365
sg8
(lp366
I1
aI2
aI2
aI2
aI2
asg10
S'Possible'
p367
sg12
S'Isolated'
p368
sg14
g15
sg16
I1
sg17
S'Low'
p369
sg19
S'Liten tilleggsbelastning'
p370
sg21
I5
sg22
S'200'
p371
sg24
S'200'
p372
sg26
S'Isolerte faresoner'
p373
sg28
g29
(g33
S'\x9b\x99\x99\x99\x99\x99\xd9?'
p374
tp375
Rp376
sg39
g345
sg41
S'2 - Smaa'
p377
sba(irunmatrix
M3Element
p378
(dp379
g3
F2.0
sg4
S'Lite sannsynlig, Mulig'
p380
sg6
g365
sg8
(lp381
I2
asg10
S'Possible'
p382
sg12
S'Isolated'
p383
sg14
g15
sg16
I1
sg17
S'Nat'
p384
sg19
S'Naturlig utloest'
p385
sg21
I1
sg22
S'200'
p386
sg24
S'300'
p387
sg26
S'Isolerte faresoner'
p388
sg28
g29
(g33
S'\x00\x00\x00\x00\x00\x00\x00\x00'
p389
tp390
Rp391
sg39
g345
sg41
S'2 - Smaa'
p392
sba(irunmatrix
M3Element
p393
(dp394
g3
Nsg4
S'Sannsynlig, Meget sannsynlig'
p395
sg6
S'gray'
p396
sg8
(lp397
sg10
S'Likely'
p398
sg12
S'Isolated'
p399
sg14
g76
sg16
I0
sg17
S'High'
p400
sg19
S'Stor tilleggsbelastning'
p401
sg21
Nsg22
S'200'
p402
sg24
S'400'
p403
sg26
S'Isolerte faresoner'
p404
sg28
Nsg39
g345
sg41
S'2 - Smaa'
p405
sba(irunmatrix
M3Element
p406
(dp407
g3
Nsg4
S'Sannsynlig, Meget sannsynlig'
p408
sg6
S'gray'
p409
sg8
(lp410
sg10
S'Likely'
p411
sg12
S'Isolated'
p412
sg14
g76
sg16
I0
sg17
S'Low'
p413
sg19
S'Liten tilleggsbelastning'
p414
sg21
Nsg22
S'200'
p415
sg24
S'500'
p416
sg26
S'Isolerte faresoner'
p417
sg28
Nsg39
g345
sg41
S'2 - Smaa'
p418
sba(irunmatrix
M3Element
p419
(dp420
g3
Nsg4
S'Sannsynlig, Meget sannsynlig'
p421
sg6
S'gray'
p422
sg8
(lp423
sg10
S'Likely'
p424
sg12
S'Isolated'
p425
sg14
g76
sg16
I0
sg17
S'Nat'
p426
sg19
S'Naturlig utloest'
p427
sg21
Nsg22
S'200'
p428
sg24
S'600'
p429
sg26
S'Isolerte faresoner'
p430
sg28
Nsg39
g345
sg41
S'2 - Smaa'
p431
sba(irunmatrix
M3Element
p432
(dp433
g3
F1.9411764705882353
sg4
S'Lite sannsynlig, Mulig'
p434
sg6
g365
sg8
(lp435
I2
aI2
aI2
aI2
aI2
aI2
aI2
aI2
aI2
aI2
aI2
aI2
aI2
aI2
aI2
aI2
aI1
asg10
S'Possible'
p436
sg12
S'Some'
p437
sg14
g248
sg16
I2
sg17
S'High'
p438
sg19
S'Stor tilleggsbelastning'
p439
sg21
I17
sg22
S'200'
p440
sg24
S'700'
p441
sg26
S'Noen bratte heng'
p442
sg28
g29
(g33
S'\x1f\x1e\x1e\x1e\x1e\x1e\xce?'
p443
tp444
Rp445
sg39
g345
sg41
S'2 - Smaa'
p446
sba(irunmatrix
M3Element
p447
(dp448
g3
F2.046511627906977
sg4
S'Lite sannsynlig, Mulig'
p449
sg6
g365
sg8
(lp450
I2
aI2
aI2
aI2
aI2
aI2
aI2
aI3
aI2
aI2
aI2
aI2
aI2
aI2
aI2
aI2
aI2
aI2
aI2
aI2
aI2
aI2
aI2
aI2
aI2
aI2
aI2
aI2
aI2
aI2
aI2
aI2
aI2
aI3
aI2
aI2
aI2
aI2
aI2
aI2
aI2
aI2
aI2
asg10
S'Possible'
p451
sg12
S'Some'
p452
sg14
g248
sg16
I2
sg17
S'Low'
p453
sg19
S'Liten tilleggsbelastning'
p454
sg21
I43
sg22
S'200'
p455
sg24
S'800'
p456
sg26
S'Noen bratte heng'
p457
sg28
g29
(g33
S'\x1d\x0ct\xe9\x9f\xf4\xca?'
p458
tp459
Rp460
sg39
g345
sg41
S'2 - Smaa'
p461
sba(irunmatrix
M3Element
p462
(dp463
g3
F2.0
sg4
S'Lite sannsynlig, Mulig'
p464
sg6
g365
sg8
(lp465
I2
aI2
aI2
aI2
aI2
aI2
aI2
aI2
aI2
aI2
aI2
aI2
asg10
S'Possible'
p466
sg12
S'Some'
p467
sg14
g248
sg16
I2
sg17
S'Nat'
p468
sg19
S'Naturlig utloest'
p469
sg21
I12
sg22
S'200'
p470
sg24
S'900'
p471
sg26
S'Noen bratte heng'
p472
sg28
g29
(g33
S'\x00\x00\x00\x00\x00\x00\x00\x00'
p473
tp474
Rp475
sg39
g345
sg41
S'2 - Smaa'
p476
sba(irunmatrix
M3Element
p477
(dp478
g3
Nsg4
S'Sannsynlig, Meget sannsynlig'
p479
sg6
S'gray'
p480
sg8
(lp481
sg10
S'Likely'
p482
sg12
S'Some'
p483
sg14
g76
sg16
I0
sg17
S'High'
p484
sg19
S'Stor tilleggsbelastning'
p485
sg21
Nsg22
S'200'
p486
sg24
S'1000'
p487
sg26
S'Noen bratte heng'
p488
sg28
Nsg39
g345
sg41
S'2 - Smaa'
p489
sba(irunmatrix
M3Element
p490
(dp491
g3
Nsg4
S'Sannsynlig, Meget sannsynlig'
p492
sg6
S'gray'
p493
sg8
(lp494
sg10
S'Likely'
p495
sg12
S'Some'
p496
sg14
g76
sg16
I0
sg17
S'Low'
p497
sg19
S'Liten tilleggsbelastning'
p498
sg21
Nsg22
S'200'
p499
sg24
S'1100'
p500
sg26
S'Noen bratte heng'
p501
sg28
Nsg39
g345
sg41
S'2 - Smaa'
p502
sba(irunmatrix
M3Element
p503
(dp504
g3
F3.0
sg4
S'Sannsynlig, Meget sannsynlig'
p505
sg6
S'#ff9900'
p506
sg8
(lp507
I3
aI3
asg10
S'Likely'
p508
sg12
S'Some'
p509
sg14
S'#ff9900'
p510
sg16
I3
sg17
S'Nat'
p511
sg19
S'Naturlig utloest'
p512
sg21
I2
sg22
S'200'
p513
sg24
S'1200'
p514
sg26
S'Noen bratte heng'
p515
sg28
g29
(g33
S'\x00\x00\x00\x00\x00\x00\x00\x00'
p516
tp517
Rp518
sg39
g345
sg41
S'2 - Smaa'
p519
sba(irunmatrix
M3Element
p520
(dp521
g3
Nsg4
S'Lite sannsynlig, Mulig'
p522
sg6
S'gray'
p523
sg8
(lp524
sg10
S'Possible'
p525
sg12
S'Many'
p526
sg14
g76
sg16
I0
sg17
S'High'
p527
sg19
S'Stor tilleggsbelastning'
p528
sg21
Nsg22
S'200'
p529
sg24
S'1300'
p530
sg26
S'Mange bratte heng'
p531
sg28
Nsg39
g345
sg41
S'2 - Smaa'
p532
sba(irunmatrix
M3Element
p533
(dp534
g3
F3.0
sg4
S'Lite sannsynlig, Mulig'
p535
sg6
g506
sg8
(lp536
I3
asg10
S'Possible'
p537
sg12
S'Many'
p538
sg14
g510
sg16
I3
sg17
S'Low'
p539
sg19
S'Liten tilleggsbelastning'
p540
sg21
I1
sg22
S'200'
p541
sg24
S'1400'
p542
sg26
S'Mange bratte heng'
p543
sg28
g29
(g33
S'\x00\x00\x00\x00\x00\x00\x00\x00'
p544
tp545
Rp546
sg39
g345
sg41
S'2 - Smaa'
p547
sba(irunmatrix
M3Element
p548
(dp549
g3
Nsg4
S'Lite sannsynlig, Mulig'
p550
sg6
S'gray'
p551
sg8
(lp552
sg10
S'Possible'
p553
sg12
S'Many'
p554
sg14
g76
sg16
I0
sg17
S'Nat'
p555
sg19
S'Naturlig utloest'
p556
sg21
Nsg22
S'200'
p557
sg24
S'1500'
p558
sg26
S'Mange bratte heng'
p559
sg28
Nsg39
g345
sg41
S'2 - Smaa'
p560
sba(irunmatrix
M3Element
p561
(dp562
g3
Nsg4
S'Sannsynlig, Meget sannsynlig'
p563
sg6
S'gray'
p564
sg8
(lp565
sg10
S'Likely'
p566
sg12
S'Many'
p567
sg14
g76
sg16
I0
sg17
S'High'
p568
sg19
S'Stor tilleggsbelastning'
p569
sg21
Nsg22
S'200'
p570
sg24
S'1600'
p571
sg26
S'Mange bratte heng'
p572
sg28
Nsg39
g345
sg41
S'2 - Smaa'
p573
sba(irunmatrix
M3Element
p574
(dp575
g3
Nsg4
S'Sannsynlig, Meget sannsynlig'
p576
sg6
S'white'
p577
sg8
(lp578
sg10
S'Likely'
p579
sg12
S'Many'
p580
sg14
S'#ff0000'
p581
sg16
I4
sg17
S'Low'
p582
sg19
S'Liten tilleggsbelastning'
p583
sg21
Nsg22
S'200'
p584
sg24
S'1700'
p585
sg26
S'Mange bratte heng'
p586
sg28
Nsg39
g345
sg41
S'2 - Smaa'
p587
sba(irunmatrix
M3Element
p588
(dp589
g3
Nsg4
S'Sannsynlig, Meget sannsynlig'
p590
sg6
S'white'
p591
sg8
(lp592
sg10
S'Likely'
p593
sg12
S'Many'
p594
sg14
g581
sg16
I4
sg17
S'Nat'
p595
sg19
S'Naturlig utloest'
p596
sg21
Nsg22
S'200'
p597
sg24
S'1800'
p598
sg26
S'Mange bratte heng'
p599
sg28
Nsg39
g345
sg41
S'2 - Smaa'
p600
sba(irunmatrix
M3Element
p601
(dp602
g3
Nsg4
S'Lite sannsynlig, Mulig'
p603
sg6
S'gray'
p604
sg8
(lp605
sg10
S'Possible'
p606
sg12
S'Most'
p607
sg14
g76
sg16
I0
sg17
S'High'
p608
sg19
S'Stor tilleggsbelastning'
p609
sg21
Nsg22
S'200'
p610
sg24
S'1900'
p611
sg26
S'De fleste bratte heng, Ogsaa i mindre bratt terreng'
p612
sg28
Nsg39
g345
sg41
S'2 - Smaa'
p613
sba(irunmatrix
M3Element
p614
(dp615
g3
Nsg4
S'Lite sannsynlig, Mulig'
p616
sg6
S'gray'
p617
sg8
(lp618
sg10
S'Possible'
p619
sg12
S'Most'
p620
sg14
g76
sg16
I0
sg17
S'Low'
p621
sg19
S'Liten tilleggsbelastning'
p622
sg21
Nsg22
S'200'
p623
sg24
S'2000'
p624
sg26
S'De fleste bratte heng, Ogsaa i mindre bratt terreng'
p625
sg28
Nsg39
g345
sg41
S'2 - Smaa'
p626
sba(irunmatrix
M3Element
p627
(dp628
g3
Nsg4
S'Lite sannsynlig, Mulig'
p629
sg6
S'gray'
p630
sg8
(lp631
sg10
S'Possible'
p632
sg12
S'Most'
p633
sg14
g76
sg16
I0
sg17
S'Nat'
p634
sg19
S'Naturlig utloest'
p635
sg21
Nsg22
S'200'
p636
sg24
S'2100'
p637
sg26
S'De fleste bratte heng, Ogsaa i mindre bratt terreng'
p638
sg28
Nsg39
g345
sg41
S'2 - Smaa'
p639
sba(irunmatrix
M3Element
p640
(dp641
g3
Nsg4
S'Sannsynlig, Meget sannsynlig'
p642
sg6
S'gray'
p643
sg8
(lp644
sg10
S'Likely'
p645
sg12
S'Most'
p646
sg14
g76
sg16
I0
sg17
S'High'
p647
sg19
S'Stor tilleggsbelastning'
p648
sg21
Nsg22
S'200'
p649
sg24
S'2200'
p650
sg26
S'De fleste bratte heng, Ogsaa i mindre bratt terreng'
p651
sg28
Nsg39
g345
sg41
S'2 - Smaa'
p652
sba(irunmatrix
M3Element
p653
(dp654
g3
Nsg4
S'Sannsynlig, Meget sannsynlig'
p655
sg6
S'gray'
p656
sg8
(lp657
sg10
S'Likely'
p658
sg12
S'Most'
p659
sg14
g76
sg16
I0
sg17
S'Low'
p660
sg19
S'Liten tilleggsbelastning'
p661
sg21
Nsg22
S'200'
p662
sg24
S'2300'
p663
sg26
S'De fleste bratte heng, Ogsaa i mindre bratt terreng'
p664
sg28
Nsg39
g345
sg41
S'2 - Smaa'
p665
sba(irunmatrix
M3Element
p666
(dp667
g3
Nsg4
S'Sannsynlig, Meget sannsynlig'
p668
sg6
S'white'
p669
sg8
(lp670
sg10
S'Likely'
p671
sg12
S'Most'
p672
sg14
g76
sg16
I0
sg17
S'Nat'
p673
sg19
S'Naturlig utloest'
p674
sg21
Nsg22
S'200'
p675
sg24
S'2400'
p676
sg26
S'De fleste bratte heng, Ogsaa i mindre bratt terreng'
p677
sg28
Nsg39
g345
sg41
S'2 - Smaa'
p678
sba(irunmatrix
M3Element
p679
(dp680
g3
F2.0
sg4
S'Lite sannsynlig, Mulig'
p681
sg6
g365
sg8
(lp682
I2
aI2
aI2
asg10
S'Possible'
p683
sg12
S'Isolated'
p684
sg14
g15
sg16
I1
sg17
S'High'
p685
sg19
S'Stor tilleggsbelastning'
p686
sg21
I3
sg22
S'300'
p687
sg24
S'100'
p688
sg26
S'Isolerte faresoner'
p689
sg28
g29
(g33
S'\x00\x00\x00\x00\x00\x00\x00\x00'
p690
tp691
Rp692
sg39
S'3'
p693
sg41
S'3 - Middels'
p694
sba(irunmatrix
M3Element
p695
(dp696
g3
Nsg4
S'Lite sannsynlig, Mulig'
p697
sg6
S'white'
p698
sg8
(lp699
sg10
S'Possible'
p700
sg12
S'Isolated'
p701
sg14
g248
sg16
I2
sg17
S'Low'
p702
sg19
S'Liten tilleggsbelastning'
p703
sg21
Nsg22
S'300'
p704
sg24
S'200'
p705
sg26
S'Isolerte faresoner'
p706
sg28
Nsg39
g693
sg41
S'3 - Middels'
p707
sba(irunmatrix
M3Element
p708
(dp709
g3
Nsg4
S'Lite sannsynlig, Mulig'
p710
sg6
S'white'
p711
sg8
(lp712
sg10
S'Possible'
p713
sg12
S'Isolated'
p714
sg14
g248
sg16
I2
sg17
S'Nat'
p715
sg19
S'Naturlig utloest'
p716
sg21
Nsg22
S'300'
p717
sg24
S'300'
p718
sg26
S'Isolerte faresoner'
p719
sg28
Nsg39
g693
sg41
S'3 - Middels'
p720
sba(irunmatrix
M3Element
p721
(dp722
g3
Nsg4
S'Sannsynlig, Meget sannsynlig'
p723
sg6
S'gray'
p724
sg8
(lp725
sg10
S'Likely'
p726
sg12
S'Isolated'
p727
sg14
g76
sg16
I0
sg17
S'High'
p728
sg19
S'Stor tilleggsbelastning'
p729
sg21
Nsg22
S'300'
p730
sg24
S'400'
p731
sg26
S'Isolerte faresoner'
p732
sg28
Nsg39
g693
sg41
S'3 - Middels'
p733
sba(irunmatrix
M3Element
p734
(dp735
g3
Nsg4
S'Sannsynlig, Meget sannsynlig'
p736
sg6
S'gray'
p737
sg8
(lp738
sg10
S'Likely'
p739
sg12
S'Isolated'
p740
sg14
g76
sg16
I0
sg17
S'Low'
p741
sg19
S'Liten tilleggsbelastning'
p742
sg21
Nsg22
S'300'
p743
sg24
S'500'
p744
sg26
S'Isolerte faresoner'
p745
sg28
Nsg39
g693
sg41
S'3 - Middels'
p746
sba(irunmatrix
M3Element
p747
(dp748
g3
Nsg4
S'Sannsynlig, Meget sannsynlig'
p749
sg6
S'gray'
p750
sg8
(lp751
sg10
S'Likely'
p752
sg12
S'Isolated'
p753
sg14
g76
sg16
I0
sg17
S'Nat'
p754
sg19
S'Naturlig utloest'
p755
sg21
Nsg22
S'300'
p756
sg24
S'600'
p757
sg26
S'Isolerte faresoner'
p758
sg28
Nsg39
g693
sg41
S'3 - Middels'
p759
sba(irunmatrix
M3Element
p760
(dp761
g3
F2.1666666666666665
sg4
S'Lite sannsynlig, Mulig'
p762
sg6
g365
sg8
(lp763
I2
aI2
aI2
aI2
aI2
aI3
asg10
S'Possible'
p764
sg12
S'Some'
p765
sg14
g248
sg16
I2
sg17
S'High'
p766
sg19
S'Stor tilleggsbelastning'
p767
sg21
I6
sg22
S'300'
p768
sg24
S'700'
p769
sg26
S'Noen bratte heng'
p770
sg28
g29
(g33
S'4Fu\xcf\xf4\xd9\xd7?'
p771
tp772
Rp773
sg39
g693
sg41
S'3 - Middels'
p774
sba(irunmatrix
M3Element
p775
(dp776
g3
F3.0
sg4
S'Lite sannsynlig, Mulig'
p777
sg6
g506
sg8
(lp778
I3
aI3
aI3
aI3
aI3
aI3
aI3
aI3
aI3
aI3
aI3
aI3
aI3
aI3
aI3
asg10
S'Possible'
p779
sg12
S'Some'
p780
sg14
g510
sg16
I3
sg17
S'Low'
p781
sg19
S'Liten tilleggsbelastning'
p782
sg21
I15
sg22
S'300'
p783
sg24
S'800'
p784
sg26
S'Noen bratte heng'
p785
sg28
g29
(g33
S'\x00\x00\x00\x00\x00\x00\x00\x00'
p786
tp787
Rp788
sg39
g693
sg41
S'3 - Middels'
p789
sba(irunmatrix
M3Element
p790
(dp791
g3
F3.0
sg4
S'Lite sannsynlig, Mulig'
p792
sg6
g506
sg8
(lp793
I3
aI3
aI3
asg10
S'Possible'
p794
sg12
S'Some'
p795
sg14
g510
sg16
I3
sg17
S'Nat'
p796
sg19
S'Naturlig utloest'
p797
sg21
I3
sg22
S'300'
p798
sg24
S'900'
p799
sg26
S'Noen bratte heng'
p800
sg28
g29
(g33
S'\x00\x00\x00\x00\x00\x00\x00\x00'
p801
tp802
Rp803
sg39
g693
sg41
S'3 - Middels'
p804
sba(irunmatrix
M3Element
p805
(dp806
g3
Nsg4
S'Sannsynlig, Meget sannsynlig'
p807
sg6
S'gray'
p808
sg8
(lp809
sg10
S'Likely'
p810
sg12
S'Some'
p811
sg14
g76
sg16
I0
sg17
S'High'
p812
sg19
S'Stor tilleggsbelastning'
p813
sg21
Nsg22
S'300'
p814
sg24
S'1000'
p815
sg26
S'Noen bratte heng'
p816
sg28
Nsg39
g693
sg41
S'3 - Middels'
p817
sba(irunmatrix
M3Element
p818
(dp819
g3
Nsg4
S'Sannsynlig, Meget sannsynlig'
p820
sg6
S'gray'
p821
sg8
(lp822
sg10
S'Likely'
p823
sg12
S'Some'
p824
sg14
g76
sg16
I0
sg17
S'Low'
p825
sg19
S'Liten tilleggsbelastning'
p826
sg21
Nsg22
S'300'
p827
sg24
S'1100'
p828
sg26
S'Noen bratte heng'
p829
sg28
Nsg39
g693
sg41
S'3 - Middels'
p830
sba(irunmatrix
M3Element
p831
(dp832
g3
Nsg4
S'Sannsynlig, Meget sannsynlig'
p833
sg6
S'white'
p834
sg8
(lp835
sg10
S'Likely'
p836
sg12
S'Some'
p837
sg14
g581
sg16
I4
sg17
S'Nat'
p838
sg19
S'Naturlig utloest'
p839
sg21
Nsg22
S'300'
p840
sg24
S'1200'
p841
sg26
S'Noen bratte heng'
p842
sg28
Nsg39
g693
sg41
S'3 - Middels'
p843
sba(irunmatrix
M3Element
p844
(dp845
g3
Nsg4
S'Lite sannsynlig, Mulig'
p846
sg6
S'gray'
p847
sg8
(lp848
sg10
S'Possible'
p849
sg12
S'Many'
p850
sg14
g76
sg16
I0
sg17
S'High'
p851
sg19
S'Stor tilleggsbelastning'
p852
sg21
Nsg22
S'300'
p853
sg24
S'1300'
p854
sg26
S'Mange bratte heng'
p855
sg28
Nsg39
g693
sg41
S'3 - Middels'
p856
sba(irunmatrix
M3Element
p857
(dp858
g3
Nsg4
S'Lite sannsynlig, Mulig'
p859
sg6
S'white'
p860
sg8
(lp861
sg10
S'Possible'
p862
sg12
S'Many'
p863
sg14
g581
sg16
I4
sg17
S'Low'
p864
sg19
S'Liten tilleggsbelastning'
p865
sg21
Nsg22
S'300'
p866
sg24
S'1400'
p867
sg26
S'Mange bratte heng'
p868
sg28
Nsg39
g693
sg41
S'3 - Middels'
p869
sba(irunmatrix
M3Element
p870
(dp871
g3
Nsg4
S'Lite sannsynlig, Mulig'
p872
sg6
S'gray'
p873
sg8
(lp874
sg10
S'Possible'
p875
sg12
S'Many'
p876
sg14
g76
sg16
I0
sg17
S'Nat'
p877
sg19
S'Naturlig utloest'
p878
sg21
Nsg22
S'300'
p879
sg24
S'1500'
p880
sg26
S'Mange bratte heng'
p881
sg28
Nsg39
g693
sg41
S'3 - Middels'
p882
sba(irunmatrix
M3Element
p883
(dp884
g3
Nsg4
S'Sannsynlig, Meget sannsynlig'
p885
sg6
S'gray'
p886
sg8
(lp887
sg10
S'Likely'
p888
sg12
S'Many'
p889
sg14
g76
sg16
I0
sg17
S'High'
p890
sg19
S'Stor tilleggsbelastning'
p891
sg21
Nsg22
S'300'
p892
sg24
S'1600'
p893
sg26
S'Mange bratte heng'
p894
sg28
Nsg39
g693
sg41
S'3 - Middels'
p895
sba(irunmatrix
M3Element
p896
(dp897
g3
Nsg4
S'Sannsynlig, Meget sannsynlig'
p898
sg6
S'white'
p899
sg8
(lp900
sg10
S'Likely'
p901
sg12
S'Many'
p902
sg14
g581
sg16
I4
sg17
S'Low'
p903
sg19
S'Liten tilleggsbelastning'
p904
sg21
Nsg22
S'300'
p905
sg24
S'1700'
p906
sg26
S'Mange bratte heng'
p907
sg28
Nsg39
g693
sg41
S'3 - Middels'
p908
sba(irunmatrix
M3Element
p909
(dp910
g3
Nsg4
S'Sannsynlig, Meget sannsynlig'
p911
sg6
S'white'
p912
sg8
(lp913
sg10
S'Likely'
p914
sg12
S'Many'
p915
sg14
g581
sg16
I4
sg17
S'Nat'
p916
sg19
S'Naturlig utloest'
p917
sg21
Nsg22
S'300'
p918
sg24
S'1800'
p919
sg26
S'Mange bratte heng'
p920
sg28
Nsg39
g693
sg41
S'3 - Middels'
p921
sba(irunmatrix
M3Element
p922
(dp923
g3
Nsg4
S'Lite sannsynlig, Mulig'
p924
sg6
S'gray'
p925
sg8
(lp926
sg10
S'Possible'
p927
sg12
S'Most'
p928
sg14
g76
sg16
I0
sg17
S'High'
p929
sg19
S'Stor tilleggsbelastning'
p930
sg21
Nsg22
S'300'
p931
sg24
S'1900'
p932
sg26
S'De fleste bratte heng, Ogsaa i mindre bratt terreng'
p933
sg28
Nsg39
g693
sg41
S'3 - Middels'
p934
sba(irunmatrix
M3Element
p935
(dp936
g3
Nsg4
S'Lite sannsynlig, Mulig'
p937
sg6
S'gray'
p938
sg8
(lp939
sg10
S'Possible'
p940
sg12
S'Most'
p941
sg14
g76
sg16
I0
sg17
S'Low'
p942
sg19
S'Liten tilleggsbelastning'
p943
sg21
Nsg22
S'300'
p944
sg24
S'2000'
p945
sg26
S'De fleste bratte heng, Ogsaa i mindre bratt terreng'
p946
sg28
Nsg39
g693
sg41
S'3 - Middels'
p947
sba(irunmatrix
M3Element
p948
(dp949
g3
Nsg4
S'Lite sannsynlig, Mulig'
p950
sg6
S'gray'
p951
sg8
(lp952
sg10
S'Possible'
p953
sg12
S'Most'
p954
sg14
g76
sg16
I0
sg17
S'Nat'
p955
sg19
S'Naturlig utloest'
p956
sg21
Nsg22
S'300'
p957
sg24
S'2100'
p958
sg26
S'De fleste bratte heng, Ogsaa i mindre bratt terreng'
p959
sg28
Nsg39
g693
sg41
S'3 - Middels'
p960
sba(irunmatrix
M3Element
p961
(dp962
g3
Nsg4
S'Sannsynlig, Meget sannsynlig'
p963
sg6
S'gray'
p964
sg8
(lp965
sg10
S'Likely'
p966
sg12
S'Most'
p967
sg14
g76
sg16
I0
sg17
S'High'
p968
sg19
S'Stor tilleggsbelastning'
p969
sg21
Nsg22
S'300'
p970
sg24
S'2200'
p971
sg26
S'De fleste bratte heng, Ogsaa i mindre bratt terreng'
p972
sg28
Nsg39
g693
sg41
S'3 - Middels'
p973
sba(irunmatrix
M3Element
p974
(dp975
g3
Nsg4
S'Sannsynlig, Meget sannsynlig'
p976
sg6
S'gray'
p977
sg8
(lp978
sg10
S'Likely'
p979
sg12
S'Most'
p980
sg14
g76
sg16
I0
sg17
S'Low'
p981
sg19
S'Liten tilleggsbelastning'
p982
sg21
Nsg22
S'300'
p983
sg24
S'2300'
p984
sg26
S'De fleste bratte heng, Ogsaa i mindre bratt terreng'
p985
sg28
Nsg39
g693
sg41
S'3 - Middels'
p986
sba(irunmatrix
M3Element
p987
(dp988
g3
Nsg4
S'Sannsynlig, Meget sannsynlig'
p989
sg6
S'white'
p990
sg8
(lp991
sg10
S'Likely'
p992
sg12
S'Most'
p993
sg14
g76
sg16
I0
sg17
S'Nat'
p994
sg19
S'Naturlig utloest'
p995
sg21
Nsg22
S'300'
p996
sg24
S'2400'
p997
sg26
S'De fleste bratte heng, Ogsaa i mindre bratt terreng'
p998
sg28
Nsg39
g693
sg41
S'3 - Middels'
p999
sba(irunmatrix
M3Element
p1000
(dp1001
g3
Nsg4
S'Lite sannsynlig, Mulig'
p1002
sg6
S'white'
p1003
sg8
(lp1004
sg10
S'Possible'
p1005
sg12
S'Isolated'
p1006
sg14
g248
sg16
I2
sg17
S'High'
p1007
sg19
S'Stor tilleggsbelastning'
p1008
sg21
Nsg22
S'400'
p1009
sg24
S'100'
p1010
sg26
S'Isolerte faresoner'
p1011
sg28
Nsg39
S'4'
p1012
sg41
S'4 - Store'
p1013
sba(irunmatrix
M3Element
p1014
(dp1015
g3
Nsg4
S'Lite sannsynlig, Mulig'
p1016
sg6
S'white'
p1017
sg8
(lp1018
sg10
S'Possible'
p1019
sg12
S'Isolated'
p1020
sg14
g510
sg16
I3
sg17
S'Low'
p1021
sg19
S'Liten tilleggsbelastning'
p1022
sg21
Nsg22
S'400'
p1023
sg24
S'200'
p1024
sg26
S'Isolerte faresoner'
p1025
sg28
Nsg39
g1012
sg41
S'4 - Store'
p1026
sba(irunmatrix
M3Element
p1027
(dp1028
g3
Nsg4
S'Lite sannsynlig, Mulig'
p1029
sg6
S'white'
p1030
sg8
(lp1031
sg10
S'Possible'
p1032
sg12
S'Isolated'
p1033
sg14
g510
sg16
I3
sg17
S'Nat'
p1034
sg19
S'Naturlig utloest'
p1035
sg21
Nsg22
S'400'
p1036
sg24
S'300'
p1037
sg26
S'Isolerte faresoner'
p1038
sg28
Nsg39
g1012
sg41
S'4 - Store'
p1039
sba(irunmatrix
M3Element
p1040
(dp1041
g3
Nsg4
S'Sannsynlig, Meget sannsynlig'
p1042
sg6
S'gray'
p1043
sg8
(lp1044
sg10
S'Likely'
p1045
sg12
S'Isolated'
p1046
sg14
g76
sg16
I0
sg17
S'High'
p1047
sg19
S'Stor tilleggsbelastning'
p1048
sg21
Nsg22
S'400'
p1049
sg24
S'400'
p1050
sg26
S'Isolerte faresoner'
p1051
sg28
Nsg39
g1012
sg41
S'4 - Store'
p1052
sba(irunmatrix
M3Element
p1053
(dp1054
g3
Nsg4
S'Sannsynlig, Meget sannsynlig'
p1055
sg6
S'gray'
p1056
sg8
(lp1057
sg10
S'Likely'
p1058
sg12
S'Isolated'
p1059
sg14
g76
sg16
I0
sg17
S'Low'
p1060
sg19
S'Liten tilleggsbelastning'
p1061
sg21
Nsg22
S'400'
p1062
sg24
S'500'
p1063
sg26
S'Isolerte faresoner'
p1064
sg28
Nsg39
g1012
sg41
S'4 - Store'
p1065
sba(irunmatrix
M3Element
p1066
(dp1067
g3
Nsg4
S'Sannsynlig, Meget sannsynlig'
p1068
sg6
S'gray'
p1069
sg8
(lp1070
sg10
S'Likely'
p1071
sg12
S'Isolated'
p1072
sg14
g76
sg16
I0
sg17
S'Nat'
p1073
sg19
S'Naturlig utloest'
p1074
sg21
Nsg22
S'400'
p1075
sg24
S'600'
p1076
sg26
S'Isolerte faresoner'
p1077
sg28
Nsg39
g1012
sg41
S'4 - Store'
p1078
sba(irunmatrix
M3Element
p1079
(dp1080
g3
Nsg4
S'Lite sannsynlig, Mulig'
p1081
sg6
S'white'
p1082
sg8
(lp1083
sg10
S'Possible'
p1084
sg12
S'Some'
p1085
sg14
g510
sg16
I3
sg17
S'High'
p1086
sg19
S'Stor tilleggsbelastning'
p1087
sg21
Nsg22
S'400'
p1088
sg24
S'700'
p1089
sg26
S'Noen bratte heng'
p1090
sg28
Nsg39
g1012
sg41
S'4 - Store'
p1091
sba(irunmatrix
M3Element
p1092
(dp1093
g3
Nsg4
S'Lite sannsynlig, Mulig'
p1094
sg6
S'white'
p1095
sg8
(lp1096
sg10
S'Possible'
p1097
sg12
S'Some'
p1098
sg14
g581
sg16
I4
sg17
S'Low'
p1099
sg19
S'Liten tilleggsbelastning'
p1100
sg21
Nsg22
S'400'
p1101
sg24
S'800'
p1102
sg26
S'Noen bratte heng'
p1103
sg28
Nsg39
g1012
sg41
S'4 - Store'
p1104
sba(irunmatrix
M3Element
p1105
(dp1106
g3
Nsg4
S'Lite sannsynlig, Mulig'
p1107
sg6
S'white'
p1108
sg8
(lp1109
sg10
S'Possible'
p1110
sg12
S'Some'
p1111
sg14
g581
sg16
I4
sg17
S'Nat'
p1112
sg19
S'Naturlig utloest'
p1113
sg21
Nsg22
S'400'
p1114
sg24
S'900'
p1115
sg26
S'Noen bratte heng'
p1116
sg28
Nsg39
g1012
sg41
S'4 - Store'
p1117
sba(irunmatrix
M3Element
p1118
(dp1119
g3
Nsg4
S'Sannsynlig, Meget sannsynlig'
p1120
sg6
S'gray'
p1121
sg8
(lp1122
sg10
S'Likely'
p1123
sg12
S'Some'
p1124
sg14
g76
sg16
I0
sg17
S'High'
p1125
sg19
S'Stor tilleggsbelastning'
p1126
sg21
Nsg22
S'400'
p1127
sg24
S'1000'
p1128
sg26
S'Noen bratte heng'
p1129
sg28
Nsg39
g1012
sg41
S'4 - Store'
p1130
sba(irunmatrix
M3Element
p1131
(dp1132
g3
Nsg4
S'Sannsynlig, Meget sannsynlig'
p1133
sg6
S'gray'
p1134
sg8
(lp1135
sg10
S'Likely'
p1136
sg12
S'Some'
p1137
sg14
g76
sg16
I0
sg17
S'Low'
p1138
sg19
S'Liten tilleggsbelastning'
p1139
sg21
Nsg22
S'400'
p1140
sg24
S'1100'
p1141
sg26
S'Noen bratte heng'
p1142
sg28
Nsg39
g1012
sg41
S'4 - Store'
p1143
sba(irunmatrix
M3Element
p1144
(dp1145
g3
Nsg4
S'Sannsynlig, Meget sannsynlig'
p1146
sg6
S'white'
p1147
sg8
(lp1148
sg10
S'Likely'
p1149
sg12
S'Some'
p1150
sg14
g581
sg16
I4
sg17
S'Nat'
p1151
sg19
S'Naturlig utloest'
p1152
sg21
Nsg22
S'400'
p1153
sg24
S'1200'
p1154
sg26
S'Noen bratte heng'
p1155
sg28
Nsg39
g1012
sg41
S'4 - Store'
p1156
sba(irunmatrix
M3Element
p1157
(dp1158
g3
Nsg4
S'Lite sannsynlig, Mulig'
p1159
sg6
S'gray'
p1160
sg8
(lp1161
sg10
S'Possible'
p1162
sg12
S'Many'
p1163
sg14
g76
sg16
I0
sg17
S'High'
p1164
sg19
S'Stor tilleggsbelastning'
p1165
sg21
Nsg22
S'400'
p1166
sg24
S'1300'
p1167
sg26
S'Mange bratte heng'
p1168
sg28
Nsg39
g1012
sg41
S'4 - Store'
p1169
sba(irunmatrix
M3Element
p1170
(dp1171
g3
Nsg4
S'Lite sannsynlig, Mulig'
p1172
sg6
S'white'
p1173
sg8
(lp1174
sg10
S'Possible'
p1175
sg12
S'Many'
p1176
sg14
g76
sg16
I0
sg17
S'Low'
p1177
sg19
S'Liten tilleggsbelastning'
p1178
sg21
Nsg22
S'400'
p1179
sg24
S'1400'
p1180
sg26
S'Mange bratte heng'
p1181
sg28
Nsg39
g1012
sg41
S'4 - Store'
p1182
sba(irunmatrix
M3Element
p1183
(dp1184
g3
Nsg4
S'Lite sannsynlig, Mulig'
p1185
sg6
S'gray'
p1186
sg8
(lp1187
sg10
S'Possible'
p1188
sg12
S'Many'
p1189
sg14
g76
sg16
I0
sg17
S'Nat'
p1190
sg19
S'Naturlig utloest'
p1191
sg21
Nsg22
S'400'
p1192
sg24
S'1500'
p1193
sg26
S'Mange bratte heng'
p1194
sg28
Nsg39
g1012
sg41
S'4 - Store'
p1195
sba(irunmatrix
M3Element
p1196
(dp1197
g3
Nsg4
S'Sannsynlig, Meget sannsynlig'
p1198
sg6
S'gray'
p1199
sg8
(lp1200
sg10
S'Likely'
p1201
sg12
S'Many'
p1202
sg14
g76
sg16
I0
sg17
S'High'
p1203
sg19
S'Stor tilleggsbelastning'
p1204
sg21
Nsg22
S'400'
p1205
sg24
S'1600'
p1206
sg26
S'Mange bratte heng'
p1207
sg28
Nsg39
g1012
sg41
S'4 - Store'
p1208
sba(irunmatrix
M3Element
p1209
(dp1210
g3
Nsg4
S'Sannsynlig, Meget sannsynlig'
p1211
sg6
S'white'
p1212
sg8
(lp1213
sg10
S'Likely'
p1214
sg12
S'Many'
p1215
sg14
g76
sg16
I0
sg17
S'Low'
p1216
sg19
S'Liten tilleggsbelastning'
p1217
sg21
Nsg22
S'400'
p1218
sg24
S'1700'
p1219
sg26
S'Mange bratte heng'
p1220
sg28
Nsg39
g1012
sg41
S'4 - Store'
p1221
sba(irunmatrix
M3Element
p1222
(dp1223
g3
Nsg4
S'Sannsynlig, Meget sannsynlig'
p1224
sg6
S'white'
p1225
sg8
(lp1226
sg10
S'Likely'
p1227
sg12
S'Many'
p1228
sg14
S'k'
p1229
sg16
I5
sg17
S'Nat'
p1230
sg19
S'Naturlig utloest'
p1231
sg21
Nsg22
S'400'
p1232
sg24
S'1800'
p1233
sg26
S'Mange bratte heng'
p1234
sg28
Nsg39
g1012
sg41
S'4 - Store'
p1235
sba(irunmatrix
M3Element
p1236
(dp1237
g3
Nsg4
S'Lite sannsynlig, Mulig'
p1238
sg6
S'gray'
p1239
sg8
(lp1240
sg10
S'Possible'
p1241
sg12
S'Most'
p1242
sg14
g76
sg16
I0
sg17
S'High'
p1243
sg19
S'Stor tilleggsbelastning'
p1244
sg21
Nsg22
S'400'
p1245
sg24
S'1900'
p1246
sg26
S'De fleste bratte heng, Ogsaa i mindre bratt terreng'
p1247
sg28
Nsg39
g1012
sg41
S'4 - Store'
p1248
sba(irunmatrix
M3Element
p1249
(dp1250
g3
Nsg4
S'Lite sannsynlig, Mulig'
p1251
sg6
S'gray'
p1252
sg8
(lp1253
sg10
S'Possible'
p1254
sg12
S'Most'
p1255
sg14
g76
sg16
I0
sg17
S'Low'
p1256
sg19
S'Liten tilleggsbelastning'
p1257
sg21
Nsg22
S'400'
p1258
sg24
S'2000'
p1259
sg26
S'De fleste bratte heng, Ogsaa i mindre bratt terreng'
p1260
sg28
Nsg39
g1012
sg41
S'4 - Store'
p1261
sba(irunmatrix
M3Element
p1262
(dp1263
g3
Nsg4
S'Lite sannsynlig, Mulig'
p1264
sg6
S'gray'
p1265
sg8
(lp1266
sg10
S'Possible'
p1267
sg12
S'Most'
p1268
sg14
g76
sg16
I0
sg17
S'Nat'
p1269
sg19
S'Naturlig utloest'
p1270
sg21
Nsg22
S'400'
p1271
sg24
S'2100'
p1272
sg26
S'De fleste bratte heng, Ogsaa i mindre bratt terreng'
p1273
sg28
Nsg39
g1012
sg41
S'4 - Store'
p1274
sba(irunmatrix
M3Element
p1275
(dp1276
g3
Nsg4
S'Sannsynlig, Meget sannsynlig'
p1277
sg6
S'gray'
p1278
sg8
(lp1279
sg10
S'Likely'
p1280
sg12
S'Most'
p1281
sg14
g76
sg16
I0
sg17
S'High'
p1282
sg19
S'Stor tilleggsbelastning'
p1283
sg21
Nsg22
S'400'
p1284
sg24
S'2200'
p1285
sg26
S'De fleste bratte heng, Ogsaa i mindre bratt terreng'
p1286
sg28
Nsg39
g1012
sg41
S'4 - Store'
p1287
sba(irunmatrix
M3Element
p1288
(dp1289
g3
Nsg4
S'Sannsynlig, Meget sannsynlig'
p1290
sg6
S'gray'
p1291
sg8
(lp1292
sg10
S'Likely'
p1293
sg12
S'Most'
p1294
sg14
g76
sg16
I0
sg17
S'Low'
p1295
sg19
S'Liten tilleggsbelastning'
p1296
sg21
Nsg22
S'400'
p1297
sg24
S'2300'
p1298
sg26
S'De fleste bratte heng, Ogsaa i mindre bratt terreng'
p1299
sg28
Nsg39
g1012
sg41
S'4 - Store'
p1300
sba(irunmatrix
M3Element
p1301
(dp1302
g3
Nsg4
S'Sannsynlig, Meget sannsynlig'
p1303
sg6
S'white'
p1304
sg8
(lp1305
sg10
S'Likely'
p1306
sg12
S'Most'
p1307
sg14
g76
sg16
I0
sg17
S'Nat'
p1308
sg19
S'Naturlig utloest'
p1309
sg21
Nsg22
S'400'
p1310
sg24
S'2400'
p1311
sg26
S'De fleste bratte heng, Ogsaa i mindre bratt terreng'
p1312
sg28
Nsg39
g1012
sg41
S'4 - Store'
p1313
sba(irunmatrix
M3Element
p1314
(dp1315
g3
Nsg4
S'Lite sannsynlig, Mulig'
p1316
sg6
S'white'
p1317
sg8
(lp1318
sg10
S'Possible'
p1319
sg12
S'Isolated'
p1320
sg14
g76
sg16
I0
sg17
S'High'
p1321
sg19
S'Stor tilleggsbelastning'
p1322
sg21
Nsg22
S'500'
p1323
sg24
S'100'
p1324
sg26
S'Isolerte faresoner'
p1325
sg28
Nsg39
S'5'
p1326
sg41
S'5 - Svaert store'
p1327
sba(irunmatrix
M3Element
p1328
(dp1329
g3
Nsg4
S'Lite sannsynlig, Mulig'
p1330
sg6
S'white'
p1331
sg8
(lp1332
sg10
S'Possible'
p1333
sg12
S'Isolated'
p1334
sg14
g76
sg16
I0
sg17
S'Low'
p1335
sg19
S'Liten tilleggsbelastning'
p1336
sg21
Nsg22
S'500'
p1337
sg24
S'200'
p1338
sg26
S'Isolerte faresoner'
p1339
sg28
Nsg39
g1326
sg41
S'5 - Svaert store'
p1340
sba(irunmatrix
M3Element
p1341
(dp1342
g3
Nsg4
S'Lite sannsynlig, Mulig'
p1343
sg6
S'white'
p1344
sg8
(lp1345
sg10
S'Possible'
p1346
sg12
S'Isolated'
p1347
sg14
g76
sg16
I0
sg17
S'Nat'
p1348
sg19
S'Naturlig utloest'
p1349
sg21
Nsg22
S'500'
p1350
sg24
S'300'
p1351
sg26
S'Isolerte faresoner'
p1352
sg28
Nsg39
g1326
sg41
S'5 - Svaert store'
p1353
sba(irunmatrix
M3Element
p1354
(dp1355
g3
Nsg4
S'Sannsynlig, Meget sannsynlig'
p1356
sg6
S'gray'
p1357
sg8
(lp1358
sg10
S'Likely'
p1359
sg12
S'Isolated'
p1360
sg14
g76
sg16
I0
sg17
S'High'
p1361
sg19
S'Stor tilleggsbelastning'
p1362
sg21
Nsg22
S'500'
p1363
sg24
S'400'
p1364
sg26
S'Isolerte faresoner'
p1365
sg28
Nsg39
g1326
sg41
S'5 - Svaert store'
p1366
sba(irunmatrix
M3Element
p1367
(dp1368
g3
Nsg4
S'Sannsynlig, Meget sannsynlig'
p1369
sg6
S'gray'
p1370
sg8
(lp1371
sg10
S'Likely'
p1372
sg12
S'Isolated'
p1373
sg14
g76
sg16
I0
sg17
S'Low'
p1374
sg19
S'Liten tilleggsbelastning'
p1375
sg21
Nsg22
S'500'
p1376
sg24
S'500'
p1377
sg26
S'Isolerte faresoner'
p1378
sg28
Nsg39
g1326
sg41
S'5 - Svaert store'
p1379
sba(irunmatrix
M3Element
p1380
(dp1381
g3
Nsg4
S'Sannsynlig, Meget sannsynlig'
p1382
sg6
S'gray'
p1383
sg8
(lp1384
sg10
S'Likely'
p1385
sg12
S'Isolated'
p1386
sg14
g76
sg16
I0
sg17
S'Nat'
p1387
sg19
S'Naturlig utloest'
p1388
sg21
Nsg22
S'500'
p1389
sg24
S'600'
p1390
sg26
S'Isolerte faresoner'
p1391
sg28
Nsg39
g1326
sg41
S'5 - Svaert store'
p1392
sba(irunmatrix
M3Element
p1393
(dp1394
g3
Nsg4
S'Lite sannsynlig, Mulig'
p1395
sg6
S'white'
p1396
sg8
(lp1397
sg10
S'Possible'
p1398
sg12
S'Some'
p1399
sg14
g76
sg16
I0
sg17
S'High'
p1400
sg19
S'Stor tilleggsbelastning'
p1401
sg21
Nsg22
S'500'
p1402
sg24
S'700'
p1403
sg26
S'Noen bratte heng'
p1404
sg28
Nsg39
g1326
sg41
S'5 - Svaert store'
p1405
sba(irunmatrix
M3Element
p1406
(dp1407
g3
Nsg4
S'Lite sannsynlig, Mulig'
p1408
sg6
S'white'
p1409
sg8
(lp1410
sg10
S'Possible'
p1411
sg12
S'Some'
p1412
sg14
g76
sg16
I0
sg17
S'Low'
p1413
sg19
S'Liten tilleggsbelastning'
p1414
sg21
Nsg22
S'500'
p1415
sg24
S'800'
p1416
sg26
S'Noen bratte heng'
p1417
sg28
Nsg39
g1326
sg41
S'5 - Svaert store'
p1418
sba(irunmatrix
M3Element
p1419
(dp1420
g3
Nsg4
S'Lite sannsynlig, Mulig'
p1421
sg6
S'white'
p1422
sg8
(lp1423
sg10
S'Possible'
p1424
sg12
S'Some'
p1425
sg14
g76
sg16
I0
sg17
S'Nat'
p1426
sg19
S'Naturlig utloest'
p1427
sg21
Nsg22
S'500'
p1428
sg24
S'900'
p1429
sg26
S'Noen bratte heng'
p1430
sg28
Nsg39
g1326
sg41
S'5 - Svaert store'
p1431
sba(irunmatrix
M3Element
p1432
(dp1433
g3
Nsg4
S'Sannsynlig, Meget sannsynlig'
p1434
sg6
S'gray'
p1435
sg8
(lp1436
sg10
S'Likely'
p1437
sg12
S'Some'
p1438
sg14
g76
sg16
I0
sg17
S'High'
p1439
sg19
S'Stor tilleggsbelastning'
p1440
sg21
Nsg22
S'500'
p1441
sg24
S'1000'
p1442
sg26
S'Noen bratte heng'
p1443
sg28
Nsg39
g1326
sg41
S'5 - Svaert store'
p1444
sba(irunmatrix
M3Element
p1445
(dp1446
g3
Nsg4
S'Sannsynlig, Meget sannsynlig'
p1447
sg6
S'gray'
p1448
sg8
(lp1449
sg10
S'Likely'
p1450
sg12
S'Some'
p1451
sg14
g76
sg16
I0
sg17
S'Low'
p1452
sg19
S'Liten tilleggsbelastning'
p1453
sg21
Nsg22
S'500'
p1454
sg24
S'1100'
p1455
sg26
S'Noen bratte heng'
p1456
sg28
Nsg39
g1326
sg41
S'5 - Svaert store'
p1457
sba(irunmatrix
M3Element
p1458
(dp1459
g3
Nsg4
S'Sannsynlig, Meget sannsynlig'
p1460
sg6
S'white'
p1461
sg8
(lp1462
sg10
S'Likely'
p1463
sg12
S'Some'
p1464
sg14
g76
sg16
I0
sg17
S'Nat'
p1465
sg19
S'Naturlig utloest'
p1466
sg21
Nsg22
S'500'
p1467
sg24
S'1200'
p1468
sg26
S'Noen bratte heng'
p1469
sg28
Nsg39
g1326
sg41
S'5 - Svaert store'
p1470
sba(irunmatrix
M3Element
p1471
(dp1472
g3
Nsg4
S'Lite sannsynlig, Mulig'
p1473
sg6
S'gray'
p1474
sg8
(lp1475
sg10
S'Possible'
p1476
sg12
S'Many'
p1477
sg14
g76
sg16
I0
sg17
S'High'
p1478
sg19
S'Stor tilleggsbelastning'
p1479
sg21
Nsg22
S'500'
p1480
sg24
S'1300'
p1481
sg26
S'Mange bratte heng'
p1482
sg28
Nsg39
g1326
sg41
S'5 - Svaert store'
p1483
sba(irunmatrix
M3Element
p1484
(dp1485
g3
Nsg4
S'Lite sannsynlig, Mulig'
p1486
sg6
S'white'
p1487
sg8
(lp1488
sg10
S'Possible'
p1489
sg12
S'Many'
p1490
sg14
g76
sg16
I0
sg17
S'Low'
p1491
sg19
S'Liten tilleggsbelastning'
p1492
sg21
Nsg22
S'500'
p1493
sg24
S'1400'
p1494
sg26
S'Mange bratte heng'
p1495
sg28
Nsg39
g1326
sg41
S'5 - Svaert store'
p1496
sba(irunmatrix
M3Element
p1497
(dp1498
g3
Nsg4
S'Lite sannsynlig, Mulig'
p1499
sg6
S'gray'
p1500
sg8
(lp1501
sg10
S'Possible'
p1502
sg12
S'Many'
p1503
sg14
g76
sg16
I0
sg17
S'Nat'
p1504
sg19
S'Naturlig utloest'
p1505
sg21
Nsg22
S'500'
p1506
sg24
S'1500'
p1507
sg26
S'Mange bratte heng'
p1508
sg28
Nsg39
g1326
sg41
S'5 - Svaert store'
p1509
sba(irunmatrix
M3Element
p1510
(dp1511
g3
Nsg4
S'Sannsynlig, Meget sannsynlig'
p1512
sg6
S'gray'
p1513
sg8
(lp1514
sg10
S'Likely'
p1515
sg12
S'Many'
p1516
sg14
g76
sg16
I0
sg17
S'High'
p1517
sg19
S'Stor tilleggsbelastning'
p1518
sg21
Nsg22
S'500'
p1519
sg24
S'1600'
p1520
sg26
S'Mange bratte heng'
p1521
sg28
Nsg39
g1326
sg41
S'5 - Svaert store'
p1522
sba(irunmatrix
M3Element
p1523
(dp1524
g3
Nsg4
S'Sannsynlig, Meget sannsynlig'
p1525
sg6
S'white'
p1526
sg8
(lp1527
sg10
S'Likely'
p1528
sg12
S'Many'
p1529
sg14
g76
sg16
I0
sg17
S'Low'
p1530
sg19
S'Liten tilleggsbelastning'
p1531
sg21
Nsg22
S'500'
p1532
sg24
S'1700'
p1533
sg26
S'Mange bratte heng'
p1534
sg28
Nsg39
g1326
sg41
S'5 - Svaert store'
p1535
sba(irunmatrix
M3Element
p1536
(dp1537
g3
Nsg4
S'Sannsynlig, Meget sannsynlig'
p1538
sg6
S'white'
p1539
sg8
(lp1540
sg10
S'Likely'
p1541
sg12
S'Many'
p1542
sg14
g1229
sg16
I5
sg17
S'Nat'
p1543
sg19
S'Naturlig utloest'
p1544
sg21
Nsg22
S'500'
p1545
sg24
S'1800'
p1546
sg26
S'Mange bratte heng'
p1547
sg28
Nsg39
g1326
sg41
S'5 - Svaert store'
p1548
sba(irunmatrix
M3Element
p1549
(dp1550
g3
Nsg4
S'Lite sannsynlig, Mulig'
p1551
sg6
S'gray'
p1552
sg8
(lp1553
sg10
S'Possible'
p1554
sg12
S'Most'
p1555
sg14
g76
sg16
I0
sg17
S'High'
p1556
sg19
S'Stor tilleggsbelastning'
p1557
sg21
Nsg22
S'500'
p1558
sg24
S'1900'
p1559
sg26
S'De fleste bratte heng, Ogsaa i mindre bratt terreng'
p1560
sg28
Nsg39
g1326
sg41
S'5 - Svaert store'
p1561
sba(irunmatrix
M3Element
p1562
(dp1563
g3
Nsg4
S'Lite sannsynlig, Mulig'
p1564
sg6
S'gray'
p1565
sg8
(lp1566
sg10
S'Possible'
p1567
sg12
S'Most'
p1568
sg14
g76
sg16
I0
sg17
S'Low'
p1569
sg19
S'Liten tilleggsbelastning'
p1570
sg21
Nsg22
S'500'
p1571
sg24
S'2000'
p1572
sg26
S'De fleste bratte heng, Ogsaa i mindre bratt terreng'
p1573
sg28
Nsg39
g1326
sg41
S'5 - Svaert store'
p1574
sba(irunmatrix
M3Element
p1575
(dp1576
g3
Nsg4
S'Lite sannsynlig, Mulig'
p1577
sg6
S'gray'
p1578
sg8
(lp1579
sg10
S'Possible'
p1580
sg12
S'Most'
p1581
sg14
g76
sg16
I0
sg17
S'Nat'
p1582
sg19
S'Naturlig utloest'
p1583
sg21
Nsg22
S'500'
p1584
sg24
S'2100'
p1585
sg26
S'De fleste bratte heng, Ogsaa i mindre bratt terreng'
p1586
sg28
Nsg39
g1326
sg41
S'5 - Svaert store'
p1587
sba(irunmatrix
M3Element
p1588
(dp1589
g3
Nsg4
S'Sannsynlig, Meget sannsynlig'
p1590
sg6
S'gray'
p1591
sg8
(lp1592
sg10
S'Likely'
p1593
sg12
S'Most'
p1594
sg14
g76
sg16
I0
sg17
S'High'
p1595
sg19
S'Stor tilleggsbelastning'
p1596
sg21
Nsg22
S'500'
p1597
sg24
S'2200'
p1598
sg26
S'De fleste bratte heng, Ogsaa i mindre bratt terreng'
p1599
sg28
Nsg39
g1326
sg41
S'5 - Svaert store'
p1600
sba(irunmatrix
M3Element
p1601
(dp1602
g3
Nsg4
S'Sannsynlig, Meget sannsynlig'
p1603
sg6
S'gray'
p1604
sg8
(lp1605
sg10
S'Likely'
p1606
sg12
S'Most'
p1607
sg14
g76
sg16
I0
sg17
S'Low'
p1608
sg19
S'Liten tilleggsbelastning'
p1609
sg21
Nsg22
S'500'
p1610
sg24
S'2300'
p1611
sg26
S'De fleste bratte heng, Ogsaa i mindre bratt terreng'
p1612
sg28
Nsg39
g1326
sg41
S'5 - Svaert store'
p1613
sba(irunmatrix
M3Element
p1614
(dp1615
g3
Nsg4
S'Sannsynlig, Meget sannsynlig'
p1616
sg6
S'white'
p1617
sg8
(lp1618
sg10
S'Likely'
p1619
sg12
S'Most'
p1620
sg14
g76
sg16
I0
sg17
S'Nat'
p1621
sg19
S'Naturlig utloest'
p1622
sg21
Nsg22
S'500'
p1623
sg24
S'2400'
p1624
sg26
S'De fleste bratte heng, Ogsaa i mindre bratt terreng'
p1625
sg28
Nsg39
g1326
sg41
S'5 - Svaert store'
p1626
sba.