(dp0
S'trigger'
p1
(dp2
S'keys'
p3
(lp4
S'Stor tilleggsbelastning'
p5
aS'Liten tilleggsbelastning'
p6
aS'Naturlig utloest'
p7
asS'colors'
p8
(lp9
S'0.7'
p10
asS'values'
p11
(lp12
S'Liten tilleggsbelastning'
p13
aS'Stor tilleggsbelastning'
p14
aS'Liten tilleggsbelastning'
p15
aS'Liten tilleggsbelastning'
p16
aS'Liten tilleggsbelastning'
p17
aS'Liten tilleggsbelastning'
p18
aS'Liten tilleggsbelastning'
p19
aS'Liten tilleggsbelastning'
p20
aS'Naturlig utloest'
p21
aS'Liten tilleggsbelastning'
p22
aS'Ikke gitt'
p23
aS'Liten tilleggsbelastning'
p24
aS'Liten tilleggsbelastning'
p25
aS'Liten tilleggsbelastning'
p26
aS'Naturlig utloest'
p27
aS'Liten tilleggsbelastning'
p28
aS'Liten tilleggsbelastning'
p29
aS'Liten tilleggsbelastning'
p30
aS'Naturlig utloest'
p31
aS'Stor tilleggsbelastning'
p32
aS'Naturlig utloest'
p33
aS'Liten tilleggsbelastning'
p34
aS'Liten tilleggsbelastning'
p35
aS'Stor tilleggsbelastning'
p36
aS'Liten tilleggsbelastning'
p37
aS'Liten tilleggsbelastning'
p38
aS'Liten tilleggsbelastning'
p39
aS'Liten tilleggsbelastning'
p40
aS'Liten tilleggsbelastning'
p41
aS'Liten tilleggsbelastning'
p42
aS'Liten tilleggsbelastning'
p43
aS'Liten tilleggsbelastning'
p44
aS'Liten tilleggsbelastning'
p45
aS'Liten tilleggsbelastning'
p46
aS'Liten tilleggsbelastning'
p47
aS'Liten tilleggsbelastning'
p48
aS'Stor tilleggsbelastning'
p49
aS'Liten tilleggsbelastning'
p50
aS'Liten tilleggsbelastning'
p51
aS'Liten tilleggsbelastning'
p52
aS'Liten tilleggsbelastning'
p53
aS'Liten tilleggsbelastning'
p54
aS'Stor tilleggsbelastning'
p55
aS'Liten tilleggsbelastning'
p56
aS'Liten tilleggsbelastning'
p57
aS'Liten tilleggsbelastning'
p58
aS'Liten tilleggsbelastning'
p59
aS'Liten tilleggsbelastning'
p60
aS'Stor tilleggsbelastning'
p61
aS'Liten tilleggsbelastning'
p62
aS'Liten tilleggsbelastning'
p63
aS'Liten tilleggsbelastning'
p64
aS'Liten tilleggsbelastning'
p65
aS'Liten tilleggsbelastning'
p66
aS'Liten tilleggsbelastning'
p67
aS'Liten tilleggsbelastning'
p68
aS'Liten tilleggsbelastning'
p69
aS'Liten tilleggsbelastning'
p70
aS'Liten tilleggsbelastning'
p71
aS'Liten tilleggsbelastning'
p72
aS'Liten tilleggsbelastning'
p73
aS'Liten tilleggsbelastning'
p74
aS'Liten tilleggsbelastning'
p75
aS'Liten tilleggsbelastning'
p76
aS'Liten tilleggsbelastning'
p77
aS'Liten tilleggsbelastning'
p78
aS'Liten tilleggsbelastning'
p79
aS'Liten tilleggsbelastning'
p80
aS'Liten tilleggsbelastning'
p81
aS'Liten tilleggsbelastning'
p82
aS'Liten tilleggsbelastning'
p83
aS'Liten tilleggsbelastning'
p84
aS'Liten tilleggsbelastning'
p85
aS'Liten tilleggsbelastning'
p86
aS'Naturlig utloest'
p87
aS'Naturlig utloest'
p88
aS'Naturlig utloest'
p89
aS'Naturlig utloest'
p90
aS'Liten tilleggsbelastning'
p91
aS'Naturlig utloest'
p92
aS'Naturlig utloest'
p93
aS'Naturlig utloest'
p94
aS'Naturlig utloest'
p95
aS'Naturlig utloest'
p96
aS'Liten tilleggsbelastning'
p97
aS'Naturlig utloest'
p98
aS'Naturlig utloest'
p99
aS'Naturlig utloest'
p100
aS'Naturlig utloest'
p101
aS'Liten tilleggsbelastning'
p102
aS'Naturlig utloest'
p103
aS'Naturlig utloest'
p104
aS'Naturlig utloest'
p105
aS'Naturlig utloest'
p106
aS'Liten tilleggsbelastning'
p107
aS'Naturlig utloest'
p108
aS'Liten tilleggsbelastning'
p109
aS'Stor tilleggsbelastning'
p110
aS'Stor tilleggsbelastning'
p111
aS'Stor tilleggsbelastning'
p112
aS'Stor tilleggsbelastning'
p113
aS'Stor tilleggsbelastning'
p114
aS'Liten tilleggsbelastning'
p115
aS'Stor tilleggsbelastning'
p116
aS'Stor tilleggsbelastning'
p117
aS'Naturlig utloest'
p118
aS'Naturlig utloest'
p119
aS'Naturlig utloest'
p120
aS'Naturlig utloest'
p121
aS'Naturlig utloest'
p122
aS'Naturlig utloest'
p123
aS'Naturlig utloest'
p124
aS'Naturlig utloest'
p125
aS'Naturlig utloest'
p126
aS'Naturlig utloest'
p127
aS'Naturlig utloest'
p128
aS'Naturlig utloest'
p129
aS'Naturlig utloest'
p130
aS'Naturlig utloest'
p131
aS'Liten tilleggsbelastning'
p132
aS'Naturlig utloest'
p133
aS'Naturlig utloest'
p134
aS'Naturlig utloest'
p135
aS'Liten tilleggsbelastning'
p136
aS'Naturlig utloest'
p137
aS'Naturlig utloest'
p138
aS'Liten tilleggsbelastning'
p139
aS'Liten tilleggsbelastning'
p140
aS'Liten tilleggsbelastning'
p141
aS'Liten tilleggsbelastning'
p142
aS'Liten tilleggsbelastning'
p143
aS'Liten tilleggsbelastning'
p144
aS'Liten tilleggsbelastning'
p145
aS'Liten tilleggsbelastning'
p146
aS'Liten tilleggsbelastning'
p147
aS'Liten tilleggsbelastning'
p148
aS'Liten tilleggsbelastning'
p149
aS'Liten tilleggsbelastning'
p150
aS'Liten tilleggsbelastning'
p151
aS'Liten tilleggsbelastning'
p152
assS'distribution'
p153
(dp154
g3
(lp155
S'Isolerte faresoner'
p156
aS'Noen bratte heng'
p157
aS'Mange bratte heng'
p158
aS'De fleste bratte heng'
p159
aS'Ogsaa i mindre bratt terreng'
p160
asg8
(lp161
g10
asg11
(lp162
S'Noen bratte heng'
p163
aS'Noen bratte heng'
p164
aS'Noen bratte heng'
p165
aS'Noen bratte heng'
p166
aS'Noen bratte heng'
p167
aS'Noen bratte heng'
p168
aS'Noen bratte heng'
p169
aS'Isolerte faresoner'
p170
aS'Noen bratte heng'
p171
aS'Noen bratte heng'
p172
aS'Ikke gitt'
p173
aS'Noen bratte heng'
p174
aS'Noen bratte heng'
p175
aS'Noen bratte heng'
p176
aS'Noen bratte heng'
p177
aS'Noen bratte heng'
p178
aS'Noen bratte heng'
p179
aS'Noen bratte heng'
p180
aS'Isolerte faresoner'
p181
aS'Isolerte faresoner'
p182
aS'Isolerte faresoner'
p183
aS'Mange bratte heng'
p184
aS'Noen bratte heng'
p185
aS'Noen bratte heng'
p186
aS'Noen bratte heng'
p187
aS'Noen bratte heng'
p188
aS'Noen bratte heng'
p189
aS'Mange bratte heng'
p190
aS'Noen bratte heng'
p191
aS'Noen bratte heng'
p192
aS'Mange bratte heng'
p193
aS'Mange bratte heng'
p194
aS'Mange bratte heng'
p195
aS'Isolerte faresoner'
p196
aS'Mange bratte heng'
p197
aS'Isolerte faresoner'
p198
aS'Isolerte faresoner'
p199
aS'Isolerte faresoner'
p200
aS'Noen bratte heng'
p201
aS'Isolerte faresoner'
p202
aS'Mange bratte heng'
p203
aS'Noen bratte heng'
p204
aS'Isolerte faresoner'
p205
aS'Noen bratte heng'
p206
aS'Noen bratte heng'
p207
aS'Isolerte faresoner'
p208
aS'Mange bratte heng'
p209
aS'Noen bratte heng'
p210
aS'Isolerte faresoner'
p211
aS'Noen bratte heng'
p212
aS'Noen bratte heng'
p213
aS'Isolerte faresoner'
p214
aS'Mange bratte heng'
p215
aS'Noen bratte heng'
p216
aS'Noen bratte heng'
p217
aS'Noen bratte heng'
p218
aS'Noen bratte heng'
p219
aS'Isolerte faresoner'
p220
aS'Mange bratte heng'
p221
aS'Noen bratte heng'
p222
aS'Noen bratte heng'
p223
aS'Noen bratte heng'
p224
aS'Noen bratte heng'
p225
aS'Noen bratte heng'
p226
aS'Noen bratte heng'
p227
aS'Noen bratte heng'
p228
aS'Noen bratte heng'
p229
aS'Noen bratte heng'
p230
aS'Noen bratte heng'
p231
aS'Noen bratte heng'
p232
aS'Noen bratte heng'
p233
aS'Noen bratte heng'
p234
aS'Noen bratte heng'
p235
aS'Isolerte faresoner'
p236
aS'Noen bratte heng'
p237
aS'Noen bratte heng'
p238
aS'Noen bratte heng'
p239
aS'Noen bratte heng'
p240
aS'Noen bratte heng'
p241
aS'Noen bratte heng'
p242
aS'Noen bratte heng'
p243
aS'Noen bratte heng'
p244
aS'Noen bratte heng'
p245
aS'Noen bratte heng'
p246
aS'Noen bratte heng'
p247
aS'Noen bratte heng'
p248
aS'Noen bratte heng'
p249
aS'Noen bratte heng'
p250
aS'Noen bratte heng'
p251
aS'Noen bratte heng'
p252
aS'Noen bratte heng'
p253
aS'Isolerte faresoner'
p254
aS'Isolerte faresoner'
p255
aS'Isolerte faresoner'
p256
aS'Noen bratte heng'
p257
aS'Isolerte faresoner'
p258
aS'Noen bratte heng'
p259
aS'Noen bratte heng'
p260
aS'Noen bratte heng'
p261
aS'Noen bratte heng'
p262
aS'Noen bratte heng'
p263
aS'Noen bratte heng'
p264
aS'Noen bratte heng'
p265
aS'Noen bratte heng'
p266
aS'Noen bratte heng'
p267
aS'Noen bratte heng'
p268
aS'Noen bratte heng'
p269
aS'Noen bratte heng'
p270
aS'Noen bratte heng'
p271
aS'Noen bratte heng'
p272
aS'Noen bratte heng'
p273
aS'Noen bratte heng'
p274
aS'Noen bratte heng'
p275
aS'Noen bratte heng'
p276
aS'Noen bratte heng'
p277
aS'Noen bratte heng'
p278
aS'Isolerte faresoner'
p279
aS'Noen bratte heng'
p280
aS'Noen bratte heng'
p281
aS'Noen bratte heng'
p282
aS'Noen bratte heng'
p283
aS'Noen bratte heng'
p284
aS'Noen bratte heng'
p285
aS'Isolerte faresoner'
p286
aS'Noen bratte heng'
p287
aS'Noen bratte heng'
p288
aS'Isolerte faresoner'
p289
aS'Isolerte faresoner'
p290
aS'Isolerte faresoner'
p291
aS'Isolerte faresoner'
p292
aS'Isolerte faresoner'
p293
aS'Isolerte faresoner'
p294
aS'Isolerte faresoner'
p295
aS'Isolerte faresoner'
p296
aS'Isolerte faresoner'
p297
aS'Noen bratte heng'
p298
aS'Noen bratte heng'
p299
aS'Isolerte faresoner'
p300
aS'Isolerte faresoner'
p301
aS'Isolerte faresoner'
p302
assS'size'
p303
(dp304
g3
(lp305
S'1 - Harmloest'
p306
aS'2 - Smaa'
p307
aS'3 - Middels'
p308
aS'4 - Store'
p309
aS'5 - Svaert store'
p310
aS'Ukjent'
p311
asg8
(lp312
g10
asg11
(lp313
S'2 - Smaa'
p314
aS'2 - Smaa'
p315
aS'3 - Middels'
p316
aS'2 - Smaa'
p317
aS'2 - Smaa'
p318
aS'2 - Smaa'
p319
aS'2 - Smaa'
p320
aS'3 - Middels'
p321
aS'3 - Middels'
p322
aS'2 - Smaa'
p323
aS'2 - Smaa'
p324
aS'2 - Smaa'
p325
aS'2 - Smaa'
p326
aS'3 - Middels'
p327
aS'3 - Middels'
p328
aS'3 - Middels'
p329
aS'2 - Smaa'
p330
aS'2 - Smaa'
p331
aS'3 - Middels'
p332
aS'3 - Middels'
p333
aS'3 - Middels'
p334
aS'3 - Middels'
p335
aS'2 - Smaa'
p336
aS'3 - Middels'
p337
aS'2 - Smaa'
p338
aS'2 - Smaa'
p339
aS'3 - Middels'
p340
aS'3 - Middels'
p341
aS'2 - Smaa'
p342
aS'2 - Smaa'
p343
aS'3 - Middels'
p344
aS'3 - Middels'
p345
aS'3 - Middels'
p346
aS'3 - Middels'
p347
aS'3 - Middels'
p348
aS'3 - Middels'
p349
aS'2 - Smaa'
p350
aS'3 - Middels'
p351
aS'3 - Middels'
p352
aS'3 - Middels'
p353
aS'3 - Middels'
p354
aS'3 - Middels'
p355
aS'2 - Smaa'
p356
aS'2 - Smaa'
p357
aS'3 - Middels'
p358
aS'3 - Middels'
p359
aS'3 - Middels'
p360
aS'3 - Middels'
p361
aS'2 - Smaa'
p362
aS'2 - Smaa'
p363
aS'3 - Middels'
p364
aS'3 - Middels'
p365
aS'3 - Middels'
p366
aS'3 - Middels'
p367
aS'2 - Smaa'
p368
aS'2 - Smaa'
p369
aS'3 - Middels'
p370
aS'3 - Middels'
p371
aS'3 - Middels'
p372
aS'2 - Smaa'
p373
aS'3 - Middels'
p374
aS'2 - Smaa'
p375
aS'2 - Smaa'
p376
aS'2 - Smaa'
p377
aS'2 - Smaa'
p378
aS'2 - Smaa'
p379
aS'2 - Smaa'
p380
aS'2 - Smaa'
p381
aS'2 - Smaa'
p382
aS'2 - Smaa'
p383
aS'2 - Smaa'
p384
aS'2 - Smaa'
p385
aS'2 - Smaa'
p386
aS'3 - Middels'
p387
aS'2 - Smaa'
p388
aS'2 - Smaa'
p389
aS'2 - Smaa'
p390
aS'2 - Smaa'
p391
aS'3 - Middels'
p392
aS'2 - Smaa'
p393
aS'2 - Smaa'
p394
aS'2 - Smaa'
p395
aS'2 - Smaa'
p396
aS'2 - Smaa'
p397
aS'3 - Middels'
p398
aS'2 - Smaa'
p399
aS'2 - Smaa'
p400
aS'2 - Smaa'
p401
aS'2 - Smaa'
p402
aS'3 - Middels'
p403
aS'2 - Smaa'
p404
aS'2 - Smaa'
p405
aS'2 - Smaa'
p406
aS'2 - Smaa'
p407
aS'3 - Middels'
p408
aS'2 - Smaa'
p409
aS'2 - Smaa'
p410
aS'2 - Smaa'
p411
aS'2 - Smaa'
p412
aS'2 - Smaa'
p413
aS'2 - Smaa'
p414
aS'2 - Smaa'
p415
aS'2 - Smaa'
p416
aS'2 - Smaa'
p417
aS'2 - Smaa'
p418
aS'2 - Smaa'
p419
aS'2 - Smaa'
p420
aS'2 - Smaa'
p421
aS'2 - Smaa'
p422
aS'2 - Smaa'
p423
aS'2 - Smaa'
p424
aS'2 - Smaa'
p425
aS'2 - Smaa'
p426
aS'2 - Smaa'
p427
aS'2 - Smaa'
p428
aS'2 - Smaa'
p429
aS'2 - Smaa'
p430
aS'2 - Smaa'
p431
aS'2 - Smaa'
p432
aS'2 - Smaa'
p433
aS'2 - Smaa'
p434
aS'2 - Smaa'
p435
aS'2 - Smaa'
p436
aS'2 - Smaa'
p437
aS'2 - Smaa'
p438
aS'2 - Smaa'
p439
aS'2 - Smaa'
p440
aS'2 - Smaa'
p441
aS'2 - Smaa'
p442
aS'2 - Smaa'
p443
aS'2 - Smaa'
p444
aS'2 - Smaa'
p445
aS'2 - Smaa'
p446
aS'2 - Smaa'
p447
aS'2 - Smaa'
p448
aS'2 - Smaa'
p449
aS'2 - Smaa'
p450
aS'2 - Smaa'
p451
aS'2 - Smaa'
p452
aS'2 - Smaa'
p453
assS'probability'
p454
(dp455
g3
(lp456
S'Lite sannsynlig'
p457
aS'Mulig'
p458
aS'Sannsynlig'
p459
aS'Meget sannsynlig'
p460
asg8
(lp461
g10
asg11
(lp462
S'Mulig'
p463
aS'Mulig'
p464
aS'Mulig'
p465
aS'Mulig'
p466
aS'Mulig'
p467
aS'Mulig'
p468
aS'Mulig'
p469
aS'Mulig'
p470
aS'Mulig'
p471
aS'Mulig'
p472
aS'Ikke gitt'
p473
aS'Mulig'
p474
aS'Mulig'
p475
aS'Mulig'
p476
aS'Mulig'
p477
aS'Mulig'
p478
aS'Mulig'
p479
aS'Mulig'
p480
aS'Mulig'
p481
aS'Mulig'
p482
aS'Mulig'
p483
aS'Mulig'
p484
aS'Mulig'
p485
aS'Mulig'
p486
aS'Mulig'
p487
aS'Mulig'
p488
aS'Mulig'
p489
aS'Mulig'
p490
aS'Mulig'
p491
aS'Mulig'
p492
aS'Mulig'
p493
aS'Mulig'
p494
aS'Mulig'
p495
aS'Mulig'
p496
aS'Mulig'
p497
aS'Mulig'
p498
aS'Mulig'
p499
aS'Mulig'
p500
aS'Mulig'
p501
aS'Mulig'
p502
aS'Mulig'
p503
aS'Mulig'
p504
aS'Mulig'
p505
aS'Mulig'
p506
aS'Mulig'
p507
aS'Mulig'
p508
aS'Mulig'
p509
aS'Mulig'
p510
aS'Mulig'
p511
aS'Mulig'
p512
aS'Mulig'
p513
aS'Mulig'
p514
aS'Mulig'
p515
aS'Mulig'
p516
aS'Mulig'
p517
aS'Mulig'
p518
aS'Mulig'
p519
aS'Mulig'
p520
aS'Mulig'
p521
aS'Mulig'
p522
aS'Mulig'
p523
aS'Mulig'
p524
aS'Mulig'
p525
aS'Mulig'
p526
aS'Mulig'
p527
aS'Mulig'
p528
aS'Mulig'
p529
aS'Mulig'
p530
aS'Mulig'
p531
aS'Mulig'
p532
aS'Mulig'
p533
aS'Mulig'
p534
aS'Mulig'
p535
aS'Mulig'
p536
aS'Mulig'
p537
aS'Mulig'
p538
aS'Mulig'
p539
aS'Mulig'
p540
aS'Mulig'
p541
aS'Mulig'
p542
aS'Mulig'
p543
aS'Mulig'
p544
aS'Mulig'
p545
aS'Mulig'
p546
aS'Mulig'
p547
aS'Mulig'
p548
aS'Mulig'
p549
aS'Mulig'
p550
aS'Mulig'
p551
aS'Mulig'
p552
aS'Mulig'
p553
aS'Mulig'
p554
aS'Mulig'
p555
aS'Mulig'
p556
aS'Mulig'
p557
aS'Mulig'
p558
aS'Sannsynlig'
p559
aS'Mulig'
p560
aS'Mulig'
p561
aS'Mulig'
p562
aS'Mulig'
p563
aS'Mulig'
p564
aS'Sannsynlig'
p565
aS'Mulig'
p566
aS'Mulig'
p567
aS'Mulig'
p568
aS'Mulig'
p569
aS'Mulig'
p570
aS'Mulig'
p571
aS'Mulig'
p572
aS'Mulig'
p573
aS'Mulig'
p574
aS'Mulig'
p575
aS'Mulig'
p576
aS'Mulig'
p577
aS'Mulig'
p578
aS'Mulig'
p579
aS'Mulig'
p580
aS'Mulig'
p581
aS'Mulig'
p582
aS'Mulig'
p583
aS'Mulig'
p584
aS'Mulig'
p585
aS'Mulig'
p586
aS'Mulig'
p587
aS'Mulig'
p588
aS'Mulig'
p589
aS'Mulig'
p590
aS'Mulig'
p591
aS'Mulig'
p592
aS'Mulig'
p593
aS'Mulig'
p594
aS'Mulig'
p595
aS'Mulig'
p596
aS'Mulig'
p597
aS'Mulig'
p598
aS'Mulig'
p599
aS'Mulig'
p600
aS'Mulig'
p601
aS'Mulig'
p602
assS'level'
p603
(dp604
g3
(lp605
I1
aI2
aI3
aI4
aI5
asg8
(lp606
S'#ccff66'
p607
aS'#ffff00'
p608
aS'#ff9900'
p609
aS'#ff0000'
p610
aS'k'
p611
asg11
(lp612
I3
aI2
aI3
aI2
aI2
aI2
aI3
aI2
aI3
aI2
aI2
aI2
aI3
aI3
aI3
aI3
aI2
aI3
aI3
aI2
aI3
aI3
aI2
aI2
aI3
aI2
aI3
aI3
aI2
aI2
aI3
aI3
aI3
aI2
aI3
aI2
aI2
aI2
aI3
aI2
aI3
aI3
aI2
aI2
aI3
aI2
aI3
aI3
aI2
aI2
aI3
aI2
aI3
aI3
aI3
aI2
aI3
aI2
aI3
aI2
aI3
aI2
aI2
aI2
aI2
aI2
aI2
aI2
aI2
aI2
aI2
aI2
aI2
aI2
aI2
aI2
aI2
aI2
aI3
aI2
aI2
aI2
aI2
aI2
aI3
aI2
aI2
aI2
aI2
aI3
aI2
aI2
aI1
aI1
aI3
aI1
aI3
aI2
aI2
aI2
aI2
aI2
aI3
aI2
aI2
aI2
aI2
aI2
aI2
aI2
aI2
aI2
aI2
aI2
aI2
aI2
aI1
aI2
aI2
aI2
aI2
aI2
aI2
aI1
aI2
aI2
aI2
aI2
aI2
aI2
aI1
aI2
aI2
aI2
aI2
aI2
aI2
aI1
aI2
aI2
ass.