(lp0
(irunmatrix
M3Element
p1
(dp2
S'danger_level_average'
p3
NsS'probability'
p4
S'Lite sannsynlig, Mulig'
p5
sS'colour'
p6
S'white'
p7
sS'danger_level_list'
p8
(lp9
sS'label_probalility'
p10
S'Possible'
p11
sS'label_distribution'
p12
S'Isolated'
p13
sS'recomended_colour'
p14
S'#ccff66'
p15
sS'recomended_danger_level'
p16
I1
sS'label_trigger'
p17
S'High'
p18
sS'trigger'
p19
S'Stor tilleggsbelastning'
p20
sS'occurrences'
p21
NsS'y'
p22
S'100'
p23
sS'x'
p24
S'100'
p25
sS'distribution'
p26
S'Isolerte faresoner'
p27
sS'danger_level_standard_dev'
p28
NsS'label_size'
p29
S'1'
p30
sS'avalanche_size'
p31
S'1 - Harmloest'
p32
sba(irunmatrix
M3Element
p33
(dp34
g3
Nsg4
S'Lite sannsynlig, Mulig'
p35
sg6
S'white'
p36
sg8
(lp37
sg10
S'Possible'
p38
sg12
S'Isolated'
p39
sg14
g15
sg16
I1
sg17
S'Low'
p40
sg19
S'Liten tilleggsbelastning'
p41
sg21
Nsg22
S'100'
p42
sg24
S'200'
p43
sg26
S'Isolerte faresoner'
p44
sg28
Nsg29
g30
sg31
S'1 - Harmloest'
p45
sba(irunmatrix
M3Element
p46
(dp47
g3
Nsg4
S'Lite sannsynlig, Mulig'
p48
sg6
S'white'
p49
sg8
(lp50
sg10
S'Possible'
p51
sg12
S'Isolated'
p52
sg14
g15
sg16
I1
sg17
S'Nat'
p53
sg19
S'Naturlig utloest'
p54
sg21
Nsg22
S'100'
p55
sg24
S'300'
p56
sg26
S'Isolerte faresoner'
p57
sg28
Nsg29
g30
sg31
S'1 - Harmloest'
p58
sba(irunmatrix
M3Element
p59
(dp60
g3
Nsg4
S'Sannsynlig, Meget sannsynlig'
p61
sg6
S'gray'
p62
sg8
(lp63
sg10
S'Likely'
p64
sg12
S'Isolated'
p65
sg14
S'gray'
p66
sg16
I0
sg17
S'High'
p67
sg19
S'Stor tilleggsbelastning'
p68
sg21
Nsg22
S'100'
p69
sg24
S'400'
p70
sg26
S'Isolerte faresoner'
p71
sg28
Nsg29
g30
sg31
S'1 - Harmloest'
p72
sba(irunmatrix
M3Element
p73
(dp74
g3
Nsg4
S'Sannsynlig, Meget sannsynlig'
p75
sg6
S'gray'
p76
sg8
(lp77
sg10
S'Likely'
p78
sg12
S'Isolated'
p79
sg14
g66
sg16
I0
sg17
S'Low'
p80
sg19
S'Liten tilleggsbelastning'
p81
sg21
Nsg22
S'100'
p82
sg24
S'500'
p83
sg26
S'Isolerte faresoner'
p84
sg28
Nsg29
g30
sg31
S'1 - Harmloest'
p85
sba(irunmatrix
M3Element
p86
(dp87
g3
Nsg4
S'Sannsynlig, Meget sannsynlig'
p88
sg6
S'gray'
p89
sg8
(lp90
sg10
S'Likely'
p91
sg12
S'Isolated'
p92
sg14
g66
sg16
I0
sg17
S'Nat'
p93
sg19
S'Naturlig utloest'
p94
sg21
Nsg22
S'100'
p95
sg24
S'600'
p96
sg26
S'Isolerte faresoner'
p97
sg28
Nsg29
g30
sg31
S'1 - Harmloest'
p98
sba(irunmatrix
M3Element
p99
(dp100
g3
Nsg4
S'Lite sannsynlig, Mulig'
p101
sg6
S'white'
p102
sg8
(lp103
sg10
S'Possible'
p104
sg12
S'Some'
p105
sg14
g15
sg16
I1
sg17
S'High'
p106
sg19
S'Stor tilleggsbelastning'
p107
sg21
Nsg22
S'100'
p108
sg24
S'700'
p109
sg26
S'Noen bratte heng'
p110
sg28
Nsg29
g30
sg31
S'1 - Harmloest'
p111
sba(irunmatrix
M3Element
p112
(dp113
g3
Nsg4
S'Lite sannsynlig, Mulig'
p114
sg6
S'white'
p115
sg8
(lp116
sg10
S'Possible'
p117
sg12
S'Some'
p118
sg14
g15
sg16
I1
sg17
S'Low'
p119
sg19
S'Liten tilleggsbelastning'
p120
sg21
Nsg22
S'100'
p121
sg24
S'800'
p122
sg26
S'Noen bratte heng'
p123
sg28
Nsg29
g30
sg31
S'1 - Harmloest'
p124
sba(irunmatrix
M3Element
p125
(dp126
g3
Nsg4
S'Lite sannsynlig, Mulig'
p127
sg6
S'white'
p128
sg8
(lp129
sg10
S'Possible'
p130
sg12
S'Some'
p131
sg14
g15
sg16
I1
sg17
S'Nat'
p132
sg19
S'Naturlig utloest'
p133
sg21
Nsg22
S'100'
p134
sg24
S'900'
p135
sg26
S'Noen bratte heng'
p136
sg28
Nsg29
g30
sg31
S'1 - Harmloest'
p137
sba(irunmatrix
M3Element
p138
(dp139
g3
Nsg4
S'Sannsynlig, Meget sannsynlig'
p140
sg6
S'gray'
p141
sg8
(lp142
sg10
S'Likely'
p143
sg12
S'Some'
p144
sg14
g66
sg16
I0
sg17
S'High'
p145
sg19
S'Stor tilleggsbelastning'
p146
sg21
Nsg22
S'100'
p147
sg24
S'1000'
p148
sg26
S'Noen bratte heng'
p149
sg28
Nsg29
g30
sg31
S'1 - Harmloest'
p150
sba(irunmatrix
M3Element
p151
(dp152
g3
Nsg4
S'Sannsynlig, Meget sannsynlig'
p153
sg6
S'gray'
p154
sg8
(lp155
sg10
S'Likely'
p156
sg12
S'Some'
p157
sg14
g66
sg16
I0
sg17
S'Low'
p158
sg19
S'Liten tilleggsbelastning'
p159
sg21
Nsg22
S'100'
p160
sg24
S'1100'
p161
sg26
S'Noen bratte heng'
p162
sg28
Nsg29
g30
sg31
S'1 - Harmloest'
p163
sba(irunmatrix
M3Element
p164
(dp165
g3
Nsg4
S'Sannsynlig, Meget sannsynlig'
p166
sg6
S'white'
p167
sg8
(lp168
sg10
S'Likely'
p169
sg12
S'Some'
p170
sg14
g15
sg16
I1
sg17
S'Nat'
p171
sg19
S'Naturlig utloest'
p172
sg21
Nsg22
S'100'
p173
sg24
S'1200'
p174
sg26
S'Noen bratte heng'
p175
sg28
Nsg29
g30
sg31
S'1 - Harmloest'
p176
sba(irunmatrix
M3Element
p177
(dp178
g3
Nsg4
S'Lite sannsynlig, Mulig'
p179
sg6
S'gray'
p180
sg8
(lp181
sg10
S'Possible'
p182
sg12
S'Many'
p183
sg14
g66
sg16
I0
sg17
S'High'
p184
sg19
S'Stor tilleggsbelastning'
p185
sg21
Nsg22
S'100'
p186
sg24
S'1300'
p187
sg26
S'Mange bratte heng'
p188
sg28
Nsg29
g30
sg31
S'1 - Harmloest'
p189
sba(irunmatrix
M3Element
p190
(dp191
g3
Nsg4
S'Lite sannsynlig, Mulig'
p192
sg6
S'white'
p193
sg8
(lp194
sg10
S'Possible'
p195
sg12
S'Many'
p196
sg14
g15
sg16
I1
sg17
S'Low'
p197
sg19
S'Liten tilleggsbelastning'
p198
sg21
Nsg22
S'100'
p199
sg24
S'1400'
p200
sg26
S'Mange bratte heng'
p201
sg28
Nsg29
g30
sg31
S'1 - Harmloest'
p202
sba(irunmatrix
M3Element
p203
(dp204
g3
Nsg4
S'Lite sannsynlig, Mulig'
p205
sg6
S'gray'
p206
sg8
(lp207
sg10
S'Possible'
p208
sg12
S'Many'
p209
sg14
g66
sg16
I0
sg17
S'Nat'
p210
sg19
S'Naturlig utloest'
p211
sg21
Nsg22
S'100'
p212
sg24
S'1500'
p213
sg26
S'Mange bratte heng'
p214
sg28
Nsg29
g30
sg31
S'1 - Harmloest'
p215
sba(irunmatrix
M3Element
p216
(dp217
g3
Nsg4
S'Sannsynlig, Meget sannsynlig'
p218
sg6
S'gray'
p219
sg8
(lp220
sg10
S'Likely'
p221
sg12
S'Many'
p222
sg14
g66
sg16
I0
sg17
S'High'
p223
sg19
S'Stor tilleggsbelastning'
p224
sg21
Nsg22
S'100'
p225
sg24
S'1600'
p226
sg26
S'Mange bratte heng'
p227
sg28
Nsg29
g30
sg31
S'1 - Harmloest'
p228
sba(irunmatrix
M3Element
p229
(dp230
g3
Nsg4
S'Sannsynlig, Meget sannsynlig'
p231
sg6
S'white'
p232
sg8
(lp233
sg10
S'Likely'
p234
sg12
S'Many'
p235
sg14
S'#ffff00'
p236
sg16
I2
sg17
S'Low'
p237
sg19
S'Liten tilleggsbelastning'
p238
sg21
Nsg22
S'100'
p239
sg24
S'1700'
p240
sg26
S'Mange bratte heng'
p241
sg28
Nsg29
g30
sg31
S'1 - Harmloest'
p242
sba(irunmatrix
M3Element
p243
(dp244
g3
Nsg4
S'Sannsynlig, Meget sannsynlig'
p245
sg6
S'white'
p246
sg8
(lp247
sg10
S'Likely'
p248
sg12
S'Many'
p249
sg14
g236
sg16
I2
sg17
S'Nat'
p250
sg19
S'Naturlig utloest'
p251
sg21
Nsg22
S'100'
p252
sg24
S'1800'
p253
sg26
S'Mange bratte heng'
p254
sg28
Nsg29
g30
sg31
S'1 - Harmloest'
p255
sba(irunmatrix
M3Element
p256
(dp257
g3
Nsg4
S'Lite sannsynlig, Mulig'
p258
sg6
S'gray'
p259
sg8
(lp260
sg10
S'Possible'
p261
sg12
S'Most'
p262
sg14
g66
sg16
I0
sg17
S'High'
p263
sg19
S'Stor tilleggsbelastning'
p264
sg21
Nsg22
S'100'
p265
sg24
S'1900'
p266
sg26
S'De fleste bratte heng, Ogsaa i mindre bratt terreng'
p267
sg28
Nsg29
g30
sg31
S'1 - Harmloest'
p268
sba(irunmatrix
M3Element
p269
(dp270
g3
Nsg4
S'Lite sannsynlig, Mulig'
p271
sg6
S'gray'
p272
sg8
(lp273
sg10
S'Possible'
p274
sg12
S'Most'
p275
sg14
g66
sg16
I0
sg17
S'Low'
p276
sg19
S'Liten tilleggsbelastning'
p277
sg21
Nsg22
S'100'
p278
sg24
S'2000'
p279
sg26
S'De fleste bratte heng, Ogsaa i mindre bratt terreng'
p280
sg28
Nsg29
g30
sg31
S'1 - Harmloest'
p281
sba(irunmatrix
M3Element
p282
(dp283
g3
Nsg4
S'Lite sannsynlig, Mulig'
p284
sg6
S'gray'
p285
sg8
(lp286
sg10
S'Possible'
p287
sg12
S'Most'
p288
sg14
g66
sg16
I0
sg17
S'Nat'
p289
sg19
S'Naturlig utloest'
p290
sg21
Nsg22
S'100'
p291
sg24
S'2100'
p292
sg26
S'De fleste bratte heng, Ogsaa i mindre bratt terreng'
p293
sg28
Nsg29
g30
sg31
S'1 - Harmloest'
p294
sba(irunmatrix
M3Element
p295
(dp296
g3
Nsg4
S'Sannsynlig, Meget sannsynlig'
p297
sg6
S'gray'
p298
sg8
(lp299
sg10
S'Likely'
p300
sg12
S'Most'
p301
sg14
g66
sg16
I0
sg17
S'High'
p302
sg19
S'Stor tilleggsbelastning'
p303
sg21
Nsg22
S'100'
p304
sg24
S'2200'
p305
sg26
S'De fleste bratte heng, Ogsaa i mindre bratt terreng'
p306
sg28
Nsg29
g30
sg31
S'1 - Harmloest'
p307
sba(irunmatrix
M3Element
p308
(dp309
g3
Nsg4
S'Sannsynlig, Meget sannsynlig'
p310
sg6
S'gray'
p311
sg8
(lp312
sg10
S'Likely'
p313
sg12
S'Most'
p314
sg14
g66
sg16
I0
sg17
S'Low'
p315
sg19
S'Liten tilleggsbelastning'
p316
sg21
Nsg22
S'100'
p317
sg24
S'2300'
p318
sg26
S'De fleste bratte heng, Ogsaa i mindre bratt terreng'
p319
sg28
Nsg29
g30
sg31
S'1 - Harmloest'
p320
sba(irunmatrix
M3Element
p321
(dp322
g3
Nsg4
S'Sannsynlig, Meget sannsynlig'
p323
sg6
S'white'
p324
sg8
(lp325
sg10
S'Likely'
p326
sg12
S'Most'
p327
sg14
g66
sg16
I0
sg17
S'Nat'
p328
sg19
S'Naturlig utloest'
p329
sg21
Nsg22
S'100'
p330
sg24
S'2400'
p331
sg26
S'De fleste bratte heng, Ogsaa i mindre bratt terreng'
p332
sg28
Nsg29
S'2'
p333
sg31
S'1 - Harmloest'
p334
sba(irunmatrix
M3Element
p335
(dp336
g3
F2.0
sg4
S'Lite sannsynlig, Mulig'
p337
sg6
S'#ffff00'
p338
sg8
(lp339
I2
aI2
aI2
asg10
S'Possible'
p340
sg12
S'Isolated'
p341
sg14
g15
sg16
I1
sg17
S'High'
p342
sg19
S'Stor tilleggsbelastning'
p343
sg21
I3
sg22
S'200'
p344
sg24
S'100'
p345
sg26
S'Isolerte faresoner'
p346
sg28
cnumpy.core.multiarray
scalar
p347
(cnumpy
dtype
p348
(S'f8'
p349
I0
I1
tp350
Rp351
(I3
S'<'
p352
NNNI-1
I-1
I0
tp353
bS'\x00\x00\x00\x00\x00\x00\x00\x00'
p354
tp355
Rp356
sg29
g333
sg31
S'2 - Smaa'
p357
sba(irunmatrix
M3Element
p358
(dp359
g3
F1.7692307692307692
sg4
S'Lite sannsynlig, Mulig'
p360
sg6
g338
sg8
(lp361
I1
aI2
aI2
aI2
aI2
aI1
aI2
aI2
aI2
aI2
aI1
aI2
aI2
asg10
S'Possible'
p362
sg12
S'Isolated'
p363
sg14
g15
sg16
I1
sg17
S'Low'
p364
sg19
S'Liten tilleggsbelastning'
p365
sg21
I13
sg22
S'200'
p366
sg24
S'200'
p367
sg26
S'Isolerte faresoner'
p368
sg28
g347
(g351
S'\x9dU~Q\xfd\xf6\xda?'
p369
tp370
Rp371
sg29
g333
sg31
S'2 - Smaa'
p372
sba(irunmatrix
M3Element
p373
(dp374
g3
F1.2
sg4
S'Lite sannsynlig, Mulig'
p375
sg6
S'#ccff66'
p376
sg8
(lp377
I2
aI1
aI1
aI1
aI1
asg10
S'Possible'
p378
sg12
S'Isolated'
p379
sg14
g15
sg16
I1
sg17
S'Nat'
p380
sg19
S'Naturlig utloest'
p381
sg21
I5
sg22
S'200'
p382
sg24
S'300'
p383
sg26
S'Isolerte faresoner'
p384
sg28
g347
(g351
S'\x9b\x99\x99\x99\x99\x99\xd9?'
p385
tp386
Rp387
sg29
g333
sg31
S'2 - Smaa'
p388
sba(irunmatrix
M3Element
p389
(dp390
g3
Nsg4
S'Sannsynlig, Meget sannsynlig'
p391
sg6
S'gray'
p392
sg8
(lp393
sg10
S'Likely'
p394
sg12
S'Isolated'
p395
sg14
g66
sg16
I0
sg17
S'High'
p396
sg19
S'Stor tilleggsbelastning'
p397
sg21
Nsg22
S'200'
p398
sg24
S'400'
p399
sg26
S'Isolerte faresoner'
p400
sg28
Nsg29
g333
sg31
S'2 - Smaa'
p401
sba(irunmatrix
M3Element
p402
(dp403
g3
Nsg4
S'Sannsynlig, Meget sannsynlig'
p404
sg6
S'gray'
p405
sg8
(lp406
sg10
S'Likely'
p407
sg12
S'Isolated'
p408
sg14
g66
sg16
I0
sg17
S'Low'
p409
sg19
S'Liten tilleggsbelastning'
p410
sg21
Nsg22
S'200'
p411
sg24
S'500'
p412
sg26
S'Isolerte faresoner'
p413
sg28
Nsg29
g333
sg31
S'2 - Smaa'
p414
sba(irunmatrix
M3Element
p415
(dp416
g3
Nsg4
S'Sannsynlig, Meget sannsynlig'
p417
sg6
S'gray'
p418
sg8
(lp419
sg10
S'Likely'
p420
sg12
S'Isolated'
p421
sg14
g66
sg16
I0
sg17
S'Nat'
p422
sg19
S'Naturlig utloest'
p423
sg21
Nsg22
S'200'
p424
sg24
S'600'
p425
sg26
S'Isolerte faresoner'
p426
sg28
Nsg29
g333
sg31
S'2 - Smaa'
p427
sba(irunmatrix
M3Element
p428
(dp429
g3
F2.0
sg4
S'Lite sannsynlig, Mulig'
p430
sg6
g338
sg8
(lp431
I2
aI2
aI2
aI2
aI2
aI2
aI2
aI2
asg10
S'Possible'
p432
sg12
S'Some'
p433
sg14
g236
sg16
I2
sg17
S'High'
p434
sg19
S'Stor tilleggsbelastning'
p435
sg21
I8
sg22
S'200'
p436
sg24
S'700'
p437
sg26
S'Noen bratte heng'
p438
sg28
g347
(g351
S'\x00\x00\x00\x00\x00\x00\x00\x00'
p439
tp440
Rp441
sg29
g333
sg31
S'2 - Smaa'
p442
sba(irunmatrix
M3Element
p443
(dp444
g3
F2.1714285714285713
sg4
S'Lite sannsynlig, Mulig'
p445
sg6
g338
sg8
(lp446
I3
aI2
aI2
aI2
aI3
aI2
aI2
aI3
aI2
aI3
aI2
aI3
aI2
aI2
aI2
aI2
aI2
aI3
aI2
aI2
aI2
aI2
aI2
aI2
aI2
aI2
aI2
aI2
aI2
aI2
aI2
aI2
aI2
aI2
aI2
asg10
S'Possible'
p447
sg12
S'Some'
p448
sg14
g236
sg16
I2
sg17
S'Low'
p449
sg19
S'Liten tilleggsbelastning'
p450
sg21
I35
sg22
S'200'
p451
sg24
S'800'
p452
sg26
S'Noen bratte heng'
p453
sg28
g347
(g351
S'P\xb8@\xfd\xd9\x1e\xd8?'
p454
tp455
Rp456
sg29
g333
sg31
S'2 - Smaa'
p457
sba(irunmatrix
M3Element
p458
(dp459
g3
F2.0
sg4
S'Lite sannsynlig, Mulig'
p460
sg6
g338
sg8
(lp461
I2
aI2
aI2
aI2
aI2
aI2
aI2
aI2
aI2
aI2
aI2
aI2
aI2
aI2
aI2
aI2
aI2
aI2
aI2
aI2
aI2
aI2
aI2
aI2
aI2
aI2
aI2
aI2
aI2
aI2
aI2
aI2
asg10
S'Possible'
p462
sg12
S'Some'
p463
sg14
g236
sg16
I2
sg17
S'Nat'
p464
sg19
S'Naturlig utloest'
p465
sg21
I32
sg22
S'200'
p466
sg24
S'900'
p467
sg26
S'Noen bratte heng'
p468
sg28
g347
(g351
S'\x00\x00\x00\x00\x00\x00\x00\x00'
p469
tp470
Rp471
sg29
g333
sg31
S'2 - Smaa'
p472
sba(irunmatrix
M3Element
p473
(dp474
g3
Nsg4
S'Sannsynlig, Meget sannsynlig'
p475
sg6
S'gray'
p476
sg8
(lp477
sg10
S'Likely'
p478
sg12
S'Some'
p479
sg14
g66
sg16
I0
sg17
S'High'
p480
sg19
S'Stor tilleggsbelastning'
p481
sg21
Nsg22
S'200'
p482
sg24
S'1000'
p483
sg26
S'Noen bratte heng'
p484
sg28
Nsg29
g333
sg31
S'2 - Smaa'
p485
sba(irunmatrix
M3Element
p486
(dp487
g3
F3.0
sg4
S'Sannsynlig, Meget sannsynlig'
p488
sg6
S'#ff9900'
p489
sg8
(lp490
I3
aI3
asg10
S'Likely'
p491
sg12
S'Some'
p492
sg14
g66
sg16
I0
sg17
S'Low'
p493
sg19
S'Liten tilleggsbelastning'
p494
sg21
I2
sg22
S'200'
p495
sg24
S'1100'
p496
sg26
S'Noen bratte heng'
p497
sg28
g347
(g351
S'\x00\x00\x00\x00\x00\x00\x00\x00'
p498
tp499
Rp500
sg29
g333
sg31
S'2 - Smaa'
p501
sba(irunmatrix
M3Element
p502
(dp503
g3
Nsg4
S'Sannsynlig, Meget sannsynlig'
p504
sg6
S'white'
p505
sg8
(lp506
sg10
S'Likely'
p507
sg12
S'Some'
p508
sg14
S'#ff9900'
p509
sg16
I3
sg17
S'Nat'
p510
sg19
S'Naturlig utloest'
p511
sg21
Nsg22
S'200'
p512
sg24
S'1200'
p513
sg26
S'Noen bratte heng'
p514
sg28
Nsg29
g333
sg31
S'2 - Smaa'
p515
sba(irunmatrix
M3Element
p516
(dp517
g3
Nsg4
S'Lite sannsynlig, Mulig'
p518
sg6
S'gray'
p519
sg8
(lp520
sg10
S'Possible'
p521
sg12
S'Many'
p522
sg14
g66
sg16
I0
sg17
S'High'
p523
sg19
S'Stor tilleggsbelastning'
p524
sg21
Nsg22
S'200'
p525
sg24
S'1300'
p526
sg26
S'Mange bratte heng'
p527
sg28
Nsg29
g333
sg31
S'2 - Smaa'
p528
sba(irunmatrix
M3Element
p529
(dp530
g3
Nsg4
S'Lite sannsynlig, Mulig'
p531
sg6
S'white'
p532
sg8
(lp533
sg10
S'Possible'
p534
sg12
S'Many'
p535
sg14
g509
sg16
I3
sg17
S'Low'
p536
sg19
S'Liten tilleggsbelastning'
p537
sg21
Nsg22
S'200'
p538
sg24
S'1400'
p539
sg26
S'Mange bratte heng'
p540
sg28
Nsg29
g333
sg31
S'2 - Smaa'
p541
sba(irunmatrix
M3Element
p542
(dp543
g3
Nsg4
S'Lite sannsynlig, Mulig'
p544
sg6
S'gray'
p545
sg8
(lp546
sg10
S'Possible'
p547
sg12
S'Many'
p548
sg14
g66
sg16
I0
sg17
S'Nat'
p549
sg19
S'Naturlig utloest'
p550
sg21
Nsg22
S'200'
p551
sg24
S'1500'
p552
sg26
S'Mange bratte heng'
p553
sg28
Nsg29
g333
sg31
S'2 - Smaa'
p554
sba(irunmatrix
M3Element
p555
(dp556
g3
Nsg4
S'Sannsynlig, Meget sannsynlig'
p557
sg6
S'gray'
p558
sg8
(lp559
sg10
S'Likely'
p560
sg12
S'Many'
p561
sg14
g66
sg16
I0
sg17
S'High'
p562
sg19
S'Stor tilleggsbelastning'
p563
sg21
Nsg22
S'200'
p564
sg24
S'1600'
p565
sg26
S'Mange bratte heng'
p566
sg28
Nsg29
g333
sg31
S'2 - Smaa'
p567
sba(irunmatrix
M3Element
p568
(dp569
g3
Nsg4
S'Sannsynlig, Meget sannsynlig'
p570
sg6
S'white'
p571
sg8
(lp572
sg10
S'Likely'
p573
sg12
S'Many'
p574
sg14
S'#ff0000'
p575
sg16
I4
sg17
S'Low'
p576
sg19
S'Liten tilleggsbelastning'
p577
sg21
Nsg22
S'200'
p578
sg24
S'1700'
p579
sg26
S'Mange bratte heng'
p580
sg28
Nsg29
g333
sg31
S'2 - Smaa'
p581
sba(irunmatrix
M3Element
p582
(dp583
g3
Nsg4
S'Sannsynlig, Meget sannsynlig'
p584
sg6
S'white'
p585
sg8
(lp586
sg10
S'Likely'
p587
sg12
S'Many'
p588
sg14
g575
sg16
I4
sg17
S'Nat'
p589
sg19
S'Naturlig utloest'
p590
sg21
Nsg22
S'200'
p591
sg24
S'1800'
p592
sg26
S'Mange bratte heng'
p593
sg28
Nsg29
g333
sg31
S'2 - Smaa'
p594
sba(irunmatrix
M3Element
p595
(dp596
g3
Nsg4
S'Lite sannsynlig, Mulig'
p597
sg6
S'gray'
p598
sg8
(lp599
sg10
S'Possible'
p600
sg12
S'Most'
p601
sg14
g66
sg16
I0
sg17
S'High'
p602
sg19
S'Stor tilleggsbelastning'
p603
sg21
Nsg22
S'200'
p604
sg24
S'1900'
p605
sg26
S'De fleste bratte heng, Ogsaa i mindre bratt terreng'
p606
sg28
Nsg29
g333
sg31
S'2 - Smaa'
p607
sba(irunmatrix
M3Element
p608
(dp609
g3
Nsg4
S'Lite sannsynlig, Mulig'
p610
sg6
S'gray'
p611
sg8
(lp612
sg10
S'Possible'
p613
sg12
S'Most'
p614
sg14
g66
sg16
I0
sg17
S'Low'
p615
sg19
S'Liten tilleggsbelastning'
p616
sg21
Nsg22
S'200'
p617
sg24
S'2000'
p618
sg26
S'De fleste bratte heng, Ogsaa i mindre bratt terreng'
p619
sg28
Nsg29
g333
sg31
S'2 - Smaa'
p620
sba(irunmatrix
M3Element
p621
(dp622
g3
Nsg4
S'Lite sannsynlig, Mulig'
p623
sg6
S'gray'
p624
sg8
(lp625
sg10
S'Possible'
p626
sg12
S'Most'
p627
sg14
g66
sg16
I0
sg17
S'Nat'
p628
sg19
S'Naturlig utloest'
p629
sg21
Nsg22
S'200'
p630
sg24
S'2100'
p631
sg26
S'De fleste bratte heng, Ogsaa i mindre bratt terreng'
p632
sg28
Nsg29
g333
sg31
S'2 - Smaa'
p633
sba(irunmatrix
M3Element
p634
(dp635
g3
Nsg4
S'Sannsynlig, Meget sannsynlig'
p636
sg6
S'gray'
p637
sg8
(lp638
sg10
S'Likely'
p639
sg12
S'Most'
p640
sg14
g66
sg16
I0
sg17
S'High'
p641
sg19
S'Stor tilleggsbelastning'
p642
sg21
Nsg22
S'200'
p643
sg24
S'2200'
p644
sg26
S'De fleste bratte heng, Ogsaa i mindre bratt terreng'
p645
sg28
Nsg29
g333
sg31
S'2 - Smaa'
p646
sba(irunmatrix
M3Element
p647
(dp648
g3
Nsg4
S'Sannsynlig, Meget sannsynlig'
p649
sg6
S'gray'
p650
sg8
(lp651
sg10
S'Likely'
p652
sg12
S'Most'
p653
sg14
g66
sg16
I0
sg17
S'Low'
p654
sg19
S'Liten tilleggsbelastning'
p655
sg21
Nsg22
S'200'
p656
sg24
S'2300'
p657
sg26
S'De fleste bratte heng, Ogsaa i mindre bratt terreng'
p658
sg28
Nsg29
g333
sg31
S'2 - Smaa'
p659
sba(irunmatrix
M3Element
p660
(dp661
g3
Nsg4
S'Sannsynlig, Meget sannsynlig'
p662
sg6
S'white'
p663
sg8
(lp664
sg10
S'Likely'
p665
sg12
S'Most'
p666
sg14
g66
sg16
I0
sg17
S'Nat'
p667
sg19
S'Naturlig utloest'
p668
sg21
Nsg22
S'200'
p669
sg24
S'2400'
p670
sg26
S'De fleste bratte heng, Ogsaa i mindre bratt terreng'
p671
sg28
Nsg29
g333
sg31
S'2 - Smaa'
p672
sba(irunmatrix
M3Element
p673
(dp674
g3
F2.0
sg4
S'Lite sannsynlig, Mulig'
p675
sg6
g338
sg8
(lp676
I2
asg10
S'Possible'
p677
sg12
S'Isolated'
p678
sg14
g15
sg16
I1
sg17
S'High'
p679
sg19
S'Stor tilleggsbelastning'
p680
sg21
I1
sg22
S'300'
p681
sg24
S'100'
p682
sg26
S'Isolerte faresoner'
p683
sg28
g347
(g351
S'\x00\x00\x00\x00\x00\x00\x00\x00'
p684
tp685
Rp686
sg29
S'3'
p687
sg31
S'3 - Middels'
p688
sba(irunmatrix
M3Element
p689
(dp690
g3
F2.0
sg4
S'Lite sannsynlig, Mulig'
p691
sg6
g338
sg8
(lp692
I2
aI2
aI2
aI2
aI2
aI2
aI2
aI2
aI2
asg10
S'Possible'
p693
sg12
S'Isolated'
p694
sg14
g236
sg16
I2
sg17
S'Low'
p695
sg19
S'Liten tilleggsbelastning'
p696
sg21
I9
sg22
S'300'
p697
sg24
S'200'
p698
sg26
S'Isolerte faresoner'
p699
sg28
g347
(g351
S'\x00\x00\x00\x00\x00\x00\x00\x00'
p700
tp701
Rp702
sg29
g687
sg31
S'3 - Middels'
p703
sba(irunmatrix
M3Element
p704
(dp705
g3
F3.0
sg4
S'Lite sannsynlig, Mulig'
p706
sg6
g489
sg8
(lp707
I3
aI3
asg10
S'Possible'
p708
sg12
S'Isolated'
p709
sg14
g236
sg16
I2
sg17
S'Nat'
p710
sg19
S'Naturlig utloest'
p711
sg21
I2
sg22
S'300'
p712
sg24
S'300'
p713
sg26
S'Isolerte faresoner'
p714
sg28
g347
(g351
S'\x00\x00\x00\x00\x00\x00\x00\x00'
p715
tp716
Rp717
sg29
g687
sg31
S'3 - Middels'
p718
sba(irunmatrix
M3Element
p719
(dp720
g3
Nsg4
S'Sannsynlig, Meget sannsynlig'
p721
sg6
S'gray'
p722
sg8
(lp723
sg10
S'Likely'
p724
sg12
S'Isolated'
p725
sg14
g66
sg16
I0
sg17
S'High'
p726
sg19
S'Stor tilleggsbelastning'
p727
sg21
Nsg22
S'300'
p728
sg24
S'400'
p729
sg26
S'Isolerte faresoner'
p730
sg28
Nsg29
g687
sg31
S'3 - Middels'
p731
sba(irunmatrix
M3Element
p732
(dp733
g3
Nsg4
S'Sannsynlig, Meget sannsynlig'
p734
sg6
S'gray'
p735
sg8
(lp736
sg10
S'Likely'
p737
sg12
S'Isolated'
p738
sg14
g66
sg16
I0
sg17
S'Low'
p739
sg19
S'Liten tilleggsbelastning'
p740
sg21
Nsg22
S'300'
p741
sg24
S'500'
p742
sg26
S'Isolerte faresoner'
p743
sg28
Nsg29
g687
sg31
S'3 - Middels'
p744
sba(irunmatrix
M3Element
p745
(dp746
g3
Nsg4
S'Sannsynlig, Meget sannsynlig'
p747
sg6
S'gray'
p748
sg8
(lp749
sg10
S'Likely'
p750
sg12
S'Isolated'
p751
sg14
g66
sg16
I0
sg17
S'Nat'
p752
sg19
S'Naturlig utloest'
p753
sg21
Nsg22
S'300'
p754
sg24
S'600'
p755
sg26
S'Isolerte faresoner'
p756
sg28
Nsg29
g687
sg31
S'3 - Middels'
p757
sba(irunmatrix
M3Element
p758
(dp759
g3
F2.0
sg4
S'Lite sannsynlig, Mulig'
p760
sg6
g338
sg8
(lp761
I2
asg10
S'Possible'
p762
sg12
S'Some'
p763
sg14
g236
sg16
I2
sg17
S'High'
p764
sg19
S'Stor tilleggsbelastning'
p765
sg21
I1
sg22
S'300'
p766
sg24
S'700'
p767
sg26
S'Noen bratte heng'
p768
sg28
g347
(g351
S'\x00\x00\x00\x00\x00\x00\x00\x00'
p769
tp770
Rp771
sg29
g687
sg31
S'3 - Middels'
p772
sba(irunmatrix
M3Element
p773
(dp774
g3
F3.0
sg4
S'Lite sannsynlig, Mulig'
p775
sg6
g489
sg8
(lp776
I3
aI3
aI3
aI3
aI3
aI3
aI3
aI3
aI3
aI3
aI3
aI3
aI3
aI3
aI3
aI3
asg10
S'Possible'
p777
sg12
S'Some'
p778
sg14
g509
sg16
I3
sg17
S'Low'
p779
sg19
S'Liten tilleggsbelastning'
p780
sg21
I16
sg22
S'300'
p781
sg24
S'800'
p782
sg26
S'Noen bratte heng'
p783
sg28
g347
(g351
S'\x00\x00\x00\x00\x00\x00\x00\x00'
p784
tp785
Rp786
sg29
g687
sg31
S'3 - Middels'
p787
sba(irunmatrix
M3Element
p788
(dp789
g3
F3.0
sg4
S'Lite sannsynlig, Mulig'
p790
sg6
g489
sg8
(lp791
I3
aI3
asg10
S'Possible'
p792
sg12
S'Some'
p793
sg14
g509
sg16
I3
sg17
S'Nat'
p794
sg19
S'Naturlig utloest'
p795
sg21
I2
sg22
S'300'
p796
sg24
S'900'
p797
sg26
S'Noen bratte heng'
p798
sg28
g347
(g351
S'\x00\x00\x00\x00\x00\x00\x00\x00'
p799
tp800
Rp801
sg29
g687
sg31
S'3 - Middels'
p802
sba(irunmatrix
M3Element
p803
(dp804
g3
Nsg4
S'Sannsynlig, Meget sannsynlig'
p805
sg6
S'gray'
p806
sg8
(lp807
sg10
S'Likely'
p808
sg12
S'Some'
p809
sg14
g66
sg16
I0
sg17
S'High'
p810
sg19
S'Stor tilleggsbelastning'
p811
sg21
Nsg22
S'300'
p812
sg24
S'1000'
p813
sg26
S'Noen bratte heng'
p814
sg28
Nsg29
g687
sg31
S'3 - Middels'
p815
sba(irunmatrix
M3Element
p816
(dp817
g3
Nsg4
S'Sannsynlig, Meget sannsynlig'
p818
sg6
S'gray'
p819
sg8
(lp820
sg10
S'Likely'
p821
sg12
S'Some'
p822
sg14
g66
sg16
I0
sg17
S'Low'
p823
sg19
S'Liten tilleggsbelastning'
p824
sg21
Nsg22
S'300'
p825
sg24
S'1100'
p826
sg26
S'Noen bratte heng'
p827
sg28
Nsg29
g687
sg31
S'3 - Middels'
p828
sba(irunmatrix
M3Element
p829
(dp830
g3
Nsg4
S'Sannsynlig, Meget sannsynlig'
p831
sg6
S'white'
p832
sg8
(lp833
sg10
S'Likely'
p834
sg12
S'Some'
p835
sg14
g575
sg16
I4
sg17
S'Nat'
p836
sg19
S'Naturlig utloest'
p837
sg21
Nsg22
S'300'
p838
sg24
S'1200'
p839
sg26
S'Noen bratte heng'
p840
sg28
Nsg29
g687
sg31
S'3 - Middels'
p841
sba(irunmatrix
M3Element
p842
(dp843
g3
Nsg4
S'Lite sannsynlig, Mulig'
p844
sg6
S'gray'
p845
sg8
(lp846
sg10
S'Possible'
p847
sg12
S'Many'
p848
sg14
g66
sg16
I0
sg17
S'High'
p849
sg19
S'Stor tilleggsbelastning'
p850
sg21
Nsg22
S'300'
p851
sg24
S'1300'
p852
sg26
S'Mange bratte heng'
p853
sg28
Nsg29
g687
sg31
S'3 - Middels'
p854
sba(irunmatrix
M3Element
p855
(dp856
g3
F3.0
sg4
S'Lite sannsynlig, Mulig'
p857
sg6
g489
sg8
(lp858
I3
aI3
aI3
aI3
aI3
aI3
aI3
aI3
aI3
aI3
asg10
S'Possible'
p859
sg12
S'Many'
p860
sg14
g575
sg16
I4
sg17
S'Low'
p861
sg19
S'Liten tilleggsbelastning'
p862
sg21
I10
sg22
S'300'
p863
sg24
S'1400'
p864
sg26
S'Mange bratte heng'
p865
sg28
g347
(g351
S'\x00\x00\x00\x00\x00\x00\x00\x00'
p866
tp867
Rp868
sg29
g687
sg31
S'3 - Middels'
p869
sba(irunmatrix
M3Element
p870
(dp871
g3
Nsg4
S'Lite sannsynlig, Mulig'
p872
sg6
S'gray'
p873
sg8
(lp874
sg10
S'Possible'
p875
sg12
S'Many'
p876
sg14
g66
sg16
I0
sg17
S'Nat'
p877
sg19
S'Naturlig utloest'
p878
sg21
Nsg22
S'300'
p879
sg24
S'1500'
p880
sg26
S'Mange bratte heng'
p881
sg28
Nsg29
g687
sg31
S'3 - Middels'
p882
sba(irunmatrix
M3Element
p883
(dp884
g3
Nsg4
S'Sannsynlig, Meget sannsynlig'
p885
sg6
S'gray'
p886
sg8
(lp887
sg10
S'Likely'
p888
sg12
S'Many'
p889
sg14
g66
sg16
I0
sg17
S'High'
p890
sg19
S'Stor tilleggsbelastning'
p891
sg21
Nsg22
S'300'
p892
sg24
S'1600'
p893
sg26
S'Mange bratte heng'
p894
sg28
Nsg29
g687
sg31
S'3 - Middels'
p895
sba(irunmatrix
M3Element
p896
(dp897
g3
Nsg4
S'Sannsynlig, Meget sannsynlig'
p898
sg6
S'white'
p899
sg8
(lp900
sg10
S'Likely'
p901
sg12
S'Many'
p902
sg14
g575
sg16
I4
sg17
S'Low'
p903
sg19
S'Liten tilleggsbelastning'
p904
sg21
Nsg22
S'300'
p905
sg24
S'1700'
p906
sg26
S'Mange bratte heng'
p907
sg28
Nsg29
g687
sg31
S'3 - Middels'
p908
sba(irunmatrix
M3Element
p909
(dp910
g3
Nsg4
S'Sannsynlig, Meget sannsynlig'
p911
sg6
S'white'
p912
sg8
(lp913
sg10
S'Likely'
p914
sg12
S'Many'
p915
sg14
g575
sg16
I4
sg17
S'Nat'
p916
sg19
S'Naturlig utloest'
p917
sg21
Nsg22
S'300'
p918
sg24
S'1800'
p919
sg26
S'Mange bratte heng'
p920
sg28
Nsg29
g687
sg31
S'3 - Middels'
p921
sba(irunmatrix
M3Element
p922
(dp923
g3
Nsg4
S'Lite sannsynlig, Mulig'
p924
sg6
S'gray'
p925
sg8
(lp926
sg10
S'Possible'
p927
sg12
S'Most'
p928
sg14
g66
sg16
I0
sg17
S'High'
p929
sg19
S'Stor tilleggsbelastning'
p930
sg21
Nsg22
S'300'
p931
sg24
S'1900'
p932
sg26
S'De fleste bratte heng, Ogsaa i mindre bratt terreng'
p933
sg28
Nsg29
g687
sg31
S'3 - Middels'
p934
sba(irunmatrix
M3Element
p935
(dp936
g3
Nsg4
S'Lite sannsynlig, Mulig'
p937
sg6
S'gray'
p938
sg8
(lp939
sg10
S'Possible'
p940
sg12
S'Most'
p941
sg14
g66
sg16
I0
sg17
S'Low'
p942
sg19
S'Liten tilleggsbelastning'
p943
sg21
Nsg22
S'300'
p944
sg24
S'2000'
p945
sg26
S'De fleste bratte heng, Ogsaa i mindre bratt terreng'
p946
sg28
Nsg29
g687
sg31
S'3 - Middels'
p947
sba(irunmatrix
M3Element
p948
(dp949
g3
Nsg4
S'Lite sannsynlig, Mulig'
p950
sg6
S'gray'
p951
sg8
(lp952
sg10
S'Possible'
p953
sg12
S'Most'
p954
sg14
g66
sg16
I0
sg17
S'Nat'
p955
sg19
S'Naturlig utloest'
p956
sg21
Nsg22
S'300'
p957
sg24
S'2100'
p958
sg26
S'De fleste bratte heng, Ogsaa i mindre bratt terreng'
p959
sg28
Nsg29
g687
sg31
S'3 - Middels'
p960
sba(irunmatrix
M3Element
p961
(dp962
g3
Nsg4
S'Sannsynlig, Meget sannsynlig'
p963
sg6
S'gray'
p964
sg8
(lp965
sg10
S'Likely'
p966
sg12
S'Most'
p967
sg14
g66
sg16
I0
sg17
S'High'
p968
sg19
S'Stor tilleggsbelastning'
p969
sg21
Nsg22
S'300'
p970
sg24
S'2200'
p971
sg26
S'De fleste bratte heng, Ogsaa i mindre bratt terreng'
p972
sg28
Nsg29
g687
sg31
S'3 - Middels'
p973
sba(irunmatrix
M3Element
p974
(dp975
g3
Nsg4
S'Sannsynlig, Meget sannsynlig'
p976
sg6
S'gray'
p977
sg8
(lp978
sg10
S'Likely'
p979
sg12
S'Most'
p980
sg14
g66
sg16
I0
sg17
S'Low'
p981
sg19
S'Liten tilleggsbelastning'
p982
sg21
Nsg22
S'300'
p983
sg24
S'2300'
p984
sg26
S'De fleste bratte heng, Ogsaa i mindre bratt terreng'
p985
sg28
Nsg29
g687
sg31
S'3 - Middels'
p986
sba(irunmatrix
M3Element
p987
(dp988
g3
Nsg4
S'Sannsynlig, Meget sannsynlig'
p989
sg6
S'white'
p990
sg8
(lp991
sg10
S'Likely'
p992
sg12
S'Most'
p993
sg14
g66
sg16
I0
sg17
S'Nat'
p994
sg19
S'Naturlig utloest'
p995
sg21
Nsg22
S'300'
p996
sg24
S'2400'
p997
sg26
S'De fleste bratte heng, Ogsaa i mindre bratt terreng'
p998
sg28
Nsg29
g687
sg31
S'3 - Middels'
p999
sba(irunmatrix
M3Element
p1000
(dp1001
g3
Nsg4
S'Lite sannsynlig, Mulig'
p1002
sg6
S'white'
p1003
sg8
(lp1004
sg10
S'Possible'
p1005
sg12
S'Isolated'
p1006
sg14
g236
sg16
I2
sg17
S'High'
p1007
sg19
S'Stor tilleggsbelastning'
p1008
sg21
Nsg22
S'400'
p1009
sg24
S'100'
p1010
sg26
S'Isolerte faresoner'
p1011
sg28
Nsg29
S'4'
p1012
sg31
S'4 - Store'
p1013
sba(irunmatrix
M3Element
p1014
(dp1015
g3
Nsg4
S'Lite sannsynlig, Mulig'
p1016
sg6
S'white'
p1017
sg8
(lp1018
sg10
S'Possible'
p1019
sg12
S'Isolated'
p1020
sg14
g509
sg16
I3
sg17
S'Low'
p1021
sg19
S'Liten tilleggsbelastning'
p1022
sg21
Nsg22
S'400'
p1023
sg24
S'200'
p1024
sg26
S'Isolerte faresoner'
p1025
sg28
Nsg29
g1012
sg31
S'4 - Store'
p1026
sba(irunmatrix
M3Element
p1027
(dp1028
g3
Nsg4
S'Lite sannsynlig, Mulig'
p1029
sg6
S'white'
p1030
sg8
(lp1031
sg10
S'Possible'
p1032
sg12
S'Isolated'
p1033
sg14
g509
sg16
I3
sg17
S'Nat'
p1034
sg19
S'Naturlig utloest'
p1035
sg21
Nsg22
S'400'
p1036
sg24
S'300'
p1037
sg26
S'Isolerte faresoner'
p1038
sg28
Nsg29
g1012
sg31
S'4 - Store'
p1039
sba(irunmatrix
M3Element
p1040
(dp1041
g3
Nsg4
S'Sannsynlig, Meget sannsynlig'
p1042
sg6
S'gray'
p1043
sg8
(lp1044
sg10
S'Likely'
p1045
sg12
S'Isolated'
p1046
sg14
g66
sg16
I0
sg17
S'High'
p1047
sg19
S'Stor tilleggsbelastning'
p1048
sg21
Nsg22
S'400'
p1049
sg24
S'400'
p1050
sg26
S'Isolerte faresoner'
p1051
sg28
Nsg29
g1012
sg31
S'4 - Store'
p1052
sba(irunmatrix
M3Element
p1053
(dp1054
g3
Nsg4
S'Sannsynlig, Meget sannsynlig'
p1055
sg6
S'gray'
p1056
sg8
(lp1057
sg10
S'Likely'
p1058
sg12
S'Isolated'
p1059
sg14
g66
sg16
I0
sg17
S'Low'
p1060
sg19
S'Liten tilleggsbelastning'
p1061
sg21
Nsg22
S'400'
p1062
sg24
S'500'
p1063
sg26
S'Isolerte faresoner'
p1064
sg28
Nsg29
g1012
sg31
S'4 - Store'
p1065
sba(irunmatrix
M3Element
p1066
(dp1067
g3
Nsg4
S'Sannsynlig, Meget sannsynlig'
p1068
sg6
S'gray'
p1069
sg8
(lp1070
sg10
S'Likely'
p1071
sg12
S'Isolated'
p1072
sg14
g66
sg16
I0
sg17
S'Nat'
p1073
sg19
S'Naturlig utloest'
p1074
sg21
Nsg22
S'400'
p1075
sg24
S'600'
p1076
sg26
S'Isolerte faresoner'
p1077
sg28
Nsg29
g1012
sg31
S'4 - Store'
p1078
sba(irunmatrix
M3Element
p1079
(dp1080
g3
Nsg4
S'Lite sannsynlig, Mulig'
p1081
sg6
S'white'
p1082
sg8
(lp1083
sg10
S'Possible'
p1084
sg12
S'Some'
p1085
sg14
g509
sg16
I3
sg17
S'High'
p1086
sg19
S'Stor tilleggsbelastning'
p1087
sg21
Nsg22
S'400'
p1088
sg24
S'700'
p1089
sg26
S'Noen bratte heng'
p1090
sg28
Nsg29
g1012
sg31
S'4 - Store'
p1091
sba(irunmatrix
M3Element
p1092
(dp1093
g3
Nsg4
S'Lite sannsynlig, Mulig'
p1094
sg6
S'white'
p1095
sg8
(lp1096
sg10
S'Possible'
p1097
sg12
S'Some'
p1098
sg14
g575
sg16
I4
sg17
S'Low'
p1099
sg19
S'Liten tilleggsbelastning'
p1100
sg21
Nsg22
S'400'
p1101
sg24
S'800'
p1102
sg26
S'Noen bratte heng'
p1103
sg28
Nsg29
g1012
sg31
S'4 - Store'
p1104
sba(irunmatrix
M3Element
p1105
(dp1106
g3
Nsg4
S'Lite sannsynlig, Mulig'
p1107
sg6
S'white'
p1108
sg8
(lp1109
sg10
S'Possible'
p1110
sg12
S'Some'
p1111
sg14
g575
sg16
I4
sg17
S'Nat'
p1112
sg19
S'Naturlig utloest'
p1113
sg21
Nsg22
S'400'
p1114
sg24
S'900'
p1115
sg26
S'Noen bratte heng'
p1116
sg28
Nsg29
g1012
sg31
S'4 - Store'
p1117
sba(irunmatrix
M3Element
p1118
(dp1119
g3
Nsg4
S'Sannsynlig, Meget sannsynlig'
p1120
sg6
S'gray'
p1121
sg8
(lp1122
sg10
S'Likely'
p1123
sg12
S'Some'
p1124
sg14
g66
sg16
I0
sg17
S'High'
p1125
sg19
S'Stor tilleggsbelastning'
p1126
sg21
Nsg22
S'400'
p1127
sg24
S'1000'
p1128
sg26
S'Noen bratte heng'
p1129
sg28
Nsg29
g1012
sg31
S'4 - Store'
p1130
sba(irunmatrix
M3Element
p1131
(dp1132
g3
Nsg4
S'Sannsynlig, Meget sannsynlig'
p1133
sg6
S'gray'
p1134
sg8
(lp1135
sg10
S'Likely'
p1136
sg12
S'Some'
p1137
sg14
g66
sg16
I0
sg17
S'Low'
p1138
sg19
S'Liten tilleggsbelastning'
p1139
sg21
Nsg22
S'400'
p1140
sg24
S'1100'
p1141
sg26
S'Noen bratte heng'
p1142
sg28
Nsg29
g1012
sg31
S'4 - Store'
p1143
sba(irunmatrix
M3Element
p1144
(dp1145
g3
Nsg4
S'Sannsynlig, Meget sannsynlig'
p1146
sg6
S'white'
p1147
sg8
(lp1148
sg10
S'Likely'
p1149
sg12
S'Some'
p1150
sg14
g575
sg16
I4
sg17
S'Nat'
p1151
sg19
S'Naturlig utloest'
p1152
sg21
Nsg22
S'400'
p1153
sg24
S'1200'
p1154
sg26
S'Noen bratte heng'
p1155
sg28
Nsg29
g1012
sg31
S'4 - Store'
p1156
sba(irunmatrix
M3Element
p1157
(dp1158
g3
Nsg4
S'Lite sannsynlig, Mulig'
p1159
sg6
S'gray'
p1160
sg8
(lp1161
sg10
S'Possible'
p1162
sg12
S'Many'
p1163
sg14
g66
sg16
I0
sg17
S'High'
p1164
sg19
S'Stor tilleggsbelastning'
p1165
sg21
Nsg22
S'400'
p1166
sg24
S'1300'
p1167
sg26
S'Mange bratte heng'
p1168
sg28
Nsg29
g1012
sg31
S'4 - Store'
p1169
sba(irunmatrix
M3Element
p1170
(dp1171
g3
Nsg4
S'Lite sannsynlig, Mulig'
p1172
sg6
S'white'
p1173
sg8
(lp1174
sg10
S'Possible'
p1175
sg12
S'Many'
p1176
sg14
g66
sg16
I0
sg17
S'Low'
p1177
sg19
S'Liten tilleggsbelastning'
p1178
sg21
Nsg22
S'400'
p1179
sg24
S'1400'
p1180
sg26
S'Mange bratte heng'
p1181
sg28
Nsg29
g1012
sg31
S'4 - Store'
p1182
sba(irunmatrix
M3Element
p1183
(dp1184
g3
Nsg4
S'Lite sannsynlig, Mulig'
p1185
sg6
S'gray'
p1186
sg8
(lp1187
sg10
S'Possible'
p1188
sg12
S'Many'
p1189
sg14
g66
sg16
I0
sg17
S'Nat'
p1190
sg19
S'Naturlig utloest'
p1191
sg21
Nsg22
S'400'
p1192
sg24
S'1500'
p1193
sg26
S'Mange bratte heng'
p1194
sg28
Nsg29
g1012
sg31
S'4 - Store'
p1195
sba(irunmatrix
M3Element
p1196
(dp1197
g3
Nsg4
S'Sannsynlig, Meget sannsynlig'
p1198
sg6
S'gray'
p1199
sg8
(lp1200
sg10
S'Likely'
p1201
sg12
S'Many'
p1202
sg14
g66
sg16
I0
sg17
S'High'
p1203
sg19
S'Stor tilleggsbelastning'
p1204
sg21
Nsg22
S'400'
p1205
sg24
S'1600'
p1206
sg26
S'Mange bratte heng'
p1207
sg28
Nsg29
g1012
sg31
S'4 - Store'
p1208
sba(irunmatrix
M3Element
p1209
(dp1210
g3
Nsg4
S'Sannsynlig, Meget sannsynlig'
p1211
sg6
S'white'
p1212
sg8
(lp1213
sg10
S'Likely'
p1214
sg12
S'Many'
p1215
sg14
g66
sg16
I0
sg17
S'Low'
p1216
sg19
S'Liten tilleggsbelastning'
p1217
sg21
Nsg22
S'400'
p1218
sg24
S'1700'
p1219
sg26
S'Mange bratte heng'
p1220
sg28
Nsg29
g1012
sg31
S'4 - Store'
p1221
sba(irunmatrix
M3Element
p1222
(dp1223
g3
Nsg4
S'Sannsynlig, Meget sannsynlig'
p1224
sg6
S'white'
p1225
sg8
(lp1226
sg10
S'Likely'
p1227
sg12
S'Many'
p1228
sg14
S'k'
p1229
sg16
I5
sg17
S'Nat'
p1230
sg19
S'Naturlig utloest'
p1231
sg21
Nsg22
S'400'
p1232
sg24
S'1800'
p1233
sg26
S'Mange bratte heng'
p1234
sg28
Nsg29
g1012
sg31
S'4 - Store'
p1235
sba(irunmatrix
M3Element
p1236
(dp1237
g3
Nsg4
S'Lite sannsynlig, Mulig'
p1238
sg6
S'gray'
p1239
sg8
(lp1240
sg10
S'Possible'
p1241
sg12
S'Most'
p1242
sg14
g66
sg16
I0
sg17
S'High'
p1243
sg19
S'Stor tilleggsbelastning'
p1244
sg21
Nsg22
S'400'
p1245
sg24
S'1900'
p1246
sg26
S'De fleste bratte heng, Ogsaa i mindre bratt terreng'
p1247
sg28
Nsg29
g1012
sg31
S'4 - Store'
p1248
sba(irunmatrix
M3Element
p1249
(dp1250
g3
Nsg4
S'Lite sannsynlig, Mulig'
p1251
sg6
S'gray'
p1252
sg8
(lp1253
sg10
S'Possible'
p1254
sg12
S'Most'
p1255
sg14
g66
sg16
I0
sg17
S'Low'
p1256
sg19
S'Liten tilleggsbelastning'
p1257
sg21
Nsg22
S'400'
p1258
sg24
S'2000'
p1259
sg26
S'De fleste bratte heng, Ogsaa i mindre bratt terreng'
p1260
sg28
Nsg29
g1012
sg31
S'4 - Store'
p1261
sba(irunmatrix
M3Element
p1262
(dp1263
g3
Nsg4
S'Lite sannsynlig, Mulig'
p1264
sg6
S'gray'
p1265
sg8
(lp1266
sg10
S'Possible'
p1267
sg12
S'Most'
p1268
sg14
g66
sg16
I0
sg17
S'Nat'
p1269
sg19
S'Naturlig utloest'
p1270
sg21
Nsg22
S'400'
p1271
sg24
S'2100'
p1272
sg26
S'De fleste bratte heng, Ogsaa i mindre bratt terreng'
p1273
sg28
Nsg29
g1012
sg31
S'4 - Store'
p1274
sba(irunmatrix
M3Element
p1275
(dp1276
g3
Nsg4
S'Sannsynlig, Meget sannsynlig'
p1277
sg6
S'gray'
p1278
sg8
(lp1279
sg10
S'Likely'
p1280
sg12
S'Most'
p1281
sg14
g66
sg16
I0
sg17
S'High'
p1282
sg19
S'Stor tilleggsbelastning'
p1283
sg21
Nsg22
S'400'
p1284
sg24
S'2200'
p1285
sg26
S'De fleste bratte heng, Ogsaa i mindre bratt terreng'
p1286
sg28
Nsg29
g1012
sg31
S'4 - Store'
p1287
sba(irunmatrix
M3Element
p1288
(dp1289
g3
Nsg4
S'Sannsynlig, Meget sannsynlig'
p1290
sg6
S'gray'
p1291
sg8
(lp1292
sg10
S'Likely'
p1293
sg12
S'Most'
p1294
sg14
g66
sg16
I0
sg17
S'Low'
p1295
sg19
S'Liten tilleggsbelastning'
p1296
sg21
Nsg22
S'400'
p1297
sg24
S'2300'
p1298
sg26
S'De fleste bratte heng, Ogsaa i mindre bratt terreng'
p1299
sg28
Nsg29
g1012
sg31
S'4 - Store'
p1300
sba(irunmatrix
M3Element
p1301
(dp1302
g3
Nsg4
S'Sannsynlig, Meget sannsynlig'
p1303
sg6
S'white'
p1304
sg8
(lp1305
sg10
S'Likely'
p1306
sg12
S'Most'
p1307
sg14
g66
sg16
I0
sg17
S'Nat'
p1308
sg19
S'Naturlig utloest'
p1309
sg21
Nsg22
S'400'
p1310
sg24
S'2400'
p1311
sg26
S'De fleste bratte heng, Ogsaa i mindre bratt terreng'
p1312
sg28
Nsg29
g1012
sg31
S'4 - Store'
p1313
sba(irunmatrix
M3Element
p1314
(dp1315
g3
Nsg4
S'Lite sannsynlig, Mulig'
p1316
sg6
S'white'
p1317
sg8
(lp1318
sg10
S'Possible'
p1319
sg12
S'Isolated'
p1320
sg14
g66
sg16
I0
sg17
S'High'
p1321
sg19
S'Stor tilleggsbelastning'
p1322
sg21
Nsg22
S'500'
p1323
sg24
S'100'
p1324
sg26
S'Isolerte faresoner'
p1325
sg28
Nsg29
S'5'
p1326
sg31
S'5 - Svaert store'
p1327
sba(irunmatrix
M3Element
p1328
(dp1329
g3
Nsg4
S'Lite sannsynlig, Mulig'
p1330
sg6
S'white'
p1331
sg8
(lp1332
sg10
S'Possible'
p1333
sg12
S'Isolated'
p1334
sg14
g66
sg16
I0
sg17
S'Low'
p1335
sg19
S'Liten tilleggsbelastning'
p1336
sg21
Nsg22
S'500'
p1337
sg24
S'200'
p1338
sg26
S'Isolerte faresoner'
p1339
sg28
Nsg29
g1326
sg31
S'5 - Svaert store'
p1340
sba(irunmatrix
M3Element
p1341
(dp1342
g3
Nsg4
S'Lite sannsynlig, Mulig'
p1343
sg6
S'white'
p1344
sg8
(lp1345
sg10
S'Possible'
p1346
sg12
S'Isolated'
p1347
sg14
g66
sg16
I0
sg17
S'Nat'
p1348
sg19
S'Naturlig utloest'
p1349
sg21
Nsg22
S'500'
p1350
sg24
S'300'
p1351
sg26
S'Isolerte faresoner'
p1352
sg28
Nsg29
g1326
sg31
S'5 - Svaert store'
p1353
sba(irunmatrix
M3Element
p1354
(dp1355
g3
Nsg4
S'Sannsynlig, Meget sannsynlig'
p1356
sg6
S'gray'
p1357
sg8
(lp1358
sg10
S'Likely'
p1359
sg12
S'Isolated'
p1360
sg14
g66
sg16
I0
sg17
S'High'
p1361
sg19
S'Stor tilleggsbelastning'
p1362
sg21
Nsg22
S'500'
p1363
sg24
S'400'
p1364
sg26
S'Isolerte faresoner'
p1365
sg28
Nsg29
g1326
sg31
S'5 - Svaert store'
p1366
sba(irunmatrix
M3Element
p1367
(dp1368
g3
Nsg4
S'Sannsynlig, Meget sannsynlig'
p1369
sg6
S'gray'
p1370
sg8
(lp1371
sg10
S'Likely'
p1372
sg12
S'Isolated'
p1373
sg14
g66
sg16
I0
sg17
S'Low'
p1374
sg19
S'Liten tilleggsbelastning'
p1375
sg21
Nsg22
S'500'
p1376
sg24
S'500'
p1377
sg26
S'Isolerte faresoner'
p1378
sg28
Nsg29
g1326
sg31
S'5 - Svaert store'
p1379
sba(irunmatrix
M3Element
p1380
(dp1381
g3
Nsg4
S'Sannsynlig, Meget sannsynlig'
p1382
sg6
S'gray'
p1383
sg8
(lp1384
sg10
S'Likely'
p1385
sg12
S'Isolated'
p1386
sg14
g66
sg16
I0
sg17
S'Nat'
p1387
sg19
S'Naturlig utloest'
p1388
sg21
Nsg22
S'500'
p1389
sg24
S'600'
p1390
sg26
S'Isolerte faresoner'
p1391
sg28
Nsg29
g1326
sg31
S'5 - Svaert store'
p1392
sba(irunmatrix
M3Element
p1393
(dp1394
g3
Nsg4
S'Lite sannsynlig, Mulig'
p1395
sg6
S'white'
p1396
sg8
(lp1397
sg10
S'Possible'
p1398
sg12
S'Some'
p1399
sg14
g66
sg16
I0
sg17
S'High'
p1400
sg19
S'Stor tilleggsbelastning'
p1401
sg21
Nsg22
S'500'
p1402
sg24
S'700'
p1403
sg26
S'Noen bratte heng'
p1404
sg28
Nsg29
g1326
sg31
S'5 - Svaert store'
p1405
sba(irunmatrix
M3Element
p1406
(dp1407
g3
Nsg4
S'Lite sannsynlig, Mulig'
p1408
sg6
S'white'
p1409
sg8
(lp1410
sg10
S'Possible'
p1411
sg12
S'Some'
p1412
sg14
g66
sg16
I0
sg17
S'Low'
p1413
sg19
S'Liten tilleggsbelastning'
p1414
sg21
Nsg22
S'500'
p1415
sg24
S'800'
p1416
sg26
S'Noen bratte heng'
p1417
sg28
Nsg29
g1326
sg31
S'5 - Svaert store'
p1418
sba(irunmatrix
M3Element
p1419
(dp1420
g3
Nsg4
S'Lite sannsynlig, Mulig'
p1421
sg6
S'white'
p1422
sg8
(lp1423
sg10
S'Possible'
p1424
sg12
S'Some'
p1425
sg14
g66
sg16
I0
sg17
S'Nat'
p1426
sg19
S'Naturlig utloest'
p1427
sg21
Nsg22
S'500'
p1428
sg24
S'900'
p1429
sg26
S'Noen bratte heng'
p1430
sg28
Nsg29
g1326
sg31
S'5 - Svaert store'
p1431
sba(irunmatrix
M3Element
p1432
(dp1433
g3
Nsg4
S'Sannsynlig, Meget sannsynlig'
p1434
sg6
S'gray'
p1435
sg8
(lp1436
sg10
S'Likely'
p1437
sg12
S'Some'
p1438
sg14
g66
sg16
I0
sg17
S'High'
p1439
sg19
S'Stor tilleggsbelastning'
p1440
sg21
Nsg22
S'500'
p1441
sg24
S'1000'
p1442
sg26
S'Noen bratte heng'
p1443
sg28
Nsg29
g1326
sg31
S'5 - Svaert store'
p1444
sba(irunmatrix
M3Element
p1445
(dp1446
g3
Nsg4
S'Sannsynlig, Meget sannsynlig'
p1447
sg6
S'gray'
p1448
sg8
(lp1449
sg10
S'Likely'
p1450
sg12
S'Some'
p1451
sg14
g66
sg16
I0
sg17
S'Low'
p1452
sg19
S'Liten tilleggsbelastning'
p1453
sg21
Nsg22
S'500'
p1454
sg24
S'1100'
p1455
sg26
S'Noen bratte heng'
p1456
sg28
Nsg29
g1326
sg31
S'5 - Svaert store'
p1457
sba(irunmatrix
M3Element
p1458
(dp1459
g3
Nsg4
S'Sannsynlig, Meget sannsynlig'
p1460
sg6
S'white'
p1461
sg8
(lp1462
sg10
S'Likely'
p1463
sg12
S'Some'
p1464
sg14
g66
sg16
I0
sg17
S'Nat'
p1465
sg19
S'Naturlig utloest'
p1466
sg21
Nsg22
S'500'
p1467
sg24
S'1200'
p1468
sg26
S'Noen bratte heng'
p1469
sg28
Nsg29
g1326
sg31
S'5 - Svaert store'
p1470
sba(irunmatrix
M3Element
p1471
(dp1472
g3
Nsg4
S'Lite sannsynlig, Mulig'
p1473
sg6
S'gray'
p1474
sg8
(lp1475
sg10
S'Possible'
p1476
sg12
S'Many'
p1477
sg14
g66
sg16
I0
sg17
S'High'
p1478
sg19
S'Stor tilleggsbelastning'
p1479
sg21
Nsg22
S'500'
p1480
sg24
S'1300'
p1481
sg26
S'Mange bratte heng'
p1482
sg28
Nsg29
g1326
sg31
S'5 - Svaert store'
p1483
sba(irunmatrix
M3Element
p1484
(dp1485
g3
Nsg4
S'Lite sannsynlig, Mulig'
p1486
sg6
S'white'
p1487
sg8
(lp1488
sg10
S'Possible'
p1489
sg12
S'Many'
p1490
sg14
g66
sg16
I0
sg17
S'Low'
p1491
sg19
S'Liten tilleggsbelastning'
p1492
sg21
Nsg22
S'500'
p1493
sg24
S'1400'
p1494
sg26
S'Mange bratte heng'
p1495
sg28
Nsg29
g1326
sg31
S'5 - Svaert store'
p1496
sba(irunmatrix
M3Element
p1497
(dp1498
g3
Nsg4
S'Lite sannsynlig, Mulig'
p1499
sg6
S'gray'
p1500
sg8
(lp1501
sg10
S'Possible'
p1502
sg12
S'Many'
p1503
sg14
g66
sg16
I0
sg17
S'Nat'
p1504
sg19
S'Naturlig utloest'
p1505
sg21
Nsg22
S'500'
p1506
sg24
S'1500'
p1507
sg26
S'Mange bratte heng'
p1508
sg28
Nsg29
g1326
sg31
S'5 - Svaert store'
p1509
sba(irunmatrix
M3Element
p1510
(dp1511
g3
Nsg4
S'Sannsynlig, Meget sannsynlig'
p1512
sg6
S'gray'
p1513
sg8
(lp1514
sg10
S'Likely'
p1515
sg12
S'Many'
p1516
sg14
g66
sg16
I0
sg17
S'High'
p1517
sg19
S'Stor tilleggsbelastning'
p1518
sg21
Nsg22
S'500'
p1519
sg24
S'1600'
p1520
sg26
S'Mange bratte heng'
p1521
sg28
Nsg29
g1326
sg31
S'5 - Svaert store'
p1522
sba(irunmatrix
M3Element
p1523
(dp1524
g3
Nsg4
S'Sannsynlig, Meget sannsynlig'
p1525
sg6
S'white'
p1526
sg8
(lp1527
sg10
S'Likely'
p1528
sg12
S'Many'
p1529
sg14
g66
sg16
I0
sg17
S'Low'
p1530
sg19
S'Liten tilleggsbelastning'
p1531
sg21
Nsg22
S'500'
p1532
sg24
S'1700'
p1533
sg26
S'Mange bratte heng'
p1534
sg28
Nsg29
g1326
sg31
S'5 - Svaert store'
p1535
sba(irunmatrix
M3Element
p1536
(dp1537
g3
Nsg4
S'Sannsynlig, Meget sannsynlig'
p1538
sg6
S'white'
p1539
sg8
(lp1540
sg10
S'Likely'
p1541
sg12
S'Many'
p1542
sg14
g1229
sg16
I5
sg17
S'Nat'
p1543
sg19
S'Naturlig utloest'
p1544
sg21
Nsg22
S'500'
p1545
sg24
S'1800'
p1546
sg26
S'Mange bratte heng'
p1547
sg28
Nsg29
g1326
sg31
S'5 - Svaert store'
p1548
sba(irunmatrix
M3Element
p1549
(dp1550
g3
Nsg4
S'Lite sannsynlig, Mulig'
p1551
sg6
S'gray'
p1552
sg8
(lp1553
sg10
S'Possible'
p1554
sg12
S'Most'
p1555
sg14
g66
sg16
I0
sg17
S'High'
p1556
sg19
S'Stor tilleggsbelastning'
p1557
sg21
Nsg22
S'500'
p1558
sg24
S'1900'
p1559
sg26
S'De fleste bratte heng, Ogsaa i mindre bratt terreng'
p1560
sg28
Nsg29
g1326
sg31
S'5 - Svaert store'
p1561
sba(irunmatrix
M3Element
p1562
(dp1563
g3
Nsg4
S'Lite sannsynlig, Mulig'
p1564
sg6
S'gray'
p1565
sg8
(lp1566
sg10
S'Possible'
p1567
sg12
S'Most'
p1568
sg14
g66
sg16
I0
sg17
S'Low'
p1569
sg19
S'Liten tilleggsbelastning'
p1570
sg21
Nsg22
S'500'
p1571
sg24
S'2000'
p1572
sg26
S'De fleste bratte heng, Ogsaa i mindre bratt terreng'
p1573
sg28
Nsg29
g1326
sg31
S'5 - Svaert store'
p1574
sba(irunmatrix
M3Element
p1575
(dp1576
g3
Nsg4
S'Lite sannsynlig, Mulig'
p1577
sg6
S'gray'
p1578
sg8
(lp1579
sg10
S'Possible'
p1580
sg12
S'Most'
p1581
sg14
g66
sg16
I0
sg17
S'Nat'
p1582
sg19
S'Naturlig utloest'
p1583
sg21
Nsg22
S'500'
p1584
sg24
S'2100'
p1585
sg26
S'De fleste bratte heng, Ogsaa i mindre bratt terreng'
p1586
sg28
Nsg29
g1326
sg31
S'5 - Svaert store'
p1587
sba(irunmatrix
M3Element
p1588
(dp1589
g3
Nsg4
S'Sannsynlig, Meget sannsynlig'
p1590
sg6
S'gray'
p1591
sg8
(lp1592
sg10
S'Likely'
p1593
sg12
S'Most'
p1594
sg14
g66
sg16
I0
sg17
S'High'
p1595
sg19
S'Stor tilleggsbelastning'
p1596
sg21
Nsg22
S'500'
p1597
sg24
S'2200'
p1598
sg26
S'De fleste bratte heng, Ogsaa i mindre bratt terreng'
p1599
sg28
Nsg29
g1326
sg31
S'5 - Svaert store'
p1600
sba(irunmatrix
M3Element
p1601
(dp1602
g3
Nsg4
S'Sannsynlig, Meget sannsynlig'
p1603
sg6
S'gray'
p1604
sg8
(lp1605
sg10
S'Likely'
p1606
sg12
S'Most'
p1607
sg14
g66
sg16
I0
sg17
S'Low'
p1608
sg19
S'Liten tilleggsbelastning'
p1609
sg21
Nsg22
S'500'
p1610
sg24
S'2300'
p1611
sg26
S'De fleste bratte heng, Ogsaa i mindre bratt terreng'
p1612
sg28
Nsg29
g1326
sg31
S'5 - Svaert store'
p1613
sba(irunmatrix
M3Element
p1614
(dp1615
g3
Nsg4
S'Sannsynlig, Meget sannsynlig'
p1616
sg6
S'white'
p1617
sg8
(lp1618
sg10
S'Likely'
p1619
sg12
S'Most'
p1620
sg14
g66
sg16
I0
sg17
S'Nat'
p1621
sg19
S'Naturlig utloest'
p1622
sg21
Nsg22
S'500'
p1623
sg24
S'2400'
p1624
sg26
S'De fleste bratte heng, Ogsaa i mindre bratt terreng'
p1625
sg28
Nsg29
g1326
sg31
S'5 - Svaert store'
p1626
sba.