(lp0
(irunmatrix
M3Element
p1
(dp2
S'danger_level_average'
p3
F1.0
sS'probability'
p4
S'Lite sannsynlig, Mulig'
p5
sS'colour'
p6
S'#ccff66'
p7
sS'danger_level_list'
p8
(lp9
I1
asS'label_probalility'
p10
S'Possible'
p11
sS'label_distribution'
p12
S'Isolated'
p13
sS'recomended_colour'
p14
S'#ccff66'
p15
sS'recomended_danger_level'
p16
I1
sS'label_trigger'
p17
S'High'
p18
sS'trigger'
p19
S'Stor tilleggsbelastning'
p20
sS'occurrences'
p21
I1
sS'y'
p22
S'100'
p23
sS'x'
p24
S'100'
p25
sS'distribution'
p26
S'Isolerte faresoner'
p27
sS'danger_level_standard_dev'
p28
cnumpy.core.multiarray
scalar
p29
(cnumpy
dtype
p30
(S'f8'
p31
I0
I1
tp32
Rp33
(I3
S'<'
p34
NNNI-1
I-1
I0
tp35
bS'\x00\x00\x00\x00\x00\x00\x00\x00'
p36
tp37
Rp38
sS'label_size'
p39
S'1'
p40
sS'avalanche_size'
p41
S'1 - Harmloest'
p42
sba(irunmatrix
M3Element
p43
(dp44
g3
Nsg4
S'Lite sannsynlig, Mulig'
p45
sg6
S'white'
p46
sg8
(lp47
sg10
S'Possible'
p48
sg12
S'Isolated'
p49
sg14
g15
sg16
I1
sg17
S'Low'
p50
sg19
S'Liten tilleggsbelastning'
p51
sg21
Nsg22
S'100'
p52
sg24
S'200'
p53
sg26
S'Isolerte faresoner'
p54
sg28
Nsg39
g40
sg41
S'1 - Harmloest'
p55
sba(irunmatrix
M3Element
p56
(dp57
g3
Nsg4
S'Lite sannsynlig, Mulig'
p58
sg6
S'white'
p59
sg8
(lp60
sg10
S'Possible'
p61
sg12
S'Isolated'
p62
sg14
g15
sg16
I1
sg17
S'Nat'
p63
sg19
S'Naturlig utloest'
p64
sg21
Nsg22
S'100'
p65
sg24
S'300'
p66
sg26
S'Isolerte faresoner'
p67
sg28
Nsg39
g40
sg41
S'1 - Harmloest'
p68
sba(irunmatrix
M3Element
p69
(dp70
g3
Nsg4
S'Sannsynlig, Meget sannsynlig'
p71
sg6
S'gray'
p72
sg8
(lp73
sg10
S'Likely'
p74
sg12
S'Isolated'
p75
sg14
S'gray'
p76
sg16
I0
sg17
S'High'
p77
sg19
S'Stor tilleggsbelastning'
p78
sg21
Nsg22
S'100'
p79
sg24
S'400'
p80
sg26
S'Isolerte faresoner'
p81
sg28
Nsg39
g40
sg41
S'1 - Harmloest'
p82
sba(irunmatrix
M3Element
p83
(dp84
g3
Nsg4
S'Sannsynlig, Meget sannsynlig'
p85
sg6
S'gray'
p86
sg8
(lp87
sg10
S'Likely'
p88
sg12
S'Isolated'
p89
sg14
g76
sg16
I0
sg17
S'Low'
p90
sg19
S'Liten tilleggsbelastning'
p91
sg21
Nsg22
S'100'
p92
sg24
S'500'
p93
sg26
S'Isolerte faresoner'
p94
sg28
Nsg39
g40
sg41
S'1 - Harmloest'
p95
sba(irunmatrix
M3Element
p96
(dp97
g3
Nsg4
S'Sannsynlig, Meget sannsynlig'
p98
sg6
S'gray'
p99
sg8
(lp100
sg10
S'Likely'
p101
sg12
S'Isolated'
p102
sg14
g76
sg16
I0
sg17
S'Nat'
p103
sg19
S'Naturlig utloest'
p104
sg21
Nsg22
S'100'
p105
sg24
S'600'
p106
sg26
S'Isolerte faresoner'
p107
sg28
Nsg39
g40
sg41
S'1 - Harmloest'
p108
sba(irunmatrix
M3Element
p109
(dp110
g3
Nsg4
S'Lite sannsynlig, Mulig'
p111
sg6
S'white'
p112
sg8
(lp113
sg10
S'Possible'
p114
sg12
S'Some'
p115
sg14
g15
sg16
I1
sg17
S'High'
p116
sg19
S'Stor tilleggsbelastning'
p117
sg21
Nsg22
S'100'
p118
sg24
S'700'
p119
sg26
S'Noen bratte heng'
p120
sg28
Nsg39
g40
sg41
S'1 - Harmloest'
p121
sba(irunmatrix
M3Element
p122
(dp123
g3
Nsg4
S'Lite sannsynlig, Mulig'
p124
sg6
S'white'
p125
sg8
(lp126
sg10
S'Possible'
p127
sg12
S'Some'
p128
sg14
g15
sg16
I1
sg17
S'Low'
p129
sg19
S'Liten tilleggsbelastning'
p130
sg21
Nsg22
S'100'
p131
sg24
S'800'
p132
sg26
S'Noen bratte heng'
p133
sg28
Nsg39
g40
sg41
S'1 - Harmloest'
p134
sba(irunmatrix
M3Element
p135
(dp136
g3
Nsg4
S'Lite sannsynlig, Mulig'
p137
sg6
S'white'
p138
sg8
(lp139
sg10
S'Possible'
p140
sg12
S'Some'
p141
sg14
g15
sg16
I1
sg17
S'Nat'
p142
sg19
S'Naturlig utloest'
p143
sg21
Nsg22
S'100'
p144
sg24
S'900'
p145
sg26
S'Noen bratte heng'
p146
sg28
Nsg39
g40
sg41
S'1 - Harmloest'
p147
sba(irunmatrix
M3Element
p148
(dp149
g3
Nsg4
S'Sannsynlig, Meget sannsynlig'
p150
sg6
S'gray'
p151
sg8
(lp152
sg10
S'Likely'
p153
sg12
S'Some'
p154
sg14
g76
sg16
I0
sg17
S'High'
p155
sg19
S'Stor tilleggsbelastning'
p156
sg21
Nsg22
S'100'
p157
sg24
S'1000'
p158
sg26
S'Noen bratte heng'
p159
sg28
Nsg39
g40
sg41
S'1 - Harmloest'
p160
sba(irunmatrix
M3Element
p161
(dp162
g3
Nsg4
S'Sannsynlig, Meget sannsynlig'
p163
sg6
S'gray'
p164
sg8
(lp165
sg10
S'Likely'
p166
sg12
S'Some'
p167
sg14
g76
sg16
I0
sg17
S'Low'
p168
sg19
S'Liten tilleggsbelastning'
p169
sg21
Nsg22
S'100'
p170
sg24
S'1100'
p171
sg26
S'Noen bratte heng'
p172
sg28
Nsg39
g40
sg41
S'1 - Harmloest'
p173
sba(irunmatrix
M3Element
p174
(dp175
g3
Nsg4
S'Sannsynlig, Meget sannsynlig'
p176
sg6
S'white'
p177
sg8
(lp178
sg10
S'Likely'
p179
sg12
S'Some'
p180
sg14
g15
sg16
I1
sg17
S'Nat'
p181
sg19
S'Naturlig utloest'
p182
sg21
Nsg22
S'100'
p183
sg24
S'1200'
p184
sg26
S'Noen bratte heng'
p185
sg28
Nsg39
g40
sg41
S'1 - Harmloest'
p186
sba(irunmatrix
M3Element
p187
(dp188
g3
Nsg4
S'Lite sannsynlig, Mulig'
p189
sg6
S'gray'
p190
sg8
(lp191
sg10
S'Possible'
p192
sg12
S'Many'
p193
sg14
g76
sg16
I0
sg17
S'High'
p194
sg19
S'Stor tilleggsbelastning'
p195
sg21
Nsg22
S'100'
p196
sg24
S'1300'
p197
sg26
S'Mange bratte heng'
p198
sg28
Nsg39
g40
sg41
S'1 - Harmloest'
p199
sba(irunmatrix
M3Element
p200
(dp201
g3
Nsg4
S'Lite sannsynlig, Mulig'
p202
sg6
S'white'
p203
sg8
(lp204
sg10
S'Possible'
p205
sg12
S'Many'
p206
sg14
g15
sg16
I1
sg17
S'Low'
p207
sg19
S'Liten tilleggsbelastning'
p208
sg21
Nsg22
S'100'
p209
sg24
S'1400'
p210
sg26
S'Mange bratte heng'
p211
sg28
Nsg39
g40
sg41
S'1 - Harmloest'
p212
sba(irunmatrix
M3Element
p213
(dp214
g3
Nsg4
S'Lite sannsynlig, Mulig'
p215
sg6
S'gray'
p216
sg8
(lp217
sg10
S'Possible'
p218
sg12
S'Many'
p219
sg14
g76
sg16
I0
sg17
S'Nat'
p220
sg19
S'Naturlig utloest'
p221
sg21
Nsg22
S'100'
p222
sg24
S'1500'
p223
sg26
S'Mange bratte heng'
p224
sg28
Nsg39
g40
sg41
S'1 - Harmloest'
p225
sba(irunmatrix
M3Element
p226
(dp227
g3
Nsg4
S'Sannsynlig, Meget sannsynlig'
p228
sg6
S'gray'
p229
sg8
(lp230
sg10
S'Likely'
p231
sg12
S'Many'
p232
sg14
g76
sg16
I0
sg17
S'High'
p233
sg19
S'Stor tilleggsbelastning'
p234
sg21
Nsg22
S'100'
p235
sg24
S'1600'
p236
sg26
S'Mange bratte heng'
p237
sg28
Nsg39
g40
sg41
S'1 - Harmloest'
p238
sba(irunmatrix
M3Element
p239
(dp240
g3
Nsg4
S'Sannsynlig, Meget sannsynlig'
p241
sg6
S'white'
p242
sg8
(lp243
sg10
S'Likely'
p244
sg12
S'Many'
p245
sg14
S'#ffff00'
p246
sg16
I2
sg17
S'Low'
p247
sg19
S'Liten tilleggsbelastning'
p248
sg21
Nsg22
S'100'
p249
sg24
S'1700'
p250
sg26
S'Mange bratte heng'
p251
sg28
Nsg39
g40
sg41
S'1 - Harmloest'
p252
sba(irunmatrix
M3Element
p253
(dp254
g3
Nsg4
S'Sannsynlig, Meget sannsynlig'
p255
sg6
S'white'
p256
sg8
(lp257
sg10
S'Likely'
p258
sg12
S'Many'
p259
sg14
g246
sg16
I2
sg17
S'Nat'
p260
sg19
S'Naturlig utloest'
p261
sg21
Nsg22
S'100'
p262
sg24
S'1800'
p263
sg26
S'Mange bratte heng'
p264
sg28
Nsg39
g40
sg41
S'1 - Harmloest'
p265
sba(irunmatrix
M3Element
p266
(dp267
g3
Nsg4
S'Lite sannsynlig, Mulig'
p268
sg6
S'gray'
p269
sg8
(lp270
sg10
S'Possible'
p271
sg12
S'Most'
p272
sg14
g76
sg16
I0
sg17
S'High'
p273
sg19
S'Stor tilleggsbelastning'
p274
sg21
Nsg22
S'100'
p275
sg24
S'1900'
p276
sg26
S'De fleste bratte heng, Ogsaa i mindre bratt terreng'
p277
sg28
Nsg39
g40
sg41
S'1 - Harmloest'
p278
sba(irunmatrix
M3Element
p279
(dp280
g3
Nsg4
S'Lite sannsynlig, Mulig'
p281
sg6
S'gray'
p282
sg8
(lp283
sg10
S'Possible'
p284
sg12
S'Most'
p285
sg14
g76
sg16
I0
sg17
S'Low'
p286
sg19
S'Liten tilleggsbelastning'
p287
sg21
Nsg22
S'100'
p288
sg24
S'2000'
p289
sg26
S'De fleste bratte heng, Ogsaa i mindre bratt terreng'
p290
sg28
Nsg39
g40
sg41
S'1 - Harmloest'
p291
sba(irunmatrix
M3Element
p292
(dp293
g3
Nsg4
S'Lite sannsynlig, Mulig'
p294
sg6
S'gray'
p295
sg8
(lp296
sg10
S'Possible'
p297
sg12
S'Most'
p298
sg14
g76
sg16
I0
sg17
S'Nat'
p299
sg19
S'Naturlig utloest'
p300
sg21
Nsg22
S'100'
p301
sg24
S'2100'
p302
sg26
S'De fleste bratte heng, Ogsaa i mindre bratt terreng'
p303
sg28
Nsg39
g40
sg41
S'1 - Harmloest'
p304
sba(irunmatrix
M3Element
p305
(dp306
g3
Nsg4
S'Sannsynlig, Meget sannsynlig'
p307
sg6
S'gray'
p308
sg8
(lp309
sg10
S'Likely'
p310
sg12
S'Most'
p311
sg14
g76
sg16
I0
sg17
S'High'
p312
sg19
S'Stor tilleggsbelastning'
p313
sg21
Nsg22
S'100'
p314
sg24
S'2200'
p315
sg26
S'De fleste bratte heng, Ogsaa i mindre bratt terreng'
p316
sg28
Nsg39
g40
sg41
S'1 - Harmloest'
p317
sba(irunmatrix
M3Element
p318
(dp319
g3
Nsg4
S'Sannsynlig, Meget sannsynlig'
p320
sg6
S'gray'
p321
sg8
(lp322
sg10
S'Likely'
p323
sg12
S'Most'
p324
sg14
g76
sg16
I0
sg17
S'Low'
p325
sg19
S'Liten tilleggsbelastning'
p326
sg21
Nsg22
S'100'
p327
sg24
S'2300'
p328
sg26
S'De fleste bratte heng, Ogsaa i mindre bratt terreng'
p329
sg28
Nsg39
g40
sg41
S'1 - Harmloest'
p330
sba(irunmatrix
M3Element
p331
(dp332
g3
Nsg4
S'Sannsynlig, Meget sannsynlig'
p333
sg6
S'white'
p334
sg8
(lp335
sg10
S'Likely'
p336
sg12
S'Most'
p337
sg14
g76
sg16
I0
sg17
S'Nat'
p338
sg19
S'Naturlig utloest'
p339
sg21
Nsg22
S'100'
p340
sg24
S'2400'
p341
sg26
S'De fleste bratte heng, Ogsaa i mindre bratt terreng'
p342
sg28
Nsg39
S'2'
p343
sg41
S'1 - Harmloest'
p344
sba(irunmatrix
M3Element
p345
(dp346
g3
F2.0
sg4
S'Lite sannsynlig, Mulig'
p347
sg6
S'#ffff00'
p348
sg8
(lp349
I2
aI2
aI2
asg10
S'Possible'
p350
sg12
S'Isolated'
p351
sg14
g15
sg16
I1
sg17
S'High'
p352
sg19
S'Stor tilleggsbelastning'
p353
sg21
I3
sg22
S'200'
p354
sg24
S'100'
p355
sg26
S'Isolerte faresoner'
p356
sg28
g29
(g33
S'\x00\x00\x00\x00\x00\x00\x00\x00'
p357
tp358
Rp359
sg39
g343
sg41
S'2 - Smaa'
p360
sba(irunmatrix
M3Element
p361
(dp362
g3
F1.25
sg4
S'Lite sannsynlig, Mulig'
p363
sg6
g7
sg8
(lp364
I1
aI2
aI2
aI1
aI1
aI1
aI1
aI1
asg10
S'Possible'
p365
sg12
S'Isolated'
p366
sg14
g15
sg16
I1
sg17
S'Low'
p367
sg19
S'Liten tilleggsbelastning'
p368
sg21
I8
sg22
S'200'
p369
sg24
S'200'
p370
sg26
S'Isolerte faresoner'
p371
sg28
g29
(g33
S'\xaaLX\xe8z\xb6\xdb?'
p372
tp373
Rp374
sg39
g343
sg41
S'2 - Smaa'
p375
sba(irunmatrix
M3Element
p376
(dp377
g3
F1.0
sg4
S'Lite sannsynlig, Mulig'
p378
sg6
g7
sg8
(lp379
I1
aI1
aI1
aI1
aI1
aI1
aI1
aI1
aI1
aI1
aI1
aI1
aI1
aI1
asg10
S'Possible'
p380
sg12
S'Isolated'
p381
sg14
g15
sg16
I1
sg17
S'Nat'
p382
sg19
S'Naturlig utloest'
p383
sg21
I14
sg22
S'200'
p384
sg24
S'300'
p385
sg26
S'Isolerte faresoner'
p386
sg28
g29
(g33
S'\x00\x00\x00\x00\x00\x00\x00\x00'
p387
tp388
Rp389
sg39
g343
sg41
S'2 - Smaa'
p390
sba(irunmatrix
M3Element
p391
(dp392
g3
Nsg4
S'Sannsynlig, Meget sannsynlig'
p393
sg6
S'gray'
p394
sg8
(lp395
sg10
S'Likely'
p396
sg12
S'Isolated'
p397
sg14
g76
sg16
I0
sg17
S'High'
p398
sg19
S'Stor tilleggsbelastning'
p399
sg21
Nsg22
S'200'
p400
sg24
S'400'
p401
sg26
S'Isolerte faresoner'
p402
sg28
Nsg39
g343
sg41
S'2 - Smaa'
p403
sba(irunmatrix
M3Element
p404
(dp405
g3
Nsg4
S'Sannsynlig, Meget sannsynlig'
p406
sg6
S'gray'
p407
sg8
(lp408
sg10
S'Likely'
p409
sg12
S'Isolated'
p410
sg14
g76
sg16
I0
sg17
S'Low'
p411
sg19
S'Liten tilleggsbelastning'
p412
sg21
Nsg22
S'200'
p413
sg24
S'500'
p414
sg26
S'Isolerte faresoner'
p415
sg28
Nsg39
g343
sg41
S'2 - Smaa'
p416
sba(irunmatrix
M3Element
p417
(dp418
g3
Nsg4
S'Sannsynlig, Meget sannsynlig'
p419
sg6
S'gray'
p420
sg8
(lp421
sg10
S'Likely'
p422
sg12
S'Isolated'
p423
sg14
g76
sg16
I0
sg17
S'Nat'
p424
sg19
S'Naturlig utloest'
p425
sg21
Nsg22
S'200'
p426
sg24
S'600'
p427
sg26
S'Isolerte faresoner'
p428
sg28
Nsg39
g343
sg41
S'2 - Smaa'
p429
sba(irunmatrix
M3Element
p430
(dp431
g3
F2.0
sg4
S'Lite sannsynlig, Mulig'
p432
sg6
g348
sg8
(lp433
I2
aI2
aI2
aI2
aI2
asg10
S'Possible'
p434
sg12
S'Some'
p435
sg14
g246
sg16
I2
sg17
S'High'
p436
sg19
S'Stor tilleggsbelastning'
p437
sg21
I5
sg22
S'200'
p438
sg24
S'700'
p439
sg26
S'Noen bratte heng'
p440
sg28
g29
(g33
S'\x00\x00\x00\x00\x00\x00\x00\x00'
p441
tp442
Rp443
sg39
g343
sg41
S'2 - Smaa'
p444
sba(irunmatrix
M3Element
p445
(dp446
g3
F2.032258064516129
sg4
S'Lite sannsynlig, Mulig'
p447
sg6
g348
sg8
(lp448
I2
aI3
aI2
aI2
aI2
aI2
aI2
aI2
aI2
aI2
aI2
aI2
aI2
aI2
aI2
aI2
aI2
aI2
aI2
aI2
aI2
aI2
aI2
aI2
aI2
aI2
aI2
aI2
aI2
aI2
aI2
asg10
S'Possible'
p449
sg12
S'Some'
p450
sg14
g246
sg16
I2
sg17
S'Low'
p451
sg19
S'Liten tilleggsbelastning'
p452
sg21
I31
sg22
S'200'
p453
sg24
S'800'
p454
sg26
S'Noen bratte heng'
p455
sg28
g29
(g33
S'K7r\xa7\x9a\x9d\xc6?'
p456
tp457
Rp458
sg39
g343
sg41
S'2 - Smaa'
p459
sba(irunmatrix
M3Element
p460
(dp461
g3
F3.0
sg4
S'Lite sannsynlig, Mulig'
p462
sg6
S'#ff9900'
p463
sg8
(lp464
I3
asg10
S'Possible'
p465
sg12
S'Some'
p466
sg14
g246
sg16
I2
sg17
S'Nat'
p467
sg19
S'Naturlig utloest'
p468
sg21
I1
sg22
S'200'
p469
sg24
S'900'
p470
sg26
S'Noen bratte heng'
p471
sg28
g29
(g33
S'\x00\x00\x00\x00\x00\x00\x00\x00'
p472
tp473
Rp474
sg39
g343
sg41
S'2 - Smaa'
p475
sba(irunmatrix
M3Element
p476
(dp477
g3
Nsg4
S'Sannsynlig, Meget sannsynlig'
p478
sg6
S'gray'
p479
sg8
(lp480
sg10
S'Likely'
p481
sg12
S'Some'
p482
sg14
g76
sg16
I0
sg17
S'High'
p483
sg19
S'Stor tilleggsbelastning'
p484
sg21
Nsg22
S'200'
p485
sg24
S'1000'
p486
sg26
S'Noen bratte heng'
p487
sg28
Nsg39
g343
sg41
S'2 - Smaa'
p488
sba(irunmatrix
M3Element
p489
(dp490
g3
Nsg4
S'Sannsynlig, Meget sannsynlig'
p491
sg6
S'gray'
p492
sg8
(lp493
sg10
S'Likely'
p494
sg12
S'Some'
p495
sg14
g76
sg16
I0
sg17
S'Low'
p496
sg19
S'Liten tilleggsbelastning'
p497
sg21
Nsg22
S'200'
p498
sg24
S'1100'
p499
sg26
S'Noen bratte heng'
p500
sg28
Nsg39
g343
sg41
S'2 - Smaa'
p501
sba(irunmatrix
M3Element
p502
(dp503
g3
Nsg4
S'Sannsynlig, Meget sannsynlig'
p504
sg6
S'white'
p505
sg8
(lp506
sg10
S'Likely'
p507
sg12
S'Some'
p508
sg14
S'#ff9900'
p509
sg16
I3
sg17
S'Nat'
p510
sg19
S'Naturlig utloest'
p511
sg21
Nsg22
S'200'
p512
sg24
S'1200'
p513
sg26
S'Noen bratte heng'
p514
sg28
Nsg39
g343
sg41
S'2 - Smaa'
p515
sba(irunmatrix
M3Element
p516
(dp517
g3
Nsg4
S'Lite sannsynlig, Mulig'
p518
sg6
S'gray'
p519
sg8
(lp520
sg10
S'Possible'
p521
sg12
S'Many'
p522
sg14
g76
sg16
I0
sg17
S'High'
p523
sg19
S'Stor tilleggsbelastning'
p524
sg21
Nsg22
S'200'
p525
sg24
S'1300'
p526
sg26
S'Mange bratte heng'
p527
sg28
Nsg39
g343
sg41
S'2 - Smaa'
p528
sba(irunmatrix
M3Element
p529
(dp530
g3
Nsg4
S'Lite sannsynlig, Mulig'
p531
sg6
S'white'
p532
sg8
(lp533
sg10
S'Possible'
p534
sg12
S'Many'
p535
sg14
g509
sg16
I3
sg17
S'Low'
p536
sg19
S'Liten tilleggsbelastning'
p537
sg21
Nsg22
S'200'
p538
sg24
S'1400'
p539
sg26
S'Mange bratte heng'
p540
sg28
Nsg39
g343
sg41
S'2 - Smaa'
p541
sba(irunmatrix
M3Element
p542
(dp543
g3
Nsg4
S'Lite sannsynlig, Mulig'
p544
sg6
S'gray'
p545
sg8
(lp546
sg10
S'Possible'
p547
sg12
S'Many'
p548
sg14
g76
sg16
I0
sg17
S'Nat'
p549
sg19
S'Naturlig utloest'
p550
sg21
Nsg22
S'200'
p551
sg24
S'1500'
p552
sg26
S'Mange bratte heng'
p553
sg28
Nsg39
g343
sg41
S'2 - Smaa'
p554
sba(irunmatrix
M3Element
p555
(dp556
g3
Nsg4
S'Sannsynlig, Meget sannsynlig'
p557
sg6
S'gray'
p558
sg8
(lp559
sg10
S'Likely'
p560
sg12
S'Many'
p561
sg14
g76
sg16
I0
sg17
S'High'
p562
sg19
S'Stor tilleggsbelastning'
p563
sg21
Nsg22
S'200'
p564
sg24
S'1600'
p565
sg26
S'Mange bratte heng'
p566
sg28
Nsg39
g343
sg41
S'2 - Smaa'
p567
sba(irunmatrix
M3Element
p568
(dp569
g3
Nsg4
S'Sannsynlig, Meget sannsynlig'
p570
sg6
S'white'
p571
sg8
(lp572
sg10
S'Likely'
p573
sg12
S'Many'
p574
sg14
S'#ff0000'
p575
sg16
I4
sg17
S'Low'
p576
sg19
S'Liten tilleggsbelastning'
p577
sg21
Nsg22
S'200'
p578
sg24
S'1700'
p579
sg26
S'Mange bratte heng'
p580
sg28
Nsg39
g343
sg41
S'2 - Smaa'
p581
sba(irunmatrix
M3Element
p582
(dp583
g3
Nsg4
S'Sannsynlig, Meget sannsynlig'
p584
sg6
S'white'
p585
sg8
(lp586
sg10
S'Likely'
p587
sg12
S'Many'
p588
sg14
g575
sg16
I4
sg17
S'Nat'
p589
sg19
S'Naturlig utloest'
p590
sg21
Nsg22
S'200'
p591
sg24
S'1800'
p592
sg26
S'Mange bratte heng'
p593
sg28
Nsg39
g343
sg41
S'2 - Smaa'
p594
sba(irunmatrix
M3Element
p595
(dp596
g3
Nsg4
S'Lite sannsynlig, Mulig'
p597
sg6
S'gray'
p598
sg8
(lp599
sg10
S'Possible'
p600
sg12
S'Most'
p601
sg14
g76
sg16
I0
sg17
S'High'
p602
sg19
S'Stor tilleggsbelastning'
p603
sg21
Nsg22
S'200'
p604
sg24
S'1900'
p605
sg26
S'De fleste bratte heng, Ogsaa i mindre bratt terreng'
p606
sg28
Nsg39
g343
sg41
S'2 - Smaa'
p607
sba(irunmatrix
M3Element
p608
(dp609
g3
Nsg4
S'Lite sannsynlig, Mulig'
p610
sg6
S'gray'
p611
sg8
(lp612
sg10
S'Possible'
p613
sg12
S'Most'
p614
sg14
g76
sg16
I0
sg17
S'Low'
p615
sg19
S'Liten tilleggsbelastning'
p616
sg21
Nsg22
S'200'
p617
sg24
S'2000'
p618
sg26
S'De fleste bratte heng, Ogsaa i mindre bratt terreng'
p619
sg28
Nsg39
g343
sg41
S'2 - Smaa'
p620
sba(irunmatrix
M3Element
p621
(dp622
g3
Nsg4
S'Lite sannsynlig, Mulig'
p623
sg6
S'gray'
p624
sg8
(lp625
sg10
S'Possible'
p626
sg12
S'Most'
p627
sg14
g76
sg16
I0
sg17
S'Nat'
p628
sg19
S'Naturlig utloest'
p629
sg21
Nsg22
S'200'
p630
sg24
S'2100'
p631
sg26
S'De fleste bratte heng, Ogsaa i mindre bratt terreng'
p632
sg28
Nsg39
g343
sg41
S'2 - Smaa'
p633
sba(irunmatrix
M3Element
p634
(dp635
g3
Nsg4
S'Sannsynlig, Meget sannsynlig'
p636
sg6
S'gray'
p637
sg8
(lp638
sg10
S'Likely'
p639
sg12
S'Most'
p640
sg14
g76
sg16
I0
sg17
S'High'
p641
sg19
S'Stor tilleggsbelastning'
p642
sg21
Nsg22
S'200'
p643
sg24
S'2200'
p644
sg26
S'De fleste bratte heng, Ogsaa i mindre bratt terreng'
p645
sg28
Nsg39
g343
sg41
S'2 - Smaa'
p646
sba(irunmatrix
M3Element
p647
(dp648
g3
Nsg4
S'Sannsynlig, Meget sannsynlig'
p649
sg6
S'gray'
p650
sg8
(lp651
sg10
S'Likely'
p652
sg12
S'Most'
p653
sg14
g76
sg16
I0
sg17
S'Low'
p654
sg19
S'Liten tilleggsbelastning'
p655
sg21
Nsg22
S'200'
p656
sg24
S'2300'
p657
sg26
S'De fleste bratte heng, Ogsaa i mindre bratt terreng'
p658
sg28
Nsg39
g343
sg41
S'2 - Smaa'
p659
sba(irunmatrix
M3Element
p660
(dp661
g3
Nsg4
S'Sannsynlig, Meget sannsynlig'
p662
sg6
S'white'
p663
sg8
(lp664
sg10
S'Likely'
p665
sg12
S'Most'
p666
sg14
g76
sg16
I0
sg17
S'Nat'
p667
sg19
S'Naturlig utloest'
p668
sg21
Nsg22
S'200'
p669
sg24
S'2400'
p670
sg26
S'De fleste bratte heng, Ogsaa i mindre bratt terreng'
p671
sg28
Nsg39
g343
sg41
S'2 - Smaa'
p672
sba(irunmatrix
M3Element
p673
(dp674
g3
Nsg4
S'Lite sannsynlig, Mulig'
p675
sg6
S'white'
p676
sg8
(lp677
sg10
S'Possible'
p678
sg12
S'Isolated'
p679
sg14
g15
sg16
I1
sg17
S'High'
p680
sg19
S'Stor tilleggsbelastning'
p681
sg21
Nsg22
S'300'
p682
sg24
S'100'
p683
sg26
S'Isolerte faresoner'
p684
sg28
Nsg39
S'3'
p685
sg41
S'3 - Middels'
p686
sba(irunmatrix
M3Element
p687
(dp688
g3
F2.0
sg4
S'Lite sannsynlig, Mulig'
p689
sg6
g348
sg8
(lp690
I2
aI2
aI2
asg10
S'Possible'
p691
sg12
S'Isolated'
p692
sg14
g246
sg16
I2
sg17
S'Low'
p693
sg19
S'Liten tilleggsbelastning'
p694
sg21
I3
sg22
S'300'
p695
sg24
S'200'
p696
sg26
S'Isolerte faresoner'
p697
sg28
g29
(g33
S'\x00\x00\x00\x00\x00\x00\x00\x00'
p698
tp699
Rp700
sg39
g685
sg41
S'3 - Middels'
p701
sba(irunmatrix
M3Element
p702
(dp703
g3
F1.1428571428571428
sg4
S'Lite sannsynlig, Mulig'
p704
sg6
g7
sg8
(lp705
I1
aI1
aI1
aI1
aI1
aI1
aI2
asg10
S'Possible'
p706
sg12
S'Isolated'
p707
sg14
g246
sg16
I2
sg17
S'Nat'
p708
sg19
S'Naturlig utloest'
p709
sg21
I7
sg22
S'300'
p710
sg24
S'300'
p711
sg26
S'Isolerte faresoner'
p712
sg28
g29
(g33
S'Z\x01/\xa94e\xd6?'
p713
tp714
Rp715
sg39
g685
sg41
S'3 - Middels'
p716
sba(irunmatrix
M3Element
p717
(dp718
g3
Nsg4
S'Sannsynlig, Meget sannsynlig'
p719
sg6
S'gray'
p720
sg8
(lp721
sg10
S'Likely'
p722
sg12
S'Isolated'
p723
sg14
g76
sg16
I0
sg17
S'High'
p724
sg19
S'Stor tilleggsbelastning'
p725
sg21
Nsg22
S'300'
p726
sg24
S'400'
p727
sg26
S'Isolerte faresoner'
p728
sg28
Nsg39
g685
sg41
S'3 - Middels'
p729
sba(irunmatrix
M3Element
p730
(dp731
g3
Nsg4
S'Sannsynlig, Meget sannsynlig'
p732
sg6
S'gray'
p733
sg8
(lp734
sg10
S'Likely'
p735
sg12
S'Isolated'
p736
sg14
g76
sg16
I0
sg17
S'Low'
p737
sg19
S'Liten tilleggsbelastning'
p738
sg21
Nsg22
S'300'
p739
sg24
S'500'
p740
sg26
S'Isolerte faresoner'
p741
sg28
Nsg39
g685
sg41
S'3 - Middels'
p742
sba(irunmatrix
M3Element
p743
(dp744
g3
Nsg4
S'Sannsynlig, Meget sannsynlig'
p745
sg6
S'gray'
p746
sg8
(lp747
sg10
S'Likely'
p748
sg12
S'Isolated'
p749
sg14
g76
sg16
I0
sg17
S'Nat'
p750
sg19
S'Naturlig utloest'
p751
sg21
Nsg22
S'300'
p752
sg24
S'600'
p753
sg26
S'Isolerte faresoner'
p754
sg28
Nsg39
g685
sg41
S'3 - Middels'
p755
sba(irunmatrix
M3Element
p756
(dp757
g3
F2.0
sg4
S'Lite sannsynlig, Mulig'
p758
sg6
g348
sg8
(lp759
I2
aI2
aI2
aI2
aI2
aI2
asg10
S'Possible'
p760
sg12
S'Some'
p761
sg14
g246
sg16
I2
sg17
S'High'
p762
sg19
S'Stor tilleggsbelastning'
p763
sg21
I6
sg22
S'300'
p764
sg24
S'700'
p765
sg26
S'Noen bratte heng'
p766
sg28
g29
(g33
S'\x00\x00\x00\x00\x00\x00\x00\x00'
p767
tp768
Rp769
sg39
g685
sg41
S'3 - Middels'
p770
sba(irunmatrix
M3Element
p771
(dp772
g3
F3.0
sg4
S'Lite sannsynlig, Mulig'
p773
sg6
g463
sg8
(lp774
I3
aI3
aI3
aI3
asg10
S'Possible'
p775
sg12
S'Some'
p776
sg14
g509
sg16
I3
sg17
S'Low'
p777
sg19
S'Liten tilleggsbelastning'
p778
sg21
I4
sg22
S'300'
p779
sg24
S'800'
p780
sg26
S'Noen bratte heng'
p781
sg28
g29
(g33
S'\x00\x00\x00\x00\x00\x00\x00\x00'
p782
tp783
Rp784
sg39
g685
sg41
S'3 - Middels'
p785
sba(irunmatrix
M3Element
p786
(dp787
g3
F3.0
sg4
S'Lite sannsynlig, Mulig'
p788
sg6
g463
sg8
(lp789
I3
aI3
aI3
asg10
S'Possible'
p790
sg12
S'Some'
p791
sg14
g509
sg16
I3
sg17
S'Nat'
p792
sg19
S'Naturlig utloest'
p793
sg21
I3
sg22
S'300'
p794
sg24
S'900'
p795
sg26
S'Noen bratte heng'
p796
sg28
g29
(g33
S'\x00\x00\x00\x00\x00\x00\x00\x00'
p797
tp798
Rp799
sg39
g685
sg41
S'3 - Middels'
p800
sba(irunmatrix
M3Element
p801
(dp802
g3
Nsg4
S'Sannsynlig, Meget sannsynlig'
p803
sg6
S'gray'
p804
sg8
(lp805
sg10
S'Likely'
p806
sg12
S'Some'
p807
sg14
g76
sg16
I0
sg17
S'High'
p808
sg19
S'Stor tilleggsbelastning'
p809
sg21
Nsg22
S'300'
p810
sg24
S'1000'
p811
sg26
S'Noen bratte heng'
p812
sg28
Nsg39
g685
sg41
S'3 - Middels'
p813
sba(irunmatrix
M3Element
p814
(dp815
g3
F3.0
sg4
S'Sannsynlig, Meget sannsynlig'
p816
sg6
g463
sg8
(lp817
I3
aI3
asg10
S'Likely'
p818
sg12
S'Some'
p819
sg14
g76
sg16
I0
sg17
S'Low'
p820
sg19
S'Liten tilleggsbelastning'
p821
sg21
I2
sg22
S'300'
p822
sg24
S'1100'
p823
sg26
S'Noen bratte heng'
p824
sg28
g29
(g33
S'\x00\x00\x00\x00\x00\x00\x00\x00'
p825
tp826
Rp827
sg39
g685
sg41
S'3 - Middels'
p828
sba(irunmatrix
M3Element
p829
(dp830
g3
Nsg4
S'Sannsynlig, Meget sannsynlig'
p831
sg6
S'white'
p832
sg8
(lp833
sg10
S'Likely'
p834
sg12
S'Some'
p835
sg14
g575
sg16
I4
sg17
S'Nat'
p836
sg19
S'Naturlig utloest'
p837
sg21
Nsg22
S'300'
p838
sg24
S'1200'
p839
sg26
S'Noen bratte heng'
p840
sg28
Nsg39
g685
sg41
S'3 - Middels'
p841
sba(irunmatrix
M3Element
p842
(dp843
g3
Nsg4
S'Lite sannsynlig, Mulig'
p844
sg6
S'gray'
p845
sg8
(lp846
sg10
S'Possible'
p847
sg12
S'Many'
p848
sg14
g76
sg16
I0
sg17
S'High'
p849
sg19
S'Stor tilleggsbelastning'
p850
sg21
Nsg22
S'300'
p851
sg24
S'1300'
p852
sg26
S'Mange bratte heng'
p853
sg28
Nsg39
g685
sg41
S'3 - Middels'
p854
sba(irunmatrix
M3Element
p855
(dp856
g3
Nsg4
S'Lite sannsynlig, Mulig'
p857
sg6
S'white'
p858
sg8
(lp859
sg10
S'Possible'
p860
sg12
S'Many'
p861
sg14
g575
sg16
I4
sg17
S'Low'
p862
sg19
S'Liten tilleggsbelastning'
p863
sg21
Nsg22
S'300'
p864
sg24
S'1400'
p865
sg26
S'Mange bratte heng'
p866
sg28
Nsg39
g685
sg41
S'3 - Middels'
p867
sba(irunmatrix
M3Element
p868
(dp869
g3
F3.0
sg4
S'Lite sannsynlig, Mulig'
p870
sg6
g463
sg8
(lp871
I3
asg10
S'Possible'
p872
sg12
S'Many'
p873
sg14
g76
sg16
I0
sg17
S'Nat'
p874
sg19
S'Naturlig utloest'
p875
sg21
I1
sg22
S'300'
p876
sg24
S'1500'
p877
sg26
S'Mange bratte heng'
p878
sg28
g29
(g33
S'\x00\x00\x00\x00\x00\x00\x00\x00'
p879
tp880
Rp881
sg39
g685
sg41
S'3 - Middels'
p882
sba(irunmatrix
M3Element
p883
(dp884
g3
Nsg4
S'Sannsynlig, Meget sannsynlig'
p885
sg6
S'gray'
p886
sg8
(lp887
sg10
S'Likely'
p888
sg12
S'Many'
p889
sg14
g76
sg16
I0
sg17
S'High'
p890
sg19
S'Stor tilleggsbelastning'
p891
sg21
Nsg22
S'300'
p892
sg24
S'1600'
p893
sg26
S'Mange bratte heng'
p894
sg28
Nsg39
g685
sg41
S'3 - Middels'
p895
sba(irunmatrix
M3Element
p896
(dp897
g3
Nsg4
S'Sannsynlig, Meget sannsynlig'
p898
sg6
S'white'
p899
sg8
(lp900
sg10
S'Likely'
p901
sg12
S'Many'
p902
sg14
g575
sg16
I4
sg17
S'Low'
p903
sg19
S'Liten tilleggsbelastning'
p904
sg21
Nsg22
S'300'
p905
sg24
S'1700'
p906
sg26
S'Mange bratte heng'
p907
sg28
Nsg39
g685
sg41
S'3 - Middels'
p908
sba(irunmatrix
M3Element
p909
(dp910
g3
Nsg4
S'Sannsynlig, Meget sannsynlig'
p911
sg6
S'white'
p912
sg8
(lp913
sg10
S'Likely'
p914
sg12
S'Many'
p915
sg14
g575
sg16
I4
sg17
S'Nat'
p916
sg19
S'Naturlig utloest'
p917
sg21
Nsg22
S'300'
p918
sg24
S'1800'
p919
sg26
S'Mange bratte heng'
p920
sg28
Nsg39
g685
sg41
S'3 - Middels'
p921
sba(irunmatrix
M3Element
p922
(dp923
g3
Nsg4
S'Lite sannsynlig, Mulig'
p924
sg6
S'gray'
p925
sg8
(lp926
sg10
S'Possible'
p927
sg12
S'Most'
p928
sg14
g76
sg16
I0
sg17
S'High'
p929
sg19
S'Stor tilleggsbelastning'
p930
sg21
Nsg22
S'300'
p931
sg24
S'1900'
p932
sg26
S'De fleste bratte heng, Ogsaa i mindre bratt terreng'
p933
sg28
Nsg39
g685
sg41
S'3 - Middels'
p934
sba(irunmatrix
M3Element
p935
(dp936
g3
Nsg4
S'Lite sannsynlig, Mulig'
p937
sg6
S'gray'
p938
sg8
(lp939
sg10
S'Possible'
p940
sg12
S'Most'
p941
sg14
g76
sg16
I0
sg17
S'Low'
p942
sg19
S'Liten tilleggsbelastning'
p943
sg21
Nsg22
S'300'
p944
sg24
S'2000'
p945
sg26
S'De fleste bratte heng, Ogsaa i mindre bratt terreng'
p946
sg28
Nsg39
g685
sg41
S'3 - Middels'
p947
sba(irunmatrix
M3Element
p948
(dp949
g3
Nsg4
S'Lite sannsynlig, Mulig'
p950
sg6
S'gray'
p951
sg8
(lp952
sg10
S'Possible'
p953
sg12
S'Most'
p954
sg14
g76
sg16
I0
sg17
S'Nat'
p955
sg19
S'Naturlig utloest'
p956
sg21
Nsg22
S'300'
p957
sg24
S'2100'
p958
sg26
S'De fleste bratte heng, Ogsaa i mindre bratt terreng'
p959
sg28
Nsg39
g685
sg41
S'3 - Middels'
p960
sba(irunmatrix
M3Element
p961
(dp962
g3
Nsg4
S'Sannsynlig, Meget sannsynlig'
p963
sg6
S'gray'
p964
sg8
(lp965
sg10
S'Likely'
p966
sg12
S'Most'
p967
sg14
g76
sg16
I0
sg17
S'High'
p968
sg19
S'Stor tilleggsbelastning'
p969
sg21
Nsg22
S'300'
p970
sg24
S'2200'
p971
sg26
S'De fleste bratte heng, Ogsaa i mindre bratt terreng'
p972
sg28
Nsg39
g685
sg41
S'3 - Middels'
p973
sba(irunmatrix
M3Element
p974
(dp975
g3
Nsg4
S'Sannsynlig, Meget sannsynlig'
p976
sg6
S'gray'
p977
sg8
(lp978
sg10
S'Likely'
p979
sg12
S'Most'
p980
sg14
g76
sg16
I0
sg17
S'Low'
p981
sg19
S'Liten tilleggsbelastning'
p982
sg21
Nsg22
S'300'
p983
sg24
S'2300'
p984
sg26
S'De fleste bratte heng, Ogsaa i mindre bratt terreng'
p985
sg28
Nsg39
g685
sg41
S'3 - Middels'
p986
sba(irunmatrix
M3Element
p987
(dp988
g3
Nsg4
S'Sannsynlig, Meget sannsynlig'
p989
sg6
S'white'
p990
sg8
(lp991
sg10
S'Likely'
p992
sg12
S'Most'
p993
sg14
g76
sg16
I0
sg17
S'Nat'
p994
sg19
S'Naturlig utloest'
p995
sg21
Nsg22
S'300'
p996
sg24
S'2400'
p997
sg26
S'De fleste bratte heng, Ogsaa i mindre bratt terreng'
p998
sg28
Nsg39
g685
sg41
S'3 - Middels'
p999
sba(irunmatrix
M3Element
p1000
(dp1001
g3
Nsg4
S'Lite sannsynlig, Mulig'
p1002
sg6
S'white'
p1003
sg8
(lp1004
sg10
S'Possible'
p1005
sg12
S'Isolated'
p1006
sg14
g246
sg16
I2
sg17
S'High'
p1007
sg19
S'Stor tilleggsbelastning'
p1008
sg21
Nsg22
S'400'
p1009
sg24
S'100'
p1010
sg26
S'Isolerte faresoner'
p1011
sg28
Nsg39
S'4'
p1012
sg41
S'4 - Store'
p1013
sba(irunmatrix
M3Element
p1014
(dp1015
g3
Nsg4
S'Lite sannsynlig, Mulig'
p1016
sg6
S'white'
p1017
sg8
(lp1018
sg10
S'Possible'
p1019
sg12
S'Isolated'
p1020
sg14
g509
sg16
I3
sg17
S'Low'
p1021
sg19
S'Liten tilleggsbelastning'
p1022
sg21
Nsg22
S'400'
p1023
sg24
S'200'
p1024
sg26
S'Isolerte faresoner'
p1025
sg28
Nsg39
g1012
sg41
S'4 - Store'
p1026
sba(irunmatrix
M3Element
p1027
(dp1028
g3
Nsg4
S'Lite sannsynlig, Mulig'
p1029
sg6
S'white'
p1030
sg8
(lp1031
sg10
S'Possible'
p1032
sg12
S'Isolated'
p1033
sg14
g509
sg16
I3
sg17
S'Nat'
p1034
sg19
S'Naturlig utloest'
p1035
sg21
Nsg22
S'400'
p1036
sg24
S'300'
p1037
sg26
S'Isolerte faresoner'
p1038
sg28
Nsg39
g1012
sg41
S'4 - Store'
p1039
sba(irunmatrix
M3Element
p1040
(dp1041
g3
Nsg4
S'Sannsynlig, Meget sannsynlig'
p1042
sg6
S'gray'
p1043
sg8
(lp1044
sg10
S'Likely'
p1045
sg12
S'Isolated'
p1046
sg14
g76
sg16
I0
sg17
S'High'
p1047
sg19
S'Stor tilleggsbelastning'
p1048
sg21
Nsg22
S'400'
p1049
sg24
S'400'
p1050
sg26
S'Isolerte faresoner'
p1051
sg28
Nsg39
g1012
sg41
S'4 - Store'
p1052
sba(irunmatrix
M3Element
p1053
(dp1054
g3
Nsg4
S'Sannsynlig, Meget sannsynlig'
p1055
sg6
S'gray'
p1056
sg8
(lp1057
sg10
S'Likely'
p1058
sg12
S'Isolated'
p1059
sg14
g76
sg16
I0
sg17
S'Low'
p1060
sg19
S'Liten tilleggsbelastning'
p1061
sg21
Nsg22
S'400'
p1062
sg24
S'500'
p1063
sg26
S'Isolerte faresoner'
p1064
sg28
Nsg39
g1012
sg41
S'4 - Store'
p1065
sba(irunmatrix
M3Element
p1066
(dp1067
g3
Nsg4
S'Sannsynlig, Meget sannsynlig'
p1068
sg6
S'gray'
p1069
sg8
(lp1070
sg10
S'Likely'
p1071
sg12
S'Isolated'
p1072
sg14
g76
sg16
I0
sg17
S'Nat'
p1073
sg19
S'Naturlig utloest'
p1074
sg21
Nsg22
S'400'
p1075
sg24
S'600'
p1076
sg26
S'Isolerte faresoner'
p1077
sg28
Nsg39
g1012
sg41
S'4 - Store'
p1078
sba(irunmatrix
M3Element
p1079
(dp1080
g3
Nsg4
S'Lite sannsynlig, Mulig'
p1081
sg6
S'white'
p1082
sg8
(lp1083
sg10
S'Possible'
p1084
sg12
S'Some'
p1085
sg14
g509
sg16
I3
sg17
S'High'
p1086
sg19
S'Stor tilleggsbelastning'
p1087
sg21
Nsg22
S'400'
p1088
sg24
S'700'
p1089
sg26
S'Noen bratte heng'
p1090
sg28
Nsg39
g1012
sg41
S'4 - Store'
p1091
sba(irunmatrix
M3Element
p1092
(dp1093
g3
Nsg4
S'Lite sannsynlig, Mulig'
p1094
sg6
S'white'
p1095
sg8
(lp1096
sg10
S'Possible'
p1097
sg12
S'Some'
p1098
sg14
g575
sg16
I4
sg17
S'Low'
p1099
sg19
S'Liten tilleggsbelastning'
p1100
sg21
Nsg22
S'400'
p1101
sg24
S'800'
p1102
sg26
S'Noen bratte heng'
p1103
sg28
Nsg39
g1012
sg41
S'4 - Store'
p1104
sba(irunmatrix
M3Element
p1105
(dp1106
g3
Nsg4
S'Lite sannsynlig, Mulig'
p1107
sg6
S'white'
p1108
sg8
(lp1109
sg10
S'Possible'
p1110
sg12
S'Some'
p1111
sg14
g575
sg16
I4
sg17
S'Nat'
p1112
sg19
S'Naturlig utloest'
p1113
sg21
Nsg22
S'400'
p1114
sg24
S'900'
p1115
sg26
S'Noen bratte heng'
p1116
sg28
Nsg39
g1012
sg41
S'4 - Store'
p1117
sba(irunmatrix
M3Element
p1118
(dp1119
g3
Nsg4
S'Sannsynlig, Meget sannsynlig'
p1120
sg6
S'gray'
p1121
sg8
(lp1122
sg10
S'Likely'
p1123
sg12
S'Some'
p1124
sg14
g76
sg16
I0
sg17
S'High'
p1125
sg19
S'Stor tilleggsbelastning'
p1126
sg21
Nsg22
S'400'
p1127
sg24
S'1000'
p1128
sg26
S'Noen bratte heng'
p1129
sg28
Nsg39
g1012
sg41
S'4 - Store'
p1130
sba(irunmatrix
M3Element
p1131
(dp1132
g3
Nsg4
S'Sannsynlig, Meget sannsynlig'
p1133
sg6
S'gray'
p1134
sg8
(lp1135
sg10
S'Likely'
p1136
sg12
S'Some'
p1137
sg14
g76
sg16
I0
sg17
S'Low'
p1138
sg19
S'Liten tilleggsbelastning'
p1139
sg21
Nsg22
S'400'
p1140
sg24
S'1100'
p1141
sg26
S'Noen bratte heng'
p1142
sg28
Nsg39
g1012
sg41
S'4 - Store'
p1143
sba(irunmatrix
M3Element
p1144
(dp1145
g3
Nsg4
S'Sannsynlig, Meget sannsynlig'
p1146
sg6
S'white'
p1147
sg8
(lp1148
sg10
S'Likely'
p1149
sg12
S'Some'
p1150
sg14
g575
sg16
I4
sg17
S'Nat'
p1151
sg19
S'Naturlig utloest'
p1152
sg21
Nsg22
S'400'
p1153
sg24
S'1200'
p1154
sg26
S'Noen bratte heng'
p1155
sg28
Nsg39
g1012
sg41
S'4 - Store'
p1156
sba(irunmatrix
M3Element
p1157
(dp1158
g3
Nsg4
S'Lite sannsynlig, Mulig'
p1159
sg6
S'gray'
p1160
sg8
(lp1161
sg10
S'Possible'
p1162
sg12
S'Many'
p1163
sg14
g76
sg16
I0
sg17
S'High'
p1164
sg19
S'Stor tilleggsbelastning'
p1165
sg21
Nsg22
S'400'
p1166
sg24
S'1300'
p1167
sg26
S'Mange bratte heng'
p1168
sg28
Nsg39
g1012
sg41
S'4 - Store'
p1169
sba(irunmatrix
M3Element
p1170
(dp1171
g3
Nsg4
S'Lite sannsynlig, Mulig'
p1172
sg6
S'white'
p1173
sg8
(lp1174
sg10
S'Possible'
p1175
sg12
S'Many'
p1176
sg14
g76
sg16
I0
sg17
S'Low'
p1177
sg19
S'Liten tilleggsbelastning'
p1178
sg21
Nsg22
S'400'
p1179
sg24
S'1400'
p1180
sg26
S'Mange bratte heng'
p1181
sg28
Nsg39
g1012
sg41
S'4 - Store'
p1182
sba(irunmatrix
M3Element
p1183
(dp1184
g3
Nsg4
S'Lite sannsynlig, Mulig'
p1185
sg6
S'gray'
p1186
sg8
(lp1187
sg10
S'Possible'
p1188
sg12
S'Many'
p1189
sg14
g76
sg16
I0
sg17
S'Nat'
p1190
sg19
S'Naturlig utloest'
p1191
sg21
Nsg22
S'400'
p1192
sg24
S'1500'
p1193
sg26
S'Mange bratte heng'
p1194
sg28
Nsg39
g1012
sg41
S'4 - Store'
p1195
sba(irunmatrix
M3Element
p1196
(dp1197
g3
Nsg4
S'Sannsynlig, Meget sannsynlig'
p1198
sg6
S'gray'
p1199
sg8
(lp1200
sg10
S'Likely'
p1201
sg12
S'Many'
p1202
sg14
g76
sg16
I0
sg17
S'High'
p1203
sg19
S'Stor tilleggsbelastning'
p1204
sg21
Nsg22
S'400'
p1205
sg24
S'1600'
p1206
sg26
S'Mange bratte heng'
p1207
sg28
Nsg39
g1012
sg41
S'4 - Store'
p1208
sba(irunmatrix
M3Element
p1209
(dp1210
g3
Nsg4
S'Sannsynlig, Meget sannsynlig'
p1211
sg6
S'white'
p1212
sg8
(lp1213
sg10
S'Likely'
p1214
sg12
S'Many'
p1215
sg14
g76
sg16
I0
sg17
S'Low'
p1216
sg19
S'Liten tilleggsbelastning'
p1217
sg21
Nsg22
S'400'
p1218
sg24
S'1700'
p1219
sg26
S'Mange bratte heng'
p1220
sg28
Nsg39
g1012
sg41
S'4 - Store'
p1221
sba(irunmatrix
M3Element
p1222
(dp1223
g3
Nsg4
S'Sannsynlig, Meget sannsynlig'
p1224
sg6
S'white'
p1225
sg8
(lp1226
sg10
S'Likely'
p1227
sg12
S'Many'
p1228
sg14
S'k'
p1229
sg16
I5
sg17
S'Nat'
p1230
sg19
S'Naturlig utloest'
p1231
sg21
Nsg22
S'400'
p1232
sg24
S'1800'
p1233
sg26
S'Mange bratte heng'
p1234
sg28
Nsg39
g1012
sg41
S'4 - Store'
p1235
sba(irunmatrix
M3Element
p1236
(dp1237
g3
Nsg4
S'Lite sannsynlig, Mulig'
p1238
sg6
S'gray'
p1239
sg8
(lp1240
sg10
S'Possible'
p1241
sg12
S'Most'
p1242
sg14
g76
sg16
I0
sg17
S'High'
p1243
sg19
S'Stor tilleggsbelastning'
p1244
sg21
Nsg22
S'400'
p1245
sg24
S'1900'
p1246
sg26
S'De fleste bratte heng, Ogsaa i mindre bratt terreng'
p1247
sg28
Nsg39
g1012
sg41
S'4 - Store'
p1248
sba(irunmatrix
M3Element
p1249
(dp1250
g3
Nsg4
S'Lite sannsynlig, Mulig'
p1251
sg6
S'gray'
p1252
sg8
(lp1253
sg10
S'Possible'
p1254
sg12
S'Most'
p1255
sg14
g76
sg16
I0
sg17
S'Low'
p1256
sg19
S'Liten tilleggsbelastning'
p1257
sg21
Nsg22
S'400'
p1258
sg24
S'2000'
p1259
sg26
S'De fleste bratte heng, Ogsaa i mindre bratt terreng'
p1260
sg28
Nsg39
g1012
sg41
S'4 - Store'
p1261
sba(irunmatrix
M3Element
p1262
(dp1263
g3
Nsg4
S'Lite sannsynlig, Mulig'
p1264
sg6
S'gray'
p1265
sg8
(lp1266
sg10
S'Possible'
p1267
sg12
S'Most'
p1268
sg14
g76
sg16
I0
sg17
S'Nat'
p1269
sg19
S'Naturlig utloest'
p1270
sg21
Nsg22
S'400'
p1271
sg24
S'2100'
p1272
sg26
S'De fleste bratte heng, Ogsaa i mindre bratt terreng'
p1273
sg28
Nsg39
g1012
sg41
S'4 - Store'
p1274
sba(irunmatrix
M3Element
p1275
(dp1276
g3
Nsg4
S'Sannsynlig, Meget sannsynlig'
p1277
sg6
S'gray'
p1278
sg8
(lp1279
sg10
S'Likely'
p1280
sg12
S'Most'
p1281
sg14
g76
sg16
I0
sg17
S'High'
p1282
sg19
S'Stor tilleggsbelastning'
p1283
sg21
Nsg22
S'400'
p1284
sg24
S'2200'
p1285
sg26
S'De fleste bratte heng, Ogsaa i mindre bratt terreng'
p1286
sg28
Nsg39
g1012
sg41
S'4 - Store'
p1287
sba(irunmatrix
M3Element
p1288
(dp1289
g3
Nsg4
S'Sannsynlig, Meget sannsynlig'
p1290
sg6
S'gray'
p1291
sg8
(lp1292
sg10
S'Likely'
p1293
sg12
S'Most'
p1294
sg14
g76
sg16
I0
sg17
S'Low'
p1295
sg19
S'Liten tilleggsbelastning'
p1296
sg21
Nsg22
S'400'
p1297
sg24
S'2300'
p1298
sg26
S'De fleste bratte heng, Ogsaa i mindre bratt terreng'
p1299
sg28
Nsg39
g1012
sg41
S'4 - Store'
p1300
sba(irunmatrix
M3Element
p1301
(dp1302
g3
Nsg4
S'Sannsynlig, Meget sannsynlig'
p1303
sg6
S'white'
p1304
sg8
(lp1305
sg10
S'Likely'
p1306
sg12
S'Most'
p1307
sg14
g76
sg16
I0
sg17
S'Nat'
p1308
sg19
S'Naturlig utloest'
p1309
sg21
Nsg22
S'400'
p1310
sg24
S'2400'
p1311
sg26
S'De fleste bratte heng, Ogsaa i mindre bratt terreng'
p1312
sg28
Nsg39
g1012
sg41
S'4 - Store'
p1313
sba(irunmatrix
M3Element
p1314
(dp1315
g3
Nsg4
S'Lite sannsynlig, Mulig'
p1316
sg6
S'white'
p1317
sg8
(lp1318
sg10
S'Possible'
p1319
sg12
S'Isolated'
p1320
sg14
g76
sg16
I0
sg17
S'High'
p1321
sg19
S'Stor tilleggsbelastning'
p1322
sg21
Nsg22
S'500'
p1323
sg24
S'100'
p1324
sg26
S'Isolerte faresoner'
p1325
sg28
Nsg39
S'5'
p1326
sg41
S'5 - Svaert store'
p1327
sba(irunmatrix
M3Element
p1328
(dp1329
g3
Nsg4
S'Lite sannsynlig, Mulig'
p1330
sg6
S'white'
p1331
sg8
(lp1332
sg10
S'Possible'
p1333
sg12
S'Isolated'
p1334
sg14
g76
sg16
I0
sg17
S'Low'
p1335
sg19
S'Liten tilleggsbelastning'
p1336
sg21
Nsg22
S'500'
p1337
sg24
S'200'
p1338
sg26
S'Isolerte faresoner'
p1339
sg28
Nsg39
g1326
sg41
S'5 - Svaert store'
p1340
sba(irunmatrix
M3Element
p1341
(dp1342
g3
Nsg4
S'Lite sannsynlig, Mulig'
p1343
sg6
S'white'
p1344
sg8
(lp1345
sg10
S'Possible'
p1346
sg12
S'Isolated'
p1347
sg14
g76
sg16
I0
sg17
S'Nat'
p1348
sg19
S'Naturlig utloest'
p1349
sg21
Nsg22
S'500'
p1350
sg24
S'300'
p1351
sg26
S'Isolerte faresoner'
p1352
sg28
Nsg39
g1326
sg41
S'5 - Svaert store'
p1353
sba(irunmatrix
M3Element
p1354
(dp1355
g3
Nsg4
S'Sannsynlig, Meget sannsynlig'
p1356
sg6
S'gray'
p1357
sg8
(lp1358
sg10
S'Likely'
p1359
sg12
S'Isolated'
p1360
sg14
g76
sg16
I0
sg17
S'High'
p1361
sg19
S'Stor tilleggsbelastning'
p1362
sg21
Nsg22
S'500'
p1363
sg24
S'400'
p1364
sg26
S'Isolerte faresoner'
p1365
sg28
Nsg39
g1326
sg41
S'5 - Svaert store'
p1366
sba(irunmatrix
M3Element
p1367
(dp1368
g3
Nsg4
S'Sannsynlig, Meget sannsynlig'
p1369
sg6
S'gray'
p1370
sg8
(lp1371
sg10
S'Likely'
p1372
sg12
S'Isolated'
p1373
sg14
g76
sg16
I0
sg17
S'Low'
p1374
sg19
S'Liten tilleggsbelastning'
p1375
sg21
Nsg22
S'500'
p1376
sg24
S'500'
p1377
sg26
S'Isolerte faresoner'
p1378
sg28
Nsg39
g1326
sg41
S'5 - Svaert store'
p1379
sba(irunmatrix
M3Element
p1380
(dp1381
g3
Nsg4
S'Sannsynlig, Meget sannsynlig'
p1382
sg6
S'gray'
p1383
sg8
(lp1384
sg10
S'Likely'
p1385
sg12
S'Isolated'
p1386
sg14
g76
sg16
I0
sg17
S'Nat'
p1387
sg19
S'Naturlig utloest'
p1388
sg21
Nsg22
S'500'
p1389
sg24
S'600'
p1390
sg26
S'Isolerte faresoner'
p1391
sg28
Nsg39
g1326
sg41
S'5 - Svaert store'
p1392
sba(irunmatrix
M3Element
p1393
(dp1394
g3
Nsg4
S'Lite sannsynlig, Mulig'
p1395
sg6
S'white'
p1396
sg8
(lp1397
sg10
S'Possible'
p1398
sg12
S'Some'
p1399
sg14
g76
sg16
I0
sg17
S'High'
p1400
sg19
S'Stor tilleggsbelastning'
p1401
sg21
Nsg22
S'500'
p1402
sg24
S'700'
p1403
sg26
S'Noen bratte heng'
p1404
sg28
Nsg39
g1326
sg41
S'5 - Svaert store'
p1405
sba(irunmatrix
M3Element
p1406
(dp1407
g3
Nsg4
S'Lite sannsynlig, Mulig'
p1408
sg6
S'white'
p1409
sg8
(lp1410
sg10
S'Possible'
p1411
sg12
S'Some'
p1412
sg14
g76
sg16
I0
sg17
S'Low'
p1413
sg19
S'Liten tilleggsbelastning'
p1414
sg21
Nsg22
S'500'
p1415
sg24
S'800'
p1416
sg26
S'Noen bratte heng'
p1417
sg28
Nsg39
g1326
sg41
S'5 - Svaert store'
p1418
sba(irunmatrix
M3Element
p1419
(dp1420
g3
Nsg4
S'Lite sannsynlig, Mulig'
p1421
sg6
S'white'
p1422
sg8
(lp1423
sg10
S'Possible'
p1424
sg12
S'Some'
p1425
sg14
g76
sg16
I0
sg17
S'Nat'
p1426
sg19
S'Naturlig utloest'
p1427
sg21
Nsg22
S'500'
p1428
sg24
S'900'
p1429
sg26
S'Noen bratte heng'
p1430
sg28
Nsg39
g1326
sg41
S'5 - Svaert store'
p1431
sba(irunmatrix
M3Element
p1432
(dp1433
g3
Nsg4
S'Sannsynlig, Meget sannsynlig'
p1434
sg6
S'gray'
p1435
sg8
(lp1436
sg10
S'Likely'
p1437
sg12
S'Some'
p1438
sg14
g76
sg16
I0
sg17
S'High'
p1439
sg19
S'Stor tilleggsbelastning'
p1440
sg21
Nsg22
S'500'
p1441
sg24
S'1000'
p1442
sg26
S'Noen bratte heng'
p1443
sg28
Nsg39
g1326
sg41
S'5 - Svaert store'
p1444
sba(irunmatrix
M3Element
p1445
(dp1446
g3
Nsg4
S'Sannsynlig, Meget sannsynlig'
p1447
sg6
S'gray'
p1448
sg8
(lp1449
sg10
S'Likely'
p1450
sg12
S'Some'
p1451
sg14
g76
sg16
I0
sg17
S'Low'
p1452
sg19
S'Liten tilleggsbelastning'
p1453
sg21
Nsg22
S'500'
p1454
sg24
S'1100'
p1455
sg26
S'Noen bratte heng'
p1456
sg28
Nsg39
g1326
sg41
S'5 - Svaert store'
p1457
sba(irunmatrix
M3Element
p1458
(dp1459
g3
Nsg4
S'Sannsynlig, Meget sannsynlig'
p1460
sg6
S'white'
p1461
sg8
(lp1462
sg10
S'Likely'
p1463
sg12
S'Some'
p1464
sg14
g76
sg16
I0
sg17
S'Nat'
p1465
sg19
S'Naturlig utloest'
p1466
sg21
Nsg22
S'500'
p1467
sg24
S'1200'
p1468
sg26
S'Noen bratte heng'
p1469
sg28
Nsg39
g1326
sg41
S'5 - Svaert store'
p1470
sba(irunmatrix
M3Element
p1471
(dp1472
g3
Nsg4
S'Lite sannsynlig, Mulig'
p1473
sg6
S'gray'
p1474
sg8
(lp1475
sg10
S'Possible'
p1476
sg12
S'Many'
p1477
sg14
g76
sg16
I0
sg17
S'High'
p1478
sg19
S'Stor tilleggsbelastning'
p1479
sg21
Nsg22
S'500'
p1480
sg24
S'1300'
p1481
sg26
S'Mange bratte heng'
p1482
sg28
Nsg39
g1326
sg41
S'5 - Svaert store'
p1483
sba(irunmatrix
M3Element
p1484
(dp1485
g3
Nsg4
S'Lite sannsynlig, Mulig'
p1486
sg6
S'white'
p1487
sg8
(lp1488
sg10
S'Possible'
p1489
sg12
S'Many'
p1490
sg14
g76
sg16
I0
sg17
S'Low'
p1491
sg19
S'Liten tilleggsbelastning'
p1492
sg21
Nsg22
S'500'
p1493
sg24
S'1400'
p1494
sg26
S'Mange bratte heng'
p1495
sg28
Nsg39
g1326
sg41
S'5 - Svaert store'
p1496
sba(irunmatrix
M3Element
p1497
(dp1498
g3
Nsg4
S'Lite sannsynlig, Mulig'
p1499
sg6
S'gray'
p1500
sg8
(lp1501
sg10
S'Possible'
p1502
sg12
S'Many'
p1503
sg14
g76
sg16
I0
sg17
S'Nat'
p1504
sg19
S'Naturlig utloest'
p1505
sg21
Nsg22
S'500'
p1506
sg24
S'1500'
p1507
sg26
S'Mange bratte heng'
p1508
sg28
Nsg39
g1326
sg41
S'5 - Svaert store'
p1509
sba(irunmatrix
M3Element
p1510
(dp1511
g3
Nsg4
S'Sannsynlig, Meget sannsynlig'
p1512
sg6
S'gray'
p1513
sg8
(lp1514
sg10
S'Likely'
p1515
sg12
S'Many'
p1516
sg14
g76
sg16
I0
sg17
S'High'
p1517
sg19
S'Stor tilleggsbelastning'
p1518
sg21
Nsg22
S'500'
p1519
sg24
S'1600'
p1520
sg26
S'Mange bratte heng'
p1521
sg28
Nsg39
g1326
sg41
S'5 - Svaert store'
p1522
sba(irunmatrix
M3Element
p1523
(dp1524
g3
Nsg4
S'Sannsynlig, Meget sannsynlig'
p1525
sg6
S'white'
p1526
sg8
(lp1527
sg10
S'Likely'
p1528
sg12
S'Many'
p1529
sg14
g76
sg16
I0
sg17
S'Low'
p1530
sg19
S'Liten tilleggsbelastning'
p1531
sg21
Nsg22
S'500'
p1532
sg24
S'1700'
p1533
sg26
S'Mange bratte heng'
p1534
sg28
Nsg39
g1326
sg41
S'5 - Svaert store'
p1535
sba(irunmatrix
M3Element
p1536
(dp1537
g3
Nsg4
S'Sannsynlig, Meget sannsynlig'
p1538
sg6
S'white'
p1539
sg8
(lp1540
sg10
S'Likely'
p1541
sg12
S'Many'
p1542
sg14
g1229
sg16
I5
sg17
S'Nat'
p1543
sg19
S'Naturlig utloest'
p1544
sg21
Nsg22
S'500'
p1545
sg24
S'1800'
p1546
sg26
S'Mange bratte heng'
p1547
sg28
Nsg39
g1326
sg41
S'5 - Svaert store'
p1548
sba(irunmatrix
M3Element
p1549
(dp1550
g3
Nsg4
S'Lite sannsynlig, Mulig'
p1551
sg6
S'gray'
p1552
sg8
(lp1553
sg10
S'Possible'
p1554
sg12
S'Most'
p1555
sg14
g76
sg16
I0
sg17
S'High'
p1556
sg19
S'Stor tilleggsbelastning'
p1557
sg21
Nsg22
S'500'
p1558
sg24
S'1900'
p1559
sg26
S'De fleste bratte heng, Ogsaa i mindre bratt terreng'
p1560
sg28
Nsg39
g1326
sg41
S'5 - Svaert store'
p1561
sba(irunmatrix
M3Element
p1562
(dp1563
g3
Nsg4
S'Lite sannsynlig, Mulig'
p1564
sg6
S'gray'
p1565
sg8
(lp1566
sg10
S'Possible'
p1567
sg12
S'Most'
p1568
sg14
g76
sg16
I0
sg17
S'Low'
p1569
sg19
S'Liten tilleggsbelastning'
p1570
sg21
Nsg22
S'500'
p1571
sg24
S'2000'
p1572
sg26
S'De fleste bratte heng, Ogsaa i mindre bratt terreng'
p1573
sg28
Nsg39
g1326
sg41
S'5 - Svaert store'
p1574
sba(irunmatrix
M3Element
p1575
(dp1576
g3
Nsg4
S'Lite sannsynlig, Mulig'
p1577
sg6
S'gray'
p1578
sg8
(lp1579
sg10
S'Possible'
p1580
sg12
S'Most'
p1581
sg14
g76
sg16
I0
sg17
S'Nat'
p1582
sg19
S'Naturlig utloest'
p1583
sg21
Nsg22
S'500'
p1584
sg24
S'2100'
p1585
sg26
S'De fleste bratte heng, Ogsaa i mindre bratt terreng'
p1586
sg28
Nsg39
g1326
sg41
S'5 - Svaert store'
p1587
sba(irunmatrix
M3Element
p1588
(dp1589
g3
Nsg4
S'Sannsynlig, Meget sannsynlig'
p1590
sg6
S'gray'
p1591
sg8
(lp1592
sg10
S'Likely'
p1593
sg12
S'Most'
p1594
sg14
g76
sg16
I0
sg17
S'High'
p1595
sg19
S'Stor tilleggsbelastning'
p1596
sg21
Nsg22
S'500'
p1597
sg24
S'2200'
p1598
sg26
S'De fleste bratte heng, Ogsaa i mindre bratt terreng'
p1599
sg28
Nsg39
g1326
sg41
S'5 - Svaert store'
p1600
sba(irunmatrix
M3Element
p1601
(dp1602
g3
Nsg4
S'Sannsynlig, Meget sannsynlig'
p1603
sg6
S'gray'
p1604
sg8
(lp1605
sg10
S'Likely'
p1606
sg12
S'Most'
p1607
sg14
g76
sg16
I0
sg17
S'Low'
p1608
sg19
S'Liten tilleggsbelastning'
p1609
sg21
Nsg22
S'500'
p1610
sg24
S'2300'
p1611
sg26
S'De fleste bratte heng, Ogsaa i mindre bratt terreng'
p1612
sg28
Nsg39
g1326
sg41
S'5 - Svaert store'
p1613
sba(irunmatrix
M3Element
p1614
(dp1615
g3
Nsg4
S'Sannsynlig, Meget sannsynlig'
p1616
sg6
S'white'
p1617
sg8
(lp1618
sg10
S'Likely'
p1619
sg12
S'Most'
p1620
sg14
g76
sg16
I0
sg17
S'Nat'
p1621
sg19
S'Naturlig utloest'
p1622
sg21
Nsg22
S'500'
p1623
sg24
S'2400'
p1624
sg26
S'De fleste bratte heng, Ogsaa i mindre bratt terreng'
p1625
sg28
Nsg39
g1326
sg41
S'5 - Svaert store'
p1626
sba.