(lp0
(irunmatrix
M3Element
p1
(dp2
S'danger_level_average'
p3
NsS'probability'
p4
S'Lite sannsynlig, Mulig'
p5
sS'colour'
p6
S'white'
p7
sS'danger_level_list'
p8
(lp9
sS'label_probalility'
p10
S'Possible'
p11
sS'label_distribution'
p12
S'Isolated'
p13
sS'recomended_colour'
p14
S'#ccff66'
p15
sS'recomended_danger_level'
p16
I1
sS'label_trigger'
p17
S'High'
p18
sS'trigger'
p19
S'Stor tilleggsbelastning'
p20
sS'occurrences'
p21
NsS'y'
p22
S'100'
p23
sS'x'
p24
S'100'
p25
sS'distribution'
p26
S'Isolerte faresoner'
p27
sS'danger_level_standard_dev'
p28
NsS'label_size'
p29
S'1'
p30
sS'avalanche_size'
p31
S'1 - Harmloest'
p32
sba(irunmatrix
M3Element
p33
(dp34
g3
F1.0
sg4
S'Lite sannsynlig, Mulig'
p35
sg6
S'#ccff66'
p36
sg8
(lp37
I1
aI1
aI1
aI1
aI1
aI1
aI1
asg10
S'Possible'
p38
sg12
S'Isolated'
p39
sg14
g15
sg16
I1
sg17
S'Low'
p40
sg19
S'Liten tilleggsbelastning'
p41
sg21
I7
sg22
S'100'
p42
sg24
S'200'
p43
sg26
S'Isolerte faresoner'
p44
sg28
cnumpy.core.multiarray
scalar
p45
(cnumpy
dtype
p46
(S'f8'
p47
I0
I1
tp48
Rp49
(I3
S'<'
p50
NNNI-1
I-1
I0
tp51
bS'\x00\x00\x00\x00\x00\x00\x00\x00'
p52
tp53
Rp54
sg29
g30
sg31
S'1 - Harmloest'
p55
sba(irunmatrix
M3Element
p56
(dp57
g3
Nsg4
S'Lite sannsynlig, Mulig'
p58
sg6
S'white'
p59
sg8
(lp60
sg10
S'Possible'
p61
sg12
S'Isolated'
p62
sg14
g15
sg16
I1
sg17
S'Nat'
p63
sg19
S'Naturlig utloest'
p64
sg21
Nsg22
S'100'
p65
sg24
S'300'
p66
sg26
S'Isolerte faresoner'
p67
sg28
Nsg29
g30
sg31
S'1 - Harmloest'
p68
sba(irunmatrix
M3Element
p69
(dp70
g3
Nsg4
S'Sannsynlig, Meget sannsynlig'
p71
sg6
S'gray'
p72
sg8
(lp73
sg10
S'Likely'
p74
sg12
S'Isolated'
p75
sg14
S'gray'
p76
sg16
I0
sg17
S'High'
p77
sg19
S'Stor tilleggsbelastning'
p78
sg21
Nsg22
S'100'
p79
sg24
S'400'
p80
sg26
S'Isolerte faresoner'
p81
sg28
Nsg29
g30
sg31
S'1 - Harmloest'
p82
sba(irunmatrix
M3Element
p83
(dp84
g3
Nsg4
S'Sannsynlig, Meget sannsynlig'
p85
sg6
S'gray'
p86
sg8
(lp87
sg10
S'Likely'
p88
sg12
S'Isolated'
p89
sg14
g76
sg16
I0
sg17
S'Low'
p90
sg19
S'Liten tilleggsbelastning'
p91
sg21
Nsg22
S'100'
p92
sg24
S'500'
p93
sg26
S'Isolerte faresoner'
p94
sg28
Nsg29
g30
sg31
S'1 - Harmloest'
p95
sba(irunmatrix
M3Element
p96
(dp97
g3
Nsg4
S'Sannsynlig, Meget sannsynlig'
p98
sg6
S'gray'
p99
sg8
(lp100
sg10
S'Likely'
p101
sg12
S'Isolated'
p102
sg14
g76
sg16
I0
sg17
S'Nat'
p103
sg19
S'Naturlig utloest'
p104
sg21
Nsg22
S'100'
p105
sg24
S'600'
p106
sg26
S'Isolerte faresoner'
p107
sg28
Nsg29
g30
sg31
S'1 - Harmloest'
p108
sba(irunmatrix
M3Element
p109
(dp110
g3
Nsg4
S'Lite sannsynlig, Mulig'
p111
sg6
S'white'
p112
sg8
(lp113
sg10
S'Possible'
p114
sg12
S'Some'
p115
sg14
g15
sg16
I1
sg17
S'High'
p116
sg19
S'Stor tilleggsbelastning'
p117
sg21
Nsg22
S'100'
p118
sg24
S'700'
p119
sg26
S'Noen bratte heng'
p120
sg28
Nsg29
g30
sg31
S'1 - Harmloest'
p121
sba(irunmatrix
M3Element
p122
(dp123
g3
F1.0
sg4
S'Lite sannsynlig, Mulig'
p124
sg6
g36
sg8
(lp125
I1
aI1
aI1
aI1
asg10
S'Possible'
p126
sg12
S'Some'
p127
sg14
g15
sg16
I1
sg17
S'Low'
p128
sg19
S'Liten tilleggsbelastning'
p129
sg21
I4
sg22
S'100'
p130
sg24
S'800'
p131
sg26
S'Noen bratte heng'
p132
sg28
g45
(g49
S'\x00\x00\x00\x00\x00\x00\x00\x00'
p133
tp134
Rp135
sg29
g30
sg31
S'1 - Harmloest'
p136
sba(irunmatrix
M3Element
p137
(dp138
g3
F1.5
sg4
S'Lite sannsynlig, Mulig'
p139
sg6
S'#ffff00'
p140
sg8
(lp141
I2
aI1
asg10
S'Possible'
p142
sg12
S'Some'
p143
sg14
g15
sg16
I1
sg17
S'Nat'
p144
sg19
S'Naturlig utloest'
p145
sg21
I2
sg22
S'100'
p146
sg24
S'900'
p147
sg26
S'Noen bratte heng'
p148
sg28
g45
(g49
S'\x00\x00\x00\x00\x00\x00\xe0?'
p149
tp150
Rp151
sg29
g30
sg31
S'1 - Harmloest'
p152
sba(irunmatrix
M3Element
p153
(dp154
g3
Nsg4
S'Sannsynlig, Meget sannsynlig'
p155
sg6
S'gray'
p156
sg8
(lp157
sg10
S'Likely'
p158
sg12
S'Some'
p159
sg14
g76
sg16
I0
sg17
S'High'
p160
sg19
S'Stor tilleggsbelastning'
p161
sg21
Nsg22
S'100'
p162
sg24
S'1000'
p163
sg26
S'Noen bratte heng'
p164
sg28
Nsg29
g30
sg31
S'1 - Harmloest'
p165
sba(irunmatrix
M3Element
p166
(dp167
g3
Nsg4
S'Sannsynlig, Meget sannsynlig'
p168
sg6
S'gray'
p169
sg8
(lp170
sg10
S'Likely'
p171
sg12
S'Some'
p172
sg14
g76
sg16
I0
sg17
S'Low'
p173
sg19
S'Liten tilleggsbelastning'
p174
sg21
Nsg22
S'100'
p175
sg24
S'1100'
p176
sg26
S'Noen bratte heng'
p177
sg28
Nsg29
g30
sg31
S'1 - Harmloest'
p178
sba(irunmatrix
M3Element
p179
(dp180
g3
Nsg4
S'Sannsynlig, Meget sannsynlig'
p181
sg6
S'white'
p182
sg8
(lp183
sg10
S'Likely'
p184
sg12
S'Some'
p185
sg14
g15
sg16
I1
sg17
S'Nat'
p186
sg19
S'Naturlig utloest'
p187
sg21
Nsg22
S'100'
p188
sg24
S'1200'
p189
sg26
S'Noen bratte heng'
p190
sg28
Nsg29
g30
sg31
S'1 - Harmloest'
p191
sba(irunmatrix
M3Element
p192
(dp193
g3
Nsg4
S'Lite sannsynlig, Mulig'
p194
sg6
S'gray'
p195
sg8
(lp196
sg10
S'Possible'
p197
sg12
S'Many'
p198
sg14
g76
sg16
I0
sg17
S'High'
p199
sg19
S'Stor tilleggsbelastning'
p200
sg21
Nsg22
S'100'
p201
sg24
S'1300'
p202
sg26
S'Mange bratte heng'
p203
sg28
Nsg29
g30
sg31
S'1 - Harmloest'
p204
sba(irunmatrix
M3Element
p205
(dp206
g3
Nsg4
S'Lite sannsynlig, Mulig'
p207
sg6
S'white'
p208
sg8
(lp209
sg10
S'Possible'
p210
sg12
S'Many'
p211
sg14
g15
sg16
I1
sg17
S'Low'
p212
sg19
S'Liten tilleggsbelastning'
p213
sg21
Nsg22
S'100'
p214
sg24
S'1400'
p215
sg26
S'Mange bratte heng'
p216
sg28
Nsg29
g30
sg31
S'1 - Harmloest'
p217
sba(irunmatrix
M3Element
p218
(dp219
g3
Nsg4
S'Lite sannsynlig, Mulig'
p220
sg6
S'gray'
p221
sg8
(lp222
sg10
S'Possible'
p223
sg12
S'Many'
p224
sg14
g76
sg16
I0
sg17
S'Nat'
p225
sg19
S'Naturlig utloest'
p226
sg21
Nsg22
S'100'
p227
sg24
S'1500'
p228
sg26
S'Mange bratte heng'
p229
sg28
Nsg29
g30
sg31
S'1 - Harmloest'
p230
sba(irunmatrix
M3Element
p231
(dp232
g3
Nsg4
S'Sannsynlig, Meget sannsynlig'
p233
sg6
S'gray'
p234
sg8
(lp235
sg10
S'Likely'
p236
sg12
S'Many'
p237
sg14
g76
sg16
I0
sg17
S'High'
p238
sg19
S'Stor tilleggsbelastning'
p239
sg21
Nsg22
S'100'
p240
sg24
S'1600'
p241
sg26
S'Mange bratte heng'
p242
sg28
Nsg29
g30
sg31
S'1 - Harmloest'
p243
sba(irunmatrix
M3Element
p244
(dp245
g3
Nsg4
S'Sannsynlig, Meget sannsynlig'
p246
sg6
S'white'
p247
sg8
(lp248
sg10
S'Likely'
p249
sg12
S'Many'
p250
sg14
S'#ffff00'
p251
sg16
I2
sg17
S'Low'
p252
sg19
S'Liten tilleggsbelastning'
p253
sg21
Nsg22
S'100'
p254
sg24
S'1700'
p255
sg26
S'Mange bratte heng'
p256
sg28
Nsg29
g30
sg31
S'1 - Harmloest'
p257
sba(irunmatrix
M3Element
p258
(dp259
g3
Nsg4
S'Sannsynlig, Meget sannsynlig'
p260
sg6
S'white'
p261
sg8
(lp262
sg10
S'Likely'
p263
sg12
S'Many'
p264
sg14
g251
sg16
I2
sg17
S'Nat'
p265
sg19
S'Naturlig utloest'
p266
sg21
Nsg22
S'100'
p267
sg24
S'1800'
p268
sg26
S'Mange bratte heng'
p269
sg28
Nsg29
g30
sg31
S'1 - Harmloest'
p270
sba(irunmatrix
M3Element
p271
(dp272
g3
Nsg4
S'Lite sannsynlig, Mulig'
p273
sg6
S'gray'
p274
sg8
(lp275
sg10
S'Possible'
p276
sg12
S'Most'
p277
sg14
g76
sg16
I0
sg17
S'High'
p278
sg19
S'Stor tilleggsbelastning'
p279
sg21
Nsg22
S'100'
p280
sg24
S'1900'
p281
sg26
S'De fleste bratte heng, Ogsaa i mindre bratt terreng'
p282
sg28
Nsg29
g30
sg31
S'1 - Harmloest'
p283
sba(irunmatrix
M3Element
p284
(dp285
g3
Nsg4
S'Lite sannsynlig, Mulig'
p286
sg6
S'gray'
p287
sg8
(lp288
sg10
S'Possible'
p289
sg12
S'Most'
p290
sg14
g76
sg16
I0
sg17
S'Low'
p291
sg19
S'Liten tilleggsbelastning'
p292
sg21
Nsg22
S'100'
p293
sg24
S'2000'
p294
sg26
S'De fleste bratte heng, Ogsaa i mindre bratt terreng'
p295
sg28
Nsg29
g30
sg31
S'1 - Harmloest'
p296
sba(irunmatrix
M3Element
p297
(dp298
g3
Nsg4
S'Lite sannsynlig, Mulig'
p299
sg6
S'gray'
p300
sg8
(lp301
sg10
S'Possible'
p302
sg12
S'Most'
p303
sg14
g76
sg16
I0
sg17
S'Nat'
p304
sg19
S'Naturlig utloest'
p305
sg21
Nsg22
S'100'
p306
sg24
S'2100'
p307
sg26
S'De fleste bratte heng, Ogsaa i mindre bratt terreng'
p308
sg28
Nsg29
g30
sg31
S'1 - Harmloest'
p309
sba(irunmatrix
M3Element
p310
(dp311
g3
Nsg4
S'Sannsynlig, Meget sannsynlig'
p312
sg6
S'gray'
p313
sg8
(lp314
sg10
S'Likely'
p315
sg12
S'Most'
p316
sg14
g76
sg16
I0
sg17
S'High'
p317
sg19
S'Stor tilleggsbelastning'
p318
sg21
Nsg22
S'100'
p319
sg24
S'2200'
p320
sg26
S'De fleste bratte heng, Ogsaa i mindre bratt terreng'
p321
sg28
Nsg29
g30
sg31
S'1 - Harmloest'
p322
sba(irunmatrix
M3Element
p323
(dp324
g3
Nsg4
S'Sannsynlig, Meget sannsynlig'
p325
sg6
S'gray'
p326
sg8
(lp327
sg10
S'Likely'
p328
sg12
S'Most'
p329
sg14
g76
sg16
I0
sg17
S'Low'
p330
sg19
S'Liten tilleggsbelastning'
p331
sg21
Nsg22
S'100'
p332
sg24
S'2300'
p333
sg26
S'De fleste bratte heng, Ogsaa i mindre bratt terreng'
p334
sg28
Nsg29
g30
sg31
S'1 - Harmloest'
p335
sba(irunmatrix
M3Element
p336
(dp337
g3
Nsg4
S'Sannsynlig, Meget sannsynlig'
p338
sg6
S'white'
p339
sg8
(lp340
sg10
S'Likely'
p341
sg12
S'Most'
p342
sg14
g76
sg16
I0
sg17
S'Nat'
p343
sg19
S'Naturlig utloest'
p344
sg21
Nsg22
S'100'
p345
sg24
S'2400'
p346
sg26
S'De fleste bratte heng, Ogsaa i mindre bratt terreng'
p347
sg28
Nsg29
S'2'
p348
sg31
S'1 - Harmloest'
p349
sba(irunmatrix
M3Element
p350
(dp351
g3
F1.5
sg4
S'Lite sannsynlig, Mulig'
p352
sg6
g140
sg8
(lp353
I2
aI2
aI2
aI1
aI1
aI1
asg10
S'Possible'
p354
sg12
S'Isolated'
p355
sg14
g15
sg16
I1
sg17
S'High'
p356
sg19
S'Stor tilleggsbelastning'
p357
sg21
I6
sg22
S'200'
p358
sg24
S'100'
p359
sg26
S'Isolerte faresoner'
p360
sg28
g45
(g49
S'\x00\x00\x00\x00\x00\x00\xe0?'
p361
tp362
Rp363
sg29
g348
sg31
S'2 - Smaa'
p364
sba(irunmatrix
M3Element
p365
(dp366
g3
F1.1538461538461537
sg4
S'Lite sannsynlig, Mulig'
p367
sg6
g36
sg8
(lp368
I2
aI1
aI1
aI2
aI1
aI1
aI1
aI1
aI1
aI1
aI1
aI1
aI1
asg10
S'Possible'
p369
sg12
S'Isolated'
p370
sg14
g15
sg16
I1
sg17
S'Low'
p371
sg19
S'Liten tilleggsbelastning'
p372
sg21
I13
sg22
S'200'
p373
sg24
S'200'
p374
sg26
S'Isolerte faresoner'
p375
sg28
g45
(g49
S'CC\xca\xf7]\x17\xd7?'
p376
tp377
Rp378
sg29
g348
sg31
S'2 - Smaa'
p379
sba(irunmatrix
M3Element
p380
(dp381
g3
F1.1
sg4
S'Lite sannsynlig, Mulig'
p382
sg6
g36
sg8
(lp383
I1
aI1
aI1
aI1
aI1
aI1
aI1
aI2
aI1
aI1
asg10
S'Possible'
p384
sg12
S'Isolated'
p385
sg14
g15
sg16
I1
sg17
S'Nat'
p386
sg19
S'Naturlig utloest'
p387
sg21
I10
sg22
S'200'
p388
sg24
S'300'
p389
sg26
S'Isolerte faresoner'
p390
sg28
g45
(g49
S'333333\xd3?'
p391
tp392
Rp393
sg29
g348
sg31
S'2 - Smaa'
p394
sba(irunmatrix
M3Element
p395
(dp396
g3
Nsg4
S'Sannsynlig, Meget sannsynlig'
p397
sg6
S'gray'
p398
sg8
(lp399
sg10
S'Likely'
p400
sg12
S'Isolated'
p401
sg14
g76
sg16
I0
sg17
S'High'
p402
sg19
S'Stor tilleggsbelastning'
p403
sg21
Nsg22
S'200'
p404
sg24
S'400'
p405
sg26
S'Isolerte faresoner'
p406
sg28
Nsg29
g348
sg31
S'2 - Smaa'
p407
sba(irunmatrix
M3Element
p408
(dp409
g3
Nsg4
S'Sannsynlig, Meget sannsynlig'
p410
sg6
S'gray'
p411
sg8
(lp412
sg10
S'Likely'
p413
sg12
S'Isolated'
p414
sg14
g76
sg16
I0
sg17
S'Low'
p415
sg19
S'Liten tilleggsbelastning'
p416
sg21
Nsg22
S'200'
p417
sg24
S'500'
p418
sg26
S'Isolerte faresoner'
p419
sg28
Nsg29
g348
sg31
S'2 - Smaa'
p420
sba(irunmatrix
M3Element
p421
(dp422
g3
Nsg4
S'Sannsynlig, Meget sannsynlig'
p423
sg6
S'gray'
p424
sg8
(lp425
sg10
S'Likely'
p426
sg12
S'Isolated'
p427
sg14
g76
sg16
I0
sg17
S'Nat'
p428
sg19
S'Naturlig utloest'
p429
sg21
Nsg22
S'200'
p430
sg24
S'600'
p431
sg26
S'Isolerte faresoner'
p432
sg28
Nsg29
g348
sg31
S'2 - Smaa'
p433
sba(irunmatrix
M3Element
p434
(dp435
g3
F2.0
sg4
S'Lite sannsynlig, Mulig'
p436
sg6
g140
sg8
(lp437
I2
aI2
aI2
aI2
aI2
aI2
aI2
aI2
asg10
S'Possible'
p438
sg12
S'Some'
p439
sg14
g251
sg16
I2
sg17
S'High'
p440
sg19
S'Stor tilleggsbelastning'
p441
sg21
I8
sg22
S'200'
p442
sg24
S'700'
p443
sg26
S'Noen bratte heng'
p444
sg28
g45
(g49
S'\x00\x00\x00\x00\x00\x00\x00\x00'
p445
tp446
Rp447
sg29
g348
sg31
S'2 - Smaa'
p448
sba(irunmatrix
M3Element
p449
(dp450
g3
F2.0714285714285716
sg4
S'Lite sannsynlig, Mulig'
p451
sg6
g140
sg8
(lp452
I3
aI3
aI2
aI2
aI2
aI2
aI2
aI2
aI2
aI2
aI2
aI2
aI2
aI2
aI2
aI2
aI2
aI2
aI2
aI2
aI2
aI2
aI2
aI2
aI2
aI2
aI2
aI2
asg10
S'Possible'
p453
sg12
S'Some'
p454
sg14
g251
sg16
I2
sg17
S'Low'
p455
sg19
S'Liten tilleggsbelastning'
p456
sg21
I28
sg22
S'200'
p457
sg24
S'800'
p458
sg26
S'Noen bratte heng'
p459
sg28
g45
(g49
S'\x1d\xa17p\x86{\xd0?'
p460
tp461
Rp462
sg29
g348
sg31
S'2 - Smaa'
p463
sba(irunmatrix
M3Element
p464
(dp465
g3
F2.142857142857143
sg4
S'Lite sannsynlig, Mulig'
p466
sg6
g140
sg8
(lp467
I3
aI2
aI2
aI3
aI2
aI2
aI2
aI2
aI2
aI2
aI2
aI2
aI2
aI2
asg10
S'Possible'
p468
sg12
S'Some'
p469
sg14
g251
sg16
I2
sg17
S'Nat'
p470
sg19
S'Naturlig utloest'
p471
sg21
I14
sg22
S'200'
p472
sg24
S'900'
p473
sg26
S'Noen bratte heng'
p474
sg28
g45
(g49
S'Z\x01/\xa94e\xd6?'
p475
tp476
Rp477
sg29
g348
sg31
S'2 - Smaa'
p478
sba(irunmatrix
M3Element
p479
(dp480
g3
Nsg4
S'Sannsynlig, Meget sannsynlig'
p481
sg6
S'gray'
p482
sg8
(lp483
sg10
S'Likely'
p484
sg12
S'Some'
p485
sg14
g76
sg16
I0
sg17
S'High'
p486
sg19
S'Stor tilleggsbelastning'
p487
sg21
Nsg22
S'200'
p488
sg24
S'1000'
p489
sg26
S'Noen bratte heng'
p490
sg28
Nsg29
g348
sg31
S'2 - Smaa'
p491
sba(irunmatrix
M3Element
p492
(dp493
g3
F3.0
sg4
S'Sannsynlig, Meget sannsynlig'
p494
sg6
S'#ff9900'
p495
sg8
(lp496
I3
asg10
S'Likely'
p497
sg12
S'Some'
p498
sg14
g76
sg16
I0
sg17
S'Low'
p499
sg19
S'Liten tilleggsbelastning'
p500
sg21
I1
sg22
S'200'
p501
sg24
S'1100'
p502
sg26
S'Noen bratte heng'
p503
sg28
g45
(g49
S'\x00\x00\x00\x00\x00\x00\x00\x00'
p504
tp505
Rp506
sg29
g348
sg31
S'2 - Smaa'
p507
sba(irunmatrix
M3Element
p508
(dp509
g3
Nsg4
S'Sannsynlig, Meget sannsynlig'
p510
sg6
S'white'
p511
sg8
(lp512
sg10
S'Likely'
p513
sg12
S'Some'
p514
sg14
S'#ff9900'
p515
sg16
I3
sg17
S'Nat'
p516
sg19
S'Naturlig utloest'
p517
sg21
Nsg22
S'200'
p518
sg24
S'1200'
p519
sg26
S'Noen bratte heng'
p520
sg28
Nsg29
g348
sg31
S'2 - Smaa'
p521
sba(irunmatrix
M3Element
p522
(dp523
g3
Nsg4
S'Lite sannsynlig, Mulig'
p524
sg6
S'gray'
p525
sg8
(lp526
sg10
S'Possible'
p527
sg12
S'Many'
p528
sg14
g76
sg16
I0
sg17
S'High'
p529
sg19
S'Stor tilleggsbelastning'
p530
sg21
Nsg22
S'200'
p531
sg24
S'1300'
p532
sg26
S'Mange bratte heng'
p533
sg28
Nsg29
g348
sg31
S'2 - Smaa'
p534
sba(irunmatrix
M3Element
p535
(dp536
g3
Nsg4
S'Lite sannsynlig, Mulig'
p537
sg6
S'white'
p538
sg8
(lp539
sg10
S'Possible'
p540
sg12
S'Many'
p541
sg14
g515
sg16
I3
sg17
S'Low'
p542
sg19
S'Liten tilleggsbelastning'
p543
sg21
Nsg22
S'200'
p544
sg24
S'1400'
p545
sg26
S'Mange bratte heng'
p546
sg28
Nsg29
g348
sg31
S'2 - Smaa'
p547
sba(irunmatrix
M3Element
p548
(dp549
g3
Nsg4
S'Lite sannsynlig, Mulig'
p550
sg6
S'gray'
p551
sg8
(lp552
sg10
S'Possible'
p553
sg12
S'Many'
p554
sg14
g76
sg16
I0
sg17
S'Nat'
p555
sg19
S'Naturlig utloest'
p556
sg21
Nsg22
S'200'
p557
sg24
S'1500'
p558
sg26
S'Mange bratte heng'
p559
sg28
Nsg29
g348
sg31
S'2 - Smaa'
p560
sba(irunmatrix
M3Element
p561
(dp562
g3
Nsg4
S'Sannsynlig, Meget sannsynlig'
p563
sg6
S'gray'
p564
sg8
(lp565
sg10
S'Likely'
p566
sg12
S'Many'
p567
sg14
g76
sg16
I0
sg17
S'High'
p568
sg19
S'Stor tilleggsbelastning'
p569
sg21
Nsg22
S'200'
p570
sg24
S'1600'
p571
sg26
S'Mange bratte heng'
p572
sg28
Nsg29
g348
sg31
S'2 - Smaa'
p573
sba(irunmatrix
M3Element
p574
(dp575
g3
Nsg4
S'Sannsynlig, Meget sannsynlig'
p576
sg6
S'white'
p577
sg8
(lp578
sg10
S'Likely'
p579
sg12
S'Many'
p580
sg14
S'#ff0000'
p581
sg16
I4
sg17
S'Low'
p582
sg19
S'Liten tilleggsbelastning'
p583
sg21
Nsg22
S'200'
p584
sg24
S'1700'
p585
sg26
S'Mange bratte heng'
p586
sg28
Nsg29
g348
sg31
S'2 - Smaa'
p587
sba(irunmatrix
M3Element
p588
(dp589
g3
Nsg4
S'Sannsynlig, Meget sannsynlig'
p590
sg6
S'white'
p591
sg8
(lp592
sg10
S'Likely'
p593
sg12
S'Many'
p594
sg14
g581
sg16
I4
sg17
S'Nat'
p595
sg19
S'Naturlig utloest'
p596
sg21
Nsg22
S'200'
p597
sg24
S'1800'
p598
sg26
S'Mange bratte heng'
p599
sg28
Nsg29
g348
sg31
S'2 - Smaa'
p600
sba(irunmatrix
M3Element
p601
(dp602
g3
Nsg4
S'Lite sannsynlig, Mulig'
p603
sg6
S'gray'
p604
sg8
(lp605
sg10
S'Possible'
p606
sg12
S'Most'
p607
sg14
g76
sg16
I0
sg17
S'High'
p608
sg19
S'Stor tilleggsbelastning'
p609
sg21
Nsg22
S'200'
p610
sg24
S'1900'
p611
sg26
S'De fleste bratte heng, Ogsaa i mindre bratt terreng'
p612
sg28
Nsg29
g348
sg31
S'2 - Smaa'
p613
sba(irunmatrix
M3Element
p614
(dp615
g3
Nsg4
S'Lite sannsynlig, Mulig'
p616
sg6
S'gray'
p617
sg8
(lp618
sg10
S'Possible'
p619
sg12
S'Most'
p620
sg14
g76
sg16
I0
sg17
S'Low'
p621
sg19
S'Liten tilleggsbelastning'
p622
sg21
Nsg22
S'200'
p623
sg24
S'2000'
p624
sg26
S'De fleste bratte heng, Ogsaa i mindre bratt terreng'
p625
sg28
Nsg29
g348
sg31
S'2 - Smaa'
p626
sba(irunmatrix
M3Element
p627
(dp628
g3
Nsg4
S'Lite sannsynlig, Mulig'
p629
sg6
S'gray'
p630
sg8
(lp631
sg10
S'Possible'
p632
sg12
S'Most'
p633
sg14
g76
sg16
I0
sg17
S'Nat'
p634
sg19
S'Naturlig utloest'
p635
sg21
Nsg22
S'200'
p636
sg24
S'2100'
p637
sg26
S'De fleste bratte heng, Ogsaa i mindre bratt terreng'
p638
sg28
Nsg29
g348
sg31
S'2 - Smaa'
p639
sba(irunmatrix
M3Element
p640
(dp641
g3
Nsg4
S'Sannsynlig, Meget sannsynlig'
p642
sg6
S'gray'
p643
sg8
(lp644
sg10
S'Likely'
p645
sg12
S'Most'
p646
sg14
g76
sg16
I0
sg17
S'High'
p647
sg19
S'Stor tilleggsbelastning'
p648
sg21
Nsg22
S'200'
p649
sg24
S'2200'
p650
sg26
S'De fleste bratte heng, Ogsaa i mindre bratt terreng'
p651
sg28
Nsg29
g348
sg31
S'2 - Smaa'
p652
sba(irunmatrix
M3Element
p653
(dp654
g3
Nsg4
S'Sannsynlig, Meget sannsynlig'
p655
sg6
S'gray'
p656
sg8
(lp657
sg10
S'Likely'
p658
sg12
S'Most'
p659
sg14
g76
sg16
I0
sg17
S'Low'
p660
sg19
S'Liten tilleggsbelastning'
p661
sg21
Nsg22
S'200'
p662
sg24
S'2300'
p663
sg26
S'De fleste bratte heng, Ogsaa i mindre bratt terreng'
p664
sg28
Nsg29
g348
sg31
S'2 - Smaa'
p665
sba(irunmatrix
M3Element
p666
(dp667
g3
Nsg4
S'Sannsynlig, Meget sannsynlig'
p668
sg6
S'white'
p669
sg8
(lp670
sg10
S'Likely'
p671
sg12
S'Most'
p672
sg14
g76
sg16
I0
sg17
S'Nat'
p673
sg19
S'Naturlig utloest'
p674
sg21
Nsg22
S'200'
p675
sg24
S'2400'
p676
sg26
S'De fleste bratte heng, Ogsaa i mindre bratt terreng'
p677
sg28
Nsg29
g348
sg31
S'2 - Smaa'
p678
sba(irunmatrix
M3Element
p679
(dp680
g3
Nsg4
S'Lite sannsynlig, Mulig'
p681
sg6
S'white'
p682
sg8
(lp683
sg10
S'Possible'
p684
sg12
S'Isolated'
p685
sg14
g15
sg16
I1
sg17
S'High'
p686
sg19
S'Stor tilleggsbelastning'
p687
sg21
Nsg22
S'300'
p688
sg24
S'100'
p689
sg26
S'Isolerte faresoner'
p690
sg28
Nsg29
S'3'
p691
sg31
S'3 - Middels'
p692
sba(irunmatrix
M3Element
p693
(dp694
g3
Nsg4
S'Lite sannsynlig, Mulig'
p695
sg6
S'white'
p696
sg8
(lp697
sg10
S'Possible'
p698
sg12
S'Isolated'
p699
sg14
g251
sg16
I2
sg17
S'Low'
p700
sg19
S'Liten tilleggsbelastning'
p701
sg21
Nsg22
S'300'
p702
sg24
S'200'
p703
sg26
S'Isolerte faresoner'
p704
sg28
Nsg29
g691
sg31
S'3 - Middels'
p705
sba(irunmatrix
M3Element
p706
(dp707
g3
Nsg4
S'Lite sannsynlig, Mulig'
p708
sg6
S'white'
p709
sg8
(lp710
sg10
S'Possible'
p711
sg12
S'Isolated'
p712
sg14
g251
sg16
I2
sg17
S'Nat'
p713
sg19
S'Naturlig utloest'
p714
sg21
Nsg22
S'300'
p715
sg24
S'300'
p716
sg26
S'Isolerte faresoner'
p717
sg28
Nsg29
g691
sg31
S'3 - Middels'
p718
sba(irunmatrix
M3Element
p719
(dp720
g3
Nsg4
S'Sannsynlig, Meget sannsynlig'
p721
sg6
S'gray'
p722
sg8
(lp723
sg10
S'Likely'
p724
sg12
S'Isolated'
p725
sg14
g76
sg16
I0
sg17
S'High'
p726
sg19
S'Stor tilleggsbelastning'
p727
sg21
Nsg22
S'300'
p728
sg24
S'400'
p729
sg26
S'Isolerte faresoner'
p730
sg28
Nsg29
g691
sg31
S'3 - Middels'
p731
sba(irunmatrix
M3Element
p732
(dp733
g3
Nsg4
S'Sannsynlig, Meget sannsynlig'
p734
sg6
S'gray'
p735
sg8
(lp736
sg10
S'Likely'
p737
sg12
S'Isolated'
p738
sg14
g76
sg16
I0
sg17
S'Low'
p739
sg19
S'Liten tilleggsbelastning'
p740
sg21
Nsg22
S'300'
p741
sg24
S'500'
p742
sg26
S'Isolerte faresoner'
p743
sg28
Nsg29
g691
sg31
S'3 - Middels'
p744
sba(irunmatrix
M3Element
p745
(dp746
g3
Nsg4
S'Sannsynlig, Meget sannsynlig'
p747
sg6
S'gray'
p748
sg8
(lp749
sg10
S'Likely'
p750
sg12
S'Isolated'
p751
sg14
g76
sg16
I0
sg17
S'Nat'
p752
sg19
S'Naturlig utloest'
p753
sg21
Nsg22
S'300'
p754
sg24
S'600'
p755
sg26
S'Isolerte faresoner'
p756
sg28
Nsg29
g691
sg31
S'3 - Middels'
p757
sba(irunmatrix
M3Element
p758
(dp759
g3
F2.0
sg4
S'Lite sannsynlig, Mulig'
p760
sg6
g140
sg8
(lp761
I2
aI2
aI2
aI2
aI2
aI2
aI2
aI2
aI2
aI2
aI2
aI2
aI2
aI2
aI2
asg10
S'Possible'
p762
sg12
S'Some'
p763
sg14
g251
sg16
I2
sg17
S'High'
p764
sg19
S'Stor tilleggsbelastning'
p765
sg21
I15
sg22
S'300'
p766
sg24
S'700'
p767
sg26
S'Noen bratte heng'
p768
sg28
g45
(g49
S'\x00\x00\x00\x00\x00\x00\x00\x00'
p769
tp770
Rp771
sg29
g691
sg31
S'3 - Middels'
p772
sba(irunmatrix
M3Element
p773
(dp774
g3
F3.0
sg4
S'Lite sannsynlig, Mulig'
p775
sg6
g495
sg8
(lp776
I3
aI3
aI3
aI3
aI3
aI3
aI3
aI3
aI3
aI3
aI3
aI3
aI3
aI3
aI3
aI3
aI3
aI3
aI3
aI3
aI3
aI3
aI3
aI3
aI3
aI3
aI3
aI3
aI3
aI3
asg10
S'Possible'
p777
sg12
S'Some'
p778
sg14
g515
sg16
I3
sg17
S'Low'
p779
sg19
S'Liten tilleggsbelastning'
p780
sg21
I30
sg22
S'300'
p781
sg24
S'800'
p782
sg26
S'Noen bratte heng'
p783
sg28
g45
(g49
S'\x00\x00\x00\x00\x00\x00\x00\x00'
p784
tp785
Rp786
sg29
g691
sg31
S'3 - Middels'
p787
sba(irunmatrix
M3Element
p788
(dp789
g3
F2.6666666666666665
sg4
S'Lite sannsynlig, Mulig'
p790
sg6
g495
sg8
(lp791
I3
aI3
aI2
asg10
S'Possible'
p792
sg12
S'Some'
p793
sg14
g515
sg16
I3
sg17
S'Nat'
p794
sg19
S'Naturlig utloest'
p795
sg21
I3
sg22
S'300'
p796
sg24
S'900'
p797
sg26
S'Noen bratte heng'
p798
sg28
g45
(g49
S'f\xfa\xfe\xdd}+\xde?'
p799
tp800
Rp801
sg29
g691
sg31
S'3 - Middels'
p802
sba(irunmatrix
M3Element
p803
(dp804
g3
Nsg4
S'Sannsynlig, Meget sannsynlig'
p805
sg6
S'gray'
p806
sg8
(lp807
sg10
S'Likely'
p808
sg12
S'Some'
p809
sg14
g76
sg16
I0
sg17
S'High'
p810
sg19
S'Stor tilleggsbelastning'
p811
sg21
Nsg22
S'300'
p812
sg24
S'1000'
p813
sg26
S'Noen bratte heng'
p814
sg28
Nsg29
g691
sg31
S'3 - Middels'
p815
sba(irunmatrix
M3Element
p816
(dp817
g3
Nsg4
S'Sannsynlig, Meget sannsynlig'
p818
sg6
S'gray'
p819
sg8
(lp820
sg10
S'Likely'
p821
sg12
S'Some'
p822
sg14
g76
sg16
I0
sg17
S'Low'
p823
sg19
S'Liten tilleggsbelastning'
p824
sg21
Nsg22
S'300'
p825
sg24
S'1100'
p826
sg26
S'Noen bratte heng'
p827
sg28
Nsg29
g691
sg31
S'3 - Middels'
p828
sba(irunmatrix
M3Element
p829
(dp830
g3
Nsg4
S'Sannsynlig, Meget sannsynlig'
p831
sg6
S'white'
p832
sg8
(lp833
sg10
S'Likely'
p834
sg12
S'Some'
p835
sg14
g581
sg16
I4
sg17
S'Nat'
p836
sg19
S'Naturlig utloest'
p837
sg21
Nsg22
S'300'
p838
sg24
S'1200'
p839
sg26
S'Noen bratte heng'
p840
sg28
Nsg29
g691
sg31
S'3 - Middels'
p841
sba(irunmatrix
M3Element
p842
(dp843
g3
F3.0
sg4
S'Lite sannsynlig, Mulig'
p844
sg6
g495
sg8
(lp845
I3
aI3
asg10
S'Possible'
p846
sg12
S'Many'
p847
sg14
g76
sg16
I0
sg17
S'High'
p848
sg19
S'Stor tilleggsbelastning'
p849
sg21
I2
sg22
S'300'
p850
sg24
S'1300'
p851
sg26
S'Mange bratte heng'
p852
sg28
g45
(g49
S'\x00\x00\x00\x00\x00\x00\x00\x00'
p853
tp854
Rp855
sg29
g691
sg31
S'3 - Middels'
p856
sba(irunmatrix
M3Element
p857
(dp858
g3
F3.0
sg4
S'Lite sannsynlig, Mulig'
p859
sg6
g495
sg8
(lp860
I3
aI3
aI3
aI3
aI3
asg10
S'Possible'
p861
sg12
S'Many'
p862
sg14
g581
sg16
I4
sg17
S'Low'
p863
sg19
S'Liten tilleggsbelastning'
p864
sg21
I5
sg22
S'300'
p865
sg24
S'1400'
p866
sg26
S'Mange bratte heng'
p867
sg28
g45
(g49
S'\x00\x00\x00\x00\x00\x00\x00\x00'
p868
tp869
Rp870
sg29
g691
sg31
S'3 - Middels'
p871
sba(irunmatrix
M3Element
p872
(dp873
g3
F3.75
sg4
S'Lite sannsynlig, Mulig'
p874
sg6
S'#ff0000'
p875
sg8
(lp876
I3
aI4
aI4
aI4
asg10
S'Possible'
p877
sg12
S'Many'
p878
sg14
g76
sg16
I0
sg17
S'Nat'
p879
sg19
S'Naturlig utloest'
p880
sg21
I4
sg22
S'300'
p881
sg24
S'1500'
p882
sg26
S'Mange bratte heng'
p883
sg28
g45
(g49
S'\xaaLX\xe8z\xb6\xdb?'
p884
tp885
Rp886
sg29
g691
sg31
S'3 - Middels'
p887
sba(irunmatrix
M3Element
p888
(dp889
g3
Nsg4
S'Sannsynlig, Meget sannsynlig'
p890
sg6
S'gray'
p891
sg8
(lp892
sg10
S'Likely'
p893
sg12
S'Many'
p894
sg14
g76
sg16
I0
sg17
S'High'
p895
sg19
S'Stor tilleggsbelastning'
p896
sg21
Nsg22
S'300'
p897
sg24
S'1600'
p898
sg26
S'Mange bratte heng'
p899
sg28
Nsg29
g691
sg31
S'3 - Middels'
p900
sba(irunmatrix
M3Element
p901
(dp902
g3
Nsg4
S'Sannsynlig, Meget sannsynlig'
p903
sg6
S'white'
p904
sg8
(lp905
sg10
S'Likely'
p906
sg12
S'Many'
p907
sg14
g581
sg16
I4
sg17
S'Low'
p908
sg19
S'Liten tilleggsbelastning'
p909
sg21
Nsg22
S'300'
p910
sg24
S'1700'
p911
sg26
S'Mange bratte heng'
p912
sg28
Nsg29
g691
sg31
S'3 - Middels'
p913
sba(irunmatrix
M3Element
p914
(dp915
g3
Nsg4
S'Sannsynlig, Meget sannsynlig'
p916
sg6
S'white'
p917
sg8
(lp918
sg10
S'Likely'
p919
sg12
S'Many'
p920
sg14
g581
sg16
I4
sg17
S'Nat'
p921
sg19
S'Naturlig utloest'
p922
sg21
Nsg22
S'300'
p923
sg24
S'1800'
p924
sg26
S'Mange bratte heng'
p925
sg28
Nsg29
g691
sg31
S'3 - Middels'
p926
sba(irunmatrix
M3Element
p927
(dp928
g3
Nsg4
S'Lite sannsynlig, Mulig'
p929
sg6
S'gray'
p930
sg8
(lp931
sg10
S'Possible'
p932
sg12
S'Most'
p933
sg14
g76
sg16
I0
sg17
S'High'
p934
sg19
S'Stor tilleggsbelastning'
p935
sg21
Nsg22
S'300'
p936
sg24
S'1900'
p937
sg26
S'De fleste bratte heng, Ogsaa i mindre bratt terreng'
p938
sg28
Nsg29
g691
sg31
S'3 - Middels'
p939
sba(irunmatrix
M3Element
p940
(dp941
g3
Nsg4
S'Lite sannsynlig, Mulig'
p942
sg6
S'gray'
p943
sg8
(lp944
sg10
S'Possible'
p945
sg12
S'Most'
p946
sg14
g76
sg16
I0
sg17
S'Low'
p947
sg19
S'Liten tilleggsbelastning'
p948
sg21
Nsg22
S'300'
p949
sg24
S'2000'
p950
sg26
S'De fleste bratte heng, Ogsaa i mindre bratt terreng'
p951
sg28
Nsg29
g691
sg31
S'3 - Middels'
p952
sba(irunmatrix
M3Element
p953
(dp954
g3
Nsg4
S'Lite sannsynlig, Mulig'
p955
sg6
S'gray'
p956
sg8
(lp957
sg10
S'Possible'
p958
sg12
S'Most'
p959
sg14
g76
sg16
I0
sg17
S'Nat'
p960
sg19
S'Naturlig utloest'
p961
sg21
Nsg22
S'300'
p962
sg24
S'2100'
p963
sg26
S'De fleste bratte heng, Ogsaa i mindre bratt terreng'
p964
sg28
Nsg29
g691
sg31
S'3 - Middels'
p965
sba(irunmatrix
M3Element
p966
(dp967
g3
Nsg4
S'Sannsynlig, Meget sannsynlig'
p968
sg6
S'gray'
p969
sg8
(lp970
sg10
S'Likely'
p971
sg12
S'Most'
p972
sg14
g76
sg16
I0
sg17
S'High'
p973
sg19
S'Stor tilleggsbelastning'
p974
sg21
Nsg22
S'300'
p975
sg24
S'2200'
p976
sg26
S'De fleste bratte heng, Ogsaa i mindre bratt terreng'
p977
sg28
Nsg29
g691
sg31
S'3 - Middels'
p978
sba(irunmatrix
M3Element
p979
(dp980
g3
Nsg4
S'Sannsynlig, Meget sannsynlig'
p981
sg6
S'gray'
p982
sg8
(lp983
sg10
S'Likely'
p984
sg12
S'Most'
p985
sg14
g76
sg16
I0
sg17
S'Low'
p986
sg19
S'Liten tilleggsbelastning'
p987
sg21
Nsg22
S'300'
p988
sg24
S'2300'
p989
sg26
S'De fleste bratte heng, Ogsaa i mindre bratt terreng'
p990
sg28
Nsg29
g691
sg31
S'3 - Middels'
p991
sba(irunmatrix
M3Element
p992
(dp993
g3
Nsg4
S'Sannsynlig, Meget sannsynlig'
p994
sg6
S'white'
p995
sg8
(lp996
sg10
S'Likely'
p997
sg12
S'Most'
p998
sg14
g76
sg16
I0
sg17
S'Nat'
p999
sg19
S'Naturlig utloest'
p1000
sg21
Nsg22
S'300'
p1001
sg24
S'2400'
p1002
sg26
S'De fleste bratte heng, Ogsaa i mindre bratt terreng'
p1003
sg28
Nsg29
g691
sg31
S'3 - Middels'
p1004
sba(irunmatrix
M3Element
p1005
(dp1006
g3
Nsg4
S'Lite sannsynlig, Mulig'
p1007
sg6
S'white'
p1008
sg8
(lp1009
sg10
S'Possible'
p1010
sg12
S'Isolated'
p1011
sg14
g251
sg16
I2
sg17
S'High'
p1012
sg19
S'Stor tilleggsbelastning'
p1013
sg21
Nsg22
S'400'
p1014
sg24
S'100'
p1015
sg26
S'Isolerte faresoner'
p1016
sg28
Nsg29
S'4'
p1017
sg31
S'4 - Store'
p1018
sba(irunmatrix
M3Element
p1019
(dp1020
g3
Nsg4
S'Lite sannsynlig, Mulig'
p1021
sg6
S'white'
p1022
sg8
(lp1023
sg10
S'Possible'
p1024
sg12
S'Isolated'
p1025
sg14
g515
sg16
I3
sg17
S'Low'
p1026
sg19
S'Liten tilleggsbelastning'
p1027
sg21
Nsg22
S'400'
p1028
sg24
S'200'
p1029
sg26
S'Isolerte faresoner'
p1030
sg28
Nsg29
g1017
sg31
S'4 - Store'
p1031
sba(irunmatrix
M3Element
p1032
(dp1033
g3
Nsg4
S'Lite sannsynlig, Mulig'
p1034
sg6
S'white'
p1035
sg8
(lp1036
sg10
S'Possible'
p1037
sg12
S'Isolated'
p1038
sg14
g515
sg16
I3
sg17
S'Nat'
p1039
sg19
S'Naturlig utloest'
p1040
sg21
Nsg22
S'400'
p1041
sg24
S'300'
p1042
sg26
S'Isolerte faresoner'
p1043
sg28
Nsg29
g1017
sg31
S'4 - Store'
p1044
sba(irunmatrix
M3Element
p1045
(dp1046
g3
Nsg4
S'Sannsynlig, Meget sannsynlig'
p1047
sg6
S'gray'
p1048
sg8
(lp1049
sg10
S'Likely'
p1050
sg12
S'Isolated'
p1051
sg14
g76
sg16
I0
sg17
S'High'
p1052
sg19
S'Stor tilleggsbelastning'
p1053
sg21
Nsg22
S'400'
p1054
sg24
S'400'
p1055
sg26
S'Isolerte faresoner'
p1056
sg28
Nsg29
g1017
sg31
S'4 - Store'
p1057
sba(irunmatrix
M3Element
p1058
(dp1059
g3
Nsg4
S'Sannsynlig, Meget sannsynlig'
p1060
sg6
S'gray'
p1061
sg8
(lp1062
sg10
S'Likely'
p1063
sg12
S'Isolated'
p1064
sg14
g76
sg16
I0
sg17
S'Low'
p1065
sg19
S'Liten tilleggsbelastning'
p1066
sg21
Nsg22
S'400'
p1067
sg24
S'500'
p1068
sg26
S'Isolerte faresoner'
p1069
sg28
Nsg29
g1017
sg31
S'4 - Store'
p1070
sba(irunmatrix
M3Element
p1071
(dp1072
g3
Nsg4
S'Sannsynlig, Meget sannsynlig'
p1073
sg6
S'gray'
p1074
sg8
(lp1075
sg10
S'Likely'
p1076
sg12
S'Isolated'
p1077
sg14
g76
sg16
I0
sg17
S'Nat'
p1078
sg19
S'Naturlig utloest'
p1079
sg21
Nsg22
S'400'
p1080
sg24
S'600'
p1081
sg26
S'Isolerte faresoner'
p1082
sg28
Nsg29
g1017
sg31
S'4 - Store'
p1083
sba(irunmatrix
M3Element
p1084
(dp1085
g3
Nsg4
S'Lite sannsynlig, Mulig'
p1086
sg6
S'white'
p1087
sg8
(lp1088
sg10
S'Possible'
p1089
sg12
S'Some'
p1090
sg14
g515
sg16
I3
sg17
S'High'
p1091
sg19
S'Stor tilleggsbelastning'
p1092
sg21
Nsg22
S'400'
p1093
sg24
S'700'
p1094
sg26
S'Noen bratte heng'
p1095
sg28
Nsg29
g1017
sg31
S'4 - Store'
p1096
sba(irunmatrix
M3Element
p1097
(dp1098
g3
Nsg4
S'Lite sannsynlig, Mulig'
p1099
sg6
S'white'
p1100
sg8
(lp1101
sg10
S'Possible'
p1102
sg12
S'Some'
p1103
sg14
g581
sg16
I4
sg17
S'Low'
p1104
sg19
S'Liten tilleggsbelastning'
p1105
sg21
Nsg22
S'400'
p1106
sg24
S'800'
p1107
sg26
S'Noen bratte heng'
p1108
sg28
Nsg29
g1017
sg31
S'4 - Store'
p1109
sba(irunmatrix
M3Element
p1110
(dp1111
g3
Nsg4
S'Lite sannsynlig, Mulig'
p1112
sg6
S'white'
p1113
sg8
(lp1114
sg10
S'Possible'
p1115
sg12
S'Some'
p1116
sg14
g581
sg16
I4
sg17
S'Nat'
p1117
sg19
S'Naturlig utloest'
p1118
sg21
Nsg22
S'400'
p1119
sg24
S'900'
p1120
sg26
S'Noen bratte heng'
p1121
sg28
Nsg29
g1017
sg31
S'4 - Store'
p1122
sba(irunmatrix
M3Element
p1123
(dp1124
g3
Nsg4
S'Sannsynlig, Meget sannsynlig'
p1125
sg6
S'gray'
p1126
sg8
(lp1127
sg10
S'Likely'
p1128
sg12
S'Some'
p1129
sg14
g76
sg16
I0
sg17
S'High'
p1130
sg19
S'Stor tilleggsbelastning'
p1131
sg21
Nsg22
S'400'
p1132
sg24
S'1000'
p1133
sg26
S'Noen bratte heng'
p1134
sg28
Nsg29
g1017
sg31
S'4 - Store'
p1135
sba(irunmatrix
M3Element
p1136
(dp1137
g3
Nsg4
S'Sannsynlig, Meget sannsynlig'
p1138
sg6
S'gray'
p1139
sg8
(lp1140
sg10
S'Likely'
p1141
sg12
S'Some'
p1142
sg14
g76
sg16
I0
sg17
S'Low'
p1143
sg19
S'Liten tilleggsbelastning'
p1144
sg21
Nsg22
S'400'
p1145
sg24
S'1100'
p1146
sg26
S'Noen bratte heng'
p1147
sg28
Nsg29
g1017
sg31
S'4 - Store'
p1148
sba(irunmatrix
M3Element
p1149
(dp1150
g3
Nsg4
S'Sannsynlig, Meget sannsynlig'
p1151
sg6
S'white'
p1152
sg8
(lp1153
sg10
S'Likely'
p1154
sg12
S'Some'
p1155
sg14
g581
sg16
I4
sg17
S'Nat'
p1156
sg19
S'Naturlig utloest'
p1157
sg21
Nsg22
S'400'
p1158
sg24
S'1200'
p1159
sg26
S'Noen bratte heng'
p1160
sg28
Nsg29
g1017
sg31
S'4 - Store'
p1161
sba(irunmatrix
M3Element
p1162
(dp1163
g3
Nsg4
S'Lite sannsynlig, Mulig'
p1164
sg6
S'gray'
p1165
sg8
(lp1166
sg10
S'Possible'
p1167
sg12
S'Many'
p1168
sg14
g76
sg16
I0
sg17
S'High'
p1169
sg19
S'Stor tilleggsbelastning'
p1170
sg21
Nsg22
S'400'
p1171
sg24
S'1300'
p1172
sg26
S'Mange bratte heng'
p1173
sg28
Nsg29
g1017
sg31
S'4 - Store'
p1174
sba(irunmatrix
M3Element
p1175
(dp1176
g3
Nsg4
S'Lite sannsynlig, Mulig'
p1177
sg6
S'white'
p1178
sg8
(lp1179
sg10
S'Possible'
p1180
sg12
S'Many'
p1181
sg14
g76
sg16
I0
sg17
S'Low'
p1182
sg19
S'Liten tilleggsbelastning'
p1183
sg21
Nsg22
S'400'
p1184
sg24
S'1400'
p1185
sg26
S'Mange bratte heng'
p1186
sg28
Nsg29
g1017
sg31
S'4 - Store'
p1187
sba(irunmatrix
M3Element
p1188
(dp1189
g3
Nsg4
S'Lite sannsynlig, Mulig'
p1190
sg6
S'gray'
p1191
sg8
(lp1192
sg10
S'Possible'
p1193
sg12
S'Many'
p1194
sg14
g76
sg16
I0
sg17
S'Nat'
p1195
sg19
S'Naturlig utloest'
p1196
sg21
Nsg22
S'400'
p1197
sg24
S'1500'
p1198
sg26
S'Mange bratte heng'
p1199
sg28
Nsg29
g1017
sg31
S'4 - Store'
p1200
sba(irunmatrix
M3Element
p1201
(dp1202
g3
Nsg4
S'Sannsynlig, Meget sannsynlig'
p1203
sg6
S'gray'
p1204
sg8
(lp1205
sg10
S'Likely'
p1206
sg12
S'Many'
p1207
sg14
g76
sg16
I0
sg17
S'High'
p1208
sg19
S'Stor tilleggsbelastning'
p1209
sg21
Nsg22
S'400'
p1210
sg24
S'1600'
p1211
sg26
S'Mange bratte heng'
p1212
sg28
Nsg29
g1017
sg31
S'4 - Store'
p1213
sba(irunmatrix
M3Element
p1214
(dp1215
g3
Nsg4
S'Sannsynlig, Meget sannsynlig'
p1216
sg6
S'white'
p1217
sg8
(lp1218
sg10
S'Likely'
p1219
sg12
S'Many'
p1220
sg14
g76
sg16
I0
sg17
S'Low'
p1221
sg19
S'Liten tilleggsbelastning'
p1222
sg21
Nsg22
S'400'
p1223
sg24
S'1700'
p1224
sg26
S'Mange bratte heng'
p1225
sg28
Nsg29
g1017
sg31
S'4 - Store'
p1226
sba(irunmatrix
M3Element
p1227
(dp1228
g3
Nsg4
S'Sannsynlig, Meget sannsynlig'
p1229
sg6
S'white'
p1230
sg8
(lp1231
sg10
S'Likely'
p1232
sg12
S'Many'
p1233
sg14
S'k'
p1234
sg16
I5
sg17
S'Nat'
p1235
sg19
S'Naturlig utloest'
p1236
sg21
Nsg22
S'400'
p1237
sg24
S'1800'
p1238
sg26
S'Mange bratte heng'
p1239
sg28
Nsg29
g1017
sg31
S'4 - Store'
p1240
sba(irunmatrix
M3Element
p1241
(dp1242
g3
Nsg4
S'Lite sannsynlig, Mulig'
p1243
sg6
S'gray'
p1244
sg8
(lp1245
sg10
S'Possible'
p1246
sg12
S'Most'
p1247
sg14
g76
sg16
I0
sg17
S'High'
p1248
sg19
S'Stor tilleggsbelastning'
p1249
sg21
Nsg22
S'400'
p1250
sg24
S'1900'
p1251
sg26
S'De fleste bratte heng, Ogsaa i mindre bratt terreng'
p1252
sg28
Nsg29
g1017
sg31
S'4 - Store'
p1253
sba(irunmatrix
M3Element
p1254
(dp1255
g3
Nsg4
S'Lite sannsynlig, Mulig'
p1256
sg6
S'gray'
p1257
sg8
(lp1258
sg10
S'Possible'
p1259
sg12
S'Most'
p1260
sg14
g76
sg16
I0
sg17
S'Low'
p1261
sg19
S'Liten tilleggsbelastning'
p1262
sg21
Nsg22
S'400'
p1263
sg24
S'2000'
p1264
sg26
S'De fleste bratte heng, Ogsaa i mindre bratt terreng'
p1265
sg28
Nsg29
g1017
sg31
S'4 - Store'
p1266
sba(irunmatrix
M3Element
p1267
(dp1268
g3
Nsg4
S'Lite sannsynlig, Mulig'
p1269
sg6
S'gray'
p1270
sg8
(lp1271
sg10
S'Possible'
p1272
sg12
S'Most'
p1273
sg14
g76
sg16
I0
sg17
S'Nat'
p1274
sg19
S'Naturlig utloest'
p1275
sg21
Nsg22
S'400'
p1276
sg24
S'2100'
p1277
sg26
S'De fleste bratte heng, Ogsaa i mindre bratt terreng'
p1278
sg28
Nsg29
g1017
sg31
S'4 - Store'
p1279
sba(irunmatrix
M3Element
p1280
(dp1281
g3
Nsg4
S'Sannsynlig, Meget sannsynlig'
p1282
sg6
S'gray'
p1283
sg8
(lp1284
sg10
S'Likely'
p1285
sg12
S'Most'
p1286
sg14
g76
sg16
I0
sg17
S'High'
p1287
sg19
S'Stor tilleggsbelastning'
p1288
sg21
Nsg22
S'400'
p1289
sg24
S'2200'
p1290
sg26
S'De fleste bratte heng, Ogsaa i mindre bratt terreng'
p1291
sg28
Nsg29
g1017
sg31
S'4 - Store'
p1292
sba(irunmatrix
M3Element
p1293
(dp1294
g3
Nsg4
S'Sannsynlig, Meget sannsynlig'
p1295
sg6
S'gray'
p1296
sg8
(lp1297
sg10
S'Likely'
p1298
sg12
S'Most'
p1299
sg14
g76
sg16
I0
sg17
S'Low'
p1300
sg19
S'Liten tilleggsbelastning'
p1301
sg21
Nsg22
S'400'
p1302
sg24
S'2300'
p1303
sg26
S'De fleste bratte heng, Ogsaa i mindre bratt terreng'
p1304
sg28
Nsg29
g1017
sg31
S'4 - Store'
p1305
sba(irunmatrix
M3Element
p1306
(dp1307
g3
Nsg4
S'Sannsynlig, Meget sannsynlig'
p1308
sg6
S'white'
p1309
sg8
(lp1310
sg10
S'Likely'
p1311
sg12
S'Most'
p1312
sg14
g76
sg16
I0
sg17
S'Nat'
p1313
sg19
S'Naturlig utloest'
p1314
sg21
Nsg22
S'400'
p1315
sg24
S'2400'
p1316
sg26
S'De fleste bratte heng, Ogsaa i mindre bratt terreng'
p1317
sg28
Nsg29
g1017
sg31
S'4 - Store'
p1318
sba(irunmatrix
M3Element
p1319
(dp1320
g3
Nsg4
S'Lite sannsynlig, Mulig'
p1321
sg6
S'white'
p1322
sg8
(lp1323
sg10
S'Possible'
p1324
sg12
S'Isolated'
p1325
sg14
g76
sg16
I0
sg17
S'High'
p1326
sg19
S'Stor tilleggsbelastning'
p1327
sg21
Nsg22
S'500'
p1328
sg24
S'100'
p1329
sg26
S'Isolerte faresoner'
p1330
sg28
Nsg29
S'5'
p1331
sg31
S'5 - Svaert store'
p1332
sba(irunmatrix
M3Element
p1333
(dp1334
g3
Nsg4
S'Lite sannsynlig, Mulig'
p1335
sg6
S'white'
p1336
sg8
(lp1337
sg10
S'Possible'
p1338
sg12
S'Isolated'
p1339
sg14
g76
sg16
I0
sg17
S'Low'
p1340
sg19
S'Liten tilleggsbelastning'
p1341
sg21
Nsg22
S'500'
p1342
sg24
S'200'
p1343
sg26
S'Isolerte faresoner'
p1344
sg28
Nsg29
g1331
sg31
S'5 - Svaert store'
p1345
sba(irunmatrix
M3Element
p1346
(dp1347
g3
Nsg4
S'Lite sannsynlig, Mulig'
p1348
sg6
S'white'
p1349
sg8
(lp1350
sg10
S'Possible'
p1351
sg12
S'Isolated'
p1352
sg14
g76
sg16
I0
sg17
S'Nat'
p1353
sg19
S'Naturlig utloest'
p1354
sg21
Nsg22
S'500'
p1355
sg24
S'300'
p1356
sg26
S'Isolerte faresoner'
p1357
sg28
Nsg29
g1331
sg31
S'5 - Svaert store'
p1358
sba(irunmatrix
M3Element
p1359
(dp1360
g3
Nsg4
S'Sannsynlig, Meget sannsynlig'
p1361
sg6
S'gray'
p1362
sg8
(lp1363
sg10
S'Likely'
p1364
sg12
S'Isolated'
p1365
sg14
g76
sg16
I0
sg17
S'High'
p1366
sg19
S'Stor tilleggsbelastning'
p1367
sg21
Nsg22
S'500'
p1368
sg24
S'400'
p1369
sg26
S'Isolerte faresoner'
p1370
sg28
Nsg29
g1331
sg31
S'5 - Svaert store'
p1371
sba(irunmatrix
M3Element
p1372
(dp1373
g3
Nsg4
S'Sannsynlig, Meget sannsynlig'
p1374
sg6
S'gray'
p1375
sg8
(lp1376
sg10
S'Likely'
p1377
sg12
S'Isolated'
p1378
sg14
g76
sg16
I0
sg17
S'Low'
p1379
sg19
S'Liten tilleggsbelastning'
p1380
sg21
Nsg22
S'500'
p1381
sg24
S'500'
p1382
sg26
S'Isolerte faresoner'
p1383
sg28
Nsg29
g1331
sg31
S'5 - Svaert store'
p1384
sba(irunmatrix
M3Element
p1385
(dp1386
g3
Nsg4
S'Sannsynlig, Meget sannsynlig'
p1387
sg6
S'gray'
p1388
sg8
(lp1389
sg10
S'Likely'
p1390
sg12
S'Isolated'
p1391
sg14
g76
sg16
I0
sg17
S'Nat'
p1392
sg19
S'Naturlig utloest'
p1393
sg21
Nsg22
S'500'
p1394
sg24
S'600'
p1395
sg26
S'Isolerte faresoner'
p1396
sg28
Nsg29
g1331
sg31
S'5 - Svaert store'
p1397
sba(irunmatrix
M3Element
p1398
(dp1399
g3
Nsg4
S'Lite sannsynlig, Mulig'
p1400
sg6
S'white'
p1401
sg8
(lp1402
sg10
S'Possible'
p1403
sg12
S'Some'
p1404
sg14
g76
sg16
I0
sg17
S'High'
p1405
sg19
S'Stor tilleggsbelastning'
p1406
sg21
Nsg22
S'500'
p1407
sg24
S'700'
p1408
sg26
S'Noen bratte heng'
p1409
sg28
Nsg29
g1331
sg31
S'5 - Svaert store'
p1410
sba(irunmatrix
M3Element
p1411
(dp1412
g3
Nsg4
S'Lite sannsynlig, Mulig'
p1413
sg6
S'white'
p1414
sg8
(lp1415
sg10
S'Possible'
p1416
sg12
S'Some'
p1417
sg14
g76
sg16
I0
sg17
S'Low'
p1418
sg19
S'Liten tilleggsbelastning'
p1419
sg21
Nsg22
S'500'
p1420
sg24
S'800'
p1421
sg26
S'Noen bratte heng'
p1422
sg28
Nsg29
g1331
sg31
S'5 - Svaert store'
p1423
sba(irunmatrix
M3Element
p1424
(dp1425
g3
Nsg4
S'Lite sannsynlig, Mulig'
p1426
sg6
S'white'
p1427
sg8
(lp1428
sg10
S'Possible'
p1429
sg12
S'Some'
p1430
sg14
g76
sg16
I0
sg17
S'Nat'
p1431
sg19
S'Naturlig utloest'
p1432
sg21
Nsg22
S'500'
p1433
sg24
S'900'
p1434
sg26
S'Noen bratte heng'
p1435
sg28
Nsg29
g1331
sg31
S'5 - Svaert store'
p1436
sba(irunmatrix
M3Element
p1437
(dp1438
g3
Nsg4
S'Sannsynlig, Meget sannsynlig'
p1439
sg6
S'gray'
p1440
sg8
(lp1441
sg10
S'Likely'
p1442
sg12
S'Some'
p1443
sg14
g76
sg16
I0
sg17
S'High'
p1444
sg19
S'Stor tilleggsbelastning'
p1445
sg21
Nsg22
S'500'
p1446
sg24
S'1000'
p1447
sg26
S'Noen bratte heng'
p1448
sg28
Nsg29
g1331
sg31
S'5 - Svaert store'
p1449
sba(irunmatrix
M3Element
p1450
(dp1451
g3
Nsg4
S'Sannsynlig, Meget sannsynlig'
p1452
sg6
S'gray'
p1453
sg8
(lp1454
sg10
S'Likely'
p1455
sg12
S'Some'
p1456
sg14
g76
sg16
I0
sg17
S'Low'
p1457
sg19
S'Liten tilleggsbelastning'
p1458
sg21
Nsg22
S'500'
p1459
sg24
S'1100'
p1460
sg26
S'Noen bratte heng'
p1461
sg28
Nsg29
g1331
sg31
S'5 - Svaert store'
p1462
sba(irunmatrix
M3Element
p1463
(dp1464
g3
Nsg4
S'Sannsynlig, Meget sannsynlig'
p1465
sg6
S'white'
p1466
sg8
(lp1467
sg10
S'Likely'
p1468
sg12
S'Some'
p1469
sg14
g76
sg16
I0
sg17
S'Nat'
p1470
sg19
S'Naturlig utloest'
p1471
sg21
Nsg22
S'500'
p1472
sg24
S'1200'
p1473
sg26
S'Noen bratte heng'
p1474
sg28
Nsg29
g1331
sg31
S'5 - Svaert store'
p1475
sba(irunmatrix
M3Element
p1476
(dp1477
g3
Nsg4
S'Lite sannsynlig, Mulig'
p1478
sg6
S'gray'
p1479
sg8
(lp1480
sg10
S'Possible'
p1481
sg12
S'Many'
p1482
sg14
g76
sg16
I0
sg17
S'High'
p1483
sg19
S'Stor tilleggsbelastning'
p1484
sg21
Nsg22
S'500'
p1485
sg24
S'1300'
p1486
sg26
S'Mange bratte heng'
p1487
sg28
Nsg29
g1331
sg31
S'5 - Svaert store'
p1488
sba(irunmatrix
M3Element
p1489
(dp1490
g3
Nsg4
S'Lite sannsynlig, Mulig'
p1491
sg6
S'white'
p1492
sg8
(lp1493
sg10
S'Possible'
p1494
sg12
S'Many'
p1495
sg14
g76
sg16
I0
sg17
S'Low'
p1496
sg19
S'Liten tilleggsbelastning'
p1497
sg21
Nsg22
S'500'
p1498
sg24
S'1400'
p1499
sg26
S'Mange bratte heng'
p1500
sg28
Nsg29
g1331
sg31
S'5 - Svaert store'
p1501
sba(irunmatrix
M3Element
p1502
(dp1503
g3
Nsg4
S'Lite sannsynlig, Mulig'
p1504
sg6
S'gray'
p1505
sg8
(lp1506
sg10
S'Possible'
p1507
sg12
S'Many'
p1508
sg14
g76
sg16
I0
sg17
S'Nat'
p1509
sg19
S'Naturlig utloest'
p1510
sg21
Nsg22
S'500'
p1511
sg24
S'1500'
p1512
sg26
S'Mange bratte heng'
p1513
sg28
Nsg29
g1331
sg31
S'5 - Svaert store'
p1514
sba(irunmatrix
M3Element
p1515
(dp1516
g3
Nsg4
S'Sannsynlig, Meget sannsynlig'
p1517
sg6
S'gray'
p1518
sg8
(lp1519
sg10
S'Likely'
p1520
sg12
S'Many'
p1521
sg14
g76
sg16
I0
sg17
S'High'
p1522
sg19
S'Stor tilleggsbelastning'
p1523
sg21
Nsg22
S'500'
p1524
sg24
S'1600'
p1525
sg26
S'Mange bratte heng'
p1526
sg28
Nsg29
g1331
sg31
S'5 - Svaert store'
p1527
sba(irunmatrix
M3Element
p1528
(dp1529
g3
Nsg4
S'Sannsynlig, Meget sannsynlig'
p1530
sg6
S'white'
p1531
sg8
(lp1532
sg10
S'Likely'
p1533
sg12
S'Many'
p1534
sg14
g76
sg16
I0
sg17
S'Low'
p1535
sg19
S'Liten tilleggsbelastning'
p1536
sg21
Nsg22
S'500'
p1537
sg24
S'1700'
p1538
sg26
S'Mange bratte heng'
p1539
sg28
Nsg29
g1331
sg31
S'5 - Svaert store'
p1540
sba(irunmatrix
M3Element
p1541
(dp1542
g3
Nsg4
S'Sannsynlig, Meget sannsynlig'
p1543
sg6
S'white'
p1544
sg8
(lp1545
sg10
S'Likely'
p1546
sg12
S'Many'
p1547
sg14
g1234
sg16
I5
sg17
S'Nat'
p1548
sg19
S'Naturlig utloest'
p1549
sg21
Nsg22
S'500'
p1550
sg24
S'1800'
p1551
sg26
S'Mange bratte heng'
p1552
sg28
Nsg29
g1331
sg31
S'5 - Svaert store'
p1553
sba(irunmatrix
M3Element
p1554
(dp1555
g3
Nsg4
S'Lite sannsynlig, Mulig'
p1556
sg6
S'gray'
p1557
sg8
(lp1558
sg10
S'Possible'
p1559
sg12
S'Most'
p1560
sg14
g76
sg16
I0
sg17
S'High'
p1561
sg19
S'Stor tilleggsbelastning'
p1562
sg21
Nsg22
S'500'
p1563
sg24
S'1900'
p1564
sg26
S'De fleste bratte heng, Ogsaa i mindre bratt terreng'
p1565
sg28
Nsg29
g1331
sg31
S'5 - Svaert store'
p1566
sba(irunmatrix
M3Element
p1567
(dp1568
g3
Nsg4
S'Lite sannsynlig, Mulig'
p1569
sg6
S'gray'
p1570
sg8
(lp1571
sg10
S'Possible'
p1572
sg12
S'Most'
p1573
sg14
g76
sg16
I0
sg17
S'Low'
p1574
sg19
S'Liten tilleggsbelastning'
p1575
sg21
Nsg22
S'500'
p1576
sg24
S'2000'
p1577
sg26
S'De fleste bratte heng, Ogsaa i mindre bratt terreng'
p1578
sg28
Nsg29
g1331
sg31
S'5 - Svaert store'
p1579
sba(irunmatrix
M3Element
p1580
(dp1581
g3
Nsg4
S'Lite sannsynlig, Mulig'
p1582
sg6
S'gray'
p1583
sg8
(lp1584
sg10
S'Possible'
p1585
sg12
S'Most'
p1586
sg14
g76
sg16
I0
sg17
S'Nat'
p1587
sg19
S'Naturlig utloest'
p1588
sg21
Nsg22
S'500'
p1589
sg24
S'2100'
p1590
sg26
S'De fleste bratte heng, Ogsaa i mindre bratt terreng'
p1591
sg28
Nsg29
g1331
sg31
S'5 - Svaert store'
p1592
sba(irunmatrix
M3Element
p1593
(dp1594
g3
Nsg4
S'Sannsynlig, Meget sannsynlig'
p1595
sg6
S'gray'
p1596
sg8
(lp1597
sg10
S'Likely'
p1598
sg12
S'Most'
p1599
sg14
g76
sg16
I0
sg17
S'High'
p1600
sg19
S'Stor tilleggsbelastning'
p1601
sg21
Nsg22
S'500'
p1602
sg24
S'2200'
p1603
sg26
S'De fleste bratte heng, Ogsaa i mindre bratt terreng'
p1604
sg28
Nsg29
g1331
sg31
S'5 - Svaert store'
p1605
sba(irunmatrix
M3Element
p1606
(dp1607
g3
Nsg4
S'Sannsynlig, Meget sannsynlig'
p1608
sg6
S'gray'
p1609
sg8
(lp1610
sg10
S'Likely'
p1611
sg12
S'Most'
p1612
sg14
g76
sg16
I0
sg17
S'Low'
p1613
sg19
S'Liten tilleggsbelastning'
p1614
sg21
Nsg22
S'500'
p1615
sg24
S'2300'
p1616
sg26
S'De fleste bratte heng, Ogsaa i mindre bratt terreng'
p1617
sg28
Nsg29
g1331
sg31
S'5 - Svaert store'
p1618
sba(irunmatrix
M3Element
p1619
(dp1620
g3
Nsg4
S'Sannsynlig, Meget sannsynlig'
p1621
sg6
S'white'
p1622
sg8
(lp1623
sg10
S'Likely'
p1624
sg12
S'Most'
p1625
sg14
g76
sg16
I0
sg17
S'Nat'
p1626
sg19
S'Naturlig utloest'
p1627
sg21
Nsg22
S'500'
p1628
sg24
S'2400'
p1629
sg26
S'De fleste bratte heng, Ogsaa i mindre bratt terreng'
p1630
sg28
Nsg29
g1331
sg31
S'5 - Svaert store'
p1631
sba.