(lp0
(irunmatrix
M3Element
p1
(dp2
S'danger_level_average'
p3
NsS'probability'
p4
S'Lite sannsynlig, Mulig'
p5
sS'colour'
p6
S'white'
p7
sS'danger_level_list'
p8
(lp9
sS'label_probalility'
p10
S'Possible'
p11
sS'label_distribution'
p12
S'Isolated'
p13
sS'recomended_colour'
p14
S'#ccff66'
p15
sS'recomended_danger_level'
p16
I1
sS'label_trigger'
p17
S'High'
p18
sS'trigger'
p19
S'Stor tilleggsbelastning'
p20
sS'occurrences'
p21
NsS'y'
p22
S'100'
p23
sS'x'
p24
S'100'
p25
sS'distribution'
p26
S'Isolerte faresoner'
p27
sS'danger_level_standard_dev'
p28
NsS'label_size'
p29
S'1'
p30
sS'avalanche_size'
p31
S'1 - Harmloest'
p32
sba(irunmatrix
M3Element
p33
(dp34
g3
Nsg4
S'Lite sannsynlig, Mulig'
p35
sg6
S'white'
p36
sg8
(lp37
sg10
S'Possible'
p38
sg12
S'Isolated'
p39
sg14
g15
sg16
I1
sg17
S'Low'
p40
sg19
S'Liten tilleggsbelastning'
p41
sg21
Nsg22
S'100'
p42
sg24
S'200'
p43
sg26
S'Isolerte faresoner'
p44
sg28
Nsg29
g30
sg31
S'1 - Harmloest'
p45
sba(irunmatrix
M3Element
p46
(dp47
g3
Nsg4
S'Lite sannsynlig, Mulig'
p48
sg6
S'white'
p49
sg8
(lp50
sg10
S'Possible'
p51
sg12
S'Isolated'
p52
sg14
g15
sg16
I1
sg17
S'Nat'
p53
sg19
S'Naturlig utloest'
p54
sg21
Nsg22
S'100'
p55
sg24
S'300'
p56
sg26
S'Isolerte faresoner'
p57
sg28
Nsg29
g30
sg31
S'1 - Harmloest'
p58
sba(irunmatrix
M3Element
p59
(dp60
g3
Nsg4
S'Sannsynlig, Meget sannsynlig'
p61
sg6
S'gray'
p62
sg8
(lp63
sg10
S'Likely'
p64
sg12
S'Isolated'
p65
sg14
S'gray'
p66
sg16
I0
sg17
S'High'
p67
sg19
S'Stor tilleggsbelastning'
p68
sg21
Nsg22
S'100'
p69
sg24
S'400'
p70
sg26
S'Isolerte faresoner'
p71
sg28
Nsg29
g30
sg31
S'1 - Harmloest'
p72
sba(irunmatrix
M3Element
p73
(dp74
g3
Nsg4
S'Sannsynlig, Meget sannsynlig'
p75
sg6
S'gray'
p76
sg8
(lp77
sg10
S'Likely'
p78
sg12
S'Isolated'
p79
sg14
g66
sg16
I0
sg17
S'Low'
p80
sg19
S'Liten tilleggsbelastning'
p81
sg21
Nsg22
S'100'
p82
sg24
S'500'
p83
sg26
S'Isolerte faresoner'
p84
sg28
Nsg29
g30
sg31
S'1 - Harmloest'
p85
sba(irunmatrix
M3Element
p86
(dp87
g3
Nsg4
S'Sannsynlig, Meget sannsynlig'
p88
sg6
S'gray'
p89
sg8
(lp90
sg10
S'Likely'
p91
sg12
S'Isolated'
p92
sg14
g66
sg16
I0
sg17
S'Nat'
p93
sg19
S'Naturlig utloest'
p94
sg21
Nsg22
S'100'
p95
sg24
S'600'
p96
sg26
S'Isolerte faresoner'
p97
sg28
Nsg29
g30
sg31
S'1 - Harmloest'
p98
sba(irunmatrix
M3Element
p99
(dp100
g3
Nsg4
S'Lite sannsynlig, Mulig'
p101
sg6
S'white'
p102
sg8
(lp103
sg10
S'Possible'
p104
sg12
S'Some'
p105
sg14
g15
sg16
I1
sg17
S'High'
p106
sg19
S'Stor tilleggsbelastning'
p107
sg21
Nsg22
S'100'
p108
sg24
S'700'
p109
sg26
S'Noen bratte heng'
p110
sg28
Nsg29
g30
sg31
S'1 - Harmloest'
p111
sba(irunmatrix
M3Element
p112
(dp113
g3
Nsg4
S'Lite sannsynlig, Mulig'
p114
sg6
S'white'
p115
sg8
(lp116
sg10
S'Possible'
p117
sg12
S'Some'
p118
sg14
g15
sg16
I1
sg17
S'Low'
p119
sg19
S'Liten tilleggsbelastning'
p120
sg21
Nsg22
S'100'
p121
sg24
S'800'
p122
sg26
S'Noen bratte heng'
p123
sg28
Nsg29
g30
sg31
S'1 - Harmloest'
p124
sba(irunmatrix
M3Element
p125
(dp126
g3
Nsg4
S'Lite sannsynlig, Mulig'
p127
sg6
S'white'
p128
sg8
(lp129
sg10
S'Possible'
p130
sg12
S'Some'
p131
sg14
g15
sg16
I1
sg17
S'Nat'
p132
sg19
S'Naturlig utloest'
p133
sg21
Nsg22
S'100'
p134
sg24
S'900'
p135
sg26
S'Noen bratte heng'
p136
sg28
Nsg29
g30
sg31
S'1 - Harmloest'
p137
sba(irunmatrix
M3Element
p138
(dp139
g3
Nsg4
S'Sannsynlig, Meget sannsynlig'
p140
sg6
S'gray'
p141
sg8
(lp142
sg10
S'Likely'
p143
sg12
S'Some'
p144
sg14
g66
sg16
I0
sg17
S'High'
p145
sg19
S'Stor tilleggsbelastning'
p146
sg21
Nsg22
S'100'
p147
sg24
S'1000'
p148
sg26
S'Noen bratte heng'
p149
sg28
Nsg29
g30
sg31
S'1 - Harmloest'
p150
sba(irunmatrix
M3Element
p151
(dp152
g3
Nsg4
S'Sannsynlig, Meget sannsynlig'
p153
sg6
S'gray'
p154
sg8
(lp155
sg10
S'Likely'
p156
sg12
S'Some'
p157
sg14
g66
sg16
I0
sg17
S'Low'
p158
sg19
S'Liten tilleggsbelastning'
p159
sg21
Nsg22
S'100'
p160
sg24
S'1100'
p161
sg26
S'Noen bratte heng'
p162
sg28
Nsg29
g30
sg31
S'1 - Harmloest'
p163
sba(irunmatrix
M3Element
p164
(dp165
g3
Nsg4
S'Sannsynlig, Meget sannsynlig'
p166
sg6
S'white'
p167
sg8
(lp168
sg10
S'Likely'
p169
sg12
S'Some'
p170
sg14
g15
sg16
I1
sg17
S'Nat'
p171
sg19
S'Naturlig utloest'
p172
sg21
Nsg22
S'100'
p173
sg24
S'1200'
p174
sg26
S'Noen bratte heng'
p175
sg28
Nsg29
g30
sg31
S'1 - Harmloest'
p176
sba(irunmatrix
M3Element
p177
(dp178
g3
Nsg4
S'Lite sannsynlig, Mulig'
p179
sg6
S'gray'
p180
sg8
(lp181
sg10
S'Possible'
p182
sg12
S'Many'
p183
sg14
g66
sg16
I0
sg17
S'High'
p184
sg19
S'Stor tilleggsbelastning'
p185
sg21
Nsg22
S'100'
p186
sg24
S'1300'
p187
sg26
S'Mange bratte heng'
p188
sg28
Nsg29
g30
sg31
S'1 - Harmloest'
p189
sba(irunmatrix
M3Element
p190
(dp191
g3
Nsg4
S'Lite sannsynlig, Mulig'
p192
sg6
S'white'
p193
sg8
(lp194
sg10
S'Possible'
p195
sg12
S'Many'
p196
sg14
g15
sg16
I1
sg17
S'Low'
p197
sg19
S'Liten tilleggsbelastning'
p198
sg21
Nsg22
S'100'
p199
sg24
S'1400'
p200
sg26
S'Mange bratte heng'
p201
sg28
Nsg29
g30
sg31
S'1 - Harmloest'
p202
sba(irunmatrix
M3Element
p203
(dp204
g3
Nsg4
S'Lite sannsynlig, Mulig'
p205
sg6
S'gray'
p206
sg8
(lp207
sg10
S'Possible'
p208
sg12
S'Many'
p209
sg14
g66
sg16
I0
sg17
S'Nat'
p210
sg19
S'Naturlig utloest'
p211
sg21
Nsg22
S'100'
p212
sg24
S'1500'
p213
sg26
S'Mange bratte heng'
p214
sg28
Nsg29
g30
sg31
S'1 - Harmloest'
p215
sba(irunmatrix
M3Element
p216
(dp217
g3
Nsg4
S'Sannsynlig, Meget sannsynlig'
p218
sg6
S'gray'
p219
sg8
(lp220
sg10
S'Likely'
p221
sg12
S'Many'
p222
sg14
g66
sg16
I0
sg17
S'High'
p223
sg19
S'Stor tilleggsbelastning'
p224
sg21
Nsg22
S'100'
p225
sg24
S'1600'
p226
sg26
S'Mange bratte heng'
p227
sg28
Nsg29
g30
sg31
S'1 - Harmloest'
p228
sba(irunmatrix
M3Element
p229
(dp230
g3
Nsg4
S'Sannsynlig, Meget sannsynlig'
p231
sg6
S'white'
p232
sg8
(lp233
sg10
S'Likely'
p234
sg12
S'Many'
p235
sg14
S'#ffff00'
p236
sg16
I2
sg17
S'Low'
p237
sg19
S'Liten tilleggsbelastning'
p238
sg21
Nsg22
S'100'
p239
sg24
S'1700'
p240
sg26
S'Mange bratte heng'
p241
sg28
Nsg29
g30
sg31
S'1 - Harmloest'
p242
sba(irunmatrix
M3Element
p243
(dp244
g3
Nsg4
S'Sannsynlig, Meget sannsynlig'
p245
sg6
S'white'
p246
sg8
(lp247
sg10
S'Likely'
p248
sg12
S'Many'
p249
sg14
g236
sg16
I2
sg17
S'Nat'
p250
sg19
S'Naturlig utloest'
p251
sg21
Nsg22
S'100'
p252
sg24
S'1800'
p253
sg26
S'Mange bratte heng'
p254
sg28
Nsg29
g30
sg31
S'1 - Harmloest'
p255
sba(irunmatrix
M3Element
p256
(dp257
g3
Nsg4
S'Lite sannsynlig, Mulig'
p258
sg6
S'gray'
p259
sg8
(lp260
sg10
S'Possible'
p261
sg12
S'Most'
p262
sg14
g66
sg16
I0
sg17
S'High'
p263
sg19
S'Stor tilleggsbelastning'
p264
sg21
Nsg22
S'100'
p265
sg24
S'1900'
p266
sg26
S'De fleste bratte heng, Ogsaa i mindre bratt terreng'
p267
sg28
Nsg29
g30
sg31
S'1 - Harmloest'
p268
sba(irunmatrix
M3Element
p269
(dp270
g3
Nsg4
S'Lite sannsynlig, Mulig'
p271
sg6
S'gray'
p272
sg8
(lp273
sg10
S'Possible'
p274
sg12
S'Most'
p275
sg14
g66
sg16
I0
sg17
S'Low'
p276
sg19
S'Liten tilleggsbelastning'
p277
sg21
Nsg22
S'100'
p278
sg24
S'2000'
p279
sg26
S'De fleste bratte heng, Ogsaa i mindre bratt terreng'
p280
sg28
Nsg29
g30
sg31
S'1 - Harmloest'
p281
sba(irunmatrix
M3Element
p282
(dp283
g3
Nsg4
S'Lite sannsynlig, Mulig'
p284
sg6
S'gray'
p285
sg8
(lp286
sg10
S'Possible'
p287
sg12
S'Most'
p288
sg14
g66
sg16
I0
sg17
S'Nat'
p289
sg19
S'Naturlig utloest'
p290
sg21
Nsg22
S'100'
p291
sg24
S'2100'
p292
sg26
S'De fleste bratte heng, Ogsaa i mindre bratt terreng'
p293
sg28
Nsg29
g30
sg31
S'1 - Harmloest'
p294
sba(irunmatrix
M3Element
p295
(dp296
g3
Nsg4
S'Sannsynlig, Meget sannsynlig'
p297
sg6
S'gray'
p298
sg8
(lp299
sg10
S'Likely'
p300
sg12
S'Most'
p301
sg14
g66
sg16
I0
sg17
S'High'
p302
sg19
S'Stor tilleggsbelastning'
p303
sg21
Nsg22
S'100'
p304
sg24
S'2200'
p305
sg26
S'De fleste bratte heng, Ogsaa i mindre bratt terreng'
p306
sg28
Nsg29
g30
sg31
S'1 - Harmloest'
p307
sba(irunmatrix
M3Element
p308
(dp309
g3
Nsg4
S'Sannsynlig, Meget sannsynlig'
p310
sg6
S'gray'
p311
sg8
(lp312
sg10
S'Likely'
p313
sg12
S'Most'
p314
sg14
g66
sg16
I0
sg17
S'Low'
p315
sg19
S'Liten tilleggsbelastning'
p316
sg21
Nsg22
S'100'
p317
sg24
S'2300'
p318
sg26
S'De fleste bratte heng, Ogsaa i mindre bratt terreng'
p319
sg28
Nsg29
g30
sg31
S'1 - Harmloest'
p320
sba(irunmatrix
M3Element
p321
(dp322
g3
Nsg4
S'Sannsynlig, Meget sannsynlig'
p323
sg6
S'white'
p324
sg8
(lp325
sg10
S'Likely'
p326
sg12
S'Most'
p327
sg14
g66
sg16
I0
sg17
S'Nat'
p328
sg19
S'Naturlig utloest'
p329
sg21
Nsg22
S'100'
p330
sg24
S'2400'
p331
sg26
S'De fleste bratte heng, Ogsaa i mindre bratt terreng'
p332
sg28
Nsg29
S'2'
p333
sg31
S'1 - Harmloest'
p334
sba(irunmatrix
M3Element
p335
(dp336
g3
F1.0
sg4
S'Lite sannsynlig, Mulig'
p337
sg6
S'#ccff66'
p338
sg8
(lp339
I1
aI1
asg10
S'Possible'
p340
sg12
S'Isolated'
p341
sg14
g15
sg16
I1
sg17
S'High'
p342
sg19
S'Stor tilleggsbelastning'
p343
sg21
I2
sg22
S'200'
p344
sg24
S'100'
p345
sg26
S'Isolerte faresoner'
p346
sg28
cnumpy.core.multiarray
scalar
p347
(cnumpy
dtype
p348
(S'f8'
p349
I0
I1
tp350
Rp351
(I3
S'<'
p352
NNNI-1
I-1
I0
tp353
bS'\x00\x00\x00\x00\x00\x00\x00\x00'
p354
tp355
Rp356
sg29
g333
sg31
S'2 - Smaa'
p357
sba(irunmatrix
M3Element
p358
(dp359
g3
Nsg4
S'Lite sannsynlig, Mulig'
p360
sg6
S'white'
p361
sg8
(lp362
sg10
S'Possible'
p363
sg12
S'Isolated'
p364
sg14
g15
sg16
I1
sg17
S'Low'
p365
sg19
S'Liten tilleggsbelastning'
p366
sg21
Nsg22
S'200'
p367
sg24
S'200'
p368
sg26
S'Isolerte faresoner'
p369
sg28
Nsg29
g333
sg31
S'2 - Smaa'
p370
sba(irunmatrix
M3Element
p371
(dp372
g3
Nsg4
S'Lite sannsynlig, Mulig'
p373
sg6
S'white'
p374
sg8
(lp375
sg10
S'Possible'
p376
sg12
S'Isolated'
p377
sg14
g15
sg16
I1
sg17
S'Nat'
p378
sg19
S'Naturlig utloest'
p379
sg21
Nsg22
S'200'
p380
sg24
S'300'
p381
sg26
S'Isolerte faresoner'
p382
sg28
Nsg29
g333
sg31
S'2 - Smaa'
p383
sba(irunmatrix
M3Element
p384
(dp385
g3
Nsg4
S'Sannsynlig, Meget sannsynlig'
p386
sg6
S'gray'
p387
sg8
(lp388
sg10
S'Likely'
p389
sg12
S'Isolated'
p390
sg14
g66
sg16
I0
sg17
S'High'
p391
sg19
S'Stor tilleggsbelastning'
p392
sg21
Nsg22
S'200'
p393
sg24
S'400'
p394
sg26
S'Isolerte faresoner'
p395
sg28
Nsg29
g333
sg31
S'2 - Smaa'
p396
sba(irunmatrix
M3Element
p397
(dp398
g3
Nsg4
S'Sannsynlig, Meget sannsynlig'
p399
sg6
S'gray'
p400
sg8
(lp401
sg10
S'Likely'
p402
sg12
S'Isolated'
p403
sg14
g66
sg16
I0
sg17
S'Low'
p404
sg19
S'Liten tilleggsbelastning'
p405
sg21
Nsg22
S'200'
p406
sg24
S'500'
p407
sg26
S'Isolerte faresoner'
p408
sg28
Nsg29
g333
sg31
S'2 - Smaa'
p409
sba(irunmatrix
M3Element
p410
(dp411
g3
Nsg4
S'Sannsynlig, Meget sannsynlig'
p412
sg6
S'gray'
p413
sg8
(lp414
sg10
S'Likely'
p415
sg12
S'Isolated'
p416
sg14
g66
sg16
I0
sg17
S'Nat'
p417
sg19
S'Naturlig utloest'
p418
sg21
Nsg22
S'200'
p419
sg24
S'600'
p420
sg26
S'Isolerte faresoner'
p421
sg28
Nsg29
g333
sg31
S'2 - Smaa'
p422
sba(irunmatrix
M3Element
p423
(dp424
g3
Nsg4
S'Lite sannsynlig, Mulig'
p425
sg6
S'white'
p426
sg8
(lp427
sg10
S'Possible'
p428
sg12
S'Some'
p429
sg14
g236
sg16
I2
sg17
S'High'
p430
sg19
S'Stor tilleggsbelastning'
p431
sg21
Nsg22
S'200'
p432
sg24
S'700'
p433
sg26
S'Noen bratte heng'
p434
sg28
Nsg29
g333
sg31
S'2 - Smaa'
p435
sba(irunmatrix
M3Element
p436
(dp437
g3
F2.0
sg4
S'Lite sannsynlig, Mulig'
p438
sg6
S'#ffff00'
p439
sg8
(lp440
I2
aI2
aI2
aI2
aI2
aI2
aI2
aI2
aI2
aI2
aI2
aI2
aI2
aI2
aI2
aI2
aI2
aI2
aI2
aI2
aI2
asg10
S'Possible'
p441
sg12
S'Some'
p442
sg14
g236
sg16
I2
sg17
S'Low'
p443
sg19
S'Liten tilleggsbelastning'
p444
sg21
I21
sg22
S'200'
p445
sg24
S'800'
p446
sg26
S'Noen bratte heng'
p447
sg28
g347
(g351
S'\x00\x00\x00\x00\x00\x00\x00\x00'
p448
tp449
Rp450
sg29
g333
sg31
S'2 - Smaa'
p451
sba(irunmatrix
M3Element
p452
(dp453
g3
F2.0
sg4
S'Lite sannsynlig, Mulig'
p454
sg6
g439
sg8
(lp455
I2
aI2
aI2
aI2
aI2
aI2
aI2
aI2
aI2
aI2
aI2
aI2
aI2
aI2
aI2
aI2
aI2
aI2
asg10
S'Possible'
p456
sg12
S'Some'
p457
sg14
g236
sg16
I2
sg17
S'Nat'
p458
sg19
S'Naturlig utloest'
p459
sg21
I18
sg22
S'200'
p460
sg24
S'900'
p461
sg26
S'Noen bratte heng'
p462
sg28
g347
(g351
S'\x00\x00\x00\x00\x00\x00\x00\x00'
p463
tp464
Rp465
sg29
g333
sg31
S'2 - Smaa'
p466
sba(irunmatrix
M3Element
p467
(dp468
g3
Nsg4
S'Sannsynlig, Meget sannsynlig'
p469
sg6
S'gray'
p470
sg8
(lp471
sg10
S'Likely'
p472
sg12
S'Some'
p473
sg14
g66
sg16
I0
sg17
S'High'
p474
sg19
S'Stor tilleggsbelastning'
p475
sg21
Nsg22
S'200'
p476
sg24
S'1000'
p477
sg26
S'Noen bratte heng'
p478
sg28
Nsg29
g333
sg31
S'2 - Smaa'
p479
sba(irunmatrix
M3Element
p480
(dp481
g3
Nsg4
S'Sannsynlig, Meget sannsynlig'
p482
sg6
S'gray'
p483
sg8
(lp484
sg10
S'Likely'
p485
sg12
S'Some'
p486
sg14
g66
sg16
I0
sg17
S'Low'
p487
sg19
S'Liten tilleggsbelastning'
p488
sg21
Nsg22
S'200'
p489
sg24
S'1100'
p490
sg26
S'Noen bratte heng'
p491
sg28
Nsg29
g333
sg31
S'2 - Smaa'
p492
sba(irunmatrix
M3Element
p493
(dp494
g3
F2.0
sg4
S'Sannsynlig, Meget sannsynlig'
p495
sg6
g439
sg8
(lp496
I2
aI2
asg10
S'Likely'
p497
sg12
S'Some'
p498
sg14
S'#ff9900'
p499
sg16
I3
sg17
S'Nat'
p500
sg19
S'Naturlig utloest'
p501
sg21
I2
sg22
S'200'
p502
sg24
S'1200'
p503
sg26
S'Noen bratte heng'
p504
sg28
g347
(g351
S'\x00\x00\x00\x00\x00\x00\x00\x00'
p505
tp506
Rp507
sg29
g333
sg31
S'2 - Smaa'
p508
sba(irunmatrix
M3Element
p509
(dp510
g3
Nsg4
S'Lite sannsynlig, Mulig'
p511
sg6
S'gray'
p512
sg8
(lp513
sg10
S'Possible'
p514
sg12
S'Many'
p515
sg14
g66
sg16
I0
sg17
S'High'
p516
sg19
S'Stor tilleggsbelastning'
p517
sg21
Nsg22
S'200'
p518
sg24
S'1300'
p519
sg26
S'Mange bratte heng'
p520
sg28
Nsg29
g333
sg31
S'2 - Smaa'
p521
sba(irunmatrix
M3Element
p522
(dp523
g3
Nsg4
S'Lite sannsynlig, Mulig'
p524
sg6
S'white'
p525
sg8
(lp526
sg10
S'Possible'
p527
sg12
S'Many'
p528
sg14
g499
sg16
I3
sg17
S'Low'
p529
sg19
S'Liten tilleggsbelastning'
p530
sg21
Nsg22
S'200'
p531
sg24
S'1400'
p532
sg26
S'Mange bratte heng'
p533
sg28
Nsg29
g333
sg31
S'2 - Smaa'
p534
sba(irunmatrix
M3Element
p535
(dp536
g3
Nsg4
S'Lite sannsynlig, Mulig'
p537
sg6
S'gray'
p538
sg8
(lp539
sg10
S'Possible'
p540
sg12
S'Many'
p541
sg14
g66
sg16
I0
sg17
S'Nat'
p542
sg19
S'Naturlig utloest'
p543
sg21
Nsg22
S'200'
p544
sg24
S'1500'
p545
sg26
S'Mange bratte heng'
p546
sg28
Nsg29
g333
sg31
S'2 - Smaa'
p547
sba(irunmatrix
M3Element
p548
(dp549
g3
Nsg4
S'Sannsynlig, Meget sannsynlig'
p550
sg6
S'gray'
p551
sg8
(lp552
sg10
S'Likely'
p553
sg12
S'Many'
p554
sg14
g66
sg16
I0
sg17
S'High'
p555
sg19
S'Stor tilleggsbelastning'
p556
sg21
Nsg22
S'200'
p557
sg24
S'1600'
p558
sg26
S'Mange bratte heng'
p559
sg28
Nsg29
g333
sg31
S'2 - Smaa'
p560
sba(irunmatrix
M3Element
p561
(dp562
g3
Nsg4
S'Sannsynlig, Meget sannsynlig'
p563
sg6
S'white'
p564
sg8
(lp565
sg10
S'Likely'
p566
sg12
S'Many'
p567
sg14
S'#ff0000'
p568
sg16
I4
sg17
S'Low'
p569
sg19
S'Liten tilleggsbelastning'
p570
sg21
Nsg22
S'200'
p571
sg24
S'1700'
p572
sg26
S'Mange bratte heng'
p573
sg28
Nsg29
g333
sg31
S'2 - Smaa'
p574
sba(irunmatrix
M3Element
p575
(dp576
g3
Nsg4
S'Sannsynlig, Meget sannsynlig'
p577
sg6
S'white'
p578
sg8
(lp579
sg10
S'Likely'
p580
sg12
S'Many'
p581
sg14
g568
sg16
I4
sg17
S'Nat'
p582
sg19
S'Naturlig utloest'
p583
sg21
Nsg22
S'200'
p584
sg24
S'1800'
p585
sg26
S'Mange bratte heng'
p586
sg28
Nsg29
g333
sg31
S'2 - Smaa'
p587
sba(irunmatrix
M3Element
p588
(dp589
g3
Nsg4
S'Lite sannsynlig, Mulig'
p590
sg6
S'gray'
p591
sg8
(lp592
sg10
S'Possible'
p593
sg12
S'Most'
p594
sg14
g66
sg16
I0
sg17
S'High'
p595
sg19
S'Stor tilleggsbelastning'
p596
sg21
Nsg22
S'200'
p597
sg24
S'1900'
p598
sg26
S'De fleste bratte heng, Ogsaa i mindre bratt terreng'
p599
sg28
Nsg29
g333
sg31
S'2 - Smaa'
p600
sba(irunmatrix
M3Element
p601
(dp602
g3
Nsg4
S'Lite sannsynlig, Mulig'
p603
sg6
S'gray'
p604
sg8
(lp605
sg10
S'Possible'
p606
sg12
S'Most'
p607
sg14
g66
sg16
I0
sg17
S'Low'
p608
sg19
S'Liten tilleggsbelastning'
p609
sg21
Nsg22
S'200'
p610
sg24
S'2000'
p611
sg26
S'De fleste bratte heng, Ogsaa i mindre bratt terreng'
p612
sg28
Nsg29
g333
sg31
S'2 - Smaa'
p613
sba(irunmatrix
M3Element
p614
(dp615
g3
Nsg4
S'Lite sannsynlig, Mulig'
p616
sg6
S'gray'
p617
sg8
(lp618
sg10
S'Possible'
p619
sg12
S'Most'
p620
sg14
g66
sg16
I0
sg17
S'Nat'
p621
sg19
S'Naturlig utloest'
p622
sg21
Nsg22
S'200'
p623
sg24
S'2100'
p624
sg26
S'De fleste bratte heng, Ogsaa i mindre bratt terreng'
p625
sg28
Nsg29
g333
sg31
S'2 - Smaa'
p626
sba(irunmatrix
M3Element
p627
(dp628
g3
Nsg4
S'Sannsynlig, Meget sannsynlig'
p629
sg6
S'gray'
p630
sg8
(lp631
sg10
S'Likely'
p632
sg12
S'Most'
p633
sg14
g66
sg16
I0
sg17
S'High'
p634
sg19
S'Stor tilleggsbelastning'
p635
sg21
Nsg22
S'200'
p636
sg24
S'2200'
p637
sg26
S'De fleste bratte heng, Ogsaa i mindre bratt terreng'
p638
sg28
Nsg29
g333
sg31
S'2 - Smaa'
p639
sba(irunmatrix
M3Element
p640
(dp641
g3
Nsg4
S'Sannsynlig, Meget sannsynlig'
p642
sg6
S'gray'
p643
sg8
(lp644
sg10
S'Likely'
p645
sg12
S'Most'
p646
sg14
g66
sg16
I0
sg17
S'Low'
p647
sg19
S'Liten tilleggsbelastning'
p648
sg21
Nsg22
S'200'
p649
sg24
S'2300'
p650
sg26
S'De fleste bratte heng, Ogsaa i mindre bratt terreng'
p651
sg28
Nsg29
g333
sg31
S'2 - Smaa'
p652
sba(irunmatrix
M3Element
p653
(dp654
g3
Nsg4
S'Sannsynlig, Meget sannsynlig'
p655
sg6
S'white'
p656
sg8
(lp657
sg10
S'Likely'
p658
sg12
S'Most'
p659
sg14
g66
sg16
I0
sg17
S'Nat'
p660
sg19
S'Naturlig utloest'
p661
sg21
Nsg22
S'200'
p662
sg24
S'2400'
p663
sg26
S'De fleste bratte heng, Ogsaa i mindre bratt terreng'
p664
sg28
Nsg29
g333
sg31
S'2 - Smaa'
p665
sba(irunmatrix
M3Element
p666
(dp667
g3
Nsg4
S'Lite sannsynlig, Mulig'
p668
sg6
S'white'
p669
sg8
(lp670
sg10
S'Possible'
p671
sg12
S'Isolated'
p672
sg14
g15
sg16
I1
sg17
S'High'
p673
sg19
S'Stor tilleggsbelastning'
p674
sg21
Nsg22
S'300'
p675
sg24
S'100'
p676
sg26
S'Isolerte faresoner'
p677
sg28
Nsg29
S'3'
p678
sg31
S'3 - Middels'
p679
sba(irunmatrix
M3Element
p680
(dp681
g3
Nsg4
S'Lite sannsynlig, Mulig'
p682
sg6
S'white'
p683
sg8
(lp684
sg10
S'Possible'
p685
sg12
S'Isolated'
p686
sg14
g236
sg16
I2
sg17
S'Low'
p687
sg19
S'Liten tilleggsbelastning'
p688
sg21
Nsg22
S'300'
p689
sg24
S'200'
p690
sg26
S'Isolerte faresoner'
p691
sg28
Nsg29
g678
sg31
S'3 - Middels'
p692
sba(irunmatrix
M3Element
p693
(dp694
g3
Nsg4
S'Lite sannsynlig, Mulig'
p695
sg6
S'white'
p696
sg8
(lp697
sg10
S'Possible'
p698
sg12
S'Isolated'
p699
sg14
g236
sg16
I2
sg17
S'Nat'
p700
sg19
S'Naturlig utloest'
p701
sg21
Nsg22
S'300'
p702
sg24
S'300'
p703
sg26
S'Isolerte faresoner'
p704
sg28
Nsg29
g678
sg31
S'3 - Middels'
p705
sba(irunmatrix
M3Element
p706
(dp707
g3
Nsg4
S'Sannsynlig, Meget sannsynlig'
p708
sg6
S'gray'
p709
sg8
(lp710
sg10
S'Likely'
p711
sg12
S'Isolated'
p712
sg14
g66
sg16
I0
sg17
S'High'
p713
sg19
S'Stor tilleggsbelastning'
p714
sg21
Nsg22
S'300'
p715
sg24
S'400'
p716
sg26
S'Isolerte faresoner'
p717
sg28
Nsg29
g678
sg31
S'3 - Middels'
p718
sba(irunmatrix
M3Element
p719
(dp720
g3
Nsg4
S'Sannsynlig, Meget sannsynlig'
p721
sg6
S'gray'
p722
sg8
(lp723
sg10
S'Likely'
p724
sg12
S'Isolated'
p725
sg14
g66
sg16
I0
sg17
S'Low'
p726
sg19
S'Liten tilleggsbelastning'
p727
sg21
Nsg22
S'300'
p728
sg24
S'500'
p729
sg26
S'Isolerte faresoner'
p730
sg28
Nsg29
g678
sg31
S'3 - Middels'
p731
sba(irunmatrix
M3Element
p732
(dp733
g3
Nsg4
S'Sannsynlig, Meget sannsynlig'
p734
sg6
S'gray'
p735
sg8
(lp736
sg10
S'Likely'
p737
sg12
S'Isolated'
p738
sg14
g66
sg16
I0
sg17
S'Nat'
p739
sg19
S'Naturlig utloest'
p740
sg21
Nsg22
S'300'
p741
sg24
S'600'
p742
sg26
S'Isolerte faresoner'
p743
sg28
Nsg29
g678
sg31
S'3 - Middels'
p744
sba(irunmatrix
M3Element
p745
(dp746
g3
F2.0
sg4
S'Lite sannsynlig, Mulig'
p747
sg6
g439
sg8
(lp748
I2
asg10
S'Possible'
p749
sg12
S'Some'
p750
sg14
g236
sg16
I2
sg17
S'High'
p751
sg19
S'Stor tilleggsbelastning'
p752
sg21
I1
sg22
S'300'
p753
sg24
S'700'
p754
sg26
S'Noen bratte heng'
p755
sg28
g347
(g351
S'\x00\x00\x00\x00\x00\x00\x00\x00'
p756
tp757
Rp758
sg29
g678
sg31
S'3 - Middels'
p759
sba(irunmatrix
M3Element
p760
(dp761
g3
F3.0
sg4
S'Lite sannsynlig, Mulig'
p762
sg6
S'#ff9900'
p763
sg8
(lp764
I3
aI3
aI3
aI3
aI3
aI3
asg10
S'Possible'
p765
sg12
S'Some'
p766
sg14
g499
sg16
I3
sg17
S'Low'
p767
sg19
S'Liten tilleggsbelastning'
p768
sg21
I6
sg22
S'300'
p769
sg24
S'800'
p770
sg26
S'Noen bratte heng'
p771
sg28
g347
(g351
S'\x00\x00\x00\x00\x00\x00\x00\x00'
p772
tp773
Rp774
sg29
g678
sg31
S'3 - Middels'
p775
sba(irunmatrix
M3Element
p776
(dp777
g3
Nsg4
S'Lite sannsynlig, Mulig'
p778
sg6
S'white'
p779
sg8
(lp780
sg10
S'Possible'
p781
sg12
S'Some'
p782
sg14
g499
sg16
I3
sg17
S'Nat'
p783
sg19
S'Naturlig utloest'
p784
sg21
Nsg22
S'300'
p785
sg24
S'900'
p786
sg26
S'Noen bratte heng'
p787
sg28
Nsg29
g678
sg31
S'3 - Middels'
p788
sba(irunmatrix
M3Element
p789
(dp790
g3
Nsg4
S'Sannsynlig, Meget sannsynlig'
p791
sg6
S'gray'
p792
sg8
(lp793
sg10
S'Likely'
p794
sg12
S'Some'
p795
sg14
g66
sg16
I0
sg17
S'High'
p796
sg19
S'Stor tilleggsbelastning'
p797
sg21
Nsg22
S'300'
p798
sg24
S'1000'
p799
sg26
S'Noen bratte heng'
p800
sg28
Nsg29
g678
sg31
S'3 - Middels'
p801
sba(irunmatrix
M3Element
p802
(dp803
g3
Nsg4
S'Sannsynlig, Meget sannsynlig'
p804
sg6
S'gray'
p805
sg8
(lp806
sg10
S'Likely'
p807
sg12
S'Some'
p808
sg14
g66
sg16
I0
sg17
S'Low'
p809
sg19
S'Liten tilleggsbelastning'
p810
sg21
Nsg22
S'300'
p811
sg24
S'1100'
p812
sg26
S'Noen bratte heng'
p813
sg28
Nsg29
g678
sg31
S'3 - Middels'
p814
sba(irunmatrix
M3Element
p815
(dp816
g3
Nsg4
S'Sannsynlig, Meget sannsynlig'
p817
sg6
S'white'
p818
sg8
(lp819
sg10
S'Likely'
p820
sg12
S'Some'
p821
sg14
g568
sg16
I4
sg17
S'Nat'
p822
sg19
S'Naturlig utloest'
p823
sg21
Nsg22
S'300'
p824
sg24
S'1200'
p825
sg26
S'Noen bratte heng'
p826
sg28
Nsg29
g678
sg31
S'3 - Middels'
p827
sba(irunmatrix
M3Element
p828
(dp829
g3
Nsg4
S'Lite sannsynlig, Mulig'
p830
sg6
S'gray'
p831
sg8
(lp832
sg10
S'Possible'
p833
sg12
S'Many'
p834
sg14
g66
sg16
I0
sg17
S'High'
p835
sg19
S'Stor tilleggsbelastning'
p836
sg21
Nsg22
S'300'
p837
sg24
S'1300'
p838
sg26
S'Mange bratte heng'
p839
sg28
Nsg29
g678
sg31
S'3 - Middels'
p840
sba(irunmatrix
M3Element
p841
(dp842
g3
Nsg4
S'Lite sannsynlig, Mulig'
p843
sg6
S'white'
p844
sg8
(lp845
sg10
S'Possible'
p846
sg12
S'Many'
p847
sg14
g568
sg16
I4
sg17
S'Low'
p848
sg19
S'Liten tilleggsbelastning'
p849
sg21
Nsg22
S'300'
p850
sg24
S'1400'
p851
sg26
S'Mange bratte heng'
p852
sg28
Nsg29
g678
sg31
S'3 - Middels'
p853
sba(irunmatrix
M3Element
p854
(dp855
g3
Nsg4
S'Lite sannsynlig, Mulig'
p856
sg6
S'gray'
p857
sg8
(lp858
sg10
S'Possible'
p859
sg12
S'Many'
p860
sg14
g66
sg16
I0
sg17
S'Nat'
p861
sg19
S'Naturlig utloest'
p862
sg21
Nsg22
S'300'
p863
sg24
S'1500'
p864
sg26
S'Mange bratte heng'
p865
sg28
Nsg29
g678
sg31
S'3 - Middels'
p866
sba(irunmatrix
M3Element
p867
(dp868
g3
Nsg4
S'Sannsynlig, Meget sannsynlig'
p869
sg6
S'gray'
p870
sg8
(lp871
sg10
S'Likely'
p872
sg12
S'Many'
p873
sg14
g66
sg16
I0
sg17
S'High'
p874
sg19
S'Stor tilleggsbelastning'
p875
sg21
Nsg22
S'300'
p876
sg24
S'1600'
p877
sg26
S'Mange bratte heng'
p878
sg28
Nsg29
g678
sg31
S'3 - Middels'
p879
sba(irunmatrix
M3Element
p880
(dp881
g3
Nsg4
S'Sannsynlig, Meget sannsynlig'
p882
sg6
S'white'
p883
sg8
(lp884
sg10
S'Likely'
p885
sg12
S'Many'
p886
sg14
g568
sg16
I4
sg17
S'Low'
p887
sg19
S'Liten tilleggsbelastning'
p888
sg21
Nsg22
S'300'
p889
sg24
S'1700'
p890
sg26
S'Mange bratte heng'
p891
sg28
Nsg29
g678
sg31
S'3 - Middels'
p892
sba(irunmatrix
M3Element
p893
(dp894
g3
Nsg4
S'Sannsynlig, Meget sannsynlig'
p895
sg6
S'white'
p896
sg8
(lp897
sg10
S'Likely'
p898
sg12
S'Many'
p899
sg14
g568
sg16
I4
sg17
S'Nat'
p900
sg19
S'Naturlig utloest'
p901
sg21
Nsg22
S'300'
p902
sg24
S'1800'
p903
sg26
S'Mange bratte heng'
p904
sg28
Nsg29
g678
sg31
S'3 - Middels'
p905
sba(irunmatrix
M3Element
p906
(dp907
g3
Nsg4
S'Lite sannsynlig, Mulig'
p908
sg6
S'gray'
p909
sg8
(lp910
sg10
S'Possible'
p911
sg12
S'Most'
p912
sg14
g66
sg16
I0
sg17
S'High'
p913
sg19
S'Stor tilleggsbelastning'
p914
sg21
Nsg22
S'300'
p915
sg24
S'1900'
p916
sg26
S'De fleste bratte heng, Ogsaa i mindre bratt terreng'
p917
sg28
Nsg29
g678
sg31
S'3 - Middels'
p918
sba(irunmatrix
M3Element
p919
(dp920
g3
Nsg4
S'Lite sannsynlig, Mulig'
p921
sg6
S'gray'
p922
sg8
(lp923
sg10
S'Possible'
p924
sg12
S'Most'
p925
sg14
g66
sg16
I0
sg17
S'Low'
p926
sg19
S'Liten tilleggsbelastning'
p927
sg21
Nsg22
S'300'
p928
sg24
S'2000'
p929
sg26
S'De fleste bratte heng, Ogsaa i mindre bratt terreng'
p930
sg28
Nsg29
g678
sg31
S'3 - Middels'
p931
sba(irunmatrix
M3Element
p932
(dp933
g3
Nsg4
S'Lite sannsynlig, Mulig'
p934
sg6
S'gray'
p935
sg8
(lp936
sg10
S'Possible'
p937
sg12
S'Most'
p938
sg14
g66
sg16
I0
sg17
S'Nat'
p939
sg19
S'Naturlig utloest'
p940
sg21
Nsg22
S'300'
p941
sg24
S'2100'
p942
sg26
S'De fleste bratte heng, Ogsaa i mindre bratt terreng'
p943
sg28
Nsg29
g678
sg31
S'3 - Middels'
p944
sba(irunmatrix
M3Element
p945
(dp946
g3
Nsg4
S'Sannsynlig, Meget sannsynlig'
p947
sg6
S'gray'
p948
sg8
(lp949
sg10
S'Likely'
p950
sg12
S'Most'
p951
sg14
g66
sg16
I0
sg17
S'High'
p952
sg19
S'Stor tilleggsbelastning'
p953
sg21
Nsg22
S'300'
p954
sg24
S'2200'
p955
sg26
S'De fleste bratte heng, Ogsaa i mindre bratt terreng'
p956
sg28
Nsg29
g678
sg31
S'3 - Middels'
p957
sba(irunmatrix
M3Element
p958
(dp959
g3
Nsg4
S'Sannsynlig, Meget sannsynlig'
p960
sg6
S'gray'
p961
sg8
(lp962
sg10
S'Likely'
p963
sg12
S'Most'
p964
sg14
g66
sg16
I0
sg17
S'Low'
p965
sg19
S'Liten tilleggsbelastning'
p966
sg21
Nsg22
S'300'
p967
sg24
S'2300'
p968
sg26
S'De fleste bratte heng, Ogsaa i mindre bratt terreng'
p969
sg28
Nsg29
g678
sg31
S'3 - Middels'
p970
sba(irunmatrix
M3Element
p971
(dp972
g3
Nsg4
S'Sannsynlig, Meget sannsynlig'
p973
sg6
S'white'
p974
sg8
(lp975
sg10
S'Likely'
p976
sg12
S'Most'
p977
sg14
g66
sg16
I0
sg17
S'Nat'
p978
sg19
S'Naturlig utloest'
p979
sg21
Nsg22
S'300'
p980
sg24
S'2400'
p981
sg26
S'De fleste bratte heng, Ogsaa i mindre bratt terreng'
p982
sg28
Nsg29
g678
sg31
S'3 - Middels'
p983
sba(irunmatrix
M3Element
p984
(dp985
g3
Nsg4
S'Lite sannsynlig, Mulig'
p986
sg6
S'white'
p987
sg8
(lp988
sg10
S'Possible'
p989
sg12
S'Isolated'
p990
sg14
g236
sg16
I2
sg17
S'High'
p991
sg19
S'Stor tilleggsbelastning'
p992
sg21
Nsg22
S'400'
p993
sg24
S'100'
p994
sg26
S'Isolerte faresoner'
p995
sg28
Nsg29
S'4'
p996
sg31
S'4 - Store'
p997
sba(irunmatrix
M3Element
p998
(dp999
g3
Nsg4
S'Lite sannsynlig, Mulig'
p1000
sg6
S'white'
p1001
sg8
(lp1002
sg10
S'Possible'
p1003
sg12
S'Isolated'
p1004
sg14
g499
sg16
I3
sg17
S'Low'
p1005
sg19
S'Liten tilleggsbelastning'
p1006
sg21
Nsg22
S'400'
p1007
sg24
S'200'
p1008
sg26
S'Isolerte faresoner'
p1009
sg28
Nsg29
g996
sg31
S'4 - Store'
p1010
sba(irunmatrix
M3Element
p1011
(dp1012
g3
Nsg4
S'Lite sannsynlig, Mulig'
p1013
sg6
S'white'
p1014
sg8
(lp1015
sg10
S'Possible'
p1016
sg12
S'Isolated'
p1017
sg14
g499
sg16
I3
sg17
S'Nat'
p1018
sg19
S'Naturlig utloest'
p1019
sg21
Nsg22
S'400'
p1020
sg24
S'300'
p1021
sg26
S'Isolerte faresoner'
p1022
sg28
Nsg29
g996
sg31
S'4 - Store'
p1023
sba(irunmatrix
M3Element
p1024
(dp1025
g3
Nsg4
S'Sannsynlig, Meget sannsynlig'
p1026
sg6
S'gray'
p1027
sg8
(lp1028
sg10
S'Likely'
p1029
sg12
S'Isolated'
p1030
sg14
g66
sg16
I0
sg17
S'High'
p1031
sg19
S'Stor tilleggsbelastning'
p1032
sg21
Nsg22
S'400'
p1033
sg24
S'400'
p1034
sg26
S'Isolerte faresoner'
p1035
sg28
Nsg29
g996
sg31
S'4 - Store'
p1036
sba(irunmatrix
M3Element
p1037
(dp1038
g3
Nsg4
S'Sannsynlig, Meget sannsynlig'
p1039
sg6
S'gray'
p1040
sg8
(lp1041
sg10
S'Likely'
p1042
sg12
S'Isolated'
p1043
sg14
g66
sg16
I0
sg17
S'Low'
p1044
sg19
S'Liten tilleggsbelastning'
p1045
sg21
Nsg22
S'400'
p1046
sg24
S'500'
p1047
sg26
S'Isolerte faresoner'
p1048
sg28
Nsg29
g996
sg31
S'4 - Store'
p1049
sba(irunmatrix
M3Element
p1050
(dp1051
g3
Nsg4
S'Sannsynlig, Meget sannsynlig'
p1052
sg6
S'gray'
p1053
sg8
(lp1054
sg10
S'Likely'
p1055
sg12
S'Isolated'
p1056
sg14
g66
sg16
I0
sg17
S'Nat'
p1057
sg19
S'Naturlig utloest'
p1058
sg21
Nsg22
S'400'
p1059
sg24
S'600'
p1060
sg26
S'Isolerte faresoner'
p1061
sg28
Nsg29
g996
sg31
S'4 - Store'
p1062
sba(irunmatrix
M3Element
p1063
(dp1064
g3
Nsg4
S'Lite sannsynlig, Mulig'
p1065
sg6
S'white'
p1066
sg8
(lp1067
sg10
S'Possible'
p1068
sg12
S'Some'
p1069
sg14
g499
sg16
I3
sg17
S'High'
p1070
sg19
S'Stor tilleggsbelastning'
p1071
sg21
Nsg22
S'400'
p1072
sg24
S'700'
p1073
sg26
S'Noen bratte heng'
p1074
sg28
Nsg29
g996
sg31
S'4 - Store'
p1075
sba(irunmatrix
M3Element
p1076
(dp1077
g3
Nsg4
S'Lite sannsynlig, Mulig'
p1078
sg6
S'white'
p1079
sg8
(lp1080
sg10
S'Possible'
p1081
sg12
S'Some'
p1082
sg14
g568
sg16
I4
sg17
S'Low'
p1083
sg19
S'Liten tilleggsbelastning'
p1084
sg21
Nsg22
S'400'
p1085
sg24
S'800'
p1086
sg26
S'Noen bratte heng'
p1087
sg28
Nsg29
g996
sg31
S'4 - Store'
p1088
sba(irunmatrix
M3Element
p1089
(dp1090
g3
Nsg4
S'Lite sannsynlig, Mulig'
p1091
sg6
S'white'
p1092
sg8
(lp1093
sg10
S'Possible'
p1094
sg12
S'Some'
p1095
sg14
g568
sg16
I4
sg17
S'Nat'
p1096
sg19
S'Naturlig utloest'
p1097
sg21
Nsg22
S'400'
p1098
sg24
S'900'
p1099
sg26
S'Noen bratte heng'
p1100
sg28
Nsg29
g996
sg31
S'4 - Store'
p1101
sba(irunmatrix
M3Element
p1102
(dp1103
g3
Nsg4
S'Sannsynlig, Meget sannsynlig'
p1104
sg6
S'gray'
p1105
sg8
(lp1106
sg10
S'Likely'
p1107
sg12
S'Some'
p1108
sg14
g66
sg16
I0
sg17
S'High'
p1109
sg19
S'Stor tilleggsbelastning'
p1110
sg21
Nsg22
S'400'
p1111
sg24
S'1000'
p1112
sg26
S'Noen bratte heng'
p1113
sg28
Nsg29
g996
sg31
S'4 - Store'
p1114
sba(irunmatrix
M3Element
p1115
(dp1116
g3
Nsg4
S'Sannsynlig, Meget sannsynlig'
p1117
sg6
S'gray'
p1118
sg8
(lp1119
sg10
S'Likely'
p1120
sg12
S'Some'
p1121
sg14
g66
sg16
I0
sg17
S'Low'
p1122
sg19
S'Liten tilleggsbelastning'
p1123
sg21
Nsg22
S'400'
p1124
sg24
S'1100'
p1125
sg26
S'Noen bratte heng'
p1126
sg28
Nsg29
g996
sg31
S'4 - Store'
p1127
sba(irunmatrix
M3Element
p1128
(dp1129
g3
Nsg4
S'Sannsynlig, Meget sannsynlig'
p1130
sg6
S'white'
p1131
sg8
(lp1132
sg10
S'Likely'
p1133
sg12
S'Some'
p1134
sg14
g568
sg16
I4
sg17
S'Nat'
p1135
sg19
S'Naturlig utloest'
p1136
sg21
Nsg22
S'400'
p1137
sg24
S'1200'
p1138
sg26
S'Noen bratte heng'
p1139
sg28
Nsg29
g996
sg31
S'4 - Store'
p1140
sba(irunmatrix
M3Element
p1141
(dp1142
g3
Nsg4
S'Lite sannsynlig, Mulig'
p1143
sg6
S'gray'
p1144
sg8
(lp1145
sg10
S'Possible'
p1146
sg12
S'Many'
p1147
sg14
g66
sg16
I0
sg17
S'High'
p1148
sg19
S'Stor tilleggsbelastning'
p1149
sg21
Nsg22
S'400'
p1150
sg24
S'1300'
p1151
sg26
S'Mange bratte heng'
p1152
sg28
Nsg29
g996
sg31
S'4 - Store'
p1153
sba(irunmatrix
M3Element
p1154
(dp1155
g3
Nsg4
S'Lite sannsynlig, Mulig'
p1156
sg6
S'white'
p1157
sg8
(lp1158
sg10
S'Possible'
p1159
sg12
S'Many'
p1160
sg14
g66
sg16
I0
sg17
S'Low'
p1161
sg19
S'Liten tilleggsbelastning'
p1162
sg21
Nsg22
S'400'
p1163
sg24
S'1400'
p1164
sg26
S'Mange bratte heng'
p1165
sg28
Nsg29
g996
sg31
S'4 - Store'
p1166
sba(irunmatrix
M3Element
p1167
(dp1168
g3
Nsg4
S'Lite sannsynlig, Mulig'
p1169
sg6
S'gray'
p1170
sg8
(lp1171
sg10
S'Possible'
p1172
sg12
S'Many'
p1173
sg14
g66
sg16
I0
sg17
S'Nat'
p1174
sg19
S'Naturlig utloest'
p1175
sg21
Nsg22
S'400'
p1176
sg24
S'1500'
p1177
sg26
S'Mange bratte heng'
p1178
sg28
Nsg29
g996
sg31
S'4 - Store'
p1179
sba(irunmatrix
M3Element
p1180
(dp1181
g3
Nsg4
S'Sannsynlig, Meget sannsynlig'
p1182
sg6
S'gray'
p1183
sg8
(lp1184
sg10
S'Likely'
p1185
sg12
S'Many'
p1186
sg14
g66
sg16
I0
sg17
S'High'
p1187
sg19
S'Stor tilleggsbelastning'
p1188
sg21
Nsg22
S'400'
p1189
sg24
S'1600'
p1190
sg26
S'Mange bratte heng'
p1191
sg28
Nsg29
g996
sg31
S'4 - Store'
p1192
sba(irunmatrix
M3Element
p1193
(dp1194
g3
Nsg4
S'Sannsynlig, Meget sannsynlig'
p1195
sg6
S'white'
p1196
sg8
(lp1197
sg10
S'Likely'
p1198
sg12
S'Many'
p1199
sg14
g66
sg16
I0
sg17
S'Low'
p1200
sg19
S'Liten tilleggsbelastning'
p1201
sg21
Nsg22
S'400'
p1202
sg24
S'1700'
p1203
sg26
S'Mange bratte heng'
p1204
sg28
Nsg29
g996
sg31
S'4 - Store'
p1205
sba(irunmatrix
M3Element
p1206
(dp1207
g3
Nsg4
S'Sannsynlig, Meget sannsynlig'
p1208
sg6
S'white'
p1209
sg8
(lp1210
sg10
S'Likely'
p1211
sg12
S'Many'
p1212
sg14
S'k'
p1213
sg16
I5
sg17
S'Nat'
p1214
sg19
S'Naturlig utloest'
p1215
sg21
Nsg22
S'400'
p1216
sg24
S'1800'
p1217
sg26
S'Mange bratte heng'
p1218
sg28
Nsg29
g996
sg31
S'4 - Store'
p1219
sba(irunmatrix
M3Element
p1220
(dp1221
g3
Nsg4
S'Lite sannsynlig, Mulig'
p1222
sg6
S'gray'
p1223
sg8
(lp1224
sg10
S'Possible'
p1225
sg12
S'Most'
p1226
sg14
g66
sg16
I0
sg17
S'High'
p1227
sg19
S'Stor tilleggsbelastning'
p1228
sg21
Nsg22
S'400'
p1229
sg24
S'1900'
p1230
sg26
S'De fleste bratte heng, Ogsaa i mindre bratt terreng'
p1231
sg28
Nsg29
g996
sg31
S'4 - Store'
p1232
sba(irunmatrix
M3Element
p1233
(dp1234
g3
Nsg4
S'Lite sannsynlig, Mulig'
p1235
sg6
S'gray'
p1236
sg8
(lp1237
sg10
S'Possible'
p1238
sg12
S'Most'
p1239
sg14
g66
sg16
I0
sg17
S'Low'
p1240
sg19
S'Liten tilleggsbelastning'
p1241
sg21
Nsg22
S'400'
p1242
sg24
S'2000'
p1243
sg26
S'De fleste bratte heng, Ogsaa i mindre bratt terreng'
p1244
sg28
Nsg29
g996
sg31
S'4 - Store'
p1245
sba(irunmatrix
M3Element
p1246
(dp1247
g3
Nsg4
S'Lite sannsynlig, Mulig'
p1248
sg6
S'gray'
p1249
sg8
(lp1250
sg10
S'Possible'
p1251
sg12
S'Most'
p1252
sg14
g66
sg16
I0
sg17
S'Nat'
p1253
sg19
S'Naturlig utloest'
p1254
sg21
Nsg22
S'400'
p1255
sg24
S'2100'
p1256
sg26
S'De fleste bratte heng, Ogsaa i mindre bratt terreng'
p1257
sg28
Nsg29
g996
sg31
S'4 - Store'
p1258
sba(irunmatrix
M3Element
p1259
(dp1260
g3
Nsg4
S'Sannsynlig, Meget sannsynlig'
p1261
sg6
S'gray'
p1262
sg8
(lp1263
sg10
S'Likely'
p1264
sg12
S'Most'
p1265
sg14
g66
sg16
I0
sg17
S'High'
p1266
sg19
S'Stor tilleggsbelastning'
p1267
sg21
Nsg22
S'400'
p1268
sg24
S'2200'
p1269
sg26
S'De fleste bratte heng, Ogsaa i mindre bratt terreng'
p1270
sg28
Nsg29
g996
sg31
S'4 - Store'
p1271
sba(irunmatrix
M3Element
p1272
(dp1273
g3
Nsg4
S'Sannsynlig, Meget sannsynlig'
p1274
sg6
S'gray'
p1275
sg8
(lp1276
sg10
S'Likely'
p1277
sg12
S'Most'
p1278
sg14
g66
sg16
I0
sg17
S'Low'
p1279
sg19
S'Liten tilleggsbelastning'
p1280
sg21
Nsg22
S'400'
p1281
sg24
S'2300'
p1282
sg26
S'De fleste bratte heng, Ogsaa i mindre bratt terreng'
p1283
sg28
Nsg29
g996
sg31
S'4 - Store'
p1284
sba(irunmatrix
M3Element
p1285
(dp1286
g3
Nsg4
S'Sannsynlig, Meget sannsynlig'
p1287
sg6
S'white'
p1288
sg8
(lp1289
sg10
S'Likely'
p1290
sg12
S'Most'
p1291
sg14
g66
sg16
I0
sg17
S'Nat'
p1292
sg19
S'Naturlig utloest'
p1293
sg21
Nsg22
S'400'
p1294
sg24
S'2400'
p1295
sg26
S'De fleste bratte heng, Ogsaa i mindre bratt terreng'
p1296
sg28
Nsg29
g996
sg31
S'4 - Store'
p1297
sba(irunmatrix
M3Element
p1298
(dp1299
g3
Nsg4
S'Lite sannsynlig, Mulig'
p1300
sg6
S'white'
p1301
sg8
(lp1302
sg10
S'Possible'
p1303
sg12
S'Isolated'
p1304
sg14
g66
sg16
I0
sg17
S'High'
p1305
sg19
S'Stor tilleggsbelastning'
p1306
sg21
Nsg22
S'500'
p1307
sg24
S'100'
p1308
sg26
S'Isolerte faresoner'
p1309
sg28
Nsg29
S'5'
p1310
sg31
S'5 - Svaert store'
p1311
sba(irunmatrix
M3Element
p1312
(dp1313
g3
Nsg4
S'Lite sannsynlig, Mulig'
p1314
sg6
S'white'
p1315
sg8
(lp1316
sg10
S'Possible'
p1317
sg12
S'Isolated'
p1318
sg14
g66
sg16
I0
sg17
S'Low'
p1319
sg19
S'Liten tilleggsbelastning'
p1320
sg21
Nsg22
S'500'
p1321
sg24
S'200'
p1322
sg26
S'Isolerte faresoner'
p1323
sg28
Nsg29
g1310
sg31
S'5 - Svaert store'
p1324
sba(irunmatrix
M3Element
p1325
(dp1326
g3
Nsg4
S'Lite sannsynlig, Mulig'
p1327
sg6
S'white'
p1328
sg8
(lp1329
sg10
S'Possible'
p1330
sg12
S'Isolated'
p1331
sg14
g66
sg16
I0
sg17
S'Nat'
p1332
sg19
S'Naturlig utloest'
p1333
sg21
Nsg22
S'500'
p1334
sg24
S'300'
p1335
sg26
S'Isolerte faresoner'
p1336
sg28
Nsg29
g1310
sg31
S'5 - Svaert store'
p1337
sba(irunmatrix
M3Element
p1338
(dp1339
g3
Nsg4
S'Sannsynlig, Meget sannsynlig'
p1340
sg6
S'gray'
p1341
sg8
(lp1342
sg10
S'Likely'
p1343
sg12
S'Isolated'
p1344
sg14
g66
sg16
I0
sg17
S'High'
p1345
sg19
S'Stor tilleggsbelastning'
p1346
sg21
Nsg22
S'500'
p1347
sg24
S'400'
p1348
sg26
S'Isolerte faresoner'
p1349
sg28
Nsg29
g1310
sg31
S'5 - Svaert store'
p1350
sba(irunmatrix
M3Element
p1351
(dp1352
g3
Nsg4
S'Sannsynlig, Meget sannsynlig'
p1353
sg6
S'gray'
p1354
sg8
(lp1355
sg10
S'Likely'
p1356
sg12
S'Isolated'
p1357
sg14
g66
sg16
I0
sg17
S'Low'
p1358
sg19
S'Liten tilleggsbelastning'
p1359
sg21
Nsg22
S'500'
p1360
sg24
S'500'
p1361
sg26
S'Isolerte faresoner'
p1362
sg28
Nsg29
g1310
sg31
S'5 - Svaert store'
p1363
sba(irunmatrix
M3Element
p1364
(dp1365
g3
Nsg4
S'Sannsynlig, Meget sannsynlig'
p1366
sg6
S'gray'
p1367
sg8
(lp1368
sg10
S'Likely'
p1369
sg12
S'Isolated'
p1370
sg14
g66
sg16
I0
sg17
S'Nat'
p1371
sg19
S'Naturlig utloest'
p1372
sg21
Nsg22
S'500'
p1373
sg24
S'600'
p1374
sg26
S'Isolerte faresoner'
p1375
sg28
Nsg29
g1310
sg31
S'5 - Svaert store'
p1376
sba(irunmatrix
M3Element
p1377
(dp1378
g3
Nsg4
S'Lite sannsynlig, Mulig'
p1379
sg6
S'white'
p1380
sg8
(lp1381
sg10
S'Possible'
p1382
sg12
S'Some'
p1383
sg14
g66
sg16
I0
sg17
S'High'
p1384
sg19
S'Stor tilleggsbelastning'
p1385
sg21
Nsg22
S'500'
p1386
sg24
S'700'
p1387
sg26
S'Noen bratte heng'
p1388
sg28
Nsg29
g1310
sg31
S'5 - Svaert store'
p1389
sba(irunmatrix
M3Element
p1390
(dp1391
g3
Nsg4
S'Lite sannsynlig, Mulig'
p1392
sg6
S'white'
p1393
sg8
(lp1394
sg10
S'Possible'
p1395
sg12
S'Some'
p1396
sg14
g66
sg16
I0
sg17
S'Low'
p1397
sg19
S'Liten tilleggsbelastning'
p1398
sg21
Nsg22
S'500'
p1399
sg24
S'800'
p1400
sg26
S'Noen bratte heng'
p1401
sg28
Nsg29
g1310
sg31
S'5 - Svaert store'
p1402
sba(irunmatrix
M3Element
p1403
(dp1404
g3
Nsg4
S'Lite sannsynlig, Mulig'
p1405
sg6
S'white'
p1406
sg8
(lp1407
sg10
S'Possible'
p1408
sg12
S'Some'
p1409
sg14
g66
sg16
I0
sg17
S'Nat'
p1410
sg19
S'Naturlig utloest'
p1411
sg21
Nsg22
S'500'
p1412
sg24
S'900'
p1413
sg26
S'Noen bratte heng'
p1414
sg28
Nsg29
g1310
sg31
S'5 - Svaert store'
p1415
sba(irunmatrix
M3Element
p1416
(dp1417
g3
Nsg4
S'Sannsynlig, Meget sannsynlig'
p1418
sg6
S'gray'
p1419
sg8
(lp1420
sg10
S'Likely'
p1421
sg12
S'Some'
p1422
sg14
g66
sg16
I0
sg17
S'High'
p1423
sg19
S'Stor tilleggsbelastning'
p1424
sg21
Nsg22
S'500'
p1425
sg24
S'1000'
p1426
sg26
S'Noen bratte heng'
p1427
sg28
Nsg29
g1310
sg31
S'5 - Svaert store'
p1428
sba(irunmatrix
M3Element
p1429
(dp1430
g3
Nsg4
S'Sannsynlig, Meget sannsynlig'
p1431
sg6
S'gray'
p1432
sg8
(lp1433
sg10
S'Likely'
p1434
sg12
S'Some'
p1435
sg14
g66
sg16
I0
sg17
S'Low'
p1436
sg19
S'Liten tilleggsbelastning'
p1437
sg21
Nsg22
S'500'
p1438
sg24
S'1100'
p1439
sg26
S'Noen bratte heng'
p1440
sg28
Nsg29
g1310
sg31
S'5 - Svaert store'
p1441
sba(irunmatrix
M3Element
p1442
(dp1443
g3
Nsg4
S'Sannsynlig, Meget sannsynlig'
p1444
sg6
S'white'
p1445
sg8
(lp1446
sg10
S'Likely'
p1447
sg12
S'Some'
p1448
sg14
g66
sg16
I0
sg17
S'Nat'
p1449
sg19
S'Naturlig utloest'
p1450
sg21
Nsg22
S'500'
p1451
sg24
S'1200'
p1452
sg26
S'Noen bratte heng'
p1453
sg28
Nsg29
g1310
sg31
S'5 - Svaert store'
p1454
sba(irunmatrix
M3Element
p1455
(dp1456
g3
Nsg4
S'Lite sannsynlig, Mulig'
p1457
sg6
S'gray'
p1458
sg8
(lp1459
sg10
S'Possible'
p1460
sg12
S'Many'
p1461
sg14
g66
sg16
I0
sg17
S'High'
p1462
sg19
S'Stor tilleggsbelastning'
p1463
sg21
Nsg22
S'500'
p1464
sg24
S'1300'
p1465
sg26
S'Mange bratte heng'
p1466
sg28
Nsg29
g1310
sg31
S'5 - Svaert store'
p1467
sba(irunmatrix
M3Element
p1468
(dp1469
g3
Nsg4
S'Lite sannsynlig, Mulig'
p1470
sg6
S'white'
p1471
sg8
(lp1472
sg10
S'Possible'
p1473
sg12
S'Many'
p1474
sg14
g66
sg16
I0
sg17
S'Low'
p1475
sg19
S'Liten tilleggsbelastning'
p1476
sg21
Nsg22
S'500'
p1477
sg24
S'1400'
p1478
sg26
S'Mange bratte heng'
p1479
sg28
Nsg29
g1310
sg31
S'5 - Svaert store'
p1480
sba(irunmatrix
M3Element
p1481
(dp1482
g3
Nsg4
S'Lite sannsynlig, Mulig'
p1483
sg6
S'gray'
p1484
sg8
(lp1485
sg10
S'Possible'
p1486
sg12
S'Many'
p1487
sg14
g66
sg16
I0
sg17
S'Nat'
p1488
sg19
S'Naturlig utloest'
p1489
sg21
Nsg22
S'500'
p1490
sg24
S'1500'
p1491
sg26
S'Mange bratte heng'
p1492
sg28
Nsg29
g1310
sg31
S'5 - Svaert store'
p1493
sba(irunmatrix
M3Element
p1494
(dp1495
g3
Nsg4
S'Sannsynlig, Meget sannsynlig'
p1496
sg6
S'gray'
p1497
sg8
(lp1498
sg10
S'Likely'
p1499
sg12
S'Many'
p1500
sg14
g66
sg16
I0
sg17
S'High'
p1501
sg19
S'Stor tilleggsbelastning'
p1502
sg21
Nsg22
S'500'
p1503
sg24
S'1600'
p1504
sg26
S'Mange bratte heng'
p1505
sg28
Nsg29
g1310
sg31
S'5 - Svaert store'
p1506
sba(irunmatrix
M3Element
p1507
(dp1508
g3
Nsg4
S'Sannsynlig, Meget sannsynlig'
p1509
sg6
S'white'
p1510
sg8
(lp1511
sg10
S'Likely'
p1512
sg12
S'Many'
p1513
sg14
g66
sg16
I0
sg17
S'Low'
p1514
sg19
S'Liten tilleggsbelastning'
p1515
sg21
Nsg22
S'500'
p1516
sg24
S'1700'
p1517
sg26
S'Mange bratte heng'
p1518
sg28
Nsg29
g1310
sg31
S'5 - Svaert store'
p1519
sba(irunmatrix
M3Element
p1520
(dp1521
g3
Nsg4
S'Sannsynlig, Meget sannsynlig'
p1522
sg6
S'white'
p1523
sg8
(lp1524
sg10
S'Likely'
p1525
sg12
S'Many'
p1526
sg14
g1213
sg16
I5
sg17
S'Nat'
p1527
sg19
S'Naturlig utloest'
p1528
sg21
Nsg22
S'500'
p1529
sg24
S'1800'
p1530
sg26
S'Mange bratte heng'
p1531
sg28
Nsg29
g1310
sg31
S'5 - Svaert store'
p1532
sba(irunmatrix
M3Element
p1533
(dp1534
g3
Nsg4
S'Lite sannsynlig, Mulig'
p1535
sg6
S'gray'
p1536
sg8
(lp1537
sg10
S'Possible'
p1538
sg12
S'Most'
p1539
sg14
g66
sg16
I0
sg17
S'High'
p1540
sg19
S'Stor tilleggsbelastning'
p1541
sg21
Nsg22
S'500'
p1542
sg24
S'1900'
p1543
sg26
S'De fleste bratte heng, Ogsaa i mindre bratt terreng'
p1544
sg28
Nsg29
g1310
sg31
S'5 - Svaert store'
p1545
sba(irunmatrix
M3Element
p1546
(dp1547
g3
Nsg4
S'Lite sannsynlig, Mulig'
p1548
sg6
S'gray'
p1549
sg8
(lp1550
sg10
S'Possible'
p1551
sg12
S'Most'
p1552
sg14
g66
sg16
I0
sg17
S'Low'
p1553
sg19
S'Liten tilleggsbelastning'
p1554
sg21
Nsg22
S'500'
p1555
sg24
S'2000'
p1556
sg26
S'De fleste bratte heng, Ogsaa i mindre bratt terreng'
p1557
sg28
Nsg29
g1310
sg31
S'5 - Svaert store'
p1558
sba(irunmatrix
M3Element
p1559
(dp1560
g3
Nsg4
S'Lite sannsynlig, Mulig'
p1561
sg6
S'gray'
p1562
sg8
(lp1563
sg10
S'Possible'
p1564
sg12
S'Most'
p1565
sg14
g66
sg16
I0
sg17
S'Nat'
p1566
sg19
S'Naturlig utloest'
p1567
sg21
Nsg22
S'500'
p1568
sg24
S'2100'
p1569
sg26
S'De fleste bratte heng, Ogsaa i mindre bratt terreng'
p1570
sg28
Nsg29
g1310
sg31
S'5 - Svaert store'
p1571
sba(irunmatrix
M3Element
p1572
(dp1573
g3
Nsg4
S'Sannsynlig, Meget sannsynlig'
p1574
sg6
S'gray'
p1575
sg8
(lp1576
sg10
S'Likely'
p1577
sg12
S'Most'
p1578
sg14
g66
sg16
I0
sg17
S'High'
p1579
sg19
S'Stor tilleggsbelastning'
p1580
sg21
Nsg22
S'500'
p1581
sg24
S'2200'
p1582
sg26
S'De fleste bratte heng, Ogsaa i mindre bratt terreng'
p1583
sg28
Nsg29
g1310
sg31
S'5 - Svaert store'
p1584
sba(irunmatrix
M3Element
p1585
(dp1586
g3
Nsg4
S'Sannsynlig, Meget sannsynlig'
p1587
sg6
S'gray'
p1588
sg8
(lp1589
sg10
S'Likely'
p1590
sg12
S'Most'
p1591
sg14
g66
sg16
I0
sg17
S'Low'
p1592
sg19
S'Liten tilleggsbelastning'
p1593
sg21
Nsg22
S'500'
p1594
sg24
S'2300'
p1595
sg26
S'De fleste bratte heng, Ogsaa i mindre bratt terreng'
p1596
sg28
Nsg29
g1310
sg31
S'5 - Svaert store'
p1597
sba(irunmatrix
M3Element
p1598
(dp1599
g3
Nsg4
S'Sannsynlig, Meget sannsynlig'
p1600
sg6
S'white'
p1601
sg8
(lp1602
sg10
S'Likely'
p1603
sg12
S'Most'
p1604
sg14
g66
sg16
I0
sg17
S'Nat'
p1605
sg19
S'Naturlig utloest'
p1606
sg21
Nsg22
S'500'
p1607
sg24
S'2400'
p1608
sg26
S'De fleste bratte heng, Ogsaa i mindre bratt terreng'
p1609
sg28
Nsg29
g1310
sg31
S'5 - Svaert store'
p1610
sba.