(dp0
S'trigger'
p1
(dp2
S'keys'
p3
(lp4
S'Stor tilleggsbelastning'
p5
aS'Liten tilleggsbelastning'
p6
aS'Naturlig utloest'
p7
asS'colors'
p8
(lp9
S'0.7'
p10
asS'values'
p11
(lp12
S'Liten tilleggsbelastning'
p13
aS'Liten tilleggsbelastning'
p14
aS'Liten tilleggsbelastning'
p15
aS'Liten tilleggsbelastning'
p16
aS'Liten tilleggsbelastning'
p17
aS'Liten tilleggsbelastning'
p18
aS'Liten tilleggsbelastning'
p19
aS'Liten tilleggsbelastning'
p20
aS'Liten tilleggsbelastning'
p21
aS'Liten tilleggsbelastning'
p22
aS'Liten tilleggsbelastning'
p23
aS'Liten tilleggsbelastning'
p24
aS'Liten tilleggsbelastning'
p25
aS'Liten tilleggsbelastning'
p26
aS'Liten tilleggsbelastning'
p27
aS'Liten tilleggsbelastning'
p28
aS'Liten tilleggsbelastning'
p29
aS'Liten tilleggsbelastning'
p30
aS'Liten tilleggsbelastning'
p31
aS'Liten tilleggsbelastning'
p32
aS'Stor tilleggsbelastning'
p33
aS'Stor tilleggsbelastning'
p34
aS'Liten tilleggsbelastning'
p35
aS'Liten tilleggsbelastning'
p36
aS'Liten tilleggsbelastning'
p37
aS'Liten tilleggsbelastning'
p38
aS'Liten tilleggsbelastning'
p39
aS'Liten tilleggsbelastning'
p40
aS'Liten tilleggsbelastning'
p41
aS'Naturlig utloest'
p42
aS'Naturlig utloest'
p43
aS'Naturlig utloest'
p44
aS'Naturlig utloest'
p45
aS'Naturlig utloest'
p46
aS'Stor tilleggsbelastning'
p47
aS'Naturlig utloest'
p48
aS'Naturlig utloest'
p49
aS'Naturlig utloest'
p50
aS'Naturlig utloest'
p51
aS'Naturlig utloest'
p52
aS'Naturlig utloest'
p53
aS'Naturlig utloest'
p54
aS'Naturlig utloest'
p55
aS'Naturlig utloest'
p56
aS'Naturlig utloest'
p57
aS'Naturlig utloest'
p58
aS'Naturlig utloest'
p59
aS'Naturlig utloest'
p60
aS'Naturlig utloest'
p61
aS'Naturlig utloest'
p62
assS'distribution'
p63
(dp64
g3
(lp65
S'Isolerte faresoner'
p66
aS'Noen bratte heng'
p67
aS'Mange bratte heng'
p68
aS'De fleste bratte heng'
p69
aS'Ogsaa i mindre bratt terreng'
p70
asg8
(lp71
g10
asg11
(lp72
S'Noen bratte heng'
p73
aS'Noen bratte heng'
p74
aS'Noen bratte heng'
p75
aS'Noen bratte heng'
p76
aS'Noen bratte heng'
p77
aS'Noen bratte heng'
p78
aS'Noen bratte heng'
p79
aS'Noen bratte heng'
p80
aS'Noen bratte heng'
p81
aS'Noen bratte heng'
p82
aS'Noen bratte heng'
p83
aS'Noen bratte heng'
p84
aS'Noen bratte heng'
p85
aS'Noen bratte heng'
p86
aS'Noen bratte heng'
p87
aS'Noen bratte heng'
p88
aS'Noen bratte heng'
p89
aS'Noen bratte heng'
p90
aS'Noen bratte heng'
p91
aS'Noen bratte heng'
p92
aS'Isolerte faresoner'
p93
aS'Isolerte faresoner'
p94
aS'Noen bratte heng'
p95
aS'Noen bratte heng'
p96
aS'Noen bratte heng'
p97
aS'Noen bratte heng'
p98
aS'Noen bratte heng'
p99
aS'Noen bratte heng'
p100
aS'Noen bratte heng'
p101
aS'Noen bratte heng'
p102
aS'Noen bratte heng'
p103
aS'Noen bratte heng'
p104
aS'Noen bratte heng'
p105
aS'Noen bratte heng'
p106
aS'Noen bratte heng'
p107
aS'Noen bratte heng'
p108
aS'Noen bratte heng'
p109
aS'Noen bratte heng'
p110
aS'Noen bratte heng'
p111
aS'Noen bratte heng'
p112
aS'Noen bratte heng'
p113
aS'Noen bratte heng'
p114
aS'Noen bratte heng'
p115
aS'Noen bratte heng'
p116
aS'Noen bratte heng'
p117
aS'Noen bratte heng'
p118
aS'Noen bratte heng'
p119
aS'Noen bratte heng'
p120
aS'Noen bratte heng'
p121
aS'Noen bratte heng'
p122
assS'size'
p123
(dp124
g3
(lp125
S'1 - Harmloest'
p126
aS'2 - Smaa'
p127
aS'3 - Middels'
p128
aS'4 - Store'
p129
aS'5 - Svaert store'
p130
aS'Ukjent'
p131
asg8
(lp132
g10
asg11
(lp133
S'2 - Smaa'
p134
aS'2 - Smaa'
p135
aS'2 - Smaa'
p136
aS'3 - Middels'
p137
aS'3 - Middels'
p138
aS'3 - Middels'
p139
aS'2 - Smaa'
p140
aS'2 - Smaa'
p141
aS'2 - Smaa'
p142
aS'2 - Smaa'
p143
aS'2 - Smaa'
p144
aS'2 - Smaa'
p145
aS'2 - Smaa'
p146
aS'2 - Smaa'
p147
aS'2 - Smaa'
p148
aS'2 - Smaa'
p149
aS'2 - Smaa'
p150
aS'2 - Smaa'
p151
aS'2 - Smaa'
p152
aS'2 - Smaa'
p153
aS'2 - Smaa'
p154
aS'2 - Smaa'
p155
aS'2 - Smaa'
p156
aS'2 - Smaa'
p157
aS'2 - Smaa'
p158
aS'2 - Smaa'
p159
aS'3 - Middels'
p160
aS'3 - Middels'
p161
aS'3 - Middels'
p162
aS'2 - Smaa'
p163
aS'2 - Smaa'
p164
aS'2 - Smaa'
p165
aS'2 - Smaa'
p166
aS'2 - Smaa'
p167
aS'3 - Middels'
p168
aS'2 - Smaa'
p169
aS'2 - Smaa'
p170
aS'2 - Smaa'
p171
aS'2 - Smaa'
p172
aS'2 - Smaa'
p173
aS'2 - Smaa'
p174
aS'2 - Smaa'
p175
aS'2 - Smaa'
p176
aS'2 - Smaa'
p177
aS'2 - Smaa'
p178
aS'2 - Smaa'
p179
aS'2 - Smaa'
p180
aS'2 - Smaa'
p181
aS'2 - Smaa'
p182
aS'2 - Smaa'
p183
assS'probability'
p184
(dp185
g3
(lp186
S'Lite sannsynlig'
p187
aS'Mulig'
p188
aS'Sannsynlig'
p189
aS'Meget sannsynlig'
p190
asg8
(lp191
g10
asg11
(lp192
S'Mulig'
p193
aS'Mulig'
p194
aS'Mulig'
p195
aS'Mulig'
p196
aS'Mulig'
p197
aS'Mulig'
p198
aS'Mulig'
p199
aS'Mulig'
p200
aS'Mulig'
p201
aS'Mulig'
p202
aS'Mulig'
p203
aS'Mulig'
p204
aS'Mulig'
p205
aS'Mulig'
p206
aS'Mulig'
p207
aS'Mulig'
p208
aS'Mulig'
p209
aS'Mulig'
p210
aS'Mulig'
p211
aS'Mulig'
p212
aS'Mulig'
p213
aS'Mulig'
p214
aS'Mulig'
p215
aS'Mulig'
p216
aS'Mulig'
p217
aS'Mulig'
p218
aS'Mulig'
p219
aS'Mulig'
p220
aS'Mulig'
p221
aS'Mulig'
p222
aS'Mulig'
p223
aS'Mulig'
p224
aS'Mulig'
p225
aS'Mulig'
p226
aS'Mulig'
p227
aS'Mulig'
p228
aS'Mulig'
p229
aS'Mulig'
p230
aS'Mulig'
p231
aS'Mulig'
p232
aS'Mulig'
p233
aS'Mulig'
p234
aS'Sannsynlig'
p235
aS'Sannsynlig'
p236
aS'Mulig'
p237
aS'Mulig'
p238
aS'Mulig'
p239
aS'Mulig'
p240
aS'Mulig'
p241
aS'Mulig'
p242
assS'level'
p243
(dp244
g3
(lp245
I1
aI2
aI3
aI4
aI5
asg8
(lp246
S'#ccff66'
p247
aS'#ffff00'
p248
aS'#ff9900'
p249
aS'#ff0000'
p250
aS'k'
p251
asg11
(lp252
I2
aI2
aI2
aI3
aI3
aI3
aI2
aI2
aI2
aI2
aI2
aI2
aI2
aI2
aI2
aI2
aI2
aI2
aI2
aI2
aI1
aI1
aI2
aI2
aI2
aI2
aI3
aI3
aI3
aI2
aI2
aI2
aI2
aI2
aI2
aI2
aI2
aI2
aI2
aI2
aI2
aI2
aI2
aI2
aI2
aI2
aI2
aI2
aI2
aI2
ass.