(lp0
(irunmatrix
M3Element
p1
(dp2
S'danger_level_average'
p3
NsS'probability'
p4
S'Lite sannsynlig, Mulig'
p5
sS'colour'
p6
S'white'
p7
sS'danger_level_list'
p8
(lp9
sS'label_probalility'
p10
S'Possible'
p11
sS'label_distribution'
p12
S'Isolated'
p13
sS'recomended_colour'
p14
S'#ccff66'
p15
sS'recomended_danger_level'
p16
I1
sS'label_trigger'
p17
S'High'
p18
sS'trigger'
p19
S'Stor tilleggsbelastning'
p20
sS'occurrences'
p21
NsS'y'
p22
S'100'
p23
sS'x'
p24
S'100'
p25
sS'distribution'
p26
S'Isolerte faresoner'
p27
sS'danger_level_standard_dev'
p28
NsS'label_size'
p29
S'1'
p30
sS'avalanche_size'
p31
S'1 - Harmloest'
p32
sba(irunmatrix
M3Element
p33
(dp34
g3
F1.0
sg4
S'Lite sannsynlig, Mulig'
p35
sg6
S'#ccff66'
p36
sg8
(lp37
I1
aI1
aI1
aI1
aI1
asg10
S'Possible'
p38
sg12
S'Isolated'
p39
sg14
g15
sg16
I1
sg17
S'Low'
p40
sg19
S'Liten tilleggsbelastning'
p41
sg21
I5
sg22
S'100'
p42
sg24
S'200'
p43
sg26
S'Isolerte faresoner'
p44
sg28
cnumpy.core.multiarray
scalar
p45
(cnumpy
dtype
p46
(S'f8'
p47
I0
I1
tp48
Rp49
(I3
S'<'
p50
NNNI-1
I-1
I0
tp51
bS'\x00\x00\x00\x00\x00\x00\x00\x00'
p52
tp53
Rp54
sg29
g30
sg31
S'1 - Harmloest'
p55
sba(irunmatrix
M3Element
p56
(dp57
g3
Nsg4
S'Lite sannsynlig, Mulig'
p58
sg6
S'white'
p59
sg8
(lp60
sg10
S'Possible'
p61
sg12
S'Isolated'
p62
sg14
g15
sg16
I1
sg17
S'Nat'
p63
sg19
S'Naturlig utloest'
p64
sg21
Nsg22
S'100'
p65
sg24
S'300'
p66
sg26
S'Isolerte faresoner'
p67
sg28
Nsg29
g30
sg31
S'1 - Harmloest'
p68
sba(irunmatrix
M3Element
p69
(dp70
g3
Nsg4
S'Sannsynlig, Meget sannsynlig'
p71
sg6
S'gray'
p72
sg8
(lp73
sg10
S'Likely'
p74
sg12
S'Isolated'
p75
sg14
S'gray'
p76
sg16
I0
sg17
S'High'
p77
sg19
S'Stor tilleggsbelastning'
p78
sg21
Nsg22
S'100'
p79
sg24
S'400'
p80
sg26
S'Isolerte faresoner'
p81
sg28
Nsg29
g30
sg31
S'1 - Harmloest'
p82
sba(irunmatrix
M3Element
p83
(dp84
g3
Nsg4
S'Sannsynlig, Meget sannsynlig'
p85
sg6
S'gray'
p86
sg8
(lp87
sg10
S'Likely'
p88
sg12
S'Isolated'
p89
sg14
g76
sg16
I0
sg17
S'Low'
p90
sg19
S'Liten tilleggsbelastning'
p91
sg21
Nsg22
S'100'
p92
sg24
S'500'
p93
sg26
S'Isolerte faresoner'
p94
sg28
Nsg29
g30
sg31
S'1 - Harmloest'
p95
sba(irunmatrix
M3Element
p96
(dp97
g3
Nsg4
S'Sannsynlig, Meget sannsynlig'
p98
sg6
S'gray'
p99
sg8
(lp100
sg10
S'Likely'
p101
sg12
S'Isolated'
p102
sg14
g76
sg16
I0
sg17
S'Nat'
p103
sg19
S'Naturlig utloest'
p104
sg21
Nsg22
S'100'
p105
sg24
S'600'
p106
sg26
S'Isolerte faresoner'
p107
sg28
Nsg29
g30
sg31
S'1 - Harmloest'
p108
sba(irunmatrix
M3Element
p109
(dp110
g3
Nsg4
S'Lite sannsynlig, Mulig'
p111
sg6
S'white'
p112
sg8
(lp113
sg10
S'Possible'
p114
sg12
S'Some'
p115
sg14
g15
sg16
I1
sg17
S'High'
p116
sg19
S'Stor tilleggsbelastning'
p117
sg21
Nsg22
S'100'
p118
sg24
S'700'
p119
sg26
S'Noen bratte heng'
p120
sg28
Nsg29
g30
sg31
S'1 - Harmloest'
p121
sba(irunmatrix
M3Element
p122
(dp123
g3
F1.0
sg4
S'Lite sannsynlig, Mulig'
p124
sg6
g36
sg8
(lp125
I1
asg10
S'Possible'
p126
sg12
S'Some'
p127
sg14
g15
sg16
I1
sg17
S'Low'
p128
sg19
S'Liten tilleggsbelastning'
p129
sg21
I1
sg22
S'100'
p130
sg24
S'800'
p131
sg26
S'Noen bratte heng'
p132
sg28
g45
(g49
S'\x00\x00\x00\x00\x00\x00\x00\x00'
p133
tp134
Rp135
sg29
g30
sg31
S'1 - Harmloest'
p136
sba(irunmatrix
M3Element
p137
(dp138
g3
F1.1578947368421053
sg4
S'Lite sannsynlig, Mulig'
p139
sg6
g36
sg8
(lp140
I2
aI1
aI1
aI1
aI1
aI1
aI1
aI1
aI1
aI1
aI1
aI1
aI2
aI2
aI1
aI1
aI1
aI1
aI1
asg10
S'Possible'
p141
sg12
S'Some'
p142
sg14
g15
sg16
I1
sg17
S'Nat'
p143
sg19
S'Naturlig utloest'
p144
sg21
I19
sg22
S'100'
p145
sg24
S'900'
p146
sg26
S'Noen bratte heng'
p147
sg28
g45
(g49
S'\xe0\x9e\xc3\x8dLV\xd7?'
p148
tp149
Rp150
sg29
g30
sg31
S'1 - Harmloest'
p151
sba(irunmatrix
M3Element
p152
(dp153
g3
Nsg4
S'Sannsynlig, Meget sannsynlig'
p154
sg6
S'gray'
p155
sg8
(lp156
sg10
S'Likely'
p157
sg12
S'Some'
p158
sg14
g76
sg16
I0
sg17
S'High'
p159
sg19
S'Stor tilleggsbelastning'
p160
sg21
Nsg22
S'100'
p161
sg24
S'1000'
p162
sg26
S'Noen bratte heng'
p163
sg28
Nsg29
g30
sg31
S'1 - Harmloest'
p164
sba(irunmatrix
M3Element
p165
(dp166
g3
Nsg4
S'Sannsynlig, Meget sannsynlig'
p167
sg6
S'gray'
p168
sg8
(lp169
sg10
S'Likely'
p170
sg12
S'Some'
p171
sg14
g76
sg16
I0
sg17
S'Low'
p172
sg19
S'Liten tilleggsbelastning'
p173
sg21
Nsg22
S'100'
p174
sg24
S'1100'
p175
sg26
S'Noen bratte heng'
p176
sg28
Nsg29
g30
sg31
S'1 - Harmloest'
p177
sba(irunmatrix
M3Element
p178
(dp179
g3
F1.0
sg4
S'Sannsynlig, Meget sannsynlig'
p180
sg6
g36
sg8
(lp181
I1
aI1
aI1
aI1
aI1
aI1
asg10
S'Likely'
p182
sg12
S'Some'
p183
sg14
g15
sg16
I1
sg17
S'Nat'
p184
sg19
S'Naturlig utloest'
p185
sg21
I6
sg22
S'100'
p186
sg24
S'1200'
p187
sg26
S'Noen bratte heng'
p188
sg28
g45
(g49
S'\x00\x00\x00\x00\x00\x00\x00\x00'
p189
tp190
Rp191
sg29
g30
sg31
S'1 - Harmloest'
p192
sba(irunmatrix
M3Element
p193
(dp194
g3
Nsg4
S'Lite sannsynlig, Mulig'
p195
sg6
S'gray'
p196
sg8
(lp197
sg10
S'Possible'
p198
sg12
S'Many'
p199
sg14
g76
sg16
I0
sg17
S'High'
p200
sg19
S'Stor tilleggsbelastning'
p201
sg21
Nsg22
S'100'
p202
sg24
S'1300'
p203
sg26
S'Mange bratte heng'
p204
sg28
Nsg29
g30
sg31
S'1 - Harmloest'
p205
sba(irunmatrix
M3Element
p206
(dp207
g3
Nsg4
S'Lite sannsynlig, Mulig'
p208
sg6
S'white'
p209
sg8
(lp210
sg10
S'Possible'
p211
sg12
S'Many'
p212
sg14
g15
sg16
I1
sg17
S'Low'
p213
sg19
S'Liten tilleggsbelastning'
p214
sg21
Nsg22
S'100'
p215
sg24
S'1400'
p216
sg26
S'Mange bratte heng'
p217
sg28
Nsg29
g30
sg31
S'1 - Harmloest'
p218
sba(irunmatrix
M3Element
p219
(dp220
g3
Nsg4
S'Lite sannsynlig, Mulig'
p221
sg6
S'gray'
p222
sg8
(lp223
sg10
S'Possible'
p224
sg12
S'Many'
p225
sg14
g76
sg16
I0
sg17
S'Nat'
p226
sg19
S'Naturlig utloest'
p227
sg21
Nsg22
S'100'
p228
sg24
S'1500'
p229
sg26
S'Mange bratte heng'
p230
sg28
Nsg29
g30
sg31
S'1 - Harmloest'
p231
sba(irunmatrix
M3Element
p232
(dp233
g3
Nsg4
S'Sannsynlig, Meget sannsynlig'
p234
sg6
S'gray'
p235
sg8
(lp236
sg10
S'Likely'
p237
sg12
S'Many'
p238
sg14
g76
sg16
I0
sg17
S'High'
p239
sg19
S'Stor tilleggsbelastning'
p240
sg21
Nsg22
S'100'
p241
sg24
S'1600'
p242
sg26
S'Mange bratte heng'
p243
sg28
Nsg29
g30
sg31
S'1 - Harmloest'
p244
sba(irunmatrix
M3Element
p245
(dp246
g3
Nsg4
S'Sannsynlig, Meget sannsynlig'
p247
sg6
S'white'
p248
sg8
(lp249
sg10
S'Likely'
p250
sg12
S'Many'
p251
sg14
S'#ffff00'
p252
sg16
I2
sg17
S'Low'
p253
sg19
S'Liten tilleggsbelastning'
p254
sg21
Nsg22
S'100'
p255
sg24
S'1700'
p256
sg26
S'Mange bratte heng'
p257
sg28
Nsg29
g30
sg31
S'1 - Harmloest'
p258
sba(irunmatrix
M3Element
p259
(dp260
g3
Nsg4
S'Sannsynlig, Meget sannsynlig'
p261
sg6
S'white'
p262
sg8
(lp263
sg10
S'Likely'
p264
sg12
S'Many'
p265
sg14
g252
sg16
I2
sg17
S'Nat'
p266
sg19
S'Naturlig utloest'
p267
sg21
Nsg22
S'100'
p268
sg24
S'1800'
p269
sg26
S'Mange bratte heng'
p270
sg28
Nsg29
g30
sg31
S'1 - Harmloest'
p271
sba(irunmatrix
M3Element
p272
(dp273
g3
Nsg4
S'Lite sannsynlig, Mulig'
p274
sg6
S'gray'
p275
sg8
(lp276
sg10
S'Possible'
p277
sg12
S'Most'
p278
sg14
g76
sg16
I0
sg17
S'High'
p279
sg19
S'Stor tilleggsbelastning'
p280
sg21
Nsg22
S'100'
p281
sg24
S'1900'
p282
sg26
S'De fleste bratte heng, Ogsaa i mindre bratt terreng'
p283
sg28
Nsg29
g30
sg31
S'1 - Harmloest'
p284
sba(irunmatrix
M3Element
p285
(dp286
g3
Nsg4
S'Lite sannsynlig, Mulig'
p287
sg6
S'gray'
p288
sg8
(lp289
sg10
S'Possible'
p290
sg12
S'Most'
p291
sg14
g76
sg16
I0
sg17
S'Low'
p292
sg19
S'Liten tilleggsbelastning'
p293
sg21
Nsg22
S'100'
p294
sg24
S'2000'
p295
sg26
S'De fleste bratte heng, Ogsaa i mindre bratt terreng'
p296
sg28
Nsg29
g30
sg31
S'1 - Harmloest'
p297
sba(irunmatrix
M3Element
p298
(dp299
g3
Nsg4
S'Lite sannsynlig, Mulig'
p300
sg6
S'gray'
p301
sg8
(lp302
sg10
S'Possible'
p303
sg12
S'Most'
p304
sg14
g76
sg16
I0
sg17
S'Nat'
p305
sg19
S'Naturlig utloest'
p306
sg21
Nsg22
S'100'
p307
sg24
S'2100'
p308
sg26
S'De fleste bratte heng, Ogsaa i mindre bratt terreng'
p309
sg28
Nsg29
g30
sg31
S'1 - Harmloest'
p310
sba(irunmatrix
M3Element
p311
(dp312
g3
Nsg4
S'Sannsynlig, Meget sannsynlig'
p313
sg6
S'gray'
p314
sg8
(lp315
sg10
S'Likely'
p316
sg12
S'Most'
p317
sg14
g76
sg16
I0
sg17
S'High'
p318
sg19
S'Stor tilleggsbelastning'
p319
sg21
Nsg22
S'100'
p320
sg24
S'2200'
p321
sg26
S'De fleste bratte heng, Ogsaa i mindre bratt terreng'
p322
sg28
Nsg29
g30
sg31
S'1 - Harmloest'
p323
sba(irunmatrix
M3Element
p324
(dp325
g3
Nsg4
S'Sannsynlig, Meget sannsynlig'
p326
sg6
S'gray'
p327
sg8
(lp328
sg10
S'Likely'
p329
sg12
S'Most'
p330
sg14
g76
sg16
I0
sg17
S'Low'
p331
sg19
S'Liten tilleggsbelastning'
p332
sg21
Nsg22
S'100'
p333
sg24
S'2300'
p334
sg26
S'De fleste bratte heng, Ogsaa i mindre bratt terreng'
p335
sg28
Nsg29
g30
sg31
S'1 - Harmloest'
p336
sba(irunmatrix
M3Element
p337
(dp338
g3
Nsg4
S'Sannsynlig, Meget sannsynlig'
p339
sg6
S'white'
p340
sg8
(lp341
sg10
S'Likely'
p342
sg12
S'Most'
p343
sg14
g76
sg16
I0
sg17
S'Nat'
p344
sg19
S'Naturlig utloest'
p345
sg21
Nsg22
S'100'
p346
sg24
S'2400'
p347
sg26
S'De fleste bratte heng, Ogsaa i mindre bratt terreng'
p348
sg28
Nsg29
S'2'
p349
sg31
S'1 - Harmloest'
p350
sba(irunmatrix
M3Element
p351
(dp352
g3
F1.5
sg4
S'Lite sannsynlig, Mulig'
p353
sg6
S'#ffff00'
p354
sg8
(lp355
I1
aI2
asg10
S'Possible'
p356
sg12
S'Isolated'
p357
sg14
g15
sg16
I1
sg17
S'High'
p358
sg19
S'Stor tilleggsbelastning'
p359
sg21
I2
sg22
S'200'
p360
sg24
S'100'
p361
sg26
S'Isolerte faresoner'
p362
sg28
g45
(g49
S'\x00\x00\x00\x00\x00\x00\xe0?'
p363
tp364
Rp365
sg29
g349
sg31
S'2 - Smaa'
p366
sba(irunmatrix
M3Element
p367
(dp368
g3
F2.0
sg4
S'Lite sannsynlig, Mulig'
p369
sg6
g354
sg8
(lp370
I2
aI2
aI2
aI2
asg10
S'Possible'
p371
sg12
S'Isolated'
p372
sg14
g15
sg16
I1
sg17
S'Low'
p373
sg19
S'Liten tilleggsbelastning'
p374
sg21
I4
sg22
S'200'
p375
sg24
S'200'
p376
sg26
S'Isolerte faresoner'
p377
sg28
g45
(g49
S'\x00\x00\x00\x00\x00\x00\x00\x00'
p378
tp379
Rp380
sg29
g349
sg31
S'2 - Smaa'
p381
sba(irunmatrix
M3Element
p382
(dp383
g3
Nsg4
S'Lite sannsynlig, Mulig'
p384
sg6
S'white'
p385
sg8
(lp386
sg10
S'Possible'
p387
sg12
S'Isolated'
p388
sg14
g15
sg16
I1
sg17
S'Nat'
p389
sg19
S'Naturlig utloest'
p390
sg21
Nsg22
S'200'
p391
sg24
S'300'
p392
sg26
S'Isolerte faresoner'
p393
sg28
Nsg29
g349
sg31
S'2 - Smaa'
p394
sba(irunmatrix
M3Element
p395
(dp396
g3
Nsg4
S'Sannsynlig, Meget sannsynlig'
p397
sg6
S'gray'
p398
sg8
(lp399
sg10
S'Likely'
p400
sg12
S'Isolated'
p401
sg14
g76
sg16
I0
sg17
S'High'
p402
sg19
S'Stor tilleggsbelastning'
p403
sg21
Nsg22
S'200'
p404
sg24
S'400'
p405
sg26
S'Isolerte faresoner'
p406
sg28
Nsg29
g349
sg31
S'2 - Smaa'
p407
sba(irunmatrix
M3Element
p408
(dp409
g3
Nsg4
S'Sannsynlig, Meget sannsynlig'
p410
sg6
S'gray'
p411
sg8
(lp412
sg10
S'Likely'
p413
sg12
S'Isolated'
p414
sg14
g76
sg16
I0
sg17
S'Low'
p415
sg19
S'Liten tilleggsbelastning'
p416
sg21
Nsg22
S'200'
p417
sg24
S'500'
p418
sg26
S'Isolerte faresoner'
p419
sg28
Nsg29
g349
sg31
S'2 - Smaa'
p420
sba(irunmatrix
M3Element
p421
(dp422
g3
Nsg4
S'Sannsynlig, Meget sannsynlig'
p423
sg6
S'gray'
p424
sg8
(lp425
sg10
S'Likely'
p426
sg12
S'Isolated'
p427
sg14
g76
sg16
I0
sg17
S'Nat'
p428
sg19
S'Naturlig utloest'
p429
sg21
Nsg22
S'200'
p430
sg24
S'600'
p431
sg26
S'Isolerte faresoner'
p432
sg28
Nsg29
g349
sg31
S'2 - Smaa'
p433
sba(irunmatrix
M3Element
p434
(dp435
g3
F1.8888888888888888
sg4
S'Lite sannsynlig, Mulig'
p436
sg6
g354
sg8
(lp437
I1
aI2
aI2
aI2
aI2
aI2
aI2
aI2
aI2
asg10
S'Possible'
p438
sg12
S'Some'
p439
sg14
g252
sg16
I2
sg17
S'High'
p440
sg19
S'Stor tilleggsbelastning'
p441
sg21
I9
sg22
S'200'
p442
sg24
S'700'
p443
sg26
S'Noen bratte heng'
p444
sg28
g45
(g49
S'\x9aQ\xff\x93\xfe\x1c\xd4?'
p445
tp446
Rp447
sg29
g349
sg31
S'2 - Smaa'
p448
sba(irunmatrix
M3Element
p449
(dp450
g3
F2.125
sg4
S'Lite sannsynlig, Mulig'
p451
sg6
g354
sg8
(lp452
I2
aI2
aI3
aI2
aI2
aI2
aI2
aI2
asg10
S'Possible'
p453
sg12
S'Some'
p454
sg14
g252
sg16
I2
sg17
S'Low'
p455
sg19
S'Liten tilleggsbelastning'
p456
sg21
I8
sg22
S'200'
p457
sg24
S'800'
p458
sg26
S'Noen bratte heng'
p459
sg28
g45
(g49
S'\xea\xf8\xd2\xa9\x7f*\xd5?'
p460
tp461
Rp462
sg29
g349
sg31
S'2 - Smaa'
p463
sba(irunmatrix
M3Element
p464
(dp465
g3
F1.5
sg4
S'Lite sannsynlig, Mulig'
p466
sg6
g354
sg8
(lp467
I1
aI1
aI2
aI2
asg10
S'Possible'
p468
sg12
S'Some'
p469
sg14
g252
sg16
I2
sg17
S'Nat'
p470
sg19
S'Naturlig utloest'
p471
sg21
I4
sg22
S'200'
p472
sg24
S'900'
p473
sg26
S'Noen bratte heng'
p474
sg28
g45
(g49
S'\x00\x00\x00\x00\x00\x00\xe0?'
p475
tp476
Rp477
sg29
g349
sg31
S'2 - Smaa'
p478
sba(irunmatrix
M3Element
p479
(dp480
g3
Nsg4
S'Sannsynlig, Meget sannsynlig'
p481
sg6
S'gray'
p482
sg8
(lp483
sg10
S'Likely'
p484
sg12
S'Some'
p485
sg14
g76
sg16
I0
sg17
S'High'
p486
sg19
S'Stor tilleggsbelastning'
p487
sg21
Nsg22
S'200'
p488
sg24
S'1000'
p489
sg26
S'Noen bratte heng'
p490
sg28
Nsg29
g349
sg31
S'2 - Smaa'
p491
sba(irunmatrix
M3Element
p492
(dp493
g3
Nsg4
S'Sannsynlig, Meget sannsynlig'
p494
sg6
S'gray'
p495
sg8
(lp496
sg10
S'Likely'
p497
sg12
S'Some'
p498
sg14
g76
sg16
I0
sg17
S'Low'
p499
sg19
S'Liten tilleggsbelastning'
p500
sg21
Nsg22
S'200'
p501
sg24
S'1100'
p502
sg26
S'Noen bratte heng'
p503
sg28
Nsg29
g349
sg31
S'2 - Smaa'
p504
sba(irunmatrix
M3Element
p505
(dp506
g3
Nsg4
S'Sannsynlig, Meget sannsynlig'
p507
sg6
S'white'
p508
sg8
(lp509
sg10
S'Likely'
p510
sg12
S'Some'
p511
sg14
S'#ff9900'
p512
sg16
I3
sg17
S'Nat'
p513
sg19
S'Naturlig utloest'
p514
sg21
Nsg22
S'200'
p515
sg24
S'1200'
p516
sg26
S'Noen bratte heng'
p517
sg28
Nsg29
g349
sg31
S'2 - Smaa'
p518
sba(irunmatrix
M3Element
p519
(dp520
g3
Nsg4
S'Lite sannsynlig, Mulig'
p521
sg6
S'gray'
p522
sg8
(lp523
sg10
S'Possible'
p524
sg12
S'Many'
p525
sg14
g76
sg16
I0
sg17
S'High'
p526
sg19
S'Stor tilleggsbelastning'
p527
sg21
Nsg22
S'200'
p528
sg24
S'1300'
p529
sg26
S'Mange bratte heng'
p530
sg28
Nsg29
g349
sg31
S'2 - Smaa'
p531
sba(irunmatrix
M3Element
p532
(dp533
g3
Nsg4
S'Lite sannsynlig, Mulig'
p534
sg6
S'white'
p535
sg8
(lp536
sg10
S'Possible'
p537
sg12
S'Many'
p538
sg14
g512
sg16
I3
sg17
S'Low'
p539
sg19
S'Liten tilleggsbelastning'
p540
sg21
Nsg22
S'200'
p541
sg24
S'1400'
p542
sg26
S'Mange bratte heng'
p543
sg28
Nsg29
g349
sg31
S'2 - Smaa'
p544
sba(irunmatrix
M3Element
p545
(dp546
g3
Nsg4
S'Lite sannsynlig, Mulig'
p547
sg6
S'gray'
p548
sg8
(lp549
sg10
S'Possible'
p550
sg12
S'Many'
p551
sg14
g76
sg16
I0
sg17
S'Nat'
p552
sg19
S'Naturlig utloest'
p553
sg21
Nsg22
S'200'
p554
sg24
S'1500'
p555
sg26
S'Mange bratte heng'
p556
sg28
Nsg29
g349
sg31
S'2 - Smaa'
p557
sba(irunmatrix
M3Element
p558
(dp559
g3
Nsg4
S'Sannsynlig, Meget sannsynlig'
p560
sg6
S'gray'
p561
sg8
(lp562
sg10
S'Likely'
p563
sg12
S'Many'
p564
sg14
g76
sg16
I0
sg17
S'High'
p565
sg19
S'Stor tilleggsbelastning'
p566
sg21
Nsg22
S'200'
p567
sg24
S'1600'
p568
sg26
S'Mange bratte heng'
p569
sg28
Nsg29
g349
sg31
S'2 - Smaa'
p570
sba(irunmatrix
M3Element
p571
(dp572
g3
Nsg4
S'Sannsynlig, Meget sannsynlig'
p573
sg6
S'white'
p574
sg8
(lp575
sg10
S'Likely'
p576
sg12
S'Many'
p577
sg14
S'#ff0000'
p578
sg16
I4
sg17
S'Low'
p579
sg19
S'Liten tilleggsbelastning'
p580
sg21
Nsg22
S'200'
p581
sg24
S'1700'
p582
sg26
S'Mange bratte heng'
p583
sg28
Nsg29
g349
sg31
S'2 - Smaa'
p584
sba(irunmatrix
M3Element
p585
(dp586
g3
Nsg4
S'Sannsynlig, Meget sannsynlig'
p587
sg6
S'white'
p588
sg8
(lp589
sg10
S'Likely'
p590
sg12
S'Many'
p591
sg14
g578
sg16
I4
sg17
S'Nat'
p592
sg19
S'Naturlig utloest'
p593
sg21
Nsg22
S'200'
p594
sg24
S'1800'
p595
sg26
S'Mange bratte heng'
p596
sg28
Nsg29
g349
sg31
S'2 - Smaa'
p597
sba(irunmatrix
M3Element
p598
(dp599
g3
Nsg4
S'Lite sannsynlig, Mulig'
p600
sg6
S'gray'
p601
sg8
(lp602
sg10
S'Possible'
p603
sg12
S'Most'
p604
sg14
g76
sg16
I0
sg17
S'High'
p605
sg19
S'Stor tilleggsbelastning'
p606
sg21
Nsg22
S'200'
p607
sg24
S'1900'
p608
sg26
S'De fleste bratte heng, Ogsaa i mindre bratt terreng'
p609
sg28
Nsg29
g349
sg31
S'2 - Smaa'
p610
sba(irunmatrix
M3Element
p611
(dp612
g3
Nsg4
S'Lite sannsynlig, Mulig'
p613
sg6
S'gray'
p614
sg8
(lp615
sg10
S'Possible'
p616
sg12
S'Most'
p617
sg14
g76
sg16
I0
sg17
S'Low'
p618
sg19
S'Liten tilleggsbelastning'
p619
sg21
Nsg22
S'200'
p620
sg24
S'2000'
p621
sg26
S'De fleste bratte heng, Ogsaa i mindre bratt terreng'
p622
sg28
Nsg29
g349
sg31
S'2 - Smaa'
p623
sba(irunmatrix
M3Element
p624
(dp625
g3
Nsg4
S'Lite sannsynlig, Mulig'
p626
sg6
S'gray'
p627
sg8
(lp628
sg10
S'Possible'
p629
sg12
S'Most'
p630
sg14
g76
sg16
I0
sg17
S'Nat'
p631
sg19
S'Naturlig utloest'
p632
sg21
Nsg22
S'200'
p633
sg24
S'2100'
p634
sg26
S'De fleste bratte heng, Ogsaa i mindre bratt terreng'
p635
sg28
Nsg29
g349
sg31
S'2 - Smaa'
p636
sba(irunmatrix
M3Element
p637
(dp638
g3
Nsg4
S'Sannsynlig, Meget sannsynlig'
p639
sg6
S'gray'
p640
sg8
(lp641
sg10
S'Likely'
p642
sg12
S'Most'
p643
sg14
g76
sg16
I0
sg17
S'High'
p644
sg19
S'Stor tilleggsbelastning'
p645
sg21
Nsg22
S'200'
p646
sg24
S'2200'
p647
sg26
S'De fleste bratte heng, Ogsaa i mindre bratt terreng'
p648
sg28
Nsg29
g349
sg31
S'2 - Smaa'
p649
sba(irunmatrix
M3Element
p650
(dp651
g3
Nsg4
S'Sannsynlig, Meget sannsynlig'
p652
sg6
S'gray'
p653
sg8
(lp654
sg10
S'Likely'
p655
sg12
S'Most'
p656
sg14
g76
sg16
I0
sg17
S'Low'
p657
sg19
S'Liten tilleggsbelastning'
p658
sg21
Nsg22
S'200'
p659
sg24
S'2300'
p660
sg26
S'De fleste bratte heng, Ogsaa i mindre bratt terreng'
p661
sg28
Nsg29
g349
sg31
S'2 - Smaa'
p662
sba(irunmatrix
M3Element
p663
(dp664
g3
Nsg4
S'Sannsynlig, Meget sannsynlig'
p665
sg6
S'white'
p666
sg8
(lp667
sg10
S'Likely'
p668
sg12
S'Most'
p669
sg14
g76
sg16
I0
sg17
S'Nat'
p670
sg19
S'Naturlig utloest'
p671
sg21
Nsg22
S'200'
p672
sg24
S'2400'
p673
sg26
S'De fleste bratte heng, Ogsaa i mindre bratt terreng'
p674
sg28
Nsg29
g349
sg31
S'2 - Smaa'
p675
sba(irunmatrix
M3Element
p676
(dp677
g3
Nsg4
S'Lite sannsynlig, Mulig'
p678
sg6
S'white'
p679
sg8
(lp680
sg10
S'Possible'
p681
sg12
S'Isolated'
p682
sg14
g15
sg16
I1
sg17
S'High'
p683
sg19
S'Stor tilleggsbelastning'
p684
sg21
Nsg22
S'300'
p685
sg24
S'100'
p686
sg26
S'Isolerte faresoner'
p687
sg28
Nsg29
S'3'
p688
sg31
S'3 - Middels'
p689
sba(irunmatrix
M3Element
p690
(dp691
g3
Nsg4
S'Lite sannsynlig, Mulig'
p692
sg6
S'white'
p693
sg8
(lp694
sg10
S'Possible'
p695
sg12
S'Isolated'
p696
sg14
g252
sg16
I2
sg17
S'Low'
p697
sg19
S'Liten tilleggsbelastning'
p698
sg21
Nsg22
S'300'
p699
sg24
S'200'
p700
sg26
S'Isolerte faresoner'
p701
sg28
Nsg29
g688
sg31
S'3 - Middels'
p702
sba(irunmatrix
M3Element
p703
(dp704
g3
Nsg4
S'Lite sannsynlig, Mulig'
p705
sg6
S'white'
p706
sg8
(lp707
sg10
S'Possible'
p708
sg12
S'Isolated'
p709
sg14
g252
sg16
I2
sg17
S'Nat'
p710
sg19
S'Naturlig utloest'
p711
sg21
Nsg22
S'300'
p712
sg24
S'300'
p713
sg26
S'Isolerte faresoner'
p714
sg28
Nsg29
g688
sg31
S'3 - Middels'
p715
sba(irunmatrix
M3Element
p716
(dp717
g3
Nsg4
S'Sannsynlig, Meget sannsynlig'
p718
sg6
S'gray'
p719
sg8
(lp720
sg10
S'Likely'
p721
sg12
S'Isolated'
p722
sg14
g76
sg16
I0
sg17
S'High'
p723
sg19
S'Stor tilleggsbelastning'
p724
sg21
Nsg22
S'300'
p725
sg24
S'400'
p726
sg26
S'Isolerte faresoner'
p727
sg28
Nsg29
g688
sg31
S'3 - Middels'
p728
sba(irunmatrix
M3Element
p729
(dp730
g3
Nsg4
S'Sannsynlig, Meget sannsynlig'
p731
sg6
S'gray'
p732
sg8
(lp733
sg10
S'Likely'
p734
sg12
S'Isolated'
p735
sg14
g76
sg16
I0
sg17
S'Low'
p736
sg19
S'Liten tilleggsbelastning'
p737
sg21
Nsg22
S'300'
p738
sg24
S'500'
p739
sg26
S'Isolerte faresoner'
p740
sg28
Nsg29
g688
sg31
S'3 - Middels'
p741
sba(irunmatrix
M3Element
p742
(dp743
g3
Nsg4
S'Sannsynlig, Meget sannsynlig'
p744
sg6
S'gray'
p745
sg8
(lp746
sg10
S'Likely'
p747
sg12
S'Isolated'
p748
sg14
g76
sg16
I0
sg17
S'Nat'
p749
sg19
S'Naturlig utloest'
p750
sg21
Nsg22
S'300'
p751
sg24
S'600'
p752
sg26
S'Isolerte faresoner'
p753
sg28
Nsg29
g688
sg31
S'3 - Middels'
p754
sba(irunmatrix
M3Element
p755
(dp756
g3
F2.0
sg4
S'Lite sannsynlig, Mulig'
p757
sg6
g354
sg8
(lp758
I2
asg10
S'Possible'
p759
sg12
S'Some'
p760
sg14
g252
sg16
I2
sg17
S'High'
p761
sg19
S'Stor tilleggsbelastning'
p762
sg21
I1
sg22
S'300'
p763
sg24
S'700'
p764
sg26
S'Noen bratte heng'
p765
sg28
g45
(g49
S'\x00\x00\x00\x00\x00\x00\x00\x00'
p766
tp767
Rp768
sg29
g688
sg31
S'3 - Middels'
p769
sba(irunmatrix
M3Element
p770
(dp771
g3
F2.0
sg4
S'Lite sannsynlig, Mulig'
p772
sg6
g354
sg8
(lp773
I2
asg10
S'Possible'
p774
sg12
S'Some'
p775
sg14
g512
sg16
I3
sg17
S'Low'
p776
sg19
S'Liten tilleggsbelastning'
p777
sg21
I1
sg22
S'300'
p778
sg24
S'800'
p779
sg26
S'Noen bratte heng'
p780
sg28
g45
(g49
S'\x00\x00\x00\x00\x00\x00\x00\x00'
p781
tp782
Rp783
sg29
g688
sg31
S'3 - Middels'
p784
sba(irunmatrix
M3Element
p785
(dp786
g3
Nsg4
S'Lite sannsynlig, Mulig'
p787
sg6
S'white'
p788
sg8
(lp789
sg10
S'Possible'
p790
sg12
S'Some'
p791
sg14
g512
sg16
I3
sg17
S'Nat'
p792
sg19
S'Naturlig utloest'
p793
sg21
Nsg22
S'300'
p794
sg24
S'900'
p795
sg26
S'Noen bratte heng'
p796
sg28
Nsg29
g688
sg31
S'3 - Middels'
p797
sba(irunmatrix
M3Element
p798
(dp799
g3
Nsg4
S'Sannsynlig, Meget sannsynlig'
p800
sg6
S'gray'
p801
sg8
(lp802
sg10
S'Likely'
p803
sg12
S'Some'
p804
sg14
g76
sg16
I0
sg17
S'High'
p805
sg19
S'Stor tilleggsbelastning'
p806
sg21
Nsg22
S'300'
p807
sg24
S'1000'
p808
sg26
S'Noen bratte heng'
p809
sg28
Nsg29
g688
sg31
S'3 - Middels'
p810
sba(irunmatrix
M3Element
p811
(dp812
g3
Nsg4
S'Sannsynlig, Meget sannsynlig'
p813
sg6
S'gray'
p814
sg8
(lp815
sg10
S'Likely'
p816
sg12
S'Some'
p817
sg14
g76
sg16
I0
sg17
S'Low'
p818
sg19
S'Liten tilleggsbelastning'
p819
sg21
Nsg22
S'300'
p820
sg24
S'1100'
p821
sg26
S'Noen bratte heng'
p822
sg28
Nsg29
g688
sg31
S'3 - Middels'
p823
sba(irunmatrix
M3Element
p824
(dp825
g3
Nsg4
S'Sannsynlig, Meget sannsynlig'
p826
sg6
S'white'
p827
sg8
(lp828
sg10
S'Likely'
p829
sg12
S'Some'
p830
sg14
g578
sg16
I4
sg17
S'Nat'
p831
sg19
S'Naturlig utloest'
p832
sg21
Nsg22
S'300'
p833
sg24
S'1200'
p834
sg26
S'Noen bratte heng'
p835
sg28
Nsg29
g688
sg31
S'3 - Middels'
p836
sba(irunmatrix
M3Element
p837
(dp838
g3
Nsg4
S'Lite sannsynlig, Mulig'
p839
sg6
S'gray'
p840
sg8
(lp841
sg10
S'Possible'
p842
sg12
S'Many'
p843
sg14
g76
sg16
I0
sg17
S'High'
p844
sg19
S'Stor tilleggsbelastning'
p845
sg21
Nsg22
S'300'
p846
sg24
S'1300'
p847
sg26
S'Mange bratte heng'
p848
sg28
Nsg29
g688
sg31
S'3 - Middels'
p849
sba(irunmatrix
M3Element
p850
(dp851
g3
Nsg4
S'Lite sannsynlig, Mulig'
p852
sg6
S'white'
p853
sg8
(lp854
sg10
S'Possible'
p855
sg12
S'Many'
p856
sg14
g578
sg16
I4
sg17
S'Low'
p857
sg19
S'Liten tilleggsbelastning'
p858
sg21
Nsg22
S'300'
p859
sg24
S'1400'
p860
sg26
S'Mange bratte heng'
p861
sg28
Nsg29
g688
sg31
S'3 - Middels'
p862
sba(irunmatrix
M3Element
p863
(dp864
g3
Nsg4
S'Lite sannsynlig, Mulig'
p865
sg6
S'gray'
p866
sg8
(lp867
sg10
S'Possible'
p868
sg12
S'Many'
p869
sg14
g76
sg16
I0
sg17
S'Nat'
p870
sg19
S'Naturlig utloest'
p871
sg21
Nsg22
S'300'
p872
sg24
S'1500'
p873
sg26
S'Mange bratte heng'
p874
sg28
Nsg29
g688
sg31
S'3 - Middels'
p875
sba(irunmatrix
M3Element
p876
(dp877
g3
Nsg4
S'Sannsynlig, Meget sannsynlig'
p878
sg6
S'gray'
p879
sg8
(lp880
sg10
S'Likely'
p881
sg12
S'Many'
p882
sg14
g76
sg16
I0
sg17
S'High'
p883
sg19
S'Stor tilleggsbelastning'
p884
sg21
Nsg22
S'300'
p885
sg24
S'1600'
p886
sg26
S'Mange bratte heng'
p887
sg28
Nsg29
g688
sg31
S'3 - Middels'
p888
sba(irunmatrix
M3Element
p889
(dp890
g3
Nsg4
S'Sannsynlig, Meget sannsynlig'
p891
sg6
S'white'
p892
sg8
(lp893
sg10
S'Likely'
p894
sg12
S'Many'
p895
sg14
g578
sg16
I4
sg17
S'Low'
p896
sg19
S'Liten tilleggsbelastning'
p897
sg21
Nsg22
S'300'
p898
sg24
S'1700'
p899
sg26
S'Mange bratte heng'
p900
sg28
Nsg29
g688
sg31
S'3 - Middels'
p901
sba(irunmatrix
M3Element
p902
(dp903
g3
Nsg4
S'Sannsynlig, Meget sannsynlig'
p904
sg6
S'white'
p905
sg8
(lp906
sg10
S'Likely'
p907
sg12
S'Many'
p908
sg14
g578
sg16
I4
sg17
S'Nat'
p909
sg19
S'Naturlig utloest'
p910
sg21
Nsg22
S'300'
p911
sg24
S'1800'
p912
sg26
S'Mange bratte heng'
p913
sg28
Nsg29
g688
sg31
S'3 - Middels'
p914
sba(irunmatrix
M3Element
p915
(dp916
g3
Nsg4
S'Lite sannsynlig, Mulig'
p917
sg6
S'gray'
p918
sg8
(lp919
sg10
S'Possible'
p920
sg12
S'Most'
p921
sg14
g76
sg16
I0
sg17
S'High'
p922
sg19
S'Stor tilleggsbelastning'
p923
sg21
Nsg22
S'300'
p924
sg24
S'1900'
p925
sg26
S'De fleste bratte heng, Ogsaa i mindre bratt terreng'
p926
sg28
Nsg29
g688
sg31
S'3 - Middels'
p927
sba(irunmatrix
M3Element
p928
(dp929
g3
Nsg4
S'Lite sannsynlig, Mulig'
p930
sg6
S'gray'
p931
sg8
(lp932
sg10
S'Possible'
p933
sg12
S'Most'
p934
sg14
g76
sg16
I0
sg17
S'Low'
p935
sg19
S'Liten tilleggsbelastning'
p936
sg21
Nsg22
S'300'
p937
sg24
S'2000'
p938
sg26
S'De fleste bratte heng, Ogsaa i mindre bratt terreng'
p939
sg28
Nsg29
g688
sg31
S'3 - Middels'
p940
sba(irunmatrix
M3Element
p941
(dp942
g3
Nsg4
S'Lite sannsynlig, Mulig'
p943
sg6
S'gray'
p944
sg8
(lp945
sg10
S'Possible'
p946
sg12
S'Most'
p947
sg14
g76
sg16
I0
sg17
S'Nat'
p948
sg19
S'Naturlig utloest'
p949
sg21
Nsg22
S'300'
p950
sg24
S'2100'
p951
sg26
S'De fleste bratte heng, Ogsaa i mindre bratt terreng'
p952
sg28
Nsg29
g688
sg31
S'3 - Middels'
p953
sba(irunmatrix
M3Element
p954
(dp955
g3
Nsg4
S'Sannsynlig, Meget sannsynlig'
p956
sg6
S'gray'
p957
sg8
(lp958
sg10
S'Likely'
p959
sg12
S'Most'
p960
sg14
g76
sg16
I0
sg17
S'High'
p961
sg19
S'Stor tilleggsbelastning'
p962
sg21
Nsg22
S'300'
p963
sg24
S'2200'
p964
sg26
S'De fleste bratte heng, Ogsaa i mindre bratt terreng'
p965
sg28
Nsg29
g688
sg31
S'3 - Middels'
p966
sba(irunmatrix
M3Element
p967
(dp968
g3
Nsg4
S'Sannsynlig, Meget sannsynlig'
p969
sg6
S'gray'
p970
sg8
(lp971
sg10
S'Likely'
p972
sg12
S'Most'
p973
sg14
g76
sg16
I0
sg17
S'Low'
p974
sg19
S'Liten tilleggsbelastning'
p975
sg21
Nsg22
S'300'
p976
sg24
S'2300'
p977
sg26
S'De fleste bratte heng, Ogsaa i mindre bratt terreng'
p978
sg28
Nsg29
g688
sg31
S'3 - Middels'
p979
sba(irunmatrix
M3Element
p980
(dp981
g3
Nsg4
S'Sannsynlig, Meget sannsynlig'
p982
sg6
S'white'
p983
sg8
(lp984
sg10
S'Likely'
p985
sg12
S'Most'
p986
sg14
g76
sg16
I0
sg17
S'Nat'
p987
sg19
S'Naturlig utloest'
p988
sg21
Nsg22
S'300'
p989
sg24
S'2400'
p990
sg26
S'De fleste bratte heng, Ogsaa i mindre bratt terreng'
p991
sg28
Nsg29
g688
sg31
S'3 - Middels'
p992
sba(irunmatrix
M3Element
p993
(dp994
g3
Nsg4
S'Lite sannsynlig, Mulig'
p995
sg6
S'white'
p996
sg8
(lp997
sg10
S'Possible'
p998
sg12
S'Isolated'
p999
sg14
g252
sg16
I2
sg17
S'High'
p1000
sg19
S'Stor tilleggsbelastning'
p1001
sg21
Nsg22
S'400'
p1002
sg24
S'100'
p1003
sg26
S'Isolerte faresoner'
p1004
sg28
Nsg29
S'4'
p1005
sg31
S'4 - Store'
p1006
sba(irunmatrix
M3Element
p1007
(dp1008
g3
Nsg4
S'Lite sannsynlig, Mulig'
p1009
sg6
S'white'
p1010
sg8
(lp1011
sg10
S'Possible'
p1012
sg12
S'Isolated'
p1013
sg14
g512
sg16
I3
sg17
S'Low'
p1014
sg19
S'Liten tilleggsbelastning'
p1015
sg21
Nsg22
S'400'
p1016
sg24
S'200'
p1017
sg26
S'Isolerte faresoner'
p1018
sg28
Nsg29
g1005
sg31
S'4 - Store'
p1019
sba(irunmatrix
M3Element
p1020
(dp1021
g3
Nsg4
S'Lite sannsynlig, Mulig'
p1022
sg6
S'white'
p1023
sg8
(lp1024
sg10
S'Possible'
p1025
sg12
S'Isolated'
p1026
sg14
g512
sg16
I3
sg17
S'Nat'
p1027
sg19
S'Naturlig utloest'
p1028
sg21
Nsg22
S'400'
p1029
sg24
S'300'
p1030
sg26
S'Isolerte faresoner'
p1031
sg28
Nsg29
g1005
sg31
S'4 - Store'
p1032
sba(irunmatrix
M3Element
p1033
(dp1034
g3
Nsg4
S'Sannsynlig, Meget sannsynlig'
p1035
sg6
S'gray'
p1036
sg8
(lp1037
sg10
S'Likely'
p1038
sg12
S'Isolated'
p1039
sg14
g76
sg16
I0
sg17
S'High'
p1040
sg19
S'Stor tilleggsbelastning'
p1041
sg21
Nsg22
S'400'
p1042
sg24
S'400'
p1043
sg26
S'Isolerte faresoner'
p1044
sg28
Nsg29
g1005
sg31
S'4 - Store'
p1045
sba(irunmatrix
M3Element
p1046
(dp1047
g3
Nsg4
S'Sannsynlig, Meget sannsynlig'
p1048
sg6
S'gray'
p1049
sg8
(lp1050
sg10
S'Likely'
p1051
sg12
S'Isolated'
p1052
sg14
g76
sg16
I0
sg17
S'Low'
p1053
sg19
S'Liten tilleggsbelastning'
p1054
sg21
Nsg22
S'400'
p1055
sg24
S'500'
p1056
sg26
S'Isolerte faresoner'
p1057
sg28
Nsg29
g1005
sg31
S'4 - Store'
p1058
sba(irunmatrix
M3Element
p1059
(dp1060
g3
Nsg4
S'Sannsynlig, Meget sannsynlig'
p1061
sg6
S'gray'
p1062
sg8
(lp1063
sg10
S'Likely'
p1064
sg12
S'Isolated'
p1065
sg14
g76
sg16
I0
sg17
S'Nat'
p1066
sg19
S'Naturlig utloest'
p1067
sg21
Nsg22
S'400'
p1068
sg24
S'600'
p1069
sg26
S'Isolerte faresoner'
p1070
sg28
Nsg29
g1005
sg31
S'4 - Store'
p1071
sba(irunmatrix
M3Element
p1072
(dp1073
g3
Nsg4
S'Lite sannsynlig, Mulig'
p1074
sg6
S'white'
p1075
sg8
(lp1076
sg10
S'Possible'
p1077
sg12
S'Some'
p1078
sg14
g512
sg16
I3
sg17
S'High'
p1079
sg19
S'Stor tilleggsbelastning'
p1080
sg21
Nsg22
S'400'
p1081
sg24
S'700'
p1082
sg26
S'Noen bratte heng'
p1083
sg28
Nsg29
g1005
sg31
S'4 - Store'
p1084
sba(irunmatrix
M3Element
p1085
(dp1086
g3
Nsg4
S'Lite sannsynlig, Mulig'
p1087
sg6
S'white'
p1088
sg8
(lp1089
sg10
S'Possible'
p1090
sg12
S'Some'
p1091
sg14
g578
sg16
I4
sg17
S'Low'
p1092
sg19
S'Liten tilleggsbelastning'
p1093
sg21
Nsg22
S'400'
p1094
sg24
S'800'
p1095
sg26
S'Noen bratte heng'
p1096
sg28
Nsg29
g1005
sg31
S'4 - Store'
p1097
sba(irunmatrix
M3Element
p1098
(dp1099
g3
Nsg4
S'Lite sannsynlig, Mulig'
p1100
sg6
S'white'
p1101
sg8
(lp1102
sg10
S'Possible'
p1103
sg12
S'Some'
p1104
sg14
g578
sg16
I4
sg17
S'Nat'
p1105
sg19
S'Naturlig utloest'
p1106
sg21
Nsg22
S'400'
p1107
sg24
S'900'
p1108
sg26
S'Noen bratte heng'
p1109
sg28
Nsg29
g1005
sg31
S'4 - Store'
p1110
sba(irunmatrix
M3Element
p1111
(dp1112
g3
Nsg4
S'Sannsynlig, Meget sannsynlig'
p1113
sg6
S'gray'
p1114
sg8
(lp1115
sg10
S'Likely'
p1116
sg12
S'Some'
p1117
sg14
g76
sg16
I0
sg17
S'High'
p1118
sg19
S'Stor tilleggsbelastning'
p1119
sg21
Nsg22
S'400'
p1120
sg24
S'1000'
p1121
sg26
S'Noen bratte heng'
p1122
sg28
Nsg29
g1005
sg31
S'4 - Store'
p1123
sba(irunmatrix
M3Element
p1124
(dp1125
g3
Nsg4
S'Sannsynlig, Meget sannsynlig'
p1126
sg6
S'gray'
p1127
sg8
(lp1128
sg10
S'Likely'
p1129
sg12
S'Some'
p1130
sg14
g76
sg16
I0
sg17
S'Low'
p1131
sg19
S'Liten tilleggsbelastning'
p1132
sg21
Nsg22
S'400'
p1133
sg24
S'1100'
p1134
sg26
S'Noen bratte heng'
p1135
sg28
Nsg29
g1005
sg31
S'4 - Store'
p1136
sba(irunmatrix
M3Element
p1137
(dp1138
g3
Nsg4
S'Sannsynlig, Meget sannsynlig'
p1139
sg6
S'white'
p1140
sg8
(lp1141
sg10
S'Likely'
p1142
sg12
S'Some'
p1143
sg14
g578
sg16
I4
sg17
S'Nat'
p1144
sg19
S'Naturlig utloest'
p1145
sg21
Nsg22
S'400'
p1146
sg24
S'1200'
p1147
sg26
S'Noen bratte heng'
p1148
sg28
Nsg29
g1005
sg31
S'4 - Store'
p1149
sba(irunmatrix
M3Element
p1150
(dp1151
g3
Nsg4
S'Lite sannsynlig, Mulig'
p1152
sg6
S'gray'
p1153
sg8
(lp1154
sg10
S'Possible'
p1155
sg12
S'Many'
p1156
sg14
g76
sg16
I0
sg17
S'High'
p1157
sg19
S'Stor tilleggsbelastning'
p1158
sg21
Nsg22
S'400'
p1159
sg24
S'1300'
p1160
sg26
S'Mange bratte heng'
p1161
sg28
Nsg29
g1005
sg31
S'4 - Store'
p1162
sba(irunmatrix
M3Element
p1163
(dp1164
g3
Nsg4
S'Lite sannsynlig, Mulig'
p1165
sg6
S'white'
p1166
sg8
(lp1167
sg10
S'Possible'
p1168
sg12
S'Many'
p1169
sg14
g76
sg16
I0
sg17
S'Low'
p1170
sg19
S'Liten tilleggsbelastning'
p1171
sg21
Nsg22
S'400'
p1172
sg24
S'1400'
p1173
sg26
S'Mange bratte heng'
p1174
sg28
Nsg29
g1005
sg31
S'4 - Store'
p1175
sba(irunmatrix
M3Element
p1176
(dp1177
g3
Nsg4
S'Lite sannsynlig, Mulig'
p1178
sg6
S'gray'
p1179
sg8
(lp1180
sg10
S'Possible'
p1181
sg12
S'Many'
p1182
sg14
g76
sg16
I0
sg17
S'Nat'
p1183
sg19
S'Naturlig utloest'
p1184
sg21
Nsg22
S'400'
p1185
sg24
S'1500'
p1186
sg26
S'Mange bratte heng'
p1187
sg28
Nsg29
g1005
sg31
S'4 - Store'
p1188
sba(irunmatrix
M3Element
p1189
(dp1190
g3
Nsg4
S'Sannsynlig, Meget sannsynlig'
p1191
sg6
S'gray'
p1192
sg8
(lp1193
sg10
S'Likely'
p1194
sg12
S'Many'
p1195
sg14
g76
sg16
I0
sg17
S'High'
p1196
sg19
S'Stor tilleggsbelastning'
p1197
sg21
Nsg22
S'400'
p1198
sg24
S'1600'
p1199
sg26
S'Mange bratte heng'
p1200
sg28
Nsg29
g1005
sg31
S'4 - Store'
p1201
sba(irunmatrix
M3Element
p1202
(dp1203
g3
Nsg4
S'Sannsynlig, Meget sannsynlig'
p1204
sg6
S'white'
p1205
sg8
(lp1206
sg10
S'Likely'
p1207
sg12
S'Many'
p1208
sg14
g76
sg16
I0
sg17
S'Low'
p1209
sg19
S'Liten tilleggsbelastning'
p1210
sg21
Nsg22
S'400'
p1211
sg24
S'1700'
p1212
sg26
S'Mange bratte heng'
p1213
sg28
Nsg29
g1005
sg31
S'4 - Store'
p1214
sba(irunmatrix
M3Element
p1215
(dp1216
g3
Nsg4
S'Sannsynlig, Meget sannsynlig'
p1217
sg6
S'white'
p1218
sg8
(lp1219
sg10
S'Likely'
p1220
sg12
S'Many'
p1221
sg14
S'k'
p1222
sg16
I5
sg17
S'Nat'
p1223
sg19
S'Naturlig utloest'
p1224
sg21
Nsg22
S'400'
p1225
sg24
S'1800'
p1226
sg26
S'Mange bratte heng'
p1227
sg28
Nsg29
g1005
sg31
S'4 - Store'
p1228
sba(irunmatrix
M3Element
p1229
(dp1230
g3
Nsg4
S'Lite sannsynlig, Mulig'
p1231
sg6
S'gray'
p1232
sg8
(lp1233
sg10
S'Possible'
p1234
sg12
S'Most'
p1235
sg14
g76
sg16
I0
sg17
S'High'
p1236
sg19
S'Stor tilleggsbelastning'
p1237
sg21
Nsg22
S'400'
p1238
sg24
S'1900'
p1239
sg26
S'De fleste bratte heng, Ogsaa i mindre bratt terreng'
p1240
sg28
Nsg29
g1005
sg31
S'4 - Store'
p1241
sba(irunmatrix
M3Element
p1242
(dp1243
g3
Nsg4
S'Lite sannsynlig, Mulig'
p1244
sg6
S'gray'
p1245
sg8
(lp1246
sg10
S'Possible'
p1247
sg12
S'Most'
p1248
sg14
g76
sg16
I0
sg17
S'Low'
p1249
sg19
S'Liten tilleggsbelastning'
p1250
sg21
Nsg22
S'400'
p1251
sg24
S'2000'
p1252
sg26
S'De fleste bratte heng, Ogsaa i mindre bratt terreng'
p1253
sg28
Nsg29
g1005
sg31
S'4 - Store'
p1254
sba(irunmatrix
M3Element
p1255
(dp1256
g3
Nsg4
S'Lite sannsynlig, Mulig'
p1257
sg6
S'gray'
p1258
sg8
(lp1259
sg10
S'Possible'
p1260
sg12
S'Most'
p1261
sg14
g76
sg16
I0
sg17
S'Nat'
p1262
sg19
S'Naturlig utloest'
p1263
sg21
Nsg22
S'400'
p1264
sg24
S'2100'
p1265
sg26
S'De fleste bratte heng, Ogsaa i mindre bratt terreng'
p1266
sg28
Nsg29
g1005
sg31
S'4 - Store'
p1267
sba(irunmatrix
M3Element
p1268
(dp1269
g3
Nsg4
S'Sannsynlig, Meget sannsynlig'
p1270
sg6
S'gray'
p1271
sg8
(lp1272
sg10
S'Likely'
p1273
sg12
S'Most'
p1274
sg14
g76
sg16
I0
sg17
S'High'
p1275
sg19
S'Stor tilleggsbelastning'
p1276
sg21
Nsg22
S'400'
p1277
sg24
S'2200'
p1278
sg26
S'De fleste bratte heng, Ogsaa i mindre bratt terreng'
p1279
sg28
Nsg29
g1005
sg31
S'4 - Store'
p1280
sba(irunmatrix
M3Element
p1281
(dp1282
g3
Nsg4
S'Sannsynlig, Meget sannsynlig'
p1283
sg6
S'gray'
p1284
sg8
(lp1285
sg10
S'Likely'
p1286
sg12
S'Most'
p1287
sg14
g76
sg16
I0
sg17
S'Low'
p1288
sg19
S'Liten tilleggsbelastning'
p1289
sg21
Nsg22
S'400'
p1290
sg24
S'2300'
p1291
sg26
S'De fleste bratte heng, Ogsaa i mindre bratt terreng'
p1292
sg28
Nsg29
g1005
sg31
S'4 - Store'
p1293
sba(irunmatrix
M3Element
p1294
(dp1295
g3
Nsg4
S'Sannsynlig, Meget sannsynlig'
p1296
sg6
S'white'
p1297
sg8
(lp1298
sg10
S'Likely'
p1299
sg12
S'Most'
p1300
sg14
g76
sg16
I0
sg17
S'Nat'
p1301
sg19
S'Naturlig utloest'
p1302
sg21
Nsg22
S'400'
p1303
sg24
S'2400'
p1304
sg26
S'De fleste bratte heng, Ogsaa i mindre bratt terreng'
p1305
sg28
Nsg29
g1005
sg31
S'4 - Store'
p1306
sba(irunmatrix
M3Element
p1307
(dp1308
g3
Nsg4
S'Lite sannsynlig, Mulig'
p1309
sg6
S'white'
p1310
sg8
(lp1311
sg10
S'Possible'
p1312
sg12
S'Isolated'
p1313
sg14
g76
sg16
I0
sg17
S'High'
p1314
sg19
S'Stor tilleggsbelastning'
p1315
sg21
Nsg22
S'500'
p1316
sg24
S'100'
p1317
sg26
S'Isolerte faresoner'
p1318
sg28
Nsg29
S'5'
p1319
sg31
S'5 - Svaert store'
p1320
sba(irunmatrix
M3Element
p1321
(dp1322
g3
Nsg4
S'Lite sannsynlig, Mulig'
p1323
sg6
S'white'
p1324
sg8
(lp1325
sg10
S'Possible'
p1326
sg12
S'Isolated'
p1327
sg14
g76
sg16
I0
sg17
S'Low'
p1328
sg19
S'Liten tilleggsbelastning'
p1329
sg21
Nsg22
S'500'
p1330
sg24
S'200'
p1331
sg26
S'Isolerte faresoner'
p1332
sg28
Nsg29
g1319
sg31
S'5 - Svaert store'
p1333
sba(irunmatrix
M3Element
p1334
(dp1335
g3
Nsg4
S'Lite sannsynlig, Mulig'
p1336
sg6
S'white'
p1337
sg8
(lp1338
sg10
S'Possible'
p1339
sg12
S'Isolated'
p1340
sg14
g76
sg16
I0
sg17
S'Nat'
p1341
sg19
S'Naturlig utloest'
p1342
sg21
Nsg22
S'500'
p1343
sg24
S'300'
p1344
sg26
S'Isolerte faresoner'
p1345
sg28
Nsg29
g1319
sg31
S'5 - Svaert store'
p1346
sba(irunmatrix
M3Element
p1347
(dp1348
g3
Nsg4
S'Sannsynlig, Meget sannsynlig'
p1349
sg6
S'gray'
p1350
sg8
(lp1351
sg10
S'Likely'
p1352
sg12
S'Isolated'
p1353
sg14
g76
sg16
I0
sg17
S'High'
p1354
sg19
S'Stor tilleggsbelastning'
p1355
sg21
Nsg22
S'500'
p1356
sg24
S'400'
p1357
sg26
S'Isolerte faresoner'
p1358
sg28
Nsg29
g1319
sg31
S'5 - Svaert store'
p1359
sba(irunmatrix
M3Element
p1360
(dp1361
g3
Nsg4
S'Sannsynlig, Meget sannsynlig'
p1362
sg6
S'gray'
p1363
sg8
(lp1364
sg10
S'Likely'
p1365
sg12
S'Isolated'
p1366
sg14
g76
sg16
I0
sg17
S'Low'
p1367
sg19
S'Liten tilleggsbelastning'
p1368
sg21
Nsg22
S'500'
p1369
sg24
S'500'
p1370
sg26
S'Isolerte faresoner'
p1371
sg28
Nsg29
g1319
sg31
S'5 - Svaert store'
p1372
sba(irunmatrix
M3Element
p1373
(dp1374
g3
Nsg4
S'Sannsynlig, Meget sannsynlig'
p1375
sg6
S'gray'
p1376
sg8
(lp1377
sg10
S'Likely'
p1378
sg12
S'Isolated'
p1379
sg14
g76
sg16
I0
sg17
S'Nat'
p1380
sg19
S'Naturlig utloest'
p1381
sg21
Nsg22
S'500'
p1382
sg24
S'600'
p1383
sg26
S'Isolerte faresoner'
p1384
sg28
Nsg29
g1319
sg31
S'5 - Svaert store'
p1385
sba(irunmatrix
M3Element
p1386
(dp1387
g3
Nsg4
S'Lite sannsynlig, Mulig'
p1388
sg6
S'white'
p1389
sg8
(lp1390
sg10
S'Possible'
p1391
sg12
S'Some'
p1392
sg14
g76
sg16
I0
sg17
S'High'
p1393
sg19
S'Stor tilleggsbelastning'
p1394
sg21
Nsg22
S'500'
p1395
sg24
S'700'
p1396
sg26
S'Noen bratte heng'
p1397
sg28
Nsg29
g1319
sg31
S'5 - Svaert store'
p1398
sba(irunmatrix
M3Element
p1399
(dp1400
g3
Nsg4
S'Lite sannsynlig, Mulig'
p1401
sg6
S'white'
p1402
sg8
(lp1403
sg10
S'Possible'
p1404
sg12
S'Some'
p1405
sg14
g76
sg16
I0
sg17
S'Low'
p1406
sg19
S'Liten tilleggsbelastning'
p1407
sg21
Nsg22
S'500'
p1408
sg24
S'800'
p1409
sg26
S'Noen bratte heng'
p1410
sg28
Nsg29
g1319
sg31
S'5 - Svaert store'
p1411
sba(irunmatrix
M3Element
p1412
(dp1413
g3
Nsg4
S'Lite sannsynlig, Mulig'
p1414
sg6
S'white'
p1415
sg8
(lp1416
sg10
S'Possible'
p1417
sg12
S'Some'
p1418
sg14
g76
sg16
I0
sg17
S'Nat'
p1419
sg19
S'Naturlig utloest'
p1420
sg21
Nsg22
S'500'
p1421
sg24
S'900'
p1422
sg26
S'Noen bratte heng'
p1423
sg28
Nsg29
g1319
sg31
S'5 - Svaert store'
p1424
sba(irunmatrix
M3Element
p1425
(dp1426
g3
Nsg4
S'Sannsynlig, Meget sannsynlig'
p1427
sg6
S'gray'
p1428
sg8
(lp1429
sg10
S'Likely'
p1430
sg12
S'Some'
p1431
sg14
g76
sg16
I0
sg17
S'High'
p1432
sg19
S'Stor tilleggsbelastning'
p1433
sg21
Nsg22
S'500'
p1434
sg24
S'1000'
p1435
sg26
S'Noen bratte heng'
p1436
sg28
Nsg29
g1319
sg31
S'5 - Svaert store'
p1437
sba(irunmatrix
M3Element
p1438
(dp1439
g3
Nsg4
S'Sannsynlig, Meget sannsynlig'
p1440
sg6
S'gray'
p1441
sg8
(lp1442
sg10
S'Likely'
p1443
sg12
S'Some'
p1444
sg14
g76
sg16
I0
sg17
S'Low'
p1445
sg19
S'Liten tilleggsbelastning'
p1446
sg21
Nsg22
S'500'
p1447
sg24
S'1100'
p1448
sg26
S'Noen bratte heng'
p1449
sg28
Nsg29
g1319
sg31
S'5 - Svaert store'
p1450
sba(irunmatrix
M3Element
p1451
(dp1452
g3
Nsg4
S'Sannsynlig, Meget sannsynlig'
p1453
sg6
S'white'
p1454
sg8
(lp1455
sg10
S'Likely'
p1456
sg12
S'Some'
p1457
sg14
g76
sg16
I0
sg17
S'Nat'
p1458
sg19
S'Naturlig utloest'
p1459
sg21
Nsg22
S'500'
p1460
sg24
S'1200'
p1461
sg26
S'Noen bratte heng'
p1462
sg28
Nsg29
g1319
sg31
S'5 - Svaert store'
p1463
sba(irunmatrix
M3Element
p1464
(dp1465
g3
Nsg4
S'Lite sannsynlig, Mulig'
p1466
sg6
S'gray'
p1467
sg8
(lp1468
sg10
S'Possible'
p1469
sg12
S'Many'
p1470
sg14
g76
sg16
I0
sg17
S'High'
p1471
sg19
S'Stor tilleggsbelastning'
p1472
sg21
Nsg22
S'500'
p1473
sg24
S'1300'
p1474
sg26
S'Mange bratte heng'
p1475
sg28
Nsg29
g1319
sg31
S'5 - Svaert store'
p1476
sba(irunmatrix
M3Element
p1477
(dp1478
g3
Nsg4
S'Lite sannsynlig, Mulig'
p1479
sg6
S'white'
p1480
sg8
(lp1481
sg10
S'Possible'
p1482
sg12
S'Many'
p1483
sg14
g76
sg16
I0
sg17
S'Low'
p1484
sg19
S'Liten tilleggsbelastning'
p1485
sg21
Nsg22
S'500'
p1486
sg24
S'1400'
p1487
sg26
S'Mange bratte heng'
p1488
sg28
Nsg29
g1319
sg31
S'5 - Svaert store'
p1489
sba(irunmatrix
M3Element
p1490
(dp1491
g3
Nsg4
S'Lite sannsynlig, Mulig'
p1492
sg6
S'gray'
p1493
sg8
(lp1494
sg10
S'Possible'
p1495
sg12
S'Many'
p1496
sg14
g76
sg16
I0
sg17
S'Nat'
p1497
sg19
S'Naturlig utloest'
p1498
sg21
Nsg22
S'500'
p1499
sg24
S'1500'
p1500
sg26
S'Mange bratte heng'
p1501
sg28
Nsg29
g1319
sg31
S'5 - Svaert store'
p1502
sba(irunmatrix
M3Element
p1503
(dp1504
g3
Nsg4
S'Sannsynlig, Meget sannsynlig'
p1505
sg6
S'gray'
p1506
sg8
(lp1507
sg10
S'Likely'
p1508
sg12
S'Many'
p1509
sg14
g76
sg16
I0
sg17
S'High'
p1510
sg19
S'Stor tilleggsbelastning'
p1511
sg21
Nsg22
S'500'
p1512
sg24
S'1600'
p1513
sg26
S'Mange bratte heng'
p1514
sg28
Nsg29
g1319
sg31
S'5 - Svaert store'
p1515
sba(irunmatrix
M3Element
p1516
(dp1517
g3
Nsg4
S'Sannsynlig, Meget sannsynlig'
p1518
sg6
S'white'
p1519
sg8
(lp1520
sg10
S'Likely'
p1521
sg12
S'Many'
p1522
sg14
g76
sg16
I0
sg17
S'Low'
p1523
sg19
S'Liten tilleggsbelastning'
p1524
sg21
Nsg22
S'500'
p1525
sg24
S'1700'
p1526
sg26
S'Mange bratte heng'
p1527
sg28
Nsg29
g1319
sg31
S'5 - Svaert store'
p1528
sba(irunmatrix
M3Element
p1529
(dp1530
g3
Nsg4
S'Sannsynlig, Meget sannsynlig'
p1531
sg6
S'white'
p1532
sg8
(lp1533
sg10
S'Likely'
p1534
sg12
S'Many'
p1535
sg14
g1222
sg16
I5
sg17
S'Nat'
p1536
sg19
S'Naturlig utloest'
p1537
sg21
Nsg22
S'500'
p1538
sg24
S'1800'
p1539
sg26
S'Mange bratte heng'
p1540
sg28
Nsg29
g1319
sg31
S'5 - Svaert store'
p1541
sba(irunmatrix
M3Element
p1542
(dp1543
g3
Nsg4
S'Lite sannsynlig, Mulig'
p1544
sg6
S'gray'
p1545
sg8
(lp1546
sg10
S'Possible'
p1547
sg12
S'Most'
p1548
sg14
g76
sg16
I0
sg17
S'High'
p1549
sg19
S'Stor tilleggsbelastning'
p1550
sg21
Nsg22
S'500'
p1551
sg24
S'1900'
p1552
sg26
S'De fleste bratte heng, Ogsaa i mindre bratt terreng'
p1553
sg28
Nsg29
g1319
sg31
S'5 - Svaert store'
p1554
sba(irunmatrix
M3Element
p1555
(dp1556
g3
Nsg4
S'Lite sannsynlig, Mulig'
p1557
sg6
S'gray'
p1558
sg8
(lp1559
sg10
S'Possible'
p1560
sg12
S'Most'
p1561
sg14
g76
sg16
I0
sg17
S'Low'
p1562
sg19
S'Liten tilleggsbelastning'
p1563
sg21
Nsg22
S'500'
p1564
sg24
S'2000'
p1565
sg26
S'De fleste bratte heng, Ogsaa i mindre bratt terreng'
p1566
sg28
Nsg29
g1319
sg31
S'5 - Svaert store'
p1567
sba(irunmatrix
M3Element
p1568
(dp1569
g3
Nsg4
S'Lite sannsynlig, Mulig'
p1570
sg6
S'gray'
p1571
sg8
(lp1572
sg10
S'Possible'
p1573
sg12
S'Most'
p1574
sg14
g76
sg16
I0
sg17
S'Nat'
p1575
sg19
S'Naturlig utloest'
p1576
sg21
Nsg22
S'500'
p1577
sg24
S'2100'
p1578
sg26
S'De fleste bratte heng, Ogsaa i mindre bratt terreng'
p1579
sg28
Nsg29
g1319
sg31
S'5 - Svaert store'
p1580
sba(irunmatrix
M3Element
p1581
(dp1582
g3
Nsg4
S'Sannsynlig, Meget sannsynlig'
p1583
sg6
S'gray'
p1584
sg8
(lp1585
sg10
S'Likely'
p1586
sg12
S'Most'
p1587
sg14
g76
sg16
I0
sg17
S'High'
p1588
sg19
S'Stor tilleggsbelastning'
p1589
sg21
Nsg22
S'500'
p1590
sg24
S'2200'
p1591
sg26
S'De fleste bratte heng, Ogsaa i mindre bratt terreng'
p1592
sg28
Nsg29
g1319
sg31
S'5 - Svaert store'
p1593
sba(irunmatrix
M3Element
p1594
(dp1595
g3
Nsg4
S'Sannsynlig, Meget sannsynlig'
p1596
sg6
S'gray'
p1597
sg8
(lp1598
sg10
S'Likely'
p1599
sg12
S'Most'
p1600
sg14
g76
sg16
I0
sg17
S'Low'
p1601
sg19
S'Liten tilleggsbelastning'
p1602
sg21
Nsg22
S'500'
p1603
sg24
S'2300'
p1604
sg26
S'De fleste bratte heng, Ogsaa i mindre bratt terreng'
p1605
sg28
Nsg29
g1319
sg31
S'5 - Svaert store'
p1606
sba(irunmatrix
M3Element
p1607
(dp1608
g3
Nsg4
S'Sannsynlig, Meget sannsynlig'
p1609
sg6
S'white'
p1610
sg8
(lp1611
sg10
S'Likely'
p1612
sg12
S'Most'
p1613
sg14
g76
sg16
I0
sg17
S'Nat'
p1614
sg19
S'Naturlig utloest'
p1615
sg21
Nsg22
S'500'
p1616
sg24
S'2400'
p1617
sg26
S'De fleste bratte heng, Ogsaa i mindre bratt terreng'
p1618
sg28
Nsg29
g1319
sg31
S'5 - Svaert store'
p1619
sba.