(dp0
S'trigger'
p1
(dp2
S'keys'
p3
(lp4
S'Stor tilleggsbelastning'
p5
aS'Liten tilleggsbelastning'
p6
aS'Naturlig utloest'
p7
asS'colors'
p8
(lp9
S'0.7'
p10
asS'values'
p11
(lp12
S'Stor tilleggsbelastning'
p13
aS'Stor tilleggsbelastning'
p14
aS'Stor tilleggsbelastning'
p15
aS'Stor tilleggsbelastning'
p16
aS'Stor tilleggsbelastning'
p17
aS'Liten tilleggsbelastning'
p18
aS'Liten tilleggsbelastning'
p19
aS'Liten tilleggsbelastning'
p20
aS'Liten tilleggsbelastning'
p21
aS'Liten tilleggsbelastning'
p22
aS'Liten tilleggsbelastning'
p23
aS'Liten tilleggsbelastning'
p24
aS'Liten tilleggsbelastning'
p25
aS'Stor tilleggsbelastning'
p26
aS'Stor tilleggsbelastning'
p27
aS'Stor tilleggsbelastning'
p28
aS'Stor tilleggsbelastning'
p29
aS'Stor tilleggsbelastning'
p30
aS'Stor tilleggsbelastning'
p31
aS'Stor tilleggsbelastning'
p32
aS'Stor tilleggsbelastning'
p33
aS'Stor tilleggsbelastning'
p34
aS'Stor tilleggsbelastning'
p35
aS'Liten tilleggsbelastning'
p36
aS'Liten tilleggsbelastning'
p37
aS'Stor tilleggsbelastning'
p38
aS'Liten tilleggsbelastning'
p39
aS'Liten tilleggsbelastning'
p40
aS'Liten tilleggsbelastning'
p41
aS'Liten tilleggsbelastning'
p42
aS'Stor tilleggsbelastning'
p43
aS'Liten tilleggsbelastning'
p44
aS'Liten tilleggsbelastning'
p45
aS'Liten tilleggsbelastning'
p46
aS'Liten tilleggsbelastning'
p47
aS'Liten tilleggsbelastning'
p48
aS'Liten tilleggsbelastning'
p49
aS'Liten tilleggsbelastning'
p50
aS'Liten tilleggsbelastning'
p51
aS'Liten tilleggsbelastning'
p52
aS'Liten tilleggsbelastning'
p53
aS'Liten tilleggsbelastning'
p54
aS'Liten tilleggsbelastning'
p55
aS'Liten tilleggsbelastning'
p56
aS'Liten tilleggsbelastning'
p57
aS'Liten tilleggsbelastning'
p58
aS'Liten tilleggsbelastning'
p59
aS'Liten tilleggsbelastning'
p60
aS'Liten tilleggsbelastning'
p61
aS'Liten tilleggsbelastning'
p62
aS'Liten tilleggsbelastning'
p63
aS'Liten tilleggsbelastning'
p64
aS'Liten tilleggsbelastning'
p65
aS'Liten tilleggsbelastning'
p66
aS'Liten tilleggsbelastning'
p67
aS'Liten tilleggsbelastning'
p68
aS'Liten tilleggsbelastning'
p69
aS'Liten tilleggsbelastning'
p70
aS'Liten tilleggsbelastning'
p71
aS'Liten tilleggsbelastning'
p72
aS'Liten tilleggsbelastning'
p73
aS'Liten tilleggsbelastning'
p74
aS'Liten tilleggsbelastning'
p75
aS'Liten tilleggsbelastning'
p76
aS'Liten tilleggsbelastning'
p77
aS'Liten tilleggsbelastning'
p78
aS'Liten tilleggsbelastning'
p79
aS'Liten tilleggsbelastning'
p80
aS'Liten tilleggsbelastning'
p81
aS'Liten tilleggsbelastning'
p82
aS'Liten tilleggsbelastning'
p83
aS'Liten tilleggsbelastning'
p84
aS'Liten tilleggsbelastning'
p85
aS'Liten tilleggsbelastning'
p86
aS'Stor tilleggsbelastning'
p87
aS'Stor tilleggsbelastning'
p88
aS'Stor tilleggsbelastning'
p89
aS'Stor tilleggsbelastning'
p90
aS'Stor tilleggsbelastning'
p91
aS'Stor tilleggsbelastning'
p92
aS'Stor tilleggsbelastning'
p93
aS'Naturlig utloest'
p94
aS'Naturlig utloest'
p95
aS'Naturlig utloest'
p96
aS'Naturlig utloest'
p97
aS'Naturlig utloest'
p98
aS'Naturlig utloest'
p99
aS'Naturlig utloest'
p100
aS'Liten tilleggsbelastning'
p101
aS'Liten tilleggsbelastning'
p102
aS'Liten tilleggsbelastning'
p103
aS'Liten tilleggsbelastning'
p104
aS'Liten tilleggsbelastning'
p105
aS'Liten tilleggsbelastning'
p106
aS'Liten tilleggsbelastning'
p107
aS'Liten tilleggsbelastning'
p108
aS'Liten tilleggsbelastning'
p109
aS'Liten tilleggsbelastning'
p110
aS'Liten tilleggsbelastning'
p111
aS'Liten tilleggsbelastning'
p112
aS'Liten tilleggsbelastning'
p113
aS'Liten tilleggsbelastning'
p114
aS'Liten tilleggsbelastning'
p115
aS'Liten tilleggsbelastning'
p116
aS'Liten tilleggsbelastning'
p117
aS'Liten tilleggsbelastning'
p118
aS'Liten tilleggsbelastning'
p119
aS'Liten tilleggsbelastning'
p120
aS'Liten tilleggsbelastning'
p121
aS'Liten tilleggsbelastning'
p122
aS'Liten tilleggsbelastning'
p123
aS'Liten tilleggsbelastning'
p124
aS'Liten tilleggsbelastning'
p125
aS'Liten tilleggsbelastning'
p126
aS'Liten tilleggsbelastning'
p127
aS'Liten tilleggsbelastning'
p128
aS'Liten tilleggsbelastning'
p129
assS'distribution'
p130
(dp131
g3
(lp132
S'Isolerte faresoner'
p133
aS'Noen bratte heng'
p134
aS'Mange bratte heng'
p135
aS'De fleste bratte heng'
p136
aS'Ogsaa i mindre bratt terreng'
p137
asg8
(lp138
g10
asg11
(lp139
S'Noen bratte heng'
p140
aS'Noen bratte heng'
p141
aS'Noen bratte heng'
p142
aS'Noen bratte heng'
p143
aS'Noen bratte heng'
p144
aS'Noen bratte heng'
p145
aS'Noen bratte heng'
p146
aS'Noen bratte heng'
p147
aS'Noen bratte heng'
p148
aS'Noen bratte heng'
p149
aS'Noen bratte heng'
p150
aS'Noen bratte heng'
p151
aS'Noen bratte heng'
p152
aS'Noen bratte heng'
p153
aS'Noen bratte heng'
p154
aS'Noen bratte heng'
p155
aS'Noen bratte heng'
p156
aS'Noen bratte heng'
p157
aS'Noen bratte heng'
p158
aS'Noen bratte heng'
p159
aS'Noen bratte heng'
p160
aS'Noen bratte heng'
p161
aS'Noen bratte heng'
p162
aS'Noen bratte heng'
p163
aS'Noen bratte heng'
p164
aS'Noen bratte heng'
p165
aS'Noen bratte heng'
p166
aS'Noen bratte heng'
p167
aS'Isolerte faresoner'
p168
aS'Noen bratte heng'
p169
aS'Noen bratte heng'
p170
aS'Noen bratte heng'
p171
aS'Noen bratte heng'
p172
aS'Isolerte faresoner'
p173
aS'Noen bratte heng'
p174
aS'Isolerte faresoner'
p175
aS'Isolerte faresoner'
p176
aS'Noen bratte heng'
p177
aS'Isolerte faresoner'
p178
aS'Isolerte faresoner'
p179
aS'Isolerte faresoner'
p180
aS'Noen bratte heng'
p181
aS'Noen bratte heng'
p182
aS'Noen bratte heng'
p183
aS'Noen bratte heng'
p184
aS'Noen bratte heng'
p185
aS'Noen bratte heng'
p186
aS'Noen bratte heng'
p187
aS'Noen bratte heng'
p188
aS'Noen bratte heng'
p189
aS'Noen bratte heng'
p190
aS'Noen bratte heng'
p191
aS'Noen bratte heng'
p192
aS'Noen bratte heng'
p193
aS'Noen bratte heng'
p194
aS'Noen bratte heng'
p195
aS'Noen bratte heng'
p196
aS'Mange bratte heng'
p197
aS'Mange bratte heng'
p198
aS'Noen bratte heng'
p199
aS'Noen bratte heng'
p200
aS'Noen bratte heng'
p201
aS'Mange bratte heng'
p202
aS'Noen bratte heng'
p203
aS'Noen bratte heng'
p204
aS'Noen bratte heng'
p205
aS'Noen bratte heng'
p206
aS'Noen bratte heng'
p207
aS'Noen bratte heng'
p208
aS'Noen bratte heng'
p209
aS'Noen bratte heng'
p210
aS'Noen bratte heng'
p211
aS'Noen bratte heng'
p212
aS'Noen bratte heng'
p213
aS'Noen bratte heng'
p214
aS'Noen bratte heng'
p215
aS'Noen bratte heng'
p216
aS'Noen bratte heng'
p217
aS'Noen bratte heng'
p218
aS'Noen bratte heng'
p219
aS'Isolerte faresoner'
p220
aS'Noen bratte heng'
p221
aS'Noen bratte heng'
p222
aS'Noen bratte heng'
p223
aS'Noen bratte heng'
p224
aS'Noen bratte heng'
p225
aS'Noen bratte heng'
p226
aS'Noen bratte heng'
p227
aS'Isolerte faresoner'
p228
aS'Noen bratte heng'
p229
aS'Noen bratte heng'
p230
aS'Noen bratte heng'
p231
aS'Noen bratte heng'
p232
aS'Isolerte faresoner'
p233
aS'Noen bratte heng'
p234
aS'Noen bratte heng'
p235
aS'Noen bratte heng'
p236
aS'Isolerte faresoner'
p237
aS'Isolerte faresoner'
p238
aS'Noen bratte heng'
p239
aS'Noen bratte heng'
p240
aS'Noen bratte heng'
p241
aS'Noen bratte heng'
p242
aS'Isolerte faresoner'
p243
aS'Noen bratte heng'
p244
aS'Isolerte faresoner'
p245
aS'Isolerte faresoner'
p246
aS'Isolerte faresoner'
p247
aS'Isolerte faresoner'
p248
aS'Isolerte faresoner'
p249
aS'Isolerte faresoner'
p250
aS'Isolerte faresoner'
p251
aS'Isolerte faresoner'
p252
aS'Isolerte faresoner'
p253
aS'Isolerte faresoner'
p254
aS'Isolerte faresoner'
p255
aS'Isolerte faresoner'
p256
assS'size'
p257
(dp258
g3
(lp259
S'1 - Harmloest'
p260
aS'2 - Smaa'
p261
aS'3 - Middels'
p262
aS'4 - Store'
p263
aS'5 - Svaert store'
p264
aS'Ukjent'
p265
asg8
(lp266
g10
asg11
(lp267
S'2 - Smaa'
p268
aS'2 - Smaa'
p269
aS'2 - Smaa'
p270
aS'2 - Smaa'
p271
aS'2 - Smaa'
p272
aS'2 - Smaa'
p273
aS'2 - Smaa'
p274
aS'2 - Smaa'
p275
aS'2 - Smaa'
p276
aS'2 - Smaa'
p277
aS'2 - Smaa'
p278
aS'2 - Smaa'
p279
aS'2 - Smaa'
p280
aS'2 - Smaa'
p281
aS'2 - Smaa'
p282
aS'2 - Smaa'
p283
aS'2 - Smaa'
p284
aS'2 - Smaa'
p285
aS'2 - Smaa'
p286
aS'2 - Smaa'
p287
aS'2 - Smaa'
p288
aS'2 - Smaa'
p289
aS'2 - Smaa'
p290
aS'2 - Smaa'
p291
aS'2 - Smaa'
p292
aS'2 - Smaa'
p293
aS'2 - Smaa'
p294
aS'2 - Smaa'
p295
aS'2 - Smaa'
p296
aS'2 - Smaa'
p297
aS'2 - Smaa'
p298
aS'2 - Smaa'
p299
aS'2 - Smaa'
p300
aS'2 - Smaa'
p301
aS'2 - Smaa'
p302
aS'2 - Smaa'
p303
aS'2 - Smaa'
p304
aS'2 - Smaa'
p305
aS'2 - Smaa'
p306
aS'2 - Smaa'
p307
aS'2 - Smaa'
p308
aS'2 - Smaa'
p309
aS'2 - Smaa'
p310
aS'2 - Smaa'
p311
aS'2 - Smaa'
p312
aS'2 - Smaa'
p313
aS'2 - Smaa'
p314
aS'2 - Smaa'
p315
aS'2 - Smaa'
p316
aS'2 - Smaa'
p317
aS'2 - Smaa'
p318
aS'2 - Smaa'
p319
aS'2 - Smaa'
p320
aS'2 - Smaa'
p321
aS'2 - Smaa'
p322
aS'2 - Smaa'
p323
aS'2 - Smaa'
p324
aS'2 - Smaa'
p325
aS'2 - Smaa'
p326
aS'2 - Smaa'
p327
aS'2 - Smaa'
p328
aS'2 - Smaa'
p329
aS'2 - Smaa'
p330
aS'3 - Middels'
p331
aS'3 - Middels'
p332
aS'3 - Middels'
p333
aS'3 - Middels'
p334
aS'3 - Middels'
p335
aS'3 - Middels'
p336
aS'2 - Smaa'
p337
aS'2 - Smaa'
p338
aS'2 - Smaa'
p339
aS'2 - Smaa'
p340
aS'2 - Smaa'
p341
aS'2 - Smaa'
p342
aS'2 - Smaa'
p343
aS'2 - Smaa'
p344
aS'2 - Smaa'
p345
aS'2 - Smaa'
p346
aS'2 - Smaa'
p347
aS'2 - Smaa'
p348
aS'1 - Harmloest'
p349
aS'1 - Harmloest'
p350
aS'1 - Harmloest'
p351
aS'1 - Harmloest'
p352
aS'1 - Harmloest'
p353
aS'1 - Harmloest'
p354
aS'1 - Harmloest'
p355
aS'2 - Smaa'
p356
aS'1 - Harmloest'
p357
aS'1 - Harmloest'
p358
aS'2 - Smaa'
p359
aS'1 - Harmloest'
p360
aS'2 - Smaa'
p361
aS'1 - Harmloest'
p362
aS'1 - Harmloest'
p363
aS'1 - Harmloest'
p364
aS'2 - Smaa'
p365
aS'2 - Smaa'
p366
aS'2 - Smaa'
p367
aS'2 - Smaa'
p368
aS'2 - Smaa'
p369
aS'2 - Smaa'
p370
aS'2 - Smaa'
p371
aS'2 - Smaa'
p372
aS'2 - Smaa'
p373
aS'2 - Smaa'
p374
aS'2 - Smaa'
p375
aS'2 - Smaa'
p376
aS'2 - Smaa'
p377
aS'2 - Smaa'
p378
aS'2 - Smaa'
p379
aS'2 - Smaa'
p380
aS'2 - Smaa'
p381
aS'2 - Smaa'
p382
aS'2 - Smaa'
p383
aS'2 - Smaa'
p384
assS'probability'
p385
(dp386
g3
(lp387
S'Lite sannsynlig'
p388
aS'Mulig'
p389
aS'Sannsynlig'
p390
aS'Meget sannsynlig'
p391
asg8
(lp392
g10
asg11
(lp393
S'Mulig'
p394
aS'Mulig'
p395
aS'Mulig'
p396
aS'Mulig'
p397
aS'Mulig'
p398
aS'Mulig'
p399
aS'Mulig'
p400
aS'Mulig'
p401
aS'Mulig'
p402
aS'Mulig'
p403
aS'Mulig'
p404
aS'Mulig'
p405
aS'Mulig'
p406
aS'Mulig'
p407
aS'Mulig'
p408
aS'Mulig'
p409
aS'Mulig'
p410
aS'Mulig'
p411
aS'Mulig'
p412
aS'Mulig'
p413
aS'Mulig'
p414
aS'Mulig'
p415
aS'Mulig'
p416
aS'Mulig'
p417
aS'Mulig'
p418
aS'Mulig'
p419
aS'Mulig'
p420
aS'Mulig'
p421
aS'Mulig'
p422
aS'Mulig'
p423
aS'Mulig'
p424
aS'Mulig'
p425
aS'Mulig'
p426
aS'Mulig'
p427
aS'Mulig'
p428
aS'Mulig'
p429
aS'Mulig'
p430
aS'Mulig'
p431
aS'Mulig'
p432
aS'Mulig'
p433
aS'Mulig'
p434
aS'Mulig'
p435
aS'Mulig'
p436
aS'Mulig'
p437
aS'Mulig'
p438
aS'Mulig'
p439
aS'Mulig'
p440
aS'Mulig'
p441
aS'Mulig'
p442
aS'Mulig'
p443
aS'Mulig'
p444
aS'Mulig'
p445
aS'Mulig'
p446
aS'Mulig'
p447
aS'Mulig'
p448
aS'Mulig'
p449
aS'Mulig'
p450
aS'Mulig'
p451
aS'Mulig'
p452
aS'Mulig'
p453
aS'Mulig'
p454
aS'Mulig'
p455
aS'Mulig'
p456
aS'Mulig'
p457
aS'Mulig'
p458
aS'Mulig'
p459
aS'Mulig'
p460
aS'Mulig'
p461
aS'Mulig'
p462
aS'Mulig'
p463
aS'Mulig'
p464
aS'Mulig'
p465
aS'Mulig'
p466
aS'Mulig'
p467
aS'Mulig'
p468
aS'Mulig'
p469
aS'Mulig'
p470
aS'Mulig'
p471
aS'Mulig'
p472
aS'Mulig'
p473
aS'Mulig'
p474
aS'Mulig'
p475
aS'Sannsynlig'
p476
aS'Mulig'
p477
aS'Mulig'
p478
aS'Mulig'
p479
aS'Sannsynlig'
p480
aS'Mulig'
p481
aS'Mulig'
p482
aS'Mulig'
p483
aS'Mulig'
p484
aS'Mulig'
p485
aS'Mulig'
p486
aS'Mulig'
p487
aS'Mulig'
p488
aS'Mulig'
p489
aS'Mulig'
p490
aS'Mulig'
p491
aS'Mulig'
p492
aS'Mulig'
p493
aS'Mulig'
p494
aS'Mulig'
p495
aS'Mulig'
p496
aS'Mulig'
p497
aS'Mulig'
p498
aS'Mulig'
p499
aS'Mulig'
p500
aS'Mulig'
p501
aS'Mulig'
p502
aS'Mulig'
p503
aS'Mulig'
p504
aS'Mulig'
p505
aS'Mulig'
p506
aS'Mulig'
p507
aS'Mulig'
p508
aS'Mulig'
p509
aS'Mulig'
p510
assS'level'
p511
(dp512
g3
(lp513
I1
aI2
aI3
aI4
aI5
asg8
(lp514
S'#ccff66'
p515
aS'#ffff00'
p516
aS'#ff9900'
p517
aS'#ff0000'
p518
aS'k'
p519
asg11
(lp520
I2
aI2
aI2
aI2
aI2
aI2
aI2
aI2
aI2
aI2
aI2
aI2
aI2
aI2
aI2
aI2
aI2
aI2
aI2
aI2
aI2
aI2
aI2
aI2
aI2
aI2
aI2
aI2
aI2
aI2
aI2
aI2
aI2
aI2
aI2
aI2
aI2
aI2
aI2
aI2
aI2
aI2
aI2
aI2
aI2
aI2
aI2
aI2
aI2
aI2
aI2
aI2
aI2
aI2
aI2
aI2
aI2
aI3
aI3
aI2
aI2
aI2
aI3
aI3
aI3
aI3
aI3
aI3
aI3
aI2
aI2
aI2
aI2
aI2
aI2
aI2
aI2
aI2
aI2
aI2
aI1
aI1
aI1
aI1
aI1
aI1
aI1
aI1
aI2
aI1
aI1
aI2
aI2
aI2
aI2
aI2
aI1
aI2
aI2
aI2
aI2
aI2
aI2
aI1
aI2
aI1
aI1
aI1
aI1
aI1
aI1
aI1
aI1
aI1
aI1
aI1
aI1
ass.