(lp0
(irunmatrix
M3Element
p1
(dp2
S'danger_level_average'
p3
NsS'probability'
p4
S'Lite sannsynlig, Mulig'
p5
sS'colour'
p6
S'white'
p7
sS'danger_level_list'
p8
(lp9
sS'label_probalility'
p10
S'Possible'
p11
sS'label_distribution'
p12
S'Isolated'
p13
sS'recomended_colour'
p14
S'#ccff66'
p15
sS'recomended_danger_level'
p16
I1
sS'label_trigger'
p17
S'High'
p18
sS'trigger'
p19
S'Stor tilleggsbelastning'
p20
sS'occurrences'
p21
NsS'y'
p22
S'100'
p23
sS'x'
p24
S'100'
p25
sS'distribution'
p26
S'Isolerte faresoner'
p27
sS'danger_level_standard_dev'
p28
NsS'label_size'
p29
S'1'
p30
sS'avalanche_size'
p31
S'1 - Harmloest'
p32
sba(irunmatrix
M3Element
p33
(dp34
g3
F2.0
sg4
S'Lite sannsynlig, Mulig'
p35
sg6
S'#ffff00'
p36
sg8
(lp37
I2
aI2
aI2
aI2
aI2
asg10
S'Possible'
p38
sg12
S'Isolated'
p39
sg14
g15
sg16
I1
sg17
S'Low'
p40
sg19
S'Liten tilleggsbelastning'
p41
sg21
I5
sg22
S'100'
p42
sg24
S'200'
p43
sg26
S'Isolerte faresoner'
p44
sg28
cnumpy.core.multiarray
scalar
p45
(cnumpy
dtype
p46
(S'f8'
p47
I0
I1
tp48
Rp49
(I3
S'<'
p50
NNNI-1
I-1
I0
tp51
bS'\x00\x00\x00\x00\x00\x00\x00\x00'
p52
tp53
Rp54
sg29
g30
sg31
S'1 - Harmloest'
p55
sba(irunmatrix
M3Element
p56
(dp57
g3
Nsg4
S'Lite sannsynlig, Mulig'
p58
sg6
S'white'
p59
sg8
(lp60
sg10
S'Possible'
p61
sg12
S'Isolated'
p62
sg14
g15
sg16
I1
sg17
S'Nat'
p63
sg19
S'Naturlig utloest'
p64
sg21
Nsg22
S'100'
p65
sg24
S'300'
p66
sg26
S'Isolerte faresoner'
p67
sg28
Nsg29
g30
sg31
S'1 - Harmloest'
p68
sba(irunmatrix
M3Element
p69
(dp70
g3
Nsg4
S'Sannsynlig, Meget sannsynlig'
p71
sg6
S'gray'
p72
sg8
(lp73
sg10
S'Likely'
p74
sg12
S'Isolated'
p75
sg14
S'gray'
p76
sg16
I0
sg17
S'High'
p77
sg19
S'Stor tilleggsbelastning'
p78
sg21
Nsg22
S'100'
p79
sg24
S'400'
p80
sg26
S'Isolerte faresoner'
p81
sg28
Nsg29
g30
sg31
S'1 - Harmloest'
p82
sba(irunmatrix
M3Element
p83
(dp84
g3
Nsg4
S'Sannsynlig, Meget sannsynlig'
p85
sg6
S'gray'
p86
sg8
(lp87
sg10
S'Likely'
p88
sg12
S'Isolated'
p89
sg14
g76
sg16
I0
sg17
S'Low'
p90
sg19
S'Liten tilleggsbelastning'
p91
sg21
Nsg22
S'100'
p92
sg24
S'500'
p93
sg26
S'Isolerte faresoner'
p94
sg28
Nsg29
g30
sg31
S'1 - Harmloest'
p95
sba(irunmatrix
M3Element
p96
(dp97
g3
Nsg4
S'Sannsynlig, Meget sannsynlig'
p98
sg6
S'gray'
p99
sg8
(lp100
sg10
S'Likely'
p101
sg12
S'Isolated'
p102
sg14
g76
sg16
I0
sg17
S'Nat'
p103
sg19
S'Naturlig utloest'
p104
sg21
Nsg22
S'100'
p105
sg24
S'600'
p106
sg26
S'Isolerte faresoner'
p107
sg28
Nsg29
g30
sg31
S'1 - Harmloest'
p108
sba(irunmatrix
M3Element
p109
(dp110
g3
F1.2
sg4
S'Lite sannsynlig, Mulig'
p111
sg6
S'#ccff66'
p112
sg8
(lp113
I2
aI1
aI1
aI1
aI1
asg10
S'Possible'
p114
sg12
S'Some'
p115
sg14
g15
sg16
I1
sg17
S'High'
p116
sg19
S'Stor tilleggsbelastning'
p117
sg21
I5
sg22
S'100'
p118
sg24
S'700'
p119
sg26
S'Noen bratte heng'
p120
sg28
g45
(g49
S'\x9b\x99\x99\x99\x99\x99\xd9?'
p121
tp122
Rp123
sg29
g30
sg31
S'1 - Harmloest'
p124
sba(irunmatrix
M3Element
p125
(dp126
g3
F2.0
sg4
S'Lite sannsynlig, Mulig'
p127
sg6
g36
sg8
(lp128
I2
aI2
asg10
S'Possible'
p129
sg12
S'Some'
p130
sg14
g15
sg16
I1
sg17
S'Low'
p131
sg19
S'Liten tilleggsbelastning'
p132
sg21
I2
sg22
S'100'
p133
sg24
S'800'
p134
sg26
S'Noen bratte heng'
p135
sg28
g45
(g49
S'\x00\x00\x00\x00\x00\x00\x00\x00'
p136
tp137
Rp138
sg29
g30
sg31
S'1 - Harmloest'
p139
sba(irunmatrix
M3Element
p140
(dp141
g3
F2.0
sg4
S'Lite sannsynlig, Mulig'
p142
sg6
g36
sg8
(lp143
I2
aI2
aI2
asg10
S'Possible'
p144
sg12
S'Some'
p145
sg14
g15
sg16
I1
sg17
S'Nat'
p146
sg19
S'Naturlig utloest'
p147
sg21
I3
sg22
S'100'
p148
sg24
S'900'
p149
sg26
S'Noen bratte heng'
p150
sg28
g45
(g49
S'\x00\x00\x00\x00\x00\x00\x00\x00'
p151
tp152
Rp153
sg29
g30
sg31
S'1 - Harmloest'
p154
sba(irunmatrix
M3Element
p155
(dp156
g3
Nsg4
S'Sannsynlig, Meget sannsynlig'
p157
sg6
S'gray'
p158
sg8
(lp159
sg10
S'Likely'
p160
sg12
S'Some'
p161
sg14
g76
sg16
I0
sg17
S'High'
p162
sg19
S'Stor tilleggsbelastning'
p163
sg21
Nsg22
S'100'
p164
sg24
S'1000'
p165
sg26
S'Noen bratte heng'
p166
sg28
Nsg29
g30
sg31
S'1 - Harmloest'
p167
sba(irunmatrix
M3Element
p168
(dp169
g3
Nsg4
S'Sannsynlig, Meget sannsynlig'
p170
sg6
S'gray'
p171
sg8
(lp172
sg10
S'Likely'
p173
sg12
S'Some'
p174
sg14
g76
sg16
I0
sg17
S'Low'
p175
sg19
S'Liten tilleggsbelastning'
p176
sg21
Nsg22
S'100'
p177
sg24
S'1100'
p178
sg26
S'Noen bratte heng'
p179
sg28
Nsg29
g30
sg31
S'1 - Harmloest'
p180
sba(irunmatrix
M3Element
p181
(dp182
g3
F2.0
sg4
S'Sannsynlig, Meget sannsynlig'
p183
sg6
g36
sg8
(lp184
I2
aI2
aI2
aI2
aI2
aI2
aI2
aI2
asg10
S'Likely'
p185
sg12
S'Some'
p186
sg14
g15
sg16
I1
sg17
S'Nat'
p187
sg19
S'Naturlig utloest'
p188
sg21
I8
sg22
S'100'
p189
sg24
S'1200'
p190
sg26
S'Noen bratte heng'
p191
sg28
g45
(g49
S'\x00\x00\x00\x00\x00\x00\x00\x00'
p192
tp193
Rp194
sg29
g30
sg31
S'1 - Harmloest'
p195
sba(irunmatrix
M3Element
p196
(dp197
g3
Nsg4
S'Lite sannsynlig, Mulig'
p198
sg6
S'gray'
p199
sg8
(lp200
sg10
S'Possible'
p201
sg12
S'Many'
p202
sg14
g76
sg16
I0
sg17
S'High'
p203
sg19
S'Stor tilleggsbelastning'
p204
sg21
Nsg22
S'100'
p205
sg24
S'1300'
p206
sg26
S'Mange bratte heng'
p207
sg28
Nsg29
g30
sg31
S'1 - Harmloest'
p208
sba(irunmatrix
M3Element
p209
(dp210
g3
Nsg4
S'Lite sannsynlig, Mulig'
p211
sg6
S'white'
p212
sg8
(lp213
sg10
S'Possible'
p214
sg12
S'Many'
p215
sg14
g15
sg16
I1
sg17
S'Low'
p216
sg19
S'Liten tilleggsbelastning'
p217
sg21
Nsg22
S'100'
p218
sg24
S'1400'
p219
sg26
S'Mange bratte heng'
p220
sg28
Nsg29
g30
sg31
S'1 - Harmloest'
p221
sba(irunmatrix
M3Element
p222
(dp223
g3
F2.5
sg4
S'Lite sannsynlig, Mulig'
p224
sg6
S'#ff9900'
p225
sg8
(lp226
I3
aI2
asg10
S'Possible'
p227
sg12
S'Many'
p228
sg14
g76
sg16
I0
sg17
S'Nat'
p229
sg19
S'Naturlig utloest'
p230
sg21
I2
sg22
S'100'
p231
sg24
S'1500'
p232
sg26
S'Mange bratte heng'
p233
sg28
g45
(g49
S'\x00\x00\x00\x00\x00\x00\xe0?'
p234
tp235
Rp236
sg29
g30
sg31
S'1 - Harmloest'
p237
sba(irunmatrix
M3Element
p238
(dp239
g3
Nsg4
S'Sannsynlig, Meget sannsynlig'
p240
sg6
S'gray'
p241
sg8
(lp242
sg10
S'Likely'
p243
sg12
S'Many'
p244
sg14
g76
sg16
I0
sg17
S'High'
p245
sg19
S'Stor tilleggsbelastning'
p246
sg21
Nsg22
S'100'
p247
sg24
S'1600'
p248
sg26
S'Mange bratte heng'
p249
sg28
Nsg29
g30
sg31
S'1 - Harmloest'
p250
sba(irunmatrix
M3Element
p251
(dp252
g3
Nsg4
S'Sannsynlig, Meget sannsynlig'
p253
sg6
S'white'
p254
sg8
(lp255
sg10
S'Likely'
p256
sg12
S'Many'
p257
sg14
S'#ffff00'
p258
sg16
I2
sg17
S'Low'
p259
sg19
S'Liten tilleggsbelastning'
p260
sg21
Nsg22
S'100'
p261
sg24
S'1700'
p262
sg26
S'Mange bratte heng'
p263
sg28
Nsg29
g30
sg31
S'1 - Harmloest'
p264
sba(irunmatrix
M3Element
p265
(dp266
g3
Nsg4
S'Sannsynlig, Meget sannsynlig'
p267
sg6
S'white'
p268
sg8
(lp269
sg10
S'Likely'
p270
sg12
S'Many'
p271
sg14
g258
sg16
I2
sg17
S'Nat'
p272
sg19
S'Naturlig utloest'
p273
sg21
Nsg22
S'100'
p274
sg24
S'1800'
p275
sg26
S'Mange bratte heng'
p276
sg28
Nsg29
g30
sg31
S'1 - Harmloest'
p277
sba(irunmatrix
M3Element
p278
(dp279
g3
Nsg4
S'Lite sannsynlig, Mulig'
p280
sg6
S'gray'
p281
sg8
(lp282
sg10
S'Possible'
p283
sg12
S'Most'
p284
sg14
g76
sg16
I0
sg17
S'High'
p285
sg19
S'Stor tilleggsbelastning'
p286
sg21
Nsg22
S'100'
p287
sg24
S'1900'
p288
sg26
S'De fleste bratte heng, Ogsaa i mindre bratt terreng'
p289
sg28
Nsg29
g30
sg31
S'1 - Harmloest'
p290
sba(irunmatrix
M3Element
p291
(dp292
g3
Nsg4
S'Lite sannsynlig, Mulig'
p293
sg6
S'gray'
p294
sg8
(lp295
sg10
S'Possible'
p296
sg12
S'Most'
p297
sg14
g76
sg16
I0
sg17
S'Low'
p298
sg19
S'Liten tilleggsbelastning'
p299
sg21
Nsg22
S'100'
p300
sg24
S'2000'
p301
sg26
S'De fleste bratte heng, Ogsaa i mindre bratt terreng'
p302
sg28
Nsg29
g30
sg31
S'1 - Harmloest'
p303
sba(irunmatrix
M3Element
p304
(dp305
g3
Nsg4
S'Lite sannsynlig, Mulig'
p306
sg6
S'gray'
p307
sg8
(lp308
sg10
S'Possible'
p309
sg12
S'Most'
p310
sg14
g76
sg16
I0
sg17
S'Nat'
p311
sg19
S'Naturlig utloest'
p312
sg21
Nsg22
S'100'
p313
sg24
S'2100'
p314
sg26
S'De fleste bratte heng, Ogsaa i mindre bratt terreng'
p315
sg28
Nsg29
g30
sg31
S'1 - Harmloest'
p316
sba(irunmatrix
M3Element
p317
(dp318
g3
Nsg4
S'Sannsynlig, Meget sannsynlig'
p319
sg6
S'gray'
p320
sg8
(lp321
sg10
S'Likely'
p322
sg12
S'Most'
p323
sg14
g76
sg16
I0
sg17
S'High'
p324
sg19
S'Stor tilleggsbelastning'
p325
sg21
Nsg22
S'100'
p326
sg24
S'2200'
p327
sg26
S'De fleste bratte heng, Ogsaa i mindre bratt terreng'
p328
sg28
Nsg29
g30
sg31
S'1 - Harmloest'
p329
sba(irunmatrix
M3Element
p330
(dp331
g3
Nsg4
S'Sannsynlig, Meget sannsynlig'
p332
sg6
S'gray'
p333
sg8
(lp334
sg10
S'Likely'
p335
sg12
S'Most'
p336
sg14
g76
sg16
I0
sg17
S'Low'
p337
sg19
S'Liten tilleggsbelastning'
p338
sg21
Nsg22
S'100'
p339
sg24
S'2300'
p340
sg26
S'De fleste bratte heng, Ogsaa i mindre bratt terreng'
p341
sg28
Nsg29
g30
sg31
S'1 - Harmloest'
p342
sba(irunmatrix
M3Element
p343
(dp344
g3
Nsg4
S'Sannsynlig, Meget sannsynlig'
p345
sg6
S'white'
p346
sg8
(lp347
sg10
S'Likely'
p348
sg12
S'Most'
p349
sg14
g76
sg16
I0
sg17
S'Nat'
p350
sg19
S'Naturlig utloest'
p351
sg21
Nsg22
S'100'
p352
sg24
S'2400'
p353
sg26
S'De fleste bratte heng, Ogsaa i mindre bratt terreng'
p354
sg28
Nsg29
S'2'
p355
sg31
S'1 - Harmloest'
p356
sba(irunmatrix
M3Element
p357
(dp358
g3
Nsg4
S'Lite sannsynlig, Mulig'
p359
sg6
S'white'
p360
sg8
(lp361
sg10
S'Possible'
p362
sg12
S'Isolated'
p363
sg14
g15
sg16
I1
sg17
S'High'
p364
sg19
S'Stor tilleggsbelastning'
p365
sg21
Nsg22
S'200'
p366
sg24
S'100'
p367
sg26
S'Isolerte faresoner'
p368
sg28
Nsg29
g355
sg31
S'2 - Smaa'
p369
sba(irunmatrix
M3Element
p370
(dp371
g3
Nsg4
S'Lite sannsynlig, Mulig'
p372
sg6
S'white'
p373
sg8
(lp374
sg10
S'Possible'
p375
sg12
S'Isolated'
p376
sg14
g15
sg16
I1
sg17
S'Low'
p377
sg19
S'Liten tilleggsbelastning'
p378
sg21
Nsg22
S'200'
p379
sg24
S'200'
p380
sg26
S'Isolerte faresoner'
p381
sg28
Nsg29
g355
sg31
S'2 - Smaa'
p382
sba(irunmatrix
M3Element
p383
(dp384
g3
Nsg4
S'Lite sannsynlig, Mulig'
p385
sg6
S'white'
p386
sg8
(lp387
sg10
S'Possible'
p388
sg12
S'Isolated'
p389
sg14
g15
sg16
I1
sg17
S'Nat'
p390
sg19
S'Naturlig utloest'
p391
sg21
Nsg22
S'200'
p392
sg24
S'300'
p393
sg26
S'Isolerte faresoner'
p394
sg28
Nsg29
g355
sg31
S'2 - Smaa'
p395
sba(irunmatrix
M3Element
p396
(dp397
g3
Nsg4
S'Sannsynlig, Meget sannsynlig'
p398
sg6
S'gray'
p399
sg8
(lp400
sg10
S'Likely'
p401
sg12
S'Isolated'
p402
sg14
g76
sg16
I0
sg17
S'High'
p403
sg19
S'Stor tilleggsbelastning'
p404
sg21
Nsg22
S'200'
p405
sg24
S'400'
p406
sg26
S'Isolerte faresoner'
p407
sg28
Nsg29
g355
sg31
S'2 - Smaa'
p408
sba(irunmatrix
M3Element
p409
(dp410
g3
Nsg4
S'Sannsynlig, Meget sannsynlig'
p411
sg6
S'gray'
p412
sg8
(lp413
sg10
S'Likely'
p414
sg12
S'Isolated'
p415
sg14
g76
sg16
I0
sg17
S'Low'
p416
sg19
S'Liten tilleggsbelastning'
p417
sg21
Nsg22
S'200'
p418
sg24
S'500'
p419
sg26
S'Isolerte faresoner'
p420
sg28
Nsg29
g355
sg31
S'2 - Smaa'
p421
sba(irunmatrix
M3Element
p422
(dp423
g3
Nsg4
S'Sannsynlig, Meget sannsynlig'
p424
sg6
S'gray'
p425
sg8
(lp426
sg10
S'Likely'
p427
sg12
S'Isolated'
p428
sg14
g76
sg16
I0
sg17
S'Nat'
p429
sg19
S'Naturlig utloest'
p430
sg21
Nsg22
S'200'
p431
sg24
S'600'
p432
sg26
S'Isolerte faresoner'
p433
sg28
Nsg29
g355
sg31
S'2 - Smaa'
p434
sba(irunmatrix
M3Element
p435
(dp436
g3
F2.032258064516129
sg4
S'Lite sannsynlig, Mulig'
p437
sg6
g36
sg8
(lp438
I2
aI2
aI2
aI2
aI2
aI2
aI2
aI2
aI2
aI2
aI2
aI2
aI2
aI2
aI2
aI3
aI2
aI2
aI2
aI2
aI2
aI2
aI2
aI2
aI2
aI2
aI2
aI2
aI2
aI2
aI2
asg10
S'Possible'
p439
sg12
S'Some'
p440
sg14
g258
sg16
I2
sg17
S'High'
p441
sg19
S'Stor tilleggsbelastning'
p442
sg21
I31
sg22
S'200'
p443
sg24
S'700'
p444
sg26
S'Noen bratte heng'
p445
sg28
g45
(g49
S'K7r\xa7\x9a\x9d\xc6?'
p446
tp447
Rp448
sg29
g355
sg31
S'2 - Smaa'
p449
sba(irunmatrix
M3Element
p450
(dp451
g3
F2.0597014925373136
sg4
S'Lite sannsynlig, Mulig'
p452
sg6
g36
sg8
(lp453
I2
aI2
aI2
aI3
aI2
aI2
aI2
aI2
aI2
aI3
aI2
aI2
aI2
aI2
aI2
aI2
aI2
aI2
aI2
aI2
aI2
aI2
aI2
aI2
aI2
aI2
aI2
aI3
aI3
aI2
aI2
aI2
aI2
aI2
aI2
aI2
aI2
aI2
aI2
aI2
aI2
aI2
aI2
aI2
aI2
aI2
aI2
aI2
aI2
aI2
aI2
aI2
aI2
aI2
aI2
aI2
aI2
aI2
aI2
aI2
aI2
aI2
aI2
aI2
aI2
aI2
aI2
asg10
S'Possible'
p454
sg12
S'Some'
p455
sg14
g258
sg16
I2
sg17
S'Low'
p456
sg19
S'Liten tilleggsbelastning'
p457
sg21
I67
sg22
S'200'
p458
sg24
S'800'
p459
sg26
S'Noen bratte heng'
p460
sg28
g45
(g49
S'n\xa9\xbb\xaa\xd1S\xce?'
p461
tp462
Rp463
sg29
g355
sg31
S'2 - Smaa'
p464
sba(irunmatrix
M3Element
p465
(dp466
g3
F3.0
sg4
S'Lite sannsynlig, Mulig'
p467
sg6
g225
sg8
(lp468
I3
aI3
aI3
aI3
asg10
S'Possible'
p469
sg12
S'Some'
p470
sg14
g258
sg16
I2
sg17
S'Nat'
p471
sg19
S'Naturlig utloest'
p472
sg21
I4
sg22
S'200'
p473
sg24
S'900'
p474
sg26
S'Noen bratte heng'
p475
sg28
g45
(g49
S'\x00\x00\x00\x00\x00\x00\x00\x00'
p476
tp477
Rp478
sg29
g355
sg31
S'2 - Smaa'
p479
sba(irunmatrix
M3Element
p480
(dp481
g3
Nsg4
S'Sannsynlig, Meget sannsynlig'
p482
sg6
S'gray'
p483
sg8
(lp484
sg10
S'Likely'
p485
sg12
S'Some'
p486
sg14
g76
sg16
I0
sg17
S'High'
p487
sg19
S'Stor tilleggsbelastning'
p488
sg21
Nsg22
S'200'
p489
sg24
S'1000'
p490
sg26
S'Noen bratte heng'
p491
sg28
Nsg29
g355
sg31
S'2 - Smaa'
p492
sba(irunmatrix
M3Element
p493
(dp494
g3
Nsg4
S'Sannsynlig, Meget sannsynlig'
p495
sg6
S'gray'
p496
sg8
(lp497
sg10
S'Likely'
p498
sg12
S'Some'
p499
sg14
g76
sg16
I0
sg17
S'Low'
p500
sg19
S'Liten tilleggsbelastning'
p501
sg21
Nsg22
S'200'
p502
sg24
S'1100'
p503
sg26
S'Noen bratte heng'
p504
sg28
Nsg29
g355
sg31
S'2 - Smaa'
p505
sba(irunmatrix
M3Element
p506
(dp507
g3
F2.0
sg4
S'Sannsynlig, Meget sannsynlig'
p508
sg6
g36
sg8
(lp509
I2
aI2
aI2
aI2
aI2
asg10
S'Likely'
p510
sg12
S'Some'
p511
sg14
S'#ff9900'
p512
sg16
I3
sg17
S'Nat'
p513
sg19
S'Naturlig utloest'
p514
sg21
I5
sg22
S'200'
p515
sg24
S'1200'
p516
sg26
S'Noen bratte heng'
p517
sg28
g45
(g49
S'\x00\x00\x00\x00\x00\x00\x00\x00'
p518
tp519
Rp520
sg29
g355
sg31
S'2 - Smaa'
p521
sba(irunmatrix
M3Element
p522
(dp523
g3
F2.0
sg4
S'Lite sannsynlig, Mulig'
p524
sg6
g36
sg8
(lp525
I2
asg10
S'Possible'
p526
sg12
S'Many'
p527
sg14
g76
sg16
I0
sg17
S'High'
p528
sg19
S'Stor tilleggsbelastning'
p529
sg21
I1
sg22
S'200'
p530
sg24
S'1300'
p531
sg26
S'Mange bratte heng'
p532
sg28
g45
(g49
S'\x00\x00\x00\x00\x00\x00\x00\x00'
p533
tp534
Rp535
sg29
g355
sg31
S'2 - Smaa'
p536
sba(irunmatrix
M3Element
p537
(dp538
g3
F3.0
sg4
S'Lite sannsynlig, Mulig'
p539
sg6
g225
sg8
(lp540
I3
aI3
aI3
aI3
aI3
aI3
aI3
aI3
aI3
aI3
aI3
aI3
aI3
aI3
aI3
aI3
aI3
aI3
aI3
aI3
aI3
aI3
aI3
asg10
S'Possible'
p541
sg12
S'Many'
p542
sg14
g512
sg16
I3
sg17
S'Low'
p543
sg19
S'Liten tilleggsbelastning'
p544
sg21
I23
sg22
S'200'
p545
sg24
S'1400'
p546
sg26
S'Mange bratte heng'
p547
sg28
g45
(g49
S'\x00\x00\x00\x00\x00\x00\x00\x00'
p548
tp549
Rp550
sg29
g355
sg31
S'2 - Smaa'
p551
sba(irunmatrix
M3Element
p552
(dp553
g3
Nsg4
S'Lite sannsynlig, Mulig'
p554
sg6
S'gray'
p555
sg8
(lp556
sg10
S'Possible'
p557
sg12
S'Many'
p558
sg14
g76
sg16
I0
sg17
S'Nat'
p559
sg19
S'Naturlig utloest'
p560
sg21
Nsg22
S'200'
p561
sg24
S'1500'
p562
sg26
S'Mange bratte heng'
p563
sg28
Nsg29
g355
sg31
S'2 - Smaa'
p564
sba(irunmatrix
M3Element
p565
(dp566
g3
Nsg4
S'Sannsynlig, Meget sannsynlig'
p567
sg6
S'gray'
p568
sg8
(lp569
sg10
S'Likely'
p570
sg12
S'Many'
p571
sg14
g76
sg16
I0
sg17
S'High'
p572
sg19
S'Stor tilleggsbelastning'
p573
sg21
Nsg22
S'200'
p574
sg24
S'1600'
p575
sg26
S'Mange bratte heng'
p576
sg28
Nsg29
g355
sg31
S'2 - Smaa'
p577
sba(irunmatrix
M3Element
p578
(dp579
g3
Nsg4
S'Sannsynlig, Meget sannsynlig'
p580
sg6
S'white'
p581
sg8
(lp582
sg10
S'Likely'
p583
sg12
S'Many'
p584
sg14
S'#ff0000'
p585
sg16
I4
sg17
S'Low'
p586
sg19
S'Liten tilleggsbelastning'
p587
sg21
Nsg22
S'200'
p588
sg24
S'1700'
p589
sg26
S'Mange bratte heng'
p590
sg28
Nsg29
g355
sg31
S'2 - Smaa'
p591
sba(irunmatrix
M3Element
p592
(dp593
g3
Nsg4
S'Sannsynlig, Meget sannsynlig'
p594
sg6
S'white'
p595
sg8
(lp596
sg10
S'Likely'
p597
sg12
S'Many'
p598
sg14
g585
sg16
I4
sg17
S'Nat'
p599
sg19
S'Naturlig utloest'
p600
sg21
Nsg22
S'200'
p601
sg24
S'1800'
p602
sg26
S'Mange bratte heng'
p603
sg28
Nsg29
g355
sg31
S'2 - Smaa'
p604
sba(irunmatrix
M3Element
p605
(dp606
g3
Nsg4
S'Lite sannsynlig, Mulig'
p607
sg6
S'gray'
p608
sg8
(lp609
sg10
S'Possible'
p610
sg12
S'Most'
p611
sg14
g76
sg16
I0
sg17
S'High'
p612
sg19
S'Stor tilleggsbelastning'
p613
sg21
Nsg22
S'200'
p614
sg24
S'1900'
p615
sg26
S'De fleste bratte heng, Ogsaa i mindre bratt terreng'
p616
sg28
Nsg29
g355
sg31
S'2 - Smaa'
p617
sba(irunmatrix
M3Element
p618
(dp619
g3
Nsg4
S'Lite sannsynlig, Mulig'
p620
sg6
S'gray'
p621
sg8
(lp622
sg10
S'Possible'
p623
sg12
S'Most'
p624
sg14
g76
sg16
I0
sg17
S'Low'
p625
sg19
S'Liten tilleggsbelastning'
p626
sg21
Nsg22
S'200'
p627
sg24
S'2000'
p628
sg26
S'De fleste bratte heng, Ogsaa i mindre bratt terreng'
p629
sg28
Nsg29
g355
sg31
S'2 - Smaa'
p630
sba(irunmatrix
M3Element
p631
(dp632
g3
Nsg4
S'Lite sannsynlig, Mulig'
p633
sg6
S'gray'
p634
sg8
(lp635
sg10
S'Possible'
p636
sg12
S'Most'
p637
sg14
g76
sg16
I0
sg17
S'Nat'
p638
sg19
S'Naturlig utloest'
p639
sg21
Nsg22
S'200'
p640
sg24
S'2100'
p641
sg26
S'De fleste bratte heng, Ogsaa i mindre bratt terreng'
p642
sg28
Nsg29
g355
sg31
S'2 - Smaa'
p643
sba(irunmatrix
M3Element
p644
(dp645
g3
Nsg4
S'Sannsynlig, Meget sannsynlig'
p646
sg6
S'gray'
p647
sg8
(lp648
sg10
S'Likely'
p649
sg12
S'Most'
p650
sg14
g76
sg16
I0
sg17
S'High'
p651
sg19
S'Stor tilleggsbelastning'
p652
sg21
Nsg22
S'200'
p653
sg24
S'2200'
p654
sg26
S'De fleste bratte heng, Ogsaa i mindre bratt terreng'
p655
sg28
Nsg29
g355
sg31
S'2 - Smaa'
p656
sba(irunmatrix
M3Element
p657
(dp658
g3
Nsg4
S'Sannsynlig, Meget sannsynlig'
p659
sg6
S'gray'
p660
sg8
(lp661
sg10
S'Likely'
p662
sg12
S'Most'
p663
sg14
g76
sg16
I0
sg17
S'Low'
p664
sg19
S'Liten tilleggsbelastning'
p665
sg21
Nsg22
S'200'
p666
sg24
S'2300'
p667
sg26
S'De fleste bratte heng, Ogsaa i mindre bratt terreng'
p668
sg28
Nsg29
g355
sg31
S'2 - Smaa'
p669
sba(irunmatrix
M3Element
p670
(dp671
g3
Nsg4
S'Sannsynlig, Meget sannsynlig'
p672
sg6
S'white'
p673
sg8
(lp674
sg10
S'Likely'
p675
sg12
S'Most'
p676
sg14
g76
sg16
I0
sg17
S'Nat'
p677
sg19
S'Naturlig utloest'
p678
sg21
Nsg22
S'200'
p679
sg24
S'2400'
p680
sg26
S'De fleste bratte heng, Ogsaa i mindre bratt terreng'
p681
sg28
Nsg29
g355
sg31
S'2 - Smaa'
p682
sba(irunmatrix
M3Element
p683
(dp684
g3
Nsg4
S'Lite sannsynlig, Mulig'
p685
sg6
S'white'
p686
sg8
(lp687
sg10
S'Possible'
p688
sg12
S'Isolated'
p689
sg14
g15
sg16
I1
sg17
S'High'
p690
sg19
S'Stor tilleggsbelastning'
p691
sg21
Nsg22
S'300'
p692
sg24
S'100'
p693
sg26
S'Isolerte faresoner'
p694
sg28
Nsg29
S'3'
p695
sg31
S'3 - Middels'
p696
sba(irunmatrix
M3Element
p697
(dp698
g3
Nsg4
S'Lite sannsynlig, Mulig'
p699
sg6
S'white'
p700
sg8
(lp701
sg10
S'Possible'
p702
sg12
S'Isolated'
p703
sg14
g258
sg16
I2
sg17
S'Low'
p704
sg19
S'Liten tilleggsbelastning'
p705
sg21
Nsg22
S'300'
p706
sg24
S'200'
p707
sg26
S'Isolerte faresoner'
p708
sg28
Nsg29
g695
sg31
S'3 - Middels'
p709
sba(irunmatrix
M3Element
p710
(dp711
g3
Nsg4
S'Lite sannsynlig, Mulig'
p712
sg6
S'white'
p713
sg8
(lp714
sg10
S'Possible'
p715
sg12
S'Isolated'
p716
sg14
g258
sg16
I2
sg17
S'Nat'
p717
sg19
S'Naturlig utloest'
p718
sg21
Nsg22
S'300'
p719
sg24
S'300'
p720
sg26
S'Isolerte faresoner'
p721
sg28
Nsg29
g695
sg31
S'3 - Middels'
p722
sba(irunmatrix
M3Element
p723
(dp724
g3
Nsg4
S'Sannsynlig, Meget sannsynlig'
p725
sg6
S'gray'
p726
sg8
(lp727
sg10
S'Likely'
p728
sg12
S'Isolated'
p729
sg14
g76
sg16
I0
sg17
S'High'
p730
sg19
S'Stor tilleggsbelastning'
p731
sg21
Nsg22
S'300'
p732
sg24
S'400'
p733
sg26
S'Isolerte faresoner'
p734
sg28
Nsg29
g695
sg31
S'3 - Middels'
p735
sba(irunmatrix
M3Element
p736
(dp737
g3
Nsg4
S'Sannsynlig, Meget sannsynlig'
p738
sg6
S'gray'
p739
sg8
(lp740
sg10
S'Likely'
p741
sg12
S'Isolated'
p742
sg14
g76
sg16
I0
sg17
S'Low'
p743
sg19
S'Liten tilleggsbelastning'
p744
sg21
Nsg22
S'300'
p745
sg24
S'500'
p746
sg26
S'Isolerte faresoner'
p747
sg28
Nsg29
g695
sg31
S'3 - Middels'
p748
sba(irunmatrix
M3Element
p749
(dp750
g3
Nsg4
S'Sannsynlig, Meget sannsynlig'
p751
sg6
S'gray'
p752
sg8
(lp753
sg10
S'Likely'
p754
sg12
S'Isolated'
p755
sg14
g76
sg16
I0
sg17
S'Nat'
p756
sg19
S'Naturlig utloest'
p757
sg21
Nsg22
S'300'
p758
sg24
S'600'
p759
sg26
S'Isolerte faresoner'
p760
sg28
Nsg29
g695
sg31
S'3 - Middels'
p761
sba(irunmatrix
M3Element
p762
(dp763
g3
F2.5
sg4
S'Lite sannsynlig, Mulig'
p764
sg6
g225
sg8
(lp765
I2
aI3
asg10
S'Possible'
p766
sg12
S'Some'
p767
sg14
g258
sg16
I2
sg17
S'High'
p768
sg19
S'Stor tilleggsbelastning'
p769
sg21
I2
sg22
S'300'
p770
sg24
S'700'
p771
sg26
S'Noen bratte heng'
p772
sg28
g45
(g49
S'\x00\x00\x00\x00\x00\x00\xe0?'
p773
tp774
Rp775
sg29
g695
sg31
S'3 - Middels'
p776
sba(irunmatrix
M3Element
p777
(dp778
g3
F3.0
sg4
S'Lite sannsynlig, Mulig'
p779
sg6
g225
sg8
(lp780
I3
asg10
S'Possible'
p781
sg12
S'Some'
p782
sg14
g512
sg16
I3
sg17
S'Low'
p783
sg19
S'Liten tilleggsbelastning'
p784
sg21
I1
sg22
S'300'
p785
sg24
S'800'
p786
sg26
S'Noen bratte heng'
p787
sg28
g45
(g49
S'\x00\x00\x00\x00\x00\x00\x00\x00'
p788
tp789
Rp790
sg29
g695
sg31
S'3 - Middels'
p791
sba(irunmatrix
M3Element
p792
(dp793
g3
F3.0
sg4
S'Lite sannsynlig, Mulig'
p794
sg6
g225
sg8
(lp795
I3
aI3
aI3
aI3
aI3
aI3
asg10
S'Possible'
p796
sg12
S'Some'
p797
sg14
g512
sg16
I3
sg17
S'Nat'
p798
sg19
S'Naturlig utloest'
p799
sg21
I6
sg22
S'300'
p800
sg24
S'900'
p801
sg26
S'Noen bratte heng'
p802
sg28
g45
(g49
S'\x00\x00\x00\x00\x00\x00\x00\x00'
p803
tp804
Rp805
sg29
g695
sg31
S'3 - Middels'
p806
sba(irunmatrix
M3Element
p807
(dp808
g3
Nsg4
S'Sannsynlig, Meget sannsynlig'
p809
sg6
S'gray'
p810
sg8
(lp811
sg10
S'Likely'
p812
sg12
S'Some'
p813
sg14
g76
sg16
I0
sg17
S'High'
p814
sg19
S'Stor tilleggsbelastning'
p815
sg21
Nsg22
S'300'
p816
sg24
S'1000'
p817
sg26
S'Noen bratte heng'
p818
sg28
Nsg29
g695
sg31
S'3 - Middels'
p819
sba(irunmatrix
M3Element
p820
(dp821
g3
Nsg4
S'Sannsynlig, Meget sannsynlig'
p822
sg6
S'gray'
p823
sg8
(lp824
sg10
S'Likely'
p825
sg12
S'Some'
p826
sg14
g76
sg16
I0
sg17
S'Low'
p827
sg19
S'Liten tilleggsbelastning'
p828
sg21
Nsg22
S'300'
p829
sg24
S'1100'
p830
sg26
S'Noen bratte heng'
p831
sg28
Nsg29
g695
sg31
S'3 - Middels'
p832
sba(irunmatrix
M3Element
p833
(dp834
g3
Nsg4
S'Sannsynlig, Meget sannsynlig'
p835
sg6
S'white'
p836
sg8
(lp837
sg10
S'Likely'
p838
sg12
S'Some'
p839
sg14
g585
sg16
I4
sg17
S'Nat'
p840
sg19
S'Naturlig utloest'
p841
sg21
Nsg22
S'300'
p842
sg24
S'1200'
p843
sg26
S'Noen bratte heng'
p844
sg28
Nsg29
g695
sg31
S'3 - Middels'
p845
sba(irunmatrix
M3Element
p846
(dp847
g3
Nsg4
S'Lite sannsynlig, Mulig'
p848
sg6
S'gray'
p849
sg8
(lp850
sg10
S'Possible'
p851
sg12
S'Many'
p852
sg14
g76
sg16
I0
sg17
S'High'
p853
sg19
S'Stor tilleggsbelastning'
p854
sg21
Nsg22
S'300'
p855
sg24
S'1300'
p856
sg26
S'Mange bratte heng'
p857
sg28
Nsg29
g695
sg31
S'3 - Middels'
p858
sba(irunmatrix
M3Element
p859
(dp860
g3
F3.0
sg4
S'Lite sannsynlig, Mulig'
p861
sg6
g225
sg8
(lp862
I3
aI3
asg10
S'Possible'
p863
sg12
S'Many'
p864
sg14
g585
sg16
I4
sg17
S'Low'
p865
sg19
S'Liten tilleggsbelastning'
p866
sg21
I2
sg22
S'300'
p867
sg24
S'1400'
p868
sg26
S'Mange bratte heng'
p869
sg28
g45
(g49
S'\x00\x00\x00\x00\x00\x00\x00\x00'
p870
tp871
Rp872
sg29
g695
sg31
S'3 - Middels'
p873
sba(irunmatrix
M3Element
p874
(dp875
g3
Nsg4
S'Lite sannsynlig, Mulig'
p876
sg6
S'gray'
p877
sg8
(lp878
sg10
S'Possible'
p879
sg12
S'Many'
p880
sg14
g76
sg16
I0
sg17
S'Nat'
p881
sg19
S'Naturlig utloest'
p882
sg21
Nsg22
S'300'
p883
sg24
S'1500'
p884
sg26
S'Mange bratte heng'
p885
sg28
Nsg29
g695
sg31
S'3 - Middels'
p886
sba(irunmatrix
M3Element
p887
(dp888
g3
Nsg4
S'Sannsynlig, Meget sannsynlig'
p889
sg6
S'gray'
p890
sg8
(lp891
sg10
S'Likely'
p892
sg12
S'Many'
p893
sg14
g76
sg16
I0
sg17
S'High'
p894
sg19
S'Stor tilleggsbelastning'
p895
sg21
Nsg22
S'300'
p896
sg24
S'1600'
p897
sg26
S'Mange bratte heng'
p898
sg28
Nsg29
g695
sg31
S'3 - Middels'
p899
sba(irunmatrix
M3Element
p900
(dp901
g3
Nsg4
S'Sannsynlig, Meget sannsynlig'
p902
sg6
S'white'
p903
sg8
(lp904
sg10
S'Likely'
p905
sg12
S'Many'
p906
sg14
g585
sg16
I4
sg17
S'Low'
p907
sg19
S'Liten tilleggsbelastning'
p908
sg21
Nsg22
S'300'
p909
sg24
S'1700'
p910
sg26
S'Mange bratte heng'
p911
sg28
Nsg29
g695
sg31
S'3 - Middels'
p912
sba(irunmatrix
M3Element
p913
(dp914
g3
Nsg4
S'Sannsynlig, Meget sannsynlig'
p915
sg6
S'white'
p916
sg8
(lp917
sg10
S'Likely'
p918
sg12
S'Many'
p919
sg14
g585
sg16
I4
sg17
S'Nat'
p920
sg19
S'Naturlig utloest'
p921
sg21
Nsg22
S'300'
p922
sg24
S'1800'
p923
sg26
S'Mange bratte heng'
p924
sg28
Nsg29
g695
sg31
S'3 - Middels'
p925
sba(irunmatrix
M3Element
p926
(dp927
g3
Nsg4
S'Lite sannsynlig, Mulig'
p928
sg6
S'gray'
p929
sg8
(lp930
sg10
S'Possible'
p931
sg12
S'Most'
p932
sg14
g76
sg16
I0
sg17
S'High'
p933
sg19
S'Stor tilleggsbelastning'
p934
sg21
Nsg22
S'300'
p935
sg24
S'1900'
p936
sg26
S'De fleste bratte heng, Ogsaa i mindre bratt terreng'
p937
sg28
Nsg29
g695
sg31
S'3 - Middels'
p938
sba(irunmatrix
M3Element
p939
(dp940
g3
Nsg4
S'Lite sannsynlig, Mulig'
p941
sg6
S'gray'
p942
sg8
(lp943
sg10
S'Possible'
p944
sg12
S'Most'
p945
sg14
g76
sg16
I0
sg17
S'Low'
p946
sg19
S'Liten tilleggsbelastning'
p947
sg21
Nsg22
S'300'
p948
sg24
S'2000'
p949
sg26
S'De fleste bratte heng, Ogsaa i mindre bratt terreng'
p950
sg28
Nsg29
g695
sg31
S'3 - Middels'
p951
sba(irunmatrix
M3Element
p952
(dp953
g3
Nsg4
S'Lite sannsynlig, Mulig'
p954
sg6
S'gray'
p955
sg8
(lp956
sg10
S'Possible'
p957
sg12
S'Most'
p958
sg14
g76
sg16
I0
sg17
S'Nat'
p959
sg19
S'Naturlig utloest'
p960
sg21
Nsg22
S'300'
p961
sg24
S'2100'
p962
sg26
S'De fleste bratte heng, Ogsaa i mindre bratt terreng'
p963
sg28
Nsg29
g695
sg31
S'3 - Middels'
p964
sba(irunmatrix
M3Element
p965
(dp966
g3
Nsg4
S'Sannsynlig, Meget sannsynlig'
p967
sg6
S'gray'
p968
sg8
(lp969
sg10
S'Likely'
p970
sg12
S'Most'
p971
sg14
g76
sg16
I0
sg17
S'High'
p972
sg19
S'Stor tilleggsbelastning'
p973
sg21
Nsg22
S'300'
p974
sg24
S'2200'
p975
sg26
S'De fleste bratte heng, Ogsaa i mindre bratt terreng'
p976
sg28
Nsg29
g695
sg31
S'3 - Middels'
p977
sba(irunmatrix
M3Element
p978
(dp979
g3
Nsg4
S'Sannsynlig, Meget sannsynlig'
p980
sg6
S'gray'
p981
sg8
(lp982
sg10
S'Likely'
p983
sg12
S'Most'
p984
sg14
g76
sg16
I0
sg17
S'Low'
p985
sg19
S'Liten tilleggsbelastning'
p986
sg21
Nsg22
S'300'
p987
sg24
S'2300'
p988
sg26
S'De fleste bratte heng, Ogsaa i mindre bratt terreng'
p989
sg28
Nsg29
g695
sg31
S'3 - Middels'
p990
sba(irunmatrix
M3Element
p991
(dp992
g3
Nsg4
S'Sannsynlig, Meget sannsynlig'
p993
sg6
S'white'
p994
sg8
(lp995
sg10
S'Likely'
p996
sg12
S'Most'
p997
sg14
g76
sg16
I0
sg17
S'Nat'
p998
sg19
S'Naturlig utloest'
p999
sg21
Nsg22
S'300'
p1000
sg24
S'2400'
p1001
sg26
S'De fleste bratte heng, Ogsaa i mindre bratt terreng'
p1002
sg28
Nsg29
g695
sg31
S'3 - Middels'
p1003
sba(irunmatrix
M3Element
p1004
(dp1005
g3
Nsg4
S'Lite sannsynlig, Mulig'
p1006
sg6
S'white'
p1007
sg8
(lp1008
sg10
S'Possible'
p1009
sg12
S'Isolated'
p1010
sg14
g258
sg16
I2
sg17
S'High'
p1011
sg19
S'Stor tilleggsbelastning'
p1012
sg21
Nsg22
S'400'
p1013
sg24
S'100'
p1014
sg26
S'Isolerte faresoner'
p1015
sg28
Nsg29
S'4'
p1016
sg31
S'4 - Store'
p1017
sba(irunmatrix
M3Element
p1018
(dp1019
g3
Nsg4
S'Lite sannsynlig, Mulig'
p1020
sg6
S'white'
p1021
sg8
(lp1022
sg10
S'Possible'
p1023
sg12
S'Isolated'
p1024
sg14
g512
sg16
I3
sg17
S'Low'
p1025
sg19
S'Liten tilleggsbelastning'
p1026
sg21
Nsg22
S'400'
p1027
sg24
S'200'
p1028
sg26
S'Isolerte faresoner'
p1029
sg28
Nsg29
g1016
sg31
S'4 - Store'
p1030
sba(irunmatrix
M3Element
p1031
(dp1032
g3
Nsg4
S'Lite sannsynlig, Mulig'
p1033
sg6
S'white'
p1034
sg8
(lp1035
sg10
S'Possible'
p1036
sg12
S'Isolated'
p1037
sg14
g512
sg16
I3
sg17
S'Nat'
p1038
sg19
S'Naturlig utloest'
p1039
sg21
Nsg22
S'400'
p1040
sg24
S'300'
p1041
sg26
S'Isolerte faresoner'
p1042
sg28
Nsg29
g1016
sg31
S'4 - Store'
p1043
sba(irunmatrix
M3Element
p1044
(dp1045
g3
Nsg4
S'Sannsynlig, Meget sannsynlig'
p1046
sg6
S'gray'
p1047
sg8
(lp1048
sg10
S'Likely'
p1049
sg12
S'Isolated'
p1050
sg14
g76
sg16
I0
sg17
S'High'
p1051
sg19
S'Stor tilleggsbelastning'
p1052
sg21
Nsg22
S'400'
p1053
sg24
S'400'
p1054
sg26
S'Isolerte faresoner'
p1055
sg28
Nsg29
g1016
sg31
S'4 - Store'
p1056
sba(irunmatrix
M3Element
p1057
(dp1058
g3
Nsg4
S'Sannsynlig, Meget sannsynlig'
p1059
sg6
S'gray'
p1060
sg8
(lp1061
sg10
S'Likely'
p1062
sg12
S'Isolated'
p1063
sg14
g76
sg16
I0
sg17
S'Low'
p1064
sg19
S'Liten tilleggsbelastning'
p1065
sg21
Nsg22
S'400'
p1066
sg24
S'500'
p1067
sg26
S'Isolerte faresoner'
p1068
sg28
Nsg29
g1016
sg31
S'4 - Store'
p1069
sba(irunmatrix
M3Element
p1070
(dp1071
g3
Nsg4
S'Sannsynlig, Meget sannsynlig'
p1072
sg6
S'gray'
p1073
sg8
(lp1074
sg10
S'Likely'
p1075
sg12
S'Isolated'
p1076
sg14
g76
sg16
I0
sg17
S'Nat'
p1077
sg19
S'Naturlig utloest'
p1078
sg21
Nsg22
S'400'
p1079
sg24
S'600'
p1080
sg26
S'Isolerte faresoner'
p1081
sg28
Nsg29
g1016
sg31
S'4 - Store'
p1082
sba(irunmatrix
M3Element
p1083
(dp1084
g3
Nsg4
S'Lite sannsynlig, Mulig'
p1085
sg6
S'white'
p1086
sg8
(lp1087
sg10
S'Possible'
p1088
sg12
S'Some'
p1089
sg14
g512
sg16
I3
sg17
S'High'
p1090
sg19
S'Stor tilleggsbelastning'
p1091
sg21
Nsg22
S'400'
p1092
sg24
S'700'
p1093
sg26
S'Noen bratte heng'
p1094
sg28
Nsg29
g1016
sg31
S'4 - Store'
p1095
sba(irunmatrix
M3Element
p1096
(dp1097
g3
Nsg4
S'Lite sannsynlig, Mulig'
p1098
sg6
S'white'
p1099
sg8
(lp1100
sg10
S'Possible'
p1101
sg12
S'Some'
p1102
sg14
g585
sg16
I4
sg17
S'Low'
p1103
sg19
S'Liten tilleggsbelastning'
p1104
sg21
Nsg22
S'400'
p1105
sg24
S'800'
p1106
sg26
S'Noen bratte heng'
p1107
sg28
Nsg29
g1016
sg31
S'4 - Store'
p1108
sba(irunmatrix
M3Element
p1109
(dp1110
g3
Nsg4
S'Lite sannsynlig, Mulig'
p1111
sg6
S'white'
p1112
sg8
(lp1113
sg10
S'Possible'
p1114
sg12
S'Some'
p1115
sg14
g585
sg16
I4
sg17
S'Nat'
p1116
sg19
S'Naturlig utloest'
p1117
sg21
Nsg22
S'400'
p1118
sg24
S'900'
p1119
sg26
S'Noen bratte heng'
p1120
sg28
Nsg29
g1016
sg31
S'4 - Store'
p1121
sba(irunmatrix
M3Element
p1122
(dp1123
g3
Nsg4
S'Sannsynlig, Meget sannsynlig'
p1124
sg6
S'gray'
p1125
sg8
(lp1126
sg10
S'Likely'
p1127
sg12
S'Some'
p1128
sg14
g76
sg16
I0
sg17
S'High'
p1129
sg19
S'Stor tilleggsbelastning'
p1130
sg21
Nsg22
S'400'
p1131
sg24
S'1000'
p1132
sg26
S'Noen bratte heng'
p1133
sg28
Nsg29
g1016
sg31
S'4 - Store'
p1134
sba(irunmatrix
M3Element
p1135
(dp1136
g3
Nsg4
S'Sannsynlig, Meget sannsynlig'
p1137
sg6
S'gray'
p1138
sg8
(lp1139
sg10
S'Likely'
p1140
sg12
S'Some'
p1141
sg14
g76
sg16
I0
sg17
S'Low'
p1142
sg19
S'Liten tilleggsbelastning'
p1143
sg21
Nsg22
S'400'
p1144
sg24
S'1100'
p1145
sg26
S'Noen bratte heng'
p1146
sg28
Nsg29
g1016
sg31
S'4 - Store'
p1147
sba(irunmatrix
M3Element
p1148
(dp1149
g3
Nsg4
S'Sannsynlig, Meget sannsynlig'
p1150
sg6
S'white'
p1151
sg8
(lp1152
sg10
S'Likely'
p1153
sg12
S'Some'
p1154
sg14
g585
sg16
I4
sg17
S'Nat'
p1155
sg19
S'Naturlig utloest'
p1156
sg21
Nsg22
S'400'
p1157
sg24
S'1200'
p1158
sg26
S'Noen bratte heng'
p1159
sg28
Nsg29
g1016
sg31
S'4 - Store'
p1160
sba(irunmatrix
M3Element
p1161
(dp1162
g3
Nsg4
S'Lite sannsynlig, Mulig'
p1163
sg6
S'gray'
p1164
sg8
(lp1165
sg10
S'Possible'
p1166
sg12
S'Many'
p1167
sg14
g76
sg16
I0
sg17
S'High'
p1168
sg19
S'Stor tilleggsbelastning'
p1169
sg21
Nsg22
S'400'
p1170
sg24
S'1300'
p1171
sg26
S'Mange bratte heng'
p1172
sg28
Nsg29
g1016
sg31
S'4 - Store'
p1173
sba(irunmatrix
M3Element
p1174
(dp1175
g3
Nsg4
S'Lite sannsynlig, Mulig'
p1176
sg6
S'white'
p1177
sg8
(lp1178
sg10
S'Possible'
p1179
sg12
S'Many'
p1180
sg14
g76
sg16
I0
sg17
S'Low'
p1181
sg19
S'Liten tilleggsbelastning'
p1182
sg21
Nsg22
S'400'
p1183
sg24
S'1400'
p1184
sg26
S'Mange bratte heng'
p1185
sg28
Nsg29
g1016
sg31
S'4 - Store'
p1186
sba(irunmatrix
M3Element
p1187
(dp1188
g3
Nsg4
S'Lite sannsynlig, Mulig'
p1189
sg6
S'gray'
p1190
sg8
(lp1191
sg10
S'Possible'
p1192
sg12
S'Many'
p1193
sg14
g76
sg16
I0
sg17
S'Nat'
p1194
sg19
S'Naturlig utloest'
p1195
sg21
Nsg22
S'400'
p1196
sg24
S'1500'
p1197
sg26
S'Mange bratte heng'
p1198
sg28
Nsg29
g1016
sg31
S'4 - Store'
p1199
sba(irunmatrix
M3Element
p1200
(dp1201
g3
Nsg4
S'Sannsynlig, Meget sannsynlig'
p1202
sg6
S'gray'
p1203
sg8
(lp1204
sg10
S'Likely'
p1205
sg12
S'Many'
p1206
sg14
g76
sg16
I0
sg17
S'High'
p1207
sg19
S'Stor tilleggsbelastning'
p1208
sg21
Nsg22
S'400'
p1209
sg24
S'1600'
p1210
sg26
S'Mange bratte heng'
p1211
sg28
Nsg29
g1016
sg31
S'4 - Store'
p1212
sba(irunmatrix
M3Element
p1213
(dp1214
g3
Nsg4
S'Sannsynlig, Meget sannsynlig'
p1215
sg6
S'white'
p1216
sg8
(lp1217
sg10
S'Likely'
p1218
sg12
S'Many'
p1219
sg14
g76
sg16
I0
sg17
S'Low'
p1220
sg19
S'Liten tilleggsbelastning'
p1221
sg21
Nsg22
S'400'
p1222
sg24
S'1700'
p1223
sg26
S'Mange bratte heng'
p1224
sg28
Nsg29
g1016
sg31
S'4 - Store'
p1225
sba(irunmatrix
M3Element
p1226
(dp1227
g3
Nsg4
S'Sannsynlig, Meget sannsynlig'
p1228
sg6
S'white'
p1229
sg8
(lp1230
sg10
S'Likely'
p1231
sg12
S'Many'
p1232
sg14
S'k'
p1233
sg16
I5
sg17
S'Nat'
p1234
sg19
S'Naturlig utloest'
p1235
sg21
Nsg22
S'400'
p1236
sg24
S'1800'
p1237
sg26
S'Mange bratte heng'
p1238
sg28
Nsg29
g1016
sg31
S'4 - Store'
p1239
sba(irunmatrix
M3Element
p1240
(dp1241
g3
Nsg4
S'Lite sannsynlig, Mulig'
p1242
sg6
S'gray'
p1243
sg8
(lp1244
sg10
S'Possible'
p1245
sg12
S'Most'
p1246
sg14
g76
sg16
I0
sg17
S'High'
p1247
sg19
S'Stor tilleggsbelastning'
p1248
sg21
Nsg22
S'400'
p1249
sg24
S'1900'
p1250
sg26
S'De fleste bratte heng, Ogsaa i mindre bratt terreng'
p1251
sg28
Nsg29
g1016
sg31
S'4 - Store'
p1252
sba(irunmatrix
M3Element
p1253
(dp1254
g3
Nsg4
S'Lite sannsynlig, Mulig'
p1255
sg6
S'gray'
p1256
sg8
(lp1257
sg10
S'Possible'
p1258
sg12
S'Most'
p1259
sg14
g76
sg16
I0
sg17
S'Low'
p1260
sg19
S'Liten tilleggsbelastning'
p1261
sg21
Nsg22
S'400'
p1262
sg24
S'2000'
p1263
sg26
S'De fleste bratte heng, Ogsaa i mindre bratt terreng'
p1264
sg28
Nsg29
g1016
sg31
S'4 - Store'
p1265
sba(irunmatrix
M3Element
p1266
(dp1267
g3
Nsg4
S'Lite sannsynlig, Mulig'
p1268
sg6
S'gray'
p1269
sg8
(lp1270
sg10
S'Possible'
p1271
sg12
S'Most'
p1272
sg14
g76
sg16
I0
sg17
S'Nat'
p1273
sg19
S'Naturlig utloest'
p1274
sg21
Nsg22
S'400'
p1275
sg24
S'2100'
p1276
sg26
S'De fleste bratte heng, Ogsaa i mindre bratt terreng'
p1277
sg28
Nsg29
g1016
sg31
S'4 - Store'
p1278
sba(irunmatrix
M3Element
p1279
(dp1280
g3
Nsg4
S'Sannsynlig, Meget sannsynlig'
p1281
sg6
S'gray'
p1282
sg8
(lp1283
sg10
S'Likely'
p1284
sg12
S'Most'
p1285
sg14
g76
sg16
I0
sg17
S'High'
p1286
sg19
S'Stor tilleggsbelastning'
p1287
sg21
Nsg22
S'400'
p1288
sg24
S'2200'
p1289
sg26
S'De fleste bratte heng, Ogsaa i mindre bratt terreng'
p1290
sg28
Nsg29
g1016
sg31
S'4 - Store'
p1291
sba(irunmatrix
M3Element
p1292
(dp1293
g3
Nsg4
S'Sannsynlig, Meget sannsynlig'
p1294
sg6
S'gray'
p1295
sg8
(lp1296
sg10
S'Likely'
p1297
sg12
S'Most'
p1298
sg14
g76
sg16
I0
sg17
S'Low'
p1299
sg19
S'Liten tilleggsbelastning'
p1300
sg21
Nsg22
S'400'
p1301
sg24
S'2300'
p1302
sg26
S'De fleste bratte heng, Ogsaa i mindre bratt terreng'
p1303
sg28
Nsg29
g1016
sg31
S'4 - Store'
p1304
sba(irunmatrix
M3Element
p1305
(dp1306
g3
Nsg4
S'Sannsynlig, Meget sannsynlig'
p1307
sg6
S'white'
p1308
sg8
(lp1309
sg10
S'Likely'
p1310
sg12
S'Most'
p1311
sg14
g76
sg16
I0
sg17
S'Nat'
p1312
sg19
S'Naturlig utloest'
p1313
sg21
Nsg22
S'400'
p1314
sg24
S'2400'
p1315
sg26
S'De fleste bratte heng, Ogsaa i mindre bratt terreng'
p1316
sg28
Nsg29
g1016
sg31
S'4 - Store'
p1317
sba(irunmatrix
M3Element
p1318
(dp1319
g3
Nsg4
S'Lite sannsynlig, Mulig'
p1320
sg6
S'white'
p1321
sg8
(lp1322
sg10
S'Possible'
p1323
sg12
S'Isolated'
p1324
sg14
g76
sg16
I0
sg17
S'High'
p1325
sg19
S'Stor tilleggsbelastning'
p1326
sg21
Nsg22
S'500'
p1327
sg24
S'100'
p1328
sg26
S'Isolerte faresoner'
p1329
sg28
Nsg29
S'5'
p1330
sg31
S'5 - Svaert store'
p1331
sba(irunmatrix
M3Element
p1332
(dp1333
g3
Nsg4
S'Lite sannsynlig, Mulig'
p1334
sg6
S'white'
p1335
sg8
(lp1336
sg10
S'Possible'
p1337
sg12
S'Isolated'
p1338
sg14
g76
sg16
I0
sg17
S'Low'
p1339
sg19
S'Liten tilleggsbelastning'
p1340
sg21
Nsg22
S'500'
p1341
sg24
S'200'
p1342
sg26
S'Isolerte faresoner'
p1343
sg28
Nsg29
g1330
sg31
S'5 - Svaert store'
p1344
sba(irunmatrix
M3Element
p1345
(dp1346
g3
Nsg4
S'Lite sannsynlig, Mulig'
p1347
sg6
S'white'
p1348
sg8
(lp1349
sg10
S'Possible'
p1350
sg12
S'Isolated'
p1351
sg14
g76
sg16
I0
sg17
S'Nat'
p1352
sg19
S'Naturlig utloest'
p1353
sg21
Nsg22
S'500'
p1354
sg24
S'300'
p1355
sg26
S'Isolerte faresoner'
p1356
sg28
Nsg29
g1330
sg31
S'5 - Svaert store'
p1357
sba(irunmatrix
M3Element
p1358
(dp1359
g3
Nsg4
S'Sannsynlig, Meget sannsynlig'
p1360
sg6
S'gray'
p1361
sg8
(lp1362
sg10
S'Likely'
p1363
sg12
S'Isolated'
p1364
sg14
g76
sg16
I0
sg17
S'High'
p1365
sg19
S'Stor tilleggsbelastning'
p1366
sg21
Nsg22
S'500'
p1367
sg24
S'400'
p1368
sg26
S'Isolerte faresoner'
p1369
sg28
Nsg29
g1330
sg31
S'5 - Svaert store'
p1370
sba(irunmatrix
M3Element
p1371
(dp1372
g3
Nsg4
S'Sannsynlig, Meget sannsynlig'
p1373
sg6
S'gray'
p1374
sg8
(lp1375
sg10
S'Likely'
p1376
sg12
S'Isolated'
p1377
sg14
g76
sg16
I0
sg17
S'Low'
p1378
sg19
S'Liten tilleggsbelastning'
p1379
sg21
Nsg22
S'500'
p1380
sg24
S'500'
p1381
sg26
S'Isolerte faresoner'
p1382
sg28
Nsg29
g1330
sg31
S'5 - Svaert store'
p1383
sba(irunmatrix
M3Element
p1384
(dp1385
g3
Nsg4
S'Sannsynlig, Meget sannsynlig'
p1386
sg6
S'gray'
p1387
sg8
(lp1388
sg10
S'Likely'
p1389
sg12
S'Isolated'
p1390
sg14
g76
sg16
I0
sg17
S'Nat'
p1391
sg19
S'Naturlig utloest'
p1392
sg21
Nsg22
S'500'
p1393
sg24
S'600'
p1394
sg26
S'Isolerte faresoner'
p1395
sg28
Nsg29
g1330
sg31
S'5 - Svaert store'
p1396
sba(irunmatrix
M3Element
p1397
(dp1398
g3
Nsg4
S'Lite sannsynlig, Mulig'
p1399
sg6
S'white'
p1400
sg8
(lp1401
sg10
S'Possible'
p1402
sg12
S'Some'
p1403
sg14
g76
sg16
I0
sg17
S'High'
p1404
sg19
S'Stor tilleggsbelastning'
p1405
sg21
Nsg22
S'500'
p1406
sg24
S'700'
p1407
sg26
S'Noen bratte heng'
p1408
sg28
Nsg29
g1330
sg31
S'5 - Svaert store'
p1409
sba(irunmatrix
M3Element
p1410
(dp1411
g3
Nsg4
S'Lite sannsynlig, Mulig'
p1412
sg6
S'white'
p1413
sg8
(lp1414
sg10
S'Possible'
p1415
sg12
S'Some'
p1416
sg14
g76
sg16
I0
sg17
S'Low'
p1417
sg19
S'Liten tilleggsbelastning'
p1418
sg21
Nsg22
S'500'
p1419
sg24
S'800'
p1420
sg26
S'Noen bratte heng'
p1421
sg28
Nsg29
g1330
sg31
S'5 - Svaert store'
p1422
sba(irunmatrix
M3Element
p1423
(dp1424
g3
Nsg4
S'Lite sannsynlig, Mulig'
p1425
sg6
S'white'
p1426
sg8
(lp1427
sg10
S'Possible'
p1428
sg12
S'Some'
p1429
sg14
g76
sg16
I0
sg17
S'Nat'
p1430
sg19
S'Naturlig utloest'
p1431
sg21
Nsg22
S'500'
p1432
sg24
S'900'
p1433
sg26
S'Noen bratte heng'
p1434
sg28
Nsg29
g1330
sg31
S'5 - Svaert store'
p1435
sba(irunmatrix
M3Element
p1436
(dp1437
g3
Nsg4
S'Sannsynlig, Meget sannsynlig'
p1438
sg6
S'gray'
p1439
sg8
(lp1440
sg10
S'Likely'
p1441
sg12
S'Some'
p1442
sg14
g76
sg16
I0
sg17
S'High'
p1443
sg19
S'Stor tilleggsbelastning'
p1444
sg21
Nsg22
S'500'
p1445
sg24
S'1000'
p1446
sg26
S'Noen bratte heng'
p1447
sg28
Nsg29
g1330
sg31
S'5 - Svaert store'
p1448
sba(irunmatrix
M3Element
p1449
(dp1450
g3
Nsg4
S'Sannsynlig, Meget sannsynlig'
p1451
sg6
S'gray'
p1452
sg8
(lp1453
sg10
S'Likely'
p1454
sg12
S'Some'
p1455
sg14
g76
sg16
I0
sg17
S'Low'
p1456
sg19
S'Liten tilleggsbelastning'
p1457
sg21
Nsg22
S'500'
p1458
sg24
S'1100'
p1459
sg26
S'Noen bratte heng'
p1460
sg28
Nsg29
g1330
sg31
S'5 - Svaert store'
p1461
sba(irunmatrix
M3Element
p1462
(dp1463
g3
Nsg4
S'Sannsynlig, Meget sannsynlig'
p1464
sg6
S'white'
p1465
sg8
(lp1466
sg10
S'Likely'
p1467
sg12
S'Some'
p1468
sg14
g76
sg16
I0
sg17
S'Nat'
p1469
sg19
S'Naturlig utloest'
p1470
sg21
Nsg22
S'500'
p1471
sg24
S'1200'
p1472
sg26
S'Noen bratte heng'
p1473
sg28
Nsg29
g1330
sg31
S'5 - Svaert store'
p1474
sba(irunmatrix
M3Element
p1475
(dp1476
g3
Nsg4
S'Lite sannsynlig, Mulig'
p1477
sg6
S'gray'
p1478
sg8
(lp1479
sg10
S'Possible'
p1480
sg12
S'Many'
p1481
sg14
g76
sg16
I0
sg17
S'High'
p1482
sg19
S'Stor tilleggsbelastning'
p1483
sg21
Nsg22
S'500'
p1484
sg24
S'1300'
p1485
sg26
S'Mange bratte heng'
p1486
sg28
Nsg29
g1330
sg31
S'5 - Svaert store'
p1487
sba(irunmatrix
M3Element
p1488
(dp1489
g3
Nsg4
S'Lite sannsynlig, Mulig'
p1490
sg6
S'white'
p1491
sg8
(lp1492
sg10
S'Possible'
p1493
sg12
S'Many'
p1494
sg14
g76
sg16
I0
sg17
S'Low'
p1495
sg19
S'Liten tilleggsbelastning'
p1496
sg21
Nsg22
S'500'
p1497
sg24
S'1400'
p1498
sg26
S'Mange bratte heng'
p1499
sg28
Nsg29
g1330
sg31
S'5 - Svaert store'
p1500
sba(irunmatrix
M3Element
p1501
(dp1502
g3
Nsg4
S'Lite sannsynlig, Mulig'
p1503
sg6
S'gray'
p1504
sg8
(lp1505
sg10
S'Possible'
p1506
sg12
S'Many'
p1507
sg14
g76
sg16
I0
sg17
S'Nat'
p1508
sg19
S'Naturlig utloest'
p1509
sg21
Nsg22
S'500'
p1510
sg24
S'1500'
p1511
sg26
S'Mange bratte heng'
p1512
sg28
Nsg29
g1330
sg31
S'5 - Svaert store'
p1513
sba(irunmatrix
M3Element
p1514
(dp1515
g3
Nsg4
S'Sannsynlig, Meget sannsynlig'
p1516
sg6
S'gray'
p1517
sg8
(lp1518
sg10
S'Likely'
p1519
sg12
S'Many'
p1520
sg14
g76
sg16
I0
sg17
S'High'
p1521
sg19
S'Stor tilleggsbelastning'
p1522
sg21
Nsg22
S'500'
p1523
sg24
S'1600'
p1524
sg26
S'Mange bratte heng'
p1525
sg28
Nsg29
g1330
sg31
S'5 - Svaert store'
p1526
sba(irunmatrix
M3Element
p1527
(dp1528
g3
Nsg4
S'Sannsynlig, Meget sannsynlig'
p1529
sg6
S'white'
p1530
sg8
(lp1531
sg10
S'Likely'
p1532
sg12
S'Many'
p1533
sg14
g76
sg16
I0
sg17
S'Low'
p1534
sg19
S'Liten tilleggsbelastning'
p1535
sg21
Nsg22
S'500'
p1536
sg24
S'1700'
p1537
sg26
S'Mange bratte heng'
p1538
sg28
Nsg29
g1330
sg31
S'5 - Svaert store'
p1539
sba(irunmatrix
M3Element
p1540
(dp1541
g3
Nsg4
S'Sannsynlig, Meget sannsynlig'
p1542
sg6
S'white'
p1543
sg8
(lp1544
sg10
S'Likely'
p1545
sg12
S'Many'
p1546
sg14
g1233
sg16
I5
sg17
S'Nat'
p1547
sg19
S'Naturlig utloest'
p1548
sg21
Nsg22
S'500'
p1549
sg24
S'1800'
p1550
sg26
S'Mange bratte heng'
p1551
sg28
Nsg29
g1330
sg31
S'5 - Svaert store'
p1552
sba(irunmatrix
M3Element
p1553
(dp1554
g3
Nsg4
S'Lite sannsynlig, Mulig'
p1555
sg6
S'gray'
p1556
sg8
(lp1557
sg10
S'Possible'
p1558
sg12
S'Most'
p1559
sg14
g76
sg16
I0
sg17
S'High'
p1560
sg19
S'Stor tilleggsbelastning'
p1561
sg21
Nsg22
S'500'
p1562
sg24
S'1900'
p1563
sg26
S'De fleste bratte heng, Ogsaa i mindre bratt terreng'
p1564
sg28
Nsg29
g1330
sg31
S'5 - Svaert store'
p1565
sba(irunmatrix
M3Element
p1566
(dp1567
g3
Nsg4
S'Lite sannsynlig, Mulig'
p1568
sg6
S'gray'
p1569
sg8
(lp1570
sg10
S'Possible'
p1571
sg12
S'Most'
p1572
sg14
g76
sg16
I0
sg17
S'Low'
p1573
sg19
S'Liten tilleggsbelastning'
p1574
sg21
Nsg22
S'500'
p1575
sg24
S'2000'
p1576
sg26
S'De fleste bratte heng, Ogsaa i mindre bratt terreng'
p1577
sg28
Nsg29
g1330
sg31
S'5 - Svaert store'
p1578
sba(irunmatrix
M3Element
p1579
(dp1580
g3
Nsg4
S'Lite sannsynlig, Mulig'
p1581
sg6
S'gray'
p1582
sg8
(lp1583
sg10
S'Possible'
p1584
sg12
S'Most'
p1585
sg14
g76
sg16
I0
sg17
S'Nat'
p1586
sg19
S'Naturlig utloest'
p1587
sg21
Nsg22
S'500'
p1588
sg24
S'2100'
p1589
sg26
S'De fleste bratte heng, Ogsaa i mindre bratt terreng'
p1590
sg28
Nsg29
g1330
sg31
S'5 - Svaert store'
p1591
sba(irunmatrix
M3Element
p1592
(dp1593
g3
Nsg4
S'Sannsynlig, Meget sannsynlig'
p1594
sg6
S'gray'
p1595
sg8
(lp1596
sg10
S'Likely'
p1597
sg12
S'Most'
p1598
sg14
g76
sg16
I0
sg17
S'High'
p1599
sg19
S'Stor tilleggsbelastning'
p1600
sg21
Nsg22
S'500'
p1601
sg24
S'2200'
p1602
sg26
S'De fleste bratte heng, Ogsaa i mindre bratt terreng'
p1603
sg28
Nsg29
g1330
sg31
S'5 - Svaert store'
p1604
sba(irunmatrix
M3Element
p1605
(dp1606
g3
Nsg4
S'Sannsynlig, Meget sannsynlig'
p1607
sg6
S'gray'
p1608
sg8
(lp1609
sg10
S'Likely'
p1610
sg12
S'Most'
p1611
sg14
g76
sg16
I0
sg17
S'Low'
p1612
sg19
S'Liten tilleggsbelastning'
p1613
sg21
Nsg22
S'500'
p1614
sg24
S'2300'
p1615
sg26
S'De fleste bratte heng, Ogsaa i mindre bratt terreng'
p1616
sg28
Nsg29
g1330
sg31
S'5 - Svaert store'
p1617
sba(irunmatrix
M3Element
p1618
(dp1619
g3
Nsg4
S'Sannsynlig, Meget sannsynlig'
p1620
sg6
S'white'
p1621
sg8
(lp1622
sg10
S'Likely'
p1623
sg12
S'Most'
p1624
sg14
g76
sg16
I0
sg17
S'Nat'
p1625
sg19
S'Naturlig utloest'
p1626
sg21
Nsg22
S'500'
p1627
sg24
S'2400'
p1628
sg26
S'De fleste bratte heng, Ogsaa i mindre bratt terreng'
p1629
sg28
Nsg29
g1330
sg31
S'5 - Svaert store'
p1630
sba.