(lp0
(i__main__
NodesAndValues
p1
(dp2
S'target_name'
p3
S'Skredproblem Ikke gitt'
p4
sS'node_id'
p5
I0
sS'target_id'
p6
I12
sS'value'
p7
I0
sS'node_name'
p8
S'Svakt lag Ikke gitt'
p9
sba(i__main__
NodesAndValues
p10
(dp11
g3
S'Toerre loessnoeskred'
p12
sg5
I0
sg6
I13
sg7
I0
sg8
g9
sba(i__main__
NodesAndValues
p13
(dp14
g3
S'Vaate loessnoeskred'
p15
sg5
I0
sg6
I14
sg7
I0
sg8
g9
sba(i__main__
NodesAndValues
p16
(dp17
g3
S'Nysnoeflak'
p18
sg5
I0
sg6
I15
sg7
I0
sg8
g9
sba(i__main__
NodesAndValues
p19
(dp20
g3
S'Fokksnoe'
p21
sg5
I0
sg6
I16
sg7
I0
sg8
g9
sba(i__main__
NodesAndValues
p22
(dp23
g3
S'Nysnoe'
p24
sg5
I0
sg6
I17
sg7
I0
sg8
g9
sba(i__main__
NodesAndValues
p25
(dp26
g3
S'Vedvarende svakt lag'
p27
sg5
I0
sg6
I18
sg7
I0
sg8
g9
sba(i__main__
NodesAndValues
p28
(dp29
g3
S'Dypt vedvarende svakt lag'
p30
sg5
I0
sg6
I19
sg7
I0
sg8
g9
sba(i__main__
NodesAndValues
p31
(dp32
g3
S'Vaat snoe'
p33
sg5
I0
sg6
I20
sg7
I0
sg8
g9
sba(i__main__
NodesAndValues
p34
(dp35
g3
S'Vaate flakskred'
p36
sg5
I0
sg6
I21
sg7
I0
sg8
g9
sba(i__main__
NodesAndValues
p37
(dp38
g3
S'Glideskred'
p39
sg5
I0
sg6
I22
sg7
I0
sg8
g9
sba(i__main__
NodesAndValues
p40
(dp41
g3
S'Skredproblem Ikke gitt'
p42
sg5
I1
sg6
I12
sg7
I0
sg8
S'Nedfoeyket loes nysnoe'
p43
sba(i__main__
NodesAndValues
p44
(dp45
g3
g12
sg5
I1
sg6
I13
sg7
I0
sg8
g43
sba(i__main__
NodesAndValues
p46
(dp47
g3
g15
sg5
I1
sg6
I14
sg7
I0
sg8
g43
sba(i__main__
NodesAndValues
p48
(dp49
g3
g18
sg5
I1
sg6
I15
sg7
I0
sg8
g43
sba(i__main__
NodesAndValues
p50
(dp51
g3
g21
sg5
I1
sg6
I16
sg7
I118
sg8
g43
sba(i__main__
NodesAndValues
p52
(dp53
g3
g24
sg5
I1
sg6
I17
sg7
I0
sg8
g43
sba(i__main__
NodesAndValues
p54
(dp55
g3
g27
sg5
I1
sg6
I18
sg7
I0
sg8
g43
sba(i__main__
NodesAndValues
p56
(dp57
g3
g30
sg5
I1
sg6
I19
sg7
I0
sg8
g43
sba(i__main__
NodesAndValues
p58
(dp59
g3
g33
sg5
I1
sg6
I20
sg7
I0
sg8
g43
sba(i__main__
NodesAndValues
p60
(dp61
g3
g36
sg5
I1
sg6
I21
sg7
I0
sg8
g43
sba(i__main__
NodesAndValues
p62
(dp63
g3
g39
sg5
I1
sg6
I22
sg7
I0
sg8
g43
sba(i__main__
NodesAndValues
p64
(dp65
g3
S'Skredproblem Ikke gitt'
p66
sg5
I2
sg6
I12
sg7
I0
sg8
S'Nedsnoedd overflaterim'
p67
sba(i__main__
NodesAndValues
p68
(dp69
g3
g12
sg5
I2
sg6
I13
sg7
I0
sg8
g67
sba(i__main__
NodesAndValues
p70
(dp71
g3
g15
sg5
I2
sg6
I14
sg7
I0
sg8
g67
sba(i__main__
NodesAndValues
p72
(dp73
g3
g18
sg5
I2
sg6
I15
sg7
I0
sg8
g67
sba(i__main__
NodesAndValues
p74
(dp75
g3
g21
sg5
I2
sg6
I16
sg7
I0
sg8
g67
sba(i__main__
NodesAndValues
p76
(dp77
g3
g24
sg5
I2
sg6
I17
sg7
I0
sg8
g67
sba(i__main__
NodesAndValues
p78
(dp79
g3
g27
sg5
I2
sg6
I18
sg7
I6
sg8
g67
sba(i__main__
NodesAndValues
p80
(dp81
g3
g30
sg5
I2
sg6
I19
sg7
I0
sg8
g67
sba(i__main__
NodesAndValues
p82
(dp83
g3
g33
sg5
I2
sg6
I20
sg7
I0
sg8
g67
sba(i__main__
NodesAndValues
p84
(dp85
g3
g36
sg5
I2
sg6
I21
sg7
I0
sg8
g67
sba(i__main__
NodesAndValues
p86
(dp87
g3
g39
sg5
I2
sg6
I22
sg7
I0
sg8
g67
sba(i__main__
NodesAndValues
p88
(dp89
g3
S'Skredproblem Ikke gitt'
p90
sg5
I3
sg6
I12
sg7
I0
sg8
S'Nedsnoedd kantkornet snoe'
p91
sba(i__main__
NodesAndValues
p92
(dp93
g3
g12
sg5
I3
sg6
I13
sg7
I0
sg8
g91
sba(i__main__
NodesAndValues
p94
(dp95
g3
g15
sg5
I3
sg6
I14
sg7
I0
sg8
g91
sba(i__main__
NodesAndValues
p96
(dp97
g3
g18
sg5
I3
sg6
I15
sg7
I0
sg8
g91
sba(i__main__
NodesAndValues
p98
(dp99
g3
g21
sg5
I3
sg6
I16
sg7
I0
sg8
g91
sba(i__main__
NodesAndValues
p100
(dp101
g3
g24
sg5
I3
sg6
I17
sg7
I0
sg8
g91
sba(i__main__
NodesAndValues
p102
(dp103
g3
g27
sg5
I3
sg6
I18
sg7
I8
sg8
g91
sba(i__main__
NodesAndValues
p104
(dp105
g3
g30
sg5
I3
sg6
I19
sg7
I0
sg8
g91
sba(i__main__
NodesAndValues
p106
(dp107
g3
g33
sg5
I3
sg6
I20
sg7
I0
sg8
g91
sba(i__main__
NodesAndValues
p108
(dp109
g3
g36
sg5
I3
sg6
I21
sg7
I0
sg8
g91
sba(i__main__
NodesAndValues
p110
(dp111
g3
g39
sg5
I3
sg6
I22
sg7
I0
sg8
g91
sba(i__main__
NodesAndValues
p112
(dp113
g3
S'Skredproblem Ikke gitt'
p114
sg5
I4
sg6
I12
sg7
I0
sg8
S'Daarlig binding mot skare'
p115
sba(i__main__
NodesAndValues
p116
(dp117
g3
g12
sg5
I4
sg6
I13
sg7
I0
sg8
g115
sba(i__main__
NodesAndValues
p118
(dp119
g3
g15
sg5
I4
sg6
I14
sg7
I0
sg8
g115
sba(i__main__
NodesAndValues
p120
(dp121
g3
g18
sg5
I4
sg6
I15
sg7
I0
sg8
g115
sba(i__main__
NodesAndValues
p122
(dp123
g3
g21
sg5
I4
sg6
I16
sg7
I0
sg8
g115
sba(i__main__
NodesAndValues
p124
(dp125
g3
g24
sg5
I4
sg6
I17
sg7
I0
sg8
g115
sba(i__main__
NodesAndValues
p126
(dp127
g3
g27
sg5
I4
sg6
I18
sg7
I0
sg8
g115
sba(i__main__
NodesAndValues
p128
(dp129
g3
g30
sg5
I4
sg6
I19
sg7
I0
sg8
g115
sba(i__main__
NodesAndValues
p130
(dp131
g3
g33
sg5
I4
sg6
I20
sg7
I0
sg8
g115
sba(i__main__
NodesAndValues
p132
(dp133
g3
g36
sg5
I4
sg6
I21
sg7
I0
sg8
g115
sba(i__main__
NodesAndValues
p134
(dp135
g3
g39
sg5
I4
sg6
I22
sg7
I0
sg8
g115
sba(i__main__
NodesAndValues
p136
(dp137
g3
S'Skredproblem Ikke gitt'
p138
sg5
I5
sg6
I12
sg7
I0
sg8
S'Daarlig binding i fokksnoeen'
p139
sba(i__main__
NodesAndValues
p140
(dp141
g3
g12
sg5
I5
sg6
I13
sg7
I0
sg8
g139
sba(i__main__
NodesAndValues
p142
(dp143
g3
g15
sg5
I5
sg6
I14
sg7
I0
sg8
g139
sba(i__main__
NodesAndValues
p144
(dp145
g3
g18
sg5
I5
sg6
I15
sg7
I0
sg8
g139
sba(i__main__
NodesAndValues
p146
(dp147
g3
g21
sg5
I5
sg6
I16
sg7
I22
sg8
g139
sba(i__main__
NodesAndValues
p148
(dp149
g3
g24
sg5
I5
sg6
I17
sg7
I0
sg8
g139
sba(i__main__
NodesAndValues
p150
(dp151
g3
g27
sg5
I5
sg6
I18
sg7
I0
sg8
g139
sba(i__main__
NodesAndValues
p152
(dp153
g3
g30
sg5
I5
sg6
I19
sg7
I0
sg8
g139
sba(i__main__
NodesAndValues
p154
(dp155
g3
g33
sg5
I5
sg6
I20
sg7
I0
sg8
g139
sba(i__main__
NodesAndValues
p156
(dp157
g3
g36
sg5
I5
sg6
I21
sg7
I0
sg8
g139
sba(i__main__
NodesAndValues
p158
(dp159
g3
g39
sg5
I5
sg6
I22
sg7
I0
sg8
g139
sba(i__main__
NodesAndValues
p160
(dp161
g3
S'Skredproblem Ikke gitt'
p162
sg5
I6
sg6
I12
sg7
I0
sg8
S'Kantkornet ved bakken'
p163
sba(i__main__
NodesAndValues
p164
(dp165
g3
g12
sg5
I6
sg6
I13
sg7
I0
sg8
g163
sba(i__main__
NodesAndValues
p166
(dp167
g3
g15
sg5
I6
sg6
I14
sg7
I0
sg8
g163
sba(i__main__
NodesAndValues
p168
(dp169
g3
g18
sg5
I6
sg6
I15
sg7
I0
sg8
g163
sba(i__main__
NodesAndValues
p170
(dp171
g3
g21
sg5
I6
sg6
I16
sg7
I0
sg8
g163
sba(i__main__
NodesAndValues
p172
(dp173
g3
g24
sg5
I6
sg6
I17
sg7
I0
sg8
g163
sba(i__main__
NodesAndValues
p174
(dp175
g3
g27
sg5
I6
sg6
I18
sg7
I0
sg8
g163
sba(i__main__
NodesAndValues
p176
(dp177
g3
g30
sg5
I6
sg6
I19
sg7
I0
sg8
g163
sba(i__main__
NodesAndValues
p178
(dp179
g3
g33
sg5
I6
sg6
I20
sg7
I0
sg8
g163
sba(i__main__
NodesAndValues
p180
(dp181
g3
g36
sg5
I6
sg6
I21
sg7
I0
sg8
g163
sba(i__main__
NodesAndValues
p182
(dp183
g3
g39
sg5
I6
sg6
I22
sg7
I0
sg8
g163
sba(i__main__
NodesAndValues
p184
(dp185
g3
S'Skredproblem Ikke gitt'
p186
sg5
I7
sg6
I12
sg7
I0
sg8
S'Kantkornet over skaren'
p187
sba(i__main__
NodesAndValues
p188
(dp189
g3
g12
sg5
I7
sg6
I13
sg7
I0
sg8
g187
sba(i__main__
NodesAndValues
p190
(dp191
g3
g15
sg5
I7
sg6
I14
sg7
I0
sg8
g187
sba(i__main__
NodesAndValues
p192
(dp193
g3
g18
sg5
I7
sg6
I15
sg7
I0
sg8
g187
sba(i__main__
NodesAndValues
p194
(dp195
g3
g21
sg5
I7
sg6
I16
sg7
I0
sg8
g187
sba(i__main__
NodesAndValues
p196
(dp197
g3
g24
sg5
I7
sg6
I17
sg7
I0
sg8
g187
sba(i__main__
NodesAndValues
p198
(dp199
g3
g27
sg5
I7
sg6
I18
sg7
I16
sg8
g187
sba(i__main__
NodesAndValues
p200
(dp201
g3
g30
sg5
I7
sg6
I19
sg7
I0
sg8
g187
sba(i__main__
NodesAndValues
p202
(dp203
g3
g33
sg5
I7
sg6
I20
sg7
I0
sg8
g187
sba(i__main__
NodesAndValues
p204
(dp205
g3
g36
sg5
I7
sg6
I21
sg7
I0
sg8
g187
sba(i__main__
NodesAndValues
p206
(dp207
g3
g39
sg5
I7
sg6
I22
sg7
I0
sg8
g187
sba(i__main__
NodesAndValues
p208
(dp209
g3
S'Skredproblem Ikke gitt'
p210
sg5
I8
sg6
I12
sg7
I0
sg8
S'Kantkornet under skaren'
p211
sba(i__main__
NodesAndValues
p212
(dp213
g3
g12
sg5
I8
sg6
I13
sg7
I0
sg8
g211
sba(i__main__
NodesAndValues
p214
(dp215
g3
g15
sg5
I8
sg6
I14
sg7
I0
sg8
g211
sba(i__main__
NodesAndValues
p216
(dp217
g3
g18
sg5
I8
sg6
I15
sg7
I0
sg8
g211
sba(i__main__
NodesAndValues
p218
(dp219
g3
g21
sg5
I8
sg6
I16
sg7
I0
sg8
g211
sba(i__main__
NodesAndValues
p220
(dp221
g3
g24
sg5
I8
sg6
I17
sg7
I0
sg8
g211
sba(i__main__
NodesAndValues
p222
(dp223
g3
g27
sg5
I8
sg6
I18
sg7
I5
sg8
g211
sba(i__main__
NodesAndValues
p224
(dp225
g3
g30
sg5
I8
sg6
I19
sg7
I0
sg8
g211
sba(i__main__
NodesAndValues
p226
(dp227
g3
g33
sg5
I8
sg6
I20
sg7
I0
sg8
g211
sba(i__main__
NodesAndValues
p228
(dp229
g3
g36
sg5
I8
sg6
I21
sg7
I0
sg8
g211
sba(i__main__
NodesAndValues
p230
(dp231
g3
g39
sg5
I8
sg6
I22
sg7
I0
sg8
g211
sba(i__main__
NodesAndValues
p232
(dp233
g3
S'Skredproblem Ikke gitt'
p234
sg5
I9
sg6
I12
sg7
I0
sg8
S'Smelting fra bakken'
p235
sba(i__main__
NodesAndValues
p236
(dp237
g3
g12
sg5
I9
sg6
I13
sg7
I0
sg8
g235
sba(i__main__
NodesAndValues
p238
(dp239
g3
g15
sg5
I9
sg6
I14
sg7
I0
sg8
g235
sba(i__main__
NodesAndValues
p240
(dp241
g3
g18
sg5
I9
sg6
I15
sg7
I0
sg8
g235
sba(i__main__
NodesAndValues
p242
(dp243
g3
g21
sg5
I9
sg6
I16
sg7
I0
sg8
g235
sba(i__main__
NodesAndValues
p244
(dp245
g3
g24
sg5
I9
sg6
I17
sg7
I0
sg8
g235
sba(i__main__
NodesAndValues
p246
(dp247
g3
g27
sg5
I9
sg6
I18
sg7
I0
sg8
g235
sba(i__main__
NodesAndValues
p248
(dp249
g3
g30
sg5
I9
sg6
I19
sg7
I0
sg8
g235
sba(i__main__
NodesAndValues
p250
(dp251
g3
g33
sg5
I9
sg6
I20
sg7
I1
sg8
g235
sba(i__main__
NodesAndValues
p252
(dp253
g3
g36
sg5
I9
sg6
I21
sg7
I0
sg8
g235
sba(i__main__
NodesAndValues
p254
(dp255
g3
g39
sg5
I9
sg6
I22
sg7
I0
sg8
g235
sba(i__main__
NodesAndValues
p256
(dp257
g3
S'Skredproblem Ikke gitt'
p258
sg5
I10
sg6
I12
sg7
I0
sg8
S'Opphopning av vann over lag'
p259
sba(i__main__
NodesAndValues
p260
(dp261
g3
g12
sg5
I10
sg6
I13
sg7
I0
sg8
g259
sba(i__main__
NodesAndValues
p262
(dp263
g3
g15
sg5
I10
sg6
I14
sg7
I0
sg8
g259
sba(i__main__
NodesAndValues
p264
(dp265
g3
g18
sg5
I10
sg6
I15
sg7
I0
sg8
g259
sba(i__main__
NodesAndValues
p266
(dp267
g3
g21
sg5
I10
sg6
I16
sg7
I0
sg8
g259
sba(i__main__
NodesAndValues
p268
(dp269
g3
g24
sg5
I10
sg6
I17
sg7
I0
sg8
g259
sba(i__main__
NodesAndValues
p270
(dp271
g3
g27
sg5
I10
sg6
I18
sg7
I0
sg8
g259
sba(i__main__
NodesAndValues
p272
(dp273
g3
g30
sg5
I10
sg6
I19
sg7
I0
sg8
g259
sba(i__main__
NodesAndValues
p274
(dp275
g3
g33
sg5
I10
sg6
I20
sg7
I4
sg8
g259
sba(i__main__
NodesAndValues
p276
(dp277
g3
g36
sg5
I10
sg6
I21
sg7
I0
sg8
g259
sba(i__main__
NodesAndValues
p278
(dp279
g3
g39
sg5
I10
sg6
I22
sg7
I0
sg8
g259
sba(i__main__
NodesAndValues
p280
(dp281
g3
S'Skredproblem Ikke gitt'
p282
sg5
I11
sg6
I12
sg7
I0
sg8
S'Ubunden snoe'
p283
sba(i__main__
NodesAndValues
p284
(dp285
g3
g12
sg5
I11
sg6
I13
sg7
I0
sg8
g283
sba(i__main__
NodesAndValues
p286
(dp287
g3
g15
sg5
I11
sg6
I14
sg7
I0
sg8
g283
sba(i__main__
NodesAndValues
p288
(dp289
g3
g18
sg5
I11
sg6
I15
sg7
I22
sg8
g283
sba(i__main__
NodesAndValues
p290
(dp291
g3
g21
sg5
I11
sg6
I16
sg7
I0
sg8
g283
sba(i__main__
NodesAndValues
p292
(dp293
g3
g24
sg5
I11
sg6
I17
sg7
I22
sg8
g283
sba(i__main__
NodesAndValues
p294
(dp295
g3
g27
sg5
I11
sg6
I18
sg7
I0
sg8
g283
sba(i__main__
NodesAndValues
p296
(dp297
g3
g30
sg5
I11
sg6
I19
sg7
I0
sg8
g283
sba(i__main__
NodesAndValues
p298
(dp299
g3
g33
sg5
I11
sg6
I20
sg7
I0
sg8
g283
sba(i__main__
NodesAndValues
p300
(dp301
g3
g36
sg5
I11
sg6
I21
sg7
I0
sg8
g283
sba(i__main__
NodesAndValues
p302
(dp303
g3
g39
sg5
I11
sg6
I22
sg7
I0
sg8
g283
sba(i__main__
NodesAndValues
p304
(dp305
g3
S'Personer omkommet'
p306
sg5
I12
sg6
I23
sg7
I0
sg8
S'Skredproblem Ikke gitt'
p307
sba(i__main__
NodesAndValues
p308
(dp309
g3
S'Trafikk hindret'
p310
sg5
I12
sg6
I24
sg7
I0
sg8
g307
sba(i__main__
NodesAndValues
p311
(dp312
g3
S'Kun materielle skader'
p313
sg5
I12
sg6
I25
sg7
I0
sg8
g307
sba(i__main__
NodesAndValues
p314
(dp315
g3
S'Evakuering'
p316
sg5
I12
sg6
I26
sg7
I0
sg8
g307
sba(i__main__
NodesAndValues
p317
(dp318
g3
S'Nestenulykke'
p319
sg5
I12
sg6
I27
sg7
I0
sg8
g307
sba(i__main__
NodesAndValues
p320
(dp321
g3
S'Personer skadet'
p322
sg5
I12
sg6
I28
sg7
I0
sg8
g307
sba(i__main__
NodesAndValues
p323
(dp324
g3
g306
sg5
I13
sg6
I23
sg7
I0
sg8
g12
sba(i__main__
NodesAndValues
p325
(dp326
g3
g310
sg5
I13
sg6
I24
sg7
I0
sg8
g12
sba(i__main__
NodesAndValues
p327
(dp328
g3
g313
sg5
I13
sg6
I25
sg7
I0
sg8
g12
sba(i__main__
NodesAndValues
p329
(dp330
g3
g316
sg5
I13
sg6
I26
sg7
I0
sg8
g12
sba(i__main__
NodesAndValues
p331
(dp332
g3
g319
sg5
I13
sg6
I27
sg7
I0
sg8
g12
sba(i__main__
NodesAndValues
p333
(dp334
g3
g322
sg5
I13
sg6
I28
sg7
I0
sg8
g12
sba(i__main__
NodesAndValues
p335
(dp336
g3
g306
sg5
I14
sg6
I23
sg7
I0
sg8
g15
sba(i__main__
NodesAndValues
p337
(dp338
g3
g310
sg5
I14
sg6
I24
sg7
I0
sg8
g15
sba(i__main__
NodesAndValues
p339
(dp340
g3
g313
sg5
I14
sg6
I25
sg7
I0
sg8
g15
sba(i__main__
NodesAndValues
p341
(dp342
g3
g316
sg5
I14
sg6
I26
sg7
I0
sg8
g15
sba(i__main__
NodesAndValues
p343
(dp344
g3
g319
sg5
I14
sg6
I27
sg7
I0
sg8
g15
sba(i__main__
NodesAndValues
p345
(dp346
g3
g322
sg5
I14
sg6
I28
sg7
I0
sg8
g15
sba(i__main__
NodesAndValues
p347
(dp348
g3
g306
sg5
I15
sg6
I23
sg7
I0
sg8
g18
sba(i__main__
NodesAndValues
p349
(dp350
g3
g310
sg5
I15
sg6
I24
sg7
I18
sg8
g18
sba(i__main__
NodesAndValues
p351
(dp352
g3
g313
sg5
I15
sg6
I25
sg7
I2
sg8
g18
sba(i__main__
NodesAndValues
p353
(dp354
g3
g316
sg5
I15
sg6
I26
sg7
I0
sg8
g18
sba(i__main__
NodesAndValues
p355
(dp356
g3
g319
sg5
I15
sg6
I27
sg7
I2
sg8
g18
sba(i__main__
NodesAndValues
p357
(dp358
g3
g322
sg5
I15
sg6
I28
sg7
I0
sg8
g18
sba(i__main__
NodesAndValues
p359
(dp360
g3
g306
sg5
I16
sg6
I23
sg7
I0
sg8
g21
sba(i__main__
NodesAndValues
p361
(dp362
g3
g310
sg5
I16
sg6
I24
sg7
I115
sg8
g21
sba(i__main__
NodesAndValues
p363
(dp364
g3
g313
sg5
I16
sg6
I25
sg7
I8
sg8
g21
sba(i__main__
NodesAndValues
p365
(dp366
g3
g316
sg5
I16
sg6
I26
sg7
I1
sg8
g21
sba(i__main__
NodesAndValues
p367
(dp368
g3
g319
sg5
I16
sg6
I27
sg7
I15
sg8
g21
sba(i__main__
NodesAndValues
p369
(dp370
g3
g322
sg5
I16
sg6
I28
sg7
I1
sg8
g21
sba(i__main__
NodesAndValues
p371
(dp372
g3
g306
sg5
I17
sg6
I23
sg7
I0
sg8
g24
sba(i__main__
NodesAndValues
p373
(dp374
g3
g310
sg5
I17
sg6
I24
sg7
I18
sg8
g24
sba(i__main__
NodesAndValues
p375
(dp376
g3
g313
sg5
I17
sg6
I25
sg7
I2
sg8
g24
sba(i__main__
NodesAndValues
p377
(dp378
g3
g316
sg5
I17
sg6
I26
sg7
I0
sg8
g24
sba(i__main__
NodesAndValues
p379
(dp380
g3
g319
sg5
I17
sg6
I27
sg7
I2
sg8
g24
sba(i__main__
NodesAndValues
p381
(dp382
g3
g322
sg5
I17
sg6
I28
sg7
I0
sg8
g24
sba(i__main__
NodesAndValues
p383
(dp384
g3
g306
sg5
I18
sg6
I23
sg7
I3
sg8
g27
sba(i__main__
NodesAndValues
p385
(dp386
g3
g310
sg5
I18
sg6
I24
sg7
I19
sg8
g27
sba(i__main__
NodesAndValues
p387
(dp388
g3
g313
sg5
I18
sg6
I25
sg7
I0
sg8
g27
sba(i__main__
NodesAndValues
p389
(dp390
g3
g316
sg5
I18
sg6
I26
sg7
I0
sg8
g27
sba(i__main__
NodesAndValues
p391
(dp392
g3
g319
sg5
I18
sg6
I27
sg7
I10
sg8
g27
sba(i__main__
NodesAndValues
p393
(dp394
g3
g322
sg5
I18
sg6
I28
sg7
I3
sg8
g27
sba(i__main__
NodesAndValues
p395
(dp396
g3
g306
sg5
I19
sg6
I23
sg7
I0
sg8
g30
sba(i__main__
NodesAndValues
p397
(dp398
g3
g310
sg5
I19
sg6
I24
sg7
I0
sg8
g30
sba(i__main__
NodesAndValues
p399
(dp400
g3
g313
sg5
I19
sg6
I25
sg7
I0
sg8
g30
sba(i__main__
NodesAndValues
p401
(dp402
g3
g316
sg5
I19
sg6
I26
sg7
I0
sg8
g30
sba(i__main__
NodesAndValues
p403
(dp404
g3
g319
sg5
I19
sg6
I27
sg7
I0
sg8
g30
sba(i__main__
NodesAndValues
p405
(dp406
g3
g322
sg5
I19
sg6
I28
sg7
I0
sg8
g30
sba(i__main__
NodesAndValues
p407
(dp408
g3
g306
sg5
I20
sg6
I23
sg7
I0
sg8
g33
sba(i__main__
NodesAndValues
p409
(dp410
g3
g310
sg5
I20
sg6
I24
sg7
I4
sg8
g33
sba(i__main__
NodesAndValues
p411
(dp412
g3
g313
sg5
I20
sg6
I25
sg7
I0
sg8
g33
sba(i__main__
NodesAndValues
p413
(dp414
g3
g316
sg5
I20
sg6
I26
sg7
I0
sg8
g33
sba(i__main__
NodesAndValues
p415
(dp416
g3
g319
sg5
I20
sg6
I27
sg7
I0
sg8
g33
sba(i__main__
NodesAndValues
p417
(dp418
g3
g322
sg5
I20
sg6
I28
sg7
I1
sg8
g33
sba(i__main__
NodesAndValues
p419
(dp420
g3
g306
sg5
I21
sg6
I23
sg7
I0
sg8
g36
sba(i__main__
NodesAndValues
p421
(dp422
g3
g310
sg5
I21
sg6
I24
sg7
I0
sg8
g36
sba(i__main__
NodesAndValues
p423
(dp424
g3
g313
sg5
I21
sg6
I25
sg7
I0
sg8
g36
sba(i__main__
NodesAndValues
p425
(dp426
g3
g316
sg5
I21
sg6
I26
sg7
I0
sg8
g36
sba(i__main__
NodesAndValues
p427
(dp428
g3
g319
sg5
I21
sg6
I27
sg7
I0
sg8
g36
sba(i__main__
NodesAndValues
p429
(dp430
g3
g322
sg5
I21
sg6
I28
sg7
I0
sg8
g36
sba(i__main__
NodesAndValues
p431
(dp432
g3
g306
sg5
I22
sg6
I23
sg7
I0
sg8
g39
sba(i__main__
NodesAndValues
p433
(dp434
g3
g310
sg5
I22
sg6
I24
sg7
I0
sg8
g39
sba(i__main__
NodesAndValues
p435
(dp436
g3
g313
sg5
I22
sg6
I25
sg7
I0
sg8
g39
sba(i__main__
NodesAndValues
p437
(dp438
g3
g316
sg5
I22
sg6
I26
sg7
I0
sg8
g39
sba(i__main__
NodesAndValues
p439
(dp440
g3
g319
sg5
I22
sg6
I27
sg7
I0
sg8
g39
sba(i__main__
NodesAndValues
p441
(dp442
g3
g322
sg5
I22
sg6
I28
sg7
I0
sg8
g39
sba(i__main__
NodesAndValues
p443
(dp444
g3
S'Ukjent'
p445
sg5
I23
sg6
I29
sg7
I0
sg8
g306
sba(i__main__
NodesAndValues
p446
(dp447
g3
S'Ikke spesifisert'
p448
sg5
I23
sg6
I30
sg7
I0
sg8
g306
sba(i__main__
NodesAndValues
p449
(dp450
g3
S'Topptur'
p451
sg5
I23
sg6
I31
sg7
I3
sg8
g306
sba(i__main__
NodesAndValues
p452
(dp453
g3
S'Ski i anlegg'
p454
sg5
I23
sg6
I32
sg7
I0
sg8
g306
sba(i__main__
NodesAndValues
p455
(dp456
g3
S'Ski offpist'
p457
sg5
I23
sg6
I33
sg7
I0
sg8
g306
sba(i__main__
NodesAndValues
p458
(dp459
g3
S'Fjellskitur'
p460
sg5
I23
sg6
I34
sg7
I0
sg8
g306
sba(i__main__
NodesAndValues
p461
(dp462
g3
S'Skitur i loeype'
p463
sg5
I23
sg6
I35
sg7
I0
sg8
g306
sba(i__main__
NodesAndValues
p464
(dp465
g3
S'Klatring'
p466
sg5
I23
sg6
I36
sg7
I0
sg8
g306
sba(i__main__
NodesAndValues
p467
(dp468
g3
S'Fottur'
p469
sg5
I23
sg6
I37
sg7
I0
sg8
g306
sba(i__main__
NodesAndValues
p470
(dp471
g3
S'Vei'
p472
sg5
I23
sg6
I38
sg7
I0
sg8
g306
sba(i__main__
NodesAndValues
p473
(dp474
g3
S'Snoeskuter'
p475
sg5
I23
sg6
I39
sg7
I0
sg8
g306
sba(i__main__
NodesAndValues
p476
(dp477
g3
S'Jernbane'
p478
sg5
I23
sg6
I40
sg7
I0
sg8
g306
sba(i__main__
NodesAndValues
p479
(dp480
g3
S'Hus'
p481
sg5
I23
sg6
I41
sg7
I0
sg8
g306
sba(i__main__
NodesAndValues
p482
(dp483
g3
S'Annet'
p484
sg5
I23
sg6
I42
sg7
I0
sg8
g306
sba(i__main__
NodesAndValues
p485
(dp486
g3
g445
sg5
I24
sg6
I29
sg7
I0
sg8
g310
sba(i__main__
NodesAndValues
p487
(dp488
g3
g448
sg5
I24
sg6
I30
sg7
I0
sg8
g310
sba(i__main__
NodesAndValues
p489
(dp490
g3
g451
sg5
I24
sg6
I31
sg7
I1
sg8
g310
sba(i__main__
NodesAndValues
p491
(dp492
g3
g454
sg5
I24
sg6
I32
sg7
I0
sg8
g310
sba(i__main__
NodesAndValues
p493
(dp494
g3
g457
sg5
I24
sg6
I33
sg7
I0
sg8
g310
sba(i__main__
NodesAndValues
p495
(dp496
g3
g460
sg5
I24
sg6
I34
sg7
I0
sg8
g310
sba(i__main__
NodesAndValues
p497
(dp498
g3
g463
sg5
I24
sg6
I35
sg7
I0
sg8
g310
sba(i__main__
NodesAndValues
p499
(dp500
g3
g466
sg5
I24
sg6
I36
sg7
I0
sg8
g310
sba(i__main__
NodesAndValues
p501
(dp502
g3
g469
sg5
I24
sg6
I37
sg7
I0
sg8
g310
sba(i__main__
NodesAndValues
p503
(dp504
g3
g472
sg5
I24
sg6
I38
sg7
I146
sg8
g310
sba(i__main__
NodesAndValues
p505
(dp506
g3
g475
sg5
I24
sg6
I39
sg7
I0
sg8
g310
sba(i__main__
NodesAndValues
p507
(dp508
g3
g478
sg5
I24
sg6
I40
sg7
I0
sg8
g310
sba(i__main__
NodesAndValues
p509
(dp510
g3
g481
sg5
I24
sg6
I41
sg7
I0
sg8
g310
sba(i__main__
NodesAndValues
p511
(dp512
g3
g484
sg5
I24
sg6
I42
sg7
I0
sg8
g310
sba(i__main__
NodesAndValues
p513
(dp514
g3
g445
sg5
I25
sg6
I29
sg7
I0
sg8
g313
sba(i__main__
NodesAndValues
p515
(dp516
g3
g448
sg5
I25
sg6
I30
sg7
I0
sg8
g313
sba(i__main__
NodesAndValues
p517
(dp518
g3
g451
sg5
I25
sg6
I31
sg7
I0
sg8
g313
sba(i__main__
NodesAndValues
p519
(dp520
g3
g454
sg5
I25
sg6
I32
sg7
I0
sg8
g313
sba(i__main__
NodesAndValues
p521
(dp522
g3
g457
sg5
I25
sg6
I33
sg7
I0
sg8
g313
sba(i__main__
NodesAndValues
p523
(dp524
g3
g460
sg5
I25
sg6
I34
sg7
I0
sg8
g313
sba(i__main__
NodesAndValues
p525
(dp526
g3
g463
sg5
I25
sg6
I35
sg7
I0
sg8
g313
sba(i__main__
NodesAndValues
p527
(dp528
g3
g466
sg5
I25
sg6
I36
sg7
I0
sg8
g313
sba(i__main__
NodesAndValues
p529
(dp530
g3
g469
sg5
I25
sg6
I37
sg7
I0
sg8
g313
sba(i__main__
NodesAndValues
p531
(dp532
g3
g472
sg5
I25
sg6
I38
sg7
I9
sg8
g313
sba(i__main__
NodesAndValues
p533
(dp534
g3
g475
sg5
I25
sg6
I39
sg7
I0
sg8
g313
sba(i__main__
NodesAndValues
p535
(dp536
g3
g478
sg5
I25
sg6
I40
sg7
I0
sg8
g313
sba(i__main__
NodesAndValues
p537
(dp538
g3
g481
sg5
I25
sg6
I41
sg7
I0
sg8
g313
sba(i__main__
NodesAndValues
p539
(dp540
g3
g484
sg5
I25
sg6
I42
sg7
I0
sg8
g313
sba(i__main__
NodesAndValues
p541
(dp542
g3
g445
sg5
I26
sg6
I29
sg7
I0
sg8
g316
sba(i__main__
NodesAndValues
p543
(dp544
g3
g448
sg5
I26
sg6
I30
sg7
I0
sg8
g316
sba(i__main__
NodesAndValues
p545
(dp546
g3
g451
sg5
I26
sg6
I31
sg7
I0
sg8
g316
sba(i__main__
NodesAndValues
p547
(dp548
g3
g454
sg5
I26
sg6
I32
sg7
I0
sg8
g316
sba(i__main__
NodesAndValues
p549
(dp550
g3
g457
sg5
I26
sg6
I33
sg7
I0
sg8
g316
sba(i__main__
NodesAndValues
p551
(dp552
g3
g460
sg5
I26
sg6
I34
sg7
I0
sg8
g316
sba(i__main__
NodesAndValues
p553
(dp554
g3
g463
sg5
I26
sg6
I35
sg7
I0
sg8
g316
sba(i__main__
NodesAndValues
p555
(dp556
g3
g466
sg5
I26
sg6
I36
sg7
I0
sg8
g316
sba(i__main__
NodesAndValues
p557
(dp558
g3
g469
sg5
I26
sg6
I37
sg7
I0
sg8
g316
sba(i__main__
NodesAndValues
p559
(dp560
g3
g472
sg5
I26
sg6
I38
sg7
I0
sg8
g316
sba(i__main__
NodesAndValues
p561
(dp562
g3
g475
sg5
I26
sg6
I39
sg7
I0
sg8
g316
sba(i__main__
NodesAndValues
p563
(dp564
g3
g478
sg5
I26
sg6
I40
sg7
I0
sg8
g316
sba(i__main__
NodesAndValues
p565
(dp566
g3
g481
sg5
I26
sg6
I41
sg7
I0
sg8
g316
sba(i__main__
NodesAndValues
p567
(dp568
g3
g484
sg5
I26
sg6
I42
sg7
I1
sg8
g316
sba(i__main__
NodesAndValues
p569
(dp570
g3
g445
sg5
I27
sg6
I29
sg7
I0
sg8
g319
sba(i__main__
NodesAndValues
p571
(dp572
g3
g448
sg5
I27
sg6
I30
sg7
I1
sg8
g319
sba(i__main__
NodesAndValues
p573
(dp574
g3
g451
sg5
I27
sg6
I31
sg7
I17
sg8
g319
sba(i__main__
NodesAndValues
p575
(dp576
g3
g454
sg5
I27
sg6
I32
sg7
I0
sg8
g319
sba(i__main__
NodesAndValues
p577
(dp578
g3
g457
sg5
I27
sg6
I33
sg7
I2
sg8
g319
sba(i__main__
NodesAndValues
p579
(dp580
g3
g460
sg5
I27
sg6
I34
sg7
I0
sg8
g319
sba(i__main__
NodesAndValues
p581
(dp582
g3
g463
sg5
I27
sg6
I35
sg7
I0
sg8
g319
sba(i__main__
NodesAndValues
p583
(dp584
g3
g466
sg5
I27
sg6
I36
sg7
I0
sg8
g319
sba(i__main__
NodesAndValues
p585
(dp586
g3
g469
sg5
I27
sg6
I37
sg7
I0
sg8
g319
sba(i__main__
NodesAndValues
p587
(dp588
g3
g472
sg5
I27
sg6
I38
sg7
I5
sg8
g319
sba(i__main__
NodesAndValues
p589
(dp590
g3
g475
sg5
I27
sg6
I39
sg7
I1
sg8
g319
sba(i__main__
NodesAndValues
p591
(dp592
g3
g478
sg5
I27
sg6
I40
sg7
I0
sg8
g319
sba(i__main__
NodesAndValues
p593
(dp594
g3
g481
sg5
I27
sg6
I41
sg7
I0
sg8
g319
sba(i__main__
NodesAndValues
p595
(dp596
g3
g484
sg5
I27
sg6
I42
sg7
I0
sg8
g319
sba(i__main__
NodesAndValues
p597
(dp598
g3
g445
sg5
I28
sg6
I29
sg7
I0
sg8
g322
sba(i__main__
NodesAndValues
p599
(dp600
g3
g448
sg5
I28
sg6
I30
sg7
I0
sg8
g322
sba(i__main__
NodesAndValues
p601
(dp602
g3
g451
sg5
I28
sg6
I31
sg7
I5
sg8
g322
sba(i__main__
NodesAndValues
p603
(dp604
g3
g454
sg5
I28
sg6
I32
sg7
I0
sg8
g322
sba(i__main__
NodesAndValues
p605
(dp606
g3
g457
sg5
I28
sg6
I33
sg7
I0
sg8
g322
sba(i__main__
NodesAndValues
p607
(dp608
g3
g460
sg5
I28
sg6
I34
sg7
I0
sg8
g322
sba(i__main__
NodesAndValues
p609
(dp610
g3
g463
sg5
I28
sg6
I35
sg7
I0
sg8
g322
sba(i__main__
NodesAndValues
p611
(dp612
g3
g466
sg5
I28
sg6
I36
sg7
I0
sg8
g322
sba(i__main__
NodesAndValues
p613
(dp614
g3
g469
sg5
I28
sg6
I37
sg7
I0
sg8
g322
sba(i__main__
NodesAndValues
p615
(dp616
g3
g472
sg5
I28
sg6
I38
sg7
I0
sg8
g322
sba(i__main__
NodesAndValues
p617
(dp618
g3
g475
sg5
I28
sg6
I39
sg7
I0
sg8
g322
sba(i__main__
NodesAndValues
p619
(dp620
g3
g478
sg5
I28
sg6
I40
sg7
I0
sg8
g322
sba(i__main__
NodesAndValues
p621
(dp622
g3
g481
sg5
I28
sg6
I41
sg7
I0
sg8
g322
sba(i__main__
NodesAndValues
p623
(dp624
g3
g484
sg5
I28
sg6
I42
sg7
I0
sg8
g322
sba(i__main__
NodesAndValues
p625
(dp626
g3
S'0 Ikke vurdert'
p627
sg5
I29
sg6
I43
sg7
I0
sg8
g445
sba(i__main__
NodesAndValues
p628
(dp629
g3
S'1 Liten'
p630
sg5
I29
sg6
I44
sg7
I0
sg8
g445
sba(i__main__
NodesAndValues
p631
(dp632
g3
S'2 Moderat'
p633
sg5
I29
sg6
I45
sg7
I0
sg8
g445
sba(i__main__
NodesAndValues
p634
(dp635
g3
S'3 Betydelig'
p636
sg5
I29
sg6
I46
sg7
I0
sg8
g445
sba(i__main__
NodesAndValues
p637
(dp638
g3
S'4 Stor'
p639
sg5
I29
sg6
I47
sg7
I0
sg8
g445
sba(i__main__
NodesAndValues
p640
(dp641
g3
S'5 Meget stor'
p642
sg5
I29
sg6
I48
sg7
I0
sg8
g445
sba(i__main__
NodesAndValues
p643
(dp644
g3
g627
sg5
I30
sg6
I43
sg7
I0
sg8
g448
sba(i__main__
NodesAndValues
p645
(dp646
g3
g630
sg5
I30
sg6
I44
sg7
I1
sg8
g448
sba(i__main__
NodesAndValues
p647
(dp648
g3
g633
sg5
I30
sg6
I45
sg7
I0
sg8
g448
sba(i__main__
NodesAndValues
p649
(dp650
g3
g636
sg5
I30
sg6
I46
sg7
I0
sg8
g448
sba(i__main__
NodesAndValues
p651
(dp652
g3
g639
sg5
I30
sg6
I47
sg7
I0
sg8
g448
sba(i__main__
NodesAndValues
p653
(dp654
g3
g642
sg5
I30
sg6
I48
sg7
I0
sg8
g448
sba(i__main__
NodesAndValues
p655
(dp656
g3
g627
sg5
I31
sg6
I43
sg7
I0
sg8
g451
sba(i__main__
NodesAndValues
p657
(dp658
g3
g630
sg5
I31
sg6
I44
sg7
I0
sg8
g451
sba(i__main__
NodesAndValues
p659
(dp660
g3
g633
sg5
I31
sg6
I45
sg7
I12
sg8
g451
sba(i__main__
NodesAndValues
p661
(dp662
g3
g636
sg5
I31
sg6
I46
sg7
I14
sg8
g451
sba(i__main__
NodesAndValues
p663
(dp664
g3
g639
sg5
I31
sg6
I47
sg7
I0
sg8
g451
sba(i__main__
NodesAndValues
p665
(dp666
g3
g642
sg5
I31
sg6
I48
sg7
I0
sg8
g451
sba(i__main__
NodesAndValues
p667
(dp668
g3
g627
sg5
I32
sg6
I43
sg7
I0
sg8
g454
sba(i__main__
NodesAndValues
p669
(dp670
g3
g630
sg5
I32
sg6
I44
sg7
I0
sg8
g454
sba(i__main__
NodesAndValues
p671
(dp672
g3
g633
sg5
I32
sg6
I45
sg7
I0
sg8
g454
sba(i__main__
NodesAndValues
p673
(dp674
g3
g636
sg5
I32
sg6
I46
sg7
I0
sg8
g454
sba(i__main__
NodesAndValues
p675
(dp676
g3
g639
sg5
I32
sg6
I47
sg7
I0
sg8
g454
sba(i__main__
NodesAndValues
p677
(dp678
g3
g642
sg5
I32
sg6
I48
sg7
I0
sg8
g454
sba(i__main__
NodesAndValues
p679
(dp680
g3
g627
sg5
I33
sg6
I43
sg7
I0
sg8
g457
sba(i__main__
NodesAndValues
p681
(dp682
g3
g630
sg5
I33
sg6
I44
sg7
I0
sg8
g457
sba(i__main__
NodesAndValues
p683
(dp684
g3
g633
sg5
I33
sg6
I45
sg7
I2
sg8
g457
sba(i__main__
NodesAndValues
p685
(dp686
g3
g636
sg5
I33
sg6
I46
sg7
I0
sg8
g457
sba(i__main__
NodesAndValues
p687
(dp688
g3
g639
sg5
I33
sg6
I47
sg7
I0
sg8
g457
sba(i__main__
NodesAndValues
p689
(dp690
g3
g642
sg5
I33
sg6
I48
sg7
I0
sg8
g457
sba(i__main__
NodesAndValues
p691
(dp692
g3
g627
sg5
I34
sg6
I43
sg7
I0
sg8
g460
sba(i__main__
NodesAndValues
p693
(dp694
g3
g630
sg5
I34
sg6
I44
sg7
I0
sg8
g460
sba(i__main__
NodesAndValues
p695
(dp696
g3
g633
sg5
I34
sg6
I45
sg7
I0
sg8
g460
sba(i__main__
NodesAndValues
p697
(dp698
g3
g636
sg5
I34
sg6
I46
sg7
I0
sg8
g460
sba(i__main__
NodesAndValues
p699
(dp700
g3
g639
sg5
I34
sg6
I47
sg7
I0
sg8
g460
sba(i__main__
NodesAndValues
p701
(dp702
g3
g642
sg5
I34
sg6
I48
sg7
I0
sg8
g460
sba(i__main__
NodesAndValues
p703
(dp704
g3
g627
sg5
I35
sg6
I43
sg7
I0
sg8
g463
sba(i__main__
NodesAndValues
p705
(dp706
g3
g630
sg5
I35
sg6
I44
sg7
I0
sg8
g463
sba(i__main__
NodesAndValues
p707
(dp708
g3
g633
sg5
I35
sg6
I45
sg7
I0
sg8
g463
sba(i__main__
NodesAndValues
p709
(dp710
g3
g636
sg5
I35
sg6
I46
sg7
I0
sg8
g463
sba(i__main__
NodesAndValues
p711
(dp712
g3
g639
sg5
I35
sg6
I47
sg7
I0
sg8
g463
sba(i__main__
NodesAndValues
p713
(dp714
g3
g642
sg5
I35
sg6
I48
sg7
I0
sg8
g463
sba(i__main__
NodesAndValues
p715
(dp716
g3
g627
sg5
I36
sg6
I43
sg7
I0
sg8
g466
sba(i__main__
NodesAndValues
p717
(dp718
g3
g630
sg5
I36
sg6
I44
sg7
I0
sg8
g466
sba(i__main__
NodesAndValues
p719
(dp720
g3
g633
sg5
I36
sg6
I45
sg7
I0
sg8
g466
sba(i__main__
NodesAndValues
p721
(dp722
g3
g636
sg5
I36
sg6
I46
sg7
I0
sg8
g466
sba(i__main__
NodesAndValues
p723
(dp724
g3
g639
sg5
I36
sg6
I47
sg7
I0
sg8
g466
sba(i__main__
NodesAndValues
p725
(dp726
g3
g642
sg5
I36
sg6
I48
sg7
I0
sg8
g466
sba(i__main__
NodesAndValues
p727
(dp728
g3
g627
sg5
I37
sg6
I43
sg7
I0
sg8
g469
sba(i__main__
NodesAndValues
p729
(dp730
g3
g630
sg5
I37
sg6
I44
sg7
I0
sg8
g469
sba(i__main__
NodesAndValues
p731
(dp732
g3
g633
sg5
I37
sg6
I45
sg7
I0
sg8
g469
sba(i__main__
NodesAndValues
p733
(dp734
g3
g636
sg5
I37
sg6
I46
sg7
I0
sg8
g469
sba(i__main__
NodesAndValues
p735
(dp736
g3
g639
sg5
I37
sg6
I47
sg7
I0
sg8
g469
sba(i__main__
NodesAndValues
p737
(dp738
g3
g642
sg5
I37
sg6
I48
sg7
I0
sg8
g469
sba(i__main__
NodesAndValues
p739
(dp740
g3
g627
sg5
I38
sg6
I43
sg7
I0
sg8
g472
sba(i__main__
NodesAndValues
p741
(dp742
g3
g630
sg5
I38
sg6
I44
sg7
I2
sg8
g472
sba(i__main__
NodesAndValues
p743
(dp744
g3
g633
sg5
I38
sg6
I45
sg7
I47
sg8
g472
sba(i__main__
NodesAndValues
p745
(dp746
g3
g636
sg5
I38
sg6
I46
sg7
I104
sg8
g472
sba(i__main__
NodesAndValues
p747
(dp748
g3
g639
sg5
I38
sg6
I47
sg7
I7
sg8
g472
sba(i__main__
NodesAndValues
p749
(dp750
g3
g642
sg5
I38
sg6
I48
sg7
I0
sg8
g472
sba(i__main__
NodesAndValues
p751
(dp752
g3
g627
sg5
I39
sg6
I43
sg7
I0
sg8
g475
sba(i__main__
NodesAndValues
p753
(dp754
g3
g630
sg5
I39
sg6
I44
sg7
I0
sg8
g475
sba(i__main__
NodesAndValues
p755
(dp756
g3
g633
sg5
I39
sg6
I45
sg7
I1
sg8
g475
sba(i__main__
NodesAndValues
p757
(dp758
g3
g636
sg5
I39
sg6
I46
sg7
I0
sg8
g475
sba(i__main__
NodesAndValues
p759
(dp760
g3
g639
sg5
I39
sg6
I47
sg7
I0
sg8
g475
sba(i__main__
NodesAndValues
p761
(dp762
g3
g642
sg5
I39
sg6
I48
sg7
I0
sg8
g475
sba(i__main__
NodesAndValues
p763
(dp764
g3
g627
sg5
I40
sg6
I43
sg7
I0
sg8
g478
sba(i__main__
NodesAndValues
p765
(dp766
g3
g630
sg5
I40
sg6
I44
sg7
I0
sg8
g478
sba(i__main__
NodesAndValues
p767
(dp768
g3
g633
sg5
I40
sg6
I45
sg7
I0
sg8
g478
sba(i__main__
NodesAndValues
p769
(dp770
g3
g636
sg5
I40
sg6
I46
sg7
I0
sg8
g478
sba(i__main__
NodesAndValues
p771
(dp772
g3
g639
sg5
I40
sg6
I47
sg7
I0
sg8
g478
sba(i__main__
NodesAndValues
p773
(dp774
g3
g642
sg5
I40
sg6
I48
sg7
I0
sg8
g478
sba(i__main__
NodesAndValues
p775
(dp776
g3
g627
sg5
I41
sg6
I43
sg7
I0
sg8
g481
sba(i__main__
NodesAndValues
p777
(dp778
g3
g630
sg5
I41
sg6
I44
sg7
I0
sg8
g481
sba(i__main__
NodesAndValues
p779
(dp780
g3
g633
sg5
I41
sg6
I45
sg7
I0
sg8
g481
sba(i__main__
NodesAndValues
p781
(dp782
g3
g636
sg5
I41
sg6
I46
sg7
I0
sg8
g481
sba(i__main__
NodesAndValues
p783
(dp784
g3
g639
sg5
I41
sg6
I47
sg7
I0
sg8
g481
sba(i__main__
NodesAndValues
p785
(dp786
g3
g642
sg5
I41
sg6
I48
sg7
I0
sg8
g481
sba(i__main__
NodesAndValues
p787
(dp788
g3
g627
sg5
I42
sg6
I43
sg7
I0
sg8
g484
sba(i__main__
NodesAndValues
p789
(dp790
g3
g630
sg5
I42
sg6
I44
sg7
I0
sg8
g484
sba(i__main__
NodesAndValues
p791
(dp792
g3
g633
sg5
I42
sg6
I45
sg7
I1
sg8
g484
sba(i__main__
NodesAndValues
p793
(dp794
g3
g636
sg5
I42
sg6
I46
sg7
I0
sg8
g484
sba(i__main__
NodesAndValues
p795
(dp796
g3
g639
sg5
I42
sg6
I47
sg7
I0
sg8
g484
sba(i__main__
NodesAndValues
p797
(dp798
g3
g642
sg5
I42
sg6
I48
sg7
I0
sg8
g484
sba.