(lp0
(i__main__
NodesAndValues
p1
(dp2
S'target_name'
p3
S'Skredproblem Ikke gitt'
p4
sS'node_id'
p5
I0
sS'target_id'
p6
I12
sS'value'
p7
I0
sS'node_name'
p8
S'Svakt lag Ikke gitt'
p9
sba(i__main__
NodesAndValues
p10
(dp11
g3
S'Toerre loessnoeskred'
p12
sg5
I0
sg6
I13
sg7
I0
sg8
g9
sba(i__main__
NodesAndValues
p13
(dp14
g3
S'Vaate loessnoeskred'
p15
sg5
I0
sg6
I14
sg7
I0
sg8
g9
sba(i__main__
NodesAndValues
p16
(dp17
g3
S'Nysnoeflak'
p18
sg5
I0
sg6
I15
sg7
I0
sg8
g9
sba(i__main__
NodesAndValues
p19
(dp20
g3
S'Fokksnoe'
p21
sg5
I0
sg6
I16
sg7
I0
sg8
g9
sba(i__main__
NodesAndValues
p22
(dp23
g3
S'Nysnoe'
p24
sg5
I0
sg6
I17
sg7
I0
sg8
g9
sba(i__main__
NodesAndValues
p25
(dp26
g3
S'Vedvarende svakt lag'
p27
sg5
I0
sg6
I18
sg7
I0
sg8
g9
sba(i__main__
NodesAndValues
p28
(dp29
g3
S'Dypt vedvarende svakt lag'
p30
sg5
I0
sg6
I19
sg7
I0
sg8
g9
sba(i__main__
NodesAndValues
p31
(dp32
g3
S'Vaat snoe'
p33
sg5
I0
sg6
I20
sg7
I0
sg8
g9
sba(i__main__
NodesAndValues
p34
(dp35
g3
S'Vaate flakskred'
p36
sg5
I0
sg6
I21
sg7
I0
sg8
g9
sba(i__main__
NodesAndValues
p37
(dp38
g3
S'Glideskred'
p39
sg5
I0
sg6
I22
sg7
I0
sg8
g9
sba(i__main__
NodesAndValues
p40
(dp41
g3
S'Skredproblem Ikke gitt'
p42
sg5
I1
sg6
I12
sg7
I0
sg8
S'Nedfoeyket loes nysnoe'
p43
sba(i__main__
NodesAndValues
p44
(dp45
g3
g12
sg5
I1
sg6
I13
sg7
I0
sg8
g43
sba(i__main__
NodesAndValues
p46
(dp47
g3
g15
sg5
I1
sg6
I14
sg7
I0
sg8
g43
sba(i__main__
NodesAndValues
p48
(dp49
g3
g18
sg5
I1
sg6
I15
sg7
I0
sg8
g43
sba(i__main__
NodesAndValues
p50
(dp51
g3
g21
sg5
I1
sg6
I16
sg7
I11
sg8
g43
sba(i__main__
NodesAndValues
p52
(dp53
g3
g24
sg5
I1
sg6
I17
sg7
I0
sg8
g43
sba(i__main__
NodesAndValues
p54
(dp55
g3
g27
sg5
I1
sg6
I18
sg7
I0
sg8
g43
sba(i__main__
NodesAndValues
p56
(dp57
g3
g30
sg5
I1
sg6
I19
sg7
I0
sg8
g43
sba(i__main__
NodesAndValues
p58
(dp59
g3
g33
sg5
I1
sg6
I20
sg7
I0
sg8
g43
sba(i__main__
NodesAndValues
p60
(dp61
g3
g36
sg5
I1
sg6
I21
sg7
I0
sg8
g43
sba(i__main__
NodesAndValues
p62
(dp63
g3
g39
sg5
I1
sg6
I22
sg7
I0
sg8
g43
sba(i__main__
NodesAndValues
p64
(dp65
g3
S'Skredproblem Ikke gitt'
p66
sg5
I2
sg6
I12
sg7
I0
sg8
S'Nedsnoedd overflaterim'
p67
sba(i__main__
NodesAndValues
p68
(dp69
g3
g12
sg5
I2
sg6
I13
sg7
I0
sg8
g67
sba(i__main__
NodesAndValues
p70
(dp71
g3
g15
sg5
I2
sg6
I14
sg7
I0
sg8
g67
sba(i__main__
NodesAndValues
p72
(dp73
g3
g18
sg5
I2
sg6
I15
sg7
I0
sg8
g67
sba(i__main__
NodesAndValues
p74
(dp75
g3
g21
sg5
I2
sg6
I16
sg7
I0
sg8
g67
sba(i__main__
NodesAndValues
p76
(dp77
g3
g24
sg5
I2
sg6
I17
sg7
I0
sg8
g67
sba(i__main__
NodesAndValues
p78
(dp79
g3
g27
sg5
I2
sg6
I18
sg7
I3
sg8
g67
sba(i__main__
NodesAndValues
p80
(dp81
g3
g30
sg5
I2
sg6
I19
sg7
I0
sg8
g67
sba(i__main__
NodesAndValues
p82
(dp83
g3
g33
sg5
I2
sg6
I20
sg7
I0
sg8
g67
sba(i__main__
NodesAndValues
p84
(dp85
g3
g36
sg5
I2
sg6
I21
sg7
I0
sg8
g67
sba(i__main__
NodesAndValues
p86
(dp87
g3
g39
sg5
I2
sg6
I22
sg7
I0
sg8
g67
sba(i__main__
NodesAndValues
p88
(dp89
g3
S'Skredproblem Ikke gitt'
p90
sg5
I3
sg6
I12
sg7
I0
sg8
S'Nedsnoedd kantkornet snoe'
p91
sba(i__main__
NodesAndValues
p92
(dp93
g3
g12
sg5
I3
sg6
I13
sg7
I0
sg8
g91
sba(i__main__
NodesAndValues
p94
(dp95
g3
g15
sg5
I3
sg6
I14
sg7
I0
sg8
g91
sba(i__main__
NodesAndValues
p96
(dp97
g3
g18
sg5
I3
sg6
I15
sg7
I0
sg8
g91
sba(i__main__
NodesAndValues
p98
(dp99
g3
g21
sg5
I3
sg6
I16
sg7
I0
sg8
g91
sba(i__main__
NodesAndValues
p100
(dp101
g3
g24
sg5
I3
sg6
I17
sg7
I0
sg8
g91
sba(i__main__
NodesAndValues
p102
(dp103
g3
g27
sg5
I3
sg6
I18
sg7
I3
sg8
g91
sba(i__main__
NodesAndValues
p104
(dp105
g3
g30
sg5
I3
sg6
I19
sg7
I0
sg8
g91
sba(i__main__
NodesAndValues
p106
(dp107
g3
g33
sg5
I3
sg6
I20
sg7
I0
sg8
g91
sba(i__main__
NodesAndValues
p108
(dp109
g3
g36
sg5
I3
sg6
I21
sg7
I0
sg8
g91
sba(i__main__
NodesAndValues
p110
(dp111
g3
g39
sg5
I3
sg6
I22
sg7
I0
sg8
g91
sba(i__main__
NodesAndValues
p112
(dp113
g3
S'Skredproblem Ikke gitt'
p114
sg5
I4
sg6
I12
sg7
I0
sg8
S'Daarlig binding mot skare'
p115
sba(i__main__
NodesAndValues
p116
(dp117
g3
g12
sg5
I4
sg6
I13
sg7
I0
sg8
g115
sba(i__main__
NodesAndValues
p118
(dp119
g3
g15
sg5
I4
sg6
I14
sg7
I0
sg8
g115
sba(i__main__
NodesAndValues
p120
(dp121
g3
g18
sg5
I4
sg6
I15
sg7
I0
sg8
g115
sba(i__main__
NodesAndValues
p122
(dp123
g3
g21
sg5
I4
sg6
I16
sg7
I0
sg8
g115
sba(i__main__
NodesAndValues
p124
(dp125
g3
g24
sg5
I4
sg6
I17
sg7
I0
sg8
g115
sba(i__main__
NodesAndValues
p126
(dp127
g3
g27
sg5
I4
sg6
I18
sg7
I0
sg8
g115
sba(i__main__
NodesAndValues
p128
(dp129
g3
g30
sg5
I4
sg6
I19
sg7
I0
sg8
g115
sba(i__main__
NodesAndValues
p130
(dp131
g3
g33
sg5
I4
sg6
I20
sg7
I0
sg8
g115
sba(i__main__
NodesAndValues
p132
(dp133
g3
g36
sg5
I4
sg6
I21
sg7
I0
sg8
g115
sba(i__main__
NodesAndValues
p134
(dp135
g3
g39
sg5
I4
sg6
I22
sg7
I0
sg8
g115
sba(i__main__
NodesAndValues
p136
(dp137
g3
S'Skredproblem Ikke gitt'
p138
sg5
I5
sg6
I12
sg7
I0
sg8
S'Daarlig binding i fokksnoeen'
p139
sba(i__main__
NodesAndValues
p140
(dp141
g3
g12
sg5
I5
sg6
I13
sg7
I0
sg8
g139
sba(i__main__
NodesAndValues
p142
(dp143
g3
g15
sg5
I5
sg6
I14
sg7
I0
sg8
g139
sba(i__main__
NodesAndValues
p144
(dp145
g3
g18
sg5
I5
sg6
I15
sg7
I0
sg8
g139
sba(i__main__
NodesAndValues
p146
(dp147
g3
g21
sg5
I5
sg6
I16
sg7
I5
sg8
g139
sba(i__main__
NodesAndValues
p148
(dp149
g3
g24
sg5
I5
sg6
I17
sg7
I0
sg8
g139
sba(i__main__
NodesAndValues
p150
(dp151
g3
g27
sg5
I5
sg6
I18
sg7
I0
sg8
g139
sba(i__main__
NodesAndValues
p152
(dp153
g3
g30
sg5
I5
sg6
I19
sg7
I0
sg8
g139
sba(i__main__
NodesAndValues
p154
(dp155
g3
g33
sg5
I5
sg6
I20
sg7
I0
sg8
g139
sba(i__main__
NodesAndValues
p156
(dp157
g3
g36
sg5
I5
sg6
I21
sg7
I0
sg8
g139
sba(i__main__
NodesAndValues
p158
(dp159
g3
g39
sg5
I5
sg6
I22
sg7
I0
sg8
g139
sba(i__main__
NodesAndValues
p160
(dp161
g3
S'Skredproblem Ikke gitt'
p162
sg5
I6
sg6
I12
sg7
I0
sg8
S'Kantkornet ved bakken'
p163
sba(i__main__
NodesAndValues
p164
(dp165
g3
g12
sg5
I6
sg6
I13
sg7
I0
sg8
g163
sba(i__main__
NodesAndValues
p166
(dp167
g3
g15
sg5
I6
sg6
I14
sg7
I0
sg8
g163
sba(i__main__
NodesAndValues
p168
(dp169
g3
g18
sg5
I6
sg6
I15
sg7
I0
sg8
g163
sba(i__main__
NodesAndValues
p170
(dp171
g3
g21
sg5
I6
sg6
I16
sg7
I0
sg8
g163
sba(i__main__
NodesAndValues
p172
(dp173
g3
g24
sg5
I6
sg6
I17
sg7
I0
sg8
g163
sba(i__main__
NodesAndValues
p174
(dp175
g3
g27
sg5
I6
sg6
I18
sg7
I0
sg8
g163
sba(i__main__
NodesAndValues
p176
(dp177
g3
g30
sg5
I6
sg6
I19
sg7
I0
sg8
g163
sba(i__main__
NodesAndValues
p178
(dp179
g3
g33
sg5
I6
sg6
I20
sg7
I0
sg8
g163
sba(i__main__
NodesAndValues
p180
(dp181
g3
g36
sg5
I6
sg6
I21
sg7
I0
sg8
g163
sba(i__main__
NodesAndValues
p182
(dp183
g3
g39
sg5
I6
sg6
I22
sg7
I0
sg8
g163
sba(i__main__
NodesAndValues
p184
(dp185
g3
S'Skredproblem Ikke gitt'
p186
sg5
I7
sg6
I12
sg7
I0
sg8
S'Kantkornet over skaren'
p187
sba(i__main__
NodesAndValues
p188
(dp189
g3
g12
sg5
I7
sg6
I13
sg7
I0
sg8
g187
sba(i__main__
NodesAndValues
p190
(dp191
g3
g15
sg5
I7
sg6
I14
sg7
I0
sg8
g187
sba(i__main__
NodesAndValues
p192
(dp193
g3
g18
sg5
I7
sg6
I15
sg7
I0
sg8
g187
sba(i__main__
NodesAndValues
p194
(dp195
g3
g21
sg5
I7
sg6
I16
sg7
I0
sg8
g187
sba(i__main__
NodesAndValues
p196
(dp197
g3
g24
sg5
I7
sg6
I17
sg7
I0
sg8
g187
sba(i__main__
NodesAndValues
p198
(dp199
g3
g27
sg5
I7
sg6
I18
sg7
I8
sg8
g187
sba(i__main__
NodesAndValues
p200
(dp201
g3
g30
sg5
I7
sg6
I19
sg7
I0
sg8
g187
sba(i__main__
NodesAndValues
p202
(dp203
g3
g33
sg5
I7
sg6
I20
sg7
I0
sg8
g187
sba(i__main__
NodesAndValues
p204
(dp205
g3
g36
sg5
I7
sg6
I21
sg7
I0
sg8
g187
sba(i__main__
NodesAndValues
p206
(dp207
g3
g39
sg5
I7
sg6
I22
sg7
I0
sg8
g187
sba(i__main__
NodesAndValues
p208
(dp209
g3
S'Skredproblem Ikke gitt'
p210
sg5
I8
sg6
I12
sg7
I0
sg8
S'Kantkornet under skaren'
p211
sba(i__main__
NodesAndValues
p212
(dp213
g3
g12
sg5
I8
sg6
I13
sg7
I0
sg8
g211
sba(i__main__
NodesAndValues
p214
(dp215
g3
g15
sg5
I8
sg6
I14
sg7
I0
sg8
g211
sba(i__main__
NodesAndValues
p216
(dp217
g3
g18
sg5
I8
sg6
I15
sg7
I0
sg8
g211
sba(i__main__
NodesAndValues
p218
(dp219
g3
g21
sg5
I8
sg6
I16
sg7
I0
sg8
g211
sba(i__main__
NodesAndValues
p220
(dp221
g3
g24
sg5
I8
sg6
I17
sg7
I0
sg8
g211
sba(i__main__
NodesAndValues
p222
(dp223
g3
g27
sg5
I8
sg6
I18
sg7
I2
sg8
g211
sba(i__main__
NodesAndValues
p224
(dp225
g3
g30
sg5
I8
sg6
I19
sg7
I0
sg8
g211
sba(i__main__
NodesAndValues
p226
(dp227
g3
g33
sg5
I8
sg6
I20
sg7
I0
sg8
g211
sba(i__main__
NodesAndValues
p228
(dp229
g3
g36
sg5
I8
sg6
I21
sg7
I0
sg8
g211
sba(i__main__
NodesAndValues
p230
(dp231
g3
g39
sg5
I8
sg6
I22
sg7
I0
sg8
g211
sba(i__main__
NodesAndValues
p232
(dp233
g3
S'Skredproblem Ikke gitt'
p234
sg5
I9
sg6
I12
sg7
I0
sg8
S'Smelting fra bakken'
p235
sba(i__main__
NodesAndValues
p236
(dp237
g3
g12
sg5
I9
sg6
I13
sg7
I0
sg8
g235
sba(i__main__
NodesAndValues
p238
(dp239
g3
g15
sg5
I9
sg6
I14
sg7
I0
sg8
g235
sba(i__main__
NodesAndValues
p240
(dp241
g3
g18
sg5
I9
sg6
I15
sg7
I0
sg8
g235
sba(i__main__
NodesAndValues
p242
(dp243
g3
g21
sg5
I9
sg6
I16
sg7
I0
sg8
g235
sba(i__main__
NodesAndValues
p244
(dp245
g3
g24
sg5
I9
sg6
I17
sg7
I0
sg8
g235
sba(i__main__
NodesAndValues
p246
(dp247
g3
g27
sg5
I9
sg6
I18
sg7
I0
sg8
g235
sba(i__main__
NodesAndValues
p248
(dp249
g3
g30
sg5
I9
sg6
I19
sg7
I0
sg8
g235
sba(i__main__
NodesAndValues
p250
(dp251
g3
g33
sg5
I9
sg6
I20
sg7
I0
sg8
g235
sba(i__main__
NodesAndValues
p252
(dp253
g3
g36
sg5
I9
sg6
I21
sg7
I0
sg8
g235
sba(i__main__
NodesAndValues
p254
(dp255
g3
g39
sg5
I9
sg6
I22
sg7
I0
sg8
g235
sba(i__main__
NodesAndValues
p256
(dp257
g3
S'Skredproblem Ikke gitt'
p258
sg5
I10
sg6
I12
sg7
I0
sg8
S'Opphopning av vann over lag'
p259
sba(i__main__
NodesAndValues
p260
(dp261
g3
g12
sg5
I10
sg6
I13
sg7
I0
sg8
g259
sba(i__main__
NodesAndValues
p262
(dp263
g3
g15
sg5
I10
sg6
I14
sg7
I0
sg8
g259
sba(i__main__
NodesAndValues
p264
(dp265
g3
g18
sg5
I10
sg6
I15
sg7
I0
sg8
g259
sba(i__main__
NodesAndValues
p266
(dp267
g3
g21
sg5
I10
sg6
I16
sg7
I0
sg8
g259
sba(i__main__
NodesAndValues
p268
(dp269
g3
g24
sg5
I10
sg6
I17
sg7
I0
sg8
g259
sba(i__main__
NodesAndValues
p270
(dp271
g3
g27
sg5
I10
sg6
I18
sg7
I0
sg8
g259
sba(i__main__
NodesAndValues
p272
(dp273
g3
g30
sg5
I10
sg6
I19
sg7
I0
sg8
g259
sba(i__main__
NodesAndValues
p274
(dp275
g3
g33
sg5
I10
sg6
I20
sg7
I1
sg8
g259
sba(i__main__
NodesAndValues
p276
(dp277
g3
g36
sg5
I10
sg6
I21
sg7
I0
sg8
g259
sba(i__main__
NodesAndValues
p278
(dp279
g3
g39
sg5
I10
sg6
I22
sg7
I0
sg8
g259
sba(i__main__
NodesAndValues
p280
(dp281
g3
S'Skredproblem Ikke gitt'
p282
sg5
I11
sg6
I12
sg7
I0
sg8
S'Ubunden snoe'
p283
sba(i__main__
NodesAndValues
p284
(dp285
g3
g12
sg5
I11
sg6
I13
sg7
I0
sg8
g283
sba(i__main__
NodesAndValues
p286
(dp287
g3
g15
sg5
I11
sg6
I14
sg7
I0
sg8
g283
sba(i__main__
NodesAndValues
p288
(dp289
g3
g18
sg5
I11
sg6
I15
sg7
I2
sg8
g283
sba(i__main__
NodesAndValues
p290
(dp291
g3
g21
sg5
I11
sg6
I16
sg7
I0
sg8
g283
sba(i__main__
NodesAndValues
p292
(dp293
g3
g24
sg5
I11
sg6
I17
sg7
I2
sg8
g283
sba(i__main__
NodesAndValues
p294
(dp295
g3
g27
sg5
I11
sg6
I18
sg7
I0
sg8
g283
sba(i__main__
NodesAndValues
p296
(dp297
g3
g30
sg5
I11
sg6
I19
sg7
I0
sg8
g283
sba(i__main__
NodesAndValues
p298
(dp299
g3
g33
sg5
I11
sg6
I20
sg7
I0
sg8
g283
sba(i__main__
NodesAndValues
p300
(dp301
g3
g36
sg5
I11
sg6
I21
sg7
I0
sg8
g283
sba(i__main__
NodesAndValues
p302
(dp303
g3
g39
sg5
I11
sg6
I22
sg7
I0
sg8
g283
sba(i__main__
NodesAndValues
p304
(dp305
g3
S'Personer omkommet'
p306
sg5
I12
sg6
I23
sg7
I0
sg8
S'Skredproblem Ikke gitt'
p307
sba(i__main__
NodesAndValues
p308
(dp309
g3
S'Nestenulykke'
p310
sg5
I12
sg6
I24
sg7
I0
sg8
g307
sba(i__main__
NodesAndValues
p311
(dp312
g3
S'Personer skadet'
p313
sg5
I12
sg6
I25
sg7
I0
sg8
g307
sba(i__main__
NodesAndValues
p314
(dp315
g3
g306
sg5
I13
sg6
I23
sg7
I0
sg8
g12
sba(i__main__
NodesAndValues
p316
(dp317
g3
g310
sg5
I13
sg6
I24
sg7
I0
sg8
g12
sba(i__main__
NodesAndValues
p318
(dp319
g3
g313
sg5
I13
sg6
I25
sg7
I0
sg8
g12
sba(i__main__
NodesAndValues
p320
(dp321
g3
g306
sg5
I14
sg6
I23
sg7
I0
sg8
g15
sba(i__main__
NodesAndValues
p322
(dp323
g3
g310
sg5
I14
sg6
I24
sg7
I0
sg8
g15
sba(i__main__
NodesAndValues
p324
(dp325
g3
g313
sg5
I14
sg6
I25
sg7
I0
sg8
g15
sba(i__main__
NodesAndValues
p326
(dp327
g3
g306
sg5
I15
sg6
I23
sg7
I0
sg8
g18
sba(i__main__
NodesAndValues
p328
(dp329
g3
g310
sg5
I15
sg6
I24
sg7
I2
sg8
g18
sba(i__main__
NodesAndValues
p330
(dp331
g3
g313
sg5
I15
sg6
I25
sg7
I0
sg8
g18
sba(i__main__
NodesAndValues
p332
(dp333
g3
g306
sg5
I16
sg6
I23
sg7
I0
sg8
g21
sba(i__main__
NodesAndValues
p334
(dp335
g3
g310
sg5
I16
sg6
I24
sg7
I15
sg8
g21
sba(i__main__
NodesAndValues
p336
(dp337
g3
g313
sg5
I16
sg6
I25
sg7
I1
sg8
g21
sba(i__main__
NodesAndValues
p338
(dp339
g3
g306
sg5
I17
sg6
I23
sg7
I0
sg8
g24
sba(i__main__
NodesAndValues
p340
(dp341
g3
g310
sg5
I17
sg6
I24
sg7
I2
sg8
g24
sba(i__main__
NodesAndValues
p342
(dp343
g3
g313
sg5
I17
sg6
I25
sg7
I0
sg8
g24
sba(i__main__
NodesAndValues
p344
(dp345
g3
g306
sg5
I18
sg6
I23
sg7
I3
sg8
g27
sba(i__main__
NodesAndValues
p346
(dp347
g3
g310
sg5
I18
sg6
I24
sg7
I10
sg8
g27
sba(i__main__
NodesAndValues
p348
(dp349
g3
g313
sg5
I18
sg6
I25
sg7
I3
sg8
g27
sba(i__main__
NodesAndValues
p350
(dp351
g3
g306
sg5
I19
sg6
I23
sg7
I0
sg8
g30
sba(i__main__
NodesAndValues
p352
(dp353
g3
g310
sg5
I19
sg6
I24
sg7
I0
sg8
g30
sba(i__main__
NodesAndValues
p354
(dp355
g3
g313
sg5
I19
sg6
I25
sg7
I0
sg8
g30
sba(i__main__
NodesAndValues
p356
(dp357
g3
g306
sg5
I20
sg6
I23
sg7
I0
sg8
g33
sba(i__main__
NodesAndValues
p358
(dp359
g3
g310
sg5
I20
sg6
I24
sg7
I0
sg8
g33
sba(i__main__
NodesAndValues
p360
(dp361
g3
g313
sg5
I20
sg6
I25
sg7
I1
sg8
g33
sba(i__main__
NodesAndValues
p362
(dp363
g3
g306
sg5
I21
sg6
I23
sg7
I0
sg8
g36
sba(i__main__
NodesAndValues
p364
(dp365
g3
g310
sg5
I21
sg6
I24
sg7
I0
sg8
g36
sba(i__main__
NodesAndValues
p366
(dp367
g3
g313
sg5
I21
sg6
I25
sg7
I0
sg8
g36
sba(i__main__
NodesAndValues
p368
(dp369
g3
g306
sg5
I22
sg6
I23
sg7
I0
sg8
g39
sba(i__main__
NodesAndValues
p370
(dp371
g3
g310
sg5
I22
sg6
I24
sg7
I0
sg8
g39
sba(i__main__
NodesAndValues
p372
(dp373
g3
g313
sg5
I22
sg6
I25
sg7
I0
sg8
g39
sba(i__main__
NodesAndValues
p374
(dp375
g3
S'Ukjent'
p376
sg5
I23
sg6
I26
sg7
I0
sg8
g306
sba(i__main__
NodesAndValues
p377
(dp378
g3
S'Ikke spesifisert'
p379
sg5
I23
sg6
I27
sg7
I0
sg8
g306
sba(i__main__
NodesAndValues
p380
(dp381
g3
S'Topptur'
p382
sg5
I23
sg6
I28
sg7
I3
sg8
g306
sba(i__main__
NodesAndValues
p383
(dp384
g3
S'Ski i anlegg'
p385
sg5
I23
sg6
I29
sg7
I0
sg8
g306
sba(i__main__
NodesAndValues
p386
(dp387
g3
S'Ski offpist'
p388
sg5
I23
sg6
I30
sg7
I0
sg8
g306
sba(i__main__
NodesAndValues
p389
(dp390
g3
S'Fjellskitur'
p391
sg5
I23
sg6
I31
sg7
I0
sg8
g306
sba(i__main__
NodesAndValues
p392
(dp393
g3
S'Skitur i loeype'
p394
sg5
I23
sg6
I32
sg7
I0
sg8
g306
sba(i__main__
NodesAndValues
p395
(dp396
g3
S'Klatring'
p397
sg5
I23
sg6
I33
sg7
I0
sg8
g306
sba(i__main__
NodesAndValues
p398
(dp399
g3
S'Fottur'
p400
sg5
I23
sg6
I34
sg7
I0
sg8
g306
sba(i__main__
NodesAndValues
p401
(dp402
g3
S'Vei'
p403
sg5
I23
sg6
I35
sg7
I0
sg8
g306
sba(i__main__
NodesAndValues
p404
(dp405
g3
S'Snoeskuter'
p406
sg5
I23
sg6
I36
sg7
I0
sg8
g306
sba(i__main__
NodesAndValues
p407
(dp408
g3
S'Jernbane'
p409
sg5
I23
sg6
I37
sg7
I0
sg8
g306
sba(i__main__
NodesAndValues
p410
(dp411
g3
S'Hus'
p412
sg5
I23
sg6
I38
sg7
I0
sg8
g306
sba(i__main__
NodesAndValues
p413
(dp414
g3
S'Annet'
p415
sg5
I23
sg6
I39
sg7
I0
sg8
g306
sba(i__main__
NodesAndValues
p416
(dp417
g3
g376
sg5
I24
sg6
I26
sg7
I0
sg8
g310
sba(i__main__
NodesAndValues
p418
(dp419
g3
g379
sg5
I24
sg6
I27
sg7
I1
sg8
g310
sba(i__main__
NodesAndValues
p420
(dp421
g3
g382
sg5
I24
sg6
I28
sg7
I17
sg8
g310
sba(i__main__
NodesAndValues
p422
(dp423
g3
g385
sg5
I24
sg6
I29
sg7
I0
sg8
g310
sba(i__main__
NodesAndValues
p424
(dp425
g3
g388
sg5
I24
sg6
I30
sg7
I2
sg8
g310
sba(i__main__
NodesAndValues
p426
(dp427
g3
g391
sg5
I24
sg6
I31
sg7
I0
sg8
g310
sba(i__main__
NodesAndValues
p428
(dp429
g3
g394
sg5
I24
sg6
I32
sg7
I0
sg8
g310
sba(i__main__
NodesAndValues
p430
(dp431
g3
g397
sg5
I24
sg6
I33
sg7
I0
sg8
g310
sba(i__main__
NodesAndValues
p432
(dp433
g3
g400
sg5
I24
sg6
I34
sg7
I0
sg8
g310
sba(i__main__
NodesAndValues
p434
(dp435
g3
g403
sg5
I24
sg6
I35
sg7
I5
sg8
g310
sba(i__main__
NodesAndValues
p436
(dp437
g3
g406
sg5
I24
sg6
I36
sg7
I1
sg8
g310
sba(i__main__
NodesAndValues
p438
(dp439
g3
g409
sg5
I24
sg6
I37
sg7
I0
sg8
g310
sba(i__main__
NodesAndValues
p440
(dp441
g3
g412
sg5
I24
sg6
I38
sg7
I0
sg8
g310
sba(i__main__
NodesAndValues
p442
(dp443
g3
g415
sg5
I24
sg6
I39
sg7
I0
sg8
g310
sba(i__main__
NodesAndValues
p444
(dp445
g3
g376
sg5
I25
sg6
I26
sg7
I0
sg8
g313
sba(i__main__
NodesAndValues
p446
(dp447
g3
g379
sg5
I25
sg6
I27
sg7
I0
sg8
g313
sba(i__main__
NodesAndValues
p448
(dp449
g3
g382
sg5
I25
sg6
I28
sg7
I5
sg8
g313
sba(i__main__
NodesAndValues
p450
(dp451
g3
g385
sg5
I25
sg6
I29
sg7
I0
sg8
g313
sba(i__main__
NodesAndValues
p452
(dp453
g3
g388
sg5
I25
sg6
I30
sg7
I0
sg8
g313
sba(i__main__
NodesAndValues
p454
(dp455
g3
g391
sg5
I25
sg6
I31
sg7
I0
sg8
g313
sba(i__main__
NodesAndValues
p456
(dp457
g3
g394
sg5
I25
sg6
I32
sg7
I0
sg8
g313
sba(i__main__
NodesAndValues
p458
(dp459
g3
g397
sg5
I25
sg6
I33
sg7
I0
sg8
g313
sba(i__main__
NodesAndValues
p460
(dp461
g3
g400
sg5
I25
sg6
I34
sg7
I0
sg8
g313
sba(i__main__
NodesAndValues
p462
(dp463
g3
g403
sg5
I25
sg6
I35
sg7
I0
sg8
g313
sba(i__main__
NodesAndValues
p464
(dp465
g3
g406
sg5
I25
sg6
I36
sg7
I0
sg8
g313
sba(i__main__
NodesAndValues
p466
(dp467
g3
g409
sg5
I25
sg6
I37
sg7
I0
sg8
g313
sba(i__main__
NodesAndValues
p468
(dp469
g3
g412
sg5
I25
sg6
I38
sg7
I0
sg8
g313
sba(i__main__
NodesAndValues
p470
(dp471
g3
g415
sg5
I25
sg6
I39
sg7
I0
sg8
g313
sba(i__main__
NodesAndValues
p472
(dp473
g3
S'0 Ikke vurdert'
p474
sg5
I26
sg6
I40
sg7
I0
sg8
g376
sba(i__main__
NodesAndValues
p475
(dp476
g3
S'1 Liten'
p477
sg5
I26
sg6
I41
sg7
I0
sg8
g376
sba(i__main__
NodesAndValues
p478
(dp479
g3
S'2 Moderat'
p480
sg5
I26
sg6
I42
sg7
I0
sg8
g376
sba(i__main__
NodesAndValues
p481
(dp482
g3
S'3 Betydelig'
p483
sg5
I26
sg6
I43
sg7
I0
sg8
g376
sba(i__main__
NodesAndValues
p484
(dp485
g3
S'4 Stor'
p486
sg5
I26
sg6
I44
sg7
I0
sg8
g376
sba(i__main__
NodesAndValues
p487
(dp488
g3
S'5 Meget stor'
p489
sg5
I26
sg6
I45
sg7
I0
sg8
g376
sba(i__main__
NodesAndValues
p490
(dp491
g3
g474
sg5
I27
sg6
I40
sg7
I0
sg8
g379
sba(i__main__
NodesAndValues
p492
(dp493
g3
g477
sg5
I27
sg6
I41
sg7
I1
sg8
g379
sba(i__main__
NodesAndValues
p494
(dp495
g3
g480
sg5
I27
sg6
I42
sg7
I0
sg8
g379
sba(i__main__
NodesAndValues
p496
(dp497
g3
g483
sg5
I27
sg6
I43
sg7
I0
sg8
g379
sba(i__main__
NodesAndValues
p498
(dp499
g3
g486
sg5
I27
sg6
I44
sg7
I0
sg8
g379
sba(i__main__
NodesAndValues
p500
(dp501
g3
g489
sg5
I27
sg6
I45
sg7
I0
sg8
g379
sba(i__main__
NodesAndValues
p502
(dp503
g3
g474
sg5
I28
sg6
I40
sg7
I0
sg8
g382
sba(i__main__
NodesAndValues
p504
(dp505
g3
g477
sg5
I28
sg6
I41
sg7
I0
sg8
g382
sba(i__main__
NodesAndValues
p506
(dp507
g3
g480
sg5
I28
sg6
I42
sg7
I11
sg8
g382
sba(i__main__
NodesAndValues
p508
(dp509
g3
g483
sg5
I28
sg6
I43
sg7
I14
sg8
g382
sba(i__main__
NodesAndValues
p510
(dp511
g3
g486
sg5
I28
sg6
I44
sg7
I0
sg8
g382
sba(i__main__
NodesAndValues
p512
(dp513
g3
g489
sg5
I28
sg6
I45
sg7
I0
sg8
g382
sba(i__main__
NodesAndValues
p514
(dp515
g3
g474
sg5
I29
sg6
I40
sg7
I0
sg8
g385
sba(i__main__
NodesAndValues
p516
(dp517
g3
g477
sg5
I29
sg6
I41
sg7
I0
sg8
g385
sba(i__main__
NodesAndValues
p518
(dp519
g3
g480
sg5
I29
sg6
I42
sg7
I0
sg8
g385
sba(i__main__
NodesAndValues
p520
(dp521
g3
g483
sg5
I29
sg6
I43
sg7
I0
sg8
g385
sba(i__main__
NodesAndValues
p522
(dp523
g3
g486
sg5
I29
sg6
I44
sg7
I0
sg8
g385
sba(i__main__
NodesAndValues
p524
(dp525
g3
g489
sg5
I29
sg6
I45
sg7
I0
sg8
g385
sba(i__main__
NodesAndValues
p526
(dp527
g3
g474
sg5
I30
sg6
I40
sg7
I0
sg8
g388
sba(i__main__
NodesAndValues
p528
(dp529
g3
g477
sg5
I30
sg6
I41
sg7
I0
sg8
g388
sba(i__main__
NodesAndValues
p530
(dp531
g3
g480
sg5
I30
sg6
I42
sg7
I2
sg8
g388
sba(i__main__
NodesAndValues
p532
(dp533
g3
g483
sg5
I30
sg6
I43
sg7
I0
sg8
g388
sba(i__main__
NodesAndValues
p534
(dp535
g3
g486
sg5
I30
sg6
I44
sg7
I0
sg8
g388
sba(i__main__
NodesAndValues
p536
(dp537
g3
g489
sg5
I30
sg6
I45
sg7
I0
sg8
g388
sba(i__main__
NodesAndValues
p538
(dp539
g3
g474
sg5
I31
sg6
I40
sg7
I0
sg8
g391
sba(i__main__
NodesAndValues
p540
(dp541
g3
g477
sg5
I31
sg6
I41
sg7
I0
sg8
g391
sba(i__main__
NodesAndValues
p542
(dp543
g3
g480
sg5
I31
sg6
I42
sg7
I0
sg8
g391
sba(i__main__
NodesAndValues
p544
(dp545
g3
g483
sg5
I31
sg6
I43
sg7
I0
sg8
g391
sba(i__main__
NodesAndValues
p546
(dp547
g3
g486
sg5
I31
sg6
I44
sg7
I0
sg8
g391
sba(i__main__
NodesAndValues
p548
(dp549
g3
g489
sg5
I31
sg6
I45
sg7
I0
sg8
g391
sba(i__main__
NodesAndValues
p550
(dp551
g3
g474
sg5
I32
sg6
I40
sg7
I0
sg8
g394
sba(i__main__
NodesAndValues
p552
(dp553
g3
g477
sg5
I32
sg6
I41
sg7
I0
sg8
g394
sba(i__main__
NodesAndValues
p554
(dp555
g3
g480
sg5
I32
sg6
I42
sg7
I0
sg8
g394
sba(i__main__
NodesAndValues
p556
(dp557
g3
g483
sg5
I32
sg6
I43
sg7
I0
sg8
g394
sba(i__main__
NodesAndValues
p558
(dp559
g3
g486
sg5
I32
sg6
I44
sg7
I0
sg8
g394
sba(i__main__
NodesAndValues
p560
(dp561
g3
g489
sg5
I32
sg6
I45
sg7
I0
sg8
g394
sba(i__main__
NodesAndValues
p562
(dp563
g3
g474
sg5
I33
sg6
I40
sg7
I0
sg8
g397
sba(i__main__
NodesAndValues
p564
(dp565
g3
g477
sg5
I33
sg6
I41
sg7
I0
sg8
g397
sba(i__main__
NodesAndValues
p566
(dp567
g3
g480
sg5
I33
sg6
I42
sg7
I0
sg8
g397
sba(i__main__
NodesAndValues
p568
(dp569
g3
g483
sg5
I33
sg6
I43
sg7
I0
sg8
g397
sba(i__main__
NodesAndValues
p570
(dp571
g3
g486
sg5
I33
sg6
I44
sg7
I0
sg8
g397
sba(i__main__
NodesAndValues
p572
(dp573
g3
g489
sg5
I33
sg6
I45
sg7
I0
sg8
g397
sba(i__main__
NodesAndValues
p574
(dp575
g3
g474
sg5
I34
sg6
I40
sg7
I0
sg8
g400
sba(i__main__
NodesAndValues
p576
(dp577
g3
g477
sg5
I34
sg6
I41
sg7
I0
sg8
g400
sba(i__main__
NodesAndValues
p578
(dp579
g3
g480
sg5
I34
sg6
I42
sg7
I0
sg8
g400
sba(i__main__
NodesAndValues
p580
(dp581
g3
g483
sg5
I34
sg6
I43
sg7
I0
sg8
g400
sba(i__main__
NodesAndValues
p582
(dp583
g3
g486
sg5
I34
sg6
I44
sg7
I0
sg8
g400
sba(i__main__
NodesAndValues
p584
(dp585
g3
g489
sg5
I34
sg6
I45
sg7
I0
sg8
g400
sba(i__main__
NodesAndValues
p586
(dp587
g3
g474
sg5
I35
sg6
I40
sg7
I0
sg8
g403
sba(i__main__
NodesAndValues
p588
(dp589
g3
g477
sg5
I35
sg6
I41
sg7
I0
sg8
g403
sba(i__main__
NodesAndValues
p590
(dp591
g3
g480
sg5
I35
sg6
I42
sg7
I0
sg8
g403
sba(i__main__
NodesAndValues
p592
(dp593
g3
g483
sg5
I35
sg6
I43
sg7
I4
sg8
g403
sba(i__main__
NodesAndValues
p594
(dp595
g3
g486
sg5
I35
sg6
I44
sg7
I1
sg8
g403
sba(i__main__
NodesAndValues
p596
(dp597
g3
g489
sg5
I35
sg6
I45
sg7
I0
sg8
g403
sba(i__main__
NodesAndValues
p598
(dp599
g3
g474
sg5
I36
sg6
I40
sg7
I0
sg8
g406
sba(i__main__
NodesAndValues
p600
(dp601
g3
g477
sg5
I36
sg6
I41
sg7
I0
sg8
g406
sba(i__main__
NodesAndValues
p602
(dp603
g3
g480
sg5
I36
sg6
I42
sg7
I1
sg8
g406
sba(i__main__
NodesAndValues
p604
(dp605
g3
g483
sg5
I36
sg6
I43
sg7
I0
sg8
g406
sba(i__main__
NodesAndValues
p606
(dp607
g3
g486
sg5
I36
sg6
I44
sg7
I0
sg8
g406
sba(i__main__
NodesAndValues
p608
(dp609
g3
g489
sg5
I36
sg6
I45
sg7
I0
sg8
g406
sba(i__main__
NodesAndValues
p610
(dp611
g3
g474
sg5
I37
sg6
I40
sg7
I0
sg8
g409
sba(i__main__
NodesAndValues
p612
(dp613
g3
g477
sg5
I37
sg6
I41
sg7
I0
sg8
g409
sba(i__main__
NodesAndValues
p614
(dp615
g3
g480
sg5
I37
sg6
I42
sg7
I0
sg8
g409
sba(i__main__
NodesAndValues
p616
(dp617
g3
g483
sg5
I37
sg6
I43
sg7
I0
sg8
g409
sba(i__main__
NodesAndValues
p618
(dp619
g3
g486
sg5
I37
sg6
I44
sg7
I0
sg8
g409
sba(i__main__
NodesAndValues
p620
(dp621
g3
g489
sg5
I37
sg6
I45
sg7
I0
sg8
g409
sba(i__main__
NodesAndValues
p622
(dp623
g3
g474
sg5
I38
sg6
I40
sg7
I0
sg8
g412
sba(i__main__
NodesAndValues
p624
(dp625
g3
g477
sg5
I38
sg6
I41
sg7
I0
sg8
g412
sba(i__main__
NodesAndValues
p626
(dp627
g3
g480
sg5
I38
sg6
I42
sg7
I0
sg8
g412
sba(i__main__
NodesAndValues
p628
(dp629
g3
g483
sg5
I38
sg6
I43
sg7
I0
sg8
g412
sba(i__main__
NodesAndValues
p630
(dp631
g3
g486
sg5
I38
sg6
I44
sg7
I0
sg8
g412
sba(i__main__
NodesAndValues
p632
(dp633
g3
g489
sg5
I38
sg6
I45
sg7
I0
sg8
g412
sba(i__main__
NodesAndValues
p634
(dp635
g3
g474
sg5
I39
sg6
I40
sg7
I0
sg8
g415
sba(i__main__
NodesAndValues
p636
(dp637
g3
g477
sg5
I39
sg6
I41
sg7
I0
sg8
g415
sba(i__main__
NodesAndValues
p638
(dp639
g3
g480
sg5
I39
sg6
I42
sg7
I0
sg8
g415
sba(i__main__
NodesAndValues
p640
(dp641
g3
g483
sg5
I39
sg6
I43
sg7
I0
sg8
g415
sba(i__main__
NodesAndValues
p642
(dp643
g3
g486
sg5
I39
sg6
I44
sg7
I0
sg8
g415
sba(i__main__
NodesAndValues
p644
(dp645
g3
g489
sg5
I39
sg6
I45
sg7
I0
sg8
g415
sba.