(lp0
(dp1
I1
(lp2
S'Rask temperaturstigning'
p3
aS'Mye vann i snoeen'
p4
aS'Ferske sprekker'
p5
aS'Ingen faretegn observert'
p6
aS'Ingen faretegn observert'
p7
aS'Rimkrystaller'
p8
aS'Ingen faretegn observert'
p9
aS'Ingen faretegn observert'
p10
aS'Rimkrystaller'
p11
aS'Rimkrystaller'
p12
aS'Rimkrystaller'
p13
aS'Rimkrystaller'
p14
aS'Rimkrystaller'
p15
aS'Rimkrystaller'
p16
aS'Ingen faretegn observert'
p17
aS'Ingen faretegn observert'
p18
aS'Ingen faretegn observert'
p19
aS'Fersk vindtransportert snoe'
p20
aS'Rask temperaturstigning'
p21
aS'Mye vann i snoeen'
p22
aS'Ingen faretegn observert'
p23
aS'Ingen faretegn observert'
p24
aS'Ingen faretegn observert'
p25
aS'Ingen faretegn observert'
p26
aS'Ingen faretegn observert'
p27
aS'Ingen faretegn observert'
p28
aS'Ingen faretegn observert'
p29
aS'Ingen faretegn observert'
p30
aS'Ingen faretegn observert'
p31
aS'Fersk vindtransportert snoe'
p32
aS'Ingen faretegn observert'
p33
aS'Ingen faretegn observert'
p34
aS'Ingen faretegn observert'
p35
aS'Ingen faretegn observert'
p36
aS'Ingen faretegn observert'
p37
aS'Rimkrystaller'
p38
aS'Ingen faretegn observert'
p39
aS'Ingen faretegn observert'
p40
aS'Ingen faretegn observert'
p41
aS'Ingen faretegn observert'
p42
aS'Ingen faretegn observert'
p43
aS'Rimkrystaller'
p44
aS'Ingen faretegn observert'
p45
aS'Ingen faretegn observert'
p46
aS'Rimkrystaller'
p47
aS'Ferske sprekker'
p48
aS'Ingen faretegn observert'
p49
aS'Ingen faretegn observert'
p50
aS'Rimkrystaller'
p51
aS'Rimkrystaller'
p52
aS'Ingen faretegn observert'
p53
aS'Ingen faretegn observert'
p54
aS'Ferske sprekker'
p55
aS'Ingen faretegn observert'
p56
aS'Rimkrystaller'
p57
aS'Rimkrystaller'
p58
aS'Rimkrystaller'
p59
aS'Rimkrystaller'
p60
aS'Ingen faretegn observert'
p61
aS'Rimkrystaller'
p62
aS'Rimkrystaller'
p63
aS'Rimkrystaller'
p64
aS'Rimkrystaller'
p65
aS'Annet faretegn (spesifiser)'
p66
aS'Ingen faretegn observert'
p67
aS'Annet faretegn (spesifiser)'
p68
aS'Rimkrystaller'
p69
aS'Ingen faretegn observert'
p70
aS'Rimkrystaller'
p71
aS'Fersk vindtransportert snoe'
p72
aS'Annet faretegn (spesifiser)'
p73
aS'Rimkrystaller'
p74
aS'Rimkrystaller'
p75
aS'Ingen faretegn observert'
p76
aS'Rimkrystaller'
p77
aS'Fersk vindtransportert snoe'
p78
aS'Ingen faretegn observert'
p79
aS'Rimkrystaller'
p80
aS'Fersk vindtransportert snoe'
p81
aS'Rimkrystaller'
p82
aS'Rimkrystaller'
p83
aS'Ingen faretegn observert'
p84
aS'Fersk vindtransportert snoe'
p85
aS'Droenn i snoeen'
p86
aS'Ferske sprekker'
p87
aS'Fersk vindtransportert snoe'
p88
aS'Rimkrystaller'
p89
aS'Fersk vindtransportert snoe'
p90
aS'Ferske sprekker'
p91
aS'Fersk vindtransportert snoe'
p92
aS'Ferske sprekker'
p93
aS'Ingen faretegn observert'
p94
aS'Ingen faretegn observert'
p95
aS'Ferske sprekker'
p96
aS'Ingen faretegn observert'
p97
aS'Ingen faretegn observert'
p98
aS'Ingen faretegn observert'
p99
aS'Ingen faretegn observert'
p100
aS'Ingen faretegn observert'
p101
aS'Ingen faretegn observert'
p102
aS'Ingen faretegn observert'
p103
aS'Ingen faretegn observert'
p104
aS'Rimkrystaller'
p105
aS'Ingen faretegn observert'
p106
aS'Rimkrystaller'
p107
aS'Rimkrystaller'
p108
aS'Fersk vindtransportert snoe'
p109
aS'Ingen faretegn observert'
p110
aS'Rimkrystaller'
p111
aS'Rimkrystaller'
p112
aS'Ingen faretegn observert'
p113
aS'Ingen faretegn observert'
p114
aS'Ingen faretegn observert'
p115
aS'Droenn i snoeen'
p116
aS'Ingen faretegn observert'
p117
aS'Ingen faretegn observert'
p118
aS'Ingen faretegn observert'
p119
aS'Ingen faretegn observert'
p120
aS'Ingen faretegn observert'
p121
aS'Fersk vindtransportert snoe'
p122
aS'Fersk vindtransportert snoe'
p123
aS'Ingen faretegn observert'
p124
aS'Ferske skred'
p125
aS'Fersk vindtransportert snoe'
p126
aS'Ingen faretegn observert'
p127
aS'Mye vann i snoeen'
p128
aS'Ingen faretegn observert'
p129
aS'Fersk vindtransportert snoe'
p130
aS'Fersk vindtransportert snoe'
p131
aS'Fersk vindtransportert snoe'
p132
aS'Ingen faretegn observert'
p133
aS'Ingen faretegn observert'
p134
aS'Rask temperaturstigning'
p135
aS'Ingen faretegn observert'
p136
aS'Rimkrystaller'
p137
aS'Ingen faretegn observert'
p138
aS'Rask temperaturstigning'
p139
aS'Ingen faretegn observert'
p140
aS'Ingen faretegn observert'
p141
aS'Ferske skred'
p142
aS'Ingen faretegn observert'
p143
aS'Ingen faretegn observert'
p144
aS'Ingen faretegn observert'
p145
aS'Ingen faretegn observert'
p146
aS'Fersk vindtransportert snoe'
p147
aS'Ingen faretegn observert'
p148
aS'Ingen faretegn observert'
p149
aS'Fersk vindtransportert snoe'
p150
aS'Ingen faretegn observert'
p151
aS'Ingen faretegn observert'
p152
aS'Ingen faretegn observert'
p153
aS'Ingen faretegn observert'
p154
aS'Ingen faretegn observert'
p155
aS'Ingen faretegn observert'
p156
aS'Ingen faretegn observert'
p157
aS'Ingen faretegn observert'
p158
aS'Ingen faretegn observert'
p159
aS'Ferske skred'
p160
aS'Ingen faretegn observert'
p161
aS'Ingen faretegn observert'
p162
aS'Ingen faretegn observert'
p163
aS'Ingen faretegn observert'
p164
aS'Ingen faretegn observert'
p165
aS'Ingen faretegn observert'
p166
aS'Ingen faretegn observert'
p167
aS'Ingen faretegn observert'
p168
aS'Rimkrystaller'
p169
aS'Rimkrystaller'
p170
aS'Rimkrystaller'
p171
aS'Ferske skred'
p172
aS'Rimkrystaller'
p173
aS'Rimkrystaller'
p174
aS'Ingen faretegn observert'
p175
aS'Ingen faretegn observert'
p176
aS'Ingen faretegn observert'
p177
aS'Ingen faretegn observert'
p178
aS'Rimkrystaller'
p179
aS'Ingen faretegn observert'
p180
aS'Ingen faretegn observert'
p181
aS'Ferske skred'
p182
aS'Annet faretegn (spesifiser)'
p183
aS'Ingen faretegn observert'
p184
aS'Ingen faretegn observert'
p185
aS'Ingen faretegn observert'
p186
aS'Ingen faretegn observert'
p187
aS'Ingen faretegn observert'
p188
aS'Rimkrystaller'
p189
aS'Ingen faretegn observert'
p190
aS'Droenn i snoeen'
p191
aS'Ferske sprekker'
p192
aS'Ingen faretegn observert'
p193
aS'Ingen faretegn observert'
p194
aS'Ingen faretegn observert'
p195
aS'Ferske skred'
p196
aS'Ingen faretegn observert'
p197
aS'Ingen faretegn observert'
p198
aS'Ferske skred'
p199
aS'Ingen faretegn observert'
p200
aS'Ingen faretegn observert'
p201
aS'Ikke gitt'
p202
aS'Ingen faretegn observert'
p203
aS'Ingen faretegn observert'
p204
aS'Ingen faretegn observert'
p205
aS'Rimkrystaller'
p206
aS'Ingen faretegn observert'
p207
aS'Fersk vindtransportert snoe'
p208
aS'Ingen faretegn observert'
p209
aS'Ingen faretegn observert'
p210
aS'Ingen faretegn observert'
p211
aS'Ingen faretegn observert'
p212
aS'Rimkrystaller'
p213
aS'Rimkrystaller'
p214
aS'Rimkrystaller'
p215
aS'Ingen faretegn observert'
p216
aS'Ingen faretegn observert'
p217
aS'Ingen faretegn observert'
p218
aS'Droenn i snoeen'
p219
aS'Droenn i snoeen'
p220
aS'Ingen faretegn observert'
p221
aS'Rimkrystaller'
p222
aS'Rimkrystaller'
p223
aS'Rimkrystaller'
p224
aS'Ingen faretegn observert'
p225
aS'Ingen faretegn observert'
p226
aS'Mye vann i snoeen'
p227
aS'Ingen faretegn observert'
p228
aS'Ingen faretegn observert'
p229
aS'Rimkrystaller'
p230
aS'Rimkrystaller'
p231
aS'Rimkrystaller'
p232
aS'Ingen faretegn observert'
p233
aS'Ingen faretegn observert'
p234
aS'Ingen faretegn observert'
p235
aS'Ingen faretegn observert'
p236
aS'Fersk vindtransportert snoe'
p237
aS'Ingen faretegn observert'
p238
aS'Ingen faretegn observert'
p239
aS'Ingen faretegn observert'
p240
aS'Ingen faretegn observert'
p241
aS'Fersk vindtransportert snoe'
p242
aS'Rimkrystaller'
p243
aS'Stort snoefall'
p244
aS'Mye vann i snoeen'
p245
aS'Ingen faretegn observert'
p246
aS'Ingen faretegn observert'
p247
aS'Ingen faretegn observert'
p248
aS'Fersk vindtransportert snoe'
p249
aS'Annet faretegn (spesifiser)'
p250
aS'Ferske sprekker'
p251
aS'Stort snoefall'
p252
aS'Ingen faretegn observert'
p253
aS'Ingen faretegn observert'
p254
aS'Ingen faretegn observert'
p255
aS'Ingen faretegn observert'
p256
aS'Ingen faretegn observert'
p257
aS'Ingen faretegn observert'
p258
aS'Fersk vindtransportert snoe'
p259
aS'Ingen faretegn observert'
p260
aS'Ingen faretegn observert'
p261
aS'Ferske skred'
p262
aS'Ingen faretegn observert'
p263
aS'Ingen faretegn observert'
p264
aS'Annet faretegn (spesifiser)'
p265
aS'Ingen faretegn observert'
p266
aS'Ingen faretegn observert'
p267
aS'Ingen faretegn observert'
p268
aS'Ingen faretegn observert'
p269
aS'Fersk vindtransportert snoe'
p270
aS'Fersk vindtransportert snoe'
p271
aS'Fersk vindtransportert snoe'
p272
aS'Ingen faretegn observert'
p273
aS'Ingen faretegn observert'
p274
aS'Mye vann i snoeen'
p275
aS'Ingen faretegn observert'
p276
aS'Ingen faretegn observert'
p277
aS'Ingen faretegn observert'
p278
aS'Ingen faretegn observert'
p279
aS'Ingen faretegn observert'
p280
aS'Ingen faretegn observert'
p281
aS'Ingen faretegn observert'
p282
aS'Fersk vindtransportert snoe'
p283
aS'Ingen faretegn observert'
p284
aS'Ingen faretegn observert'
p285
aS'Ingen faretegn observert'
p286
aS'Ingen faretegn observert'
p287
aS'Ingen faretegn observert'
p288
aS'Annet faretegn (spesifiser)'
p289
aS'Fersk vindtransportert snoe'
p290
aS'Ingen faretegn observert'
p291
aS'Ingen faretegn observert'
p292
aS'Ikke gitt'
p293
aS'Ikke gitt'
p294
aS'Fersk vindtransportert snoe'
p295
aS'Rask temperaturstigning'
p296
aS'Ferske skred'
p297
aS'Ferske skred'
p298
aS'Ferske skred'
p299
aS'Ingen faretegn observert'
p300
aS'Ingen faretegn observert'
p301
aS'Ingen faretegn observert'
p302
aS'Ingen faretegn observert'
p303
aS'Ingen faretegn observert'
p304
asI2
(lp305
S'Fersk vindtransportert snoe'
p306
aS'Ferske sprekker'
p307
aS'Annet faretegn (spesifiser)'
p308
aS'Ingen faretegn observert'
p309
aS'Fersk vindtransportert snoe'
p310
aS'Fersk vindtransportert snoe'
p311
aS'Mye vann i snoeen'
p312
aS'Rask temperaturstigning'
p313
aS'Fersk vindtransportert snoe'
p314
aS'Ferske skred'
p315
aS'Ferske sprekker'
p316
aS'Fersk vindtransportert snoe'
p317
aS'Droenn i snoeen'
p318
aS'Ferske sprekker'
p319
aS'Ferske sprekker'
p320
aS'Fersk vindtransportert snoe'
p321
aS'Fersk vindtransportert snoe'
p322
aS'Fersk vindtransportert snoe'
p323
aS'Ingen faretegn observert'
p324
aS'Ferske sprekker'
p325
aS'Fersk vindtransportert snoe'
p326
aS'Mye vann i snoeen'
p327
aS'Fersk vindtransportert snoe'
p328
aS'Fersk vindtransportert snoe'
p329
aS'Fersk vindtransportert snoe'
p330
aS'Fersk vindtransportert snoe'
p331
aS'Fersk vindtransportert snoe'
p332
aS'Ingen faretegn observert'
p333
aS'Ingen faretegn observert'
p334
aS'Ingen faretegn observert'
p335
aS'Fersk vindtransportert snoe'
p336
aS'Fersk vindtransportert snoe'
p337
aS'Fersk vindtransportert snoe'
p338
aS'Annet faretegn (spesifiser)'
p339
aS'Fersk vindtransportert snoe'
p340
aS'Fersk vindtransportert snoe'
p341
aS'Ferske sprekker'
p342
aS'Fersk vindtransportert snoe'
p343
aS'Ingen faretegn observert'
p344
aS'Droenn i snoeen'
p345
aS'Ikke gitt'
p346
aS'Ingen faretegn observert'
p347
aS'Ferske sprekker'
p348
aS'Stort snoefall'
p349
aS'Stort snoefall'
p350
aS'Ingen faretegn observert'
p351
aS'Stort snoefall'
p352
aS'Fersk vindtransportert snoe'
p353
aS'Fersk vindtransportert snoe'
p354
aS'Ferske sprekker'
p355
aS'Ferske sprekker'
p356
aS'Fersk vindtransportert snoe'
p357
aS'Ikke gitt'
p358
aS'Annet faretegn (spesifiser)'
p359
aS'Fersk vindtransportert snoe'
p360
aS'Fersk vindtransportert snoe'
p361
aS'Fersk vindtransportert snoe'
p362
aS'Ingen faretegn observert'
p363
aS'Fersk vindtransportert snoe'
p364
aS'Rimkrystaller'
p365
aS'Stort snoefall'
p366
aS'Fersk vindtransportert snoe'
p367
aS'Fersk vindtransportert snoe'
p368
aS'Fersk vindtransportert snoe'
p369
aS'Ingen faretegn observert'
p370
aS'Ingen faretegn observert'
p371
aS'Fersk vindtransportert snoe'
p372
aS'Fersk vindtransportert snoe'
p373
aS'Fersk vindtransportert snoe'
p374
aS'Fersk vindtransportert snoe'
p375
aS'Fersk vindtransportert snoe'
p376
aS'Fersk vindtransportert snoe'
p377
aS'Fersk vindtransportert snoe'
p378
aS'Ferske skred'
p379
aS'Ferske sprekker'
p380
aS'Fersk vindtransportert snoe'
p381
aS'Fersk vindtransportert snoe'
p382
aS'Annet faretegn (spesifiser)'
p383
aS'Ferske sprekker'
p384
aS'Fersk vindtransportert snoe'
p385
aS'Fersk vindtransportert snoe'
p386
aS'Ingen faretegn observert'
p387
aS'Ingen faretegn observert'
p388
aS'Fersk vindtransportert snoe'
p389
aS'Ingen faretegn observert'
p390
aS'Ingen faretegn observert'
p391
aS'Ferske sprekker'
p392
aS'Droenn i snoeen'
p393
aS'Fersk vindtransportert snoe'
p394
aS'Ingen faretegn observert'
p395
aS'Droenn i snoeen'
p396
aS'Ingen faretegn observert'
p397
aS'Ferske sprekker'
p398
aS'Droenn i snoeen'
p399
aS'Ferske sprekker'
p400
aS'Ingen faretegn observert'
p401
aS'Fersk vindtransportert snoe'
p402
aS'Ferske sprekker'
p403
aS'Fersk vindtransportert snoe'
p404
aS'Fersk vindtransportert snoe'
p405
aS'Fersk vindtransportert snoe'
p406
aS'Fersk vindtransportert snoe'
p407
aS'Ferske sprekker'
p408
aS'Ferske sprekker'
p409
aS'Annet faretegn (spesifiser)'
p410
aS'Stort snoefall'
p411
aS'Ferske sprekker'
p412
aS'Stort snoefall'
p413
aS'Annet faretegn (spesifiser)'
p414
aS'Fersk vindtransportert snoe'
p415
aS'Fersk vindtransportert snoe'
p416
aS'Fersk vindtransportert snoe'
p417
aS'Fersk vindtransportert snoe'
p418
aS'Ingen faretegn observert'
p419
aS'Ingen faretegn observert'
p420
aS'Fersk vindtransportert snoe'
p421
aS'Ingen faretegn observert'
p422
aS'Fersk vindtransportert snoe'
p423
aS'Ferske sprekker'
p424
aS'Ferske skred'
p425
aS'Stort snoefall'
p426
aS'Fersk vindtransportert snoe'
p427
aS'Stort snoefall'
p428
aS'Fersk vindtransportert snoe'
p429
aS'Fersk vindtransportert snoe'
p430
aS'Fersk vindtransportert snoe'
p431
aS'Stort snoefall'
p432
aS'Fersk vindtransportert snoe'
p433
aS'Ingen faretegn observert'
p434
aS'Ingen faretegn observert'
p435
aS'Ingen faretegn observert'
p436
aS'Ingen faretegn observert'
p437
aS'Fersk vindtransportert snoe'
p438
aS'Fersk vindtransportert snoe'
p439
aS'Ingen faretegn observert'
p440
aS'Ferske sprekker'
p441
aS'Rimkrystaller'
p442
aS'Rimkrystaller'
p443
aS'Rimkrystaller'
p444
aS'Ingen faretegn observert'
p445
aS'Rimkrystaller'
p446
aS'Rimkrystaller'
p447
aS'Ingen faretegn observert'
p448
aS'Rimkrystaller'
p449
aS'Rimkrystaller'
p450
aS'Rimkrystaller'
p451
aS'Ingen faretegn observert'
p452
aS'Ferske skred'
p453
aS'Ikke gitt'
p454
aS'Ikke gitt'
p455
aS'Ferske skred'
p456
aS'Rimkrystaller'
p457
aS'Ingen faretegn observert'
p458
aS'Rimkrystaller'
p459
aS'Rimkrystaller'
p460
aS'Rimkrystaller'
p461
aS'Ingen faretegn observert'
p462
aS'Rimkrystaller'
p463
aS'Rimkrystaller'
p464
aS'Rimkrystaller'
p465
aS'Rimkrystaller'
p466
aS'Rimkrystaller'
p467
aS'Annet faretegn (spesifiser)'
p468
aS'Rask temperaturstigning'
p469
aS'Rask temperaturstigning'
p470
aS'Ferske skred'
p471
aS'Ferske skred'
p472
aS'Ingen faretegn observert'
p473
aS'Ingen faretegn observert'
p474
aS'Annet faretegn (spesifiser)'
p475
aS'Mye vann i snoeen'
p476
aS'Ferske skred'
p477
aS'Mye vann i snoeen'
p478
aS'Ingen faretegn observert'
p479
aS'Ingen faretegn observert'
p480
aS'Ingen faretegn observert'
p481
aS'Rask temperaturstigning'
p482
aS'Annet faretegn (spesifiser)'
p483
aS'Mye vann i snoeen'
p484
aS'Ingen faretegn observert'
p485
aS'Mye vann i snoeen'
p486
aS'Mye vann i snoeen'
p487
aS'Rask temperaturstigning'
p488
aS'Ingen faretegn observert'
p489
aS'Ingen faretegn observert'
p490
aS'Mye vann i snoeen'
p491
aS'Mye vann i snoeen'
p492
aS'Fersk vindtransportert snoe'
p493
aS'Mye vann i snoeen'
p494
aS'Ingen faretegn observert'
p495
aS'Ingen faretegn observert'
p496
aS'Fersk vindtransportert snoe'
p497
aS'Fersk vindtransportert snoe'
p498
aS'Fersk vindtransportert snoe'
p499
aS'Ingen faretegn observert'
p500
aS'Ingen faretegn observert'
p501
aS'Ingen faretegn observert'
p502
aS'Ingen faretegn observert'
p503
aS'Ingen faretegn observert'
p504
aS'Ingen faretegn observert'
p505
aS'Ingen faretegn observert'
p506
aS'Mye vann i snoeen'
p507
aS'Ferske sprekker'
p508
aS'Droenn i snoeen'
p509
aS'Ferske sprekker'
p510
aS'Fersk vindtransportert snoe'
p511
aS'Ingen faretegn observert'
p512
aS'Ingen faretegn observert'
p513
aS'Ingen faretegn observert'
p514
aS'Fersk vindtransportert snoe'
p515
aS'Fersk vindtransportert snoe'
p516
aS'Fersk vindtransportert snoe'
p517
aS'Ingen faretegn observert'
p518
aS'Ferske sprekker'
p519
aS'Ingen faretegn observert'
p520
aS'Mye vann i snoeen'
p521
aS'Mye vann i snoeen'
p522
aS'Fersk vindtransportert snoe'
p523
aS'Rimkrystaller'
p524
aS'Ferske sprekker'
p525
aS'Rimkrystaller'
p526
aS'Fersk vindtransportert snoe'
p527
aS'Ingen faretegn observert'
p528
aS'Ingen faretegn observert'
p529
aS'Ingen faretegn observert'
p530
aS'Ingen faretegn observert'
p531
aS'Fersk vindtransportert snoe'
p532
aS'Ingen faretegn observert'
p533
aS'Ingen faretegn observert'
p534
aS'Droenn i snoeen'
p535
aS'Droenn i snoeen'
p536
aS'Ingen faretegn observert'
p537
aS'Ferske sprekker'
p538
aS'Ferske skred'
p539
aS'Ferske sprekker'
p540
aS'Fersk vindtransportert snoe'
p541
aS'Fersk vindtransportert snoe'
p542
aS'Rimkrystaller'
p543
aS'Rimkrystaller'
p544
aS'Rimkrystaller'
p545
aS'Fersk vindtransportert snoe'
p546
aS'Rimkrystaller'
p547
aS'Stort snoefall'
p548
aS'Ingen faretegn observert'
p549
aS'Ingen faretegn observert'
p550
aS'Ferske sprekker'
p551
aS'Fersk vindtransportert snoe'
p552
aS'Rask temperaturstigning'
p553
aS'Fersk vindtransportert snoe'
p554
aS'Ferske skred'
p555
aS'Ingen faretegn observert'
p556
aS'Ingen faretegn observert'
p557
aS'Fersk vindtransportert snoe'
p558
aS'Ferske sprekker'
p559
aS'Fersk vindtransportert snoe'
p560
aS'Ingen faretegn observert'
p561
aS'Rask temperaturstigning'
p562
aS'Fersk vindtransportert snoe'
p563
aS'Ikke gitt'
p564
aS'Fersk vindtransportert snoe'
p565
aS'Ingen faretegn observert'
p566
aS'Ingen faretegn observert'
p567
aS'Fersk vindtransportert snoe'
p568
aS'Fersk vindtransportert snoe'
p569
aS'Rask temperaturstigning'
p570
aS'Fersk vindtransportert snoe'
p571
aS'Fersk vindtransportert snoe'
p572
aS'Fersk vindtransportert snoe'
p573
aS'Ingen faretegn observert'
p574
aS'Fersk vindtransportert snoe'
p575
aS'Ingen faretegn observert'
p576
aS'Fersk vindtransportert snoe'
p577
aS'Fersk vindtransportert snoe'
p578
aS'Rimkrystaller'
p579
aS'Fersk vindtransportert snoe'
p580
aS'Fersk vindtransportert snoe'
p581
aS'Fersk vindtransportert snoe'
p582
aS'Droenn i snoeen'
p583
aS'Rask temperaturstigning'
p584
aS'Ferske sprekker'
p585
aS'Annet faretegn (spesifiser)'
p586
aS'Fersk vindtransportert snoe'
p587
aS'Ingen faretegn observert'
p588
aS'Fersk vindtransportert snoe'
p589
aS'Mye vann i snoeen'
p590
aS'Ingen faretegn observert'
p591
aS'Ingen faretegn observert'
p592
aS'Fersk vindtransportert snoe'
p593
aS'Ingen faretegn observert'
p594
aS'Fersk vindtransportert snoe'
p595
aS'Fersk vindtransportert snoe'
p596
aS'Ferske sprekker'
p597
aS'Ingen faretegn observert'
p598
aS'Ingen faretegn observert'
p599
aS'Fersk vindtransportert snoe'
p600
aS'Fersk vindtransportert snoe'
p601
aS'Ferske sprekker'
p602
aS'Ingen faretegn observert'
p603
aS'Ingen faretegn observert'
p604
aS'Ingen faretegn observert'
p605
aS'Fersk vindtransportert snoe'
p606
aS'Ferske skred'
p607
aS'Ferske sprekker'
p608
aS'Fersk vindtransportert snoe'
p609
aS'Fersk vindtransportert snoe'
p610
aS'Ferske skred'
p611
aS'Ferske sprekker'
p612
aS'Ferske sprekker'
p613
aS'Fersk vindtransportert snoe'
p614
aS'Fersk vindtransportert snoe'
p615
aS'Ferske sprekker'
p616
aS'Ingen faretegn observert'
p617
aS'Ingen faretegn observert'
p618
aS'Ingen faretegn observert'
p619
aS'Ingen faretegn observert'
p620
aS'Fersk vindtransportert snoe'
p621
aS'Fersk vindtransportert snoe'
p622
aS'Fersk vindtransportert snoe'
p623
aS'Ingen faretegn observert'
p624
aS'Fersk vindtransportert snoe'
p625
aS'Fersk vindtransportert snoe'
p626
aS'Ferske sprekker'
p627
aS'Ferske sprekker'
p628
aS'Ferske skred'
p629
aS'Ingen faretegn observert'
p630
aS'Ingen faretegn observert'
p631
aS'Fersk vindtransportert snoe'
p632
aS'Ingen faretegn observert'
p633
aS'Ingen faretegn observert'
p634
aS'Rimkrystaller'
p635
aS'Fersk vindtransportert snoe'
p636
aS'Droenn i snoeen'
p637
aS'Ferske sprekker'
p638
aS'Fersk vindtransportert snoe'
p639
aS'Ingen faretegn observert'
p640
aS'Ingen faretegn observert'
p641
aS'Ferske sprekker'
p642
aS'Ingen faretegn observert'
p643
aS'Ingen faretegn observert'
p644
aS'Ingen faretegn observert'
p645
aS'Ingen faretegn observert'
p646
aS'Rimkrystaller'
p647
aS'Ingen faretegn observert'
p648
aS'Ingen faretegn observert'
p649
aS'Rimkrystaller'
p650
aS'Ingen faretegn observert'
p651
aS'Rimkrystaller'
p652
aS'Ingen faretegn observert'
p653
aS'Rimkrystaller'
p654
aS'Ferske sprekker'
p655
aS'Ingen faretegn observert'
p656
aS'Ferske sprekker'
p657
aS'Ingen faretegn observert'
p658
aS'Rimkrystaller'
p659
aS'Ingen faretegn observert'
p660
aS'Ferske sprekker'
p661
aS'Ferske skred'
p662
aS'Ingen faretegn observert'
p663
aS'Ingen faretegn observert'
p664
aS'Rimkrystaller'
p665
aS'Rimkrystaller'
p666
aS'Ingen faretegn observert'
p667
aS'Annet faretegn (spesifiser)'
p668
aS'Ingen faretegn observert'
p669
aS'Ferske sprekker'
p670
aS'Rimkrystaller'
p671
aS'Rimkrystaller'
p672
aS'Ingen faretegn observert'
p673
aS'Rimkrystaller'
p674
aS'Rimkrystaller'
p675
aS'Rimkrystaller'
p676
aS'Rimkrystaller'
p677
aS'Rimkrystaller'
p678
aS'Rimkrystaller'
p679
aS'Ikke gitt'
p680
aS'Fersk vindtransportert snoe'
p681
aS'Ingen faretegn observert'
p682
aS'Fersk vindtransportert snoe'
p683
aS'Fersk vindtransportert snoe'
p684
aS'Rimkrystaller'
p685
aS'Ferske sprekker'
p686
aS'Fersk vindtransportert snoe'
p687
aS'Rimkrystaller'
p688
aS'Ingen faretegn observert'
p689
aS'Ingen faretegn observert'
p690
aS'Ingen faretegn observert'
p691
aS'Fersk vindtransportert snoe'
p692
aS'Fersk vindtransportert snoe'
p693
aS'Fersk vindtransportert snoe'
p694
aS'Ferske sprekker'
p695
aS'Fersk vindtransportert snoe'
p696
aS'Ingen faretegn observert'
p697
aS'Fersk vindtransportert snoe'
p698
aS'Ingen faretegn observert'
p699
aS'Droenn i snoeen'
p700
aS'Ingen faretegn observert'
p701
aS'Rimkrystaller'
p702
aS'Rimkrystaller'
p703
aS'Ingen faretegn observert'
p704
aS'Ingen faretegn observert'
p705
aS'Ingen faretegn observert'
p706
aS'Ingen faretegn observert'
p707
aS'Fersk vindtransportert snoe'
p708
aS'Rimkrystaller'
p709
aS'Ingen faretegn observert'
p710
aS'Ingen faretegn observert'
p711
aS'Rimkrystaller'
p712
aS'Ingen faretegn observert'
p713
aS'Droenn i snoeen'
p714
aS'Ingen faretegn observert'
p715
aS'Ingen faretegn observert'
p716
aS'Ingen faretegn observert'
p717
aS'Ingen faretegn observert'
p718
aS'Ingen faretegn observert'
p719
aS'Ferske sprekker'
p720
aS'Droenn i snoeen'
p721
aS'Ingen faretegn observert'
p722
aS'Ingen faretegn observert'
p723
aS'Ingen faretegn observert'
p724
aS'Stort snoefall'
p725
aS'Fersk vindtransportert snoe'
p726
aS'Ingen faretegn observert'
p727
aS'Ferske skred'
p728
aS'Droenn i snoeen'
p729
aS'Ferske sprekker'
p730
aS'Ferske sprekker'
p731
aS'Fersk vindtransportert snoe'
p732
aS'Ingen faretegn observert'
p733
aS'Ingen faretegn observert'
p734
aS'Ingen faretegn observert'
p735
aS'Rimkrystaller'
p736
aS'Ferske skred'
p737
aS'Fersk vindtransportert snoe'
p738
aS'Rimkrystaller'
p739
aS'Stort snoefall'
p740
aS'Droenn i snoeen'
p741
aS'Ingen faretegn observert'
p742
aS'Ingen faretegn observert'
p743
aS'Fersk vindtransportert snoe'
p744
aS'Rimkrystaller'
p745
aS'Ferske sprekker'
p746
aS'Ferske sprekker'
p747
aS'Rimkrystaller'
p748
aS'Fersk vindtransportert snoe'
p749
aS'Ingen faretegn observert'
p750
aS'Ferske sprekker'
p751
aS'Fersk vindtransportert snoe'
p752
aS'Ingen faretegn observert'
p753
aS'Ingen faretegn observert'
p754
aS'Ferske sprekker'
p755
aS'Droenn i snoeen'
p756
aS'Ferske sprekker'
p757
aS'Fersk vindtransportert snoe'
p758
aS'Droenn i snoeen'
p759
aS'Fersk vindtransportert snoe'
p760
aS'Ferske sprekker'
p761
aS'Ferske sprekker'
p762
aS'Fersk vindtransportert snoe'
p763
aS'Ferske skred'
p764
aS'Ferske sprekker'
p765
aS'Droenn i snoeen'
p766
aS'Droenn i snoeen'
p767
aS'Annet faretegn (spesifiser)'
p768
aS'Annet faretegn (spesifiser)'
p769
aS'Rimkrystaller'
p770
aS'Ferske sprekker'
p771
aS'Rimkrystaller'
p772
aS'Ingen faretegn observert'
p773
aS'Rimkrystaller'
p774
aS'Stort snoefall'
p775
aS'Rimkrystaller'
p776
aS'Droenn i snoeen'
p777
aS'Ferske sprekker'
p778
aS'Ferske skred'
p779
aS'Ferske sprekker'
p780
aS'Fersk vindtransportert snoe'
p781
aS'Fersk vindtransportert snoe'
p782
aS'Fersk vindtransportert snoe'
p783
aS'Ferske skred'
p784
aS'Droenn i snoeen'
p785
aS'Droenn i snoeen'
p786
aS'Ingen faretegn observert'
p787
aS'Ingen faretegn observert'
p788
aS'Fersk vindtransportert snoe'
p789
aS'Ferske sprekker'
p790
aS'Ferske sprekker'
p791
aS'Droenn i snoeen'
p792
aS'Rimkrystaller'
p793
aS'Fersk vindtransportert snoe'
p794
aS'Rimkrystaller'
p795
aS'Droenn i snoeen'
p796
aS'Ferske sprekker'
p797
aS'Rimkrystaller'
p798
aS'Ferske sprekker'
p799
aS'Fersk vindtransportert snoe'
p800
aS'Ferske sprekker'
p801
aS'Ferske sprekker'
p802
aS'Fersk vindtransportert snoe'
p803
aS'Droenn i snoeen'
p804
aS'Rimkrystaller'
p805
aS'Droenn i snoeen'
p806
aS'Fersk vindtransportert snoe'
p807
aS'Fersk vindtransportert snoe'
p808
aS'Droenn i snoeen'
p809
aS'Ingen faretegn observert'
p810
aS'Fersk vindtransportert snoe'
p811
aS'Stort snoefall'
p812
aS'Fersk vindtransportert snoe'
p813
aS'Droenn i snoeen'
p814
aS'Ferske sprekker'
p815
aS'Ferske skred'
p816
aS'Ingen faretegn observert'
p817
aS'Ingen faretegn observert'
p818
aS'Stort snoefall'
p819
aS'Fersk vindtransportert snoe'
p820
aS'Ingen faretegn observert'
p821
aS'Droenn i snoeen'
p822
aS'Fersk vindtransportert snoe'
p823
aS'Ingen faretegn observert'
p824
aS'Ferske sprekker'
p825
aS'Fersk vindtransportert snoe'
p826
aS'Droenn i snoeen'
p827
aS'Ingen faretegn observert'
p828
aS'Ferske skred'
p829
aS'Fersk vindtransportert snoe'
p830
aS'Ingen faretegn observert'
p831
aS'Droenn i snoeen'
p832
aS'Ingen faretegn observert'
p833
aS'Rimkrystaller'
p834
aS'Stort snoefall'
p835
aS'Fersk vindtransportert snoe'
p836
aS'Rimkrystaller'
p837
aS'Rimkrystaller'
p838
aS'Ingen faretegn observert'
p839
aS'Rimkrystaller'
p840
aS'Rimkrystaller'
p841
aS'Droenn i snoeen'
p842
aS'Ingen faretegn observert'
p843
aS'Ingen faretegn observert'
p844
aS'Ingen faretegn observert'
p845
aS'Ingen faretegn observert'
p846
aS'Ingen faretegn observert'
p847
aS'Fersk vindtransportert snoe'
p848
aS'Ingen faretegn observert'
p849
aS'Ingen faretegn observert'
p850
aS'Ingen faretegn observert'
p851
aS'Rimkrystaller'
p852
aS'Rimkrystaller'
p853
aS'Droenn i snoeen'
p854
aS'Rimkrystaller'
p855
aS'Fersk vindtransportert snoe'
p856
aS'Droenn i snoeen'
p857
aS'Ferske sprekker'
p858
aS'Ferske skred'
p859
aS'Ingen faretegn observert'
p860
aS'Fersk vindtransportert snoe'
p861
aS'Droenn i snoeen'
p862
aS'Rimkrystaller'
p863
aS'Rimkrystaller'
p864
aS'Droenn i snoeen'
p865
aS'Ingen faretegn observert'
p866
aS'Ingen faretegn observert'
p867
aS'Rimkrystaller'
p868
aS'Rimkrystaller'
p869
aS'Stort snoefall'
p870
aS'Droenn i snoeen'
p871
aS'Ferske sprekker'
p872
aS'Fersk vindtransportert snoe'
p873
aS'Ingen faretegn observert'
p874
aS'Rask temperaturstigning'
p875
aS'Fersk vindtransportert snoe'
p876
aS'Ferske sprekker'
p877
aS'Ferske sprekker'
p878
aS'Droenn i snoeen'
p879
aS'Rimkrystaller'
p880
aS'Droenn i snoeen'
p881
aS'Rimkrystaller'
p882
aS'Ferske sprekker'
p883
aS'Ferske sprekker'
p884
aS'Rask temperaturstigning'
p885
aS'Fersk vindtransportert snoe'
p886
aS'Ingen faretegn observert'
p887
aS'Droenn i snoeen'
p888
aS'Stort snoefall'
p889
aS'Fersk vindtransportert snoe'
p890
aS'Ferske sprekker'
p891
aS'Ferske skred'
p892
aS'Droenn i snoeen'
p893
aS'Ferske sprekker'
p894
aS'Rask temperaturstigning'
p895
aS'Ferske skred'
p896
aS'Annet faretegn (spesifiser)'
p897
aS'Fersk vindtransportert snoe'
p898
aS'Fersk vindtransportert snoe'
p899
aS'Droenn i snoeen'
p900
aS'Ferske skred'
p901
aS'Ingen faretegn observert'
p902
aS'Rimkrystaller'
p903
aS'Fersk vindtransportert snoe'
p904
aS'Droenn i snoeen'
p905
aS'Ferske skred'
p906
aS'Fersk vindtransportert snoe'
p907
aS'Droenn i snoeen'
p908
aS'Droenn i snoeen'
p909
aS'Droenn i snoeen'
p910
aS'Rask temperaturstigning'
p911
aS'Mye vann i snoeen'
p912
aS'Ferske skred'
p913
aS'Rask temperaturstigning'
p914
aS'Mye vann i snoeen'
p915
aS'Ingen faretegn observert'
p916
aS'Ferske skred'
p917
aS'Annet faretegn (spesifiser)'
p918
aS'Ingen faretegn observert'
p919
aS'Droenn i snoeen'
p920
aS'Rimkrystaller'
p921
aS'Rimkrystaller'
p922
aS'Ingen faretegn observert'
p923
aS'Ingen faretegn observert'
p924
aS'Ferske skred'
p925
aS'Mye vann i snoeen'
p926
aS'Rask temperaturstigning'
p927
aS'Ingen faretegn observert'
p928
aS'Fersk vindtransportert snoe'
p929
aS'Ingen faretegn observert'
p930
aS'Mye vann i snoeen'
p931
aS'Mye vann i snoeen'
p932
aS'Ferske skred'
p933
aS'Mye vann i snoeen'
p934
aS'Fersk vindtransportert snoe'
p935
aS'Ingen faretegn observert'
p936
aS'Mye vann i snoeen'
p937
aS'Mye vann i snoeen'
p938
aS'Ingen faretegn observert'
p939
aS'Annet faretegn (spesifiser)'
p940
aS'Fersk vindtransportert snoe'
p941
aS'Fersk vindtransportert snoe'
p942
aS'Ingen faretegn observert'
p943
aS'Rask temperaturstigning'
p944
aS'Fersk vindtransportert snoe'
p945
aS'Mye vann i snoeen'
p946
aS'Ferske skred'
p947
aS'Droenn i snoeen'
p948
aS'Ferske sprekker'
p949
aS'Rimkrystaller'
p950
aS'Fersk vindtransportert snoe'
p951
aS'Ingen faretegn observert'
p952
aS'Fersk vindtransportert snoe'
p953
aS'Droenn i snoeen'
p954
aS'Droenn i snoeen'
p955
aS'Droenn i snoeen'
p956
aS'Ingen faretegn observert'
p957
aS'Fersk vindtransportert snoe'
p958
aS'Fersk vindtransportert snoe'
p959
aS'Ingen faretegn observert'
p960
aS'Fersk vindtransportert snoe'
p961
aS'Ferske sprekker'
p962
aS'Fersk vindtransportert snoe'
p963
aS'Ferske sprekker'
p964
aS'Ingen faretegn observert'
p965
aS'Ingen faretegn observert'
p966
aS'Fersk vindtransportert snoe'
p967
aS'Fersk vindtransportert snoe'
p968
aS'Droenn i snoeen'
p969
aS'Ferske sprekker'
p970
aS'Fersk vindtransportert snoe'
p971
aS'Fersk vindtransportert snoe'
p972
aS'Fersk vindtransportert snoe'
p973
aS'Ferske sprekker'
p974
aS'Fersk vindtransportert snoe'
p975
aS'Ingen faretegn observert'
p976
aS'Ferske skred'
p977
aS'Ingen faretegn observert'
p978
aS'Fersk vindtransportert snoe'
p979
aS'Ferske sprekker'
p980
aS'Ingen faretegn observert'
p981
aS'Droenn i snoeen'
p982
aS'Fersk vindtransportert snoe'
p983
aS'Ferske skred'
p984
aS'Fersk vindtransportert snoe'
p985
aS'Ferske sprekker'
p986
aS'Droenn i snoeen'
p987
aS'Ingen faretegn observert'
p988
aS'Ingen faretegn observert'
p989
aS'Ingen faretegn observert'
p990
aS'Droenn i snoeen'
p991
aS'Fersk vindtransportert snoe'
p992
aS'Stort snoefall'
p993
aS'Stort snoefall'
p994
aS'Fersk vindtransportert snoe'
p995
aS'Fersk vindtransportert snoe'
p996
aS'Ferske sprekker'
p997
aS'Fersk vindtransportert snoe'
p998
aS'Fersk vindtransportert snoe'
p999
aS'Fersk vindtransportert snoe'
p1000
aS'Droenn i snoeen'
p1001
aS'Ferske sprekker'
p1002
aS'Ingen faretegn observert'
p1003
aS'Ingen faretegn observert'
p1004
aS'Fersk vindtransportert snoe'
p1005
aS'Fersk vindtransportert snoe'
p1006
aS'Ferske sprekker'
p1007
aS'Fersk vindtransportert snoe'
p1008
aS'Fersk vindtransportert snoe'
p1009
aS'Stort snoefall'
p1010
aS'Fersk vindtransportert snoe'
p1011
aS'Ingen faretegn observert'
p1012
aS'Ferske sprekker'
p1013
aS'Fersk vindtransportert snoe'
p1014
aS'Ferske sprekker'
p1015
aS'Rimkrystaller'
p1016
aS'Ingen faretegn observert'
p1017
aS'Ingen faretegn observert'
p1018
aS'Ferske skred'
p1019
aS'Fersk vindtransportert snoe'
p1020
aS'Rimkrystaller'
p1021
aS'Rimkrystaller'
p1022
aS'Fersk vindtransportert snoe'
p1023
aS'Rimkrystaller'
p1024
aS'Ingen faretegn observert'
p1025
aS'Ingen faretegn observert'
p1026
aS'Droenn i snoeen'
p1027
aS'Fersk vindtransportert snoe'
p1028
aS'Ingen faretegn observert'
p1029
aS'Droenn i snoeen'
p1030
aS'Fersk vindtransportert snoe'
p1031
aS'Ingen faretegn observert'
p1032
aS'Fersk vindtransportert snoe'
p1033
aS'Fersk vindtransportert snoe'
p1034
aS'Fersk vindtransportert snoe'
p1035
aS'Fersk vindtransportert snoe'
p1036
aS'Droenn i snoeen'
p1037
aS'Fersk vindtransportert snoe'
p1038
aS'Droenn i snoeen'
p1039
aS'Ingen faretegn observert'
p1040
aS'Ingen faretegn observert'
p1041
aS'Ferske sprekker'
p1042
aS'Fersk vindtransportert snoe'
p1043
aS'Droenn i snoeen'
p1044
aS'Droenn i snoeen'
p1045
aS'Droenn i snoeen'
p1046
aS'Fersk vindtransportert snoe'
p1047
aS'Stort snoefall'
p1048
aS'Fersk vindtransportert snoe'
p1049
aS'Fersk vindtransportert snoe'
p1050
aS'Ferske skred'
p1051
aS'Fersk vindtransportert snoe'
p1052
aS'Stort snoefall'
p1053
aS'Fersk vindtransportert snoe'
p1054
aS'Droenn i snoeen'
p1055
aS'Droenn i snoeen'
p1056
aS'Annet faretegn (spesifiser)'
p1057
aS'Ingen faretegn observert'
p1058
aS'Fersk vindtransportert snoe'
p1059
aS'Ingen faretegn observert'
p1060
aS'Ingen faretegn observert'
p1061
aS'Ingen faretegn observert'
p1062
aS'Fersk vindtransportert snoe'
p1063
aS'Ingen faretegn observert'
p1064
aS'Ferske skred'
p1065
aS'Fersk vindtransportert snoe'
p1066
aS'Stort snoefall'
p1067
aS'Fersk vindtransportert snoe'
p1068
aS'Rask temperaturstigning'
p1069
aS'Ferske skred'
p1070
aS'Fersk vindtransportert snoe'
p1071
aS'Fersk vindtransportert snoe'
p1072
aS'Fersk vindtransportert snoe'
p1073
aS'Fersk vindtransportert snoe'
p1074
aS'Fersk vindtransportert snoe'
p1075
aS'Ferske sprekker'
p1076
aS'Droenn i snoeen'
p1077
aS'Ferske skred'
p1078
aS'Rask temperaturstigning'
p1079
aS'Fersk vindtransportert snoe'
p1080
aS'Ferske skred'
p1081
aS'Mye vann i snoeen'
p1082
aS'Ferske skred'
p1083
aS'Fersk vindtransportert snoe'
p1084
aS'Fersk vindtransportert snoe'
p1085
aS'Fersk vindtransportert snoe'
p1086
aS'Fersk vindtransportert snoe'
p1087
aS'Ferske sprekker'
p1088
aS'Ingen faretegn observert'
p1089
aS'Ferske sprekker'
p1090
aS'Fersk vindtransportert snoe'
p1091
aS'Rask temperaturstigning'
p1092
aS'Ingen faretegn observert'
p1093
aS'Fersk vindtransportert snoe'
p1094
aS'Rask temperaturstigning'
p1095
aS'Rask temperaturstigning'
p1096
aS'Ferske sprekker'
p1097
aS'Fersk vindtransportert snoe'
p1098
aS'Ingen faretegn observert'
p1099
aS'Ingen faretegn observert'
p1100
aS'Fersk vindtransportert snoe'
p1101
aS'Rask temperaturstigning'
p1102
aS'Ingen faretegn observert'
p1103
aS'Ferske skred'
p1104
aS'Ferske skred'
p1105
aS'Fersk vindtransportert snoe'
p1106
aS'Ingen faretegn observert'
p1107
aS'Fersk vindtransportert snoe'
p1108
aS'Fersk vindtransportert snoe'
p1109
aS'Ingen faretegn observert'
p1110
aS'Ingen faretegn observert'
p1111
aS'Ingen faretegn observert'
p1112
aS'Fersk vindtransportert snoe'
p1113
aS'Ferske skred'
p1114
aS'Annet faretegn (spesifiser)'
p1115
aS'Fersk vindtransportert snoe'
p1116
aS'Rask temperaturstigning'
p1117
aS'Ferske sprekker'
p1118
aS'Fersk vindtransportert snoe'
p1119
aS'Ferske sprekker'
p1120
aS'Droenn i snoeen'
p1121
aS'Fersk vindtransportert snoe'
p1122
aS'Fersk vindtransportert snoe'
p1123
aS'Ferske skred'
p1124
aS'Ingen faretegn observert'
p1125
aS'Stort snoefall'
p1126
aS'Droenn i snoeen'
p1127
aS'Ferske sprekker'
p1128
aS'Stort snoefall'
p1129
aS'Droenn i snoeen'
p1130
aS'Ingen faretegn observert'
p1131
aS'Fersk vindtransportert snoe'
p1132
aS'Fersk vindtransportert snoe'
p1133
aS'Ingen faretegn observert'
p1134
aS'Ingen faretegn observert'
p1135
aS'Ingen faretegn observert'
p1136
aS'Droenn i snoeen'
p1137
aS'Droenn i snoeen'
p1138
aS'Ingen faretegn observert'
p1139
aS'Ingen faretegn observert'
p1140
aS'Rask temperaturstigning'
p1141
aS'Ingen faretegn observert'
p1142
aS'Ingen faretegn observert'
p1143
aS'Droenn i snoeen'
p1144
aS'Stort snoefall'
p1145
aS'Fersk vindtransportert snoe'
p1146
aS'Fersk vindtransportert snoe'
p1147
aS'Stort snoefall'
p1148
aS'Droenn i snoeen'
p1149
aS'Fersk vindtransportert snoe'
p1150
aS'Ferske skred'
p1151
aS'Fersk vindtransportert snoe'
p1152
aS'Fersk vindtransportert snoe'
p1153
aS'Ferske skred'
p1154
aS'Ferske skred'
p1155
aS'Fersk vindtransportert snoe'
p1156
aS'Ingen faretegn observert'
p1157
aS'Fersk vindtransportert snoe'
p1158
aS'Annet faretegn (spesifiser)'
p1159
aS'Fersk vindtransportert snoe'
p1160
aS'Droenn i snoeen'
p1161
aS'Fersk vindtransportert snoe'
p1162
aS'Ingen faretegn observert'
p1163
aS'Ingen faretegn observert'
p1164
aS'Fersk vindtransportert snoe'
p1165
aS'Ingen faretegn observert'
p1166
aS'Rimkrystaller'
p1167
aS'Rimkrystaller'
p1168
aS'Fersk vindtransportert snoe'
p1169
aS'Ingen faretegn observert'
p1170
aS'Fersk vindtransportert snoe'
p1171
aS'Ingen faretegn observert'
p1172
aS'Ingen faretegn observert'
p1173
aS'Fersk vindtransportert snoe'
p1174
aS'Fersk vindtransportert snoe'
p1175
aS'Ingen faretegn observert'
p1176
aS'Droenn i snoeen'
p1177
aS'Fersk vindtransportert snoe'
p1178
aS'Ferske skred'
p1179
aS'Annet faretegn (spesifiser)'
p1180
aS'Mye vann i snoeen'
p1181
aS'Fersk vindtransportert snoe'
p1182
aS'Ingen faretegn observert'
p1183
aS'Rimkrystaller'
p1184
aS'Ferske skred'
p1185
aS'Droenn i snoeen'
p1186
aS'Ferske skred'
p1187
aS'Fersk vindtransportert snoe'
p1188
aS'Fersk vindtransportert snoe'
p1189
aS'Ferske skred'
p1190
aS'Fersk vindtransportert snoe'
p1191
aS'Fersk vindtransportert snoe'
p1192
aS'Fersk vindtransportert snoe'
p1193
aS'Ingen faretegn observert'
p1194
aS'Ingen faretegn observert'
p1195
aS'Ingen faretegn observert'
p1196
aS'Ingen faretegn observert'
p1197
aS'Fersk vindtransportert snoe'
p1198
aS'Ingen faretegn observert'
p1199
aS'Ferske skred'
p1200
aS'Droenn i snoeen'
p1201
aS'Ferske sprekker'
p1202
aS'Fersk vindtransportert snoe'
p1203
aS'Ingen faretegn observert'
p1204
aS'Ferske sprekker'
p1205
aS'Ferske sprekker'
p1206
aS'Fersk vindtransportert snoe'
p1207
aS'Ingen faretegn observert'
p1208
aS'Rimkrystaller'
p1209
aS'Rimkrystaller'
p1210
aS'Fersk vindtransportert snoe'
p1211
aS'Droenn i snoeen'
p1212
aS'Ferske skred'
p1213
aS'Fersk vindtransportert snoe'
p1214
aS'Rimkrystaller'
p1215
aS'Ferske skred'
p1216
aS'Fersk vindtransportert snoe'
p1217
aS'Fersk vindtransportert snoe'
p1218
aS'Fersk vindtransportert snoe'
p1219
aS'Ferske skred'
p1220
aS'Ferske skred'
p1221
aS'Fersk vindtransportert snoe'
p1222
aS'Ingen faretegn observert'
p1223
aS'Fersk vindtransportert snoe'
p1224
aS'Fersk vindtransportert snoe'
p1225
aS'Fersk vindtransportert snoe'
p1226
aS'Ferske skred'
p1227
aS'Fersk vindtransportert snoe'
p1228
aS'Ferske skred'
p1229
aS'Fersk vindtransportert snoe'
p1230
aS'Droenn i snoeen'
p1231
aS'Ingen faretegn observert'
p1232
aS'Ingen faretegn observert'
p1233
aS'Ingen faretegn observert'
p1234
aS'Ingen faretegn observert'
p1235
aS'Annet faretegn (spesifiser)'
p1236
aS'Ferske sprekker'
p1237
aS'Ferske skred'
p1238
aS'Ikke gitt'
p1239
aS'Ferske skred'
p1240
aS'Droenn i snoeen'
p1241
aS'Ingen faretegn observert'
p1242
aS'Ingen faretegn observert'
p1243
aS'Ingen faretegn observert'
p1244
aS'Ingen faretegn observert'
p1245
aS'Fersk vindtransportert snoe'
p1246
aS'Fersk vindtransportert snoe'
p1247
aS'Ingen faretegn observert'
p1248
aS'Ferske sprekker'
p1249
aS'Fersk vindtransportert snoe'
p1250
aS'Rimkrystaller'
p1251
aS'Mye vann i snoeen'
p1252
aS'Ingen faretegn observert'
p1253
aS'Rimkrystaller'
p1254
aS'Rimkrystaller'
p1255
aS'Rimkrystaller'
p1256
aS'Rimkrystaller'
p1257
aS'Fersk vindtransportert snoe'
p1258
aS'Ingen faretegn observert'
p1259
aS'Fersk vindtransportert snoe'
p1260
aS'Fersk vindtransportert snoe'
p1261
aS'Rimkrystaller'
p1262
aS'Rimkrystaller'
p1263
aS'Rimkrystaller'
p1264
aS'Rimkrystaller'
p1265
aS'Ferske skred'
p1266
aS'Ingen faretegn observert'
p1267
aS'Rimkrystaller'
p1268
aS'Rimkrystaller'
p1269
aS'Droenn i snoeen'
p1270
aS'Ingen faretegn observert'
p1271
aS'Stort snoefall'
p1272
aS'Stort snoefall'
p1273
aS'Ferske sprekker'
p1274
aS'Ferske sprekker'
p1275
aS'Rimkrystaller'
p1276
aS'Ingen faretegn observert'
p1277
aS'Ferske sprekker'
p1278
aS'Rimkrystaller'
p1279
aS'Ingen faretegn observert'
p1280
aS'Fersk vindtransportert snoe'
p1281
aS'Ingen faretegn observert'
p1282
aS'Rask temperaturstigning'
p1283
aS'Fersk vindtransportert snoe'
p1284
aS'Ingen faretegn observert'
p1285
aS'Ingen faretegn observert'
p1286
aS'Fersk vindtransportert snoe'
p1287
aS'Fersk vindtransportert snoe'
p1288
aS'Ingen faretegn observert'
p1289
aS'Fersk vindtransportert snoe'
p1290
aS'Rask temperaturstigning'
p1291
aS'Ferske skred'
p1292
aS'Ingen faretegn observert'
p1293
aS'Ingen faretegn observert'
p1294
aS'Ingen faretegn observert'
p1295
aS'Ingen faretegn observert'
p1296
aS'Ingen faretegn observert'
p1297
aS'Ingen faretegn observert'
p1298
aS'Ingen faretegn observert'
p1299
aS'Ferske skred'
p1300
aS'Ferske sprekker'
p1301
aS'Stort snoefall'
p1302
aS'Fersk vindtransportert snoe'
p1303
aS'Ferske skred'
p1304
aS'Fersk vindtransportert snoe'
p1305
aS'Ingen faretegn observert'
p1306
aS'Ingen faretegn observert'
p1307
aS'Ingen faretegn observert'
p1308
aS'Ingen faretegn observert'
p1309
aS'Ingen faretegn observert'
p1310
aS'Fersk vindtransportert snoe'
p1311
aS'Ingen faretegn observert'
p1312
aS'Ferske skred'
p1313
aS'Fersk vindtransportert snoe'
p1314
aS'Ingen faretegn observert'
p1315
aS'Ingen faretegn observert'
p1316
aS'Fersk vindtransportert snoe'
p1317
aS'Fersk vindtransportert snoe'
p1318
aS'Ingen faretegn observert'
p1319
aS'Ingen faretegn observert'
p1320
aS'Ingen faretegn observert'
p1321
aS'Ikke gitt'
p1322
aS'Ingen faretegn observert'
p1323
aS'Ferske skred'
p1324
aS'Ingen faretegn observert'
p1325
aS'Droenn i snoeen'
p1326
aS'Ingen faretegn observert'
p1327
aS'Fersk vindtransportert snoe'
p1328
aS'Fersk vindtransportert snoe'
p1329
aS'Fersk vindtransportert snoe'
p1330
aS'Ferske sprekker'
p1331
aS'Ingen faretegn observert'
p1332
aS'Ikke gitt'
p1333
aS'Ingen faretegn observert'
p1334
aS'Ingen faretegn observert'
p1335
aS'Ferske skred'
p1336
aS'Fersk vindtransportert snoe'
p1337
aS'Fersk vindtransportert snoe'
p1338
aS'Fersk vindtransportert snoe'
p1339
aS'Ingen faretegn observert'
p1340
aS'Ferske skred'
p1341
aS'Fersk vindtransportert snoe'
p1342
aS'Ingen faretegn observert'
p1343
aS'Fersk vindtransportert snoe'
p1344
aS'Fersk vindtransportert snoe'
p1345
aS'Fersk vindtransportert snoe'
p1346
aS'Ferske sprekker'
p1347
aS'Ingen faretegn observert'
p1348
aS'Fersk vindtransportert snoe'
p1349
aS'Rimkrystaller'
p1350
aS'Fersk vindtransportert snoe'
p1351
aS'Fersk vindtransportert snoe'
p1352
aS'Fersk vindtransportert snoe'
p1353
aS'Fersk vindtransportert snoe'
p1354
aS'Fersk vindtransportert snoe'
p1355
aS'Ferske skred'
p1356
aS'Ingen faretegn observert'
p1357
aS'Ingen faretegn observert'
p1358
aS'Ingen faretegn observert'
p1359
aS'Ingen faretegn observert'
p1360
aS'Ferske skred'
p1361
aS'Ingen faretegn observert'
p1362
aS'Droenn i snoeen'
p1363
aS'Rimkrystaller'
p1364
aS'Fersk vindtransportert snoe'
p1365
aS'Rimkrystaller'
p1366
aS'Ingen faretegn observert'
p1367
aS'Fersk vindtransportert snoe'
p1368
aS'Rimkrystaller'
p1369
aS'Droenn i snoeen'
p1370
aS'Ingen faretegn observert'
p1371
aS'Ingen faretegn observert'
p1372
aS'Fersk vindtransportert snoe'
p1373
aS'Ingen faretegn observert'
p1374
aS'Ferske sprekker'
p1375
aS'Ferske sprekker'
p1376
aS'Droenn i snoeen'
p1377
aS'Rimkrystaller'
p1378
aS'Ferske skred'
p1379
aS'Fersk vindtransportert snoe'
p1380
aS'Droenn i snoeen'
p1381
aS'Ingen faretegn observert'
p1382
aS'Ingen faretegn observert'
p1383
aS'Ingen faretegn observert'
p1384
aS'Ingen faretegn observert'
p1385
aS'Fersk vindtransportert snoe'
p1386
aS'Fersk vindtransportert snoe'
p1387
aS'Rimkrystaller'
p1388
aS'Fersk vindtransportert snoe'
p1389
aS'Ingen faretegn observert'
p1390
aS'Fersk vindtransportert snoe'
p1391
aS'Ingen faretegn observert'
p1392
aS'Fersk vindtransportert snoe'
p1393
aS'Ingen faretegn observert'
p1394
aS'Ingen faretegn observert'
p1395
aS'Ingen faretegn observert'
p1396
aS'Ingen faretegn observert'
p1397
aS'Ferske skred'
p1398
aS'Fersk vindtransportert snoe'
p1399
aS'Ferske skred'
p1400
aS'Fersk vindtransportert snoe'
p1401
aS'Fersk vindtransportert snoe'
p1402
aS'Fersk vindtransportert snoe'
p1403
aS'Ingen faretegn observert'
p1404
aS'Fersk vindtransportert snoe'
p1405
aS'Ferske skred'
p1406
aS'Rimkrystaller'
p1407
aS'Rimkrystaller'
p1408
aS'Rimkrystaller'
p1409
aS'Ferske skred'
p1410
aS'Droenn i snoeen'
p1411
aS'Ferske sprekker'
p1412
aS'Ingen faretegn observert'
p1413
aS'Ingen faretegn observert'
p1414
aS'Ingen faretegn observert'
p1415
aS'Ingen faretegn observert'
p1416
aS'Ingen faretegn observert'
p1417
aS'Fersk vindtransportert snoe'
p1418
aS'Rimkrystaller'
p1419
aS'Rimkrystaller'
p1420
aS'Rimkrystaller'
p1421
aS'Rimkrystaller'
p1422
aS'Ingen faretegn observert'
p1423
aS'Rimkrystaller'
p1424
aS'Rimkrystaller'
p1425
aS'Ingen faretegn observert'
p1426
aS'Ferske sprekker'
p1427
aS'Rimkrystaller'
p1428
aS'Rimkrystaller'
p1429
aS'Fersk vindtransportert snoe'
p1430
aS'Ingen faretegn observert'
p1431
aS'Fersk vindtransportert snoe'
p1432
aS'Ingen faretegn observert'
p1433
aS'Ingen faretegn observert'
p1434
aS'Ingen faretegn observert'
p1435
aS'Ferske skred'
p1436
aS'Rimkrystaller'
p1437
aS'Rimkrystaller'
p1438
aS'Rimkrystaller'
p1439
aS'Rimkrystaller'
p1440
aS'Rimkrystaller'
p1441
aS'Rimkrystaller'
p1442
aS'Rimkrystaller'
p1443
aS'Annet faretegn (spesifiser)'
p1444
aS'Rimkrystaller'
p1445
aS'Rimkrystaller'
p1446
aS'Rimkrystaller'
p1447
aS'Ferske sprekker'
p1448
aS'Ingen faretegn observert'
p1449
aS'Rimkrystaller'
p1450
aS'Rimkrystaller'
p1451
aS'Ingen faretegn observert'
p1452
aS'Ingen faretegn observert'
p1453
aS'Ingen faretegn observert'
p1454
aS'Ingen faretegn observert'
p1455
aS'Droenn i snoeen'
p1456
aS'Droenn i snoeen'
p1457
aS'Rimkrystaller'
p1458
aS'Fersk vindtransportert snoe'
p1459
aS'Ferske skred'
p1460
aS'Fersk vindtransportert snoe'
p1461
aS'Ferske sprekker'
p1462
aS'Ferske sprekker'
p1463
aS'Droenn i snoeen'
p1464
aS'Fersk vindtransportert snoe'
p1465
aS'Ingen faretegn observert'
p1466
aS'Droenn i snoeen'
p1467
aS'Rimkrystaller'
p1468
aS'Droenn i snoeen'
p1469
aS'Rimkrystaller'
p1470
aS'Fersk vindtransportert snoe'
p1471
aS'Stort snoefall'
p1472
aS'Stort snoefall'
p1473
aS'Ingen faretegn observert'
p1474
aS'Fersk vindtransportert snoe'
p1475
aS'Fersk vindtransportert snoe'
p1476
aS'Fersk vindtransportert snoe'
p1477
aS'Ingen faretegn observert'
p1478
aS'Ingen faretegn observert'
p1479
aS'Ingen faretegn observert'
p1480
aS'Ingen faretegn observert'
p1481
aS'Ferske skred'
p1482
aS'Ferske sprekker'
p1483
aS'Ferske skred'
p1484
aS'Droenn i snoeen'
p1485
aS'Ingen faretegn observert'
p1486
aS'Rimkrystaller'
p1487
aS'Ingen faretegn observert'
p1488
aS'Ingen faretegn observert'
p1489
aS'Stort snoefall'
p1490
aS'Fersk vindtransportert snoe'
p1491
aS'Ingen faretegn observert'
p1492
aS'Fersk vindtransportert snoe'
p1493
aS'Ingen faretegn observert'
p1494
aS'Stort snoefall'
p1495
aS'Fersk vindtransportert snoe'
p1496
aS'Ferske skred'
p1497
aS'Fersk vindtransportert snoe'
p1498
aS'Ingen faretegn observert'
p1499
aS'Ingen faretegn observert'
p1500
aS'Ferske sprekker'
p1501
aS'Ferske skred'
p1502
aS'Ferske sprekker'
p1503
aS'Ferske skred'
p1504
aS'Rask temperaturstigning'
p1505
aS'Fersk vindtransportert snoe'
p1506
aS'Droenn i snoeen'
p1507
aS'Ingen faretegn observert'
p1508
aS'Ingen faretegn observert'
p1509
aS'Rimkrystaller'
p1510
aS'Rimkrystaller'
p1511
aS'Droenn i snoeen'
p1512
aS'Ingen faretegn observert'
p1513
aS'Ferske sprekker'
p1514
aS'Ingen faretegn observert'
p1515
aS'Ingen faretegn observert'
p1516
aS'Rimkrystaller'
p1517
aS'Ferske sprekker'
p1518
aS'Ferske sprekker'
p1519
aS'Fersk vindtransportert snoe'
p1520
aS'Ferske sprekker'
p1521
aS'Rimkrystaller'
p1522
aS'Fersk vindtransportert snoe'
p1523
aS'Fersk vindtransportert snoe'
p1524
aS'Fersk vindtransportert snoe'
p1525
aS'Fersk vindtransportert snoe'
p1526
aS'Fersk vindtransportert snoe'
p1527
aS'Ingen faretegn observert'
p1528
aS'Droenn i snoeen'
p1529
aS'Fersk vindtransportert snoe'
p1530
aS'Fersk vindtransportert snoe'
p1531
aS'Rask temperaturstigning'
p1532
aS'Fersk vindtransportert snoe'
p1533
aS'Fersk vindtransportert snoe'
p1534
aS'Rimkrystaller'
p1535
aS'Stort snoefall'
p1536
aS'Fersk vindtransportert snoe'
p1537
aS'Ingen faretegn observert'
p1538
aS'Fersk vindtransportert snoe'
p1539
aS'Rimkrystaller'
p1540
aS'Ingen faretegn observert'
p1541
aS'Ingen faretegn observert'
p1542
aS'Ferske sprekker'
p1543
aS'Ingen faretegn observert'
p1544
aS'Ingen faretegn observert'
p1545
aS'Ingen faretegn observert'
p1546
aS'Ingen faretegn observert'
p1547
aS'Ferske sprekker'
p1548
aS'Fersk vindtransportert snoe'
p1549
aS'Ferske sprekker'
p1550
aS'Ferske sprekker'
p1551
aS'Droenn i snoeen'
p1552
aS'Fersk vindtransportert snoe'
p1553
aS'Ingen faretegn observert'
p1554
aS'Ingen faretegn observert'
p1555
aS'Fersk vindtransportert snoe'
p1556
aS'Fersk vindtransportert snoe'
p1557
aS'Droenn i snoeen'
p1558
aS'Ferske skred'
p1559
aS'Ingen faretegn observert'
p1560
aS'Ingen faretegn observert'
p1561
aS'Ingen faretegn observert'
p1562
aS'Fersk vindtransportert snoe'
p1563
aS'Ferske sprekker'
p1564
aS'Fersk vindtransportert snoe'
p1565
aS'Ingen faretegn observert'
p1566
aS'Ingen faretegn observert'
p1567
aS'Ingen faretegn observert'
p1568
aS'Fersk vindtransportert snoe'
p1569
aS'Ingen faretegn observert'
p1570
aS'Ingen faretegn observert'
p1571
aS'Ingen faretegn observert'
p1572
aS'Ingen faretegn observert'
p1573
aS'Fersk vindtransportert snoe'
p1574
aS'Fersk vindtransportert snoe'
p1575
aS'Fersk vindtransportert snoe'
p1576
aS'Ingen faretegn observert'
p1577
aS'Ingen faretegn observert'
p1578
aS'Ingen faretegn observert'
p1579
aS'Ferske sprekker'
p1580
aS'Ingen faretegn observert'
p1581
aS'Fersk vindtransportert snoe'
p1582
aS'Fersk vindtransportert snoe'
p1583
aS'Ferske sprekker'
p1584
aS'Fersk vindtransportert snoe'
p1585
aS'Ingen faretegn observert'
p1586
aS'Ingen faretegn observert'
p1587
aS'Ferske skred'
p1588
aS'Ingen faretegn observert'
p1589
aS'Ingen faretegn observert'
p1590
aS'Ingen faretegn observert'
p1591
aS'Droenn i snoeen'
p1592
aS'Rimkrystaller'
p1593
aS'Fersk vindtransportert snoe'
p1594
aS'Rimkrystaller'
p1595
aS'Fersk vindtransportert snoe'
p1596
aS'Ferske sprekker'
p1597
aS'Fersk vindtransportert snoe'
p1598
aS'Ferske skred'
p1599
aS'Ingen faretegn observert'
p1600
aS'Rimkrystaller'
p1601
aS'Rimkrystaller'
p1602
aS'Ingen faretegn observert'
p1603
aS'Ingen faretegn observert'
p1604
aS'Ingen faretegn observert'
p1605
aS'Annet faretegn (spesifiser)'
p1606
aS'Ingen faretegn observert'
p1607
aS'Ingen faretegn observert'
p1608
aS'Ingen faretegn observert'
p1609
aS'Rimkrystaller'
p1610
aS'Ingen faretegn observert'
p1611
aS'Ingen faretegn observert'
p1612
aS'Rimkrystaller'
p1613
aS'Fersk vindtransportert snoe'
p1614
aS'Ingen faretegn observert'
p1615
aS'Fersk vindtransportert snoe'
p1616
aS'Rask temperaturstigning'
p1617
aS'Droenn i snoeen'
p1618
aS'Droenn i snoeen'
p1619
aS'Ingen faretegn observert'
p1620
aS'Ingen faretegn observert'
p1621
aS'Ingen faretegn observert'
p1622
aS'Ingen faretegn observert'
p1623
aS'Ferske sprekker'
p1624
aS'Ingen faretegn observert'
p1625
aS'Fersk vindtransportert snoe'
p1626
aS'Ingen faretegn observert'
p1627
aS'Ingen faretegn observert'
p1628
aS'Rimkrystaller'
p1629
aS'Annet faretegn (spesifiser)'
p1630
aS'Fersk vindtransportert snoe'
p1631
aS'Ferske skred'
p1632
aS'Fersk vindtransportert snoe'
p1633
aS'Ingen faretegn observert'
p1634
aS'Ingen faretegn observert'
p1635
aS'Ingen faretegn observert'
p1636
aS'Ingen faretegn observert'
p1637
aS'Ingen faretegn observert'
p1638
aS'Fersk vindtransportert snoe'
p1639
aS'Ferske sprekker'
p1640
aS'Annet faretegn (spesifiser)'
p1641
aS'Rimkrystaller'
p1642
aS'Annet faretegn (spesifiser)'
p1643
aS'Ingen faretegn observert'
p1644
aS'Rimkrystaller'
p1645
aS'Ferske sprekker'
p1646
aS'Ingen faretegn observert'
p1647
aS'Droenn i snoeen'
p1648
aS'Ingen faretegn observert'
p1649
aS'Rimkrystaller'
p1650
aS'Rimkrystaller'
p1651
aS'Rimkrystaller'
p1652
aS'Rimkrystaller'
p1653
aS'Ingen faretegn observert'
p1654
aS'Ingen faretegn observert'
p1655
aS'Rimkrystaller'
p1656
aS'Rimkrystaller'
p1657
aS'Rimkrystaller'
p1658
aS'Ingen faretegn observert'
p1659
aS'Rimkrystaller'
p1660
aS'Rimkrystaller'
p1661
aS'Fersk vindtransportert snoe'
p1662
aS'Annet faretegn (spesifiser)'
p1663
aS'Rimkrystaller'
p1664
aS'Ingen faretegn observert'
p1665
aS'Ingen faretegn observert'
p1666
aS'Rimkrystaller'
p1667
aS'Rask temperaturstigning'
p1668
aS'Ingen faretegn observert'
p1669
aS'Ingen faretegn observert'
p1670
aS'Rimkrystaller'
p1671
aS'Ferske sprekker'
p1672
aS'Fersk vindtransportert snoe'
p1673
aS'Fersk vindtransportert snoe'
p1674
aS'Ingen faretegn observert'
p1675
aS'Ingen faretegn observert'
p1676
aS'Ingen faretegn observert'
p1677
aS'Ingen faretegn observert'
p1678
aS'Ingen faretegn observert'
p1679
aS'Ingen faretegn observert'
p1680
aS'Ingen faretegn observert'
p1681
aS'Rimkrystaller'
p1682
aS'Annet faretegn (spesifiser)'
p1683
aS'Rimkrystaller'
p1684
aS'Droenn i snoeen'
p1685
aS'Rimkrystaller'
p1686
aS'Ingen faretegn observert'
p1687
aS'Rimkrystaller'
p1688
aS'Rimkrystaller'
p1689
aS'Ferske skred'
p1690
aS'Ingen faretegn observert'
p1691
aS'Rimkrystaller'
p1692
aS'Mye vann i snoeen'
p1693
aS'Ingen faretegn observert'
p1694
aS'Ferske sprekker'
p1695
aS'Ingen faretegn observert'
p1696
aS'Ingen faretegn observert'
p1697
aS'Ingen faretegn observert'
p1698
aS'Rimkrystaller'
p1699
aS'Droenn i snoeen'
p1700
aS'Droenn i snoeen'
p1701
aS'Ingen faretegn observert'
p1702
aS'Ferske skred'
p1703
aS'Rimkrystaller'
p1704
aS'Rimkrystaller'
p1705
aS'Ingen faretegn observert'
p1706
aS'Rimkrystaller'
p1707
aS'Rask temperaturstigning'
p1708
aS'Rimkrystaller'
p1709
aS'Mye vann i snoeen'
p1710
aS'Ferske skred'
p1711
aS'Rimkrystaller'
p1712
aS'Ingen faretegn observert'
p1713
aS'Droenn i snoeen'
p1714
aS'Rimkrystaller'
p1715
aS'Rimkrystaller'
p1716
aS'Rimkrystaller'
p1717
aS'Droenn i snoeen'
p1718
aS'Droenn i snoeen'
p1719
aS'Ferske sprekker'
p1720
aS'Annet faretegn (spesifiser)'
p1721
aS'Ferske skred'
p1722
aS'Ferske skred'
p1723
aS'Ikke gitt'
p1724
aS'Ikke gitt'
p1725
aS'Rask temperaturstigning'
p1726
aS'Ferske skred'
p1727
aS'Ferske skred'
p1728
aS'Ingen faretegn observert'
p1729
aS'Annet faretegn (spesifiser)'
p1730
aS'Rimkrystaller'
p1731
aS'Fersk vindtransportert snoe'
p1732
aS'Ingen faretegn observert'
p1733
aS'Ingen faretegn observert'
p1734
aS'Ingen faretegn observert'
p1735
aS'Rask temperaturstigning'
p1736
aS'Rask temperaturstigning'
p1737
aS'Fersk vindtransportert snoe'
p1738
aS'Rask temperaturstigning'
p1739
aS'Ferske skred'
p1740
aS'Rimkrystaller'
p1741
aS'Ingen faretegn observert'
p1742
aS'Ingen faretegn observert'
p1743
aS'Mye vann i snoeen'
p1744
aS'Rimkrystaller'
p1745
aS'Annet faretegn (spesifiser)'
p1746
aS'Rask temperaturstigning'
p1747
aS'Rask temperaturstigning'
p1748
aS'Rask temperaturstigning'
p1749
aS'Ingen faretegn observert'
p1750
aS'Mye vann i snoeen'
p1751
aS'Ingen faretegn observert'
p1752
aS'Mye vann i snoeen'
p1753
aS'Mye vann i snoeen'
p1754
aS'Rask temperaturstigning'
p1755
aS'Mye vann i snoeen'
p1756
aS'Ingen faretegn observert'
p1757
aS'Ingen faretegn observert'
p1758
aS'Mye vann i snoeen'
p1759
aS'Mye vann i snoeen'
p1760
aS'Mye vann i snoeen'
p1761
aS'Mye vann i snoeen'
p1762
aS'Ferske skred'
p1763
aS'Droenn i snoeen'
p1764
aS'Mye vann i snoeen'
p1765
aS'Ingen faretegn observert'
p1766
aS'Ingen faretegn observert'
p1767
aS'Mye vann i snoeen'
p1768
aS'Annet faretegn (spesifiser)'
p1769
aS'Ferske skred'
p1770
aS'Rask temperaturstigning'
p1771
aS'Ingen faretegn observert'
p1772
aS'Ingen faretegn observert'
p1773
aS'Ferske sprekker'
p1774
aS'Rask temperaturstigning'
p1775
aS'Rask temperaturstigning'
p1776
aS'Rask temperaturstigning'
p1777
aS'Ferske skred'
p1778
aS'Rask temperaturstigning'
p1779
aS'Mye vann i snoeen'
p1780
aS'Ferske sprekker'
p1781
aS'Ferske sprekker'
p1782
aS'Rask temperaturstigning'
p1783
aS'Ferske skred'
p1784
aS'Ferske skred'
p1785
aS'Fersk vindtransportert snoe'
p1786
aS'Ingen faretegn observert'
p1787
aS'Ingen faretegn observert'
p1788
aS'Fersk vindtransportert snoe'
p1789
aS'Ingen faretegn observert'
p1790
aS'Rimkrystaller'
p1791
aS'Ingen faretegn observert'
p1792
aS'Mye vann i snoeen'
p1793
aS'Ferske skred'
p1794
aS'Ingen faretegn observert'
p1795
aS'Rask temperaturstigning'
p1796
aS'Mye vann i snoeen'
p1797
aS'Mye vann i snoeen'
p1798
aS'Ferske sprekker'
p1799
aS'Ferske skred'
p1800
aS'Fersk vindtransportert snoe'
p1801
aS'Ingen faretegn observert'
p1802
aS'Ingen faretegn observert'
p1803
aS'Ferske skred'
p1804
aS'Annet faretegn (spesifiser)'
p1805
aS'Ingen faretegn observert'
p1806
aS'Ingen faretegn observert'
p1807
aS'Ferske skred'
p1808
aS'Mye vann i snoeen'
p1809
aS'Ferske sprekker'
p1810
aS'Mye vann i snoeen'
p1811
aS'Annet faretegn (spesifiser)'
p1812
aS'Rask temperaturstigning'
p1813
aS'Mye vann i snoeen'
p1814
aS'Ingen faretegn observert'
p1815
aS'Fersk vindtransportert snoe'
p1816
aS'Fersk vindtransportert snoe'
p1817
aS'Fersk vindtransportert snoe'
p1818
aS'Fersk vindtransportert snoe'
p1819
aS'Fersk vindtransportert snoe'
p1820
aS'Fersk vindtransportert snoe'
p1821
aS'Ingen faretegn observert'
p1822
aS'Ingen faretegn observert'
p1823
aS'Annet faretegn (spesifiser)'
p1824
aS'Ferske skred'
p1825
aS'Mye vann i snoeen'
p1826
aS'Ingen faretegn observert'
p1827
aS'Ingen faretegn observert'
p1828
aS'Ingen faretegn observert'
p1829
aS'Ingen faretegn observert'
p1830
aS'Ferske skred'
p1831
aS'Ingen faretegn observert'
p1832
aS'Ingen faretegn observert'
p1833
aS'Mye vann i snoeen'
p1834
aS'Fersk vindtransportert snoe'
p1835
aS'Annet faretegn (spesifiser)'
p1836
aS'Ingen faretegn observert'
p1837
aS'Ingen faretegn observert'
p1838
aS'Fersk vindtransportert snoe'
p1839
aS'Ferske skred'
p1840
aS'Ferske skred'
p1841
aS'Ingen faretegn observert'
p1842
aS'Fersk vindtransportert snoe'
p1843
aS'Ferske skred'
p1844
aS'Ingen faretegn observert'
p1845
aS'Ingen faretegn observert'
p1846
aS'Stort snoefall'
p1847
aS'Ferske skred'
p1848
aS'Ingen faretegn observert'
p1849
aS'Ingen faretegn observert'
p1850
aS'Fersk vindtransportert snoe'
p1851
aS'Ingen faretegn observert'
p1852
aS'Rimkrystaller'
p1853
aS'Ingen faretegn observert'
p1854
aS'Stort snoefall'
p1855
aS'Ingen faretegn observert'
p1856
aS'Ingen faretegn observert'
p1857
aS'Mye vann i snoeen'
p1858
aS'Mye vann i snoeen'
p1859
aS'Rimkrystaller'
p1860
aS'Ingen faretegn observert'
p1861
aS'Rimkrystaller'
p1862
aS'Fersk vindtransportert snoe'
p1863
aS'Fersk vindtransportert snoe'
p1864
aS'Mye vann i snoeen'
p1865
aS'Fersk vindtransportert snoe'
p1866
aS'Fersk vindtransportert snoe'
p1867
aS'Mye vann i snoeen'
p1868
aS'Mye vann i snoeen'
p1869
aS'Ingen faretegn observert'
p1870
aS'Ingen faretegn observert'
p1871
aS'Ingen faretegn observert'
p1872
aS'Rask temperaturstigning'
p1873
aS'Ingen faretegn observert'
p1874
aS'Ingen faretegn observert'
p1875
aS'Ingen faretegn observert'
p1876
aS'Ingen faretegn observert'
p1877
aS'Fersk vindtransportert snoe'
p1878
aS'Ingen faretegn observert'
p1879
aS'Rimkrystaller'
p1880
aS'Ingen faretegn observert'
p1881
aS'Ingen faretegn observert'
p1882
aS'Ingen faretegn observert'
p1883
aS'Ingen faretegn observert'
p1884
aS'Ferske skred'
p1885
aS'Ingen faretegn observert'
p1886
aS'Ingen faretegn observert'
p1887
aS'Ingen faretegn observert'
p1888
aS'Rimkrystaller'
p1889
aS'Ferske skred'
p1890
aS'Ingen faretegn observert'
p1891
aS'Ferske sprekker'
p1892
aS'Ingen faretegn observert'
p1893
aS'Ingen faretegn observert'
p1894
aS'Ingen faretegn observert'
p1895
aS'Mye vann i snoeen'
p1896
aS'Mye vann i snoeen'
p1897
aS'Fersk vindtransportert snoe'
p1898
aS'Ingen faretegn observert'
p1899
aS'Rask temperaturstigning'
p1900
aS'Mye vann i snoeen'
p1901
aS'Ferske skred'
p1902
aS'Mye vann i snoeen'
p1903
aS'Ingen faretegn observert'
p1904
aS'Ingen faretegn observert'
p1905
aS'Ingen faretegn observert'
p1906
aS'Fersk vindtransportert snoe'
p1907
aS'Ferske sprekker'
p1908
aS'Ingen faretegn observert'
p1909
aS'Ingen faretegn observert'
p1910
aS'Fersk vindtransportert snoe'
p1911
aS'Fersk vindtransportert snoe'
p1912
aS'Rask temperaturstigning'
p1913
aS'Fersk vindtransportert snoe'
p1914
aS'Ferske skred'
p1915
aS'Ferske sprekker'
p1916
aS'Ingen faretegn observert'
p1917
aS'Mye vann i snoeen'
p1918
aS'Rimkrystaller'
p1919
aS'Mye vann i snoeen'
p1920
aS'Ingen faretegn observert'
p1921
aS'Rimkrystaller'
p1922
aS'Rimkrystaller'
p1923
aS'Fersk vindtransportert snoe'
p1924
aS'Ingen faretegn observert'
p1925
aS'Ferske skred'
p1926
aS'Mye vann i snoeen'
p1927
aS'Rimkrystaller'
p1928
aS'Fersk vindtransportert snoe'
p1929
aS'Rimkrystaller'
p1930
aS'Rimkrystaller'
p1931
aS'Stort snoefall'
p1932
aS'Ingen faretegn observert'
p1933
aS'Ingen faretegn observert'
p1934
aS'Ingen faretegn observert'
p1935
aS'Ferske skred'
p1936
aS'Rimkrystaller'
p1937
aS'Fersk vindtransportert snoe'
p1938
aS'Mye vann i snoeen'
p1939
aS'Ikke gitt'
p1940
aS'Rask temperaturstigning'
p1941
aS'Stort snoefall'
p1942
aS'Rimkrystaller'
p1943
aS'Ingen faretegn observert'
p1944
aS'Ingen faretegn observert'
p1945
aS'Ingen faretegn observert'
p1946
aS'Stort snoefall'
p1947
aS'Ferske skred'
p1948
aS'Fersk vindtransportert snoe'
p1949
aS'Ingen faretegn observert'
p1950
aS'Ferske skred'
p1951
aS'Fersk vindtransportert snoe'
p1952
aS'Ferske skred'
p1953
aS'Fersk vindtransportert snoe'
p1954
aS'Ferske skred'
p1955
aS'Ingen faretegn observert'
p1956
aS'Fersk vindtransportert snoe'
p1957
aS'Ingen faretegn observert'
p1958
aS'Mye vann i snoeen'
p1959
aS'Ingen faretegn observert'
p1960
aS'Rask temperaturstigning'
p1961
aS'Ingen faretegn observert'
p1962
aS'Ingen faretegn observert'
p1963
aS'Ingen faretegn observert'
p1964
aS'Rask temperaturstigning'
p1965
aS'Ingen faretegn observert'
p1966
aS'Rimkrystaller'
p1967
aS'Ingen faretegn observert'
p1968
aS'Fersk vindtransportert snoe'
p1969
aS'Ferske skred'
p1970
aS'Droenn i snoeen'
p1971
aS'Ferske sprekker'
p1972
aS'Ingen faretegn observert'
p1973
aS'Fersk vindtransportert snoe'
p1974
aS'Ingen faretegn observert'
p1975
aS'Ingen faretegn observert'
p1976
aS'Fersk vindtransportert snoe'
p1977
aS'Ferske skred'
p1978
aS'Ingen faretegn observert'
p1979
aS'Fersk vindtransportert snoe'
p1980
aS'Ferske sprekker'
p1981
aS'Fersk vindtransportert snoe'
p1982
aS'Fersk vindtransportert snoe'
p1983
aS'Ferske sprekker'
p1984
aS'Ferske sprekker'
p1985
aS'Mye vann i snoeen'
p1986
aS'Rask temperaturstigning'
p1987
aS'Ferske skred'
p1988
aS'Fersk vindtransportert snoe'
p1989
aS'Ingen faretegn observert'
p1990
aS'Ingen faretegn observert'
p1991
aS'Ingen faretegn observert'
p1992
aS'Rimkrystaller'
p1993
aS'Mye vann i snoeen'
p1994
aS'Fersk vindtransportert snoe'
p1995
aS'Fersk vindtransportert snoe'
p1996
aS'Rask temperaturstigning'
p1997
aS'Fersk vindtransportert snoe'
p1998
aS'Fersk vindtransportert snoe'
p1999
aS'Ferske sprekker'
p2000
aS'Fersk vindtransportert snoe'
p2001
aS'Fersk vindtransportert snoe'
p2002
aS'Fersk vindtransportert snoe'
p2003
aS'Mye vann i snoeen'
p2004
aS'Ferske skred'
p2005
aS'Fersk vindtransportert snoe'
p2006
aS'Fersk vindtransportert snoe'
p2007
aS'Rimkrystaller'
p2008
aS'Ingen faretegn observert'
p2009
aS'Mye vann i snoeen'
p2010
aS'Ingen faretegn observert'
p2011
aS'Fersk vindtransportert snoe'
p2012
aS'Fersk vindtransportert snoe'
p2013
aS'Fersk vindtransportert snoe'
p2014
aS'Fersk vindtransportert snoe'
p2015
aS'Ferske sprekker'
p2016
aS'Fersk vindtransportert snoe'
p2017
aS'Rimkrystaller'
p2018
aS'Fersk vindtransportert snoe'
p2019
aS'Fersk vindtransportert snoe'
p2020
aS'Ferske skred'
p2021
aS'Ingen faretegn observert'
p2022
aS'Fersk vindtransportert snoe'
p2023
aS'Ingen faretegn observert'
p2024
aS'Fersk vindtransportert snoe'
p2025
aS'Fersk vindtransportert snoe'
p2026
aS'Ferske skred'
p2027
aS'Mye vann i snoeen'
p2028
aS'Mye vann i snoeen'
p2029
aS'Ingen faretegn observert'
p2030
aS'Ingen faretegn observert'
p2031
aS'Fersk vindtransportert snoe'
p2032
aS'Fersk vindtransportert snoe'
p2033
aS'Mye vann i snoeen'
p2034
aS'Mye vann i snoeen'
p2035
aS'Annet faretegn (spesifiser)'
p2036
aS'Fersk vindtransportert snoe'
p2037
aS'Mye vann i snoeen'
p2038
aS'Fersk vindtransportert snoe'
p2039
aS'Fersk vindtransportert snoe'
p2040
aS'Ingen faretegn observert'
p2041
aS'Ferske skred'
p2042
aS'Ingen faretegn observert'
p2043
aS'Ingen faretegn observert'
p2044
aS'Fersk vindtransportert snoe'
p2045
aS'Ingen faretegn observert'
p2046
aS'Ingen faretegn observert'
p2047
aS'Ingen faretegn observert'
p2048
aS'Fersk vindtransportert snoe'
p2049
aS'Ferske skred'
p2050
aS'Fersk vindtransportert snoe'
p2051
aS'Mye vann i snoeen'
p2052
aS'Fersk vindtransportert snoe'
p2053
aS'Ingen faretegn observert'
p2054
aS'Fersk vindtransportert snoe'
p2055
aS'Ingen faretegn observert'
p2056
aS'Ingen faretegn observert'
p2057
aS'Ingen faretegn observert'
p2058
aS'Ingen faretegn observert'
p2059
aS'Ferske skred'
p2060
aS'Ingen faretegn observert'
p2061
aS'Ferske skred'
p2062
aS'Ferske skred'
p2063
aS'Ingen faretegn observert'
p2064
aS'Ingen faretegn observert'
p2065
aS'Ingen faretegn observert'
p2066
aS'Ingen faretegn observert'
p2067
aS'Ingen faretegn observert'
p2068
aS'Ingen faretegn observert'
p2069
aS'Fersk vindtransportert snoe'
p2070
aS'Ingen faretegn observert'
p2071
aS'Ferske skred'
p2072
aS'Ingen faretegn observert'
p2073
aS'Fersk vindtransportert snoe'
p2074
aS'Stort snoefall'
p2075
aS'Ferske sprekker'
p2076
aS'Fersk vindtransportert snoe'
p2077
aS'Ingen faretegn observert'
p2078
aS'Ferske skred'
p2079
aS'Ferske sprekker'
p2080
aS'Fersk vindtransportert snoe'
p2081
aS'Ingen faretegn observert'
p2082
aS'Fersk vindtransportert snoe'
p2083
aS'Ferske skred'
p2084
aS'Ingen faretegn observert'
p2085
aS'Fersk vindtransportert snoe'
p2086
aS'Fersk vindtransportert snoe'
p2087
aS'Ingen faretegn observert'
p2088
aS'Ingen faretegn observert'
p2089
aS'Ingen faretegn observert'
p2090
aS'Ingen faretegn observert'
p2091
aS'Ingen faretegn observert'
p2092
aS'Ingen faretegn observert'
p2093
aS'Ingen faretegn observert'
p2094
aS'Fersk vindtransportert snoe'
p2095
aS'Ferske skred'
p2096
aS'Ferske skred'
p2097
aS'Fersk vindtransportert snoe'
p2098
aS'Ferske sprekker'
p2099
aS'Fersk vindtransportert snoe'
p2100
aS'Stort snoefall'
p2101
aS'Fersk vindtransportert snoe'
p2102
aS'Fersk vindtransportert snoe'
p2103
aS'Fersk vindtransportert snoe'
p2104
aS'Ferske sprekker'
p2105
aS'Stort snoefall'
p2106
aS'Ferske skred'
p2107
aS'Fersk vindtransportert snoe'
p2108
aS'Ferske skred'
p2109
aS'Ferske sprekker'
p2110
aS'Fersk vindtransportert snoe'
p2111
aS'Ingen faretegn observert'
p2112
aS'Fersk vindtransportert snoe'
p2113
aS'Fersk vindtransportert snoe'
p2114
aS'Ingen faretegn observert'
p2115
aS'Rask temperaturstigning'
p2116
aS'Fersk vindtransportert snoe'
p2117
aS'Ingen faretegn observert'
p2118
aS'Ingen faretegn observert'
p2119
aS'Ingen faretegn observert'
p2120
aS'Fersk vindtransportert snoe'
p2121
aS'Mye vann i snoeen'
p2122
aS'Ferske skred'
p2123
aS'Ferske skred'
p2124
aS'Fersk vindtransportert snoe'
p2125
aS'Fersk vindtransportert snoe'
p2126
aS'Ingen faretegn observert'
p2127
aS'Ingen faretegn observert'
p2128
aS'Ingen faretegn observert'
p2129
aS'Droenn i snoeen'
p2130
aS'Ingen faretegn observert'
p2131
aS'Fersk vindtransportert snoe'
p2132
aS'Mye vann i snoeen'
p2133
aS'Ingen faretegn observert'
p2134
aS'Ingen faretegn observert'
p2135
aS'Ingen faretegn observert'
p2136
aS'Rask temperaturstigning'
p2137
aS'Ingen faretegn observert'
p2138
aS'Ferske skred'
p2139
aS'Ingen faretegn observert'
p2140
aS'Ingen faretegn observert'
p2141
aS'Annet faretegn (spesifiser)'
p2142
aS'Ingen faretegn observert'
p2143
aS'Ingen faretegn observert'
p2144
aS'Mye vann i snoeen'
p2145
aS'Ingen faretegn observert'
p2146
aS'Ingen faretegn observert'
p2147
aS'Rimkrystaller'
p2148
aS'Ingen faretegn observert'
p2149
aS'Fersk vindtransportert snoe'
p2150
aS'Ingen faretegn observert'
p2151
aS'Ingen faretegn observert'
p2152
aS'Ingen faretegn observert'
p2153
aS'Mye vann i snoeen'
p2154
aS'Fersk vindtransportert snoe'
p2155
aS'Ingen faretegn observert'
p2156
aS'Annet faretegn (spesifiser)'
p2157
aS'Ferske skred'
p2158
aS'Droenn i snoeen'
p2159
aS'Fersk vindtransportert snoe'
p2160
aS'Ingen faretegn observert'
p2161
aS'Ingen faretegn observert'
p2162
aS'Ingen faretegn observert'
p2163
aS'Ingen faretegn observert'
p2164
aS'Ingen faretegn observert'
p2165
aS'Ingen faretegn observert'
p2166
aS'Ingen faretegn observert'
p2167
aS'Ingen faretegn observert'
p2168
aS'Ingen faretegn observert'
p2169
aS'Fersk vindtransportert snoe'
p2170
aS'Ingen faretegn observert'
p2171
aS'Annet faretegn (spesifiser)'
p2172
aS'Rimkrystaller'
p2173
aS'Ingen faretegn observert'
p2174
aS'Ingen faretegn observert'
p2175
aS'Ingen faretegn observert'
p2176
aS'Ingen faretegn observert'
p2177
aS'Ingen faretegn observert'
p2178
aS'Ingen faretegn observert'
p2179
aS'Ingen faretegn observert'
p2180
aS'Ferske skred'
p2181
aS'Ingen faretegn observert'
p2182
aS'Ingen faretegn observert'
p2183
aS'Rimkrystaller'
p2184
aS'Rimkrystaller'
p2185
aS'Rimkrystaller'
p2186
aS'Annet faretegn (spesifiser)'
p2187
aS'Rimkrystaller'
p2188
aS'Rimkrystaller'
p2189
aS'Ingen faretegn observert'
p2190
aS'Ingen faretegn observert'
p2191
aS'Ingen faretegn observert'
p2192
aS'Mye vann i snoeen'
p2193
aS'Ingen faretegn observert'
p2194
aS'Ingen faretegn observert'
p2195
aS'Ferske skred'
p2196
aS'Ferske sprekker'
p2197
aS'Rimkrystaller'
p2198
aS'Ingen faretegn observert'
p2199
aS'Mye vann i snoeen'
p2200
aS'Ferske skred'
p2201
aS'Ingen faretegn observert'
p2202
aS'Ingen faretegn observert'
p2203
aS'Fersk vindtransportert snoe'
p2204
aS'Fersk vindtransportert snoe'
p2205
aS'Ingen faretegn observert'
p2206
aS'Ingen faretegn observert'
p2207
aS'Ingen faretegn observert'
p2208
aS'Ingen faretegn observert'
p2209
aS'Ingen faretegn observert'
p2210
aS'Fersk vindtransportert snoe'
p2211
aS'Stort snoefall'
p2212
aS'Fersk vindtransportert snoe'
p2213
aS'Ingen faretegn observert'
p2214
aS'Fersk vindtransportert snoe'
p2215
aS'Stort snoefall'
p2216
aS'Ferske sprekker'
p2217
aS'Fersk vindtransportert snoe'
p2218
aS'Fersk vindtransportert snoe'
p2219
aS'Ingen faretegn observert'
p2220
aS'Fersk vindtransportert snoe'
p2221
aS'Fersk vindtransportert snoe'
p2222
aS'Ferske skred'
p2223
aS'Ingen faretegn observert'
p2224
aS'Ingen faretegn observert'
p2225
aS'Ingen faretegn observert'
p2226
aS'Ingen faretegn observert'
p2227
aS'Rimkrystaller'
p2228
aS'Ingen faretegn observert'
p2229
aS'Fersk vindtransportert snoe'
p2230
aS'Fersk vindtransportert snoe'
p2231
aS'Fersk vindtransportert snoe'
p2232
aS'Fersk vindtransportert snoe'
p2233
aS'Ingen faretegn observert'
p2234
aS'Ingen faretegn observert'
p2235
aS'Rimkrystaller'
p2236
aS'Ferske skred'
p2237
aS'Fersk vindtransportert snoe'
p2238
aS'Fersk vindtransportert snoe'
p2239
aS'Droenn i snoeen'
p2240
aS'Fersk vindtransportert snoe'
p2241
aS'Fersk vindtransportert snoe'
p2242
aS'Ingen faretegn observert'
p2243
aS'Ferske skred'
p2244
aS'Droenn i snoeen'
p2245
aS'Ferske sprekker'
p2246
aS'Fersk vindtransportert snoe'
p2247
aS'Fersk vindtransportert snoe'
p2248
aS'Rimkrystaller'
p2249
aS'Rimkrystaller'
p2250
aS'Rimkrystaller'
p2251
aS'Ingen faretegn observert'
p2252
aS'Ingen faretegn observert'
p2253
aS'Fersk vindtransportert snoe'
p2254
aS'Ingen faretegn observert'
p2255
aS'Fersk vindtransportert snoe'
p2256
aS'Droenn i snoeen'
p2257
aS'Ingen faretegn observert'
p2258
aS'Ingen faretegn observert'
p2259
aS'Ferske sprekker'
p2260
aS'Ferske skred'
p2261
aS'Ingen faretegn observert'
p2262
aS'Ingen faretegn observert'
p2263
aS'Droenn i snoeen'
p2264
aS'Ingen faretegn observert'
p2265
aS'Fersk vindtransportert snoe'
p2266
aS'Ferske sprekker'
p2267
aS'Ingen faretegn observert'
p2268
aS'Ingen faretegn observert'
p2269
aS'Ingen faretegn observert'
p2270
aS'Ingen faretegn observert'
p2271
aS'Ingen faretegn observert'
p2272
aS'Annet faretegn (spesifiser)'
p2273
aS'Annet faretegn (spesifiser)'
p2274
aS'Ingen faretegn observert'
p2275
aS'Ingen faretegn observert'
p2276
aS'Ingen faretegn observert'
p2277
aS'Droenn i snoeen'
p2278
aS'Ferske sprekker'
p2279
aS'Ferske skred'
p2280
aS'Ingen faretegn observert'
p2281
aS'Ingen faretegn observert'
p2282
aS'Ingen faretegn observert'
p2283
aS'Ingen faretegn observert'
p2284
aS'Ingen faretegn observert'
p2285
aS'Ingen faretegn observert'
p2286
aS'Rimkrystaller'
p2287
aS'Rimkrystaller'
p2288
aS'Fersk vindtransportert snoe'
p2289
aS'Ingen faretegn observert'
p2290
aS'Droenn i snoeen'
p2291
aS'Ingen faretegn observert'
p2292
aS'Ingen faretegn observert'
p2293
aS'Ferske skred'
p2294
aS'Ingen faretegn observert'
p2295
aS'Ingen faretegn observert'
p2296
aS'Rimkrystaller'
p2297
aS'Ferske skred'
p2298
aS'Fersk vindtransportert snoe'
p2299
aS'Ingen faretegn observert'
p2300
aS'Ingen faretegn observert'
p2301
aS'Ferske skred'
p2302
aS'Annet faretegn (spesifiser)'
p2303
aS'Annet faretegn (spesifiser)'
p2304
aS'Fersk vindtransportert snoe'
p2305
aS'Fersk vindtransportert snoe'
p2306
aS'Fersk vindtransportert snoe'
p2307
aS'Fersk vindtransportert snoe'
p2308
aS'Ingen faretegn observert'
p2309
aS'Ingen faretegn observert'
p2310
aS'Fersk vindtransportert snoe'
p2311
aS'Fersk vindtransportert snoe'
p2312
aS'Ingen faretegn observert'
p2313
aS'Fersk vindtransportert snoe'
p2314
aS'Fersk vindtransportert snoe'
p2315
aS'Fersk vindtransportert snoe'
p2316
aS'Fersk vindtransportert snoe'
p2317
aS'Ferske skred'
p2318
aS'Ferske sprekker'
p2319
aS'Rimkrystaller'
p2320
aS'Ingen faretegn observert'
p2321
aS'Rimkrystaller'
p2322
aS'Ikke gitt'
p2323
aS'Ingen faretegn observert'
p2324
aS'Ingen faretegn observert'
p2325
aS'Rimkrystaller'
p2326
aS'Fersk vindtransportert snoe'
p2327
aS'Ingen faretegn observert'
p2328
aS'Droenn i snoeen'
p2329
aS'Ingen faretegn observert'
p2330
aS'Ferske sprekker'
p2331
aS'Fersk vindtransportert snoe'
p2332
aS'Ferske skred'
p2333
aS'Ingen faretegn observert'
p2334
aS'Ferske skred'
p2335
aS'Fersk vindtransportert snoe'
p2336
aS'Droenn i snoeen'
p2337
aS'Ferske sprekker'
p2338
aS'Fersk vindtransportert snoe'
p2339
aS'Ingen faretegn observert'
p2340
aS'Ingen faretegn observert'
p2341
aS'Ingen faretegn observert'
p2342
aS'Ingen faretegn observert'
p2343
aS'Ingen faretegn observert'
p2344
aS'Ingen faretegn observert'
p2345
aS'Ingen faretegn observert'
p2346
aS'Rimkrystaller'
p2347
aS'Fersk vindtransportert snoe'
p2348
aS'Droenn i snoeen'
p2349
aS'Fersk vindtransportert snoe'
p2350
aS'Rimkrystaller'
p2351
aS'Droenn i snoeen'
p2352
aS'Droenn i snoeen'
p2353
aS'Fersk vindtransportert snoe'
p2354
aS'Ingen faretegn observert'
p2355
aS'Ingen faretegn observert'
p2356
aS'Droenn i snoeen'
p2357
aS'Fersk vindtransportert snoe'
p2358
aS'Ingen faretegn observert'
p2359
aS'Ingen faretegn observert'
p2360
aS'Ferske skred'
p2361
aS'Ingen faretegn observert'
p2362
aS'Ingen faretegn observert'
p2363
aS'Ferske sprekker'
p2364
aS'Fersk vindtransportert snoe'
p2365
aS'Droenn i snoeen'
p2366
aS'Droenn i snoeen'
p2367
aS'Rimkrystaller'
p2368
aS'Ingen faretegn observert'
p2369
aS'Rimkrystaller'
p2370
aS'Droenn i snoeen'
p2371
aS'Ingen faretegn observert'
p2372
aS'Fersk vindtransportert snoe'
p2373
aS'Annet faretegn (spesifiser)'
p2374
aS'Droenn i snoeen'
p2375
aS'Ingen faretegn observert'
p2376
aS'Fersk vindtransportert snoe'
p2377
aS'Rimkrystaller'
p2378
aS'Ikke gitt'
p2379
aS'Droenn i snoeen'
p2380
aS'Ferske sprekker'
p2381
aS'Fersk vindtransportert snoe'
p2382
aS'Fersk vindtransportert snoe'
p2383
aS'Fersk vindtransportert snoe'
p2384
aS'Ingen faretegn observert'
p2385
aS'Ingen faretegn observert'
p2386
aS'Ingen faretegn observert'
p2387
aS'Ferske skred'
p2388
aS'Fersk vindtransportert snoe'
p2389
aS'Rask temperaturstigning'
p2390
aS'Rimkrystaller'
p2391
aS'Rimkrystaller'
p2392
aS'Ingen faretegn observert'
p2393
aS'Ferske skred'
p2394
aS'Ingen faretegn observert'
p2395
aS'Ingen faretegn observert'
p2396
aS'Rimkrystaller'
p2397
aS'Fersk vindtransportert snoe'
p2398
aS'Fersk vindtransportert snoe'
p2399
aS'Droenn i snoeen'
p2400
aS'Rimkrystaller'
p2401
aS'Ingen faretegn observert'
p2402
aS'Mye vann i snoeen'
p2403
aS'Ferske skred'
p2404
aS'Ferske skred'
p2405
aS'Ferske skred'
p2406
aS'Ingen faretegn observert'
p2407
aS'Ferske skred'
p2408
aS'Ferske skred'
p2409
aS'Annet faretegn (spesifiser)'
p2410
aS'Ferske skred'
p2411
aS'Ingen faretegn observert'
p2412
aS'Droenn i snoeen'
p2413
aS'Ferske sprekker'
p2414
aS'Ingen faretegn observert'
p2415
aS'Rask temperaturstigning'
p2416
aS'Droenn i snoeen'
p2417
aS'Ferske sprekker'
p2418
aS'Ikke gitt'
p2419
aS'Fersk vindtransportert snoe'
p2420
aS'Droenn i snoeen'
p2421
aS'Ingen faretegn observert'
p2422
aS'Ferske skred'
p2423
aS'Mye vann i snoeen'
p2424
aS'Droenn i snoeen'
p2425
aS'Mye vann i snoeen'
p2426
aS'Rask temperaturstigning'
p2427
aS'Mye vann i snoeen'
p2428
aS'Rask temperaturstigning'
p2429
aS'Ingen faretegn observert'
p2430
aS'Rimkrystaller'
p2431
aS'Fersk vindtransportert snoe'
p2432
aS'Fersk vindtransportert snoe'
p2433
aS'Ingen faretegn observert'
p2434
aS'Ingen faretegn observert'
p2435
aS'Ingen faretegn observert'
p2436
aS'Ingen faretegn observert'
p2437
aS'Ferske skred'
p2438
aS'Mye vann i snoeen'
p2439
aS'Droenn i snoeen'
p2440
aS'Ferske skred'
p2441
aS'Ferske skred'
p2442
aS'Mye vann i snoeen'
p2443
aS'Ferske skred'
p2444
aS'Droenn i snoeen'
p2445
aS'Fersk vindtransportert snoe'
p2446
aS'Ingen faretegn observert'
p2447
aS'Ferske skred'
p2448
aS'Ingen faretegn observert'
p2449
aS'Mye vann i snoeen'
p2450
aS'Ingen faretegn observert'
p2451
aS'Ingen faretegn observert'
p2452
aS'Ingen faretegn observert'
p2453
aS'Annet faretegn (spesifiser)'
p2454
aS'Droenn i snoeen'
p2455
aS'Droenn i snoeen'
p2456
aS'Droenn i snoeen'
p2457
aS'Ingen faretegn observert'
p2458
aS'Mye vann i snoeen'
p2459
aS'Ingen faretegn observert'
p2460
aS'Ingen faretegn observert'
p2461
aS'Mye vann i snoeen'
p2462
aS'Ingen faretegn observert'
p2463
aS'Ingen faretegn observert'
p2464
aS'Ferske skred'
p2465
aS'Rask temperaturstigning'
p2466
aS'Ferske skred'
p2467
aS'Mye vann i snoeen'
p2468
aS'Ingen faretegn observert'
p2469
aS'Droenn i snoeen'
p2470
aS'Droenn i snoeen'
p2471
aS'Ingen faretegn observert'
p2472
aS'Fersk vindtransportert snoe'
p2473
aS'Ingen faretegn observert'
p2474
aS'Ingen faretegn observert'
p2475
aS'Ingen faretegn observert'
p2476
aS'Ingen faretegn observert'
p2477
aS'Annet faretegn (spesifiser)'
p2478
aS'Ferske sprekker'
p2479
aS'Rask temperaturstigning'
p2480
aS'Mye vann i snoeen'
p2481
aS'Ingen faretegn observert'
p2482
aS'Mye vann i snoeen'
p2483
aS'Mye vann i snoeen'
p2484
aS'Mye vann i snoeen'
p2485
aS'Ingen faretegn observert'
p2486
aS'Droenn i snoeen'
p2487
aS'Ingen faretegn observert'
p2488
aS'Ferske sprekker'
p2489
aS'Ingen faretegn observert'
p2490
aS'Ingen faretegn observert'
p2491
aS'Mye vann i snoeen'
p2492
aS'Ingen faretegn observert'
p2493
aS'Ingen faretegn observert'
p2494
aS'Ingen faretegn observert'
p2495
aS'Mye vann i snoeen'
p2496
aS'Mye vann i snoeen'
p2497
aS'Ferske sprekker'
p2498
aS'Ingen faretegn observert'
p2499
aS'Ingen faretegn observert'
p2500
aS'Ingen faretegn observert'
p2501
aS'Ingen faretegn observert'
p2502
aS'Mye vann i snoeen'
p2503
aS'Droenn i snoeen'
p2504
aS'Ingen faretegn observert'
p2505
aS'Annet faretegn (spesifiser)'
p2506
aS'Fersk vindtransportert snoe'
p2507
aS'Mye vann i snoeen'
p2508
aS'Ingen faretegn observert'
p2509
aS'Ferske sprekker'
p2510
aS'Droenn i snoeen'
p2511
aS'Ingen faretegn observert'
p2512
aS'Ingen faretegn observert'
p2513
aS'Ferske sprekker'
p2514
aS'Ingen faretegn observert'
p2515
aS'Mye vann i snoeen'
p2516
aS'Mye vann i snoeen'
p2517
aS'Ingen faretegn observert'
p2518
aS'Ingen faretegn observert'
p2519
aS'Ingen faretegn observert'
p2520
aS'Fersk vindtransportert snoe'
p2521
aS'Ingen faretegn observert'
p2522
aS'Ferske skred'
p2523
aS'Ingen faretegn observert'
p2524
aS'Ingen faretegn observert'
p2525
aS'Fersk vindtransportert snoe'
p2526
aS'Ingen faretegn observert'
p2527
aS'Ingen faretegn observert'
p2528
aS'Ingen faretegn observert'
p2529
aS'Ingen faretegn observert'
p2530
aS'Ferske sprekker'
p2531
aS'Fersk vindtransportert snoe'
p2532
aS'Fersk vindtransportert snoe'
p2533
aS'Ferske skred'
p2534
aS'Fersk vindtransportert snoe'
p2535
aS'Ferske skred'
p2536
aS'Ingen faretegn observert'
p2537
aS'Ingen faretegn observert'
p2538
aS'Ingen faretegn observert'
p2539
aS'Fersk vindtransportert snoe'
p2540
aS'Ingen faretegn observert'
p2541
aS'Fersk vindtransportert snoe'
p2542
aS'Ingen faretegn observert'
p2543
aS'Ingen faretegn observert'
p2544
aS'Ferske skred'
p2545
aS'Ingen faretegn observert'
p2546
aS'Ferske skred'
p2547
aS'Mye vann i snoeen'
p2548
aS'Ferske skred'
p2549
aS'Ingen faretegn observert'
p2550
aS'Ferske skred'
p2551
aS'Ingen faretegn observert'
p2552
aS'Ferske skred'
p2553
aS'Mye vann i snoeen'
p2554
aS'Ingen faretegn observert'
p2555
aS'Ingen faretegn observert'
p2556
aS'Ferske skred'
p2557
aS'Ingen faretegn observert'
p2558
aS'Ferske skred'
p2559
aS'Ferske sprekker'
p2560
aS'Ingen faretegn observert'
p2561
aS'Ingen faretegn observert'
p2562
aS'Ingen faretegn observert'
p2563
aS'Ingen faretegn observert'
p2564
aS'Annet faretegn (spesifiser)'
p2565
aS'Ferske skred'
p2566
aS'Mye vann i snoeen'
p2567
aS'Ingen faretegn observert'
p2568
aS'Ingen faretegn observert'
p2569
aS'Ingen faretegn observert'
p2570
aS'Ingen faretegn observert'
p2571
aS'Mye vann i snoeen'
p2572
aS'Ingen faretegn observert'
p2573
aS'Ingen faretegn observert'
p2574
aS'Ingen faretegn observert'
p2575
aS'Ingen faretegn observert'
p2576
aS'Rask temperaturstigning'
p2577
aS'Ingen faretegn observert'
p2578
aS'Droenn i snoeen'
p2579
aS'Annet faretegn (spesifiser)'
p2580
aS'Ingen faretegn observert'
p2581
aS'Rask temperaturstigning'
p2582
aS'Ingen faretegn observert'
p2583
aS'Ferske skred'
p2584
aS'Ingen faretegn observert'
p2585
aS'Mye vann i snoeen'
p2586
aS'Ingen faretegn observert'
p2587
aS'Ingen faretegn observert'
p2588
aS'Rask temperaturstigning'
p2589
aS'Mye vann i snoeen'
p2590
aS'Ingen faretegn observert'
p2591
aS'Rask temperaturstigning'
p2592
aS'Ingen faretegn observert'
p2593
aS'Mye vann i snoeen'
p2594
aS'Ingen faretegn observert'
p2595
aS'Ingen faretegn observert'
p2596
asI3
(lp2597
S'Rask temperaturstigning'
p2598
aS'Fersk vindtransportert snoe'
p2599
aS'Stort snoefall'
p2600
aS'Ingen faretegn observert'
p2601
aS'Annet faretegn (spesifiser)'
p2602
aS'Fersk vindtransportert snoe'
p2603
aS'Stort snoefall'
p2604
aS'Rask temperaturstigning'
p2605
aS'Mye vann i snoeen'
p2606
aS'Fersk vindtransportert snoe'
p2607
aS'Fersk vindtransportert snoe'
p2608
aS'Fersk vindtransportert snoe'
p2609
aS'Ferske sprekker'
p2610
aS'Fersk vindtransportert snoe'
p2611
aS'Fersk vindtransportert snoe'
p2612
aS'Stort snoefall'
p2613
aS'Ferske sprekker'
p2614
aS'Stort snoefall'
p2615
aS'Ferske skred'
p2616
aS'Rask temperaturstigning'
p2617
aS'Droenn i snoeen'
p2618
aS'Mye vann i snoeen'
p2619
aS'Fersk vindtransportert snoe'
p2620
aS'Rask temperaturstigning'
p2621
aS'Mye vann i snoeen'
p2622
aS'Mye vann i snoeen'
p2623
aS'Rask temperaturstigning'
p2624
aS'Ferske sprekker'
p2625
aS'Fersk vindtransportert snoe'
p2626
aS'Fersk vindtransportert snoe'
p2627
aS'Fersk vindtransportert snoe'
p2628
aS'Fersk vindtransportert snoe'
p2629
aS'Fersk vindtransportert snoe'
p2630
aS'Rask temperaturstigning'
p2631
aS'Fersk vindtransportert snoe'
p2632
aS'Fersk vindtransportert snoe'
p2633
aS'Fersk vindtransportert snoe'
p2634
aS'Fersk vindtransportert snoe'
p2635
aS'Fersk vindtransportert snoe'
p2636
aS'Ingen faretegn observert'
p2637
aS'Fersk vindtransportert snoe'
p2638
aS'Fersk vindtransportert snoe'
p2639
aS'Ingen faretegn observert'
p2640
aS'Droenn i snoeen'
p2641
aS'Annet faretegn (spesifiser)'
p2642
aS'Ikke gitt'
p2643
aS'Fersk vindtransportert snoe'
p2644
aS'Rimkrystaller'
p2645
aS'Stort snoefall'
p2646
aS'Annet faretegn (spesifiser)'
p2647
aS'Fersk vindtransportert snoe'
p2648
aS'Ingen faretegn observert'
p2649
aS'Ingen faretegn observert'
p2650
aS'Fersk vindtransportert snoe'
p2651
aS'Fersk vindtransportert snoe'
p2652
aS'Fersk vindtransportert snoe'
p2653
aS'Annet faretegn (spesifiser)'
p2654
aS'Stort snoefall'
p2655
aS'Stort snoefall'
p2656
aS'Rask temperaturstigning'
p2657
aS'Annet faretegn (spesifiser)'
p2658
aS'Ferske skred'
p2659
aS'Ikke gitt'
p2660
aS'Fersk vindtransportert snoe'
p2661
aS'Fersk vindtransportert snoe'
p2662
aS'Mye vann i snoeen'
p2663
aS'Mye vann i snoeen'
p2664
aS'Mye vann i snoeen'
p2665
aS'Fersk vindtransportert snoe'
p2666
aS'Ferske sprekker'
p2667
aS'Fersk vindtransportert snoe'
p2668
aS'Ferske skred'
p2669
aS'Fersk vindtransportert snoe'
p2670
aS'Fersk vindtransportert snoe'
p2671
aS'Mye vann i snoeen'
p2672
aS'Fersk vindtransportert snoe'
p2673
aS'Fersk vindtransportert snoe'
p2674
aS'Ingen faretegn observert'
p2675
aS'Ingen faretegn observert'
p2676
aS'Fersk vindtransportert snoe'
p2677
aS'Ingen faretegn observert'
p2678
aS'Fersk vindtransportert snoe'
p2679
aS'Ingen faretegn observert'
p2680
aS'Fersk vindtransportert snoe'
p2681
aS'Fersk vindtransportert snoe'
p2682
aS'Ingen faretegn observert'
p2683
aS'Ingen faretegn observert'
p2684
aS'Fersk vindtransportert snoe'
p2685
aS'Ingen faretegn observert'
p2686
aS'Fersk vindtransportert snoe'
p2687
aS'Fersk vindtransportert snoe'
p2688
aS'Stort snoefall'
p2689
aS'Stort snoefall'
p2690
aS'Ferske sprekker'
p2691
aS'Fersk vindtransportert snoe'
p2692
aS'Stort snoefall'
p2693
aS'Fersk vindtransportert snoe'
p2694
aS'Fersk vindtransportert snoe'
p2695
aS'Fersk vindtransportert snoe'
p2696
aS'Fersk vindtransportert snoe'
p2697
aS'Ferske sprekker'
p2698
aS'Stort snoefall'
p2699
aS'Stort snoefall'
p2700
aS'Fersk vindtransportert snoe'
p2701
aS'Fersk vindtransportert snoe'
p2702
aS'Stort snoefall'
p2703
aS'Droenn i snoeen'
p2704
aS'Ingen faretegn observert'
p2705
aS'Rimkrystaller'
p2706
aS'Rimkrystaller'
p2707
aS'Droenn i snoeen'
p2708
aS'Ferske sprekker'
p2709
aS'Fersk vindtransportert snoe'
p2710
aS'Fersk vindtransportert snoe'
p2711
aS'Fersk vindtransportert snoe'
p2712
aS'Fersk vindtransportert snoe'
p2713
aS'Ferske sprekker'
p2714
aS'Fersk vindtransportert snoe'
p2715
aS'Droenn i snoeen'
p2716
aS'Ferske sprekker'
p2717
aS'Fersk vindtransportert snoe'
p2718
aS'Stort snoefall'
p2719
aS'Fersk vindtransportert snoe'
p2720
aS'Droenn i snoeen'
p2721
aS'Droenn i snoeen'
p2722
aS'Droenn i snoeen'
p2723
aS'Droenn i snoeen'
p2724
aS'Droenn i snoeen'
p2725
aS'Ferske sprekker'
p2726
aS'Droenn i snoeen'
p2727
aS'Fersk vindtransportert snoe'
p2728
aS'Fersk vindtransportert snoe'
p2729
aS'Droenn i snoeen'
p2730
aS'Stort snoefall'
p2731
aS'Droenn i snoeen'
p2732
aS'Ferske sprekker'
p2733
aS'Ferske skred'
p2734
aS'Ingen faretegn observert'
p2735
aS'Mye vann i snoeen'
p2736
aS'Ferske sprekker'
p2737
aS'Fersk vindtransportert snoe'
p2738
aS'Fersk vindtransportert snoe'
p2739
aS'Stort snoefall'
p2740
aS'Ferske skred'
p2741
aS'Droenn i snoeen'
p2742
aS'Fersk vindtransportert snoe'
p2743
aS'Droenn i snoeen'
p2744
aS'Fersk vindtransportert snoe'
p2745
aS'Fersk vindtransportert snoe'
p2746
aS'Droenn i snoeen'
p2747
aS'Fersk vindtransportert snoe'
p2748
aS'Ikke gitt'
p2749
aS'Ingen faretegn observert'
p2750
aS'Droenn i snoeen'
p2751
aS'Stort snoefall'
p2752
aS'Fersk vindtransportert snoe'
p2753
aS'Rimkrystaller'
p2754
aS'Ingen faretegn observert'
p2755
aS'Fersk vindtransportert snoe'
p2756
aS'Rimkrystaller'
p2757
aS'Droenn i snoeen'
p2758
aS'Mye vann i snoeen'
p2759
aS'Rask temperaturstigning'
p2760
aS'Rask temperaturstigning'
p2761
aS'Mye vann i snoeen'
p2762
aS'Ferske skred'
p2763
aS'Ferske skred'
p2764
aS'Rask temperaturstigning'
p2765
aS'Fersk vindtransportert snoe'
p2766
aS'Fersk vindtransportert snoe'
p2767
aS'Ingen faretegn observert'
p2768
aS'Ferske sprekker'
p2769
aS'Mye vann i snoeen'
p2770
aS'Rask temperaturstigning'
p2771
aS'Mye vann i snoeen'
p2772
aS'Rask temperaturstigning'
p2773
aS'Mye vann i snoeen'
p2774
aS'Ferske skred'
p2775
aS'Droenn i snoeen'
p2776
aS'Mye vann i snoeen'
p2777
aS'Mye vann i snoeen'
p2778
aS'Annet faretegn (spesifiser)'
p2779
aS'Mye vann i snoeen'
p2780
aS'Mye vann i snoeen'
p2781
aS'Fersk vindtransportert snoe'
p2782
aS'Fersk vindtransportert snoe'
p2783
aS'Mye vann i snoeen'
p2784
aS'Mye vann i snoeen'
p2785
aS'Fersk vindtransportert snoe'
p2786
aS'Fersk vindtransportert snoe'
p2787
aS'Fersk vindtransportert snoe'
p2788
aS'Fersk vindtransportert snoe'
p2789
aS'Fersk vindtransportert snoe'
p2790
aS'Ferske sprekker'
p2791
aS'Fersk vindtransportert snoe'
p2792
aS'Ingen faretegn observert'
p2793
aS'Fersk vindtransportert snoe'
p2794
aS'Fersk vindtransportert snoe'
p2795
aS'Fersk vindtransportert snoe'
p2796
aS'Ferske sprekker'
p2797
aS'Stort snoefall'
p2798
aS'Fersk vindtransportert snoe'
p2799
aS'Fersk vindtransportert snoe'
p2800
aS'Rimkrystaller'
p2801
aS'Fersk vindtransportert snoe'
p2802
aS'Fersk vindtransportert snoe'
p2803
aS'Stort snoefall'
p2804
aS'Fersk vindtransportert snoe'
p2805
aS'Stort snoefall'
p2806
aS'Fersk vindtransportert snoe'
p2807
aS'Fersk vindtransportert snoe'
p2808
aS'Fersk vindtransportert snoe'
p2809
aS'Fersk vindtransportert snoe'
p2810
aS'Fersk vindtransportert snoe'
p2811
aS'Ferske sprekker'
p2812
aS'Fersk vindtransportert snoe'
p2813
aS'Stort snoefall'
p2814
aS'Fersk vindtransportert snoe'
p2815
aS'Fersk vindtransportert snoe'
p2816
aS'Fersk vindtransportert snoe'
p2817
aS'Annet faretegn (spesifiser)'
p2818
aS'Fersk vindtransportert snoe'
p2819
aS'Fersk vindtransportert snoe'
p2820
aS'Rimkrystaller'
p2821
aS'Fersk vindtransportert snoe'
p2822
aS'Ferske sprekker'
p2823
aS'Rimkrystaller'
p2824
aS'Fersk vindtransportert snoe'
p2825
aS'Ferske skred'
p2826
aS'Fersk vindtransportert snoe'
p2827
aS'Ingen faretegn observert'
p2828
aS'Fersk vindtransportert snoe'
p2829
aS'Stort snoefall'
p2830
aS'Fersk vindtransportert snoe'
p2831
aS'Droenn i snoeen'
p2832
aS'Fersk vindtransportert snoe'
p2833
aS'Fersk vindtransportert snoe'
p2834
aS'Fersk vindtransportert snoe'
p2835
aS'Ferske skred'
p2836
aS'Rimkrystaller'
p2837
aS'Ferske sprekker'
p2838
aS'Ferske sprekker'
p2839
aS'Fersk vindtransportert snoe'
p2840
aS'Fersk vindtransportert snoe'
p2841
aS'Rimkrystaller'
p2842
aS'Ferske sprekker'
p2843
aS'Ingen faretegn observert'
p2844
aS'Fersk vindtransportert snoe'
p2845
aS'Ingen faretegn observert'
p2846
aS'Ferske skred'
p2847
aS'Fersk vindtransportert snoe'
p2848
aS'Fersk vindtransportert snoe'
p2849
aS'Rask temperaturstigning'
p2850
aS'Fersk vindtransportert snoe'
p2851
aS'Ingen faretegn observert'
p2852
aS'Fersk vindtransportert snoe'
p2853
aS'Ingen faretegn observert'
p2854
aS'Ingen faretegn observert'
p2855
aS'Ingen faretegn observert'
p2856
aS'Ingen faretegn observert'
p2857
aS'Ingen faretegn observert'
p2858
aS'Annet faretegn (spesifiser)'
p2859
aS'Fersk vindtransportert snoe'
p2860
aS'Rimkrystaller'
p2861
aS'Fersk vindtransportert snoe'
p2862
aS'Fersk vindtransportert snoe'
p2863
aS'Ingen faretegn observert'
p2864
aS'Ingen faretegn observert'
p2865
aS'Droenn i snoeen'
p2866
aS'Ferske sprekker'
p2867
aS'Droenn i snoeen'
p2868
aS'Fersk vindtransportert snoe'
p2869
aS'Fersk vindtransportert snoe'
p2870
aS'Fersk vindtransportert snoe'
p2871
aS'Ingen faretegn observert'
p2872
aS'Fersk vindtransportert snoe'
p2873
aS'Ferske skred'
p2874
aS'Fersk vindtransportert snoe'
p2875
aS'Ferske sprekker'
p2876
aS'Annet faretegn (spesifiser)'
p2877
aS'Ferske sprekker'
p2878
aS'Fersk vindtransportert snoe'
p2879
aS'Fersk vindtransportert snoe'
p2880
aS'Stort snoefall'
p2881
aS'Fersk vindtransportert snoe'
p2882
aS'Stort snoefall'
p2883
aS'Droenn i snoeen'
p2884
aS'Stort snoefall'
p2885
aS'Rask temperaturstigning'
p2886
aS'Stort snoefall'
p2887
aS'Rask temperaturstigning'
p2888
aS'Droenn i snoeen'
p2889
aS'Ferske sprekker'
p2890
aS'Stort snoefall'
p2891
aS'Fersk vindtransportert snoe'
p2892
aS'Ingen faretegn observert'
p2893
aS'Droenn i snoeen'
p2894
aS'Ferske sprekker'
p2895
aS'Fersk vindtransportert snoe'
p2896
aS'Droenn i snoeen'
p2897
aS'Stort snoefall'
p2898
aS'Stort snoefall'
p2899
aS'Droenn i snoeen'
p2900
aS'Droenn i snoeen'
p2901
aS'Stort snoefall'
p2902
aS'Droenn i snoeen'
p2903
aS'Stort snoefall'
p2904
aS'Stort snoefall'
p2905
aS'Stort snoefall'
p2906
aS'Ingen faretegn observert'
p2907
aS'Ingen faretegn observert'
p2908
aS'Stort snoefall'
p2909
aS'Droenn i snoeen'
p2910
aS'Stort snoefall'
p2911
aS'Ingen faretegn observert'
p2912
aS'Ingen faretegn observert'
p2913
aS'Rimkrystaller'
p2914
aS'Ingen faretegn observert'
p2915
aS'Ferske sprekker'
p2916
aS'Ingen faretegn observert'
p2917
aS'Ferske skred'
p2918
aS'Stort snoefall'
p2919
aS'Droenn i snoeen'
p2920
aS'Stort snoefall'
p2921
aS'Stort snoefall'
p2922
aS'Stort snoefall'
p2923
aS'Droenn i snoeen'
p2924
aS'Ingen faretegn observert'
p2925
aS'Ingen faretegn observert'
p2926
aS'Annet faretegn (spesifiser)'
p2927
aS'Stort snoefall'
p2928
aS'Droenn i snoeen'
p2929
aS'Stort snoefall'
p2930
aS'Ferske skred'
p2931
aS'Rimkrystaller'
p2932
aS'Stort snoefall'
p2933
aS'Ingen faretegn observert'
p2934
aS'Ingen faretegn observert'
p2935
aS'Ingen faretegn observert'
p2936
aS'Droenn i snoeen'
p2937
aS'Rimkrystaller'
p2938
aS'Ferske skred'
p2939
aS'Droenn i snoeen'
p2940
aS'Ferske sprekker'
p2941
aS'Rimkrystaller'
p2942
aS'Ferske sprekker'
p2943
aS'Fersk vindtransportert snoe'
p2944
aS'Rask temperaturstigning'
p2945
aS'Ingen faretegn observert'
p2946
aS'Droenn i snoeen'
p2947
aS'Ferske sprekker'
p2948
aS'Rask temperaturstigning'
p2949
aS'Fersk vindtransportert snoe'
p2950
aS'Rask temperaturstigning'
p2951
aS'Rask temperaturstigning'
p2952
aS'Droenn i snoeen'
p2953
aS'Ferske sprekker'
p2954
aS'Rask temperaturstigning'
p2955
aS'Ferske skred'
p2956
aS'Ferske sprekker'
p2957
aS'Droenn i snoeen'
p2958
aS'Ferske skred'
p2959
aS'Rimkrystaller'
p2960
aS'Annet faretegn (spesifiser)'
p2961
aS'Stort snoefall'
p2962
aS'Rimkrystaller'
p2963
aS'Fersk vindtransportert snoe'
p2964
aS'Stort snoefall'
p2965
aS'Stort snoefall'
p2966
aS'Mye vann i snoeen'
p2967
aS'Mye vann i snoeen'
p2968
aS'Ferske skred'
p2969
aS'Ferske skred'
p2970
aS'Fersk vindtransportert snoe'
p2971
aS'Ingen faretegn observert'
p2972
aS'Fersk vindtransportert snoe'
p2973
aS'Ferske sprekker'
p2974
aS'Ferske sprekker'
p2975
aS'Rask temperaturstigning'
p2976
aS'Ingen faretegn observert'
p2977
aS'Rimkrystaller'
p2978
aS'Fersk vindtransportert snoe'
p2979
aS'Droenn i snoeen'
p2980
aS'Ferske skred'
p2981
aS'Ferske skred'
p2982
aS'Droenn i snoeen'
p2983
aS'Droenn i snoeen'
p2984
aS'Ferske skred'
p2985
aS'Droenn i snoeen'
p2986
aS'Droenn i snoeen'
p2987
aS'Ingen faretegn observert'
p2988
aS'Droenn i snoeen'
p2989
aS'Ferske sprekker'
p2990
aS'Droenn i snoeen'
p2991
aS'Droenn i snoeen'
p2992
aS'Ferske sprekker'
p2993
aS'Ferske skred'
p2994
aS'Ferske sprekker'
p2995
aS'Ferske skred'
p2996
aS'Ferske skred'
p2997
aS'Droenn i snoeen'
p2998
aS'Mye vann i snoeen'
p2999
aS'Rask temperaturstigning'
p3000
aS'Ingen faretegn observert'
p3001
aS'Fersk vindtransportert snoe'
p3002
aS'Ingen faretegn observert'
p3003
aS'Rask temperaturstigning'
p3004
aS'Mye vann i snoeen'
p3005
aS'Droenn i snoeen'
p3006
aS'Ferske sprekker'
p3007
aS'Fersk vindtransportert snoe'
p3008
aS'Mye vann i snoeen'
p3009
aS'Mye vann i snoeen'
p3010
aS'Mye vann i snoeen'
p3011
aS'Fersk vindtransportert snoe'
p3012
aS'Rask temperaturstigning'
p3013
aS'Ferske skred'
p3014
aS'Ferske sprekker'
p3015
aS'Droenn i snoeen'
p3016
aS'Droenn i snoeen'
p3017
aS'Droenn i snoeen'
p3018
aS'Droenn i snoeen'
p3019
aS'Ingen faretegn observert'
p3020
aS'Ferske sprekker'
p3021
aS'Ingen faretegn observert'
p3022
aS'Ferske skred'
p3023
aS'Mye vann i snoeen'
p3024
aS'Rask temperaturstigning'
p3025
aS'Ferske skred'
p3026
aS'Rask temperaturstigning'
p3027
aS'Mye vann i snoeen'
p3028
aS'Fersk vindtransportert snoe'
p3029
aS'Rimkrystaller'
p3030
aS'Fersk vindtransportert snoe'
p3031
aS'Droenn i snoeen'
p3032
aS'Mye vann i snoeen'
p3033
aS'Mye vann i snoeen'
p3034
aS'Fersk vindtransportert snoe'
p3035
aS'Mye vann i snoeen'
p3036
aS'Ferske skred'
p3037
aS'Ferske skred'
p3038
aS'Fersk vindtransportert snoe'
p3039
aS'Rask temperaturstigning'
p3040
aS'Ferske skred'
p3041
aS'Ingen faretegn observert'
p3042
aS'Ingen faretegn observert'
p3043
aS'Fersk vindtransportert snoe'
p3044
aS'Ingen faretegn observert'
p3045
aS'Fersk vindtransportert snoe'
p3046
aS'Droenn i snoeen'
p3047
aS'Droenn i snoeen'
p3048
aS'Mye vann i snoeen'
p3049
aS'Mye vann i snoeen'
p3050
aS'Fersk vindtransportert snoe'
p3051
aS'Mye vann i snoeen'
p3052
aS'Mye vann i snoeen'
p3053
aS'Fersk vindtransportert snoe'
p3054
aS'Rimkrystaller'
p3055
aS'Mye vann i snoeen'
p3056
aS'Mye vann i snoeen'
p3057
aS'Ferske sprekker'
p3058
aS'Fersk vindtransportert snoe'
p3059
aS'Fersk vindtransportert snoe'
p3060
aS'Ingen faretegn observert'
p3061
aS'Fersk vindtransportert snoe'
p3062
aS'Fersk vindtransportert snoe'
p3063
aS'Fersk vindtransportert snoe'
p3064
aS'Fersk vindtransportert snoe'
p3065
aS'Fersk vindtransportert snoe'
p3066
aS'Mye vann i snoeen'
p3067
aS'Fersk vindtransportert snoe'
p3068
aS'Mye vann i snoeen'
p3069
aS'Stort snoefall'
p3070
aS'Fersk vindtransportert snoe'
p3071
aS'Fersk vindtransportert snoe'
p3072
aS'Fersk vindtransportert snoe'
p3073
aS'Fersk vindtransportert snoe'
p3074
aS'Ferske sprekker'
p3075
aS'Stort snoefall'
p3076
aS'Fersk vindtransportert snoe'
p3077
aS'Stort snoefall'
p3078
aS'Fersk vindtransportert snoe'
p3079
aS'Stort snoefall'
p3080
aS'Fersk vindtransportert snoe'
p3081
aS'Ferske sprekker'
p3082
aS'Stort snoefall'
p3083
aS'Stort snoefall'
p3084
aS'Fersk vindtransportert snoe'
p3085
aS'Fersk vindtransportert snoe'
p3086
aS'Stort snoefall'
p3087
aS'Ferske sprekker'
p3088
aS'Droenn i snoeen'
p3089
aS'Ingen faretegn observert'
p3090
aS'Ferske skred'
p3091
aS'Ferske sprekker'
p3092
aS'Stort snoefall'
p3093
aS'Stort snoefall'
p3094
aS'Stort snoefall'
p3095
aS'Fersk vindtransportert snoe'
p3096
aS'Fersk vindtransportert snoe'
p3097
aS'Stort snoefall'
p3098
aS'Fersk vindtransportert snoe'
p3099
aS'Stort snoefall'
p3100
aS'Droenn i snoeen'
p3101
aS'Droenn i snoeen'
p3102
aS'Fersk vindtransportert snoe'
p3103
aS'Ferske skred'
p3104
aS'Stort snoefall'
p3105
aS'Fersk vindtransportert snoe'
p3106
aS'Stort snoefall'
p3107
aS'Fersk vindtransportert snoe'
p3108
aS'Stort snoefall'
p3109
aS'Ferske skred'
p3110
aS'Droenn i snoeen'
p3111
aS'Stort snoefall'
p3112
aS'Stort snoefall'
p3113
aS'Stort snoefall'
p3114
aS'Stort snoefall'
p3115
aS'Rask temperaturstigning'
p3116
aS'Mye vann i snoeen'
p3117
aS'Ferske skred'
p3118
aS'Fersk vindtransportert snoe'
p3119
aS'Fersk vindtransportert snoe'
p3120
aS'Droenn i snoeen'
p3121
aS'Droenn i snoeen'
p3122
aS'Fersk vindtransportert snoe'
p3123
aS'Ferske sprekker'
p3124
aS'Fersk vindtransportert snoe'
p3125
aS'Fersk vindtransportert snoe'
p3126
aS'Fersk vindtransportert snoe'
p3127
aS'Rimkrystaller'
p3128
aS'Rimkrystaller'
p3129
aS'Ingen faretegn observert'
p3130
aS'Stort snoefall'
p3131
aS'Fersk vindtransportert snoe'
p3132
aS'Droenn i snoeen'
p3133
aS'Fersk vindtransportert snoe'
p3134
aS'Fersk vindtransportert snoe'
p3135
aS'Ferske sprekker'
p3136
aS'Ferske skred'
p3137
aS'Stort snoefall'
p3138
aS'Fersk vindtransportert snoe'
p3139
aS'Stort snoefall'
p3140
aS'Mye vann i snoeen'
p3141
aS'Ingen faretegn observert'
p3142
aS'Rask temperaturstigning'
p3143
aS'Droenn i snoeen'
p3144
aS'Droenn i snoeen'
p3145
aS'Ferske sprekker'
p3146
aS'Droenn i snoeen'
p3147
aS'Stort snoefall'
p3148
aS'Stort snoefall'
p3149
aS'Fersk vindtransportert snoe'
p3150
aS'Fersk vindtransportert snoe'
p3151
aS'Stort snoefall'
p3152
aS'Stort snoefall'
p3153
aS'Fersk vindtransportert snoe'
p3154
aS'Stort snoefall'
p3155
aS'Fersk vindtransportert snoe'
p3156
aS'Ferske sprekker'
p3157
aS'Ingen faretegn observert'
p3158
aS'Stort snoefall'
p3159
aS'Stort snoefall'
p3160
aS'Ferske sprekker'
p3161
aS'Stort snoefall'
p3162
aS'Ferske skred'
p3163
aS'Fersk vindtransportert snoe'
p3164
aS'Fersk vindtransportert snoe'
p3165
aS'Ferske sprekker'
p3166
aS'Ferske skred'
p3167
aS'Droenn i snoeen'
p3168
aS'Droenn i snoeen'
p3169
aS'Stort snoefall'
p3170
aS'Ferske sprekker'
p3171
aS'Ferske skred'
p3172
aS'Fersk vindtransportert snoe'
p3173
aS'Ferske skred'
p3174
aS'Fersk vindtransportert snoe'
p3175
aS'Ferske sprekker'
p3176
aS'Stort snoefall'
p3177
aS'Stort snoefall'
p3178
aS'Stort snoefall'
p3179
aS'Stort snoefall'
p3180
aS'Stort snoefall'
p3181
aS'Stort snoefall'
p3182
aS'Ingen faretegn observert'
p3183
aS'Stort snoefall'
p3184
aS'Ingen faretegn observert'
p3185
aS'Fersk vindtransportert snoe'
p3186
aS'Stort snoefall'
p3187
aS'Ferske skred'
p3188
aS'Fersk vindtransportert snoe'
p3189
aS'Stort snoefall'
p3190
aS'Ingen faretegn observert'
p3191
aS'Ingen faretegn observert'
p3192
aS'Ingen faretegn observert'
p3193
aS'Droenn i snoeen'
p3194
aS'Fersk vindtransportert snoe'
p3195
aS'Ingen faretegn observert'
p3196
aS'Stort snoefall'
p3197
aS'Ingen faretegn observert'
p3198
aS'Fersk vindtransportert snoe'
p3199
aS'Mye vann i snoeen'
p3200
aS'Stort snoefall'
p3201
aS'Ingen faretegn observert'
p3202
aS'Ingen faretegn observert'
p3203
aS'Fersk vindtransportert snoe'
p3204
aS'Ferske sprekker'
p3205
aS'Ingen faretegn observert'
p3206
aS'Rask temperaturstigning'
p3207
aS'Mye vann i snoeen'
p3208
aS'Fersk vindtransportert snoe'
p3209
aS'Stort snoefall'
p3210
aS'Fersk vindtransportert snoe'
p3211
aS'Ferske skred'
p3212
aS'Ferske skred'
p3213
aS'Fersk vindtransportert snoe'
p3214
aS'Rimkrystaller'
p3215
aS'Ferske sprekker'
p3216
aS'Ferske skred'
p3217
aS'Fersk vindtransportert snoe'
p3218
aS'Ferske skred'
p3219
aS'Fersk vindtransportert snoe'
p3220
aS'Fersk vindtransportert snoe'
p3221
aS'Droenn i snoeen'
p3222
aS'Fersk vindtransportert snoe'
p3223
aS'Ingen faretegn observert'
p3224
aS'Fersk vindtransportert snoe'
p3225
aS'Ferske sprekker'
p3226
aS'Droenn i snoeen'
p3227
aS'Fersk vindtransportert snoe'
p3228
aS'Ferske sprekker'
p3229
aS'Fersk vindtransportert snoe'
p3230
aS'Fersk vindtransportert snoe'
p3231
aS'Fersk vindtransportert snoe'
p3232
aS'Droenn i snoeen'
p3233
aS'Fersk vindtransportert snoe'
p3234
aS'Ferske skred'
p3235
aS'Ferske skred'
p3236
aS'Ferske sprekker'
p3237
aS'Fersk vindtransportert snoe'
p3238
aS'Ingen faretegn observert'
p3239
aS'Mye vann i snoeen'
p3240
aS'Ferske skred'
p3241
aS'Mye vann i snoeen'
p3242
aS'Ingen faretegn observert'
p3243
aS'Stort snoefall'
p3244
aS'Ingen faretegn observert'
p3245
aS'Ferske skred'
p3246
aS'Ingen faretegn observert'
p3247
aS'Rask temperaturstigning'
p3248
aS'Fersk vindtransportert snoe'
p3249
aS'Mye vann i snoeen'
p3250
aS'Stort snoefall'
p3251
aS'Mye vann i snoeen'
p3252
aS'Fersk vindtransportert snoe'
p3253
aS'Fersk vindtransportert snoe'
p3254
aS'Fersk vindtransportert snoe'
p3255
aS'Fersk vindtransportert snoe'
p3256
aS'Droenn i snoeen'
p3257
aS'Ferske sprekker'
p3258
aS'Fersk vindtransportert snoe'
p3259
aS'Rimkrystaller'
p3260
aS'Ferske skred'
p3261
aS'Ferske skred'
p3262
aS'Ferske skred'
p3263
aS'Ferske sprekker'
p3264
aS'Droenn i snoeen'
p3265
aS'Fersk vindtransportert snoe'
p3266
aS'Stort snoefall'
p3267
aS'Mye vann i snoeen'
p3268
aS'Fersk vindtransportert snoe'
p3269
aS'Stort snoefall'
p3270
aS'Mye vann i snoeen'
p3271
aS'Fersk vindtransportert snoe'
p3272
aS'Rask temperaturstigning'
p3273
aS'Mye vann i snoeen'
p3274
aS'Ingen faretegn observert'
p3275
aS'Mye vann i snoeen'
p3276
aS'Rask temperaturstigning'
p3277
aS'Fersk vindtransportert snoe'
p3278
aS'Droenn i snoeen'
p3279
aS'Droenn i snoeen'
p3280
aS'Fersk vindtransportert snoe'
p3281
aS'Fersk vindtransportert snoe'
p3282
aS'Ingen faretegn observert'
p3283
aS'Droenn i snoeen'
p3284
aS'Droenn i snoeen'
p3285
aS'Ingen faretegn observert'
p3286
aS'Fersk vindtransportert snoe'
p3287
aS'Stort snoefall'
p3288
aS'Stort snoefall'
p3289
aS'Fersk vindtransportert snoe'
p3290
aS'Mye vann i snoeen'
p3291
aS'Ferske skred'
p3292
aS'Stort snoefall'
p3293
aS'Fersk vindtransportert snoe'
p3294
aS'Mye vann i snoeen'
p3295
aS'Ingen faretegn observert'
p3296
aS'Ingen faretegn observert'
p3297
aS'Fersk vindtransportert snoe'
p3298
aS'Ferske skred'
p3299
aS'Rask temperaturstigning'
p3300
aS'Ingen faretegn observert'
p3301
aS'Ingen faretegn observert'
p3302
aS'Ingen faretegn observert'
p3303
aS'Fersk vindtransportert snoe'
p3304
aS'Stort snoefall'
p3305
aS'Fersk vindtransportert snoe'
p3306
aS'Stort snoefall'
p3307
aS'Ingen faretegn observert'
p3308
aS'Ferske skred'
p3309
aS'Ferske sprekker'
p3310
aS'Fersk vindtransportert snoe'
p3311
aS'Stort snoefall'
p3312
aS'Droenn i snoeen'
p3313
aS'Ingen faretegn observert'
p3314
aS'Ingen faretegn observert'
p3315
aS'Ikke gitt'
p3316
aS'Fersk vindtransportert snoe'
p3317
aS'Fersk vindtransportert snoe'
p3318
aS'Droenn i snoeen'
p3319
aS'Fersk vindtransportert snoe'
p3320
aS'Ferske skred'
p3321
aS'Fersk vindtransportert snoe'
p3322
aS'Fersk vindtransportert snoe'
p3323
aS'Fersk vindtransportert snoe'
p3324
aS'Ferske sprekker'
p3325
aS'Fersk vindtransportert snoe'
p3326
aS'Fersk vindtransportert snoe'
p3327
aS'Fersk vindtransportert snoe'
p3328
aS'Stort snoefall'
p3329
aS'Ferske skred'
p3330
aS'Fersk vindtransportert snoe'
p3331
aS'Droenn i snoeen'
p3332
aS'Ingen faretegn observert'
p3333
aS'Ingen faretegn observert'
p3334
aS'Fersk vindtransportert snoe'
p3335
aS'Ingen faretegn observert'
p3336
aS'Fersk vindtransportert snoe'
p3337
aS'Ingen faretegn observert'
p3338
aS'Fersk vindtransportert snoe'
p3339
aS'Ingen faretegn observert'
p3340
aS'Fersk vindtransportert snoe'
p3341
aS'Ingen faretegn observert'
p3342
aS'Rimkrystaller'
p3343
aS'Ferske skred'
p3344
aS'Fersk vindtransportert snoe'
p3345
aS'Fersk vindtransportert snoe'
p3346
aS'Ferske skred'
p3347
aS'Fersk vindtransportert snoe'
p3348
aS'Fersk vindtransportert snoe'
p3349
aS'Ferske skred'
p3350
aS'Fersk vindtransportert snoe'
p3351
aS'Droenn i snoeen'
p3352
aS'Ferske sprekker'
p3353
aS'Fersk vindtransportert snoe'
p3354
aS'Fersk vindtransportert snoe'
p3355
aS'Fersk vindtransportert snoe'
p3356
aS'Ingen faretegn observert'
p3357
aS'Ingen faretegn observert'
p3358
aS'Ingen faretegn observert'
p3359
aS'Ingen faretegn observert'
p3360
aS'Ingen faretegn observert'
p3361
aS'Fersk vindtransportert snoe'
p3362
aS'Fersk vindtransportert snoe'
p3363
aS'Stort snoefall'
p3364
aS'Stort snoefall'
p3365
aS'Fersk vindtransportert snoe'
p3366
aS'Ingen faretegn observert'
p3367
aS'Stort snoefall'
p3368
aS'Fersk vindtransportert snoe'
p3369
aS'Ingen faretegn observert'
p3370
aS'Ferske skred'
p3371
aS'Fersk vindtransportert snoe'
p3372
aS'Fersk vindtransportert snoe'
p3373
aS'Ingen faretegn observert'
p3374
aS'Fersk vindtransportert snoe'
p3375
aS'Stort snoefall'
p3376
aS'Fersk vindtransportert snoe'
p3377
aS'Fersk vindtransportert snoe'
p3378
aS'Ferske skred'
p3379
aS'Ingen faretegn observert'
p3380
aS'Ferske skred'
p3381
aS'Fersk vindtransportert snoe'
p3382
aS'Fersk vindtransportert snoe'
p3383
aS'Ferske skred'
p3384
aS'Fersk vindtransportert snoe'
p3385
aS'Fersk vindtransportert snoe'
p3386
aS'Fersk vindtransportert snoe'
p3387
aS'Ingen faretegn observert'
p3388
aS'Ingen faretegn observert'
p3389
aS'Ferske sprekker'
p3390
aS'Rimkrystaller'
p3391
aS'Fersk vindtransportert snoe'
p3392
aS'Rimkrystaller'
p3393
aS'Rimkrystaller'
p3394
aS'Rimkrystaller'
p3395
aS'Rimkrystaller'
p3396
aS'Ingen faretegn observert'
p3397
aS'Rask temperaturstigning'
p3398
aS'Rimkrystaller'
p3399
aS'Fersk vindtransportert snoe'
p3400
aS'Rimkrystaller'
p3401
aS'Ingen faretegn observert'
p3402
aS'Fersk vindtransportert snoe'
p3403
aS'Droenn i snoeen'
p3404
aS'Stort snoefall'
p3405
aS'Ingen faretegn observert'
p3406
aS'Ingen faretegn observert'
p3407
aS'Fersk vindtransportert snoe'
p3408
aS'Fersk vindtransportert snoe'
p3409
aS'Fersk vindtransportert snoe'
p3410
aS'Rask temperaturstigning'
p3411
aS'Fersk vindtransportert snoe'
p3412
aS'Fersk vindtransportert snoe'
p3413
aS'Ferske sprekker'
p3414
aS'Fersk vindtransportert snoe'
p3415
aS'Fersk vindtransportert snoe'
p3416
aS'Ferske sprekker'
p3417
aS'Rask temperaturstigning'
p3418
aS'Fersk vindtransportert snoe'
p3419
aS'Rask temperaturstigning'
p3420
aS'Mye vann i snoeen'
p3421
aS'Ingen faretegn observert'
p3422
aS'Droenn i snoeen'
p3423
aS'Fersk vindtransportert snoe'
p3424
aS'Droenn i snoeen'
p3425
aS'Rask temperaturstigning'
p3426
aS'Fersk vindtransportert snoe'
p3427
aS'Rask temperaturstigning'
p3428
aS'Ingen faretegn observert'
p3429
aS'Ingen faretegn observert'
p3430
aS'Fersk vindtransportert snoe'
p3431
aS'Ingen faretegn observert'
p3432
aS'Fersk vindtransportert snoe'
p3433
aS'Droenn i snoeen'
p3434
aS'Ferske sprekker'
p3435
aS'Fersk vindtransportert snoe'
p3436
aS'Ferske sprekker'
p3437
aS'Stort snoefall'
p3438
aS'Fersk vindtransportert snoe'
p3439
aS'Rask temperaturstigning'
p3440
aS'Fersk vindtransportert snoe'
p3441
aS'Rask temperaturstigning'
p3442
aS'Fersk vindtransportert snoe'
p3443
aS'Ingen faretegn observert'
p3444
aS'Ingen faretegn observert'
p3445
aS'Fersk vindtransportert snoe'
p3446
aS'Droenn i snoeen'
p3447
aS'Droenn i snoeen'
p3448
aS'Ferske sprekker'
p3449
aS'Droenn i snoeen'
p3450
aS'Ferske sprekker'
p3451
aS'Ingen faretegn observert'
p3452
aS'Rimkrystaller'
p3453
aS'Ingen faretegn observert'
p3454
aS'Ingen faretegn observert'
p3455
aS'Fersk vindtransportert snoe'
p3456
aS'Fersk vindtransportert snoe'
p3457
aS'Fersk vindtransportert snoe'
p3458
aS'Fersk vindtransportert snoe'
p3459
aS'Ingen faretegn observert'
p3460
aS'Ingen faretegn observert'
p3461
aS'Ingen faretegn observert'
p3462
aS'Ingen faretegn observert'
p3463
aS'Mye vann i snoeen'
p3464
aS'Ferske sprekker'
p3465
aS'Fersk vindtransportert snoe'
p3466
aS'Droenn i snoeen'
p3467
aS'Droenn i snoeen'
p3468
aS'Ferske sprekker'
p3469
aS'Droenn i snoeen'
p3470
aS'Droenn i snoeen'
p3471
aS'Ferske sprekker'
p3472
aS'Fersk vindtransportert snoe'
p3473
aS'Droenn i snoeen'
p3474
aS'Stort snoefall'
p3475
aS'Fersk vindtransportert snoe'
p3476
aS'Fersk vindtransportert snoe'
p3477
aS'Fersk vindtransportert snoe'
p3478
aS'Ferske sprekker'
p3479
aS'Fersk vindtransportert snoe'
p3480
aS'Stort snoefall'
p3481
aS'Stort snoefall'
p3482
aS'Stort snoefall'
p3483
aS'Stort snoefall'
p3484
aS'Fersk vindtransportert snoe'
p3485
aS'Stort snoefall'
p3486
aS'Stort snoefall'
p3487
aS'Ferske sprekker'
p3488
aS'Ingen faretegn observert'
p3489
aS'Ferske sprekker'
p3490
aS'Droenn i snoeen'
p3491
aS'Fersk vindtransportert snoe'
p3492
aS'Stort snoefall'
p3493
aS'Fersk vindtransportert snoe'
p3494
aS'Droenn i snoeen'
p3495
aS'Ferske sprekker'
p3496
aS'Droenn i snoeen'
p3497
aS'Droenn i snoeen'
p3498
aS'Ferske sprekker'
p3499
aS'Ferske skred'
p3500
aS'Droenn i snoeen'
p3501
aS'Stort snoefall'
p3502
aS'Fersk vindtransportert snoe'
p3503
aS'Stort snoefall'
p3504
aS'Ferske skred'
p3505
aS'Stort snoefall'
p3506
aS'Droenn i snoeen'
p3507
aS'Fersk vindtransportert snoe'
p3508
aS'Fersk vindtransportert snoe'
p3509
aS'Fersk vindtransportert snoe'
p3510
aS'Fersk vindtransportert snoe'
p3511
aS'Ingen faretegn observert'
p3512
aS'Annet faretegn (spesifiser)'
p3513
aS'Droenn i snoeen'
p3514
aS'Stort snoefall'
p3515
aS'Droenn i snoeen'
p3516
aS'Ingen faretegn observert'
p3517
aS'Fersk vindtransportert snoe'
p3518
aS'Droenn i snoeen'
p3519
aS'Ferske skred'
p3520
aS'Fersk vindtransportert snoe'
p3521
aS'Ingen faretegn observert'
p3522
aS'Fersk vindtransportert snoe'
p3523
aS'Stort snoefall'
p3524
aS'Stort snoefall'
p3525
aS'Stort snoefall'
p3526
aS'Stort snoefall'
p3527
aS'Stort snoefall'
p3528
aS'Droenn i snoeen'
p3529
aS'Ingen faretegn observert'
p3530
aS'Ferske skred'
p3531
aS'Stort snoefall'
p3532
aS'Stort snoefall'
p3533
aS'Fersk vindtransportert snoe'
p3534
aS'Ferske skred'
p3535
aS'Stort snoefall'
p3536
aS'Droenn i snoeen'
p3537
aS'Stort snoefall'
p3538
aS'Ingen faretegn observert'
p3539
aS'Ferske skred'
p3540
aS'Ferske skred'
p3541
aS'Fersk vindtransportert snoe'
p3542
aS'Stort snoefall'
p3543
aS'Stort snoefall'
p3544
aS'Ferske sprekker'
p3545
aS'Fersk vindtransportert snoe'
p3546
aS'Stort snoefall'
p3547
aS'Ferske skred'
p3548
aS'Rimkrystaller'
p3549
aS'Rimkrystaller'
p3550
aS'Ingen faretegn observert'
p3551
aS'Fersk vindtransportert snoe'
p3552
aS'Fersk vindtransportert snoe'
p3553
aS'Ingen faretegn observert'
p3554
aS'Stort snoefall'
p3555
aS'Stort snoefall'
p3556
aS'Stort snoefall'
p3557
aS'Stort snoefall'
p3558
aS'Fersk vindtransportert snoe'
p3559
aS'Stort snoefall'
p3560
aS'Ferske skred'
p3561
aS'Stort snoefall'
p3562
aS'Stort snoefall'
p3563
aS'Stort snoefall'
p3564
aS'Stort snoefall'
p3565
aS'Stort snoefall'
p3566
aS'Fersk vindtransportert snoe'
p3567
aS'Ingen faretegn observert'
p3568
aS'Ingen faretegn observert'
p3569
aS'Ferske skred'
p3570
aS'Stort snoefall'
p3571
aS'Stort snoefall'
p3572
aS'Ferske skred'
p3573
aS'Fersk vindtransportert snoe'
p3574
aS'Stort snoefall'
p3575
aS'Ferske skred'
p3576
aS'Annet faretegn (spesifiser)'
p3577
aS'Stort snoefall'
p3578
aS'Mye vann i snoeen'
p3579
aS'Ingen faretegn observert'
p3580
aS'Droenn i snoeen'
p3581
aS'Ingen faretegn observert'
p3582
aS'Ingen faretegn observert'
p3583
aS'Stort snoefall'
p3584
aS'Stort snoefall'
p3585
aS'Mye vann i snoeen'
p3586
aS'Stort snoefall'
p3587
aS'Ferske skred'
p3588
aS'Annet faretegn (spesifiser)'
p3589
aS'Droenn i snoeen'
p3590
aS'Stort snoefall'
p3591
aS'Fersk vindtransportert snoe'
p3592
aS'Rask temperaturstigning'
p3593
aS'Ferske sprekker'
p3594
aS'Stort snoefall'
p3595
aS'Ingen faretegn observert'
p3596
aS'Stort snoefall'
p3597
aS'Fersk vindtransportert snoe'
p3598
aS'Stort snoefall'
p3599
aS'Mye vann i snoeen'
p3600
aS'Stort snoefall'
p3601
aS'Stort snoefall'
p3602
aS'Stort snoefall'
p3603
aS'Stort snoefall'
p3604
aS'Ferske skred'
p3605
aS'Stort snoefall'
p3606
aS'Stort snoefall'
p3607
aS'Stort snoefall'
p3608
aS'Ingen faretegn observert'
p3609
aS'Stort snoefall'
p3610
aS'Ingen faretegn observert'
p3611
aS'Stort snoefall'
p3612
aS'Ingen faretegn observert'
p3613
aS'Stort snoefall'
p3614
aS'Ferske skred'
p3615
aS'Fersk vindtransportert snoe'
p3616
aS'Rask temperaturstigning'
p3617
aS'Mye vann i snoeen'
p3618
aS'Ingen faretegn observert'
p3619
aS'Fersk vindtransportert snoe'
p3620
aS'Fersk vindtransportert snoe'
p3621
aS'Fersk vindtransportert snoe'
p3622
aS'Ingen faretegn observert'
p3623
aS'Ferske skred'
p3624
aS'Fersk vindtransportert snoe'
p3625
aS'Fersk vindtransportert snoe'
p3626
aS'Ingen faretegn observert'
p3627
aS'Ingen faretegn observert'
p3628
aS'Ingen faretegn observert'
p3629
aS'Ingen faretegn observert'
p3630
aS'Ingen faretegn observert'
p3631
aS'Ingen faretegn observert'
p3632
aS'Fersk vindtransportert snoe'
p3633
aS'Ingen faretegn observert'
p3634
aS'Ferske sprekker'
p3635
aS'Fersk vindtransportert snoe'
p3636
aS'Rimkrystaller'
p3637
aS'Ingen faretegn observert'
p3638
aS'Fersk vindtransportert snoe'
p3639
aS'Rask temperaturstigning'
p3640
aS'Ferske skred'
p3641
aS'Fersk vindtransportert snoe'
p3642
aS'Fersk vindtransportert snoe'
p3643
aS'Fersk vindtransportert snoe'
p3644
aS'Fersk vindtransportert snoe'
p3645
aS'Fersk vindtransportert snoe'
p3646
aS'Ferske sprekker'
p3647
aS'Fersk vindtransportert snoe'
p3648
aS'Fersk vindtransportert snoe'
p3649
aS'Ingen faretegn observert'
p3650
aS'Fersk vindtransportert snoe'
p3651
aS'Fersk vindtransportert snoe'
p3652
aS'Fersk vindtransportert snoe'
p3653
aS'Rask temperaturstigning'
p3654
aS'Fersk vindtransportert snoe'
p3655
aS'Fersk vindtransportert snoe'
p3656
aS'Fersk vindtransportert snoe'
p3657
aS'Ferske sprekker'
p3658
aS'Ferske sprekker'
p3659
aS'Ferske skred'
p3660
aS'Fersk vindtransportert snoe'
p3661
aS'Ingen faretegn observert'
p3662
aS'Fersk vindtransportert snoe'
p3663
aS'Ingen faretegn observert'
p3664
aS'Ingen faretegn observert'
p3665
aS'Ingen faretegn observert'
p3666
aS'Ingen faretegn observert'
p3667
aS'Fersk vindtransportert snoe'
p3668
aS'Fersk vindtransportert snoe'
p3669
aS'Fersk vindtransportert snoe'
p3670
aS'Ferske sprekker'
p3671
aS'Ferske skred'
p3672
aS'Droenn i snoeen'
p3673
aS'Droenn i snoeen'
p3674
aS'Ferske skred'
p3675
aS'Fersk vindtransportert snoe'
p3676
aS'Droenn i snoeen'
p3677
aS'Fersk vindtransportert snoe'
p3678
aS'Fersk vindtransportert snoe'
p3679
aS'Rask temperaturstigning'
p3680
aS'Fersk vindtransportert snoe'
p3681
aS'Stort snoefall'
p3682
aS'Stort snoefall'
p3683
aS'Ingen faretegn observert'
p3684
aS'Fersk vindtransportert snoe'
p3685
aS'Rask temperaturstigning'
p3686
aS'Mye vann i snoeen'
p3687
aS'Fersk vindtransportert snoe'
p3688
aS'Droenn i snoeen'
p3689
aS'Droenn i snoeen'
p3690
aS'Ferske skred'
p3691
aS'Droenn i snoeen'
p3692
aS'Stort snoefall'
p3693
aS'Stort snoefall'
p3694
aS'Fersk vindtransportert snoe'
p3695
aS'Stort snoefall'
p3696
aS'Ingen faretegn observert'
p3697
aS'Mye vann i snoeen'
p3698
aS'Rask temperaturstigning'
p3699
aS'Ingen faretegn observert'
p3700
aS'Rask temperaturstigning'
p3701
aS'Ferske skred'
p3702
aS'Mye vann i snoeen'
p3703
aS'Mye vann i snoeen'
p3704
aS'Rimkrystaller'
p3705
aS'Fersk vindtransportert snoe'
p3706
aS'Ferske skred'
p3707
aS'Annet faretegn (spesifiser)'
p3708
aS'Rask temperaturstigning'
p3709
aS'Ferske sprekker'
p3710
aS'Ferske skred'
p3711
aS'Ferske skred'
p3712
aS'Ferske skred'
p3713
aS'Mye vann i snoeen'
p3714
aS'Mye vann i snoeen'
p3715
aS'Fersk vindtransportert snoe'
p3716
aS'Ingen faretegn observert'
p3717
aS'Ingen faretegn observert'
p3718
aS'Mye vann i snoeen'
p3719
aS'Ferske skred'
p3720
aS'Ingen faretegn observert'
p3721
aS'Mye vann i snoeen'
p3722
aS'Rask temperaturstigning'
p3723
aS'Mye vann i snoeen'
p3724
aS'Rask temperaturstigning'
p3725
aS'Rask temperaturstigning'
p3726
aS'Mye vann i snoeen'
p3727
aS'Ferske skred'
p3728
aS'Rask temperaturstigning'
p3729
aS'Rask temperaturstigning'
p3730
aS'Ingen faretegn observert'
p3731
aS'Mye vann i snoeen'
p3732
aS'Ferske skred'
p3733
aS'Mye vann i snoeen'
p3734
aS'Mye vann i snoeen'
p3735
aS'Mye vann i snoeen'
p3736
aS'Mye vann i snoeen'
p3737
aS'Ingen faretegn observert'
p3738
aS'Rask temperaturstigning'
p3739
aS'Mye vann i snoeen'
p3740
aS'Ferske skred'
p3741
aS'Rask temperaturstigning'
p3742
aS'Mye vann i snoeen'
p3743
aS'Ferske skred'
p3744
aS'Ferske sprekker'
p3745
aS'Ingen faretegn observert'
p3746
aS'Fersk vindtransportert snoe'
p3747
aS'Fersk vindtransportert snoe'
p3748
aS'Ingen faretegn observert'
p3749
aS'Ferske skred'
p3750
aS'Mye vann i snoeen'
p3751
aS'Droenn i snoeen'
p3752
aS'Fersk vindtransportert snoe'
p3753
aS'Fersk vindtransportert snoe'
p3754
aS'Ingen faretegn observert'
p3755
aS'Mye vann i snoeen'
p3756
aS'Stort snoefall'
p3757
aS'Mye vann i snoeen'
p3758
aS'Fersk vindtransportert snoe'
p3759
aS'Stort snoefall'
p3760
aS'Stort snoefall'
p3761
aS'Mye vann i snoeen'
p3762
aS'Stort snoefall'
p3763
aS'Fersk vindtransportert snoe'
p3764
aS'Mye vann i snoeen'
p3765
aS'Fersk vindtransportert snoe'
p3766
aS'Ferske skred'
p3767
aS'Fersk vindtransportert snoe'
p3768
aS'Ingen faretegn observert'
p3769
aS'Ferske skred'
p3770
aS'Ingen faretegn observert'
p3771
aS'Fersk vindtransportert snoe'
p3772
aS'Ferske sprekker'
p3773
aS'Ferske sprekker'
p3774
aS'Fersk vindtransportert snoe'
p3775
aS'Annet faretegn (spesifiser)'
p3776
aS'Fersk vindtransportert snoe'
p3777
aS'Stort snoefall'
p3778
aS'Fersk vindtransportert snoe'
p3779
aS'Stort snoefall'
p3780
aS'Fersk vindtransportert snoe'
p3781
aS'Fersk vindtransportert snoe'
p3782
aS'Fersk vindtransportert snoe'
p3783
aS'Fersk vindtransportert snoe'
p3784
aS'Ingen faretegn observert'
p3785
aS'Fersk vindtransportert snoe'
p3786
aS'Fersk vindtransportert snoe'
p3787
aS'Fersk vindtransportert snoe'
p3788
aS'Fersk vindtransportert snoe'
p3789
aS'Fersk vindtransportert snoe'
p3790
aS'Ferske skred'
p3791
aS'Fersk vindtransportert snoe'
p3792
aS'Stort snoefall'
p3793
aS'Fersk vindtransportert snoe'
p3794
aS'Stort snoefall'
p3795
aS'Fersk vindtransportert snoe'
p3796
aS'Stort snoefall'
p3797
aS'Ingen faretegn observert'
p3798
aS'Ingen faretegn observert'
p3799
aS'Fersk vindtransportert snoe'
p3800
aS'Stort snoefall'
p3801
aS'Fersk vindtransportert snoe'
p3802
aS'Fersk vindtransportert snoe'
p3803
aS'Fersk vindtransportert snoe'
p3804
aS'Stort snoefall'
p3805
aS'Fersk vindtransportert snoe'
p3806
aS'Stort snoefall'
p3807
aS'Ingen faretegn observert'
p3808
aS'Ingen faretegn observert'
p3809
aS'Ingen faretegn observert'
p3810
aS'Mye vann i snoeen'
p3811
aS'Fersk vindtransportert snoe'
p3812
aS'Fersk vindtransportert snoe'
p3813
aS'Ingen faretegn observert'
p3814
aS'Fersk vindtransportert snoe'
p3815
aS'Ingen faretegn observert'
p3816
aS'Stort snoefall'
p3817
aS'Fersk vindtransportert snoe'
p3818
aS'Stort snoefall'
p3819
aS'Fersk vindtransportert snoe'
p3820
aS'Ingen faretegn observert'
p3821
aS'Ingen faretegn observert'
p3822
aS'Ingen faretegn observert'
p3823
aS'Mye vann i snoeen'
p3824
aS'Ingen faretegn observert'
p3825
aS'Rimkrystaller'
p3826
aS'Rask temperaturstigning'
p3827
aS'Ferske skred'
p3828
aS'Ferske skred'
p3829
aS'Ingen faretegn observert'
p3830
aS'Fersk vindtransportert snoe'
p3831
aS'Fersk vindtransportert snoe'
p3832
aS'Fersk vindtransportert snoe'
p3833
aS'Ingen faretegn observert'
p3834
aS'Fersk vindtransportert snoe'
p3835
aS'Ferske skred'
p3836
aS'Ferske sprekker'
p3837
aS'Fersk vindtransportert snoe'
p3838
aS'Ferske skred'
p3839
aS'Rask temperaturstigning'
p3840
aS'Fersk vindtransportert snoe'
p3841
aS'Ferske skred'
p3842
aS'Fersk vindtransportert snoe'
p3843
aS'Fersk vindtransportert snoe'
p3844
aS'Rask temperaturstigning'
p3845
aS'Fersk vindtransportert snoe'
p3846
aS'Ingen faretegn observert'
p3847
aS'Rask temperaturstigning'
p3848
aS'Stort snoefall'
p3849
aS'Fersk vindtransportert snoe'
p3850
aS'Fersk vindtransportert snoe'
p3851
aS'Ferske sprekker'
p3852
aS'Ingen faretegn observert'
p3853
aS'Droenn i snoeen'
p3854
aS'Fersk vindtransportert snoe'
p3855
aS'Mye vann i snoeen'
p3856
aS'Rask temperaturstigning'
p3857
aS'Mye vann i snoeen'
p3858
aS'Fersk vindtransportert snoe'
p3859
aS'Fersk vindtransportert snoe'
p3860
aS'Ferske sprekker'
p3861
aS'Fersk vindtransportert snoe'
p3862
aS'Mye vann i snoeen'
p3863
aS'Ferske sprekker'
p3864
aS'Rask temperaturstigning'
p3865
aS'Ferske skred'
p3866
aS'Ferske skred'
p3867
aS'Mye vann i snoeen'
p3868
aS'Rask temperaturstigning'
p3869
aS'Annet faretegn (spesifiser)'
p3870
aS'Ferske skred'
p3871
aS'Ferske skred'
p3872
aS'Ferske sprekker'
p3873
aS'Ingen faretegn observert'
p3874
aS'Fersk vindtransportert snoe'
p3875
aS'Fersk vindtransportert snoe'
p3876
aS'Fersk vindtransportert snoe'
p3877
aS'Rask temperaturstigning'
p3878
aS'Fersk vindtransportert snoe'
p3879
aS'Mye vann i snoeen'
p3880
aS'Rimkrystaller'
p3881
aS'Droenn i snoeen'
p3882
aS'Ingen faretegn observert'
p3883
aS'Fersk vindtransportert snoe'
p3884
aS'Droenn i snoeen'
p3885
aS'Ferske skred'
p3886
aS'Fersk vindtransportert snoe'
p3887
aS'Ingen faretegn observert'
p3888
aS'Ferske sprekker'
p3889
aS'Fersk vindtransportert snoe'
p3890
aS'Fersk vindtransportert snoe'
p3891
aS'Fersk vindtransportert snoe'
p3892
aS'Droenn i snoeen'
p3893
aS'Ferske skred'
p3894
aS'Fersk vindtransportert snoe'
p3895
aS'Fersk vindtransportert snoe'
p3896
aS'Ferske sprekker'
p3897
aS'Droenn i snoeen'
p3898
aS'Fersk vindtransportert snoe'
p3899
aS'Fersk vindtransportert snoe'
p3900
aS'Fersk vindtransportert snoe'
p3901
aS'Fersk vindtransportert snoe'
p3902
aS'Fersk vindtransportert snoe'
p3903
aS'Ferske skred'
p3904
aS'Ingen faretegn observert'
p3905
aS'Ferske sprekker'
p3906
aS'Fersk vindtransportert snoe'
p3907
aS'Fersk vindtransportert snoe'
p3908
aS'Droenn i snoeen'
p3909
aS'Fersk vindtransportert snoe'
p3910
aS'Droenn i snoeen'
p3911
aS'Droenn i snoeen'
p3912
aS'Droenn i snoeen'
p3913
aS'Ferske skred'
p3914
aS'Droenn i snoeen'
p3915
aS'Droenn i snoeen'
p3916
aS'Droenn i snoeen'
p3917
aS'Droenn i snoeen'
p3918
aS'Droenn i snoeen'
p3919
aS'Droenn i snoeen'
p3920
aS'Ferske skred'
p3921
aS'Droenn i snoeen'
p3922
aS'Droenn i snoeen'
p3923
aS'Droenn i snoeen'
p3924
aS'Droenn i snoeen'
p3925
aS'Droenn i snoeen'
p3926
aS'Droenn i snoeen'
p3927
aS'Rimkrystaller'
p3928
aS'Ingen faretegn observert'
p3929
aS'Droenn i snoeen'
p3930
aS'Rimkrystaller'
p3931
aS'Ferske skred'
p3932
aS'Rimkrystaller'
p3933
aS'Ingen faretegn observert'
p3934
aS'Droenn i snoeen'
p3935
aS'Droenn i snoeen'
p3936
aS'Ferske skred'
p3937
aS'Ingen faretegn observert'
p3938
aS'Ingen faretegn observert'
p3939
aS'Droenn i snoeen'
p3940
aS'Ferske sprekker'
p3941
aS'Droenn i snoeen'
p3942
aS'Droenn i snoeen'
p3943
aS'Droenn i snoeen'
p3944
aS'Fersk vindtransportert snoe'
p3945
aS'Ingen faretegn observert'
p3946
aS'Ferske skred'
p3947
aS'Fersk vindtransportert snoe'
p3948
aS'Fersk vindtransportert snoe'
p3949
aS'Annet faretegn (spesifiser)'
p3950
aS'Annet faretegn (spesifiser)'
p3951
aS'Ferske skred'
p3952
aS'Fersk vindtransportert snoe'
p3953
aS'Fersk vindtransportert snoe'
p3954
aS'Ferske skred'
p3955
aS'Annet faretegn (spesifiser)'
p3956
aS'Ferske skred'
p3957
aS'Fersk vindtransportert snoe'
p3958
aS'Droenn i snoeen'
p3959
aS'Fersk vindtransportert snoe'
p3960
aS'Droenn i snoeen'
p3961
aS'Droenn i snoeen'
p3962
aS'Ferske skred'
p3963
aS'Droenn i snoeen'
p3964
aS'Ferske sprekker'
p3965
aS'Ferske skred'
p3966
aS'Rask temperaturstigning'
p3967
aS'Mye vann i snoeen'
p3968
aS'Ferske skred'
p3969
aS'Mye vann i snoeen'
p3970
aS'Mye vann i snoeen'
p3971
aS'Ingen faretegn observert'
p3972
aS'Ingen faretegn observert'
p3973
aS'Ingen faretegn observert'
p3974
aS'Droenn i snoeen'
p3975
aS'Droenn i snoeen'
p3976
aS'Ingen faretegn observert'
p3977
aS'Ingen faretegn observert'
p3978
aS'Droenn i snoeen'
p3979
aS'Droenn i snoeen'
p3980
aS'Ingen faretegn observert'
p3981
aS'Rask temperaturstigning'
p3982
aS'Ferske skred'
p3983
aS'Mye vann i snoeen'
p3984
aS'Ferske skred'
p3985
aS'Ferske skred'
p3986
aS'Annet faretegn (spesifiser)'
p3987
aS'Fersk vindtransportert snoe'
p3988
aS'Annet faretegn (spesifiser)'
p3989
aS'Mye vann i snoeen'
p3990
aS'Fersk vindtransportert snoe'
p3991
aS'Fersk vindtransportert snoe'
p3992
aS'Fersk vindtransportert snoe'
p3993
aS'Mye vann i snoeen'
p3994
aS'Fersk vindtransportert snoe'
p3995
aS'Fersk vindtransportert snoe'
p3996
aS'Mye vann i snoeen'
p3997
aS'Mye vann i snoeen'
p3998
aS'Ikke gitt'
p3999
aS'Fersk vindtransportert snoe'
p4000
aS'Mye vann i snoeen'
p4001
aS'Stort snoefall'
p4002
aS'Ingen faretegn observert'
p4003
aS'Ingen faretegn observert'
p4004
aS'Ferske skred'
p4005
aS'Mye vann i snoeen'
p4006
aS'Droenn i snoeen'
p4007
aS'Fersk vindtransportert snoe'
p4008
aS'Ferske skred'
p4009
aS'Droenn i snoeen'
p4010
aS'Droenn i snoeen'
p4011
aS'Mye vann i snoeen'
p4012
aS'Droenn i snoeen'
p4013
aS'Droenn i snoeen'
p4014
aS'Droenn i snoeen'
p4015
aS'Droenn i snoeen'
p4016
aS'Droenn i snoeen'
p4017
aS'Ferske skred'
p4018
aS'Mye vann i snoeen'
p4019
aS'Rask temperaturstigning'
p4020
aS'Droenn i snoeen'
p4021
aS'Ferske skred'
p4022
aS'Fersk vindtransportert snoe'
p4023
aS'Droenn i snoeen'
p4024
aS'Droenn i snoeen'
p4025
aS'Ferske skred'
p4026
aS'Ferske sprekker'
p4027
aS'Ikke gitt'
p4028
aS'Droenn i snoeen'
p4029
aS'Droenn i snoeen'
p4030
aS'Droenn i snoeen'
p4031
aS'Droenn i snoeen'
p4032
aS'Droenn i snoeen'
p4033
aS'Droenn i snoeen'
p4034
aS'Ingen faretegn observert'
p4035
aS'Droenn i snoeen'
p4036
aS'Rimkrystaller'
p4037
aS'Droenn i snoeen'
p4038
aS'Ferske skred'
p4039
aS'Annet faretegn (spesifiser)'
p4040
aS'Rask temperaturstigning'
p4041
aS'Mye vann i snoeen'
p4042
aS'Mye vann i snoeen'
p4043
aS'Mye vann i snoeen'
p4044
aS'Mye vann i snoeen'
p4045
aS'Mye vann i snoeen'
p4046
aS'Ferske skred'
p4047
asI4
(lp4048
S'Rask temperaturstigning'
p4049
aS'Mye vann i snoeen'
p4050
aS'Mye vann i snoeen'
p4051
aS'Fersk vindtransportert snoe'
p4052
aS'Droenn i snoeen'
p4053
aS'Droenn i snoeen'
p4054
aS'Ferske sprekker'
p4055
aS'Stort snoefall'
p4056
aS'Fersk vindtransportert snoe'
p4057
aS'Rimkrystaller'
p4058
aS'Fersk vindtransportert snoe'
p4059
aS'Fersk vindtransportert snoe'
p4060
aS'Stort snoefall'
p4061
aS'Fersk vindtransportert snoe'
p4062
aS'Stort snoefall'
p4063
aS'Fersk vindtransportert snoe'
p4064
aS'Fersk vindtransportert snoe'
p4065
aS'Fersk vindtransportert snoe'
p4066
aS'Rask temperaturstigning'
p4067
aS'Fersk vindtransportert snoe'
p4068
aS'Fersk vindtransportert snoe'
p4069
aS'Stort snoefall'
p4070
aS'Fersk vindtransportert snoe'
p4071
aS'Stort snoefall'
p4072
aS'Fersk vindtransportert snoe'
p4073
aS'Ferske skred'
p4074
aS'Ferske skred'
p4075
aS'Annet faretegn (spesifiser)'
p4076
aS'Stort snoefall'
p4077
aS'Stort snoefall'
p4078
aS'Stort snoefall'
p4079
aS'Rask temperaturstigning'
p4080
aS'Fersk vindtransportert snoe'
p4081
aS'Stort snoefall'
p4082
aS'Stort snoefall'
p4083
aS'Ferske skred'
p4084
aS'Stort snoefall'
p4085
aS'Fersk vindtransportert snoe'
p4086
aS'Stort snoefall'
p4087
aS'Stort snoefall'
p4088
aS'Ferske skred'
p4089
aS'Stort snoefall'
p4090
aS'Ingen faretegn observert'
p4091
aS'Ferske sprekker'
p4092
aS'Stort snoefall'
p4093
aS'Ferske skred'
p4094
aS'Fersk vindtransportert snoe'
p4095
aS'Stort snoefall'
p4096
aS'Ferske skred'
p4097
aS'Stort snoefall'
p4098
asI5
(lp4099
sa(lp4100
I2
aI2
aI2
aI2
aI2
aI2
aI2
aI2
aI2
aI2
aI2
aI2
aI3
aI3
aI3
aI2
aI3
aI3
aI1
aI2
aI2
aI1
aI2
aI2
aI2
aI2
aI2
aI2
aI2
aI2
aI2
aI2
aI2
aI2
aI2
aI2
aI3
aI3
aI2
aI3
aI2
aI1
aI2
aI3
aI1
aI3
aI3
aI3
aI3
aI2
aI2
aI2
aI2
aI2
aI2
aI2
aI2
aI2
aI2
aI2
aI2
aI2
aI3
aI3
aI2
aI2
aI3
aI2
aI2
aI2
aI2
aI2
aI2
aI2
aI2
aI2
aI2
aI2
aI2
aI2
aI2
aI3
aI4
aI4
aI3
aI4
aI4
aI3
aI2
aI3
aI3
aI2
aI2
aI2
aI2
aI2
aI2
aI2
aI2
aI2
aI2
aI2
aI2
aI2
aI3
aI3
aI3
aI3
aI4
aI4
aI3
aI2
aI3
aI3
aI2
aI2
aI3
aI3
aI3
aI3
aI3
aI3
aI3
aI2
aI2
aI3
aI3
aI3
aI3
aI3
aI2
aI3
aI3
aI2
aI3
aI3
aI2
aI3
aI2
aI2
aI2
aI2
aI2
aI2
aI2
aI2
aI2
aI2
aI2
aI2
aI2
aI3
aI3
aI2
aI3
aI3
aI2
aI2
aI3
aI2
aI3
aI2
aI3
aI3
aI3
aI3
aI3
aI3
aI3
aI2
aI2
aI1
aI1
aI2
aI3
aI3
aI2
aI3
aI3
aI2
aI3
aI2
aI2
aI2
aI2
aI2
aI2
aI2
aI2
aI2
aI2
aI2
aI2
aI2
aI2
aI2
aI2
aI3
aI3
aI3
aI3
aI3
aI2
aI2
aI2
aI3
aI2
aI2
aI2
aI2
aI2
aI2
aI2
aI2
aI2
aI2
aI2
aI2
aI2
aI3
aI3
aI3
aI2
aI3
aI3
aI2
aI2
aI2
aI2
aI2
aI2
aI2
aI2
aI2
aI2
aI2
aI2
aI2
aI1
aI2
aI3
aI3
aI3
aI3
aI3
aI2
aI3
aI3
aI1
aI2
aI3
aI2
aI2
aI3
aI3
aI2
aI2
aI2
aI2
aI2
aI2
aI2
aI2
aI2
aI2
aI2
aI2
aI2
aI2
aI3
aI3
aI1
aI2
aI2
aI1
aI2
aI3
aI3
aI3
aI3
aI3
aI3
aI3
aI2
aI2
aI2
aI2
aI2
aI2
aI2
aI2
aI2
aI2
aI2
aI1
aI3
aI2
aI1
aI2
aI3
aI4
aI3
aI3
aI3
aI3
aI3
aI3
aI3
aI2
aI2
aI2
aI2
aI2
aI2
aI2
aI2
aI2
aI1
aI3
aI3
aI1
aI3
aI3
aI3
aI3
aI3
aI3
aI3
aI3
aI2
aI2
aI2
aI2
aI2
aI2
aI3
aI2
aI2
aI3
aI3
aI1
aI3
aI3
aI1
aI2
aI3
aI3
aI3
aI3
aI3
aI3
aI3
aI2
aI2
aI2
aI2
aI2
aI2
aI3
aI3
aI2
aI3
aI3
aI2
aI2
aI2
aI2
aI2
aI3
aI3
aI3
aI3
aI3
aI3
aI3
aI3
aI3
aI3
aI2
aI2
aI2
aI3
aI3
aI2
aI3
aI3
aI2
aI2
aI3
aI2
aI3
aI3
aI3
aI3
aI3
aI2
aI3
aI3
aI3
aI3
aI2
aI2
aI2
aI2
aI3
aI2
aI1
aI3
aI3
aI1
aI2
aI3
aI1
aI3
aI2
aI2
aI2
aI2
aI2
aI2
aI2
aI2
aI2
aI2
aI2
aI2
aI2
aI3
aI2
aI1
aI3
aI3
aI1
aI2
aI2
aI1
aI2
aI2
aI2
aI2
aI2
aI2
aI2
aI2
aI2
aI1
aI1
aI1
aI1
aI2
aI3
aI2
aI2
aI3
aI3
aI2
aI2
aI2
aI2
aI2
aI2
aI2
aI2
aI2
aI2
aI2
aI2
aI2
aI1
aI1
aI1
aI1
aI2
aI3
aI2
aI2
aI3
aI3
aI2
aI2
aI2
aI2
aI2
aI2
aI2
aI2
aI2
aI2
aI2
aI2
aI2
aI1
aI1
aI1
aI1
aI2
aI3
aI2
aI2
aI3
aI3
aI2
aI2
aI2
aI2
aI2
aI2
aI2
aI2
aI2
aI2
aI2
aI2
aI3
aI2
aI1
aI1
aI2
aI2
aI3
aI3
aI2
aI3
aI3
aI2
aI2
aI3
aI2
aI3
aI2
aI2
aI2
aI2
aI2
aI2
aI2
aI3
aI2
aI1
aI3
aI3
aI3
aI3
aI3
aI3
aI3
aI3
aI3
aI2
aI3
aI3
aI3
aI3
aI3
aI3
aI3
aI3
aI3
aI3
aI3
aI3
aI3
aI3
aI3
aI3
aI3
aI3
aI3
aI3
aI3
aI2
aI3
aI3
aI2
aI3
aI3
aI3
aI3
aI3
aI3
aI3
aI3
aI3
aI3
aI3
aI3
aI3
aI3
aI3
aI2
aI2
aI2
aI3
aI2
aI3
aI3
aI2
aI3
aI2
aI2
aI2
aI2
aI2
aI2
aI2
aI2
aI2
aI2
aI3
aI3
aI3
aI3
aI2
aI2
aI2
aI2
aI2
aI2
aI2
aI2
aI2
aI3
aI3
aI2
aI2
aI2
aI3
aI2
aI2
aI2
aI2
aI2
aI2
aI2
aI2
aI2
aI2
aI2
aI2
aI2
aI2
aI2
aI2
aI2
aI2
aI2
aI2
aI2
aI2
aI2
aI2
aI2
aI2
aI2
aI2
aI2
aI2
aI2
aI2
aI2
aI2
aI2
aI2
aI2
aI2
aI2
aI2
aI2
aI2
aI2
aI2
aI2
aI2
aI2
aI2
aI2
aI2
aI2
aI2
aI2
aI3
aI3
aI2
aI3
aI3
aI2
aI2
aI2
aI2
aI2
aI2
aI2
aI2
aI2
aI2
aI2
aI2
aI2
aI2
aI2
aI1
aI1
aI2
aI3
aI2
aI2
aI2
aI2
aI2
aI2
aI2
aI2
aI2
aI2
aI2
aI1
aI2
aI1
aI2
aI2
aI2
aI1
aI1
aI1
aI1
aI1
aI3
aI2
aI2
aI2
aI2
aI2
aI2
aI2
aI2
aI2
aI2
aI2
aI1
aI1
aI1
aI2
aI2
aI2
aI1
aI1
aI1
aI1
aI1
aI2
aI2
aI2
aI2
aI2
aI2
aI2
aI2
aI2
aI2
aI2
aI2
aI1
aI2
aI1
aI2
aI2
aI2
aI1
aI1
aI1
aI1
aI1
aI2
aI2
aI2
aI2
aI2
aI2
aI2
aI1
aI2
aI1
aI1
aI2
aI1
aI2
aI1
aI2
aI2
aI2
aI1
aI1
aI1
aI1
aI1
aI2
aI2
aI2
aI2
aI2
aI2
aI2
aI1
aI2
aI1
aI1
aI2
aI1
aI2
aI1
aI2
aI2
aI2
aI1
aI1
aI1
aI1
aI1
aI1
aI1
aI2
aI2
aI2
aI2
aI2
aI1
aI2
aI1
aI1
aI2
aI1
aI2
aI1
aI2
aI2
aI2
aI1
aI1
aI1
aI1
aI1
aI1
aI1
aI2
aI2
aI2
aI2
aI2
aI1
aI2
aI1
aI2
aI2
aI1
aI2
aI1
aI2
aI2
aI2
aI1
aI1
aI1
aI1
aI1
aI1
aI1
aI2
aI2
aI2
aI2
aI2
aI1
aI2
aI1
aI3
aI3
aI2
aI2
aI2
aI2
aI2
aI2
aI1
aI1
aI1
aI1
aI1
aI1
aI1
aI1
aI2
aI2
aI2
aI2
aI1
aI2
aI1
aI3
aI4
aI3
aI2
aI2
aI3
aI2
aI2
aI1
aI1
aI1
aI1
aI1
aI1
aI1
aI2
aI2
aI2
aI2
aI2
aI1
aI2
aI1
aI2
aI3
aI3
aI2
aI2
aI2
aI2
aI2
aI1
aI1
aI2
aI2
aI1
aI1
aI1
aI2
aI2
aI2
aI2
aI2
aI2
aI2
aI2
aI2
aI3
aI2
aI2
aI2
aI2
aI2
aI2
aI1
aI1
aI1
aI2
aI1
aI1
aI2
aI2
aI2
aI1
aI2
aI2
aI1
aI2
aI1
aI2
aI3
aI2
aI2
aI2
aI2
aI2
aI2
aI1
aI1
aI1
aI1
aI1
aI1
aI2
aI2
aI2
aI2
aI2
aI2
aI1
aI2
aI1
aI2
aI2
aI2
aI2
aI2
aI2
aI2
aI2
aI1
aI1
aI1
aI1
aI1
aI1
aI2
aI2
aI2
aI2
aI2
aI1
aI1
aI2
aI1
aI2
aI2
aI2
aI2
aI2
aI2
aI2
aI2
aI1
aI1
aI1
aI1
aI2
aI2
aI2
aI2
aI2
aI2
aI2
aI1
aI1
aI2
aI1
aI2
aI2
aI2
aI2
aI2
aI2
aI2
aI2
aI2
aI2
aI1
aI1
aI2
aI3
aI2
aI2
aI2
aI2
aI2
aI1
aI2
aI2
aI2
aI2
aI2
aI2
aI2
aI2
aI2
aI2
aI2
aI1
aI1
aI2
aI2
aI2
aI2
aI2
aI2
aI3
aI2
aI2
aI2
aI2
aI3
aI2
aI2
aI2
aI2
aI2
aI2
aI2
aI2
aI2
aI2
aI2
aI3
aI3
aI3
aI3
aI2
aI2
aI3
aI2
aI2
aI2
aI2
aI3
aI1
aI2
aI2
aI2
aI2
aI2
aI2
aI2
aI2
aI2
aI2
aI3
aI3
aI3
aI3
aI2
aI2
aI2
aI2
aI2
aI2
aI1
aI3
aI1
aI2
aI2
aI2
aI2
aI2
aI2
aI2
aI2
aI2
aI2
aI3
aI3
aI3
aI2
aI2
aI2
aI2
aI2
aI2
aI2
aI1
aI3
aI1
aI2
aI2
aI2
aI2
aI2
aI2
aI2
aI2
aI2
aI2
aI3
aI3
aI3
aI2
aI2
aI2
aI2
aI2
aI2
aI2
aI2
aI3
aI2
aI2
aI2
aI3
aI3
aI3
aI3
aI3
aI3
aI3
aI3
aI3
aI3
aI3
aI3
aI3
aI2
aI3
aI2
aI2
aI2
aI2
aI3
aI2
aI2
aI3
aI3
aI3
aI3
aI3
aI3
aI3
aI3
aI3
aI3
aI3
aI3
aI3
aI3
aI2
aI3
aI2
aI2
aI2
aI2
aI2
aI2
aI2
aI2
aI2
aI2
aI2
aI2
aI2
aI2
aI2
aI2
aI2
aI2
aI2
aI3
aI3
aI2
aI3
aI2
aI2
aI2
aI2
aI2
aI2
aI2
aI2
aI3
aI3
aI2
aI2
aI2
aI3
aI3
aI3
aI2
aI2
aI2
aI3
aI3
aI3
aI3
aI3
aI2
aI2
aI3
aI3
aI3
aI3
aI3
aI3
aI3
aI3
aI2
aI2
aI3
aI3
aI3
aI2
aI2
aI2
aI3
aI3
aI2
aI3
aI3
aI2
aI2
aI3
aI2
aI3
aI2
aI3
aI3
aI3
aI3
aI2
aI2
aI2
aI2
aI1
aI2
aI2
aI2
aI3
aI3
aI2
aI3
aI3
aI2
aI2
aI2
aI2
aI2
aI2
aI2
aI2
aI2
aI2
aI2
aI2
aI2
aI2
aI2
aI2
aI2
aI2
aI2
aI3
aI3
aI2
aI3
aI3
aI2
aI2
aI1
aI2
aI2
aI2
aI2
aI2
aI2
aI2
aI2
aI2
aI2
aI2
aI2
aI2
aI3
aI3
aI3
aI4
aI4
aI3
aI4
aI4
aI3
aI2
aI1
aI2
aI3
aI2
aI2
aI2
aI2
aI2
aI2
aI2
aI3
aI3
aI3
aI3
aI3
aI3
aI3
aI4
aI3
aI3
aI4
aI4
aI3
aI2
aI1
aI3
aI3
aI3
aI2
aI2
aI3
aI3
aI3
aI2
aI3
aI3
aI3
aI3
aI2
aI2
aI3
aI3
aI3
aI3
aI3
aI3
aI2
aI3
aI1
aI3
aI2
aI3
aI2
aI2
aI3
aI3
aI3
aI3
aI2
aI2
aI2
aI2
aI2
aI2
aI3
aI3
aI3
aI3
aI4
aI4
aI3
aI3
aI2
aI2
aI3
aI2
aI2
aI2
aI3
aI3
aI3
aI2
aI2
aI2
aI2
aI2
aI2
aI2
aI3
aI3
aI3
aI3
aI3
aI4
aI3
aI2
aI2
aI2
aI3
aI2
aI2
aI2
aI3
aI3
aI2
aI2
aI2
aI2
aI2
aI2
aI3
aI3
aI3
aI3
aI2
aI2
aI3
aI3
aI2
aI3
aI3
aI2
aI2
aI2
aI2
aI2
aI3
aI3
aI2
aI2
aI2
aI2
aI3
aI3
aI3
aI3
aI3
aI3
aI2
aI2
aI3
aI3
aI2
aI3
aI3
aI3
aI2
aI3
aI2
aI2
aI3
aI3
aI2
aI2
aI2
aI2
aI2
aI2
aI3
aI3
aI3
aI3
aI2
aI2
aI3
aI3
aI2
aI2
aI2
aI2
aI2
aI2
aI2
aI3
aI3
aI3
aI2
aI3
aI3
aI3
aI2
aI2
aI3
aI3
aI3
aI3
aI2
aI2
aI3
aI3
aI2
aI3
aI2
aI2
aI2
aI2
aI2
aI3
aI3
aI3
aI3
aI3
aI3
aI3
aI3
aI3
aI2
aI2
aI2
aI3
aI3
aI3
aI3
aI4
aI3
aI3
aI2
aI3
aI3
aI3
aI2
aI3
aI3
aI3
aI2
aI3
aI3
aI3
aI3
aI3
aI2
aI2
aI2
aI3
aI2
aI2
aI3
aI3
aI2
aI3
aI2
aI3
aI2
aI3
aI2
aI3
aI3
aI3
aI2
aI3
aI2
aI2
aI2
aI2
aI2
aI2
aI2
aI2
aI2
aI3
aI3
aI3
aI2
aI3
aI2
aI2
aI3
aI2
aI2
aI2
aI3
aI3
aI2
aI2
aI2
aI2
aI2
aI2
aI2
aI2
aI2
aI1
aI2
aI3
aI2
aI2
aI2
aI3
aI2
aI2
aI2
aI2
aI3
aI3
aI3
aI3
aI3
aI3
aI2
aI2
aI3
aI3
aI2
aI2
aI2
aI2
aI2
aI3
aI2
aI2
aI2
aI3
aI2
aI3
aI2
aI3
aI3
aI3
aI3
aI3
aI3
aI3
aI2
aI2
aI3
aI3
aI2
aI2
aI2
aI2
aI2
aI2
aI2
aI2
aI2
aI3
aI2
aI3
aI2
aI3
aI3
aI3
aI3
aI3
aI3
aI3
aI2
aI3
aI3
aI3
aI2
aI2
aI2
aI2
aI2
aI2
aI2
aI2
aI2
aI2
aI2
aI3
aI2
aI3
aI3
aI3
aI3
aI3
aI2
aI3
aI2
aI2
aI3
aI2
aI2
aI2
aI2
aI2
aI2
aI2
aI2
aI2
aI2
aI2
aI2
aI2
aI2
aI2
aI3
aI3
aI3
aI3
aI2
aI3
aI2
aI3
aI3
aI3
aI2
aI2
aI2
aI2
aI2
aI2
aI2
aI2
aI2
aI3
aI2
aI3
aI2
aI3
aI3
aI3
aI3
aI3
aI3
aI3
aI3
aI3
aI3
aI3
aI3
aI3
aI3
aI3
aI3
aI2
aI3
aI3
aI2
aI3
aI2
aI3
aI2
aI3
aI3
aI3
aI3
aI3
aI3
aI3
aI3
aI3
aI3
aI3
aI3
aI3
aI3
aI3
aI3
aI2
aI3
aI3
aI2
aI3
aI2
aI3
aI2
aI3
aI3
aI3
aI2
aI2
aI2
aI2
aI2
aI2
aI2
aI2
aI2
aI2
aI3
aI3
aI3
aI2
aI3
aI3
aI2
aI2
aI2
aI2
aI2
aI2
aI2
aI2
aI2
aI2
aI2
aI2
aI2
aI2
aI2
aI2
aI2
aI2
aI2
aI3
aI3
aI2
aI3
aI3
aI2
aI2
aI2
aI2
aI2
aI2
aI2
aI2
aI2
aI2
aI2
aI2
aI2
aI2
aI2
aI2
aI2
aI2
aI2
aI3
aI3
aI2
aI3
aI3
aI2
aI2
aI2
aI2
aI2
aI2
aI2
aI2
aI2
aI2
aI2
aI2
aI2
aI2
aI2
aI2
aI2
aI2
aI3
aI3
aI3
aI2
aI3
aI3
aI3
aI2
aI2
aI2
aI2
aI2
aI2
aI2
aI2
aI2
aI2
aI2
aI2
aI2
aI2
aI2
aI2
aI2
aI3
aI3
aI3
aI2
aI3
aI3
aI3
aI2
aI2
aI2
aI2
aI2
aI2
aI2
aI2
aI2
aI2
aI2
aI2
aI2
aI2
aI2
aI3
aI3
aI3
aI3
aI3
aI2
aI3
aI3
aI3
aI2
aI3
aI2
aI2
aI2
aI2
aI2
aI2
aI2
aI2
aI2
aI2
aI2
aI2
aI2
aI3
aI3
aI3
aI3
aI3
aI2
aI3
aI3
aI2
aI2
aI3
aI2
aI2
aI2
aI2
aI2
aI2
aI2
aI2
aI2
aI2
aI2
aI2
aI2
aI3
aI4
aI4
aI3
aI2
aI2
aI3
aI3
aI2
aI2
aI3
aI2
aI2
aI2
aI2
aI2
aI2
aI2
aI2
aI2
aI2
aI2
aI2
aI2
aI3
aI3
aI3
aI3
aI2
aI2
aI2
aI2
aI2
aI2
aI3
aI2
aI2
aI2
aI2
aI2
aI2
aI2
aI2
aI2
aI2
aI2
aI2
aI2
aI3
aI3
aI3
aI3
aI2
aI2
aI2
aI2
aI2
aI2
aI2
aI2
aI2
aI2
aI2
aI2
aI2
aI2
aI2
aI2
aI2
aI2
aI2
aI2
aI3
aI3
aI3
aI2
aI2
aI2
aI2
aI2
aI2
aI2
aI2
aI2
aI2
aI2
aI2
aI2
aI2
aI2
aI2
aI2
aI2
aI2
aI2
aI2
aI3
aI3
aI3
aI2
aI2
aI2
aI2
aI2
aI2
aI2
aI2
aI2
aI2
aI2
aI3
aI3
aI3
aI3
aI3
aI3
aI3
aI3
aI3
aI3
aI3
aI3
aI3
aI3
aI3
aI2
aI3
aI3
aI3
aI3
aI2
aI3
aI3
aI3
aI3
aI2
aI3
aI3
aI3
aI2
aI3
aI3
aI3
aI2
aI2
aI2
aI2
aI3
aI3
aI2
aI3
aI3
aI3
aI2
aI3
aI3
aI3
aI3
aI3
aI2
aI2
aI2
aI2
aI2
aI2
aI2
aI2
aI2
aI2
aI2
aI2
aI2
aI3
aI3
aI2
aI3
aI3
aI2
aI3
aI2
aI3
aI2
aI2
aI2
aI2
aI2
aI2
aI2
aI2
aI2
aI2
aI2
aI2
aI2
aI2
aI2
aI2
aI3
aI2
aI2
aI2
aI2
aI2
aI2
aI3
aI2
aI2
aI2
aI2
aI2
aI2
aI2
aI2
aI2
aI2
aI2
aI2
aI2
aI2
aI2
aI2
aI2
aI2
aI2
aI2
aI2
aI3
aI2
aI2
aI2
aI2
aI2
aI2
aI2
aI2
aI2
aI2
aI2
aI2
aI2
aI2
aI2
aI2
aI2
aI2
aI2
aI2
aI2
aI2
aI2
aI2
aI2
aI2
aI2
aI2
aI2
aI2
aI2
aI2
aI2
aI2
aI2
aI2
aI2
aI2
aI2
aI2
aI2
aI2
aI2
aI2
aI2
aI2
aI2
aI2
aI2
aI2
aI2
aI2
aI2
aI2
aI2
aI2
aI2
aI2
aI2
aI2
aI2
aI2
aI2
aI2
aI2
aI2
aI2
aI2
aI2
aI2
aI2
aI2
aI2
aI2
aI2
aI2
aI2
aI2
aI2
aI2
aI2
aI2
aI2
aI2
aI2
aI2
aI2
aI2
aI2
aI2
aI2
aI2
aI2
aI2
aI2
aI2
aI2
aI2
aI2
aI1
aI2
aI2
aI2
aI2
aI2
aI2
aI2
aI2
aI3
aI2
aI2
aI2
aI2
aI2
aI2
aI2
aI2
aI2
aI2
aI2
aI3
aI2
aI2
aI1
aI2
aI2
aI2
aI2
aI2
aI2
aI3
aI3
aI3
aI2
aI2
aI2
aI2
aI2
aI2
aI2
aI2
aI2
aI2
aI3
aI3
aI2
aI3
aI2
aI2
aI3
aI2
aI3
aI2
aI2
aI3
aI3
aI3
aI2
aI2
aI2
aI2
aI2
aI2
aI2
aI2
aI2
aI2
aI3
aI2
aI2
aI2
aI2
aI2
aI2
aI2
aI2
aI2
aI2
aI3
aI3
aI3
aI3
aI3
aI3
aI3
aI2
aI2
aI3
aI3
aI2
aI2
aI3
aI2
aI2
aI2
aI2
aI2
aI2
aI2
aI2
aI2
aI2
aI2
aI2
aI2
aI3
aI3
aI3
aI3
aI3
aI3
aI3
aI3
aI3
aI2
aI3
aI2
aI3
aI2
aI2
aI2
aI2
aI2
aI2
aI2
aI2
aI2
aI2
aI2
aI2
aI2
aI2
aI2
aI2
aI2
aI2
aI2
aI2
aI2
aI3
aI2
aI2
aI3
aI3
aI3
aI2
aI2
aI2
aI3
aI3
aI3
aI2
aI2
aI2
aI2
aI2
aI2
aI2
aI2
aI2
aI2
aI2
aI3
aI3
aI3
aI2
aI3
aI3
aI3
aI3
aI3
aI3
aI3
aI3
aI3
aI2
aI1
aI2
aI2
aI2
aI2
aI2
aI2
aI2
aI2
aI2
aI3
aI3
aI3
aI2
aI3
aI3
aI3
aI3
aI3
aI3
aI3
aI3
aI3
aI2
aI2
aI2
aI2
aI2
aI1
aI2
aI1
aI1
aI1
aI1
aI3
aI3
aI2
aI1
aI3
aI3
aI3
aI3
aI3
aI3
aI3
aI3
aI3
aI2
aI2
aI3
aI3
aI2
aI1
aI2
aI1
aI1
aI1
aI1
aI3
aI2
aI2
aI1
aI2
aI3
aI3
aI3
aI3
aI3
aI3
aI2
aI2
aI2
aI2
aI3
aI3
aI2
aI1
aI1
aI1
aI1
aI1
aI1
aI2
aI2
aI2
aI1
aI2
aI3
aI3
aI2
aI2
aI2
aI3
aI2
aI2
aI2
aI1
aI2
aI2
aI2
aI2
aI1
aI1
aI2
aI2
aI1
aI2
aI2
aI2
aI1
aI2
aI2
aI2
aI2
aI2
aI2
aI2
aI2
aI2
aI2
aI1
aI2
aI2
aI2
aI2
aI1
aI1
aI2
aI2
aI1
aI2
aI2
aI2
aI1
aI2
aI3
aI3
aI3
aI3
aI3
aI3
aI2
aI2
aI2
aI2
aI2
aI2
aI2
aI2
aI1
aI1
aI2
aI2
aI1
aI2
aI2
aI2
aI1
aI2
aI2
aI2
aI2
aI2
aI2
aI2
aI2
aI2
aI2
aI2
aI2
aI2
aI2
aI2
aI2
aI1
aI2
aI2
aI1
aI2
aI2
aI2
aI1
aI2
aI2
aI2
aI2
aI2
aI2
aI2
aI2
aI2
aI2
aI3
aI2
aI2
aI2
aI2
aI2
aI2
aI2
aI2
aI2
aI2
aI2
aI2
aI2
aI2
aI3
aI3
aI3
aI3
aI3
aI3
aI3
aI3
aI3
aI3
aI2
aI2
aI2
aI2
aI2
aI2
aI2
aI2
aI2
aI3
aI2
aI3
aI2
aI3
aI3
aI3
aI3
aI3
aI3
aI3
aI3
aI3
aI3
aI3
aI2
aI2
aI2
aI3
aI3
aI2
aI3
aI3
aI2
aI3
aI2
aI3
aI2
aI3
aI2
aI2
aI2
aI2
aI2
aI2
aI2
aI2
aI2
aI2
aI2
aI2
aI2
aI2
aI2
aI3
aI2
aI2
aI3
aI2
aI3
aI2
aI3
aI2
aI2
aI2
aI2
aI2
aI2
aI2
aI2
aI2
aI2
aI2
aI2
aI2
aI2
aI2
aI2
aI3
aI2
aI2
aI3
aI2
aI3
aI2
aI3
aI2
aI2
aI2
aI2
aI2
aI2
aI2
aI2
aI2
aI1
aI2
aI1
aI1
aI2
aI2
aI2
aI2
aI2
aI2
aI2
aI2
aI3
aI2
aI2
aI2
aI2
aI2
aI2
aI2
aI2
aI2
aI2
aI2
aI2
aI2
aI2
aI2
aI2
aI2
aI2
aI2
aI2
aI2
aI2
aI2
aI2
aI2
aI2
aI2
aI1
aI2
aI2
aI2
aI2
aI2
aI2
aI1
aI2
aI2
aI2
aI2
aI2
aI2
aI2
aI2
aI2
aI2
aI2
aI2
aI2
aI1
aI2
aI1
aI1
aI1
aI1
aI1
aI1
aI1
aI1
aI1
aI1
aI1
aI2
aI2
aI2
aI3
aI2
aI2
aI3
aI3
aI2
aI1
aI2
aI2
aI2
aI2
aI1
aI1
aI1
aI1
aI1
aI1
aI1
aI1
aI2
aI2
aI2
aI2
aI2
aI2
aI2
aI2
aI2
aI2
aI2
aI1
aI2
aI2
aI2
aI1
aI1
aI1
aI1
aI1
aI2
aI1
aI1
aI1
aI2
aI2
aI2
aI2
aI2
aI2
aI2
aI2
aI2
aI2
aI2
aI2
aI2
aI2
aI2
aI1
aI1
aI1
aI1
aI1
aI1
aI1
aI1
aI1
aI1
aI1
aI1
aI1
aI2
aI2
aI2
aI2
aI2
aI2
aI2
aI1
aI2
aI1
aI2
aI1
aI1
aI1
aI1
aI1
aI1
aI1
aI1
aI1
aI1
aI1
aI1
aI2
aI2
aI2
aI2
aI2
aI2
aI2
aI1
aI1
aI2
aI1
aI2
aI1
aI2
aI2
aI1
aI2
aI1
aI2
aI2
aI2
aI2
aI2
aI2
aI2
aI2
aI1
aI2
aI2
aI1
aI1
aI1
aI2
aI2
aI2
aI1
aI2
aI2
aI2
aI1
aI1
aI1
aI1
aI2
aI2
aI2
aI2
aI2
aI2
aI2
aI2
aI2
aI2
aI2
aI2
aI1
aI1
aI2
aI2
aI1
aI2
aI2
aI2
aI1
aI1
aI1
aI2
aI1
aI1
aI1
aI1
aI2
aI2
aI2
aI2
aI2
aI2
aI2
aI2
aI1
aI1
aI2
aI2
aI2
aI2
aI2
aI2
aI1
aI1
aI1
aI2
aI1
aI1
aI1
aI1
aI2
aI2
aI2
aI2
aI2
aI2
aI2
aI2
aI1
aI1
aI2
aI2
aI2
aI2
aI2
aI2
aI2
aI2
aI2
aI2
aI2
aI2
aI2
aI2
aI2
aI2
aI2
aI2
aI2
aI2
aI2
aI2
aI1
aI2
aI2
aI2
aI1
aI2
aI2
aI2
aI2
aI2
aI2
aI2
aI2
aI2
aI2
aI2
aI2
aI2
aI2
aI2
aI2
aI2
aI2
aI2
aI1
aI2
aI3
aI2
aI1
aI2
aI2
aI2
aI2
aI2
aI2
aI2
aI2
aI1
aI2
aI2
aI1
aI1
aI1
aI1
aI1
aI2
aI1
aI1
aI1
aI2
aI3
aI2
aI1
aI2
aI2
aI2
aI2
aI2
aI2
aI2
aI2
aI2
aI2
aI2
aI1
aI1
aI1
aI2
aI2
aI2
aI2
aI2
aI2
aI2
aI2
aI2
aI2
aI2
aI2
aI2
aI2
aI2
aI2
aI2
aI2
aI2
aI2
aI2
aI2
aI2
aI2
aI2
aI2
aI2
aI2
aI2
aI2
aI2
aI2
aI3
aI2
aI2
aI2
aI2
aI2
aI2
aI2
aI2
aI2
aI2
aI2
aI2
aI2
aI2
aI2
aI2
aI2
aI2
aI2
aI2
aI2
aI2
aI2
aI2
aI2
aI2
aI1
aI1
aI1
aI1
aI1
aI2
aI1
aI1
aI1
aI1
aI2
aI2
aI2
aI2
aI1
aI1
aI2
aI2
aI1
aI1
aI2
aI2
aI1
aI2
aI1
aI1
aI1
aI1
aI1
aI2
aI1
aI1
aI1
aI1
aI2
aI2
aI2
aI3
aI3
aI2
aI3
aI3
aI2
aI1
aI2
aI1
aI2
aI1
aI1
aI1
aI2
aI2
aI1
aI2
aI1
aI1
aI2
aI2
aI2
aI2
aI2
aI2
aI2
aI2
aI3
aI3
aI2
aI1
aI2
aI2
aI2
aI2
aI2
aI2
aI1
aI2
aI1
aI2
aI1
aI1
aI1
aI1
aI2
aI2
aI2
aI2
aI2
aI2
aI2
aI2
aI2
aI1
aI2
aI2
aI2
aI2
aI1
aI1
aI1
aI2
aI1
aI2
aI1
aI1
aI1
aI1
aI3
aI3
aI3
aI3
aI3
aI3
aI3
aI3
aI2
aI1
aI2
aI2
aI2
aI2
aI1
aI1
aI1
aI2
aI1
aI2
aI1
aI1
aI1
aI1
aI3
aI3
aI3
aI3
aI3
aI3
aI2
aI2
aI2
aI1
aI2
aI2
aI2
aI1
aI2
aI2
aI2
aI2
aI1
aI2
aI1
aI1
aI1
aI1
aI2
aI2
aI2
aI2
aI3
aI3
aI2
aI2
aI1
aI1
aI2
aI2
aI2
aI1
aI2
aI2
aI1
aI2
aI1
aI2
aI1
aI1
aI1
aI1
aI2
aI2
aI2
aI2
aI3
aI3
aI2
aI1
aI1
aI1
aI2
aI2
aI2
aI2
aI2
aI2
aI1
aI2
aI1
aI2
aI2
aI2
aI1
aI1
aI2
aI3
aI2
aI2
aI3
aI3
aI2
aI1
aI1
aI2
aI2
aI2
aI3
aI2
aI2
aI2
aI1
aI2
aI1
aI2
aI2
aI2
aI1
aI1
aI2
aI3
aI2
aI2
aI3
aI3
aI2
aI1
aI2
aI2
aI2
aI2
aI3
aI2
aI2
aI2
aI2
aI2
aI1
aI2
aI2
aI2
aI1
aI1
aI2
aI2
aI2
aI2
aI3
aI3
aI2
aI1
aI1
aI2
aI2
aI2
aI2
aI2
aI2
aI2
aI2
aI2
aI2
aI2
aI2
aI2
aI2
aI2
aI2
aI2
aI2
aI2
aI3
aI3
aI2
aI1
aI1
aI2
aI2
aI2
aI2
aI2
aI2
aI2
aI2
aI2
aI2
aI2
aI2
aI2
aI2
aI2
aI3
aI3
aI3
aI3
aI3
aI3
aI2
aI1
aI1
aI3
aI2
aI2
aI2
aI2
aI3
aI3
aI3
aI3
aI3
aI3
aI3
aI3
aI2
aI2
aI3
aI3
aI3
aI3
aI3
aI3
aI2
aI1
aI2
aI3
aI2
aI3
aI3
aI3
aI3
aI3
aI2
aI3
aI2
aI3
aI3
aI3
aI2
aI2
aI2
aI2
aI2
aI2
aI3
aI3
aI2
aI2
aI1
aI3
aI2
aI3
aI3
aI3
aI2
aI3
aI2
aI3
aI2
aI3
aI2
aI2
aI2
aI2
aI3
aI3
aI3
aI3
aI3
aI3
aI3
aI2
aI2
aI3
aI2
aI2
aI3
aI2
aI2
aI2
aI2
aI2
aI2
aI2
aI2
aI2
aI2
aI2
aI3
aI3
aI3
aI3
aI3
aI3
aI3
aI2
aI2
aI3
aI2
aI2
aI3
aI2
aI2
aI2
aI2
aI2
aI2
aI2
aI2
aI2
aI2
aI2
aI3
aI3
aI3
aI2
aI3
aI3
aI2
aI2
aI2
aI2
aI2
aI2
aI3
aI2
aI2
aI2
aI2
aI2
aI2
aI2
aI2
aI2
aI1
aI1
aI3
aI3
aI3
aI2
aI3
aI3
aI2
aI2
aI2
aI2
aI2
aI2
aI2
aI2
aI2
aI2
aI2
aI2
aI1
aI2
aI2
aI2
aI1
aI1
aI2
aI2
aI2
aI2
aI3
aI3
aI2
aI2
aI2
aI2
aI2
aI2
aI2
aI2
aI2
aI2
aI2
aI2
aI1
aI2
aI2
aI2
aI1
aI1
aI2
aI2
aI2
aI2
aI3
aI3
aI2
aI2
aI2
aI2
aI3
aI2
aI2
aI2
aI2
aI2
aI2
aI2
aI1
aI2
aI2
aI2
aI1
aI1
aI3
aI3
aI3
aI3
aI3
aI3
aI3
aI3
aI2
aI2
aI2
aI2
aI2
aI2
aI2
aI2
aI2
aI2
aI1
aI2
aI2
aI2
aI1
aI1
aI2
aI2
aI2
aI2
aI2
aI3
aI2
aI2
aI2
aI2
aI2
aI2
aI2
aI2
aI2
aI2
aI2
aI2
aI1
aI2
aI2
aI2
aI1
aI1
aI2
aI2
aI2
aI2
aI2
aI2
aI2
aI2
aI2
aI2
aI2
aI2
aI2
aI2
aI1
aI1
aI1
aI1
aI1
aI1
aI1
aI1
aI1
aI1
aI2
aI2
aI2
aI2
aI2
aI2
aI2
aI2
aI2
aI1
aI2
aI1
aI2
aI1
aI1
aI1
aI1
aI1
aI1
aI1
aI1
aI2
aI2
aI2
aI2
aI2
aI2
aI2
aI2
aI2
aI2
aI2
aI2
aI1
aI3
aI2
aI2
aI2
aI2
aI2
aI1
aI1
aI1
aI2
aI1
aI2
aI2
aI2
aI1
aI1
aI1
aI2
aI2
aI2
aI2
aI1
aI1
aI1
aI3
aI2
aI1
aI2
aI1
aI1
aI1
aI1
aI1
aI1
aI1
aI2
aI2
aI2
aI2
aI2
aI2
aI1
aI2
aI2
aI1
aI1
aI1
aI1
aI2
aI2
aI1
aI2
aI1
aI1
aI1
aI1
aI1
aI1
aI1
aI2
aI2
aI2
aI2
aI2
aI2
aI1
aI1
aI1
aI1
aI1
aI1
aI1
aI2
aI2
aI1
aI2
aI1
aI1
aI1
aI1
aI1
aI1
aI1
aI2
aI2
aI2
aI2
aI2
aI2
aI1
aI1
aI2
aI1
aI1
aI1
aI1
aI2
aI2
aI1
aI2
aI2
aI2
aI2
aI2
aI2
aI2
aI2
aI2
aI2
aI2
aI2
aI2
aI2
aI1
aI1
aI1
aI1
aI1
aI1
aI2
aI2
aI2
aI1
aI2
aI2
aI2
aI2
aI2
aI2
aI2
aI2
aI2
aI2
aI2
aI2
aI2
aI2
aI1
aI2
aI2
aI2
aI2
aI1
aI2
aI2
aI2
aI2
aI2
aI1
aI1
aI2
aI2
aI2
aI2
aI2
aI2
aI2
aI2
aI2
aI2
aI2
aI2
aI2
aI2
aI2
aI2
aI1
aI2
aI2
aI2
aI2
aI2
aI1
aI1
aI1
aI1
aI1
aI1
aI1
aI1
aI1
aI1
aI2
aI2
aI2
aI2
aI2
aI2
aI2
aI2
aI2
aI1
aI2
aI2
aI2
aI2
aI2
aI2
aI2
aI2
aI2
aI2
aI2
aI2
aI2
aI2
aI2
aI2
aI2
aI2
aI2
aI2
aI2
aI2
aI2
aI2
aI2
aI2
aI2
aI2
aI2
aI2
aI2
aI2
aI2
aI2
aI2
aI2
aI2
aI2
aI2
aI3
aI3
aI3
aI3
aI3
aI3
aI3
aI3
aI2
aI2
aI2
aI3
aI2
aI2
aI2
aI2
aI2
aI2
aI2
aI2
aI2
aI2
aI2
aI2
aI2
aI2
aI2
aI2
aI3
aI2
aI2
aI3
aI2
aI2
aI2
aI3
aI2
aI2
aI2
aI2
aI2
aI2
aI2
aI2
aI2
aI2
aI2
aI2
aI2
aI2
aI2
aI2
aI2
aI2
aI2
aI2
aI2
aI2
aI2
aI2
aI2
aI2
aI2
aI2
aI2
aI2
aI2
aI2
aI2
aI1
aI1
aI2
aI1
aI1
aI1
aI2
aI2
aI2
aI2
aI2
aI2
aI2
aI2
aI2
aI2
aI2
aI2
aI2
aI2
aI1
aI2
aI2
aI2
aI1
aI1
aI2
aI2
aI2
aI1
aI2
aI2
aI1
aI2
aI2
aI2
aI2
aI1
aI2
aI1
aI2
aI2
aI2
aI2
aI1
aI2
aI2
aI2
aI1
aI1
aI1
aI2
aI2
aI1
aI2
aI2
aI1
aI1
aI1
aI2
aI2
aI2
aI1
aI2
aI1
aI1
aI1
aI1
aI1
aI1
aI1
aI1
aI1
aI1
aI1
aI2
aI2
aI2
aI2
aI2
aI2
aI2
aI1
aI1
aI2
aI1
aI1
aI1
aI1
aI1
aI1
aI1
aI1
aI1
aI1
aI1
aI1
aI1
aI1
aI2
aI2
aI2
aI1
aI1
aI2
aI2
aI1
aI1
aI2
aI1
aI1
aI1
aI1
aI1
aI1
aI1
aI1
aI1
aI1
aI1
aI1
aI1
aI1
aI1
aI1
aI1
aI1
aI1
aI1
aI1
aI1
aI1
aI2
aI1
aI1
aI1
aI1
aI1
aI1
aI1
aI1
aI1
aI1
aI1
aI1
aI1
aI1
aI1
aI1
aI1
aI1
aI1
aI1
aI1
aI1
aI1
aI2
aI1
aI1
aI1
aa.