(lp0
(dp1
I1
(lp2
S'Rimkrystaller'
p3
aS'Ingen faretegn observert'
p4
aS'Rask temperaturstigning'
p5
aS'Fersk vindtransportert snoe'
p6
aS'Ingen faretegn observert'
p7
aS'Mye vann i snoeen'
p8
aS'Ingen faretegn observert'
p9
aS'Ingen faretegn observert'
p10
aS'Mye vann i snoeen'
p11
aS'Ingen faretegn observert'
p12
aS'Ingen faretegn observert'
p13
aS'Ingen faretegn observert'
p14
aS'Fersk vindtransportert snoe'
p15
aS'Fersk vindtransportert snoe'
p16
aS'Ingen faretegn observert'
p17
aS'Fersk vindtransportert snoe'
p18
aS'Ingen faretegn observert'
p19
aS'Rimkrystaller'
p20
aS'Rimkrystaller'
p21
aS'Ingen faretegn observert'
p22
aS'Rimkrystaller'
p23
aS'Ingen faretegn observert'
p24
aS'Rimkrystaller'
p25
aS'Ingen faretegn observert'
p26
aS'Rimkrystaller'
p27
aS'Fersk vindtransportert snoe'
p28
aS'Ingen faretegn observert'
p29
aS'Rimkrystaller'
p30
aS'Rimkrystaller'
p31
aS'Rimkrystaller'
p32
aS'Rimkrystaller'
p33
aS'Ingen faretegn observert'
p34
aS'Ingen faretegn observert'
p35
aS'Ingen faretegn observert'
p36
aS'Ingen faretegn observert'
p37
aS'Ferske skred'
p38
aS'Fersk vindtransportert snoe'
p39
aS'Fersk vindtransportert snoe'
p40
aS'Fersk vindtransportert snoe'
p41
aS'Fersk vindtransportert snoe'
p42
aS'Fersk vindtransportert snoe'
p43
aS'Fersk vindtransportert snoe'
p44
aS'Ingen faretegn observert'
p45
aS'Ingen faretegn observert'
p46
aS'Ingen faretegn observert'
p47
aS'Droenn i snoeen'
p48
aS'Fersk vindtransportert snoe'
p49
aS'Ferske sprekker'
p50
aS'Ingen faretegn observert'
p51
aS'Droenn i snoeen'
p52
aS'Ingen faretegn observert'
p53
aS'Ingen faretegn observert'
p54
aS'Ingen faretegn observert'
p55
aS'Ingen faretegn observert'
p56
aS'Ingen faretegn observert'
p57
aS'Droenn i snoeen'
p58
aS'Ingen faretegn observert'
p59
aS'Ingen faretegn observert'
p60
aS'Annet faretegn (spesifiser)'
p61
aS'Rimkrystaller'
p62
aS'Ingen faretegn observert'
p63
aS'Rimkrystaller'
p64
aS'Annet faretegn (spesifiser)'
p65
aS'Ingen faretegn observert'
p66
aS'Fersk vindtransportert snoe'
p67
aS'Fersk vindtransportert snoe'
p68
aS'Ferske sprekker'
p69
aS'Ingen faretegn observert'
p70
aS'Fersk vindtransportert snoe'
p71
aS'Fersk vindtransportert snoe'
p72
aS'Ingen faretegn observert'
p73
aS'Fersk vindtransportert snoe'
p74
aS'Ingen faretegn observert'
p75
aS'Ingen faretegn observert'
p76
aS'Rimkrystaller'
p77
aS'Fersk vindtransportert snoe'
p78
aS'Ingen faretegn observert'
p79
aS'Ingen faretegn observert'
p80
aS'Rimkrystaller'
p81
aS'Fersk vindtransportert snoe'
p82
aS'Ingen faretegn observert'
p83
aS'Mye vann i snoeen'
p84
aS'Ingen faretegn observert'
p85
aS'Annet faretegn (spesifiser)'
p86
aS'Mye vann i snoeen'
p87
aS'Annet faretegn (spesifiser)'
p88
aS'Ingen faretegn observert'
p89
aS'Ingen faretegn observert'
p90
aS'Fersk vindtransportert snoe'
p91
aS'Rimkrystaller'
p92
aS'Rimkrystaller'
p93
aS'Ingen faretegn observert'
p94
aS'Ingen faretegn observert'
p95
aS'Fersk vindtransportert snoe'
p96
aS'Ferske sprekker'
p97
aS'Ingen faretegn observert'
p98
aS'Ingen faretegn observert'
p99
aS'Ingen faretegn observert'
p100
aS'Ingen faretegn observert'
p101
aS'Ingen faretegn observert'
p102
aS'Ingen faretegn observert'
p103
aS'Ingen faretegn observert'
p104
aS'Ingen faretegn observert'
p105
aS'Ingen faretegn observert'
p106
aS'Ingen faretegn observert'
p107
aS'Ingen faretegn observert'
p108
aS'Ingen faretegn observert'
p109
aS'Ingen faretegn observert'
p110
aS'Ingen faretegn observert'
p111
aS'Ingen faretegn observert'
p112
aS'Ingen faretegn observert'
p113
aS'Ingen faretegn observert'
p114
aS'Fersk vindtransportert snoe'
p115
aS'Ingen faretegn observert'
p116
aS'Ingen faretegn observert'
p117
aS'Ingen faretegn observert'
p118
aS'Mye vann i snoeen'
p119
aS'Ingen faretegn observert'
p120
aS'Droenn i snoeen'
p121
aS'Fersk vindtransportert snoe'
p122
aS'Fersk vindtransportert snoe'
p123
aS'Fersk vindtransportert snoe'
p124
aS'Ferske skred'
p125
aS'Ingen faretegn observert'
p126
aS'Fersk vindtransportert snoe'
p127
aS'Annet faretegn (spesifiser)'
p128
aS'Ingen faretegn observert'
p129
aS'Ingen faretegn observert'
p130
aS'Ingen faretegn observert'
p131
aS'Ingen faretegn observert'
p132
aS'Ingen faretegn observert'
p133
aS'Fersk vindtransportert snoe'
p134
aS'Ingen faretegn observert'
p135
aS'Ingen faretegn observert'
p136
aS'Ingen faretegn observert'
p137
aS'Mye vann i snoeen'
p138
aS'Mye vann i snoeen'
p139
asI2
(lp140
S'Ingen faretegn observert'
p141
aS'Ingen faretegn observert'
p142
aS'Ferske sprekker'
p143
aS'Ingen faretegn observert'
p144
aS'Annet faretegn (spesifiser)'
p145
aS'Fersk vindtransportert snoe'
p146
aS'Ferske sprekker'
p147
aS'Ferske skred'
p148
aS'Fersk vindtransportert snoe'
p149
aS'Droenn i snoeen'
p150
aS'Rimkrystaller'
p151
aS'Rimkrystaller'
p152
aS'Ingen faretegn observert'
p153
aS'Fersk vindtransportert snoe'
p154
aS'Ingen faretegn observert'
p155
aS'Droenn i snoeen'
p156
aS'Ingen faretegn observert'
p157
aS'Droenn i snoeen'
p158
aS'Stort snoefall'
p159
aS'Fersk vindtransportert snoe'
p160
aS'Fersk vindtransportert snoe'
p161
aS'Droenn i snoeen'
p162
aS'Ingen faretegn observert'
p163
aS'Ingen faretegn observert'
p164
aS'Droenn i snoeen'
p165
aS'Ingen faretegn observert'
p166
aS'Fersk vindtransportert snoe'
p167
aS'Fersk vindtransportert snoe'
p168
aS'Fersk vindtransportert snoe'
p169
aS'Fersk vindtransportert snoe'
p170
aS'Ferske skred'
p171
aS'Fersk vindtransportert snoe'
p172
aS'Fersk vindtransportert snoe'
p173
aS'Fersk vindtransportert snoe'
p174
aS'Fersk vindtransportert snoe'
p175
aS'Droenn i snoeen'
p176
aS'Ferske sprekker'
p177
aS'Ingen faretegn observert'
p178
aS'Ingen faretegn observert'
p179
aS'Ingen faretegn observert'
p180
aS'Ferske skred'
p181
aS'Ingen faretegn observert'
p182
aS'Fersk vindtransportert snoe'
p183
aS'Ingen faretegn observert'
p184
aS'Fersk vindtransportert snoe'
p185
aS'Fersk vindtransportert snoe'
p186
aS'Fersk vindtransportert snoe'
p187
aS'Fersk vindtransportert snoe'
p188
aS'Ingen faretegn observert'
p189
aS'Droenn i snoeen'
p190
aS'Fersk vindtransportert snoe'
p191
aS'Rimkrystaller'
p192
aS'Ferske sprekker'
p193
aS'Stort snoefall'
p194
aS'Ferske sprekker'
p195
aS'Fersk vindtransportert snoe'
p196
aS'Ferske sprekker'
p197
aS'Stort snoefall'
p198
aS'Ingen faretegn observert'
p199
aS'Fersk vindtransportert snoe'
p200
aS'Ferske sprekker'
p201
aS'Ferske sprekker'
p202
aS'Fersk vindtransportert snoe'
p203
aS'Droenn i snoeen'
p204
aS'Ferske sprekker'
p205
aS'Ferske sprekker'
p206
aS'Fersk vindtransportert snoe'
p207
aS'Rimkrystaller'
p208
aS'Ingen faretegn observert'
p209
aS'Stort snoefall'
p210
aS'Fersk vindtransportert snoe'
p211
aS'Ingen faretegn observert'
p212
aS'Stort snoefall'
p213
aS'Ingen faretegn observert'
p214
aS'Ingen faretegn observert'
p215
aS'Fersk vindtransportert snoe'
p216
aS'Ferske skred'
p217
aS'Fersk vindtransportert snoe'
p218
aS'Fersk vindtransportert snoe'
p219
aS'Fersk vindtransportert snoe'
p220
aS'Fersk vindtransportert snoe'
p221
aS'Ingen faretegn observert'
p222
aS'Rask temperaturstigning'
p223
aS'Ferske sprekker'
p224
aS'Ingen faretegn observert'
p225
aS'Stort snoefall'
p226
aS'Stort snoefall'
p227
aS'Stort snoefall'
p228
aS'Fersk vindtransportert snoe'
p229
aS'Fersk vindtransportert snoe'
p230
aS'Ingen faretegn observert'
p231
aS'Ingen faretegn observert'
p232
aS'Rimkrystaller'
p233
aS'Stort snoefall'
p234
aS'Stort snoefall'
p235
aS'Fersk vindtransportert snoe'
p236
aS'Ferske sprekker'
p237
aS'Ikke gitt'
p238
aS'Ingen faretegn observert'
p239
aS'Fersk vindtransportert snoe'
p240
aS'Droenn i snoeen'
p241
aS'Ferske sprekker'
p242
aS'Fersk vindtransportert snoe'
p243
aS'Rask temperaturstigning'
p244
aS'Rask temperaturstigning'
p245
aS'Mye vann i snoeen'
p246
aS'Mye vann i snoeen'
p247
aS'Ferske skred'
p248
aS'Ferske skred'
p249
aS'Droenn i snoeen'
p250
aS'Rimkrystaller'
p251
aS'Rimkrystaller'
p252
aS'Rimkrystaller'
p253
aS'Annet faretegn (spesifiser)'
p254
aS'Ferske sprekker'
p255
aS'Droenn i snoeen'
p256
aS'Ikke gitt'
p257
aS'Ferske sprekker'
p258
aS'Fersk vindtransportert snoe'
p259
aS'Ferske sprekker'
p260
aS'Rimkrystaller'
p261
aS'Rimkrystaller'
p262
aS'Fersk vindtransportert snoe'
p263
aS'Fersk vindtransportert snoe'
p264
aS'Stort snoefall'
p265
aS'Fersk vindtransportert snoe'
p266
aS'Ingen faretegn observert'
p267
aS'Droenn i snoeen'
p268
aS'Ingen faretegn observert'
p269
aS'Fersk vindtransportert snoe'
p270
aS'Fersk vindtransportert snoe'
p271
aS'Fersk vindtransportert snoe'
p272
aS'Fersk vindtransportert snoe'
p273
aS'Ferske sprekker'
p274
aS'Ferske sprekker'
p275
aS'Rimkrystaller'
p276
aS'Rimkrystaller'
p277
aS'Ingen faretegn observert'
p278
aS'Ingen faretegn observert'
p279
aS'Ferske sprekker'
p280
aS'Annet faretegn (spesifiser)'
p281
aS'Fersk vindtransportert snoe'
p282
aS'Ingen faretegn observert'
p283
aS'Fersk vindtransportert snoe'
p284
aS'Ferske sprekker'
p285
aS'Ferske skred'
p286
aS'Fersk vindtransportert snoe'
p287
aS'Rimkrystaller'
p288
aS'Rimkrystaller'
p289
aS'Rimkrystaller'
p290
aS'Rimkrystaller'
p291
aS'Rimkrystaller'
p292
aS'Fersk vindtransportert snoe'
p293
aS'Ikke gitt'
p294
aS'Ferske skred'
p295
aS'Rimkrystaller'
p296
aS'Ferske sprekker'
p297
aS'Fersk vindtransportert snoe'
p298
aS'Rimkrystaller'
p299
aS'Fersk vindtransportert snoe'
p300
aS'Fersk vindtransportert snoe'
p301
aS'Rimkrystaller'
p302
aS'Annet faretegn (spesifiser)'
p303
aS'Rimkrystaller'
p304
aS'Rimkrystaller'
p305
aS'Rimkrystaller'
p306
aS'Rimkrystaller'
p307
aS'Rimkrystaller'
p308
aS'Rimkrystaller'
p309
aS'Fersk vindtransportert snoe'
p310
aS'Rimkrystaller'
p311
aS'Fersk vindtransportert snoe'
p312
aS'Ferske skred'
p313
aS'Rimkrystaller'
p314
aS'Ingen faretegn observert'
p315
aS'Fersk vindtransportert snoe'
p316
aS'Stort snoefall'
p317
aS'Rimkrystaller'
p318
aS'Fersk vindtransportert snoe'
p319
aS'Rimkrystaller'
p320
aS'Ikke gitt'
p321
aS'Stort snoefall'
p322
aS'Fersk vindtransportert snoe'
p323
aS'Stort snoefall'
p324
aS'Stort snoefall'
p325
aS'Droenn i snoeen'
p326
aS'Fersk vindtransportert snoe'
p327
aS'Rimkrystaller'
p328
aS'Rimkrystaller'
p329
aS'Rimkrystaller'
p330
aS'Fersk vindtransportert snoe'
p331
aS'Fersk vindtransportert snoe'
p332
aS'Stort snoefall'
p333
aS'Droenn i snoeen'
p334
aS'Ferske sprekker'
p335
aS'Rimkrystaller'
p336
aS'Annet faretegn (spesifiser)'
p337
aS'Rimkrystaller'
p338
aS'Rimkrystaller'
p339
aS'Ikke gitt'
p340
aS'Ingen faretegn observert'
p341
aS'Stort snoefall'
p342
aS'Ingen faretegn observert'
p343
aS'Annet faretegn (spesifiser)'
p344
aS'Stort snoefall'
p345
aS'Ferske skred'
p346
aS'Ferske sprekker'
p347
aS'Ingen faretegn observert'
p348
aS'Fersk vindtransportert snoe'
p349
aS'Ferske sprekker'
p350
aS'Ferske sprekker'
p351
aS'Fersk vindtransportert snoe'
p352
aS'Fersk vindtransportert snoe'
p353
aS'Ingen faretegn observert'
p354
aS'Annet faretegn (spesifiser)'
p355
aS'Ferske sprekker'
p356
aS'Ferske skred'
p357
aS'Fersk vindtransportert snoe'
p358
aS'Ferske sprekker'
p359
aS'Rask temperaturstigning'
p360
aS'Ferske sprekker'
p361
aS'Fersk vindtransportert snoe'
p362
aS'Ferske sprekker'
p363
aS'Rask temperaturstigning'
p364
aS'Fersk vindtransportert snoe'
p365
aS'Droenn i snoeen'
p366
aS'Fersk vindtransportert snoe'
p367
aS'Droenn i snoeen'
p368
aS'Fersk vindtransportert snoe'
p369
aS'Mye vann i snoeen'
p370
aS'Ferske skred'
p371
aS'Rask temperaturstigning'
p372
aS'Mye vann i snoeen'
p373
aS'Annet faretegn (spesifiser)'
p374
aS'Mye vann i snoeen'
p375
aS'Rask temperaturstigning'
p376
aS'Rask temperaturstigning'
p377
aS'Mye vann i snoeen'
p378
aS'Ferske skred'
p379
aS'Mye vann i snoeen'
p380
aS'Ingen faretegn observert'
p381
aS'Rask temperaturstigning'
p382
aS'Mye vann i snoeen'
p383
aS'Mye vann i snoeen'
p384
aS'Mye vann i snoeen'
p385
aS'Annet faretegn (spesifiser)'
p386
aS'Mye vann i snoeen'
p387
aS'Ferske skred'
p388
aS'Mye vann i snoeen'
p389
aS'Ingen faretegn observert'
p390
aS'Droenn i snoeen'
p391
aS'Ferske sprekker'
p392
aS'Ferske skred'
p393
aS'Stort snoefall'
p394
aS'Fersk vindtransportert snoe'
p395
aS'Ferske sprekker'
p396
aS'Droenn i snoeen'
p397
aS'Ferske skred'
p398
aS'Rimkrystaller'
p399
aS'Ferske sprekker'
p400
aS'Ingen faretegn observert'
p401
aS'Fersk vindtransportert snoe'
p402
aS'Ferske sprekker'
p403
aS'Fersk vindtransportert snoe'
p404
aS'Ferske sprekker'
p405
aS'Fersk vindtransportert snoe'
p406
aS'Ferske skred'
p407
aS'Ingen faretegn observert'
p408
aS'Fersk vindtransportert snoe'
p409
aS'Ingen faretegn observert'
p410
aS'Stort snoefall'
p411
aS'Mye vann i snoeen'
p412
aS'Fersk vindtransportert snoe'
p413
aS'Annet faretegn (spesifiser)'
p414
aS'Annet faretegn (spesifiser)'
p415
aS'Stort snoefall'
p416
aS'Fersk vindtransportert snoe'
p417
aS'Ingen faretegn observert'
p418
aS'Ingen faretegn observert'
p419
aS'Annet faretegn (spesifiser)'
p420
aS'Ingen faretegn observert'
p421
aS'Fersk vindtransportert snoe'
p422
aS'Ingen faretegn observert'
p423
aS'Fersk vindtransportert snoe'
p424
aS'Ferske sprekker'
p425
aS'Fersk vindtransportert snoe'
p426
aS'Annet faretegn (spesifiser)'
p427
aS'Fersk vindtransportert snoe'
p428
aS'Fersk vindtransportert snoe'
p429
aS'Annet faretegn (spesifiser)'
p430
aS'Fersk vindtransportert snoe'
p431
aS'Rask temperaturstigning'
p432
aS'Mye vann i snoeen'
p433
aS'Mye vann i snoeen'
p434
aS'Annet faretegn (spesifiser)'
p435
aS'Fersk vindtransportert snoe'
p436
aS'Fersk vindtransportert snoe'
p437
aS'Fersk vindtransportert snoe'
p438
aS'Stort snoefall'
p439
aS'Droenn i snoeen'
p440
aS'Droenn i snoeen'
p441
aS'Fersk vindtransportert snoe'
p442
aS'Rask temperaturstigning'
p443
aS'Mye vann i snoeen'
p444
aS'Ferske skred'
p445
aS'Ingen faretegn observert'
p446
aS'Fersk vindtransportert snoe'
p447
aS'Ferske skred'
p448
aS'Fersk vindtransportert snoe'
p449
aS'Ferske sprekker'
p450
aS'Fersk vindtransportert snoe'
p451
aS'Fersk vindtransportert snoe'
p452
aS'Ingen faretegn observert'
p453
aS'Ferske sprekker'
p454
aS'Fersk vindtransportert snoe'
p455
aS'Fersk vindtransportert snoe'
p456
aS'Fersk vindtransportert snoe'
p457
aS'Ingen faretegn observert'
p458
aS'Fersk vindtransportert snoe'
p459
aS'Annet faretegn (spesifiser)'
p460
aS'Fersk vindtransportert snoe'
p461
aS'Droenn i snoeen'
p462
aS'Fersk vindtransportert snoe'
p463
aS'Ferske sprekker'
p464
aS'Fersk vindtransportert snoe'
p465
aS'Ferske sprekker'
p466
aS'Fersk vindtransportert snoe'
p467
aS'Droenn i snoeen'
p468
aS'Ingen faretegn observert'
p469
aS'Fersk vindtransportert snoe'
p470
aS'Rimkrystaller'
p471
aS'Fersk vindtransportert snoe'
p472
aS'Fersk vindtransportert snoe'
p473
aS'Fersk vindtransportert snoe'
p474
aS'Fersk vindtransportert snoe'
p475
aS'Rimkrystaller'
p476
aS'Fersk vindtransportert snoe'
p477
aS'Fersk vindtransportert snoe'
p478
aS'Ingen faretegn observert'
p479
aS'Fersk vindtransportert snoe'
p480
aS'Annet faretegn (spesifiser)'
p481
aS'Droenn i snoeen'
p482
aS'Fersk vindtransportert snoe'
p483
aS'Ferske sprekker'
p484
aS'Ingen faretegn observert'
p485
aS'Ferske sprekker'
p486
aS'Fersk vindtransportert snoe'
p487
aS'Droenn i snoeen'
p488
aS'Ferske skred'
p489
aS'Fersk vindtransportert snoe'
p490
aS'Droenn i snoeen'
p491
aS'Ingen faretegn observert'
p492
aS'Fersk vindtransportert snoe'
p493
aS'Fersk vindtransportert snoe'
p494
aS'Ingen faretegn observert'
p495
aS'Ferske sprekker'
p496
aS'Fersk vindtransportert snoe'
p497
aS'Fersk vindtransportert snoe'
p498
aS'Ferske sprekker'
p499
aS'Fersk vindtransportert snoe'
p500
aS'Stort snoefall'
p501
aS'Fersk vindtransportert snoe'
p502
aS'Fersk vindtransportert snoe'
p503
aS'Fersk vindtransportert snoe'
p504
aS'Ikke gitt'
p505
aS'Droenn i snoeen'
p506
aS'Droenn i snoeen'
p507
aS'Droenn i snoeen'
p508
aS'Fersk vindtransportert snoe'
p509
aS'Fersk vindtransportert snoe'
p510
aS'Droenn i snoeen'
p511
aS'Ferske skred'
p512
aS'Ferske sprekker'
p513
aS'Ferske skred'
p514
aS'Mye vann i snoeen'
p515
aS'Annet faretegn (spesifiser)'
p516
aS'Fersk vindtransportert snoe'
p517
aS'Mye vann i snoeen'
p518
aS'Fersk vindtransportert snoe'
p519
aS'Fersk vindtransportert snoe'
p520
aS'Ferske sprekker'
p521
aS'Fersk vindtransportert snoe'
p522
aS'Ferske sprekker'
p523
aS'Ferske skred'
p524
aS'Ingen faretegn observert'
p525
aS'Annet faretegn (spesifiser)'
p526
aS'Ingen faretegn observert'
p527
aS'Ingen faretegn observert'
p528
aS'Ingen faretegn observert'
p529
aS'Fersk vindtransportert snoe'
p530
aS'Annet faretegn (spesifiser)'
p531
aS'Ferske sprekker'
p532
aS'Fersk vindtransportert snoe'
p533
aS'Fersk vindtransportert snoe'
p534
aS'Fersk vindtransportert snoe'
p535
aS'Fersk vindtransportert snoe'
p536
aS'Fersk vindtransportert snoe'
p537
aS'Rimkrystaller'
p538
aS'Rimkrystaller'
p539
aS'Rimkrystaller'
p540
aS'Rimkrystaller'
p541
aS'Rimkrystaller'
p542
aS'Rimkrystaller'
p543
aS'Rimkrystaller'
p544
aS'Rimkrystaller'
p545
aS'Ferske sprekker'
p546
aS'Rimkrystaller'
p547
aS'Fersk vindtransportert snoe'
p548
aS'Rimkrystaller'
p549
aS'Fersk vindtransportert snoe'
p550
aS'Annet faretegn (spesifiser)'
p551
aS'Rimkrystaller'
p552
aS'Rimkrystaller'
p553
aS'Fersk vindtransportert snoe'
p554
aS'Fersk vindtransportert snoe'
p555
aS'Rimkrystaller'
p556
aS'Ferske sprekker'
p557
aS'Ferske skred'
p558
aS'Fersk vindtransportert snoe'
p559
aS'Rimkrystaller'
p560
aS'Rimkrystaller'
p561
aS'Fersk vindtransportert snoe'
p562
aS'Ingen faretegn observert'
p563
aS'Rimkrystaller'
p564
aS'Fersk vindtransportert snoe'
p565
aS'Rimkrystaller'
p566
aS'Fersk vindtransportert snoe'
p567
aS'Ferske sprekker'
p568
aS'Ferske sprekker'
p569
aS'Ferske sprekker'
p570
aS'Ferske sprekker'
p571
aS'Rimkrystaller'
p572
aS'Ingen faretegn observert'
p573
aS'Rimkrystaller'
p574
aS'Rimkrystaller'
p575
aS'Rimkrystaller'
p576
aS'Droenn i snoeen'
p577
aS'Ferske sprekker'
p578
aS'Annet faretegn (spesifiser)'
p579
aS'Fersk vindtransportert snoe'
p580
aS'Ingen faretegn observert'
p581
aS'Ingen faretegn observert'
p582
aS'Fersk vindtransportert snoe'
p583
aS'Ingen faretegn observert'
p584
aS'Ingen faretegn observert'
p585
aS'Fersk vindtransportert snoe'
p586
aS'Ferske skred'
p587
aS'Fersk vindtransportert snoe'
p588
aS'Ferske sprekker'
p589
aS'Rask temperaturstigning'
p590
aS'Ingen faretegn observert'
p591
aS'Fersk vindtransportert snoe'
p592
aS'Ferske sprekker'
p593
aS'Fersk vindtransportert snoe'
p594
aS'Ikke gitt'
p595
aS'Fersk vindtransportert snoe'
p596
aS'Mye vann i snoeen'
p597
aS'Ferske skred'
p598
aS'Ingen faretegn observert'
p599
aS'Ferske skred'
p600
aS'Rimkrystaller'
p601
aS'Fersk vindtransportert snoe'
p602
aS'Ferske sprekker'
p603
aS'Fersk vindtransportert snoe'
p604
aS'Mye vann i snoeen'
p605
aS'Annet faretegn (spesifiser)'
p606
aS'Ferske sprekker'
p607
aS'Ikke gitt'
p608
aS'Ingen faretegn observert'
p609
aS'Ingen faretegn observert'
p610
aS'Ingen faretegn observert'
p611
aS'Ferske sprekker'
p612
aS'Droenn i snoeen'
p613
aS'Annet faretegn (spesifiser)'
p614
aS'Droenn i snoeen'
p615
aS'Ingen faretegn observert'
p616
aS'Ingen faretegn observert'
p617
aS'Fersk vindtransportert snoe'
p618
aS'Rask temperaturstigning'
p619
aS'Mye vann i snoeen'
p620
aS'Droenn i snoeen'
p621
aS'Droenn i snoeen'
p622
aS'Ferske sprekker'
p623
aS'Ferske skred'
p624
aS'Ferske sprekker'
p625
aS'Fersk vindtransportert snoe'
p626
aS'Ingen faretegn observert'
p627
aS'Fersk vindtransportert snoe'
p628
aS'Droenn i snoeen'
p629
aS'Fersk vindtransportert snoe'
p630
aS'Fersk vindtransportert snoe'
p631
aS'Fersk vindtransportert snoe'
p632
aS'Fersk vindtransportert snoe'
p633
aS'Fersk vindtransportert snoe'
p634
aS'Ferske sprekker'
p635
aS'Fersk vindtransportert snoe'
p636
aS'Droenn i snoeen'
p637
aS'Annet faretegn (spesifiser)'
p638
aS'Fersk vindtransportert snoe'
p639
aS'Annet faretegn (spesifiser)'
p640
aS'Ferske sprekker'
p641
aS'Droenn i snoeen'
p642
aS'Fersk vindtransportert snoe'
p643
aS'Fersk vindtransportert snoe'
p644
aS'Ingen faretegn observert'
p645
aS'Droenn i snoeen'
p646
aS'Ikke gitt'
p647
aS'Fersk vindtransportert snoe'
p648
aS'Ferske sprekker'
p649
aS'Fersk vindtransportert snoe'
p650
aS'Fersk vindtransportert snoe'
p651
aS'Fersk vindtransportert snoe'
p652
aS'Ferske sprekker'
p653
aS'Ferske sprekker'
p654
aS'Fersk vindtransportert snoe'
p655
aS'Stort snoefall'
p656
aS'Ferske sprekker'
p657
aS'Ferske skred'
p658
aS'Annet faretegn (spesifiser)'
p659
aS'Ingen faretegn observert'
p660
aS'Ferske sprekker'
p661
aS'Ingen faretegn observert'
p662
aS'Fersk vindtransportert snoe'
p663
aS'Fersk vindtransportert snoe'
p664
aS'Ferske sprekker'
p665
aS'Droenn i snoeen'
p666
aS'Droenn i snoeen'
p667
aS'Fersk vindtransportert snoe'
p668
aS'Fersk vindtransportert snoe'
p669
aS'Stort snoefall'
p670
aS'Stort snoefall'
p671
aS'Fersk vindtransportert snoe'
p672
aS'Droenn i snoeen'
p673
aS'Ferske sprekker'
p674
aS'Stort snoefall'
p675
aS'Annet faretegn (spesifiser)'
p676
aS'Fersk vindtransportert snoe'
p677
aS'Rimkrystaller'
p678
aS'Rimkrystaller'
p679
aS'Annet faretegn (spesifiser)'
p680
aS'Ingen faretegn observert'
p681
aS'Fersk vindtransportert snoe'
p682
aS'Ingen faretegn observert'
p683
aS'Ingen faretegn observert'
p684
aS'Annet faretegn (spesifiser)'
p685
aS'Ingen faretegn observert'
p686
aS'Rimkrystaller'
p687
aS'Rimkrystaller'
p688
aS'Rimkrystaller'
p689
aS'Ferske skred'
p690
aS'Droenn i snoeen'
p691
aS'Ferske sprekker'
p692
aS'Fersk vindtransportert snoe'
p693
aS'Ferske sprekker'
p694
aS'Fersk vindtransportert snoe'
p695
aS'Ingen faretegn observert'
p696
aS'Fersk vindtransportert snoe'
p697
aS'Rimkrystaller'
p698
aS'Rask temperaturstigning'
p699
aS'Rask temperaturstigning'
p700
aS'Rask temperaturstigning'
p701
aS'Ferske sprekker'
p702
aS'Mye vann i snoeen'
p703
aS'Rask temperaturstigning'
p704
aS'Mye vann i snoeen'
p705
aS'Ferske skred'
p706
aS'Ikke gitt'
p707
aS'Fersk vindtransportert snoe'
p708
aS'Stort snoefall'
p709
aS'Fersk vindtransportert snoe'
p710
aS'Fersk vindtransportert snoe'
p711
aS'Fersk vindtransportert snoe'
p712
aS'Fersk vindtransportert snoe'
p713
aS'Fersk vindtransportert snoe'
p714
aS'Ingen faretegn observert'
p715
aS'Fersk vindtransportert snoe'
p716
aS'Ferske skred'
p717
aS'Fersk vindtransportert snoe'
p718
aS'Fersk vindtransportert snoe'
p719
aS'Rask temperaturstigning'
p720
aS'Rask temperaturstigning'
p721
aS'Ingen faretegn observert'
p722
aS'Ingen faretegn observert'
p723
aS'Ingen faretegn observert'
p724
aS'Fersk vindtransportert snoe'
p725
aS'Ingen faretegn observert'
p726
aS'Ferske sprekker'
p727
aS'Annet faretegn (spesifiser)'
p728
aS'Rimkrystaller'
p729
aS'Rimkrystaller'
p730
aS'Ferske skred'
p731
aS'Ingen faretegn observert'
p732
aS'Ingen faretegn observert'
p733
aS'Fersk vindtransportert snoe'
p734
aS'Ferske sprekker'
p735
aS'Fersk vindtransportert snoe'
p736
aS'Ferske skred'
p737
aS'Fersk vindtransportert snoe'
p738
aS'Ferske skred'
p739
aS'Ingen faretegn observert'
p740
aS'Fersk vindtransportert snoe'
p741
aS'Rask temperaturstigning'
p742
aS'Ferske skred'
p743
aS'Fersk vindtransportert snoe'
p744
aS'Fersk vindtransportert snoe'
p745
aS'Rimkrystaller'
p746
aS'Ingen faretegn observert'
p747
aS'Rimkrystaller'
p748
aS'Rimkrystaller'
p749
aS'Fersk vindtransportert snoe'
p750
aS'Fersk vindtransportert snoe'
p751
aS'Ikke gitt'
p752
aS'Fersk vindtransportert snoe'
p753
aS'Fersk vindtransportert snoe'
p754
aS'Fersk vindtransportert snoe'
p755
aS'Ingen faretegn observert'
p756
aS'Mye vann i snoeen'
p757
aS'Ferske sprekker'
p758
aS'Mye vann i snoeen'
p759
aS'Fersk vindtransportert snoe'
p760
aS'Stort snoefall'
p761
aS'Stort snoefall'
p762
aS'Ingen faretegn observert'
p763
aS'Fersk vindtransportert snoe'
p764
aS'Fersk vindtransportert snoe'
p765
aS'Fersk vindtransportert snoe'
p766
aS'Fersk vindtransportert snoe'
p767
aS'Rimkrystaller'
p768
aS'Ingen faretegn observert'
p769
aS'Ingen faretegn observert'
p770
aS'Ingen faretegn observert'
p771
aS'Fersk vindtransportert snoe'
p772
aS'Ingen faretegn observert'
p773
aS'Droenn i snoeen'
p774
aS'Ferske sprekker'
p775
aS'Droenn i snoeen'
p776
aS'Ingen faretegn observert'
p777
aS'Ingen faretegn observert'
p778
aS'Ingen faretegn observert'
p779
aS'Ingen faretegn observert'
p780
aS'Fersk vindtransportert snoe'
p781
aS'Ferske sprekker'
p782
aS'Fersk vindtransportert snoe'
p783
aS'Fersk vindtransportert snoe'
p784
aS'Ingen faretegn observert'
p785
aS'Fersk vindtransportert snoe'
p786
aS'Stort snoefall'
p787
aS'Fersk vindtransportert snoe'
p788
aS'Fersk vindtransportert snoe'
p789
aS'Fersk vindtransportert snoe'
p790
aS'Annet faretegn (spesifiser)'
p791
aS'Fersk vindtransportert snoe'
p792
aS'Annet faretegn (spesifiser)'
p793
aS'Fersk vindtransportert snoe'
p794
aS'Fersk vindtransportert snoe'
p795
aS'Droenn i snoeen'
p796
aS'Ingen faretegn observert'
p797
aS'Fersk vindtransportert snoe'
p798
aS'Ferske skred'
p799
aS'Ferske sprekker'
p800
aS'Fersk vindtransportert snoe'
p801
aS'Ferske sprekker'
p802
aS'Stort snoefall'
p803
aS'Stort snoefall'
p804
aS'Ferske skred'
p805
aS'Ferske skred'
p806
aS'Fersk vindtransportert snoe'
p807
aS'Ingen faretegn observert'
p808
aS'Fersk vindtransportert snoe'
p809
aS'Ingen faretegn observert'
p810
aS'Ferske skred'
p811
aS'Fersk vindtransportert snoe'
p812
aS'Annet faretegn (spesifiser)'
p813
aS'Annet faretegn (spesifiser)'
p814
aS'Ingen faretegn observert'
p815
aS'Fersk vindtransportert snoe'
p816
aS'Ferske sprekker'
p817
aS'Annet faretegn (spesifiser)'
p818
aS'Ingen faretegn observert'
p819
aS'Fersk vindtransportert snoe'
p820
aS'Fersk vindtransportert snoe'
p821
aS'Ikke gitt'
p822
aS'Fersk vindtransportert snoe'
p823
aS'Ferske skred'
p824
aS'Ferske skred'
p825
aS'Fersk vindtransportert snoe'
p826
aS'Fersk vindtransportert snoe'
p827
aS'Fersk vindtransportert snoe'
p828
aS'Ferske sprekker'
p829
aS'Fersk vindtransportert snoe'
p830
aS'Fersk vindtransportert snoe'
p831
aS'Ingen faretegn observert'
p832
aS'Ingen faretegn observert'
p833
aS'Fersk vindtransportert snoe'
p834
aS'Mye vann i snoeen'
p835
aS'Fersk vindtransportert snoe'
p836
aS'Ferske skred'
p837
aS'Ferske skred'
p838
aS'Mye vann i snoeen'
p839
aS'Fersk vindtransportert snoe'
p840
aS'Fersk vindtransportert snoe'
p841
aS'Fersk vindtransportert snoe'
p842
aS'Ferske skred'
p843
aS'Annet faretegn (spesifiser)'
p844
aS'Fersk vindtransportert snoe'
p845
aS'Ingen faretegn observert'
p846
aS'Ingen faretegn observert'
p847
aS'Fersk vindtransportert snoe'
p848
aS'Ferske sprekker'
p849
aS'Fersk vindtransportert snoe'
p850
aS'Mye vann i snoeen'
p851
aS'Mye vann i snoeen'
p852
aS'Fersk vindtransportert snoe'
p853
aS'Annet faretegn (spesifiser)'
p854
aS'Fersk vindtransportert snoe'
p855
aS'Fersk vindtransportert snoe'
p856
aS'Ingen faretegn observert'
p857
aS'Mye vann i snoeen'
p858
aS'Rimkrystaller'
p859
aS'Mye vann i snoeen'
p860
aS'Fersk vindtransportert snoe'
p861
aS'Ferske skred'
p862
aS'Fersk vindtransportert snoe'
p863
aS'Fersk vindtransportert snoe'
p864
aS'Fersk vindtransportert snoe'
p865
aS'Droenn i snoeen'
p866
aS'Ferske sprekker'
p867
aS'Ingen faretegn observert'
p868
aS'Fersk vindtransportert snoe'
p869
aS'Fersk vindtransportert snoe'
p870
aS'Fersk vindtransportert snoe'
p871
aS'Rimkrystaller'
p872
aS'Ferske skred'
p873
aS'Ingen faretegn observert'
p874
aS'Ingen faretegn observert'
p875
aS'Droenn i snoeen'
p876
aS'Droenn i snoeen'
p877
aS'Ingen faretegn observert'
p878
aS'Ikke gitt'
p879
aS'Ikke gitt'
p880
aS'Ingen faretegn observert'
p881
aS'Fersk vindtransportert snoe'
p882
aS'Fersk vindtransportert snoe'
p883
aS'Rimkrystaller'
p884
aS'Ingen faretegn observert'
p885
aS'Fersk vindtransportert snoe'
p886
aS'Ferske sprekker'
p887
aS'Ingen faretegn observert'
p888
aS'Rimkrystaller'
p889
aS'Ingen faretegn observert'
p890
aS'Rimkrystaller'
p891
aS'Rimkrystaller'
p892
aS'Ferske sprekker'
p893
aS'Rimkrystaller'
p894
aS'Ferske sprekker'
p895
aS'Fersk vindtransportert snoe'
p896
aS'Ferske skred'
p897
aS'Fersk vindtransportert snoe'
p898
aS'Annet faretegn (spesifiser)'
p899
aS'Ferske skred'
p900
aS'Ferske skred'
p901
aS'Rimkrystaller'
p902
aS'Mye vann i snoeen'
p903
aS'Ingen faretegn observert'
p904
aS'Rimkrystaller'
p905
aS'Ingen faretegn observert'
p906
aS'Rimkrystaller'
p907
aS'Rimkrystaller'
p908
aS'Fersk vindtransportert snoe'
p909
aS'Ingen faretegn observert'
p910
aS'Ingen faretegn observert'
p911
aS'Ingen faretegn observert'
p912
aS'Fersk vindtransportert snoe'
p913
aS'Ferske sprekker'
p914
aS'Fersk vindtransportert snoe'
p915
aS'Mye vann i snoeen'
p916
aS'Ingen faretegn observert'
p917
aS'Rimkrystaller'
p918
aS'Ferske sprekker'
p919
aS'Ingen faretegn observert'
p920
aS'Rask temperaturstigning'
p921
aS'Fersk vindtransportert snoe'
p922
aS'Ferske skred'
p923
aS'Mye vann i snoeen'
p924
aS'Fersk vindtransportert snoe'
p925
aS'Ferske sprekker'
p926
aS'Fersk vindtransportert snoe'
p927
aS'Fersk vindtransportert snoe'
p928
aS'Fersk vindtransportert snoe'
p929
aS'Ferske skred'
p930
aS'Ingen faretegn observert'
p931
aS'Ingen faretegn observert'
p932
aS'Stort snoefall'
p933
aS'Fersk vindtransportert snoe'
p934
aS'Fersk vindtransportert snoe'
p935
aS'Mye vann i snoeen'
p936
aS'Mye vann i snoeen'
p937
aS'Ingen faretegn observert'
p938
aS'Ingen faretegn observert'
p939
aS'Ingen faretegn observert'
p940
aS'Ingen faretegn observert'
p941
aS'Fersk vindtransportert snoe'
p942
aS'Fersk vindtransportert snoe'
p943
aS'Annet faretegn (spesifiser)'
p944
aS'Fersk vindtransportert snoe'
p945
aS'Ingen faretegn observert'
p946
aS'Ferske skred'
p947
aS'Ingen faretegn observert'
p948
aS'Ferske sprekker'
p949
aS'Fersk vindtransportert snoe'
p950
aS'Ingen faretegn observert'
p951
aS'Ingen faretegn observert'
p952
aS'Ferske skred'
p953
aS'Mye vann i snoeen'
p954
aS'Mye vann i snoeen'
p955
aS'Ingen faretegn observert'
p956
aS'Ingen faretegn observert'
p957
aS'Ingen faretegn observert'
p958
aS'Annet faretegn (spesifiser)'
p959
aS'Ferske sprekker'
p960
aS'Annet faretegn (spesifiser)'
p961
aS'Ingen faretegn observert'
p962
aS'Ingen faretegn observert'
p963
aS'Ingen faretegn observert'
p964
aS'Ferske skred'
p965
aS'Annet faretegn (spesifiser)'
p966
aS'Mye vann i snoeen'
p967
aS'Ingen faretegn observert'
p968
aS'Ingen faretegn observert'
p969
aS'Ingen faretegn observert'
p970
aS'Ingen faretegn observert'
p971
aS'Droenn i snoeen'
p972
aS'Fersk vindtransportert snoe'
p973
aS'Fersk vindtransportert snoe'
p974
aS'Ingen faretegn observert'
p975
aS'Fersk vindtransportert snoe'
p976
aS'Fersk vindtransportert snoe'
p977
aS'Ferske skred'
p978
aS'Rimkrystaller'
p979
aS'Rimkrystaller'
p980
aS'Ingen faretegn observert'
p981
aS'Ferske sprekker'
p982
aS'Rask temperaturstigning'
p983
aS'Annet faretegn (spesifiser)'
p984
aS'Rimkrystaller'
p985
aS'Ingen faretegn observert'
p986
aS'Fersk vindtransportert snoe'
p987
aS'Ingen faretegn observert'
p988
aS'Ingen faretegn observert'
p989
aS'Ingen faretegn observert'
p990
aS'Ingen faretegn observert'
p991
aS'Ferske skred'
p992
aS'Fersk vindtransportert snoe'
p993
aS'Ferske skred'
p994
aS'Droenn i snoeen'
p995
aS'Ingen faretegn observert'
p996
aS'Ingen faretegn observert'
p997
aS'Ingen faretegn observert'
p998
aS'Rask temperaturstigning'
p999
aS'Ingen faretegn observert'
p1000
aS'Ingen faretegn observert'
p1001
aS'Fersk vindtransportert snoe'
p1002
aS'Rimkrystaller'
p1003
aS'Ingen faretegn observert'
p1004
aS'Ingen faretegn observert'
p1005
aS'Annet faretegn (spesifiser)'
p1006
aS'Mye vann i snoeen'
p1007
aS'Ingen faretegn observert'
p1008
aS'Mye vann i snoeen'
p1009
aS'Fersk vindtransportert snoe'
p1010
aS'Annet faretegn (spesifiser)'
p1011
aS'Ingen faretegn observert'
p1012
aS'Ferske skred'
p1013
aS'Ingen faretegn observert'
p1014
aS'Ingen faretegn observert'
p1015
aS'Mye vann i snoeen'
p1016
aS'Fersk vindtransportert snoe'
p1017
aS'Mye vann i snoeen'
p1018
aS'Ingen faretegn observert'
p1019
aS'Ferske skred'
p1020
aS'Mye vann i snoeen'
p1021
aS'Fersk vindtransportert snoe'
p1022
aS'Annet faretegn (spesifiser)'
p1023
aS'Fersk vindtransportert snoe'
p1024
aS'Ferske sprekker'
p1025
aS'Ingen faretegn observert'
p1026
aS'Mye vann i snoeen'
p1027
aS'Ferske sprekker'
p1028
aS'Fersk vindtransportert snoe'
p1029
aS'Annet faretegn (spesifiser)'
p1030
aS'Fersk vindtransportert snoe'
p1031
aS'Ingen faretegn observert'
p1032
aS'Ingen faretegn observert'
p1033
aS'Ingen faretegn observert'
p1034
aS'Fersk vindtransportert snoe'
p1035
aS'Ingen faretegn observert'
p1036
aS'Stort snoefall'
p1037
aS'Fersk vindtransportert snoe'
p1038
aS'Ferske skred'
p1039
aS'Fersk vindtransportert snoe'
p1040
aS'Mye vann i snoeen'
p1041
aS'Mye vann i snoeen'
p1042
aS'Ferske skred'
p1043
aS'Fersk vindtransportert snoe'
p1044
aS'Fersk vindtransportert snoe'
p1045
aS'Ingen faretegn observert'
p1046
aS'Fersk vindtransportert snoe'
p1047
aS'Fersk vindtransportert snoe'
p1048
aS'Ingen faretegn observert'
p1049
aS'Rask temperaturstigning'
p1050
aS'Fersk vindtransportert snoe'
p1051
aS'Ingen faretegn observert'
p1052
aS'Ingen faretegn observert'
p1053
aS'Ferske sprekker'
p1054
aS'Annet faretegn (spesifiser)'
p1055
aS'Fersk vindtransportert snoe'
p1056
aS'Rimkrystaller'
p1057
aS'Ingen faretegn observert'
p1058
aS'Fersk vindtransportert snoe'
p1059
aS'Ingen faretegn observert'
p1060
aS'Ingen faretegn observert'
p1061
aS'Ingen faretegn observert'
p1062
aS'Ferske skred'
p1063
aS'Ferske skred'
p1064
aS'Fersk vindtransportert snoe'
p1065
aS'Ferske skred'
p1066
aS'Ferske skred'
p1067
aS'Ferske sprekker'
p1068
aS'Ikke gitt'
p1069
aS'Fersk vindtransportert snoe'
p1070
aS'Ferske skred'
p1071
aS'Ferske sprekker'
p1072
aS'Fersk vindtransportert snoe'
p1073
aS'Ingen faretegn observert'
p1074
aS'Ferske sprekker'
p1075
aS'Stort snoefall'
p1076
aS'Stort snoefall'
p1077
aS'Fersk vindtransportert snoe'
p1078
aS'Ingen faretegn observert'
p1079
aS'Fersk vindtransportert snoe'
p1080
aS'Ferske sprekker'
p1081
aS'Ingen faretegn observert'
p1082
aS'Fersk vindtransportert snoe'
p1083
aS'Ferske skred'
p1084
aS'Ferske sprekker'
p1085
aS'Fersk vindtransportert snoe'
p1086
aS'Ikke gitt'
p1087
aS'Ingen faretegn observert'
p1088
aS'Ingen faretegn observert'
p1089
aS'Ferske skred'
p1090
aS'Ferske skred'
p1091
aS'Ferske skred'
p1092
aS'Fersk vindtransportert snoe'
p1093
aS'Ferske skred'
p1094
aS'Ferske skred'
p1095
aS'Mye vann i snoeen'
p1096
aS'Fersk vindtransportert snoe'
p1097
aS'Fersk vindtransportert snoe'
p1098
aS'Ferske skred'
p1099
aS'Annet faretegn (spesifiser)'
p1100
aS'Ingen faretegn observert'
p1101
aS'Ferske sprekker'
p1102
aS'Fersk vindtransportert snoe'
p1103
aS'Fersk vindtransportert snoe'
p1104
aS'Ingen faretegn observert'
p1105
aS'Fersk vindtransportert snoe'
p1106
aS'Fersk vindtransportert snoe'
p1107
aS'Annet faretegn (spesifiser)'
p1108
aS'Ingen faretegn observert'
p1109
aS'Ingen faretegn observert'
p1110
aS'Fersk vindtransportert snoe'
p1111
aS'Ikke gitt'
p1112
aS'Ferske skred'
p1113
aS'Fersk vindtransportert snoe'
p1114
aS'Fersk vindtransportert snoe'
p1115
aS'Ingen faretegn observert'
p1116
aS'Fersk vindtransportert snoe'
p1117
aS'Rask temperaturstigning'
p1118
aS'Fersk vindtransportert snoe'
p1119
aS'Fersk vindtransportert snoe'
p1120
aS'Fersk vindtransportert snoe'
p1121
aS'Ferske sprekker'
p1122
aS'Ingen faretegn observert'
p1123
aS'Droenn i snoeen'
p1124
aS'Fersk vindtransportert snoe'
p1125
aS'Ferske sprekker'
p1126
aS'Fersk vindtransportert snoe'
p1127
aS'Ferske skred'
p1128
aS'Fersk vindtransportert snoe'
p1129
aS'Annet faretegn (spesifiser)'
p1130
aS'Fersk vindtransportert snoe'
p1131
aS'Fersk vindtransportert snoe'
p1132
aS'Annet faretegn (spesifiser)'
p1133
aS'Ferske skred'
p1134
aS'Fersk vindtransportert snoe'
p1135
aS'Fersk vindtransportert snoe'
p1136
aS'Ferske skred'
p1137
aS'Ingen faretegn observert'
p1138
aS'Fersk vindtransportert snoe'
p1139
aS'Rimkrystaller'
p1140
aS'Rimkrystaller'
p1141
aS'Ingen faretegn observert'
p1142
aS'Ingen faretegn observert'
p1143
aS'Ingen faretegn observert'
p1144
aS'Rimkrystaller'
p1145
aS'Ferske skred'
p1146
aS'Annet faretegn (spesifiser)'
p1147
aS'Ferske skred'
p1148
aS'Ferske skred'
p1149
aS'Fersk vindtransportert snoe'
p1150
aS'Fersk vindtransportert snoe'
p1151
aS'Ingen faretegn observert'
p1152
aS'Ingen faretegn observert'
p1153
aS'Fersk vindtransportert snoe'
p1154
aS'Ingen faretegn observert'
p1155
aS'Ingen faretegn observert'
p1156
aS'Fersk vindtransportert snoe'
p1157
aS'Annet faretegn (spesifiser)'
p1158
aS'Ingen faretegn observert'
p1159
aS'Ferske skred'
p1160
aS'Rimkrystaller'
p1161
aS'Fersk vindtransportert snoe'
p1162
aS'Ingen faretegn observert'
p1163
aS'Rimkrystaller'
p1164
aS'Ferske skred'
p1165
aS'Ferske skred'
p1166
aS'Ingen faretegn observert'
p1167
aS'Rimkrystaller'
p1168
aS'Ingen faretegn observert'
p1169
aS'Ingen faretegn observert'
p1170
aS'Ingen faretegn observert'
p1171
aS'Fersk vindtransportert snoe'
p1172
aS'Annet faretegn (spesifiser)'
p1173
aS'Ingen faretegn observert'
p1174
aS'Ingen faretegn observert'
p1175
aS'Ingen faretegn observert'
p1176
aS'Ferske skred'
p1177
aS'Ferske skred'
p1178
aS'Fersk vindtransportert snoe'
p1179
aS'Fersk vindtransportert snoe'
p1180
aS'Fersk vindtransportert snoe'
p1181
aS'Stort snoefall'
p1182
aS'Fersk vindtransportert snoe'
p1183
aS'Ferske skred'
p1184
aS'Stort snoefall'
p1185
aS'Fersk vindtransportert snoe'
p1186
aS'Ferske skred'
p1187
aS'Fersk vindtransportert snoe'
p1188
aS'Fersk vindtransportert snoe'
p1189
aS'Ferske skred'
p1190
aS'Fersk vindtransportert snoe'
p1191
aS'Ferske skred'
p1192
aS'Ingen faretegn observert'
p1193
aS'Ingen faretegn observert'
p1194
aS'Ingen faretegn observert'
p1195
aS'Mye vann i snoeen'
p1196
aS'Ferske skred'
p1197
aS'Fersk vindtransportert snoe'
p1198
aS'Fersk vindtransportert snoe'
p1199
aS'Fersk vindtransportert snoe'
p1200
aS'Mye vann i snoeen'
p1201
aS'Fersk vindtransportert snoe'
p1202
aS'Annet faretegn (spesifiser)'
p1203
aS'Ingen faretegn observert'
p1204
aS'Fersk vindtransportert snoe'
p1205
aS'Fersk vindtransportert snoe'
p1206
aS'Annet faretegn (spesifiser)'
p1207
aS'Ingen faretegn observert'
p1208
aS'Ferske sprekker'
p1209
aS'Ingen faretegn observert'
p1210
aS'Ferske skred'
p1211
aS'Annet faretegn (spesifiser)'
p1212
aS'Ingen faretegn observert'
p1213
aS'Ferske sprekker'
p1214
aS'Ferske skred'
p1215
aS'Ferske skred'
p1216
aS'Ferske skred'
p1217
aS'Ikke gitt'
p1218
aS'Ferske skred'
p1219
aS'Droenn i snoeen'
p1220
aS'Droenn i snoeen'
p1221
aS'Stort snoefall'
p1222
aS'Fersk vindtransportert snoe'
p1223
aS'Ferske sprekker'
p1224
aS'Ferske skred'
p1225
aS'Stort snoefall'
p1226
aS'Ingen faretegn observert'
p1227
aS'Ferske skred'
p1228
aS'Ferske sprekker'
p1229
aS'Fersk vindtransportert snoe'
p1230
aS'Ferske sprekker'
p1231
aS'Ferske skred'
p1232
aS'Fersk vindtransportert snoe'
p1233
aS'Ferske skred'
p1234
aS'Fersk vindtransportert snoe'
p1235
aS'Rimkrystaller'
p1236
aS'Rimkrystaller'
p1237
aS'Ferske skred'
p1238
aS'Ferske sprekker'
p1239
aS'Ikke gitt'
p1240
aS'Rimkrystaller'
p1241
aS'Rimkrystaller'
p1242
aS'Rimkrystaller'
p1243
aS'Annet faretegn (spesifiser)'
p1244
aS'Rimkrystaller'
p1245
aS'Ferske skred'
p1246
aS'Ingen faretegn observert'
p1247
aS'Ingen faretegn observert'
p1248
aS'Fersk vindtransportert snoe'
p1249
aS'Fersk vindtransportert snoe'
p1250
aS'Rask temperaturstigning'
p1251
aS'Rimkrystaller'
p1252
aS'Ingen faretegn observert'
p1253
aS'Ingen faretegn observert'
p1254
aS'Ingen faretegn observert'
p1255
aS'Ingen faretegn observert'
p1256
aS'Ingen faretegn observert'
p1257
aS'Ingen faretegn observert'
p1258
aS'Mye vann i snoeen'
p1259
aS'Mye vann i snoeen'
p1260
aS'Ferske skred'
p1261
aS'Ferske skred'
p1262
aS'Mye vann i snoeen'
p1263
aS'Annet faretegn (spesifiser)'
p1264
aS'Mye vann i snoeen'
p1265
aS'Ferske skred'
p1266
aS'Annet faretegn (spesifiser)'
p1267
aS'Ingen faretegn observert'
p1268
aS'Ingen faretegn observert'
p1269
aS'Ingen faretegn observert'
p1270
aS'Annet faretegn (spesifiser)'
p1271
aS'Mye vann i snoeen'
p1272
aS'Ferske skred'
p1273
aS'Mye vann i snoeen'
p1274
aS'Annet faretegn (spesifiser)'
p1275
aS'Ingen faretegn observert'
p1276
aS'Fersk vindtransportert snoe'
p1277
aS'Mye vann i snoeen'
p1278
aS'Fersk vindtransportert snoe'
p1279
aS'Ferske skred'
p1280
aS'Mye vann i snoeen'
p1281
aS'Mye vann i snoeen'
p1282
aS'Ingen faretegn observert'
p1283
aS'Ferske sprekker'
p1284
aS'Fersk vindtransportert snoe'
p1285
aS'Mye vann i snoeen'
p1286
aS'Ingen faretegn observert'
p1287
aS'Ingen faretegn observert'
p1288
aS'Rask temperaturstigning'
p1289
aS'Rask temperaturstigning'
p1290
aS'Ingen faretegn observert'
p1291
aS'Ingen faretegn observert'
p1292
aS'Ferske skred'
p1293
aS'Ingen faretegn observert'
p1294
aS'Ferske sprekker'
p1295
aS'Fersk vindtransportert snoe'
p1296
aS'Fersk vindtransportert snoe'
p1297
aS'Fersk vindtransportert snoe'
p1298
aS'Fersk vindtransportert snoe'
p1299
aS'Ikke gitt'
p1300
aS'Fersk vindtransportert snoe'
p1301
aS'Ingen faretegn observert'
p1302
aS'Annet faretegn (spesifiser)'
p1303
aS'Fersk vindtransportert snoe'
p1304
aS'Fersk vindtransportert snoe'
p1305
aS'Ferske sprekker'
p1306
aS'Fersk vindtransportert snoe'
p1307
aS'Ferske skred'
p1308
aS'Fersk vindtransportert snoe'
p1309
aS'Fersk vindtransportert snoe'
p1310
aS'Fersk vindtransportert snoe'
p1311
aS'Fersk vindtransportert snoe'
p1312
aS'Fersk vindtransportert snoe'
p1313
aS'Fersk vindtransportert snoe'
p1314
aS'Fersk vindtransportert snoe'
p1315
aS'Fersk vindtransportert snoe'
p1316
aS'Fersk vindtransportert snoe'
p1317
aS'Fersk vindtransportert snoe'
p1318
aS'Ingen faretegn observert'
p1319
aS'Annet faretegn (spesifiser)'
p1320
aS'Fersk vindtransportert snoe'
p1321
aS'Fersk vindtransportert snoe'
p1322
aS'Fersk vindtransportert snoe'
p1323
aS'Fersk vindtransportert snoe'
p1324
aS'Fersk vindtransportert snoe'
p1325
aS'Ferske skred'
p1326
aS'Ferske sprekker'
p1327
aS'Ferske skred'
p1328
aS'Ingen faretegn observert'
p1329
aS'Fersk vindtransportert snoe'
p1330
aS'Rask temperaturstigning'
p1331
aS'Fersk vindtransportert snoe'
p1332
aS'Ingen faretegn observert'
p1333
aS'Ferske sprekker'
p1334
aS'Ferske sprekker'
p1335
aS'Ingen faretegn observert'
p1336
aS'Ingen faretegn observert'
p1337
aS'Ikke gitt'
p1338
aS'Ferske sprekker'
p1339
aS'Ingen faretegn observert'
p1340
aS'Ferske skred'
p1341
aS'Mye vann i snoeen'
p1342
aS'Ferske skred'
p1343
aS'Mye vann i snoeen'
p1344
aS'Ferske sprekker'
p1345
aS'Ingen faretegn observert'
p1346
aS'Fersk vindtransportert snoe'
p1347
aS'Ferske sprekker'
p1348
aS'Ingen faretegn observert'
p1349
aS'Ferske skred'
p1350
aS'Fersk vindtransportert snoe'
p1351
aS'Fersk vindtransportert snoe'
p1352
aS'Ingen faretegn observert'
p1353
aS'Ingen faretegn observert'
p1354
aS'Fersk vindtransportert snoe'
p1355
aS'Mye vann i snoeen'
p1356
aS'Annet faretegn (spesifiser)'
p1357
aS'Ferske skred'
p1358
aS'Ferske sprekker'
p1359
aS'Ferske skred'
p1360
aS'Annet faretegn (spesifiser)'
p1361
aS'Ingen faretegn observert'
p1362
aS'Ingen faretegn observert'
p1363
aS'Droenn i snoeen'
p1364
aS'Fersk vindtransportert snoe'
p1365
aS'Mye vann i snoeen'
p1366
aS'Fersk vindtransportert snoe'
p1367
aS'Mye vann i snoeen'
p1368
aS'Mye vann i snoeen'
p1369
aS'Mye vann i snoeen'
p1370
aS'Mye vann i snoeen'
p1371
aS'Fersk vindtransportert snoe'
p1372
aS'Fersk vindtransportert snoe'
p1373
aS'Ingen faretegn observert'
p1374
aS'Ikke gitt'
p1375
aS'Fersk vindtransportert snoe'
p1376
aS'Ferske skred'
p1377
aS'Ingen faretegn observert'
p1378
aS'Fersk vindtransportert snoe'
p1379
aS'Fersk vindtransportert snoe'
p1380
aS'Fersk vindtransportert snoe'
p1381
aS'Fersk vindtransportert snoe'
p1382
aS'Ingen faretegn observert'
p1383
aS'Rimkrystaller'
p1384
aS'Rimkrystaller'
p1385
aS'Mye vann i snoeen'
p1386
aS'Fersk vindtransportert snoe'
p1387
aS'Fersk vindtransportert snoe'
p1388
aS'Ferske skred'
p1389
aS'Ferske sprekker'
p1390
aS'Droenn i snoeen'
p1391
aS'Ingen faretegn observert'
p1392
aS'Fersk vindtransportert snoe'
p1393
aS'Rimkrystaller'
p1394
aS'Rimkrystaller'
p1395
aS'Ingen faretegn observert'
p1396
aS'Fersk vindtransportert snoe'
p1397
aS'Mye vann i snoeen'
p1398
aS'Ingen faretegn observert'
p1399
aS'Rask temperaturstigning'
p1400
aS'Mye vann i snoeen'
p1401
aS'Ferske skred'
p1402
aS'Ferske sprekker'
p1403
aS'Fersk vindtransportert snoe'
p1404
aS'Ferske skred'
p1405
aS'Annet faretegn (spesifiser)'
p1406
aS'Fersk vindtransportert snoe'
p1407
aS'Ferske sprekker'
p1408
aS'Ferske skred'
p1409
aS'Ingen faretegn observert'
p1410
aS'Ferske skred'
p1411
aS'Mye vann i snoeen'
p1412
aS'Ingen faretegn observert'
p1413
aS'Rimkrystaller'
p1414
aS'Fersk vindtransportert snoe'
p1415
aS'Fersk vindtransportert snoe'
p1416
aS'Fersk vindtransportert snoe'
p1417
aS'Fersk vindtransportert snoe'
p1418
aS'Ingen faretegn observert'
p1419
aS'Ferske skred'
p1420
aS'Ferske sprekker'
p1421
aS'Mye vann i snoeen'
p1422
aS'Ferske skred'
p1423
aS'Stort snoefall'
p1424
aS'Ferske sprekker'
p1425
aS'Ferske skred'
p1426
aS'Ingen faretegn observert'
p1427
aS'Rask temperaturstigning'
p1428
aS'Ferske skred'
p1429
aS'Rimkrystaller'
p1430
aS'Fersk vindtransportert snoe'
p1431
aS'Annet faretegn (spesifiser)'
p1432
aS'Ingen faretegn observert'
p1433
aS'Rask temperaturstigning'
p1434
aS'Rask temperaturstigning'
p1435
aS'Annet faretegn (spesifiser)'
p1436
aS'Ingen faretegn observert'
p1437
aS'Ingen faretegn observert'
p1438
aS'Ferske sprekker'
p1439
aS'Rimkrystaller'
p1440
aS'Rimkrystaller'
p1441
aS'Rimkrystaller'
p1442
aS'Ingen faretegn observert'
p1443
aS'Ingen faretegn observert'
p1444
aS'Ferske skred'
p1445
aS'Fersk vindtransportert snoe'
p1446
aS'Rimkrystaller'
p1447
aS'Ingen faretegn observert'
p1448
aS'Ingen faretegn observert'
p1449
aS'Ingen faretegn observert'
p1450
aS'Rimkrystaller'
p1451
aS'Rimkrystaller'
p1452
aS'Rimkrystaller'
p1453
aS'Rimkrystaller'
p1454
aS'Rimkrystaller'
p1455
aS'Rimkrystaller'
p1456
aS'Ingen faretegn observert'
p1457
aS'Rimkrystaller'
p1458
aS'Rimkrystaller'
p1459
aS'Fersk vindtransportert snoe'
p1460
aS'Fersk vindtransportert snoe'
p1461
aS'Rimkrystaller'
p1462
aS'Fersk vindtransportert snoe'
p1463
aS'Ingen faretegn observert'
p1464
aS'Fersk vindtransportert snoe'
p1465
aS'Rask temperaturstigning'
p1466
aS'Fersk vindtransportert snoe'
p1467
aS'Mye vann i snoeen'
p1468
aS'Mye vann i snoeen'
p1469
aS'Mye vann i snoeen'
p1470
aS'Ferske skred'
p1471
aS'Ferske sprekker'
p1472
aS'Ingen faretegn observert'
p1473
aS'Rask temperaturstigning'
p1474
aS'Rask temperaturstigning'
p1475
aS'Rask temperaturstigning'
p1476
aS'Annet faretegn (spesifiser)'
p1477
aS'Fersk vindtransportert snoe'
p1478
aS'Fersk vindtransportert snoe'
p1479
aS'Droenn i snoeen'
p1480
aS'Ferske skred'
p1481
aS'Droenn i snoeen'
p1482
aS'Droenn i snoeen'
p1483
aS'Mye vann i snoeen'
p1484
aS'Ingen faretegn observert'
p1485
aS'Mye vann i snoeen'
p1486
aS'Mye vann i snoeen'
p1487
aS'Ingen faretegn observert'
p1488
aS'Annet faretegn (spesifiser)'
p1489
aS'Ingen faretegn observert'
p1490
aS'Ingen faretegn observert'
p1491
aS'Mye vann i snoeen'
p1492
aS'Ferske skred'
p1493
aS'Fersk vindtransportert snoe'
p1494
aS'Fersk vindtransportert snoe'
p1495
aS'Ingen faretegn observert'
p1496
aS'Fersk vindtransportert snoe'
p1497
aS'Ingen faretegn observert'
p1498
aS'Ingen faretegn observert'
p1499
aS'Mye vann i snoeen'
p1500
aS'Ingen faretegn observert'
p1501
aS'Ferske skred'
p1502
aS'Rask temperaturstigning'
p1503
aS'Annet faretegn (spesifiser)'
p1504
aS'Annet faretegn (spesifiser)'
p1505
aS'Ingen faretegn observert'
p1506
aS'Ferske skred'
p1507
aS'Rimkrystaller'
p1508
aS'Annet faretegn (spesifiser)'
p1509
aS'Ingen faretegn observert'
p1510
aS'Ingen faretegn observert'
p1511
aS'Mye vann i snoeen'
p1512
aS'Mye vann i snoeen'
p1513
aS'Rimkrystaller'
p1514
aS'Ingen faretegn observert'
p1515
aS'Ingen faretegn observert'
p1516
aS'Fersk vindtransportert snoe'
p1517
aS'Ferske skred'
p1518
aS'Fersk vindtransportert snoe'
p1519
aS'Mye vann i snoeen'
p1520
aS'Mye vann i snoeen'
p1521
aS'Ingen faretegn observert'
p1522
aS'Rask temperaturstigning'
p1523
aS'Mye vann i snoeen'
p1524
aS'Ingen faretegn observert'
p1525
aS'Ingen faretegn observert'
p1526
aS'Ferske skred'
p1527
aS'Mye vann i snoeen'
p1528
aS'Ingen faretegn observert'
p1529
aS'Ingen faretegn observert'
p1530
aS'Mye vann i snoeen'
p1531
aS'Ikke gitt'
p1532
aS'Ferske skred'
p1533
aS'Mye vann i snoeen'
p1534
aS'Mye vann i snoeen'
p1535
aS'Ingen faretegn observert'
p1536
aS'Mye vann i snoeen'
p1537
aS'Mye vann i snoeen'
p1538
aS'Mye vann i snoeen'
p1539
aS'Mye vann i snoeen'
p1540
aS'Ferske skred'
p1541
aS'Fersk vindtransportert snoe'
p1542
aS'Ingen faretegn observert'
p1543
aS'Ferske skred'
p1544
aS'Annet faretegn (spesifiser)'
p1545
asI3
(lp1546
S'Ingen faretegn observert'
p1547
aS'Ferske sprekker'
p1548
aS'Stort snoefall'
p1549
aS'Fersk vindtransportert snoe'
p1550
aS'Ferske skred'
p1551
aS'Ferske sprekker'
p1552
aS'Ferske sprekker'
p1553
aS'Stort snoefall'
p1554
aS'Ferske sprekker'
p1555
aS'Stort snoefall'
p1556
aS'Fersk vindtransportert snoe'
p1557
aS'Ikke gitt'
p1558
aS'Fersk vindtransportert snoe'
p1559
aS'Ferske sprekker'
p1560
aS'Stort snoefall'
p1561
aS'Fersk vindtransportert snoe'
p1562
aS'Ingen faretegn observert'
p1563
aS'Stort snoefall'
p1564
aS'Fersk vindtransportert snoe'
p1565
aS'Stort snoefall'
p1566
aS'Stort snoefall'
p1567
aS'Fersk vindtransportert snoe'
p1568
aS'Stort snoefall'
p1569
aS'Fersk vindtransportert snoe'
p1570
aS'Stort snoefall'
p1571
aS'Ferske sprekker'
p1572
aS'Stort snoefall'
p1573
aS'Fersk vindtransportert snoe'
p1574
aS'Ferske skred'
p1575
aS'Fersk vindtransportert snoe'
p1576
aS'Stort snoefall'
p1577
aS'Fersk vindtransportert snoe'
p1578
aS'Ingen faretegn observert'
p1579
aS'Stort snoefall'
p1580
aS'Fersk vindtransportert snoe'
p1581
aS'Fersk vindtransportert snoe'
p1582
aS'Stort snoefall'
p1583
aS'Fersk vindtransportert snoe'
p1584
aS'Fersk vindtransportert snoe'
p1585
aS'Stort snoefall'
p1586
aS'Fersk vindtransportert snoe'
p1587
aS'Stort snoefall'
p1588
aS'Fersk vindtransportert snoe'
p1589
aS'Stort snoefall'
p1590
aS'Ferske sprekker'
p1591
aS'Ingen faretegn observert'
p1592
aS'Stort snoefall'
p1593
aS'Rimkrystaller'
p1594
aS'Rimkrystaller'
p1595
aS'Rimkrystaller'
p1596
aS'Ferske skred'
p1597
aS'Stort snoefall'
p1598
aS'Stort snoefall'
p1599
aS'Fersk vindtransportert snoe'
p1600
aS'Mye vann i snoeen'
p1601
aS'Stort snoefall'
p1602
aS'Ferske skred'
p1603
aS'Ferske sprekker'
p1604
aS'Fersk vindtransportert snoe'
p1605
aS'Stort snoefall'
p1606
aS'Stort snoefall'
p1607
aS'Fersk vindtransportert snoe'
p1608
aS'Ferske skred'
p1609
aS'Fersk vindtransportert snoe'
p1610
aS'Fersk vindtransportert snoe'
p1611
aS'Stort snoefall'
p1612
aS'Fersk vindtransportert snoe'
p1613
aS'Droenn i snoeen'
p1614
aS'Ferske sprekker'
p1615
aS'Fersk vindtransportert snoe'
p1616
aS'Fersk vindtransportert snoe'
p1617
aS'Ferske skred'
p1618
aS'Ferske sprekker'
p1619
aS'Mye vann i snoeen'
p1620
aS'Ferske skred'
p1621
aS'Stort snoefall'
p1622
aS'Fersk vindtransportert snoe'
p1623
aS'Fersk vindtransportert snoe'
p1624
aS'Stort snoefall'
p1625
aS'Fersk vindtransportert snoe'
p1626
aS'Fersk vindtransportert snoe'
p1627
aS'Annet faretegn (spesifiser)'
p1628
aS'Fersk vindtransportert snoe'
p1629
aS'Stort snoefall'
p1630
aS'Stort snoefall'
p1631
aS'Ferske skred'
p1632
aS'Stort snoefall'
p1633
aS'Ferske skred'
p1634
aS'Annet faretegn (spesifiser)'
p1635
aS'Ferske sprekker'
p1636
aS'Mye vann i snoeen'
p1637
aS'Ferske skred'
p1638
aS'Stort snoefall'
p1639
aS'Ferske skred'
p1640
aS'Rimkrystaller'
p1641
aS'Stort snoefall'
p1642
aS'Fersk vindtransportert snoe'
p1643
aS'Stort snoefall'
p1644
aS'Ferske skred'
p1645
aS'Ferske skred'
p1646
aS'Droenn i snoeen'
p1647
aS'Droenn i snoeen'
p1648
aS'Droenn i snoeen'
p1649
aS'Ferske sprekker'
p1650
aS'Ferske sprekker'
p1651
aS'Ferske sprekker'
p1652
aS'Stort snoefall'
p1653
aS'Stort snoefall'
p1654
aS'Stort snoefall'
p1655
aS'Rask temperaturstigning'
p1656
aS'Rimkrystaller'
p1657
aS'Rask temperaturstigning'
p1658
aS'Fersk vindtransportert snoe'
p1659
aS'Droenn i snoeen'
p1660
aS'Droenn i snoeen'
p1661
aS'Fersk vindtransportert snoe'
p1662
aS'Ferske sprekker'
p1663
aS'Fersk vindtransportert snoe'
p1664
aS'Rimkrystaller'
p1665
aS'Droenn i snoeen'
p1666
aS'Ferske sprekker'
p1667
aS'Fersk vindtransportert snoe'
p1668
aS'Fersk vindtransportert snoe'
p1669
aS'Stort snoefall'
p1670
aS'Rimkrystaller'
p1671
aS'Stort snoefall'
p1672
aS'Ferske skred'
p1673
aS'Rimkrystaller'
p1674
aS'Stort snoefall'
p1675
aS'Fersk vindtransportert snoe'
p1676
aS'Stort snoefall'
p1677
aS'Annet faretegn (spesifiser)'
p1678
aS'Stort snoefall'
p1679
aS'Droenn i snoeen'
p1680
aS'Fersk vindtransportert snoe'
p1681
aS'Droenn i snoeen'
p1682
aS'Fersk vindtransportert snoe'
p1683
aS'Stort snoefall'
p1684
aS'Ingen faretegn observert'
p1685
aS'Stort snoefall'
p1686
aS'Ferske skred'
p1687
aS'Fersk vindtransportert snoe'
p1688
aS'Droenn i snoeen'
p1689
aS'Ferske skred'
p1690
aS'Ferske sprekker'
p1691
aS'Fersk vindtransportert snoe'
p1692
aS'Fersk vindtransportert snoe'
p1693
aS'Rimkrystaller'
p1694
aS'Droenn i snoeen'
p1695
aS'Fersk vindtransportert snoe'
p1696
aS'Ferske skred'
p1697
aS'Ferske skred'
p1698
aS'Droenn i snoeen'
p1699
aS'Ferske sprekker'
p1700
aS'Fersk vindtransportert snoe'
p1701
aS'Droenn i snoeen'
p1702
aS'Ingen faretegn observert'
p1703
aS'Fersk vindtransportert snoe'
p1704
aS'Droenn i snoeen'
p1705
aS'Droenn i snoeen'
p1706
aS'Droenn i snoeen'
p1707
aS'Rimkrystaller'
p1708
aS'Stort snoefall'
p1709
aS'Fersk vindtransportert snoe'
p1710
aS'Rimkrystaller'
p1711
aS'Fersk vindtransportert snoe'
p1712
aS'Fersk vindtransportert snoe'
p1713
aS'Droenn i snoeen'
p1714
aS'Fersk vindtransportert snoe'
p1715
aS'Ingen faretegn observert'
p1716
aS'Ferske sprekker'
p1717
aS'Ferske skred'
p1718
aS'Fersk vindtransportert snoe'
p1719
aS'Droenn i snoeen'
p1720
aS'Fersk vindtransportert snoe'
p1721
aS'Stort snoefall'
p1722
aS'Rask temperaturstigning'
p1723
aS'Mye vann i snoeen'
p1724
aS'Rask temperaturstigning'
p1725
aS'Stort snoefall'
p1726
aS'Mye vann i snoeen'
p1727
aS'Rask temperaturstigning'
p1728
aS'Mye vann i snoeen'
p1729
aS'Ferske skred'
p1730
aS'Stort snoefall'
p1731
aS'Stort snoefall'
p1732
aS'Mye vann i snoeen'
p1733
aS'Mye vann i snoeen'
p1734
aS'Stort snoefall'
p1735
aS'Ferske skred'
p1736
aS'Mye vann i snoeen'
p1737
aS'Stort snoefall'
p1738
aS'Ferske skred'
p1739
aS'Fersk vindtransportert snoe'
p1740
aS'Rask temperaturstigning'
p1741
aS'Rask temperaturstigning'
p1742
aS'Mye vann i snoeen'
p1743
aS'Stort snoefall'
p1744
aS'Mye vann i snoeen'
p1745
aS'Rask temperaturstigning'
p1746
aS'Mye vann i snoeen'
p1747
aS'Ferske skred'
p1748
aS'Rask temperaturstigning'
p1749
aS'Mye vann i snoeen'
p1750
aS'Stort snoefall'
p1751
aS'Rask temperaturstigning'
p1752
aS'Mye vann i snoeen'
p1753
aS'Ferske skred'
p1754
aS'Rask temperaturstigning'
p1755
aS'Ferske skred'
p1756
aS'Rask temperaturstigning'
p1757
aS'Mye vann i snoeen'
p1758
aS'Mye vann i snoeen'
p1759
aS'Rask temperaturstigning'
p1760
aS'Ferske skred'
p1761
aS'Rask temperaturstigning'
p1762
aS'Mye vann i snoeen'
p1763
aS'Mye vann i snoeen'
p1764
aS'Rask temperaturstigning'
p1765
aS'Mye vann i snoeen'
p1766
aS'Mye vann i snoeen'
p1767
aS'Rask temperaturstigning'
p1768
aS'Rask temperaturstigning'
p1769
aS'Mye vann i snoeen'
p1770
aS'Mye vann i snoeen'
p1771
aS'Ferske skred'
p1772
aS'Ferske skred'
p1773
aS'Ingen faretegn observert'
p1774
aS'Fersk vindtransportert snoe'
p1775
aS'Ingen faretegn observert'
p1776
aS'Annet faretegn (spesifiser)'
p1777
aS'Mye vann i snoeen'
p1778
aS'Fersk vindtransportert snoe'
p1779
aS'Ferske skred'
p1780
aS'Mye vann i snoeen'
p1781
aS'Fersk vindtransportert snoe'
p1782
aS'Mye vann i snoeen'
p1783
aS'Ferske skred'
p1784
aS'Droenn i snoeen'
p1785
aS'Ikke gitt'
p1786
aS'Mye vann i snoeen'
p1787
aS'Ingen faretegn observert'
p1788
aS'Stort snoefall'
p1789
aS'Ferske sprekker'
p1790
aS'Fersk vindtransportert snoe'
p1791
aS'Mye vann i snoeen'
p1792
aS'Mye vann i snoeen'
p1793
aS'Annet faretegn (spesifiser)'
p1794
aS'Mye vann i snoeen'
p1795
aS'Fersk vindtransportert snoe'
p1796
aS'Fersk vindtransportert snoe'
p1797
aS'Fersk vindtransportert snoe'
p1798
aS'Fersk vindtransportert snoe'
p1799
aS'Fersk vindtransportert snoe'
p1800
aS'Ingen faretegn observert'
p1801
aS'Ferske sprekker'
p1802
aS'Fersk vindtransportert snoe'
p1803
aS'Fersk vindtransportert snoe'
p1804
aS'Fersk vindtransportert snoe'
p1805
aS'Stort snoefall'
p1806
aS'Fersk vindtransportert snoe'
p1807
aS'Fersk vindtransportert snoe'
p1808
aS'Fersk vindtransportert snoe'
p1809
aS'Fersk vindtransportert snoe'
p1810
aS'Fersk vindtransportert snoe'
p1811
aS'Fersk vindtransportert snoe'
p1812
aS'Fersk vindtransportert snoe'
p1813
aS'Fersk vindtransportert snoe'
p1814
aS'Fersk vindtransportert snoe'
p1815
aS'Fersk vindtransportert snoe'
p1816
aS'Ferske sprekker'
p1817
aS'Ferske sprekker'
p1818
aS'Fersk vindtransportert snoe'
p1819
aS'Fersk vindtransportert snoe'
p1820
aS'Mye vann i snoeen'
p1821
aS'Stort snoefall'
p1822
aS'Fersk vindtransportert snoe'
p1823
aS'Stort snoefall'
p1824
aS'Fersk vindtransportert snoe'
p1825
aS'Stort snoefall'
p1826
aS'Annet faretegn (spesifiser)'
p1827
aS'Stort snoefall'
p1828
aS'Fersk vindtransportert snoe'
p1829
aS'Ferske skred'
p1830
aS'Fersk vindtransportert snoe'
p1831
aS'Fersk vindtransportert snoe'
p1832
aS'Ferske sprekker'
p1833
aS'Ferske sprekker'
p1834
aS'Ingen faretegn observert'
p1835
aS'Fersk vindtransportert snoe'
p1836
aS'Annet faretegn (spesifiser)'
p1837
aS'Fersk vindtransportert snoe'
p1838
aS'Fersk vindtransportert snoe'
p1839
aS'Stort snoefall'
p1840
aS'Fersk vindtransportert snoe'
p1841
aS'Ingen faretegn observert'
p1842
aS'Fersk vindtransportert snoe'
p1843
aS'Fersk vindtransportert snoe'
p1844
aS'Mye vann i snoeen'
p1845
aS'Ferske skred'
p1846
aS'Fersk vindtransportert snoe'
p1847
aS'Ferske skred'
p1848
aS'Stort snoefall'
p1849
aS'Stort snoefall'
p1850
aS'Fersk vindtransportert snoe'
p1851
aS'Fersk vindtransportert snoe'
p1852
aS'Stort snoefall'
p1853
aS'Fersk vindtransportert snoe'
p1854
aS'Fersk vindtransportert snoe'
p1855
aS'Mye vann i snoeen'
p1856
aS'Mye vann i snoeen'
p1857
aS'Mye vann i snoeen'
p1858
aS'Fersk vindtransportert snoe'
p1859
aS'Stort snoefall'
p1860
aS'Fersk vindtransportert snoe'
p1861
aS'Stort snoefall'
p1862
aS'Stort snoefall'
p1863
aS'Fersk vindtransportert snoe'
p1864
aS'Ferske sprekker'
p1865
aS'Stort snoefall'
p1866
aS'Droenn i snoeen'
p1867
aS'Fersk vindtransportert snoe'
p1868
aS'Stort snoefall'
p1869
aS'Stort snoefall'
p1870
aS'Mye vann i snoeen'
p1871
aS'Stort snoefall'
p1872
aS'Stort snoefall'
p1873
aS'Fersk vindtransportert snoe'
p1874
aS'Ferske skred'
p1875
aS'Stort snoefall'
p1876
aS'Fersk vindtransportert snoe'
p1877
aS'Rask temperaturstigning'
p1878
aS'Mye vann i snoeen'
p1879
aS'Ferske skred'
p1880
aS'Fersk vindtransportert snoe'
p1881
aS'Ferske sprekker'
p1882
aS'Stort snoefall'
p1883
aS'Fersk vindtransportert snoe'
p1884
aS'Stort snoefall'
p1885
aS'Stort snoefall'
p1886
aS'Mye vann i snoeen'
p1887
aS'Stort snoefall'
p1888
aS'Fersk vindtransportert snoe'
p1889
aS'Fersk vindtransportert snoe'
p1890
aS'Mye vann i snoeen'
p1891
aS'Mye vann i snoeen'
p1892
aS'Stort snoefall'
p1893
aS'Fersk vindtransportert snoe'
p1894
aS'Rask temperaturstigning'
p1895
aS'Mye vann i snoeen'
p1896
aS'Rask temperaturstigning'
p1897
aS'Mye vann i snoeen'
p1898
aS'Fersk vindtransportert snoe'
p1899
aS'Fersk vindtransportert snoe'
p1900
aS'Ferske sprekker'
p1901
aS'Fersk vindtransportert snoe'
p1902
aS'Ferske sprekker'
p1903
aS'Fersk vindtransportert snoe'
p1904
aS'Stort snoefall'
p1905
aS'Stort snoefall'
p1906
aS'Fersk vindtransportert snoe'
p1907
aS'Mye vann i snoeen'
p1908
aS'Ferske skred'
p1909
aS'Stort snoefall'
p1910
aS'Fersk vindtransportert snoe'
p1911
aS'Stort snoefall'
p1912
aS'Fersk vindtransportert snoe'
p1913
aS'Ferske skred'
p1914
aS'Stort snoefall'
p1915
aS'Ferske sprekker'
p1916
aS'Fersk vindtransportert snoe'
p1917
aS'Stort snoefall'
p1918
aS'Fersk vindtransportert snoe'
p1919
aS'Stort snoefall'
p1920
aS'Ferske skred'
p1921
aS'Droenn i snoeen'
p1922
aS'Droenn i snoeen'
p1923
aS'Stort snoefall'
p1924
aS'Ferske skred'
p1925
aS'Ferske skred'
p1926
aS'Fersk vindtransportert snoe'
p1927
aS'Fersk vindtransportert snoe'
p1928
aS'Ferske skred'
p1929
aS'Droenn i snoeen'
p1930
aS'Ingen faretegn observert'
p1931
aS'Stort snoefall'
p1932
aS'Fersk vindtransportert snoe'
p1933
aS'Fersk vindtransportert snoe'
p1934
aS'Stort snoefall'
p1935
aS'Fersk vindtransportert snoe'
p1936
aS'Mye vann i snoeen'
p1937
aS'Stort snoefall'
p1938
aS'Fersk vindtransportert snoe'
p1939
aS'Mye vann i snoeen'
p1940
aS'Ferske skred'
p1941
aS'Ferske sprekker'
p1942
aS'Fersk vindtransportert snoe'
p1943
aS'Ikke gitt'
p1944
aS'Stort snoefall'
p1945
aS'Mye vann i snoeen'
p1946
aS'Ferske skred'
p1947
aS'Stort snoefall'
p1948
aS'Fersk vindtransportert snoe'
p1949
aS'Ferske skred'
p1950
aS'Stort snoefall'
p1951
aS'Stort snoefall'
p1952
aS'Fersk vindtransportert snoe'
p1953
aS'Ferske skred'
p1954
aS'Stort snoefall'
p1955
aS'Mye vann i snoeen'
p1956
aS'Ferske skred'
p1957
aS'Fersk vindtransportert snoe'
p1958
aS'Fersk vindtransportert snoe'
p1959
aS'Stort snoefall'
p1960
aS'Fersk vindtransportert snoe'
p1961
aS'Rask temperaturstigning'
p1962
aS'Mye vann i snoeen'
p1963
aS'Ferske skred'
p1964
aS'Droenn i snoeen'
p1965
aS'Stort snoefall'
p1966
aS'Ferske skred'
p1967
aS'Fersk vindtransportert snoe'
p1968
aS'Fersk vindtransportert snoe'
p1969
aS'Ferske sprekker'
p1970
aS'Stort snoefall'
p1971
aS'Mye vann i snoeen'
p1972
aS'Ferske skred'
p1973
aS'Fersk vindtransportert snoe'
p1974
aS'Ferske sprekker'
p1975
aS'Fersk vindtransportert snoe'
p1976
aS'Fersk vindtransportert snoe'
p1977
aS'Ferske sprekker'
p1978
aS'Ferske sprekker'
p1979
aS'Fersk vindtransportert snoe'
p1980
aS'Fersk vindtransportert snoe'
p1981
aS'Fersk vindtransportert snoe'
p1982
aS'Mye vann i snoeen'
p1983
aS'Ferske skred'
p1984
aS'Annet faretegn (spesifiser)'
p1985
aS'Mye vann i snoeen'
p1986
aS'Stort snoefall'
p1987
aS'Fersk vindtransportert snoe'
p1988
aS'Fersk vindtransportert snoe'
p1989
aS'Ferske sprekker'
p1990
aS'Droenn i snoeen'
p1991
aS'Ferske sprekker'
p1992
aS'Droenn i snoeen'
p1993
aS'Stort snoefall'
p1994
aS'Fersk vindtransportert snoe'
p1995
aS'Fersk vindtransportert snoe'
p1996
aS'Fersk vindtransportert snoe'
p1997
aS'Ingen faretegn observert'
p1998
aS'Ingen faretegn observert'
p1999
aS'Ferske skred'
p2000
aS'Ingen faretegn observert'
p2001
aS'Ferske sprekker'
p2002
aS'Ferske skred'
p2003
aS'Stort snoefall'
p2004
aS'Ferske sprekker'
p2005
aS'Stort snoefall'
p2006
aS'Ingen faretegn observert'
p2007
aS'Fersk vindtransportert snoe'
p2008
aS'Rimkrystaller'
p2009
aS'Rimkrystaller'
p2010
aS'Fersk vindtransportert snoe'
p2011
aS'Rimkrystaller'
p2012
aS'Ingen faretegn observert'
p2013
aS'Ingen faretegn observert'
p2014
aS'Rimkrystaller'
p2015
aS'Rimkrystaller'
p2016
aS'Ferske sprekker'
p2017
aS'Rimkrystaller'
p2018
aS'Ingen faretegn observert'
p2019
aS'Fersk vindtransportert snoe'
p2020
aS'Ingen faretegn observert'
p2021
aS'Fersk vindtransportert snoe'
p2022
aS'Rimkrystaller'
p2023
aS'Rimkrystaller'
p2024
aS'Rimkrystaller'
p2025
aS'Rimkrystaller'
p2026
aS'Rimkrystaller'
p2027
aS'Rimkrystaller'
p2028
aS'Rimkrystaller'
p2029
aS'Rimkrystaller'
p2030
aS'Rask temperaturstigning'
p2031
aS'Annet faretegn (spesifiser)'
p2032
aS'Rimkrystaller'
p2033
aS'Rimkrystaller'
p2034
aS'Rimkrystaller'
p2035
aS'Ferske sprekker'
p2036
aS'Fersk vindtransportert snoe'
p2037
aS'Ingen faretegn observert'
p2038
aS'Fersk vindtransportert snoe'
p2039
aS'Ingen faretegn observert'
p2040
aS'Fersk vindtransportert snoe'
p2041
aS'Fersk vindtransportert snoe'
p2042
aS'Stort snoefall'
p2043
aS'Ferske sprekker'
p2044
aS'Fersk vindtransportert snoe'
p2045
aS'Ingen faretegn observert'
p2046
aS'Ferske skred'
p2047
aS'Rask temperaturstigning'
p2048
aS'Ferske skred'
p2049
aS'Stort snoefall'
p2050
aS'Stort snoefall'
p2051
aS'Fersk vindtransportert snoe'
p2052
aS'Fersk vindtransportert snoe'
p2053
aS'Rask temperaturstigning'
p2054
aS'Fersk vindtransportert snoe'
p2055
aS'Stort snoefall'
p2056
aS'Ikke gitt'
p2057
aS'Stort snoefall'
p2058
aS'Droenn i snoeen'
p2059
aS'Fersk vindtransportert snoe'
p2060
aS'Droenn i snoeen'
p2061
aS'Droenn i snoeen'
p2062
aS'Mye vann i snoeen'
p2063
aS'Ferske skred'
p2064
aS'Fersk vindtransportert snoe'
p2065
aS'Rask temperaturstigning'
p2066
aS'Fersk vindtransportert snoe'
p2067
aS'Fersk vindtransportert snoe'
p2068
aS'Ferske skred'
p2069
aS'Ferske skred'
p2070
aS'Fersk vindtransportert snoe'
p2071
aS'Mye vann i snoeen'
p2072
aS'Rask temperaturstigning'
p2073
aS'Mye vann i snoeen'
p2074
aS'Ferske skred'
p2075
aS'Ferske sprekker'
p2076
aS'Mye vann i snoeen'
p2077
aS'Ferske skred'
p2078
aS'Rask temperaturstigning'
p2079
aS'Stort snoefall'
p2080
aS'Mye vann i snoeen'
p2081
aS'Rask temperaturstigning'
p2082
aS'Mye vann i snoeen'
p2083
aS'Ferske skred'
p2084
aS'Fersk vindtransportert snoe'
p2085
aS'Ingen faretegn observert'
p2086
aS'Droenn i snoeen'
p2087
aS'Ingen faretegn observert'
p2088
aS'Ferske sprekker'
p2089
aS'Fersk vindtransportert snoe'
p2090
aS'Stort snoefall'
p2091
aS'Fersk vindtransportert snoe'
p2092
aS'Ferske sprekker'
p2093
aS'Ingen faretegn observert'
p2094
aS'Ingen faretegn observert'
p2095
aS'Ferske skred'
p2096
aS'Fersk vindtransportert snoe'
p2097
aS'Ferske skred'
p2098
aS'Fersk vindtransportert snoe'
p2099
aS'Ferske skred'
p2100
aS'Ferske sprekker'
p2101
aS'Ferske skred'
p2102
aS'Fersk vindtransportert snoe'
p2103
aS'Ingen faretegn observert'
p2104
aS'Fersk vindtransportert snoe'
p2105
aS'Ingen faretegn observert'
p2106
aS'Rimkrystaller'
p2107
aS'Fersk vindtransportert snoe'
p2108
aS'Ferske sprekker'
p2109
aS'Ferske skred'
p2110
aS'Rimkrystaller'
p2111
aS'Rimkrystaller'
p2112
aS'Rimkrystaller'
p2113
aS'Fersk vindtransportert snoe'
p2114
aS'Ferske skred'
p2115
aS'Fersk vindtransportert snoe'
p2116
aS'Ferske skred'
p2117
aS'Droenn i snoeen'
p2118
aS'Ferske sprekker'
p2119
aS'Rimkrystaller'
p2120
aS'Rimkrystaller'
p2121
aS'Rimkrystaller'
p2122
aS'Rimkrystaller'
p2123
aS'Droenn i snoeen'
p2124
aS'Rimkrystaller'
p2125
aS'Rimkrystaller'
p2126
aS'Ferske skred'
p2127
aS'Stort snoefall'
p2128
aS'Ferske sprekker'
p2129
aS'Stort snoefall'
p2130
aS'Rask temperaturstigning'
p2131
aS'Rimkrystaller'
p2132
aS'Rimkrystaller'
p2133
aS'Fersk vindtransportert snoe'
p2134
aS'Fersk vindtransportert snoe'
p2135
aS'Ferske sprekker'
p2136
aS'Ferske sprekker'
p2137
aS'Fersk vindtransportert snoe'
p2138
aS'Droenn i snoeen'
p2139
aS'Droenn i snoeen'
p2140
aS'Fersk vindtransportert snoe'
p2141
aS'Rask temperaturstigning'
p2142
aS'Ferske skred'
p2143
aS'Ferske skred'
p2144
aS'Rask temperaturstigning'
p2145
aS'Droenn i snoeen'
p2146
aS'Stort snoefall'
p2147
aS'Fersk vindtransportert snoe'
p2148
aS'Ferske sprekker'
p2149
aS'Droenn i snoeen'
p2150
aS'Stort snoefall'
p2151
aS'Fersk vindtransportert snoe'
p2152
aS'Fersk vindtransportert snoe'
p2153
aS'Ferske sprekker'
p2154
aS'Rask temperaturstigning'
p2155
aS'Mye vann i snoeen'
p2156
aS'Ferske skred'
p2157
aS'Rask temperaturstigning'
p2158
aS'Mye vann i snoeen'
p2159
aS'Rask temperaturstigning'
p2160
aS'Rask temperaturstigning'
p2161
aS'Ferske skred'
p2162
aS'Rimkrystaller'
p2163
aS'Rimkrystaller'
p2164
aS'Ingen faretegn observert'
p2165
aS'Rimkrystaller'
p2166
aS'Fersk vindtransportert snoe'
p2167
aS'Fersk vindtransportert snoe'
p2168
aS'Rimkrystaller'
p2169
aS'Rimkrystaller'
p2170
aS'Annet faretegn (spesifiser)'
p2171
aS'Droenn i snoeen'
p2172
aS'Droenn i snoeen'
p2173
aS'Stort snoefall'
p2174
aS'Stort snoefall'
p2175
aS'Fersk vindtransportert snoe'
p2176
aS'Fersk vindtransportert snoe'
p2177
aS'Fersk vindtransportert snoe'
p2178
aS'Ferske skred'
p2179
aS'Stort snoefall'
p2180
aS'Ferske sprekker'
p2181
aS'Fersk vindtransportert snoe'
p2182
aS'Ferske sprekker'
p2183
aS'Droenn i snoeen'
p2184
aS'Droenn i snoeen'
p2185
aS'Droenn i snoeen'
p2186
aS'Droenn i snoeen'
p2187
aS'Ferske sprekker'
p2188
aS'Droenn i snoeen'
p2189
aS'Ferske sprekker'
p2190
aS'Fersk vindtransportert snoe'
p2191
aS'Droenn i snoeen'
p2192
aS'Droenn i snoeen'
p2193
aS'Ferske sprekker'
p2194
aS'Ferske sprekker'
p2195
aS'Rask temperaturstigning'
p2196
aS'Stort snoefall'
p2197
aS'Fersk vindtransportert snoe'
p2198
aS'Ferske sprekker'
p2199
aS'Fersk vindtransportert snoe'
p2200
aS'Ferske sprekker'
p2201
aS'Droenn i snoeen'
p2202
aS'Fersk vindtransportert snoe'
p2203
aS'Fersk vindtransportert snoe'
p2204
aS'Stort snoefall'
p2205
aS'Droenn i snoeen'
p2206
aS'Fersk vindtransportert snoe'
p2207
aS'Ferske skred'
p2208
aS'Droenn i snoeen'
p2209
aS'Ferske skred'
p2210
aS'Ferske skred'
p2211
aS'Ferske skred'
p2212
aS'Rimkrystaller'
p2213
aS'Ferske sprekker'
p2214
aS'Droenn i snoeen'
p2215
aS'Fersk vindtransportert snoe'
p2216
aS'Fersk vindtransportert snoe'
p2217
aS'Fersk vindtransportert snoe'
p2218
aS'Fersk vindtransportert snoe'
p2219
aS'Rask temperaturstigning'
p2220
aS'Fersk vindtransportert snoe'
p2221
aS'Fersk vindtransportert snoe'
p2222
aS'Droenn i snoeen'
p2223
aS'Droenn i snoeen'
p2224
aS'Rask temperaturstigning'
p2225
aS'Ferske sprekker'
p2226
aS'Droenn i snoeen'
p2227
aS'Rask temperaturstigning'
p2228
aS'Ferske sprekker'
p2229
aS'Stort snoefall'
p2230
aS'Droenn i snoeen'
p2231
aS'Ferske sprekker'
p2232
aS'Droenn i snoeen'
p2233
aS'Rask temperaturstigning'
p2234
aS'Droenn i snoeen'
p2235
aS'Rask temperaturstigning'
p2236
aS'Annet faretegn (spesifiser)'
p2237
aS'Mye vann i snoeen'
p2238
aS'Mye vann i snoeen'
p2239
aS'Rask temperaturstigning'
p2240
aS'Mye vann i snoeen'
p2241
aS'Ferske skred'
p2242
aS'Mye vann i snoeen'
p2243
aS'Rask temperaturstigning'
p2244
aS'Mye vann i snoeen'
p2245
aS'Ferske skred'
p2246
aS'Mye vann i snoeen'
p2247
aS'Ingen faretegn observert'
p2248
aS'Rimkrystaller'
p2249
aS'Rimkrystaller'
p2250
aS'Rask temperaturstigning'
p2251
aS'Ferske skred'
p2252
aS'Rask temperaturstigning'
p2253
aS'Rimkrystaller'
p2254
aS'Droenn i snoeen'
p2255
aS'Fersk vindtransportert snoe'
p2256
aS'Ferske skred'
p2257
aS'Ferske skred'
p2258
aS'Rask temperaturstigning'
p2259
aS'Rask temperaturstigning'
p2260
aS'Ferske skred'
p2261
aS'Stort snoefall'
p2262
aS'Fersk vindtransportert snoe'
p2263
aS'Rask temperaturstigning'
p2264
aS'Fersk vindtransportert snoe'
p2265
aS'Fersk vindtransportert snoe'
p2266
aS'Fersk vindtransportert snoe'
p2267
aS'Mye vann i snoeen'
p2268
aS'Stort snoefall'
p2269
aS'Fersk vindtransportert snoe'
p2270
aS'Fersk vindtransportert snoe'
p2271
aS'Fersk vindtransportert snoe'
p2272
aS'Rimkrystaller'
p2273
aS'Fersk vindtransportert snoe'
p2274
aS'Droenn i snoeen'
p2275
aS'Annet faretegn (spesifiser)'
p2276
aS'Annet faretegn (spesifiser)'
p2277
aS'Rimkrystaller'
p2278
aS'Fersk vindtransportert snoe'
p2279
aS'Fersk vindtransportert snoe'
p2280
aS'Rask temperaturstigning'
p2281
aS'Ferske skred'
p2282
aS'Fersk vindtransportert snoe'
p2283
aS'Rask temperaturstigning'
p2284
aS'Ferske skred'
p2285
aS'Ferske sprekker'
p2286
aS'Ferske skred'
p2287
aS'Droenn i snoeen'
p2288
aS'Fersk vindtransportert snoe'
p2289
aS'Ferske sprekker'
p2290
aS'Droenn i snoeen'
p2291
aS'Stort snoefall'
p2292
aS'Fersk vindtransportert snoe'
p2293
aS'Fersk vindtransportert snoe'
p2294
aS'Fersk vindtransportert snoe'
p2295
aS'Droenn i snoeen'
p2296
aS'Stort snoefall'
p2297
aS'Fersk vindtransportert snoe'
p2298
aS'Ferske skred'
p2299
aS'Fersk vindtransportert snoe'
p2300
aS'Fersk vindtransportert snoe'
p2301
aS'Fersk vindtransportert snoe'
p2302
aS'Ingen faretegn observert'
p2303
aS'Annet faretegn (spesifiser)'
p2304
aS'Rask temperaturstigning'
p2305
aS'Fersk vindtransportert snoe'
p2306
aS'Stort snoefall'
p2307
aS'Fersk vindtransportert snoe'
p2308
aS'Annet faretegn (spesifiser)'
p2309
aS'Fersk vindtransportert snoe'
p2310
aS'Fersk vindtransportert snoe'
p2311
aS'Fersk vindtransportert snoe'
p2312
aS'Stort snoefall'
p2313
aS'Fersk vindtransportert snoe'
p2314
aS'Rask temperaturstigning'
p2315
aS'Ferske skred'
p2316
aS'Stort snoefall'
p2317
aS'Fersk vindtransportert snoe'
p2318
aS'Stort snoefall'
p2319
aS'Fersk vindtransportert snoe'
p2320
aS'Ferske skred'
p2321
aS'Droenn i snoeen'
p2322
aS'Fersk vindtransportert snoe'
p2323
aS'Fersk vindtransportert snoe'
p2324
aS'Droenn i snoeen'
p2325
aS'Ferske sprekker'
p2326
aS'Ingen faretegn observert'
p2327
aS'Ingen faretegn observert'
p2328
aS'Ingen faretegn observert'
p2329
aS'Stort snoefall'
p2330
aS'Fersk vindtransportert snoe'
p2331
aS'Droenn i snoeen'
p2332
aS'Fersk vindtransportert snoe'
p2333
aS'Ferske skred'
p2334
aS'Ferske skred'
p2335
aS'Fersk vindtransportert snoe'
p2336
aS'Fersk vindtransportert snoe'
p2337
aS'Rimkrystaller'
p2338
aS'Ferske skred'
p2339
aS'Droenn i snoeen'
p2340
aS'Ferske sprekker'
p2341
aS'Ingen faretegn observert'
p2342
aS'Droenn i snoeen'
p2343
aS'Ferske skred'
p2344
aS'Droenn i snoeen'
p2345
aS'Droenn i snoeen'
p2346
aS'Fersk vindtransportert snoe'
p2347
aS'Ferske skred'
p2348
aS'Droenn i snoeen'
p2349
aS'Fersk vindtransportert snoe'
p2350
aS'Fersk vindtransportert snoe'
p2351
aS'Ingen faretegn observert'
p2352
aS'Fersk vindtransportert snoe'
p2353
aS'Droenn i snoeen'
p2354
aS'Droenn i snoeen'
p2355
aS'Ferske sprekker'
p2356
aS'Fersk vindtransportert snoe'
p2357
aS'Fersk vindtransportert snoe'
p2358
aS'Ingen faretegn observert'
p2359
aS'Fersk vindtransportert snoe'
p2360
aS'Fersk vindtransportert snoe'
p2361
aS'Ferske sprekker'
p2362
aS'Fersk vindtransportert snoe'
p2363
aS'Rask temperaturstigning'
p2364
aS'Fersk vindtransportert snoe'
p2365
aS'Ferske skred'
p2366
aS'Fersk vindtransportert snoe'
p2367
aS'Ingen faretegn observert'
p2368
aS'Droenn i snoeen'
p2369
aS'Mye vann i snoeen'
p2370
aS'Ingen faretegn observert'
p2371
aS'Fersk vindtransportert snoe'
p2372
aS'Ferske sprekker'
p2373
aS'Fersk vindtransportert snoe'
p2374
aS'Fersk vindtransportert snoe'
p2375
aS'Ferske skred'
p2376
aS'Ferske skred'
p2377
aS'Annet faretegn (spesifiser)'
p2378
aS'Fersk vindtransportert snoe'
p2379
aS'Droenn i snoeen'
p2380
aS'Ferske sprekker'
p2381
aS'Stort snoefall'
p2382
aS'Stort snoefall'
p2383
aS'Fersk vindtransportert snoe'
p2384
aS'Fersk vindtransportert snoe'
p2385
aS'Fersk vindtransportert snoe'
p2386
aS'Mye vann i snoeen'
p2387
aS'Mye vann i snoeen'
p2388
aS'Ferske skred'
p2389
aS'Ferske skred'
p2390
aS'Mye vann i snoeen'
p2391
aS'Fersk vindtransportert snoe'
p2392
aS'Stort snoefall'
p2393
aS'Fersk vindtransportert snoe'
p2394
aS'Droenn i snoeen'
p2395
aS'Ferske skred'
p2396
aS'Ferske skred'
p2397
aS'Droenn i snoeen'
p2398
aS'Fersk vindtransportert snoe'
p2399
aS'Droenn i snoeen'
p2400
aS'Fersk vindtransportert snoe'
p2401
aS'Rask temperaturstigning'
p2402
aS'Mye vann i snoeen'
p2403
aS'Ferske skred'
p2404
aS'Rask temperaturstigning'
p2405
aS'Mye vann i snoeen'
p2406
aS'Ferske skred'
p2407
aS'Fersk vindtransportert snoe'
p2408
aS'Mye vann i snoeen'
p2409
aS'Droenn i snoeen'
p2410
aS'Ferske sprekker'
p2411
aS'Ferske sprekker'
p2412
aS'Fersk vindtransportert snoe'
p2413
aS'Rask temperaturstigning'
p2414
aS'Mye vann i snoeen'
p2415
aS'Ingen faretegn observert'
p2416
aS'Droenn i snoeen'
p2417
aS'Rask temperaturstigning'
p2418
aS'Rask temperaturstigning'
p2419
aS'Ingen faretegn observert'
p2420
aS'Mye vann i snoeen'
p2421
aS'Mye vann i snoeen'
p2422
aS'Mye vann i snoeen'
p2423
aS'Ferske skred'
p2424
aS'Ferske skred'
p2425
aS'Annet faretegn (spesifiser)'
p2426
aS'Mye vann i snoeen'
p2427
aS'Mye vann i snoeen'
p2428
aS'Ferske skred'
p2429
aS'Ferske skred'
p2430
aS'Mye vann i snoeen'
p2431
aS'Mye vann i snoeen'
p2432
aS'Mye vann i snoeen'
p2433
aS'Mye vann i snoeen'
p2434
aS'Mye vann i snoeen'
p2435
aS'Fersk vindtransportert snoe'
p2436
aS'Rask temperaturstigning'
p2437
aS'Mye vann i snoeen'
p2438
aS'Ferske skred'
p2439
aS'Ingen faretegn observert'
p2440
aS'Fersk vindtransportert snoe'
p2441
aS'Ingen faretegn observert'
p2442
aS'Droenn i snoeen'
p2443
aS'Mye vann i snoeen'
p2444
aS'Rask temperaturstigning'
p2445
aS'Droenn i snoeen'
p2446
aS'Mye vann i snoeen'
p2447
aS'Rask temperaturstigning'
p2448
aS'Mye vann i snoeen'
p2449
aS'Rask temperaturstigning'
p2450
aS'Ferske sprekker'
p2451
aS'Ferske skred'
p2452
aS'Rask temperaturstigning'
p2453
aS'Mye vann i snoeen'
p2454
aS'Ferske skred'
p2455
aS'Droenn i snoeen'
p2456
aS'Fersk vindtransportert snoe'
p2457
aS'Fersk vindtransportert snoe'
p2458
aS'Droenn i snoeen'
p2459
aS'Mye vann i snoeen'
p2460
aS'Ferske skred'
p2461
aS'Droenn i snoeen'
p2462
aS'Mye vann i snoeen'
p2463
aS'Ferske sprekker'
p2464
aS'Fersk vindtransportert snoe'
p2465
aS'Ferske sprekker'
p2466
aS'Droenn i snoeen'
p2467
aS'Ferske skred'
p2468
aS'Fersk vindtransportert snoe'
p2469
aS'Fersk vindtransportert snoe'
p2470
aS'Droenn i snoeen'
p2471
aS'Ingen faretegn observert'
p2472
aS'Fersk vindtransportert snoe'
p2473
aS'Droenn i snoeen'
p2474
aS'Droenn i snoeen'
p2475
aS'Rimkrystaller'
p2476
aS'Annet faretegn (spesifiser)'
p2477
aS'Ferske sprekker'
p2478
aS'Fersk vindtransportert snoe'
p2479
aS'Stort snoefall'
p2480
aS'Fersk vindtransportert snoe'
p2481
aS'Fersk vindtransportert snoe'
p2482
aS'Fersk vindtransportert snoe'
p2483
aS'Ferske skred'
p2484
aS'Fersk vindtransportert snoe'
p2485
aS'Fersk vindtransportert snoe'
p2486
aS'Fersk vindtransportert snoe'
p2487
aS'Rask temperaturstigning'
p2488
aS'Ferske skred'
p2489
aS'Stort snoefall'
p2490
aS'Fersk vindtransportert snoe'
p2491
aS'Ferske sprekker'
p2492
aS'Fersk vindtransportert snoe'
p2493
aS'Fersk vindtransportert snoe'
p2494
aS'Mye vann i snoeen'
p2495
aS'Fersk vindtransportert snoe'
p2496
aS'Ferske sprekker'
p2497
aS'Fersk vindtransportert snoe'
p2498
aS'Fersk vindtransportert snoe'
p2499
aS'Fersk vindtransportert snoe'
p2500
aS'Ferske sprekker'
p2501
aS'Ingen faretegn observert'
p2502
aS'Ingen faretegn observert'
p2503
aS'Fersk vindtransportert snoe'
p2504
aS'Mye vann i snoeen'
p2505
aS'Mye vann i snoeen'
p2506
aS'Fersk vindtransportert snoe'
p2507
aS'Stort snoefall'
p2508
aS'Fersk vindtransportert snoe'
p2509
aS'Ferske skred'
p2510
aS'Ingen faretegn observert'
p2511
aS'Ingen faretegn observert'
p2512
aS'Stort snoefall'
p2513
aS'Fersk vindtransportert snoe'
p2514
aS'Fersk vindtransportert snoe'
p2515
aS'Fersk vindtransportert snoe'
p2516
aS'Fersk vindtransportert snoe'
p2517
aS'Fersk vindtransportert snoe'
p2518
aS'Fersk vindtransportert snoe'
p2519
aS'Ingen faretegn observert'
p2520
aS'Fersk vindtransportert snoe'
p2521
aS'Stort snoefall'
p2522
aS'Ferske skred'
p2523
aS'Mye vann i snoeen'
p2524
aS'Rimkrystaller'
p2525
aS'Ferske skred'
p2526
aS'Fersk vindtransportert snoe'
p2527
aS'Ferske sprekker'
p2528
aS'Fersk vindtransportert snoe'
p2529
aS'Fersk vindtransportert snoe'
p2530
aS'Ferske skred'
p2531
aS'Ingen faretegn observert'
p2532
aS'Droenn i snoeen'
p2533
aS'Rimkrystaller'
p2534
aS'Fersk vindtransportert snoe'
p2535
aS'Ferske skred'
p2536
aS'Mye vann i snoeen'
p2537
aS'Fersk vindtransportert snoe'
p2538
aS'Ferske skred'
p2539
aS'Fersk vindtransportert snoe'
p2540
aS'Ferske skred'
p2541
aS'Annet faretegn (spesifiser)'
p2542
aS'Fersk vindtransportert snoe'
p2543
aS'Fersk vindtransportert snoe'
p2544
aS'Rask temperaturstigning'
p2545
aS'Mye vann i snoeen'
p2546
aS'Ferske skred'
p2547
aS'Rask temperaturstigning'
p2548
aS'Fersk vindtransportert snoe'
p2549
aS'Mye vann i snoeen'
p2550
aS'Rask temperaturstigning'
p2551
aS'Mye vann i snoeen'
p2552
aS'Ferske skred'
p2553
aS'Fersk vindtransportert snoe'
p2554
aS'Ferske skred'
p2555
aS'Rask temperaturstigning'
p2556
aS'Mye vann i snoeen'
p2557
aS'Ferske skred'
p2558
aS'Fersk vindtransportert snoe'
p2559
aS'Rask temperaturstigning'
p2560
aS'Ferske skred'
p2561
aS'Ingen faretegn observert'
p2562
aS'Fersk vindtransportert snoe'
p2563
aS'Fersk vindtransportert snoe'
p2564
aS'Ingen faretegn observert'
p2565
aS'Fersk vindtransportert snoe'
p2566
aS'Rask temperaturstigning'
p2567
aS'Mye vann i snoeen'
p2568
aS'Rask temperaturstigning'
p2569
aS'Rask temperaturstigning'
p2570
aS'Mye vann i snoeen'
p2571
aS'Mye vann i snoeen'
p2572
aS'Fersk vindtransportert snoe'
p2573
aS'Ingen faretegn observert'
p2574
aS'Fersk vindtransportert snoe'
p2575
aS'Mye vann i snoeen'
p2576
aS'Fersk vindtransportert snoe'
p2577
aS'Fersk vindtransportert snoe'
p2578
aS'Ferske sprekker'
p2579
aS'Mye vann i snoeen'
p2580
aS'Fersk vindtransportert snoe'
p2581
aS'Fersk vindtransportert snoe'
p2582
aS'Fersk vindtransportert snoe'
p2583
aS'Fersk vindtransportert snoe'
p2584
aS'Fersk vindtransportert snoe'
p2585
aS'Fersk vindtransportert snoe'
p2586
aS'Rask temperaturstigning'
p2587
aS'Mye vann i snoeen'
p2588
aS'Ferske skred'
p2589
aS'Droenn i snoeen'
p2590
aS'Fersk vindtransportert snoe'
p2591
aS'Mye vann i snoeen'
p2592
aS'Fersk vindtransportert snoe'
p2593
aS'Fersk vindtransportert snoe'
p2594
aS'Stort snoefall'
p2595
aS'Fersk vindtransportert snoe'
p2596
aS'Fersk vindtransportert snoe'
p2597
aS'Ferske sprekker'
p2598
aS'Stort snoefall'
p2599
aS'Fersk vindtransportert snoe'
p2600
aS'Fersk vindtransportert snoe'
p2601
aS'Fersk vindtransportert snoe'
p2602
aS'Fersk vindtransportert snoe'
p2603
aS'Rask temperaturstigning'
p2604
aS'Ferske sprekker'
p2605
aS'Mye vann i snoeen'
p2606
aS'Ferske skred'
p2607
aS'Rask temperaturstigning'
p2608
aS'Fersk vindtransportert snoe'
p2609
aS'Ferske skred'
p2610
aS'Droenn i snoeen'
p2611
aS'Droenn i snoeen'
p2612
aS'Ingen faretegn observert'
p2613
aS'Fersk vindtransportert snoe'
p2614
aS'Fersk vindtransportert snoe'
p2615
aS'Ingen faretegn observert'
p2616
aS'Ingen faretegn observert'
p2617
aS'Droenn i snoeen'
p2618
aS'Droenn i snoeen'
p2619
aS'Fersk vindtransportert snoe'
p2620
aS'Droenn i snoeen'
p2621
aS'Fersk vindtransportert snoe'
p2622
aS'Fersk vindtransportert snoe'
p2623
aS'Fersk vindtransportert snoe'
p2624
aS'Fersk vindtransportert snoe'
p2625
aS'Mye vann i snoeen'
p2626
aS'Fersk vindtransportert snoe'
p2627
aS'Mye vann i snoeen'
p2628
aS'Fersk vindtransportert snoe'
p2629
aS'Rask temperaturstigning'
p2630
aS'Fersk vindtransportert snoe'
p2631
aS'Stort snoefall'
p2632
aS'Ferske skred'
p2633
aS'Ferske sprekker'
p2634
aS'Fersk vindtransportert snoe'
p2635
aS'Mye vann i snoeen'
p2636
aS'Ingen faretegn observert'
p2637
aS'Fersk vindtransportert snoe'
p2638
aS'Ferske sprekker'
p2639
aS'Fersk vindtransportert snoe'
p2640
aS'Fersk vindtransportert snoe'
p2641
aS'Fersk vindtransportert snoe'
p2642
aS'Fersk vindtransportert snoe'
p2643
aS'Fersk vindtransportert snoe'
p2644
aS'Mye vann i snoeen'
p2645
aS'Ingen faretegn observert'
p2646
aS'Annet faretegn (spesifiser)'
p2647
aS'Fersk vindtransportert snoe'
p2648
aS'Rask temperaturstigning'
p2649
aS'Ferske sprekker'
p2650
aS'Mye vann i snoeen'
p2651
aS'Fersk vindtransportert snoe'
p2652
aS'Fersk vindtransportert snoe'
p2653
aS'Mye vann i snoeen'
p2654
aS'Fersk vindtransportert snoe'
p2655
aS'Fersk vindtransportert snoe'
p2656
aS'Fersk vindtransportert snoe'
p2657
aS'Annet faretegn (spesifiser)'
p2658
aS'Fersk vindtransportert snoe'
p2659
aS'Fersk vindtransportert snoe'
p2660
aS'Ingen faretegn observert'
p2661
aS'Rask temperaturstigning'
p2662
aS'Mye vann i snoeen'
p2663
aS'Fersk vindtransportert snoe'
p2664
aS'Ferske skred'
p2665
aS'Fersk vindtransportert snoe'
p2666
aS'Rask temperaturstigning'
p2667
aS'Fersk vindtransportert snoe'
p2668
aS'Rask temperaturstigning'
p2669
aS'Fersk vindtransportert snoe'
p2670
aS'Rask temperaturstigning'
p2671
aS'Fersk vindtransportert snoe'
p2672
aS'Fersk vindtransportert snoe'
p2673
aS'Ikke gitt'
p2674
aS'Droenn i snoeen'
p2675
aS'Mye vann i snoeen'
p2676
aS'Fersk vindtransportert snoe'
p2677
aS'Fersk vindtransportert snoe'
p2678
aS'Stort snoefall'
p2679
aS'Fersk vindtransportert snoe'
p2680
aS'Stort snoefall'
p2681
aS'Rask temperaturstigning'
p2682
aS'Fersk vindtransportert snoe'
p2683
aS'Fersk vindtransportert snoe'
p2684
aS'Stort snoefall'
p2685
aS'Fersk vindtransportert snoe'
p2686
aS'Fersk vindtransportert snoe'
p2687
aS'Stort snoefall'
p2688
aS'Rask temperaturstigning'
p2689
aS'Ferske skred'
p2690
aS'Fersk vindtransportert snoe'
p2691
aS'Fersk vindtransportert snoe'
p2692
aS'Ferske sprekker'
p2693
aS'Stort snoefall'
p2694
aS'Fersk vindtransportert snoe'
p2695
aS'Rask temperaturstigning'
p2696
aS'Mye vann i snoeen'
p2697
aS'Ferske skred'
p2698
aS'Ferske skred'
p2699
aS'Ferske skred'
p2700
aS'Fersk vindtransportert snoe'
p2701
aS'Stort snoefall'
p2702
aS'Mye vann i snoeen'
p2703
aS'Stort snoefall'
p2704
aS'Ferske sprekker'
p2705
aS'Fersk vindtransportert snoe'
p2706
aS'Stort snoefall'
p2707
aS'Stort snoefall'
p2708
aS'Stort snoefall'
p2709
aS'Stort snoefall'
p2710
aS'Stort snoefall'
p2711
aS'Fersk vindtransportert snoe'
p2712
aS'Stort snoefall'
p2713
aS'Fersk vindtransportert snoe'
p2714
aS'Ferske sprekker'
p2715
aS'Stort snoefall'
p2716
aS'Fersk vindtransportert snoe'
p2717
aS'Fersk vindtransportert snoe'
p2718
aS'Fersk vindtransportert snoe'
p2719
aS'Ferske skred'
p2720
aS'Ingen faretegn observert'
p2721
aS'Fersk vindtransportert snoe'
p2722
aS'Annet faretegn (spesifiser)'
p2723
aS'Fersk vindtransportert snoe'
p2724
aS'Ferske skred'
p2725
aS'Ferske skred'
p2726
aS'Fersk vindtransportert snoe'
p2727
aS'Fersk vindtransportert snoe'
p2728
aS'Ferske skred'
p2729
aS'Ferske skred'
p2730
aS'Fersk vindtransportert snoe'
p2731
aS'Fersk vindtransportert snoe'
p2732
aS'Fersk vindtransportert snoe'
p2733
aS'Fersk vindtransportert snoe'
p2734
aS'Ferske sprekker'
p2735
aS'Fersk vindtransportert snoe'
p2736
aS'Fersk vindtransportert snoe'
p2737
aS'Fersk vindtransportert snoe'
p2738
aS'Ferske sprekker'
p2739
aS'Fersk vindtransportert snoe'
p2740
aS'Fersk vindtransportert snoe'
p2741
aS'Fersk vindtransportert snoe'
p2742
aS'Fersk vindtransportert snoe'
p2743
aS'Annet faretegn (spesifiser)'
p2744
aS'Fersk vindtransportert snoe'
p2745
aS'Fersk vindtransportert snoe'
p2746
aS'Ferske sprekker'
p2747
aS'Fersk vindtransportert snoe'
p2748
aS'Ferske skred'
p2749
aS'Ferske skred'
p2750
aS'Fersk vindtransportert snoe'
p2751
aS'Fersk vindtransportert snoe'
p2752
aS'Ingen faretegn observert'
p2753
aS'Droenn i snoeen'
p2754
aS'Droenn i snoeen'
p2755
aS'Stort snoefall'
p2756
aS'Ferske skred'
p2757
aS'Stort snoefall'
p2758
aS'Rimkrystaller'
p2759
aS'Rimkrystaller'
p2760
aS'Fersk vindtransportert snoe'
p2761
aS'Fersk vindtransportert snoe'
p2762
aS'Fersk vindtransportert snoe'
p2763
aS'Rimkrystaller'
p2764
aS'Fersk vindtransportert snoe'
p2765
aS'Ferske sprekker'
p2766
aS'Fersk vindtransportert snoe'
p2767
aS'Mye vann i snoeen'
p2768
aS'Mye vann i snoeen'
p2769
aS'Ferske skred'
p2770
aS'Ikke gitt'
p2771
aS'Ferske skred'
p2772
aS'Fersk vindtransportert snoe'
p2773
aS'Ferske sprekker'
p2774
aS'Fersk vindtransportert snoe'
p2775
aS'Fersk vindtransportert snoe'
p2776
aS'Rask temperaturstigning'
p2777
aS'Mye vann i snoeen'
p2778
aS'Mye vann i snoeen'
p2779
aS'Mye vann i snoeen'
p2780
aS'Rask temperaturstigning'
p2781
aS'Fersk vindtransportert snoe'
p2782
aS'Rask temperaturstigning'
p2783
aS'Ferske skred'
p2784
aS'Mye vann i snoeen'
p2785
aS'Ingen faretegn observert'
p2786
aS'Fersk vindtransportert snoe'
p2787
aS'Ferske sprekker'
p2788
aS'Mye vann i snoeen'
p2789
aS'Mye vann i snoeen'
p2790
aS'Mye vann i snoeen'
p2791
aS'Fersk vindtransportert snoe'
p2792
aS'Mye vann i snoeen'
p2793
aS'Mye vann i snoeen'
p2794
aS'Mye vann i snoeen'
p2795
aS'Ferske skred'
p2796
aS'Mye vann i snoeen'
p2797
aS'Mye vann i snoeen'
p2798
aS'Fersk vindtransportert snoe'
p2799
aS'Fersk vindtransportert snoe'
p2800
aS'Ferske sprekker'
p2801
aS'Fersk vindtransportert snoe'
p2802
aS'Mye vann i snoeen'
p2803
aS'Mye vann i snoeen'
p2804
aS'Ingen faretegn observert'
p2805
aS'Stort snoefall'
p2806
aS'Ferske sprekker'
p2807
aS'Stort snoefall'
p2808
aS'Stort snoefall'
p2809
aS'Stort snoefall'
p2810
aS'Fersk vindtransportert snoe'
p2811
aS'Mye vann i snoeen'
p2812
aS'Fersk vindtransportert snoe'
p2813
aS'Ikke gitt'
p2814
aS'Fersk vindtransportert snoe'
p2815
aS'Fersk vindtransportert snoe'
p2816
aS'Stort snoefall'
p2817
aS'Ferske skred'
p2818
aS'Fersk vindtransportert snoe'
p2819
aS'Fersk vindtransportert snoe'
p2820
aS'Ferske sprekker'
p2821
aS'Stort snoefall'
p2822
aS'Fersk vindtransportert snoe'
p2823
aS'Ikke gitt'
p2824
aS'Annet faretegn (spesifiser)'
p2825
aS'Ferske sprekker'
p2826
aS'Ferske skred'
p2827
aS'Fersk vindtransportert snoe'
p2828
aS'Mye vann i snoeen'
p2829
aS'Mye vann i snoeen'
p2830
aS'Ferske skred'
p2831
aS'Fersk vindtransportert snoe'
p2832
aS'Mye vann i snoeen'
p2833
aS'Stort snoefall'
p2834
aS'Fersk vindtransportert snoe'
p2835
aS'Ferske sprekker'
p2836
aS'Ferske skred'
p2837
aS'Ferske sprekker'
p2838
aS'Fersk vindtransportert snoe'
p2839
aS'Rask temperaturstigning'
p2840
aS'Fersk vindtransportert snoe'
p2841
aS'Stort snoefall'
p2842
aS'Fersk vindtransportert snoe'
p2843
aS'Fersk vindtransportert snoe'
p2844
aS'Stort snoefall'
p2845
aS'Rask temperaturstigning'
p2846
aS'Stort snoefall'
p2847
aS'Fersk vindtransportert snoe'
p2848
aS'Mye vann i snoeen'
p2849
aS'Ferske skred'
p2850
aS'Annet faretegn (spesifiser)'
p2851
aS'Annet faretegn (spesifiser)'
p2852
aS'Stort snoefall'
p2853
aS'Fersk vindtransportert snoe'
p2854
aS'Mye vann i snoeen'
p2855
aS'Ferske skred'
p2856
aS'Annet faretegn (spesifiser)'
p2857
aS'Fersk vindtransportert snoe'
p2858
aS'Fersk vindtransportert snoe'
p2859
aS'Stort snoefall'
p2860
aS'Ferske skred'
p2861
aS'Rask temperaturstigning'
p2862
aS'Rask temperaturstigning'
p2863
aS'Rask temperaturstigning'
p2864
aS'Ferske skred'
p2865
aS'Mye vann i snoeen'
p2866
aS'Fersk vindtransportert snoe'
p2867
aS'Rask temperaturstigning'
p2868
aS'Fersk vindtransportert snoe'
p2869
aS'Ferske skred'
p2870
aS'Mye vann i snoeen'
p2871
aS'Fersk vindtransportert snoe'
p2872
aS'Mye vann i snoeen'
p2873
aS'Droenn i snoeen'
p2874
aS'Annet faretegn (spesifiser)'
p2875
aS'Mye vann i snoeen'
p2876
aS'Ingen faretegn observert'
p2877
aS'Ferske sprekker'
p2878
aS'Fersk vindtransportert snoe'
p2879
aS'Ingen faretegn observert'
p2880
aS'Fersk vindtransportert snoe'
p2881
aS'Mye vann i snoeen'
p2882
aS'Fersk vindtransportert snoe'
p2883
aS'Fersk vindtransportert snoe'
p2884
aS'Stort snoefall'
p2885
aS'Fersk vindtransportert snoe'
p2886
aS'Ferske sprekker'
p2887
aS'Fersk vindtransportert snoe'
p2888
aS'Stort snoefall'
p2889
aS'Fersk vindtransportert snoe'
p2890
aS'Annet faretegn (spesifiser)'
p2891
aS'Annet faretegn (spesifiser)'
p2892
aS'Mye vann i snoeen'
p2893
aS'Mye vann i snoeen'
p2894
aS'Rask temperaturstigning'
p2895
aS'Droenn i snoeen'
p2896
aS'Droenn i snoeen'
p2897
aS'Droenn i snoeen'
p2898
aS'Mye vann i snoeen'
p2899
aS'Ingen faretegn observert'
p2900
aS'Fersk vindtransportert snoe'
p2901
aS'Ferske skred'
p2902
aS'Droenn i snoeen'
p2903
aS'Mye vann i snoeen'
p2904
aS'Ferske skred'
p2905
aS'Mye vann i snoeen'
p2906
aS'Ferske skred'
p2907
aS'Mye vann i snoeen'
p2908
aS'Mye vann i snoeen'
p2909
aS'Mye vann i snoeen'
p2910
aS'Annet faretegn (spesifiser)'
p2911
aS'Fersk vindtransportert snoe'
p2912
aS'Mye vann i snoeen'
p2913
aS'Fersk vindtransportert snoe'
p2914
aS'Ingen faretegn observert'
p2915
asI4
(lp2916
S'Fersk vindtransportert snoe'
p2917
aS'Fersk vindtransportert snoe'
p2918
aS'Stort snoefall'
p2919
aS'Fersk vindtransportert snoe'
p2920
aS'Stort snoefall'
p2921
aS'Fersk vindtransportert snoe'
p2922
aS'Stort snoefall'
p2923
aS'Fersk vindtransportert snoe'
p2924
aS'Fersk vindtransportert snoe'
p2925
aS'Stort snoefall'
p2926
aS'Stort snoefall'
p2927
aS'Ferske sprekker'
p2928
aS'Stort snoefall'
p2929
aS'Fersk vindtransportert snoe'
p2930
aS'Fersk vindtransportert snoe'
p2931
aS'Mye vann i snoeen'
p2932
aS'Ferske skred'
p2933
aS'Stort snoefall'
p2934
aS'Fersk vindtransportert snoe'
p2935
aS'Fersk vindtransportert snoe'
p2936
aS'Mye vann i snoeen'
p2937
aS'Ferske sprekker'
p2938
aS'Fersk vindtransportert snoe'
p2939
aS'Stort snoefall'
p2940
aS'Fersk vindtransportert snoe'
p2941
aS'Stort snoefall'
p2942
aS'Stort snoefall'
p2943
aS'Stort snoefall'
p2944
aS'Ferske sprekker'
p2945
aS'Ferske skred'
p2946
aS'Droenn i snoeen'
p2947
aS'Ferske sprekker'
p2948
aS'Stort snoefall'
p2949
aS'Droenn i snoeen'
p2950
aS'Stort snoefall'
p2951
aS'Rask temperaturstigning'
p2952
aS'Mye vann i snoeen'
p2953
aS'Mye vann i snoeen'
p2954
aS'Rask temperaturstigning'
p2955
aS'Mye vann i snoeen'
p2956
aS'Ferske skred'
p2957
aS'Ingen faretegn observert'
p2958
aS'Ferske skred'
p2959
aS'Ferske sprekker'
p2960
aS'Fersk vindtransportert snoe'
p2961
aS'Stort snoefall'
p2962
aS'Fersk vindtransportert snoe'
p2963
aS'Fersk vindtransportert snoe'
p2964
aS'Mye vann i snoeen'
p2965
aS'Ferske skred'
p2966
aS'Stort snoefall'
p2967
aS'Ferske sprekker'
p2968
aS'Fersk vindtransportert snoe'
p2969
aS'Fersk vindtransportert snoe'
p2970
aS'Ferske sprekker'
p2971
aS'Fersk vindtransportert snoe'
p2972
aS'Annet faretegn (spesifiser)'
p2973
aS'Fersk vindtransportert snoe'
p2974
aS'Ferske skred'
p2975
aS'Fersk vindtransportert snoe'
p2976
aS'Fersk vindtransportert snoe'
p2977
aS'Stort snoefall'
p2978
aS'Fersk vindtransportert snoe'
p2979
aS'Mye vann i snoeen'
p2980
aS'Ferske skred'
p2981
aS'Mye vann i snoeen'
p2982
aS'Fersk vindtransportert snoe'
p2983
aS'Stort snoefall'
p2984
aS'Fersk vindtransportert snoe'
p2985
aS'Rask temperaturstigning'
p2986
aS'Mye vann i snoeen'
p2987
aS'Stort snoefall'
p2988
aS'Fersk vindtransportert snoe'
p2989
aS'Ferske skred'
p2990
aS'Fersk vindtransportert snoe'
p2991
aS'Rask temperaturstigning'
p2992
aS'Mye vann i snoeen'
p2993
aS'Ferske skred'
p2994
aS'Stort snoefall'
p2995
aS'Fersk vindtransportert snoe'
p2996
aS'Ferske skred'
p2997
aS'Ferske skred'
p2998
aS'Fersk vindtransportert snoe'
p2999
aS'Fersk vindtransportert snoe'
p3000
aS'Stort snoefall'
p3001
aS'Fersk vindtransportert snoe'
p3002
aS'Mye vann i snoeen'
p3003
aS'Ferske skred'
p3004
aS'Stort snoefall'
p3005
aS'Fersk vindtransportert snoe'
p3006
aS'Ferske skred'
p3007
aS'Fersk vindtransportert snoe'
p3008
aS'Rask temperaturstigning'
p3009
aS'Fersk vindtransportert snoe'
p3010
aS'Fersk vindtransportert snoe'
p3011
aS'Stort snoefall'
p3012
aS'Fersk vindtransportert snoe'
p3013
aS'Rask temperaturstigning'
p3014
aS'Mye vann i snoeen'
p3015
aS'Stort snoefall'
p3016
aS'Rask temperaturstigning'
p3017
aS'Fersk vindtransportert snoe'
p3018
aS'Rask temperaturstigning'
p3019
aS'Mye vann i snoeen'
p3020
aS'Fersk vindtransportert snoe'
p3021
aS'Fersk vindtransportert snoe'
p3022
aS'Fersk vindtransportert snoe'
p3023
aS'Fersk vindtransportert snoe'
p3024
aS'Stort snoefall'
p3025
aS'Fersk vindtransportert snoe'
p3026
aS'Stort snoefall'
p3027
aS'Fersk vindtransportert snoe'
p3028
aS'Rask temperaturstigning'
p3029
aS'Ferske skred'
p3030
aS'Rask temperaturstigning'
p3031
aS'Mye vann i snoeen'
p3032
aS'Fersk vindtransportert snoe'
p3033
aS'Stort snoefall'
p3034
aS'Stort snoefall'
p3035
aS'Fersk vindtransportert snoe'
p3036
aS'Droenn i snoeen'
p3037
aS'Stort snoefall'
p3038
aS'Ferske skred'
p3039
aS'Ferske skred'
p3040
aS'Rask temperaturstigning'
p3041
aS'Mye vann i snoeen'
p3042
aS'Ferske skred'
p3043
aS'Ferske skred'
p3044
aS'Mye vann i snoeen'
p3045
aS'Rask temperaturstigning'
p3046
aS'Fersk vindtransportert snoe'
p3047
aS'Ferske skred'
p3048
aS'Fersk vindtransportert snoe'
p3049
aS'Ferske skred'
p3050
aS'Fersk vindtransportert snoe'
p3051
aS'Rask temperaturstigning'
p3052
aS'Mye vann i snoeen'
p3053
aS'Fersk vindtransportert snoe'
p3054
aS'Fersk vindtransportert snoe'
p3055
aS'Rask temperaturstigning'
p3056
aS'Mye vann i snoeen'
p3057
aS'Ferske skred'
p3058
aS'Ferske skred'
p3059
aS'Mye vann i snoeen'
p3060
aS'Ferske skred'
p3061
aS'Annet faretegn (spesifiser)'
p3062
aS'Stort snoefall'
p3063
aS'Fersk vindtransportert snoe'
p3064
aS'Fersk vindtransportert snoe'
p3065
aS'Stort snoefall'
p3066
aS'Fersk vindtransportert snoe'
p3067
asI5
(lp3068
sa(lp3069
I1
aI1
aI1
aI1
aI1
aI1
aI1
aI1
aI1
aI1
aI1
aI1
aI1
aI2
aI2
aI1
aI2
aI1
aI1
aI1
aI1
aI2
aI2
aI2
aI2
aI2
aI1
aI2
aI2
aI2
aI1
aI1
aI1
aI1
aI1
aI2
aI3
aI1
aI2
aI1
aI1
aI2
aI2
aI2
aI1
aI1
aI2
aI2
aI1
aI2
aI2
aI2
aI1
aI1
aI1
aI1
aI1
aI1
aI2
aI2
aI2
aI1
aI1
aI2
aI2
aI2
aI1
aI1
aI2
aI2
aI1
aI2
aI2
aI2
aI1
aI1
aI1
aI1
aI1
aI1
aI1
aI2
aI1
aI1
aI1
aI2
aI2
aI1
aI2
aI2
aI2
aI3
aI2
aI3
aI3
aI3
aI2
aI1
aI1
aI1
aI1
aI2
aI2
aI2
aI2
aI2
aI1
aI3
aI3
aI1
aI2
aI2
aI2
aI2
aI2
aI2
aI2
aI3
aI3
aI2
aI2
aI2
aI2
aI3
aI2
aI2
aI3
aI3
aI2
aI2
aI3
aI2
aI2
aI2
aI2
aI2
aI2
aI2
aI2
aI3
aI3
aI2
aI1
aI2
aI3
aI3
aI3
aI2
aI3
aI3
aI2
aI2
aI3
aI2
aI2
aI2
aI2
aI2
aI2
aI2
aI2
aI2
aI2
aI2
aI2
aI2
aI3
aI3
aI3
aI2
aI3
aI3
aI2
aI2
aI2
aI2
aI2
aI2
aI2
aI2
aI2
aI2
aI2
aI2
aI2
aI2
aI2
aI2
aI3
aI3
aI3
aI2
aI4
aI4
aI2
aI2
aI3
aI2
aI2
aI2
aI2
aI2
aI1
aI2
aI2
aI2
aI1
aI1
aI2
aI2
aI3
aI3
aI3
aI2
aI4
aI4
aI2
aI2
aI2
aI2
aI1
aI2
aI2
aI2
aI1
aI2
aI2
aI2
aI1
aI1
aI1
aI1
aI2
aI3
aI2
aI2
aI3
aI3
aI2
aI1
aI2
aI2
aI1
aI1
aI1
aI1
aI1
aI1
aI1
aI1
aI1
aI1
aI2
aI2
aI3
aI3
aI2
aI2
aI3
aI3
aI2
aI1
aI1
aI2
aI1
aI1
aI1
aI1
aI2
aI1
aI1
aI1
aI2
aI2
aI2
aI2
aI3
aI3
aI3
aI2
aI4
aI4
aI2
aI1
aI2
aI2
aI1
aI1
aI1
aI1
aI1
aI1
aI1
aI1
aI1
aI1
aI2
aI2
aI2
aI3
aI3
aI2
aI3
aI3
aI2
aI1
aI2
aI2
aI1
aI1
aI2
aI2
aI1
aI2
aI2
aI2
aI2
aI2
aI2
aI2
aI3
aI3
aI3
aI2
aI3
aI3
aI2
aI2
aI2
aI2
aI2
aI2
aI2
aI2
aI2
aI2
aI2
aI2
aI1
aI1
aI2
aI2
aI2
aI3
aI3
aI2
aI3
aI3
aI2
aI2
aI2
aI2
aI2
aI2
aI2
aI2
aI1
aI2
aI2
aI2
aI1
aI2
aI2
aI2
aI3
aI3
aI3
aI2
aI3
aI3
aI2
aI2
aI1
aI2
aI2
aI2
aI1
aI1
aI1
aI2
aI2
aI2
aI1
aI1
aI2
aI2
aI3
aI3
aI3
aI2
aI3
aI3
aI2
aI2
aI1
aI2
aI2
aI2
aI1
aI1
aI1
aI2
aI1
aI1
aI2
aI2
aI3
aI3
aI3
aI3
aI3
aI2
aI3
aI3
aI3
aI2
aI2
aI2
aI2
aI2
aI2
aI2
aI1
aI2
aI1
aI1
aI2
aI2
aI3
aI3
aI3
aI4
aI3
aI2
aI4
aI4
aI3
aI2
aI2
aI2
aI2
aI2
aI2
aI2
aI1
aI2
aI1
aI1
aI2
aI2
aI2
aI2
aI3
aI3
aI3
aI2
aI4
aI4
aI3
aI1
aI2
aI2
aI2
aI2
aI2
aI2
aI2
aI2
aI1
aI1
aI2
aI2
aI3
aI3
aI3
aI3
aI3
aI2
aI3
aI3
aI2
aI1
aI3
aI2
aI2
aI2
aI2
aI2
aI2
aI2
aI1
aI1
aI2
aI2
aI2
aI2
aI2
aI2
aI2
aI2
aI3
aI3
aI2
aI1
aI3
aI2
aI2
aI2
aI3
aI3
aI3
aI2
aI2
aI3
aI3
aI2
aI2
aI2
aI2
aI2
aI2
aI2
aI2
aI2
aI2
aI2
aI3
aI2
aI2
aI2
aI3
aI3
aI4
aI2
aI3
aI4
aI3
aI3
aI3
aI3
aI3
aI2
aI2
aI2
aI2
aI2
aI2
aI2
aI3
aI2
aI2
aI2
aI3
aI3
aI4
aI3
aI4
aI3
aI3
aI3
aI3
aI3
aI3
aI2
aI2
aI2
aI2
aI2
aI2
aI2
aI3
aI2
aI2
aI2
aI3
aI3
aI4
aI3
aI4
aI3
aI3
aI3
aI3
aI3
aI3
aI2
aI2
aI2
aI2
aI2
aI2
aI2
aI3
aI2
aI2
aI2
aI3
aI3
aI3
aI3
aI3
aI3
aI3
aI3
aI3
aI3
aI3
aI3
aI2
aI2
aI2
aI2
aI2
aI2
aI4
aI2
aI3
aI3
aI4
aI4
aI4
aI4
aI3
aI4
aI4
aI4
aI3
aI3
aI3
aI3
aI3
aI2
aI3
aI3
aI2
aI3
aI4
aI2
aI3
aI3
aI3
aI3
aI3
aI3
aI3
aI3
aI2
aI2
aI2
aI2
aI2
aI2
aI2
aI2
aI2
aI2
aI2
aI2
aI4
aI2
aI3
aI3
aI3
aI3
aI3
aI3
aI3
aI3
aI2
aI2
aI2
aI2
aI2
aI3
aI3
aI2
aI3
aI3
aI2
aI3
aI3
aI2
aI2
aI2
aI2
aI2
aI2
aI2
aI3
aI3
aI2
aI2
aI3
aI3
aI3
aI3
aI3
aI2
aI3
aI3
aI2
aI3
aI3
aI3
aI2
aI2
aI2
aI2
aI2
aI2
aI2
aI2
aI1
aI1
aI3
aI3
aI3
aI3
aI3
aI2
aI3
aI3
aI2
aI2
aI3
aI3
aI2
aI2
aI2
aI2
aI2
aI2
aI2
aI2
aI2
aI2
aI3
aI3
aI3
aI3
aI3
aI2
aI3
aI3
aI2
aI2
aI3
aI2
aI2
aI2
aI2
aI2
aI2
aI2
aI2
aI2
aI2
aI2
aI3
aI3
aI2
aI2
aI2
aI2
aI2
aI2
aI2
aI2
aI3
aI2
aI2
aI2
aI2
aI2
aI2
aI2
aI2
aI2
aI2
aI2
aI2
aI2
aI2
aI2
aI2
aI2
aI2
aI2
aI2
aI2
aI2
aI2
aI2
aI2
aI2
aI2
aI2
aI2
aI2
aI2
aI2
aI2
aI2
aI2
aI2
aI3
aI2
aI2
aI3
aI3
aI2
aI2
aI2
aI2
aI2
aI2
aI2
aI2
aI2
aI2
aI2
aI2
aI2
aI2
aI2
aI2
aI2
aI3
aI2
aI2
aI3
aI3
aI2
aI2
aI2
aI2
aI2
aI2
aI1
aI2
aI1
aI2
aI2
aI2
aI1
aI1
aI2
aI2
aI2
aI3
aI2
aI2
aI3
aI3
aI2
aI2
aI2
aI2
aI2
aI2
aI2
aI2
aI2
aI2
aI2
aI2
aI1
aI1
aI3
aI3
aI3
aI4
aI3
aI3
aI4
aI4
aI3
aI2
aI2
aI3
aI2
aI2
aI2
aI2
aI2
aI2
aI2
aI3
aI2
aI1
aI2
aI3
aI3
aI4
aI3
aI3
aI4
aI4
aI3
aI2
aI3
aI3
aI2
aI2
aI1
aI2
aI2
aI2
aI2
aI2
aI2
aI1
aI2
aI3
aI3
aI4
aI3
aI3
aI4
aI4
aI3
aI2
aI3
aI3
aI2
aI2
aI1
aI2
aI2
aI2
aI2
aI2
aI2
aI2
aI2
aI3
aI3
aI4
aI3
aI3
aI4
aI4
aI3
aI2
aI3
aI3
aI2
aI2
aI1
aI2
aI2
aI2
aI2
aI2
aI3
aI3
aI2
aI3
aI3
aI3
aI3
aI3
aI3
aI4
aI3
aI2
aI3
aI3
aI2
aI2
aI1
aI2
aI2
aI2
aI2
aI2
aI2
aI1
aI2
aI2
aI4
aI4
aI3
aI3
aI4
aI4
aI3
aI2
aI2
aI3
aI2
aI2
aI1
aI1
aI2
aI2
aI2
aI2
aI2
aI2
aI2
aI2
aI3
aI4
aI4
aI3
aI4
aI4
aI3
aI1
aI2
aI3
aI2
aI2
aI1
aI1
aI2
aI2
aI2
aI2
aI2
aI2
aI2
aI2
aI2
aI3
aI3
aI3
aI4
aI3
aI3
aI1
aI2
aI3
aI1
aI1
aI1
aI1
aI1
aI1
aI1
aI2
aI2
aI2
aI2
aI2
aI2
aI3
aI2
aI3
aI3
aI3
aI2
aI1
aI2
aI3
aI1
aI1
aI1
aI1
aI1
aI1
aI2
aI2
aI2
aI2
aI2
aI2
aI2
aI2
aI2
aI2
aI2
aI2
aI2
aI1
aI2
aI2
aI1
aI1
aI1
aI1
aI1
aI1
aI2
aI1
aI2
aI2
aI2
aI2
aI2
aI2
aI3
aI3
aI3
aI2
aI2
aI1
aI2
aI2
aI1
aI1
aI1
aI1
aI1
aI1
aI1
aI1
aI2
aI2
aI2
aI2
aI2
aI3
aI3
aI2
aI3
aI3
aI2
aI1
aI2
aI2
aI1
aI1
aI1
aI1
aI1
aI1
aI1
aI1
aI2
aI1
aI2
aI2
aI2
aI3
aI3
aI2
aI3
aI3
aI2
aI1
aI2
aI2
aI1
aI1
aI1
aI1
aI1
aI1
aI1
aI1
aI2
aI2
aI2
aI2
aI2
aI3
aI3
aI2
aI3
aI3
aI2
aI1
aI2
aI2
aI1
aI1
aI1
aI1
aI1
aI1
aI1
aI1
aI2
aI2
aI2
aI2
aI2
aI3
aI3
aI2
aI3
aI3
aI2
aI1
aI2
aI2
aI1
aI1
aI1
aI1
aI1
aI1
aI1
aI1
aI2
aI2
aI2
aI2
aI3
aI3
aI3
aI2
aI3
aI3
aI2
aI1
aI2
aI2
aI1
aI1
aI2
aI2
aI2
aI1
aI2
aI2
aI3
aI3
aI2
aI2
aI2
aI3
aI3
aI2
aI3
aI3
aI2
aI1
aI3
aI2
aI1
aI1
aI2
aI2
aI2
aI1
aI2
aI2
aI2
aI2
aI2
aI2
aI2
aI3
aI3
aI2
aI3
aI3
aI2
aI1
aI3
aI2
aI2
aI2
aI2
aI2
aI2
aI2
aI2
aI2
aI2
aI2
aI2
aI2
aI3
aI3
aI3
aI2
aI3
aI3
aI2
aI2
aI3
aI2
aI2
aI2
aI2
aI2
aI2
aI2
aI2
aI2
aI3
aI2
aI2
aI2
aI3
aI3
aI3
aI2
aI3
aI3
aI2
aI2
aI3
aI2
aI2
aI2
aI2
aI2
aI2
aI2
aI2
aI2
aI2
aI2
aI2
aI2
aI3
aI3
aI3
aI2
aI3
aI3
aI2
aI2
aI3
aI2
aI2
aI2
aI2
aI2
aI2
aI2
aI2
aI2
aI2
aI2
aI2
aI2
aI2
aI2
aI3
aI3
aI3
aI3
aI2
aI2
aI2
aI3
aI2
aI2
aI2
aI2
aI2
aI2
aI2
aI2
aI2
aI2
aI2
aI2
aI2
aI2
aI3
aI3
aI3
aI3
aI2
aI2
aI2
aI2
aI2
aI2
aI2
aI2
aI2
aI2
aI2
aI2
aI2
aI1
aI2
aI2
aI2
aI2
aI3
aI3
aI3
aI2
aI2
aI2
aI2
aI2
aI2
aI2
aI2
aI2
aI2
aI2
aI2
aI2
aI2
aI2
aI3
aI2
aI2
aI2
aI3
aI3
aI3
aI2
aI2
aI2
aI2
aI2
aI2
aI2
aI2
aI2
aI2
aI2
aI2
aI2
aI2
aI2
aI3
aI3
aI2
aI2
aI3
aI3
aI2
aI2
aI2
aI2
aI2
aI2
aI2
aI2
aI3
aI3
aI3
aI2
aI3
aI3
aI2
aI3
aI2
aI3
aI3
aI2
aI3
aI3
aI2
aI2
aI2
aI2
aI3
aI2
aI2
aI2
aI3
aI3
aI3
aI2
aI3
aI3
aI2
aI2
aI3
aI3
aI3
aI2
aI3
aI3
aI2
aI3
aI2
aI2
aI3
aI2
aI3
aI3
aI3
aI3
aI3
aI3
aI3
aI3
aI3
aI3
aI4
aI4
aI4
aI3
aI3
aI3
aI3
aI3
aI2
aI3
aI3
aI3
aI3
aI3
aI3
aI3
aI3
aI3
aI3
aI3
aI3
aI3
aI4
aI4
aI4
aI3
aI3
aI3
aI3
aI3
aI2
aI3
aI3
aI3
aI3
aI3
aI3
aI3
aI3
aI3
aI3
aI3
aI3
aI3
aI3
aI3
aI3
aI3
aI3
aI3
aI3
aI3
aI2
aI3
aI4
aI3
aI3
aI3
aI3
aI3
aI3
aI3
aI3
aI3
aI3
aI3
aI3
aI3
aI2
aI2
aI3
aI3
aI3
aI3
aI2
aI3
aI4
aI3
aI3
aI3
aI3
aI3
aI3
aI3
aI3
aI3
aI2
aI2
aI2
aI2
aI2
aI2
aI3
aI2
aI3
aI3
aI2
aI4
aI3
aI2
aI3
aI3
aI3
aI3
aI3
aI3
aI3
aI3
aI3
aI2
aI2
aI2
aI2
aI3
aI3
aI2
aI3
aI3
aI2
aI3
aI3
aI2
aI3
aI3
aI3
aI4
aI3
aI4
aI3
aI3
aI3
aI2
aI2
aI2
aI2
aI3
aI3
aI2
aI3
aI2
aI1
aI4
aI3
aI1
aI3
aI3
aI3
aI3
aI3
aI3
aI3
aI3
aI3
aI2
aI2
aI2
aI2
aI2
aI2
aI2
aI2
aI2
aI1
aI3
aI3
aI1
aI3
aI3
aI3
aI3
aI3
aI3
aI3
aI3
aI3
aI2
aI2
aI2
aI2
aI2
aI2
aI2
aI2
aI2
aI1
aI3
aI3
aI1
aI3
aI3
aI3
aI3
aI3
aI3
aI3
aI2
aI3
aI2
aI2
aI2
aI2
aI2
aI2
aI2
aI2
aI2
aI1
aI3
aI2
aI1
aI3
aI3
aI3
aI3
aI3
aI3
aI3
aI2
aI3
aI2
aI2
aI2
aI3
aI3
aI3
aI3
aI3
aI3
aI2
aI3
aI3
aI2
aI3
aI3
aI3
aI3
aI3
aI3
aI3
aI2
aI3
aI3
aI3
aI3
aI3
aI4
aI4
aI3
aI4
aI4
aI3
aI3
aI3
aI3
aI3
aI3
aI3
aI3
aI3
aI3
aI3
aI3
aI3
aI3
aI2
aI2
aI3
aI3
aI3
aI3
aI3
aI3
aI2
aI3
aI3
aI3
aI3
aI3
aI3
aI3
aI3
aI3
aI3
aI3
aI3
aI2
aI2
aI2
aI2
aI3
aI3
aI2
aI3
aI3
aI2
aI3
aI3
aI2
aI3
aI3
aI3
aI3
aI3
aI3
aI3
aI3
aI2
aI2
aI1
aI2
aI2
aI3
aI3
aI2
aI3
aI3
aI2
aI3
aI3
aI2
aI2
aI2
aI2
aI2
aI2
aI2
aI2
aI2
aI2
aI1
aI2
aI2
aI3
aI3
aI2
aI2
aI3
aI2
aI2
aI2
aI3
aI2
aI2
aI2
aI2
aI2
aI2
aI2
aI2
aI2
aI2
aI1
aI2
aI2
aI3
aI3
aI3
aI3
aI3
aI3
aI3
aI2
aI3
aI3
aI2
aI2
aI2
aI2
aI2
aI2
aI2
aI2
aI2
aI2
aI2
aI2
aI3
aI3
aI3
aI3
aI3
aI3
aI3
aI2
aI2
aI3
aI2
aI2
aI2
aI2
aI2
aI2
aI2
aI2
aI2
aI2
aI2
aI2
aI2
aI3
aI3
aI2
aI3
aI3
aI2
aI2
aI2
aI2
aI2
aI2
aI2
aI2
aI2
aI2
aI2
aI2
aI2
aI2
aI2
aI2
aI3
aI3
aI3
aI2
aI4
aI3
aI2
aI2
aI2
aI2
aI2
aI2
aI2
aI2
aI2
aI2
aI2
aI2
aI2
aI2
aI2
aI2
aI2
aI3
aI3
aI2
aI3
aI3
aI2
aI2
aI3
aI2
aI2
aI2
aI2
aI2
aI2
aI2
aI2
aI2
aI3
aI3
aI2
aI2
aI2
aI3
aI3
aI2
aI3
aI3
aI2
aI2
aI2
aI2
aI2
aI2
aI2
aI2
aI2
aI2
aI2
aI2
aI2
aI2
aI2
aI2
aI2
aI3
aI3
aI3
aI3
aI3
aI3
aI2
aI2
aI3
aI2
aI2
aI2
aI2
aI2
aI2
aI2
aI2
aI2
aI2
aI2
aI2
aI2
aI3
aI3
aI3
aI3
aI3
aI2
aI2
aI2
aI3
aI2
aI2
aI2
aI2
aI1
aI2
aI2
aI2
aI2
aI1
aI1
aI2
aI2
aI2
aI2
aI2
aI3
aI3
aI2
aI2
aI2
aI2
aI2
aI2
aI2
aI2
aI1
aI2
aI2
aI2
aI2
aI1
aI1
aI1
aI2
aI2
aI2
aI2
aI2
aI2
aI2
aI2
aI2
aI2
aI2
aI2
aI2
aI2
aI1
aI2
aI2
aI2
aI2
aI2
aI2
aI2
aI3
aI3
aI2
aI2
aI3
aI2
aI2
aI2
aI2
aI2
aI2
aI2
aI2
aI2
aI2
aI2
aI2
aI2
aI2
aI2
aI2
aI2
aI3
aI3
aI2
aI2
aI3
aI3
aI2
aI2
aI2
aI2
aI2
aI3
aI2
aI2
aI3
aI3
aI3
aI3
aI3
aI3
aI2
aI3
aI3
aI4
aI3
aI3
aI4
aI4
aI3
aI3
aI3
aI3
aI3
aI3
aI3
aI3
aI3
aI3
aI3
aI3
aI3
aI3
aI3
aI3
aI3
aI4
aI3
aI3
aI4
aI4
aI3
aI3
aI3
aI3
aI3
aI3
aI3
aI3
aI3
aI3
aI3
aI3
aI3
aI3
aI2
aI2
aI3
aI3
aI3
aI2
aI3
aI3
aI2
aI3
aI3
aI2
aI3
aI3
aI3
aI3
aI3
aI3
aI3
aI3
aI2
aI2
aI3
aI3
aI3
aI3
aI3
aI3
aI3
aI3
aI2
aI3
aI3
aI3
aI3
aI2
aI3
aI3
aI3
aI2
aI3
aI2
aI2
aI2
aI3
aI3
aI3
aI3
aI3
aI2
aI3
aI3
aI2
aI3
aI3
aI2
aI3
aI3
aI3
aI3
aI3
aI3
aI3
aI3
aI3
aI3
aI2
aI2
aI2
aI2
aI2
aI2
aI2
aI2
aI2
aI3
aI3
aI2
aI3
aI3
aI3
aI3
aI3
aI3
aI3
aI3
aI3
aI3
aI2
aI2
aI2
aI2
aI2
aI2
aI2
aI2
aI2
aI3
aI3
aI2
aI3
aI3
aI3
aI2
aI2
aI2
aI3
aI2
aI2
aI2
aI2
aI2
aI2
aI2
aI2
aI2
aI2
aI2
aI2
aI2
aI2
aI2
aI2
aI2
aI2
aI2
aI2
aI2
aI2
aI2
aI2
aI2
aI2
aI2
aI2
aI2
aI2
aI2
aI2
aI2
aI2
aI2
aI2
aI2
aI2
aI2
aI2
aI2
aI2
aI2
aI2
aI2
aI2
aI2
aI2
aI2
aI2
aI2
aI2
aI2
aI2
aI2
aI2
aI2
aI2
aI1
aI2
aI2
aI2
aI2
aI2
aI2
aI2
aI2
aI1
aI2
aI2
aI2
aI1
aI1
aI1
aI1
aI1
aI1
aI2
aI2
aI2
aI2
aI1
aI2
aI1
aI1
aI1
aI2
aI2
aI2
aI2
aI1
aI2
aI2
aI2
aI1
aI1
aI1
aI1
aI1
aI1
aI2
aI2
aI2
aI2
aI1
aI2
aI1
aI1
aI1
aI3
aI3
aI2
aI2
aI2
aI3
aI2
aI3
aI2
aI2
aI2
aI2
aI2
aI2
aI2
aI2
aI2
aI2
aI1
aI2
aI2
aI1
aI2
aI3
aI3
aI2
aI2
aI2
aI3
aI2
aI2
aI2
aI2
aI2
aI2
aI2
aI2
aI2
aI2
aI2
aI2
aI1
aI3
aI2
aI2
aI2
aI2
aI2
aI2
aI2
aI2
aI2
aI2
aI2
aI2
aI2
aI2
aI2
aI2
aI2
aI2
aI2
aI2
aI2
aI1
aI2
aI2
aI2
aI2
aI2
aI2
aI2
aI2
aI2
aI2
aI2
aI3
aI3
aI3
aI2
aI2
aI2
aI3
aI3
aI2
aI3
aI2
aI1
aI2
aI3
aI2
aI3
aI2
aI2
aI3
aI2
aI2
aI3
aI2
aI2
aI2
aI2
aI2
aI2
aI2
aI3
aI3
aI2
aI3
aI2
aI2
aI2
aI2
aI2
aI2
aI2
aI2
aI2
aI2
aI2
aI3
aI2
aI2
aI2
aI2
aI2
aI2
aI2
aI2
aI2
aI2
aI2
aI2
aI2
aI2
aI2
aI2
aI2
aI2
aI2
aI3
aI3
aI3
aI3
aI3
aI3
aI3
aI3
aI2
aI2
aI2
aI2
aI2
aI2
aI2
aI2
aI1
aI3
aI2
aI2
aI2
aI3
aI3
aI3
aI3
aI3
aI3
aI3
aI3
aI3
aI3
aI2
aI2
aI2
aI2
aI2
aI2
aI2
aI2
aI2
aI3
aI2
aI2
aI2
aI3
aI3
aI3
aI3
aI3
aI3
aI3
aI3
aI3
aI3
aI2
aI2
aI2
aI2
aI2
aI2
aI2
aI2
aI2
aI3
aI2
aI2
aI2
aI3
aI3
aI2
aI2
aI2
aI2
aI2
aI2
aI2
aI2
aI2
aI2
aI2
aI2
aI2
aI2
aI2
aI2
aI2
aI2
aI2
aI2
aI2
aI2
aI2
aI2
aI2
aI2
aI2
aI2
aI2
aI2
aI2
aI2
aI2
aI2
aI3
aI2
aI3
aI3
aI2
aI3
aI2
aI3
aI3
aI2
aI2
aI2
aI2
aI2
aI2
aI2
aI2
aI2
aI2
aI2
aI2
aI2
aI2
aI2
aI2
aI2
aI2
aI2
aI2
aI2
aI2
aI2
aI2
aI2
aI2
aI2
aI2
aI2
aI2
aI2
aI2
aI2
aI2
aI2
aI2
aI2
aI2
aI2
aI2
aI2
aI2
aI2
aI2
aI2
aI2
aI2
aI2
aI2
aI2
aI2
aI2
aI2
aI2
aI2
aI2
aI2
aI2
aI2
aI2
aI2
aI2
aI2
aI2
aI2
aI1
aI2
aI2
aI2
aI2
aI2
aI2
aI2
aI2
aI2
aI2
aI2
aI2
aI2
aI2
aI2
aI2
aI2
aI3
aI2
aI2
aI2
aI2
aI1
aI1
aI2
aI2
aI2
aI2
aI2
aI2
aI2
aI2
aI2
aI2
aI2
aI2
aI2
aI2
aI2
aI3
aI2
aI2
aI2
aI2
aI2
aI1
aI1
aI2
aI2
aI2
aI2
aI2
aI2
aI2
aI2
aI2
aI2
aI2
aI2
aI2
aI3
aI3
aI3
aI2
aI2
aI2
aI2
aI2
aI1
aI2
aI2
aI2
aI2
aI2
aI2
aI2
aI3
aI2
aI3
aI2
aI2
aI3
aI3
aI3
aI3
aI3
aI2
aI2
aI2
aI2
aI2
aI1
aI2
aI2
aI2
aI2
aI3
aI3
aI3
aI3
aI3
aI3
aI3
aI3
aI3
aI3
aI3
aI3
aI3
aI2
aI2
aI2
aI2
aI2
aI1
aI3
aI3
aI2
aI3
aI2
aI3
aI3
aI3
aI3
aI3
aI3
aI3
aI3
aI3
aI3
aI3
aI3
aI2
aI2
aI2
aI2
aI2
aI1
aI3
aI3
aI2
aI3
aI3
aI3
aI3
aI3
aI3
aI3
aI3
aI4
aI3
aI3
aI3
aI3
aI3
aI2
aI2
aI2
aI2
aI2
aI1
aI3
aI4
aI2
aI4
aI3
aI3
aI3
aI3
aI3
aI3
aI3
aI3
aI3
aI3
aI3
aI3
aI3
aI2
aI2
aI2
aI2
aI2
aI1
aI3
aI4
aI2
aI4
aI2
aI2
aI3
aI3
aI3
aI2
aI3
aI3
aI3
aI3
aI2
aI2
aI2
aI2
aI2
aI2
aI2
aI2
aI1
aI2
aI4
aI2
aI4
aI2
aI2
aI3
aI3
aI3
aI2
aI3
aI3
aI2
aI2
aI2
aI2
aI2
aI2
aI2
aI2
aI3
aI3
aI1
aI3
aI3
aI2
aI3
aI2
aI2
aI2
aI2
aI2
aI2
aI2
aI3
aI2
aI2
aI2
aI2
aI3
aI3
aI2
aI2
aI3
aI3
aI2
aI2
aI3
aI2
aI3
aI2
aI2
aI2
aI2
aI2
aI2
aI2
aI3
aI2
aI2
aI2
aI2
aI2
aI2
aI2
aI2
aI2
aI2
aI1
aI2
aI3
aI2
aI3
aI2
aI2
aI2
aI2
aI2
aI2
aI2
aI3
aI2
aI2
aI2
aI3
aI3
aI3
aI3
aI2
aI3
aI3
aI1
aI2
aI2
aI2
aI2
aI2
aI2
aI2
aI2
aI2
aI2
aI2
aI3
aI2
aI2
aI3
aI3
aI3
aI3
aI2
aI2
aI3
aI3
aI1
aI2
aI2
aI2
aI2
aI2
aI2
aI2
aI2
aI2
aI2
aI2
aI2
aI2
aI2
aI3
aI3
aI2
aI2
aI2
aI2
aI2
aI2
aI1
aI2
aI2
aI2
aI2
aI2
aI2
aI2
aI2
aI2
aI2
aI2
aI3
aI2
aI2
aI2
aI3
aI3
aI3
aI2
aI2
aI3
aI3
aI2
aI2
aI1
aI2
aI1
aI2
aI3
aI2
aI2
aI2
aI2
aI2
aI3
aI2
aI2
aI2
aI2
aI2
aI2
aI2
aI2
aI2
aI2
aI2
aI2
aI2
aI2
aI2
aI2
aI2
aI2
aI2
aI2
aI3
aI2
aI2
aI2
aI1
aI2
aI2
aI2
aI2
aI2
aI2
aI2
aI2
aI2
aI2
aI2
aI2
aI2
aI2
aI2
aI2
aI2
aI2
aI2
aI2
aI2
aI2
aI1
aI2
aI2
aI2
aI2
aI2
aI2
aI2
aI2
aI2
aI2
aI2
aI2
aI2
aI2
aI2
aI2
aI2
aI2
aI2
aI2
aI2
aI2
aI2
aI2
aI2
aI2
aI2
aI2
aI2
aI2
aI2
aI2
aI2
aI2
aI2
aI2
aI2
aI2
aI3
aI3
aI3
aI3
aI3
aI3
aI2
aI2
aI2
aI2
aI2
aI2
aI2
aI2
aI2
aI2
aI1
aI3
aI2
aI3
aI1
aI3
aI2
aI2
aI2
aI2
aI2
aI2
aI2
aI2
aI2
aI2
aI3
aI3
aI3
aI2
aI2
aI2
aI2
aI2
aI1
aI2
aI3
aI2
aI3
aI2
aI2
aI2
aI2
aI2
aI2
aI2
aI2
aI2
aI2
aI3
aI3
aI2
aI2
aI2
aI2
aI2
aI2
aI2
aI2
aI2
aI2
aI2
aI2
aI2
aI2
aI2
aI2
aI2
aI2
aI2
aI2
aI2
aI2
aI2
aI2
aI2
aI2
aI2
aI2
aI2
aI2
aI2
aI2
aI2
aI2
aI2
aI2
aI2
aI2
aI2
aI2
aI2
aI2
aI2
aI2
aI2
aI2
aI2
aI2
aI2
aI3
aI3
aI2
aI3
aI2
aI2
aI2
aI2
aI3
aI2
aI2
aI2
aI2
aI2
aI2
aI2
aI2
aI2
aI2
aI2
aI2
aI2
aI2
aI2
aI2
aI2
aI2
aI2
aI2
aI2
aI2
aI2
aI2
aI2
aI2
aI1
aI1
aI1
aI1
aI2
aI1
aI2
aI2
aI2
aI2
aI2
aI2
aI2
aI2
aI2
aI2
aI2
aI2
aI2
aI1
aI2
aI2
aI2
aI2
aI1
aI1
aI1
aI1
aI2
aI1
aI2
aI2
aI2
aI2
aI1
aI1
aI2
aI2
aI2
aI2
aI2
aI2
aI2
aI1
aI2
aI2
aI2
aI2
aI1
aI1
aI1
aI1
aI2
aI1
aI2
aI2
aI2
aI2
aI1
aI1
aI2
aI2
aI2
aI2
aI2
aI2
aI2
aI1
aI2
aI2
aI2
aI1
aI1
aI1
aI1
aI1
aI2
aI1
aI2
aI2
aI2
aI2
aI1
aI1
aI2
aI2
aI2
aI2
aI2
aI2
aI2
aI1
aI2
aI2
aI2
aI1
aI1
aI1
aI1
aI1
aI1
aI1
aI2
aI2
aI2
aI2
aI2
aI2
aI2
aI2
aI2
aI2
aI2
aI2
aI1
aI1
aI2
aI2
aI1
aI2
aI1
aI1
aI1
aI1
aI1
aI1
aI2
aI2
aI1
aI1
aI2
aI2
aI2
aI2
aI2
aI2
aI2
aI2
aI1
aI1
aI2
aI2
aI1
aI2
aI2
aI2
aI1
aI1
aI1
aI1
aI2
aI2
aI1
aI1
aI2
aI2
aI2
aI2
aI2
aI2
aI2
aI2
aI2
aI1
aI2
aI2
aI2
aI2
aI2
aI2
aI2
aI2
aI2
aI2
aI2
aI2
aI2
aI2
aI2
aI2
aI2
aI2
aI2
aI3
aI2
aI2
aI2
aI2
aI2
aI2
aI2
aI2
aI2
aI2
aI2
aI2
aI2
aI2
aI3
aI3
aI2
aI2
aI2
aI2
aI2
aI2
aI2
aI3
aI2
aI2
aI2
aI2
aI2
aI3
aI2
aI3
aI3
aI3
aI2
aI2
aI2
aI2
aI2
aI2
aI2
aI2
aI2
aI2
aI2
aI2
aI2
aI2
aI2
aI2
aI2
aI3
aI2
aI2
aI2
aI2
aI2
aI3
aI2
aI3
aI2
aI3
aI3
aI2
aI2
aI2
aI2
aI2
aI2
aI2
aI2
aI2
aI2
aI2
aI1
aI3
aI2
aI2
aI2
aI2
aI3
aI3
aI3
aI3
aI3
aI3
aI3
aI3
aI2
aI2
aI2
aI2
aI2
aI2
aI2
aI1
aI2
aI2
aI1
aI3
aI2
aI2
aI1
aI2
aI3
aI3
aI3
aI3
aI2
aI3
aI2
aI2
aI2
aI2
aI2
aI2
aI2
aI2
aI2
aI1
aI2
aI2
aI2
aI3
aI2
aI1
aI2
aI2
aI2
aI2
aI2
aI2
aI3
aI2
aI2
aI2
aI1
aI1
aI1
aI2
aI3
aI2
aI2
aI3
aI2
aI2
aI2
aI2
aI2
aI2
aI2
aI2
aI2
aI2
aI1
aI2
aI2
aI2
aI1
aI1
aI2
aI2
aI2
aI3
aI2
aI2
aI3
aI2
aI2
aI2
aI2
aI2
aI2
aI1
aI2
aI1
aI2
aI1
aI2
aI2
aI1
aI1
aI1
aI2
aI2
aI2
aI3
aI2
aI2
aI3
aI2
aI1
aI2
aI1
aI1
aI1
aI2
aI2
aI2
aI2
aI2
aI2
aI2
aI2
aI1
aI1
aI2
aI2
aI2
aI2
aI2
aI2
aI2
aI2
aI1
aI2
aI2
aI1
aI2
aI2
aI2
aI2
aI2
aI1
aI2
aI1
aI1
aI1
aI1
aI2
aI2
aI2
aI2
aI2
aI2
aI2
aI2
aI1
aI1
aI2
aI1
aI2
aI2
aI2
aI2
aI2
aI1
aI2
aI1
aI1
aI1
aI1
aI2
aI2
aI2
aI2
aI2
aI2
aI2
aI2
aI1
aI1
aI1
aI1
aI1
aI2
aI1
aI1
aI1
aI1
aI1
aI1
aI1
aI1
aI1
aI2
aI2
aI2
aI2
aI2
aI2
aI2
aI2
aI1
aI1
aI1
aI1
aI1
aI1
aI1
aI1
aI1
aI1
aI1
aI1
aI1
aI1
aI1
aI1
aI1
aI1
aI2
aI2
aI2
aI2
aI2
aI2
aI1
aI1
aI2
aI1
aI2
aI1
aI1
aI1
aI1
aI1
aI1
aI1
aI1
aI1
aI1
aI2
aI1
aI2
aI2
aI2
aI2
aI2
aI2
aI1
aI1
aI2
aI1
aI2
aI1
aI1
aI1
aI1
aI1
aI1
aI1
aI1
aI1
aI2
aI2
aI2
aI2
aI2
aI2
aI2
aI2
aI2
aI1
aI1
aI2
aI1
aI2
aI1
aI1
aI1
aI1
aI1
aI1
aI1
aI1
aI1
aI2
aI2
aI2
aI2
aI2
aI2
aI2
aI2
aI1
aI1
aI1
aI1
aI1
aI2
aI1
aI1
aI1
aI1
aI1
aI1
aI1
aI1
aI1
aI2
aI2
aI2
aI3
aI2
aI2
aI3
aI3
aI1
aI1
aI1
aI1
aI1
aI2
aI2
aI2
aI2
aI1
aI2
aI1
aI1
aI1
aI1
aI2
aI2
aI2
aI3
aI2
aI2
aI3
aI2
aI1
aI2
aI2
aI1
aI1
aI3
aI3
aI2
aI2
aI1
aI3
aI2
aI2
aI1
aI1
aI2
aI2
aI2
aI2
aI2
aI2
aI2
aI2
aI1
aI2
aI1
aI1
aI1
aI3
aI3
aI2
aI2
aI1
aI2
aI1
aI1
aI1
aI1
aI2
aI2
aI2
aI2
aI2
aI2
aI2
aI2
aI1
aI1
aI1
aI1
aI1
aI3
aI3
aI2
aI2
aI1
aI2
aI2
aI1
aI1
aI1
aI2
aI2
aI2
aI2
aI2
aI2
aI2
aI2
aI1
aI2
aI1
aI1
aI1
aI2
aI2
aI2
aI2
aI1
aI2
aI1
aI1
aI1
aI1
aI2
aI2
aI2
aI2
aI2
aI2
aI2
aI2
aI1
aI1
aI1
aI1
aI1
aI2
aI2
aI2
aI2
aI1
aI2
aI2
aI2
aI1
aI1
aI2
aI2
aI2
aI2
aI2
aI2
aI2
aI2
aI1
aI1
aI2
aI1
aI2
aI2
aI2
aI1
aI1
aI1
aI2
aI2
aI2
aI1
aI1
aI2
aI2
aI2
aI2
aI2
aI2
aI2
aI2
aI2
aI1
aI2
aI2
aI2
aI1
aI1
aI1
aI1
aI1
aI1
aI2
aI2
aI1
aI1
aI2
aI2
aI2
aI2
aI2
aI2
aI2
aI2
aI2
aI1
aI2
aI2
aI2
aI2
aI2
aI2
aI2
aI1
aI2
aI2
aI2
aI1
aI1
aI2
aI2
aI2
aI2
aI2
aI2
aI2
aI2
aI2
aI2
aI1
aI2
aI1
aI2
aI2
aI2
aI2
aI1
aI2
aI2
aI2
aI1
aI1
aI2
aI2
aI2
aI2
aI2
aI2
aI2
aI2
aI2
aI2
aI1
aI2
aI1
aa.