(lp0
(i__main__
DayData
p1
(dp2
S'week_no'
p3
I49
sS'box_size_x'
p4
I100
sS'observer_id'
p5
I325
sS'cell_colour'
p6
S'gray'
p7
sS'y'
p8
I500
sS'week_day'
p9
I2
sS'observations'
p10
ccollections
Counter
p11
((dp12
S'Snoedekke'
p13
I1
sS'Bilde'
p14
I4
sS'Observert vaer'
p15
I1
stp16
Rp17
sS'reg_ids'
p18
g11
((dp19
I68946
I6
stp20
Rp21
sS'date'
p22
cdatetime
date
p23
(S'\x07\xdf\x0c\x01'
p24
tp25
Rp26
sS'x'
p27
I200
sS'box_size_y'
p28
I100
sS'number_obs'
p29
I6
sba(i__main__
DayData
p30
(dp31
g3
I49
sg4
I100
sg5
I325
sg6
S'white'
p32
sg8
I500
sg9
I3
sg10
g11
((dp33
tp34
Rp35
sg18
g11
((dp36
tp37
Rp38
sg22
g23
(S'\x07\xdf\x0c\x02'
p39
tp40
Rp41
sg27
I300
sg28
I100
sg29
I0
sba(i__main__
DayData
p42
(dp43
g3
I49
sg4
I100
sg5
I325
sg6
g32
sg8
I500
sg9
I4
sg10
g11
((dp44
tp45
Rp46
sg18
g11
((dp47
tp48
Rp49
sg22
g23
(S'\x07\xdf\x0c\x03'
p50
tp51
Rp52
sg27
I400
sg28
I100
sg29
I0
sba(i__main__
DayData
p53
(dp54
g3
I49
sg4
I100
sg5
I325
sg6
g7
sg8
I500
sg9
I5
sg10
g11
((dp55
S'Snoedekke'
p56
I1
sS'Bilde'
p57
I1
sS'Observert vaer'
p58
I1
stp59
Rp60
sg18
g11
((dp61
I69252
I3
stp62
Rp63
sg22
g23
(S'\x07\xdf\x0c\x04'
p64
tp65
Rp66
sg27
I500
sg28
I100
sg29
I3
sba(i__main__
DayData
p67
(dp68
g3
I49
sg4
I100
sg5
I325
sg6
g7
sg8
I500
sg9
I6
sg10
g11
((dp69
S'Snoedekke'
p70
I1
sS'Observert vaer'
p71
I2
sS'Faretegn'
p72
I6
sS'Skredfarevurdering (2014)'
p73
I1
sS'Skredproblem (2014)'
p74
I3
sS'Observert skredaktivitet'
p75
I2
sS'Bilde'
p76
I12
sS'Snoeprofil'
p77
I2
stp78
Rp79
sg18
g11
((dp80
I69408
I5
sI69443
I1
sI69436
I23
stp81
Rp82
sg22
g23
(S'\x07\xdf\x0c\x05'
p83
tp84
Rp85
sg27
I600
sg28
I100
sg29
I29
sba(i__main__
DayData
p86
(dp87
g3
I49
sg4
I100
sg5
I325
sg6
g7
sg8
I500
sg9
I7
sg10
g11
((dp88
S'Snoedekke'
p89
I2
sS'Faretegn'
p90
I1
sS'Observert vaer'
p91
I2
sS'Skredfarevurdering (2014)'
p92
I1
sS'Skredproblem (2014)'
p93
I1
sS'Bilde'
p94
I9
sS'Fritekstfelt'
p95
I3
sg77
I1
stp96
Rp97
sg18
g11
((dp98
I69546
I14
sI69499
I1
sI69507
I1
sI69518
I3
sI69551
I1
stp99
Rp100
sg22
g23
(S'\x07\xdf\x0c\x06'
p101
tp102
Rp103
sg27
I700
sg28
I100
sg29
I20
sba(i__main__
DayData
p104
(dp105
g3
I50
sg4
I100
sg5
I325
sg6
g7
sg8
I400
sg9
I1
sg10
g11
((dp106
S'Snoedekke'
p107
I1
sS'Observert vaer'
p108
I1
sS'Faretegn'
p109
I1
sS'Skredfarevurdering (2014)'
p110
I1
sS'Skredproblem (2014)'
p111
I1
sS'Observert skredaktivitet'
p112
I1
sS'Bilde'
p113
I11
sS'Fritekstfelt'
p114
I1
sg77
I3
stp115
Rp116
sg18
g11
((dp117
I69694
I21
stp118
Rp119
sg22
g23
(S'\x07\xdf\x0c\x07'
p120
tp121
Rp122
sg27
I100
sg28
I100
sg29
I21
sba(i__main__
DayData
p123
(dp124
g3
I50
sg4
I100
sg5
I325
sg6
g7
sg8
I400
sg9
I2
sg10
g11
((dp125
S'Skredfarevurdering (2014)'
p126
I1
stp127
Rp128
sg18
g11
((dp129
I69819
I1
stp130
Rp131
sg22
g23
(S'\x07\xdf\x0c\x08'
p132
tp133
Rp134
sg27
I200
sg28
I100
sg29
I1
sba(i__main__
DayData
p135
(dp136
g3
I50
sg4
I100
sg5
I325
sg6
g7
sg8
I400
sg9
I3
sg10
g11
((dp137
S'Snoedekke'
p138
I1
sS'Bilde'
p139
I4
sS'Observert vaer'
p140
I1
stp141
Rp142
sg18
g11
((dp143
I69994
I4
sI69999
I2
stp144
Rp145
sg22
g23
(S'\x07\xdf\x0c\t'
p146
tp147
Rp148
sg27
I300
sg28
I100
sg29
I6
sba(i__main__
DayData
p149
(dp150
g3
I50
sg4
I100
sg5
I325
sg6
g7
sg8
I400
sg9
I4
sg10
g11
((dp151
S'Snoedekke'
p152
I1
sS'Observert vaer'
p153
I1
stp154
Rp155
sg18
g11
((dp156
I70188
I2
stp157
Rp158
sg22
g23
(S'\x07\xdf\x0c\n'
p159
tp160
Rp161
sg27
I400
sg28
I100
sg29
I2
sba(i__main__
DayData
p162
(dp163
g3
I50
sg4
I100
sg5
I325
sg6
g7
sg8
I400
sg9
I5
sg10
g11
((dp164
S'Hendelse'
p165
I1
sS'Skredfarevurdering (2014)'
p166
I1
sS'Observert vaer'
p167
I1
sS'Faretegn'
p168
I2
sS'Skredproblem (2014)'
p169
I1
sS'Observert skred'
p170
I1
sS'Bilde'
p171
I8
stp172
Rp173
sg18
g11
((dp174
I70263
I4
sI70222
I3
sI70271
I8
stp175
Rp176
sg22
g23
(S'\x07\xdf\x0c\x0b'
p177
tp178
Rp179
sg27
I500
sg28
I100
sg29
I15
sba(i__main__
DayData
p180
(dp181
g3
I50
sg4
I100
sg5
I325
sg6
g7
sg8
I400
sg9
I6
sg10
g11
((dp182
S'Snoedekke'
p183
I1
sS'Skredfarevurdering (2014)'
p184
I1
sS'Faretegn'
p185
I1
sS'Observert vaer'
p186
I1
sS'Skredproblem (2014)'
p187
I1
sS'Fritekstfelt'
p188
I1
sS'Bilde'
p189
I1
stp190
Rp191
sg18
g11
((dp192
I70378
I5
sI70366
I2
stp193
Rp194
sg22
g23
(S'\x07\xdf\x0c\x0c'
p195
tp196
Rp197
sg27
I600
sg28
I100
sg29
I7
sba(i__main__
DayData
p198
(dp199
g3
I50
sg4
I100
sg5
I325
sg6
g32
sg8
I400
sg9
I7
sg10
g11
((dp200
tp201
Rp202
sg18
g11
((dp203
tp204
Rp205
sg22
g23
(S'\x07\xdf\x0c\r'
p206
tp207
Rp208
sg27
I700
sg28
I100
sg29
I0
sba(i__main__
DayData
p209
(dp210
g3
I51
sg4
I100
sg5
I325
sg6
g7
sg8
I300
sg9
I1
sg10
g11
((dp211
S'Snoedekke'
p212
I1
sS'Observert vaer'
p213
I1
sS'Faretegn'
p214
I1
sS'Skredfarevurdering (2014)'
p215
I1
sS'Skredproblem (2014)'
p216
I1
sS'Observert skredaktivitet'
p217
I1
sS'Bilde'
p218
I7
sS'Fritekstfelt'
p219
I1
sg77
I2
stp220
Rp221
sg18
g11
((dp222
I70642
I16
stp223
Rp224
sg22
g23
(S'\x07\xdf\x0c\x0e'
p225
tp226
Rp227
sg27
I100
sg28
I100
sg29
I16
sba(i__main__
DayData
p228
(dp229
g3
I51
sg4
I100
sg5
I325
sg6
g7
sg8
I300
sg9
I2
sg10
g11
((dp230
S'Observert vaer'
p231
I1
sS'Faretegn'
p232
I1
stp233
Rp234
sg18
g11
((dp235
I70694
I1
sI70711
I1
stp236
Rp237
sg22
g23
(S'\x07\xdf\x0c\x0f'
p238
tp239
Rp240
sg27
I200
sg28
I100
sg29
I2
sba(i__main__
DayData
p241
(dp242
g3
I51
sg4
I100
sg5
I325
sg6
g7
sg8
I300
sg9
I3
sg10
g11
((dp243
S'Snoedekke'
p244
I1
sS'Observert vaer'
p245
I1
sS'Faretegn'
p246
I1
sS'Skredfarevurdering (2014)'
p247
I2
sS'Skredproblem (2014)'
p248
I1
sS'Bilde'
p249
I1
sS'Fritekstfelt'
p250
I1
sg77
I1
stp251
Rp252
sg18
g11
((dp253
I70811
I2
sI70940
I7
stp254
Rp255
sg22
g23
(S'\x07\xdf\x0c\x10'
p256
tp257
Rp258
sg27
I300
sg28
I100
sg29
I9
sba(i__main__
DayData
p259
(dp260
g3
I51
sg4
I100
sg5
I325
sg6
g7
sg8
I300
sg9
I4
sg10
g11
((dp261
S'Observert vaer'
p262
I2
sS'Fritekstfelt'
p263
I1
sS'Observert skredaktivitet'
p264
I1
sS'Bilde'
p265
I2
sS'Faretegn'
p266
I1
stp267
Rp268
sg18
g11
((dp269
I71004
I3
sI71078
I3
sI71111
I1
stp270
Rp271
sg22
g23
(S'\x07\xdf\x0c\x11'
p272
tp273
Rp274
sg27
I400
sg28
I100
sg29
I7
sba(i__main__
DayData
p275
(dp276
g3
I51
sg4
I100
sg5
I325
sg6
g7
sg8
I300
sg9
I5
sg10
g11
((dp277
S'Snoedekke'
p278
I1
sS'Fritekstfelt'
p279
I1
sS'Observert vaer'
p280
I3
sS'Skredfarevurdering (2014)'
p281
I1
stp282
Rp283
sg18
g11
((dp284
I71176
I2
sI71193
I2
sI71234
I1
sI71232
I1
stp285
Rp286
sg22
g23
(S'\x07\xdf\x0c\x12'
p287
tp288
Rp289
sg27
I500
sg28
I100
sg29
I6
sba(i__main__
DayData
p290
(dp291
g3
I51
sg4
I100
sg5
I325
sg6
g7
sg8
I300
sg9
I6
sg10
g11
((dp292
S'Snoedekke'
p293
I1
sS'Skredfarevurdering (2014)'
p294
I1
sS'Observert skredaktivitet'
p295
I1
sS'Faretegn'
p296
I1
sS'Observert vaer'
p297
I2
sS'Skredproblem (2014)'
p298
I1
sS'Bilde'
p299
I1
stp300
Rp301
sg18
g11
((dp302
I71288
I2
sI71305
I6
stp303
Rp304
sg22
g23
(S'\x07\xdf\x0c\x13'
p305
tp306
Rp307
sg27
I600
sg28
I100
sg29
I8
sba(i__main__
DayData
p308
(dp309
g3
I51
sg4
I100
sg5
I325
sg6
g7
sg8
I300
sg9
I7
sg10
g11
((dp310
S'Snoedekke'
p311
I1
sS'Skredfarevurdering (2014)'
p312
I2
sS'Bilde'
p313
I3
sS'Observert vaer'
p314
I2
sS'Skredproblem (2014)'
p315
I1
stp316
Rp317
sg18
g11
((dp318
I71409
I2
sI71434
I3
sI71423
I4
stp319
Rp320
sg22
g23
(S'\x07\xdf\x0c\x14'
p321
tp322
Rp323
sg27
I700
sg28
I100
sg29
I9
sba(i__main__
DayData
p324
(dp325
g3
I52
sg4
I100
sg5
I325
sg6
g7
sg8
I200
sg9
I1
sg10
g11
((dp326
S'Snoedekke'
p327
I2
sS'Faretegn'
p328
I3
sS'Observert vaer'
p329
I3
sS'Skredfarevurdering (2014)'
p330
I1
sS'Skredproblem (2014)'
p331
I1
sS'Observert skredaktivitet'
p332
I1
sS'Bilde'
p333
I7
sS'Fritekstfelt'
p334
I3
stp335
Rp336
sg18
g11
((dp337
I71528
I3
sI71544
I15
sI71546
I1
sI71547
I1
sI71445
I1
stp338
Rp339
sg22
g23
(S'\x07\xdf\x0c\x15'
p340
tp341
Rp342
sg27
I100
sg28
I100
sg29
I21
sba(i__main__
DayData
p343
(dp344
g3
I52
sg4
I100
sg5
I325
sg6
g7
sg8
I200
sg9
I2
sg10
g11
((dp345
S'Snoedekke'
p346
I3
sS'Skredfarevurdering (2014)'
p347
I2
sS'Bilde'
p348
I2
sS'Observert vaer'
p349
I4
sS'Skredproblem (2014)'
p350
I2
stp351
Rp352
sg18
g11
((dp353
I71684
I2
sI71676
I4
sI71679
I1
sI71692
I2
sI71694
I2
sI71695
I2
stp354
Rp355
sg22
g23
(S'\x07\xdf\x0c\x16'
p356
tp357
Rp358
sg27
I200
sg28
I100
sg29
I13
sba(i__main__
DayData
p359
(dp360
g3
I52
sg4
I100
sg5
I325
sg6
g7
sg8
I200
sg9
I3
sg10
g11
((dp361
S'Snoedekke'
p362
I1
sS'Bilde'
p363
I1
sS'Observert vaer'
p364
I1
stp365
Rp366
sg18
g11
((dp367
I71800
I3
stp368
Rp369
sg22
g23
(S'\x07\xdf\x0c\x17'
p370
tp371
Rp372
sg27
I300
sg28
I100
sg29
I3
sba(i__main__
DayData
p373
(dp374
g3
I52
sg4
I100
sg5
I325
sg6
g32
sg8
I200
sg9
I4
sg10
g11
((dp375
tp376
Rp377
sg18
g11
((dp378
tp379
Rp380
sg22
g23
(S'\x07\xdf\x0c\x18'
p381
tp382
Rp383
sg27
I400
sg28
I100
sg29
I0
sba(i__main__
DayData
p384
(dp385
g3
I52
sg4
I100
sg5
I325
sg6
g32
sg8
I200
sg9
I5
sg10
g11
((dp386
tp387
Rp388
sg18
g11
((dp389
tp390
Rp391
sg22
g23
(S'\x07\xdf\x0c\x19'
p392
tp393
Rp394
sg27
I500
sg28
I100
sg29
I0
sba(i__main__
DayData
p395
(dp396
g3
I52
sg4
I100
sg5
I325
sg6
g7
sg8
I200
sg9
I6
sg10
g11
((dp397
S'Snoedekke'
p398
I1
sS'Bilde'
p399
I2
sS'Observert vaer'
p400
I1
stp401
Rp402
sg18
g11
((dp403
I72029
I4
stp404
Rp405
sg22
g23
(S'\x07\xdf\x0c\x1a'
p406
tp407
Rp408
sg27
I600
sg28
I100
sg29
I4
sba(i__main__
DayData
p409
(dp410
g3
I52
sg4
I100
sg5
I325
sg6
g7
sg8
I200
sg9
I7
sg10
g11
((dp411
S'Snoedekke'
p412
I1
sS'Skredfarevurdering (2014)'
p413
I1
sS'Bilde'
p414
I3
sS'Observert vaer'
p415
I1
stp416
Rp417
sg18
g11
((dp418
I72210
I6
stp419
Rp420
sg22
g23
(S'\x07\xdf\x0c\x1b'
p421
tp422
Rp423
sg27
I700
sg28
I100
sg29
I6
sba(i__main__
DayData
p424
(dp425
g3
I53
sg4
I100
sg5
I325
sg6
g32
sg8
I100
sg9
I1
sg10
g11
((dp426
tp427
Rp428
sg18
g11
((dp429
tp430
Rp431
sg22
g23
(S'\x07\xdf\x0c\x1c'
p432
tp433
Rp434
sg27
I100
sg28
I100
sg29
I0
sba(i__main__
DayData
p435
(dp436
g3
I53
sg4
I100
sg5
I325
sg6
g7
sg8
I100
sg9
I2
sg10
g11
((dp437
S'Snoedekke'
p438
I1
sS'Bilde'
p439
I1
sS'Observert vaer'
p440
I2
stp441
Rp442
sg18
g11
((dp443
I72484
I3
sI72486
I1
stp444
Rp445
sg22
g23
(S'\x07\xdf\x0c\x1d'
p446
tp447
Rp448
sg27
I200
sg28
I100
sg29
I4
sba(i__main__
DayData
p449
(dp450
g3
I53
sg4
I100
sg5
I325
sg6
g7
sg8
I100
sg9
I3
sg10
g11
((dp451
S'Snoedekke'
p452
I3
sS'Skredfarevurdering (2014)'
p453
I1
sS'Observert vaer'
p454
I3
sS'Faretegn'
p455
I1
sS'Skredproblem (2014)'
p456
I1
stp457
Rp458
sg18
g11
((dp459
I72546
I2
sI72620
I4
sI72629
I3
stp460
Rp461
sg22
g23
(S'\x07\xdf\x0c\x1e'
p462
tp463
Rp464
sg27
I300
sg28
I100
sg29
I9
sba(i__main__
DayData
p465
(dp466
g3
I53
sg4
I100
sg5
I325
sg6
g32
sg8
I100
sg9
I4
sg10
g11
((dp467
tp468
Rp469
sg18
g11
((dp470
tp471
Rp472
sg22
g23
(S'\x07\xdf\x0c\x1f'
p473
tp474
Rp475
sg27
I400
sg28
I100
sg29
I0
sba.