(lp0
(i__main__
DayData
p1
(dp2
S'obs_pr_regid'
p3
(dp4
sS'loc_pr_regid'
p5
(dp6
sS'week_no'
p7
I49
sS'box_size_x'
p8
I100
sS'observer_id'
p9
I580
sS'cell_colour'
p10
S'white'
p11
sS'y'
p12
I0
sS'week_day'
p13
I2
sS'observations'
p14
ccollections
Counter
p15
((dp16
tp17
Rp18
sS'reg_ids'
p19
g15
((dp20
tp21
Rp22
sS'date'
p23
cdatetime
date
p24
(S'\x07\xdf\x0c\x01'
p25
tp26
Rp27
sS'x'
p28
I200
sS'box_size_y'
p29
I100
sS'number_obs'
p30
I0
sba(i__main__
DayData
p31
(dp32
g3
(dp33
sg5
(dp34
sg7
I49
sg8
I100
sg9
I580
sg10
g11
sg12
I0
sg13
I3
sg14
g15
((dp35
tp36
Rp37
sg19
g15
((dp38
tp39
Rp40
sg23
g24
(S'\x07\xdf\x0c\x02'
p41
tp42
Rp43
sg28
I300
sg29
I100
sg30
I0
sba(i__main__
DayData
p44
(dp45
g3
(dp46
I69119
(lp47
S'Observert vaer'
p48
aS'Snoedekke'
p49
assg5
(dp50
I69119
S'Salten'
p51
ssg7
I49
sg8
I100
sg9
I580
sg10
S'gainsboro'
p52
sg12
I0
sg13
I4
sg14
g15
((dp53
g49
I1
sg48
I1
stp54
Rp55
sg19
g15
((dp56
I69119
I2
stp57
Rp58
sg23
g24
(S'\x07\xdf\x0c\x03'
p59
tp60
Rp61
sg28
I400
sg29
I100
sg30
I2
sba(i__main__
DayData
p62
(dp63
g3
(dp64
I69269
(lp65
S'Observert vaer'
p66
aS'Snoedekke'
p67
assg5
(dp68
I69269
S'Nordland'
p69
ssg7
I49
sg8
I100
sg9
I580
sg10
g52
sg12
I0
sg13
I5
sg14
g15
((dp70
g67
I1
sg66
I1
stp71
Rp72
sg19
g15
((dp73
I69269
I2
stp74
Rp75
sg23
g24
(S'\x07\xdf\x0c\x04'
p76
tp77
Rp78
sg28
I500
sg29
I100
sg30
I2
sba(i__main__
DayData
p79
(dp80
g3
(dp81
I69406
(lp82
S'Bilde'
p83
aS'Observert vaer'
p84
assg5
(dp85
I69406
S'Salten'
p86
ssg7
I49
sg8
I100
sg9
I580
sg10
g52
sg12
I0
sg13
I6
sg14
g15
((dp87
g83
I1
sg84
I1
stp88
Rp89
sg19
g15
((dp90
I69406
I2
stp91
Rp92
sg23
g24
(S'\x07\xdf\x0c\x05'
p93
tp94
Rp95
sg28
I600
sg29
I100
sg30
I2
sba(i__main__
DayData
p96
(dp97
g3
(dp98
I69538
(lp99
S'Bilde'
p100
aS'Bilde'
p101
aS'Bilde'
p102
aS'Faretegn'
p103
aS'Observert vaer'
p104
aS'Snoedekke'
p105
aS'Kompresjonstest'
p106
aS'Skredfarevurdering'
p107
aS'Skredproblem'
p108
assg5
(dp109
I69538
S'Salten'
p110
ssg7
I49
sg8
I100
sg9
I580
sg10
g52
sg12
I0
sg13
I7
sg14
g15
((dp111
g105
I1
sg108
I1
sg104
I1
sg103
I1
sg106
I1
sg107
I1
sg100
I2
sS'Snoeprofil'
p112
I1
stp113
Rp114
sg19
g15
((dp115
I69538
I9
stp116
Rp117
sg23
g24
(S'\x07\xdf\x0c\x06'
p118
tp119
Rp120
sg28
I700
sg29
I100
sg30
I9
sba(i__main__
DayData
p121
(dp122
g3
(dp123
I69641
(lp124
S'Observert vaer'
p125
assg5
(dp126
I69641
S'Nordland'
p127
ssg7
I50
sg8
I100
sg9
I580
sg10
g52
sg12
I-100
sg13
I1
sg14
g15
((dp128
g125
I1
stp129
Rp130
sg19
g15
((dp131
I69641
I1
stp132
Rp133
sg23
g24
(S'\x07\xdf\x0c\x07'
p134
tp135
Rp136
sg28
I100
sg29
I100
sg30
I1
sba(i__main__
DayData
p137
(dp138
g3
(dp139
I69827
(lp140
S'Observert vaer'
p141
aS'Snoedekke'
p142
asI69829
(lp143
S'Bilde'
p144
aS'Faretegn'
p145
aS'Faretegn'
p146
aS'Observert vaer'
p147
aS'Snoedekke'
p148
aS'Kompresjonstest'
p149
aS'Skredfarevurdering'
p150
aS'Skredproblem'
p151
asI69798
(lp152
S'Observert vaer'
p153
assg5
(dp154
I69827
S'Nordland'
p155
sI69829
S'Nordland'
p156
sI69798
S'Nordland'
p157
ssg7
I50
sg8
I100
sg9
I580
sg10
g52
sg12
I-100
sg13
I2
sg14
g15
((dp158
g142
I2
sg151
I1
sg145
I2
sg153
I3
sg149
I1
sg112
I1
sg150
I1
stp159
Rp160
sg19
g15
((dp161
I69827
I2
sI69829
I8
sI69798
I1
stp162
Rp163
sg23
g24
(S'\x07\xdf\x0c\x08'
p164
tp165
Rp166
sg28
I200
sg29
I100
sg30
I11
sba(i__main__
DayData
p167
(dp168
g3
(dp169
sg5
(dp170
sg7
I50
sg8
I100
sg9
I580
sg10
g11
sg12
I-100
sg13
I3
sg14
g15
((dp171
tp172
Rp173
sg19
g15
((dp174
tp175
Rp176
sg23
g24
(S'\x07\xdf\x0c\t'
p177
tp178
Rp179
sg28
I300
sg29
I100
sg30
I0
sba(i__main__
DayData
p180
(dp181
g3
(dp182
sg5
(dp183
sg7
I50
sg8
I100
sg9
I580
sg10
g11
sg12
I-100
sg13
I4
sg14
g15
((dp184
tp185
Rp186
sg19
g15
((dp187
tp188
Rp189
sg23
g24
(S'\x07\xdf\x0c\n'
p190
tp191
Rp192
sg28
I400
sg29
I100
sg30
I0
sba(i__main__
DayData
p193
(dp194
g3
(dp195
sg5
(dp196
sg7
I50
sg8
I100
sg9
I580
sg10
g11
sg12
I-100
sg13
I5
sg14
g15
((dp197
tp198
Rp199
sg19
g15
((dp200
tp201
Rp202
sg23
g24
(S'\x07\xdf\x0c\x0b'
p203
tp204
Rp205
sg28
I500
sg29
I100
sg30
I0
sba(i__main__
DayData
p206
(dp207
g3
(dp208
I70359
(lp209
S'Fritekstfelt'
p210
aS'Bilde'
p211
aS'Bilde'
p212
aS'Bilde'
p213
aS'Bilde'
p214
aS'Bilde'
p215
aS'Faretegn'
p216
aS'Observert vaer'
p217
aS'Snoedekke'
p218
aS'Kompresjonstest'
p219
aS'Kompresjonstest'
p220
aS'Skredfarevurdering'
p221
aS'Skredproblem'
p222
assg5
(dp223
I70359
S'Salten'
p224
ssg7
I50
sg8
I100
sg9
I580
sg10
g52
sg12
I-100
sg13
I6
sg14
g15
((dp225
g218
I1
sg222
I1
sg217
I1
sg216
I1
sg219
I2
sg221
I1
sg211
I4
sg210
I1
sg112
I1
stp226
Rp227
sg19
g15
((dp228
I70359
I13
stp229
Rp230
sg23
g24
(S'\x07\xdf\x0c\x0c'
p231
tp232
Rp233
sg28
I600
sg29
I100
sg30
I13
sba(i__main__
DayData
p234
(dp235
g3
(dp236
sg5
(dp237
sg7
I50
sg8
I100
sg9
I580
sg10
g11
sg12
I-100
sg13
I7
sg14
g15
((dp238
tp239
Rp240
sg19
g15
((dp241
tp242
Rp243
sg23
g24
(S'\x07\xdf\x0c\r'
p244
tp245
Rp246
sg28
I700
sg29
I100
sg30
I0
sba(i__main__
DayData
p247
(dp248
g3
(dp249
sg5
(dp250
sg7
I51
sg8
I100
sg9
I580
sg10
g11
sg12
I-200
sg13
I1
sg14
g15
((dp251
tp252
Rp253
sg19
g15
((dp254
tp255
Rp256
sg23
g24
(S'\x07\xdf\x0c\x0e'
p257
tp258
Rp259
sg28
I100
sg29
I100
sg30
I0
sba(i__main__
DayData
p260
(dp261
g3
(dp262
I70804
(lp263
S'Fritekstfelt'
p264
aS'Bilde'
p265
aS'Faretegn'
p266
aS'Observert vaer'
p267
aS'Snoedekke'
p268
aS'Kompresjonstest'
p269
aS'Kompresjonstest'
p270
aS'Observert skredaktivitet(2014)'
p271
aS'Skredfarevurdering'
p272
aS'Skredproblem'
p273
assg5
(dp274
I70804
S'Salten'
p275
ssg7
I51
sg8
I100
sg9
I580
sg10
g52
sg12
I-200
sg13
I2
sg14
g15
((dp276
g268
I1
sg273
I1
sg271
I1
sg267
I1
sg266
I1
sg269
I2
sg272
I1
sg264
I1
sg112
I1
stp277
Rp278
sg19
g15
((dp279
I70804
I10
stp280
Rp281
sg23
g24
(S'\x07\xdf\x0c\x0f'
p282
tp283
Rp284
sg28
I200
sg29
I100
sg30
I10
sba(i__main__
DayData
p285
(dp286
g3
(dp287
sg5
(dp288
sg7
I51
sg8
I100
sg9
I580
sg10
g11
sg12
I-200
sg13
I3
sg14
g15
((dp289
tp290
Rp291
sg19
g15
((dp292
tp293
Rp294
sg23
g24
(S'\x07\xdf\x0c\x10'
p295
tp296
Rp297
sg28
I300
sg29
I100
sg30
I0
sba(i__main__
DayData
p298
(dp299
g3
(dp300
sg5
(dp301
sg7
I51
sg8
I100
sg9
I580
sg10
g11
sg12
I-200
sg13
I4
sg14
g15
((dp302
tp303
Rp304
sg19
g15
((dp305
tp306
Rp307
sg23
g24
(S'\x07\xdf\x0c\x11'
p308
tp309
Rp310
sg28
I400
sg29
I100
sg30
I0
sba(i__main__
DayData
p311
(dp312
g3
(dp313
sg5
(dp314
sg7
I51
sg8
I100
sg9
I580
sg10
g11
sg12
I-200
sg13
I5
sg14
g15
((dp315
tp316
Rp317
sg19
g15
((dp318
tp319
Rp320
sg23
g24
(S'\x07\xdf\x0c\x12'
p321
tp322
Rp323
sg28
I500
sg29
I100
sg30
I0
sba(i__main__
DayData
p324
(dp325
g3
(dp326
sg5
(dp327
sg7
I51
sg8
I100
sg9
I580
sg10
g11
sg12
I-200
sg13
I6
sg14
g15
((dp328
tp329
Rp330
sg19
g15
((dp331
tp332
Rp333
sg23
g24
(S'\x07\xdf\x0c\x13'
p334
tp335
Rp336
sg28
I600
sg29
I100
sg30
I0
sba(i__main__
DayData
p337
(dp338
g3
(dp339
sg5
(dp340
sg7
I51
sg8
I100
sg9
I580
sg10
g11
sg12
I-200
sg13
I7
sg14
g15
((dp341
tp342
Rp343
sg19
g15
((dp344
tp345
Rp346
sg23
g24
(S'\x07\xdf\x0c\x14'
p347
tp348
Rp349
sg28
I700
sg29
I100
sg30
I0
sba(i__main__
DayData
p350
(dp351
g3
(dp352
sg5
(dp353
sg7
I52
sg8
I100
sg9
I580
sg10
g11
sg12
I-300
sg13
I1
sg14
g15
((dp354
tp355
Rp356
sg19
g15
((dp357
tp358
Rp359
sg23
g24
(S'\x07\xdf\x0c\x15'
p360
tp361
Rp362
sg28
I100
sg29
I100
sg30
I0
sba(i__main__
DayData
p363
(dp364
g3
(dp365
sg5
(dp366
sg7
I52
sg8
I100
sg9
I580
sg10
g11
sg12
I-300
sg13
I2
sg14
g15
((dp367
tp368
Rp369
sg19
g15
((dp370
tp371
Rp372
sg23
g24
(S'\x07\xdf\x0c\x16'
p373
tp374
Rp375
sg28
I200
sg29
I100
sg30
I0
sba(i__main__
DayData
p376
(dp377
g3
(dp378
sg5
(dp379
sg7
I52
sg8
I100
sg9
I580
sg10
g11
sg12
I-300
sg13
I3
sg14
g15
((dp380
tp381
Rp382
sg19
g15
((dp383
tp384
Rp385
sg23
g24
(S'\x07\xdf\x0c\x17'
p386
tp387
Rp388
sg28
I300
sg29
I100
sg30
I0
sba(i__main__
DayData
p389
(dp390
g3
(dp391
sg5
(dp392
sg7
I52
sg8
I100
sg9
I580
sg10
g11
sg12
I-300
sg13
I4
sg14
g15
((dp393
tp394
Rp395
sg19
g15
((dp396
tp397
Rp398
sg23
g24
(S'\x07\xdf\x0c\x18'
p399
tp400
Rp401
sg28
I400
sg29
I100
sg30
I0
sba(i__main__
DayData
p402
(dp403
g3
(dp404
sg5
(dp405
sg7
I52
sg8
I100
sg9
I580
sg10
g11
sg12
I-300
sg13
I5
sg14
g15
((dp406
tp407
Rp408
sg19
g15
((dp409
tp410
Rp411
sg23
g24
(S'\x07\xdf\x0c\x19'
p412
tp413
Rp414
sg28
I500
sg29
I100
sg30
I0
sba(i__main__
DayData
p415
(dp416
g3
(dp417
sg5
(dp418
sg7
I52
sg8
I100
sg9
I580
sg10
g11
sg12
I-300
sg13
I6
sg14
g15
((dp419
tp420
Rp421
sg19
g15
((dp422
tp423
Rp424
sg23
g24
(S'\x07\xdf\x0c\x1a'
p425
tp426
Rp427
sg28
I600
sg29
I100
sg30
I0
sba(i__main__
DayData
p428
(dp429
g3
(dp430
sg5
(dp431
sg7
I52
sg8
I100
sg9
I580
sg10
g11
sg12
I-300
sg13
I7
sg14
g15
((dp432
tp433
Rp434
sg19
g15
((dp435
tp436
Rp437
sg23
g24
(S'\x07\xdf\x0c\x1b'
p438
tp439
Rp440
sg28
I700
sg29
I100
sg30
I0
sba(i__main__
DayData
p441
(dp442
g3
(dp443
sg5
(dp444
sg7
I53
sg8
I100
sg9
I580
sg10
g11
sg12
I-400
sg13
I1
sg14
g15
((dp445
tp446
Rp447
sg19
g15
((dp448
tp449
Rp450
sg23
g24
(S'\x07\xdf\x0c\x1c'
p451
tp452
Rp453
sg28
I100
sg29
I100
sg30
I0
sba(i__main__
DayData
p454
(dp455
g3
(dp456
I72489
(lp457
S'Bilde'
p458
aS'Bilde'
p459
aS'Bilde'
p460
aS'Observert vaer'
p461
aS'Snoedekke'
p462
aS'Kompresjonstest'
p463
aS'Kompresjonstest'
p464
aS'Skredfarevurdering'
p465
aS'Skredproblem'
p466
assg5
(dp467
I72489
S'Salten'
p468
ssg7
I53
sg8
I100
sg9
I580
sg10
g52
sg12
I-400
sg13
I2
sg14
g15
((dp469
g462
I1
sg466
I1
sg458
I2
sg461
I1
sg463
I2
sg112
I1
sg465
I1
stp470
Rp471
sg19
g15
((dp472
I72489
I9
stp473
Rp474
sg23
g24
(S'\x07\xdf\x0c\x1d'
p475
tp476
Rp477
sg28
I200
sg29
I100
sg30
I9
sba(i__main__
DayData
p478
(dp479
g3
(dp480
sg5
(dp481
sg7
I53
sg8
I100
sg9
I580
sg10
g11
sg12
I-400
sg13
I3
sg14
g15
((dp482
tp483
Rp484
sg19
g15
((dp485
tp486
Rp487
sg23
g24
(S'\x07\xdf\x0c\x1e'
p488
tp489
Rp490
sg28
I300
sg29
I100
sg30
I0
sba(i__main__
DayData
p491
(dp492
g3
(dp493
sg5
(dp494
sg7
I53
sg8
I100
sg9
I580
sg10
g11
sg12
I-400
sg13
I4
sg14
g15
((dp495
tp496
Rp497
sg19
g15
((dp498
tp499
Rp500
sg23
g24
(S'\x07\xdf\x0c\x1f'
p501
tp502
Rp503
sg28
I400
sg29
I100
sg30
I0
sba.