(lp0
(i__main__
DayData
p1
(dp2
S'obs_pr_regid'
p3
(dp4
I68784
(lp5
S'Bilde'
p6
aS'Snoedekke'
p7
assS'loc_pr_regid'
p8
(dp9
I68784
S'Sogn'
p10
ssS'week_no'
p11
I49
sS'box_size_x'
p12
I100
sS'observer_id'
p13
I45
sS'cell_colour'
p14
S'gainsboro'
p15
sS'y'
p16
I0
sS'week_day'
p17
I2
sS'observations'
p18
ccollections
Counter
p19
((dp20
g7
I1
sg6
I1
stp21
Rp22
sS'reg_ids'
p23
g19
((dp24
I68784
I2
stp25
Rp26
sS'date'
p27
cdatetime
date
p28
(S'\x07\xdf\x0c\x01'
p29
tp30
Rp31
sS'x'
p32
I200
sS'box_size_y'
p33
I100
sS'number_obs'
p34
I2
sba(i__main__
DayData
p35
(dp36
g3
(dp37
I69032
(lp38
S'Bilde'
p39
aS'Observert vaer'
p40
asI68956
(lp41
S'Bilde'
p42
aS'Snoedekke'
p43
assg8
(dp44
I69032
S'Sogn'
p45
sI68956
S'Sogn'
p46
ssg11
I49
sg12
I100
sg13
I45
sg14
g15
sg16
I0
sg17
I3
sg18
g19
((dp47
g43
I1
sg42
I2
sg40
I1
stp48
Rp49
sg23
g19
((dp50
I69032
I2
sI68956
I2
stp51
Rp52
sg27
g28
(S'\x07\xdf\x0c\x02'
p53
tp54
Rp55
sg32
I300
sg33
I100
sg34
I4
sba(i__main__
DayData
p56
(dp57
g3
(dp58
sg8
(dp59
sg11
I49
sg12
I100
sg13
I45
sg14
S'white'
p60
sg16
I0
sg17
I4
sg18
g19
((dp61
tp62
Rp63
sg23
g19
((dp64
tp65
Rp66
sg27
g28
(S'\x07\xdf\x0c\x03'
p67
tp68
Rp69
sg32
I400
sg33
I100
sg34
I0
sba(i__main__
DayData
p70
(dp71
g3
(dp72
I69322
(lp73
S'Bilde'
p74
aS'Faretegn'
p75
aS'Snoedekke'
p76
aS'Observert skredaktivitet(2014)'
p77
assg8
(dp78
I69322
S'Sogn'
p79
ssg11
I49
sg12
I100
sg13
I45
sg14
g15
sg16
I0
sg17
I5
sg18
g19
((dp80
g76
I1
sg77
I1
sg74
I1
sg75
I1
stp81
Rp82
sg23
g19
((dp83
I69322
I4
stp84
Rp85
sg27
g28
(S'\x07\xdf\x0c\x04'
p86
tp87
Rp88
sg32
I500
sg33
I100
sg34
I4
sba(i__main__
DayData
p89
(dp90
g3
(dp91
I69402
(lp92
S'Observert skredaktivitet(2014)'
p93
assg8
(dp94
I69402
S'Sogn'
p95
ssg11
I49
sg12
I100
sg13
I45
sg14
g15
sg16
I0
sg17
I6
sg18
g19
((dp96
g93
I1
stp97
Rp98
sg23
g19
((dp99
I69402
I1
stp100
Rp101
sg27
g28
(S'\x07\xdf\x0c\x05'
p102
tp103
Rp104
sg32
I600
sg33
I100
sg34
I1
sba(i__main__
DayData
p105
(dp106
g3
(dp107
sg8
(dp108
sg11
I49
sg12
I100
sg13
I45
sg14
g60
sg16
I0
sg17
I7
sg18
g19
((dp109
tp110
Rp111
sg23
g19
((dp112
tp113
Rp114
sg27
g28
(S'\x07\xdf\x0c\x06'
p115
tp116
Rp117
sg32
I700
sg33
I100
sg34
I0
sba(i__main__
DayData
p118
(dp119
g3
(dp120
I69599
(lp121
S'Bilde'
p122
aS'Bilde'
p123
aS'Bilde'
p124
aS'Observert vaer'
p125
aS'Snoedekke'
p126
assg8
(dp127
I69599
S'Hallingdal'
p128
ssg11
I50
sg12
I100
sg13
I45
sg14
g15
sg16
I-100
sg17
I1
sg18
g19
((dp129
g126
I1
sg122
I3
sg125
I1
stp130
Rp131
sg23
g19
((dp132
I69599
I5
stp133
Rp134
sg27
g28
(S'\x07\xdf\x0c\x07'
p135
tp136
Rp137
sg32
I100
sg33
I100
sg34
I5
sba(i__main__
DayData
p138
(dp139
g3
(dp140
sg8
(dp141
sg11
I50
sg12
I100
sg13
I45
sg14
g60
sg16
I-100
sg17
I2
sg18
g19
((dp142
tp143
Rp144
sg23
g19
((dp145
tp146
Rp147
sg27
g28
(S'\x07\xdf\x0c\x08'
p148
tp149
Rp150
sg32
I200
sg33
I100
sg34
I0
sba(i__main__
DayData
p151
(dp152
g3
(dp153
sg8
(dp154
sg11
I50
sg12
I100
sg13
I45
sg14
g60
sg16
I-100
sg17
I3
sg18
g19
((dp155
tp156
Rp157
sg23
g19
((dp158
tp159
Rp160
sg27
g28
(S'\x07\xdf\x0c\t'
p161
tp162
Rp163
sg32
I300
sg33
I100
sg34
I0
sba(i__main__
DayData
p164
(dp165
g3
(dp166
sg8
(dp167
sg11
I50
sg12
I100
sg13
I45
sg14
g60
sg16
I-100
sg17
I4
sg18
g19
((dp168
tp169
Rp170
sg23
g19
((dp171
tp172
Rp173
sg27
g28
(S'\x07\xdf\x0c\n'
p174
tp175
Rp176
sg32
I400
sg33
I100
sg34
I0
sba(i__main__
DayData
p177
(dp178
g3
(dp179
sg8
(dp180
sg11
I50
sg12
I100
sg13
I45
sg14
g60
sg16
I-100
sg17
I5
sg18
g19
((dp181
tp182
Rp183
sg23
g19
((dp184
tp185
Rp186
sg27
g28
(S'\x07\xdf\x0c\x0b'
p187
tp188
Rp189
sg32
I500
sg33
I100
sg34
I0
sba(i__main__
DayData
p190
(dp191
g3
(dp192
sg8
(dp193
sg11
I50
sg12
I100
sg13
I45
sg14
g60
sg16
I-100
sg17
I6
sg18
g19
((dp194
tp195
Rp196
sg23
g19
((dp197
tp198
Rp199
sg27
g28
(S'\x07\xdf\x0c\x0c'
p200
tp201
Rp202
sg32
I600
sg33
I100
sg34
I0
sba(i__main__
DayData
p203
(dp204
g3
(dp205
sg8
(dp206
sg11
I50
sg12
I100
sg13
I45
sg14
g60
sg16
I-100
sg17
I7
sg18
g19
((dp207
tp208
Rp209
sg23
g19
((dp210
tp211
Rp212
sg27
g28
(S'\x07\xdf\x0c\r'
p213
tp214
Rp215
sg32
I700
sg33
I100
sg34
I0
sba(i__main__
DayData
p216
(dp217
g3
(dp218
sg8
(dp219
sg11
I51
sg12
I100
sg13
I45
sg14
g60
sg16
I-200
sg17
I1
sg18
g19
((dp220
tp221
Rp222
sg23
g19
((dp223
tp224
Rp225
sg27
g28
(S'\x07\xdf\x0c\x0e'
p226
tp227
Rp228
sg32
I100
sg33
I100
sg34
I0
sba(i__main__
DayData
p229
(dp230
g3
(dp231
sg8
(dp232
sg11
I51
sg12
I100
sg13
I45
sg14
g60
sg16
I-200
sg17
I2
sg18
g19
((dp233
tp234
Rp235
sg23
g19
((dp236
tp237
Rp238
sg27
g28
(S'\x07\xdf\x0c\x0f'
p239
tp240
Rp241
sg32
I200
sg33
I100
sg34
I0
sba(i__main__
DayData
p242
(dp243
g3
(dp244
I70869
(lp245
S'Bilde'
p246
aS'Observert vaer'
p247
assg8
(dp248
I70869
S'Sogn'
p249
ssg11
I51
sg12
I100
sg13
I45
sg14
g15
sg16
I-200
sg17
I3
sg18
g19
((dp250
g246
I1
sg247
I1
stp251
Rp252
sg23
g19
((dp253
I70869
I2
stp254
Rp255
sg27
g28
(S'\x07\xdf\x0c\x10'
p256
tp257
Rp258
sg32
I300
sg33
I100
sg34
I2
sba(i__main__
DayData
p259
(dp260
g3
(dp261
sg8
(dp262
sg11
I51
sg12
I100
sg13
I45
sg14
g60
sg16
I-200
sg17
I4
sg18
g19
((dp263
tp264
Rp265
sg23
g19
((dp266
tp267
Rp268
sg27
g28
(S'\x07\xdf\x0c\x11'
p269
tp270
Rp271
sg32
I400
sg33
I100
sg34
I0
sba(i__main__
DayData
p272
(dp273
g3
(dp274
sg8
(dp275
sg11
I51
sg12
I100
sg13
I45
sg14
g60
sg16
I-200
sg17
I5
sg18
g19
((dp276
tp277
Rp278
sg23
g19
((dp279
tp280
Rp281
sg27
g28
(S'\x07\xdf\x0c\x12'
p282
tp283
Rp284
sg32
I500
sg33
I100
sg34
I0
sba(i__main__
DayData
p285
(dp286
g3
(dp287
sg8
(dp288
sg11
I51
sg12
I100
sg13
I45
sg14
g60
sg16
I-200
sg17
I6
sg18
g19
((dp289
tp290
Rp291
sg23
g19
((dp292
tp293
Rp294
sg27
g28
(S'\x07\xdf\x0c\x13'
p295
tp296
Rp297
sg32
I600
sg33
I100
sg34
I0
sba(i__main__
DayData
p298
(dp299
g3
(dp300
I71414
(lp301
S'Bilde'
p302
aS'Bilde'
p303
aS'Observert skredaktivitet(2014)'
p304
asI71415
(lp305
S'Bilde'
p306
aS'Faretegn'
p307
assg8
(dp308
I71414
S'Sogn'
p309
sI71415
S'Sogn'
p310
ssg11
I51
sg12
I100
sg13
I45
sg14
g15
sg16
I-200
sg17
I7
sg18
g19
((dp311
g304
I1
sg302
I3
sg307
I1
stp312
Rp313
sg23
g19
((dp314
I71414
I3
sI71415
I2
stp315
Rp316
sg27
g28
(S'\x07\xdf\x0c\x14'
p317
tp318
Rp319
sg32
I700
sg33
I100
sg34
I5
sba(i__main__
DayData
p320
(dp321
g3
(dp322
sg8
(dp323
sg11
I52
sg12
I100
sg13
I45
sg14
g60
sg16
I-300
sg17
I1
sg18
g19
((dp324
tp325
Rp326
sg23
g19
((dp327
tp328
Rp329
sg27
g28
(S'\x07\xdf\x0c\x15'
p330
tp331
Rp332
sg32
I100
sg33
I100
sg34
I0
sba(i__main__
DayData
p333
(dp334
g3
(dp335
sg8
(dp336
sg11
I52
sg12
I100
sg13
I45
sg14
g60
sg16
I-300
sg17
I2
sg18
g19
((dp337
tp338
Rp339
sg23
g19
((dp340
tp341
Rp342
sg27
g28
(S'\x07\xdf\x0c\x16'
p343
tp344
Rp345
sg32
I200
sg33
I100
sg34
I0
sba(i__main__
DayData
p346
(dp347
g3
(dp348
sg8
(dp349
sg11
I52
sg12
I100
sg13
I45
sg14
g60
sg16
I-300
sg17
I3
sg18
g19
((dp350
tp351
Rp352
sg23
g19
((dp353
tp354
Rp355
sg27
g28
(S'\x07\xdf\x0c\x17'
p356
tp357
Rp358
sg32
I300
sg33
I100
sg34
I0
sba(i__main__
DayData
p359
(dp360
g3
(dp361
sg8
(dp362
sg11
I52
sg12
I100
sg13
I45
sg14
g60
sg16
I-300
sg17
I4
sg18
g19
((dp363
tp364
Rp365
sg23
g19
((dp366
tp367
Rp368
sg27
g28
(S'\x07\xdf\x0c\x18'
p369
tp370
Rp371
sg32
I400
sg33
I100
sg34
I0
sba(i__main__
DayData
p372
(dp373
g3
(dp374
sg8
(dp375
sg11
I52
sg12
I100
sg13
I45
sg14
g60
sg16
I-300
sg17
I5
sg18
g19
((dp376
tp377
Rp378
sg23
g19
((dp379
tp380
Rp381
sg27
g28
(S'\x07\xdf\x0c\x19'
p382
tp383
Rp384
sg32
I500
sg33
I100
sg34
I0
sba(i__main__
DayData
p385
(dp386
g3
(dp387
sg8
(dp388
sg11
I52
sg12
I100
sg13
I45
sg14
g60
sg16
I-300
sg17
I6
sg18
g19
((dp389
tp390
Rp391
sg23
g19
((dp392
tp393
Rp394
sg27
g28
(S'\x07\xdf\x0c\x1a'
p395
tp396
Rp397
sg32
I600
sg33
I100
sg34
I0
sba(i__main__
DayData
p398
(dp399
g3
(dp400
I72112
(lp401
S'Bilde'
p402
aS'Bilde'
p403
aS'Faretegn'
p404
aS'Observert vaer'
p405
aS'Snoedekke'
p406
asI72161
(lp407
S'Bilde'
p408
aS'Bilde'
p409
aS'Bilde'
p410
aS'Observert skred'
p411
assg8
(dp412
I72112
S'Sogn'
p413
sI72161
S'Jotunheimen'
p414
ssg11
I52
sg12
I100
sg13
I45
sg14
g15
sg16
I-300
sg17
I7
sg18
g19
((dp415
g406
I1
sg411
I1
sg404
I1
sg402
I5
sg405
I1
stp416
Rp417
sg23
g19
((dp418
I72112
I5
sI72161
I4
stp419
Rp420
sg27
g28
(S'\x07\xdf\x0c\x1b'
p421
tp422
Rp423
sg32
I700
sg33
I100
sg34
I9
sba(i__main__
DayData
p424
(dp425
g3
(dp426
I72314
(lp427
S'Bilde'
p428
aS'Faretegn'
p429
assg8
(dp430
I72314
S'Sogn'
p431
ssg11
I53
sg12
I100
sg13
I45
sg14
g15
sg16
I-400
sg17
I1
sg18
g19
((dp432
g428
I1
sg429
I1
stp433
Rp434
sg23
g19
((dp435
I72314
I2
stp436
Rp437
sg27
g28
(S'\x07\xdf\x0c\x1c'
p438
tp439
Rp440
sg32
I100
sg33
I100
sg34
I2
sba(i__main__
DayData
p441
(dp442
g3
(dp443
sg8
(dp444
sg11
I53
sg12
I100
sg13
I45
sg14
g60
sg16
I-400
sg17
I2
sg18
g19
((dp445
tp446
Rp447
sg23
g19
((dp448
tp449
Rp450
sg27
g28
(S'\x07\xdf\x0c\x1d'
p451
tp452
Rp453
sg32
I200
sg33
I100
sg34
I0
sba(i__main__
DayData
p454
(dp455
g3
(dp456
I72541
(lp457
S'Bilde'
p458
aS'Snoedekke'
p459
asI72605
(lp460
S'Snoedekke'
p461
assg8
(dp462
I72541
S'Sogn'
p463
sI72605
S'Sogn'
p464
ssg11
I53
sg12
I100
sg13
I45
sg14
g15
sg16
I-400
sg17
I3
sg18
g19
((dp465
g459
I2
sg458
I1
stp466
Rp467
sg23
g19
((dp468
I72541
I2
sI72605
I1
stp469
Rp470
sg27
g28
(S'\x07\xdf\x0c\x1e'
p471
tp472
Rp473
sg32
I300
sg33
I100
sg34
I3
sba(i__main__
DayData
p474
(dp475
g3
(dp476
I72706
(lp477
S'Observert vaer'
p478
aS'Snoedekke'
p479
assg8
(dp480
I72706
S'Sogn'
p481
ssg11
I53
sg12
I100
sg13
I45
sg14
g15
sg16
I-400
sg17
I4
sg18
g19
((dp482
g479
I1
sg478
I1
stp483
Rp484
sg23
g19
((dp485
I72706
I2
stp486
Rp487
sg27
g28
(S'\x07\xdf\x0c\x1f'
p488
tp489
Rp490
sg32
I400
sg33
I100
sg34
I2
sba.