(lp0
(i__main__
DayData
p1
(dp2
S'obs_pr_regid'
p3
(dp4
I73058
(lp5
S'Fritekstfelt'
p6
aS'Faretegn'
p7
aS'Observert vaer'
p8
aS'Snoedekke'
p9
aS'Observert skredaktivitet(2014)'
p10
aS'Skredfarevurdering'
p11
asI73139
(lp12
S'Bilde'
p13
aS'Faretegn'
p14
aS'Snoedekke'
p15
aS'Observert skredaktivitet(2014)'
p16
aS'Skredfarevurdering'
p17
assS'loc_pr_regid'
p18
(dp19
I73058
S'Nordland'
p20
sI73139
S'Lofoten'
p21
ssS'week_no'
p22
I1
sS'box_size_x'
p23
I100
sS'observer_id'
p24
I111
sS'cell_colour'
p25
S'gainsboro'
p26
sS'y'
p27
I0
sS'week_day'
p28
I1
sS'observations'
p29
ccollections
Counter
p30
((dp31
g9
I2
sg10
I2
sg8
I1
sg7
I2
sg6
I1
sg13
I1
sg11
I2
stp32
Rp33
sS'reg_ids'
p34
g30
((dp35
I73058
I6
sI73139
I5
stp36
Rp37
sS'date'
p38
cdatetime
date
p39
(S'\x07\xe0\x01\x04'
p40
tp41
Rp42
sS'x'
p43
I100
sS'box_size_y'
p44
I100
sS'number_obs'
p45
I11
sba(i__main__
DayData
p46
(dp47
g3
(dp48
I73243
(lp49
S'Fritekstfelt'
p50
aS'Bilde'
p51
aS'Bilde'
p52
aS'Bilde'
p53
aS'Faretegn'
p54
aS'Observert vaer'
p55
aS'Snoedekke'
p56
aS'Kompresjonstest'
p57
aS'Observert skredaktivitet(2014)'
p58
aS'Skredfarevurdering'
p59
aS'Skredproblem'
p60
asI73244
(lp61
S'Bilde'
p62
aS'Bilde'
p63
aS'Bilde'
p64
aS'Bilde'
p65
aS'Snoedekke'
p66
assg18
(dp67
I73243
S'Lofoten'
p68
sI73244
S'Lofoten'
p69
ssg22
I1
sg23
I100
sg24
I111
sg25
g26
sg27
I0
sg28
I2
sg29
g30
((dp70
g56
I2
sg60
I1
sg58
I1
sg55
I1
sg54
I1
sg57
I1
sg59
I1
sg51
I6
sg50
I1
sS'Snoeprofil'
p71
I1
stp72
Rp73
sg34
g30
((dp74
I73243
I11
sI73244
I5
stp75
Rp76
sg38
g39
(S'\x07\xe0\x01\x05'
p77
tp78
Rp79
sg43
I200
sg44
I100
sg45
I16
sba(i__main__
DayData
p80
(dp81
g3
(dp82
sg18
(dp83
sg22
I1
sg23
I100
sg24
I111
sg25
S'white'
p84
sg27
I0
sg28
I3
sg29
g30
((dp85
tp86
Rp87
sg34
g30
((dp88
tp89
Rp90
sg38
g39
(S'\x07\xe0\x01\x06'
p91
tp92
Rp93
sg43
I300
sg44
I100
sg45
I0
sba(i__main__
DayData
p94
(dp95
g3
(dp96
sg18
(dp97
sg22
I1
sg23
I100
sg24
I111
sg25
g84
sg27
I0
sg28
I4
sg29
g30
((dp98
tp99
Rp100
sg34
g30
((dp101
tp102
Rp103
sg38
g39
(S'\x07\xe0\x01\x07'
p104
tp105
Rp106
sg43
I400
sg44
I100
sg45
I0
sba(i__main__
DayData
p107
(dp108
g3
(dp109
sg18
(dp110
sg22
I1
sg23
I100
sg24
I111
sg25
g84
sg27
I0
sg28
I5
sg29
g30
((dp111
tp112
Rp113
sg34
g30
((dp114
tp115
Rp116
sg38
g39
(S'\x07\xe0\x01\x08'
p117
tp118
Rp119
sg43
I500
sg44
I100
sg45
I0
sba(i__main__
DayData
p120
(dp121
g3
(dp122
sg18
(dp123
sg22
I1
sg23
I100
sg24
I111
sg25
g84
sg27
I0
sg28
I6
sg29
g30
((dp124
tp125
Rp126
sg34
g30
((dp127
tp128
Rp129
sg38
g39
(S'\x07\xe0\x01\t'
p130
tp131
Rp132
sg43
I600
sg44
I100
sg45
I0
sba(i__main__
DayData
p133
(dp134
g3
(dp135
sg18
(dp136
sg22
I1
sg23
I100
sg24
I111
sg25
g84
sg27
I0
sg28
I7
sg29
g30
((dp137
tp138
Rp139
sg34
g30
((dp140
tp141
Rp142
sg38
g39
(S'\x07\xe0\x01\n'
p143
tp144
Rp145
sg43
I700
sg44
I100
sg45
I0
sba(i__main__
DayData
p146
(dp147
g3
(dp148
sg18
(dp149
sg22
I2
sg23
I100
sg24
I111
sg25
g84
sg27
I-100
sg28
I1
sg29
g30
((dp150
tp151
Rp152
sg34
g30
((dp153
tp154
Rp155
sg38
g39
(S'\x07\xe0\x01\x0b'
p156
tp157
Rp158
sg43
I100
sg44
I100
sg45
I0
sba(i__main__
DayData
p159
(dp160
g3
(dp161
sg18
(dp162
sg22
I2
sg23
I100
sg24
I111
sg25
g84
sg27
I-100
sg28
I2
sg29
g30
((dp163
tp164
Rp165
sg34
g30
((dp166
tp167
Rp168
sg38
g39
(S'\x07\xe0\x01\x0c'
p169
tp170
Rp171
sg43
I200
sg44
I100
sg45
I0
sba(i__main__
DayData
p172
(dp173
g3
(dp174
sg18
(dp175
sg22
I2
sg23
I100
sg24
I111
sg25
g84
sg27
I-100
sg28
I3
sg29
g30
((dp176
tp177
Rp178
sg34
g30
((dp179
tp180
Rp181
sg38
g39
(S'\x07\xe0\x01\r'
p182
tp183
Rp184
sg43
I300
sg44
I100
sg45
I0
sba(i__main__
DayData
p185
(dp186
g3
(dp187
sg18
(dp188
sg22
I2
sg23
I100
sg24
I111
sg25
g84
sg27
I-100
sg28
I4
sg29
g30
((dp189
tp190
Rp191
sg34
g30
((dp192
tp193
Rp194
sg38
g39
(S'\x07\xe0\x01\x0e'
p195
tp196
Rp197
sg43
I400
sg44
I100
sg45
I0
sba(i__main__
DayData
p198
(dp199
g3
(dp200
sg18
(dp201
sg22
I2
sg23
I100
sg24
I111
sg25
g84
sg27
I-100
sg28
I5
sg29
g30
((dp202
tp203
Rp204
sg34
g30
((dp205
tp206
Rp207
sg38
g39
(S'\x07\xe0\x01\x0f'
p208
tp209
Rp210
sg43
I500
sg44
I100
sg45
I0
sba(i__main__
DayData
p211
(dp212
g3
(dp213
sg18
(dp214
sg22
I2
sg23
I100
sg24
I111
sg25
g84
sg27
I-100
sg28
I6
sg29
g30
((dp215
tp216
Rp217
sg34
g30
((dp218
tp219
Rp220
sg38
g39
(S'\x07\xe0\x01\x10'
p221
tp222
Rp223
sg43
I600
sg44
I100
sg45
I0
sba(i__main__
DayData
p224
(dp225
g3
(dp226
sg18
(dp227
sg22
I2
sg23
I100
sg24
I111
sg25
g84
sg27
I-100
sg28
I7
sg29
g30
((dp228
tp229
Rp230
sg34
g30
((dp231
tp232
Rp233
sg38
g39
(S'\x07\xe0\x01\x11'
p234
tp235
Rp236
sg43
I700
sg44
I100
sg45
I0
sba(i__main__
DayData
p237
(dp238
g3
(dp239
sg18
(dp240
sg22
I3
sg23
I100
sg24
I111
sg25
g84
sg27
I-200
sg28
I1
sg29
g30
((dp241
tp242
Rp243
sg34
g30
((dp244
tp245
Rp246
sg38
g39
(S'\x07\xe0\x01\x12'
p247
tp248
Rp249
sg43
I100
sg44
I100
sg45
I0
sba(i__main__
DayData
p250
(dp251
g3
(dp252
sg18
(dp253
sg22
I3
sg23
I100
sg24
I111
sg25
g84
sg27
I-200
sg28
I2
sg29
g30
((dp254
tp255
Rp256
sg34
g30
((dp257
tp258
Rp259
sg38
g39
(S'\x07\xe0\x01\x13'
p260
tp261
Rp262
sg43
I200
sg44
I100
sg45
I0
sba(i__main__
DayData
p263
(dp264
g3
(dp265
sg18
(dp266
sg22
I3
sg23
I100
sg24
I111
sg25
g84
sg27
I-200
sg28
I3
sg29
g30
((dp267
tp268
Rp269
sg34
g30
((dp270
tp271
Rp272
sg38
g39
(S'\x07\xe0\x01\x14'
p273
tp274
Rp275
sg43
I300
sg44
I100
sg45
I0
sba(i__main__
DayData
p276
(dp277
g3
(dp278
sg18
(dp279
sg22
I3
sg23
I100
sg24
I111
sg25
g84
sg27
I-200
sg28
I4
sg29
g30
((dp280
tp281
Rp282
sg34
g30
((dp283
tp284
Rp285
sg38
g39
(S'\x07\xe0\x01\x15'
p286
tp287
Rp288
sg43
I400
sg44
I100
sg45
I0
sba(i__main__
DayData
p289
(dp290
g3
(dp291
sg18
(dp292
sg22
I3
sg23
I100
sg24
I111
sg25
g84
sg27
I-200
sg28
I5
sg29
g30
((dp293
tp294
Rp295
sg34
g30
((dp296
tp297
Rp298
sg38
g39
(S'\x07\xe0\x01\x16'
p299
tp300
Rp301
sg43
I500
sg44
I100
sg45
I0
sba(i__main__
DayData
p302
(dp303
g3
(dp304
sg18
(dp305
sg22
I3
sg23
I100
sg24
I111
sg25
g84
sg27
I-200
sg28
I6
sg29
g30
((dp306
tp307
Rp308
sg34
g30
((dp309
tp310
Rp311
sg38
g39
(S'\x07\xe0\x01\x17'
p312
tp313
Rp314
sg43
I600
sg44
I100
sg45
I0
sba(i__main__
DayData
p315
(dp316
g3
(dp317
sg18
(dp318
sg22
I3
sg23
I100
sg24
I111
sg25
g84
sg27
I-200
sg28
I7
sg29
g30
((dp319
tp320
Rp321
sg34
g30
((dp322
tp323
Rp324
sg38
g39
(S'\x07\xe0\x01\x18'
p325
tp326
Rp327
sg43
I700
sg44
I100
sg45
I0
sba(i__main__
DayData
p328
(dp329
g3
(dp330
sg18
(dp331
sg22
I4
sg23
I100
sg24
I111
sg25
g84
sg27
I-300
sg28
I1
sg29
g30
((dp332
tp333
Rp334
sg34
g30
((dp335
tp336
Rp337
sg38
g39
(S'\x07\xe0\x01\x19'
p338
tp339
Rp340
sg43
I100
sg44
I100
sg45
I0
sba(i__main__
DayData
p341
(dp342
g3
(dp343
sg18
(dp344
sg22
I4
sg23
I100
sg24
I111
sg25
g84
sg27
I-300
sg28
I2
sg29
g30
((dp345
tp346
Rp347
sg34
g30
((dp348
tp349
Rp350
sg38
g39
(S'\x07\xe0\x01\x1a'
p351
tp352
Rp353
sg43
I200
sg44
I100
sg45
I0
sba(i__main__
DayData
p354
(dp355
g3
(dp356
sg18
(dp357
sg22
I4
sg23
I100
sg24
I111
sg25
g84
sg27
I-300
sg28
I3
sg29
g30
((dp358
tp359
Rp360
sg34
g30
((dp361
tp362
Rp363
sg38
g39
(S'\x07\xe0\x01\x1b'
p364
tp365
Rp366
sg43
I300
sg44
I100
sg45
I0
sba(i__main__
DayData
p367
(dp368
g3
(dp369
sg18
(dp370
sg22
I4
sg23
I100
sg24
I111
sg25
g84
sg27
I-300
sg28
I4
sg29
g30
((dp371
tp372
Rp373
sg34
g30
((dp374
tp375
Rp376
sg38
g39
(S'\x07\xe0\x01\x1c'
p377
tp378
Rp379
sg43
I400
sg44
I100
sg45
I0
sba(i__main__
DayData
p380
(dp381
g3
(dp382
sg18
(dp383
sg22
I4
sg23
I100
sg24
I111
sg25
g84
sg27
I-300
sg28
I5
sg29
g30
((dp384
tp385
Rp386
sg34
g30
((dp387
tp388
Rp389
sg38
g39
(S'\x07\xe0\x01\x1d'
p390
tp391
Rp392
sg43
I500
sg44
I100
sg45
I0
sba(i__main__
DayData
p393
(dp394
g3
(dp395
sg18
(dp396
sg22
I4
sg23
I100
sg24
I111
sg25
g84
sg27
I-300
sg28
I6
sg29
g30
((dp397
tp398
Rp399
sg34
g30
((dp400
tp401
Rp402
sg38
g39
(S'\x07\xe0\x01\x1e'
p403
tp404
Rp405
sg43
I600
sg44
I100
sg45
I0
sba(i__main__
DayData
p406
(dp407
g3
(dp408
sg18
(dp409
sg22
I4
sg23
I100
sg24
I111
sg25
g84
sg27
I-300
sg28
I7
sg29
g30
((dp410
tp411
Rp412
sg34
g30
((dp413
tp414
Rp415
sg38
g39
(S'\x07\xe0\x01\x1f'
p416
tp417
Rp418
sg43
I700
sg44
I100
sg45
I0
sba.