(lp0
(i__main__
DayData
p1
(dp2
S'obs_pr_regid'
p3
(dp4
sS'loc_pr_regid'
p5
(dp6
sS'week_no'
p7
I1
sS'box_size_x'
p8
I100
sS'observer_id'
p9
I45
sS'cell_colour'
p10
S'white'
p11
sS'y'
p12
I0
sS'week_day'
p13
I1
sS'observations'
p14
ccollections
Counter
p15
((dp16
tp17
Rp18
sS'reg_ids'
p19
g15
((dp20
tp21
Rp22
sS'date'
p23
cdatetime
date
p24
(S'\x07\xe0\x01\x04'
p25
tp26
Rp27
sS'x'
p28
I100
sS'box_size_y'
p29
I100
sS'number_obs'
p30
I0
sba(i__main__
DayData
p31
(dp32
g3
(dp33
sg5
(dp34
sg7
I1
sg8
I100
sg9
I45
sg10
g11
sg12
I0
sg13
I2
sg14
g15
((dp35
tp36
Rp37
sg19
g15
((dp38
tp39
Rp40
sg23
g24
(S'\x07\xe0\x01\x05'
p41
tp42
Rp43
sg28
I200
sg29
I100
sg30
I0
sba(i__main__
DayData
p44
(dp45
g3
(dp46
sg5
(dp47
sg7
I1
sg8
I100
sg9
I45
sg10
g11
sg12
I0
sg13
I3
sg14
g15
((dp48
tp49
Rp50
sg19
g15
((dp51
tp52
Rp53
sg23
g24
(S'\x07\xe0\x01\x06'
p54
tp55
Rp56
sg28
I300
sg29
I100
sg30
I0
sba(i__main__
DayData
p57
(dp58
g3
(dp59
sg5
(dp60
sg7
I1
sg8
I100
sg9
I45
sg10
g11
sg12
I0
sg13
I4
sg14
g15
((dp61
tp62
Rp63
sg19
g15
((dp64
tp65
Rp66
sg23
g24
(S'\x07\xe0\x01\x07'
p67
tp68
Rp69
sg28
I400
sg29
I100
sg30
I0
sba(i__main__
DayData
p70
(dp71
g3
(dp72
sg5
(dp73
sg7
I1
sg8
I100
sg9
I45
sg10
g11
sg12
I0
sg13
I5
sg14
g15
((dp74
tp75
Rp76
sg19
g15
((dp77
tp78
Rp79
sg23
g24
(S'\x07\xe0\x01\x08'
p80
tp81
Rp82
sg28
I500
sg29
I100
sg30
I0
sba(i__main__
DayData
p83
(dp84
g3
(dp85
sg5
(dp86
sg7
I1
sg8
I100
sg9
I45
sg10
g11
sg12
I0
sg13
I6
sg14
g15
((dp87
tp88
Rp89
sg19
g15
((dp90
tp91
Rp92
sg23
g24
(S'\x07\xe0\x01\t'
p93
tp94
Rp95
sg28
I600
sg29
I100
sg30
I0
sba(i__main__
DayData
p96
(dp97
g3
(dp98
sg5
(dp99
sg7
I1
sg8
I100
sg9
I45
sg10
g11
sg12
I0
sg13
I7
sg14
g15
((dp100
tp101
Rp102
sg19
g15
((dp103
tp104
Rp105
sg23
g24
(S'\x07\xe0\x01\n'
p106
tp107
Rp108
sg28
I700
sg29
I100
sg30
I0
sba(i__main__
DayData
p109
(dp110
g3
(dp111
sg5
(dp112
sg7
I2
sg8
I100
sg9
I45
sg10
g11
sg12
I-100
sg13
I1
sg14
g15
((dp113
tp114
Rp115
sg19
g15
((dp116
tp117
Rp118
sg23
g24
(S'\x07\xe0\x01\x0b'
p119
tp120
Rp121
sg28
I100
sg29
I100
sg30
I0
sba(i__main__
DayData
p122
(dp123
g3
(dp124
sg5
(dp125
sg7
I2
sg8
I100
sg9
I45
sg10
g11
sg12
I-100
sg13
I2
sg14
g15
((dp126
tp127
Rp128
sg19
g15
((dp129
tp130
Rp131
sg23
g24
(S'\x07\xe0\x01\x0c'
p132
tp133
Rp134
sg28
I200
sg29
I100
sg30
I0
sba(i__main__
DayData
p135
(dp136
g3
(dp137
sg5
(dp138
sg7
I2
sg8
I100
sg9
I45
sg10
g11
sg12
I-100
sg13
I3
sg14
g15
((dp139
tp140
Rp141
sg19
g15
((dp142
tp143
Rp144
sg23
g24
(S'\x07\xe0\x01\r'
p145
tp146
Rp147
sg28
I300
sg29
I100
sg30
I0
sba(i__main__
DayData
p148
(dp149
g3
(dp150
sg5
(dp151
sg7
I2
sg8
I100
sg9
I45
sg10
g11
sg12
I-100
sg13
I4
sg14
g15
((dp152
tp153
Rp154
sg19
g15
((dp155
tp156
Rp157
sg23
g24
(S'\x07\xe0\x01\x0e'
p158
tp159
Rp160
sg28
I400
sg29
I100
sg30
I0
sba(i__main__
DayData
p161
(dp162
g3
(dp163
sg5
(dp164
sg7
I2
sg8
I100
sg9
I45
sg10
g11
sg12
I-100
sg13
I5
sg14
g15
((dp165
tp166
Rp167
sg19
g15
((dp168
tp169
Rp170
sg23
g24
(S'\x07\xe0\x01\x0f'
p171
tp172
Rp173
sg28
I500
sg29
I100
sg30
I0
sba(i__main__
DayData
p174
(dp175
g3
(dp176
sg5
(dp177
sg7
I2
sg8
I100
sg9
I45
sg10
g11
sg12
I-100
sg13
I6
sg14
g15
((dp178
tp179
Rp180
sg19
g15
((dp181
tp182
Rp183
sg23
g24
(S'\x07\xe0\x01\x10'
p184
tp185
Rp186
sg28
I600
sg29
I100
sg30
I0
sba(i__main__
DayData
p187
(dp188
g3
(dp189
sg5
(dp190
sg7
I2
sg8
I100
sg9
I45
sg10
g11
sg12
I-100
sg13
I7
sg14
g15
((dp191
tp192
Rp193
sg19
g15
((dp194
tp195
Rp196
sg23
g24
(S'\x07\xe0\x01\x11'
p197
tp198
Rp199
sg28
I700
sg29
I100
sg30
I0
sba(i__main__
DayData
p200
(dp201
g3
(dp202
sg5
(dp203
sg7
I3
sg8
I100
sg9
I45
sg10
g11
sg12
I-200
sg13
I1
sg14
g15
((dp204
tp205
Rp206
sg19
g15
((dp207
tp208
Rp209
sg23
g24
(S'\x07\xe0\x01\x12'
p210
tp211
Rp212
sg28
I100
sg29
I100
sg30
I0
sba(i__main__
DayData
p213
(dp214
g3
(dp215
sg5
(dp216
sg7
I3
sg8
I100
sg9
I45
sg10
g11
sg12
I-200
sg13
I2
sg14
g15
((dp217
tp218
Rp219
sg19
g15
((dp220
tp221
Rp222
sg23
g24
(S'\x07\xe0\x01\x13'
p223
tp224
Rp225
sg28
I200
sg29
I100
sg30
I0
sba(i__main__
DayData
p226
(dp227
g3
(dp228
sg5
(dp229
sg7
I3
sg8
I100
sg9
I45
sg10
g11
sg12
I-200
sg13
I3
sg14
g15
((dp230
tp231
Rp232
sg19
g15
((dp233
tp234
Rp235
sg23
g24
(S'\x07\xe0\x01\x14'
p236
tp237
Rp238
sg28
I300
sg29
I100
sg30
I0
sba(i__main__
DayData
p239
(dp240
g3
(dp241
sg5
(dp242
sg7
I3
sg8
I100
sg9
I45
sg10
g11
sg12
I-200
sg13
I4
sg14
g15
((dp243
tp244
Rp245
sg19
g15
((dp246
tp247
Rp248
sg23
g24
(S'\x07\xe0\x01\x15'
p249
tp250
Rp251
sg28
I400
sg29
I100
sg30
I0
sba(i__main__
DayData
p252
(dp253
g3
(dp254
sg5
(dp255
sg7
I3
sg8
I100
sg9
I45
sg10
g11
sg12
I-200
sg13
I5
sg14
g15
((dp256
tp257
Rp258
sg19
g15
((dp259
tp260
Rp261
sg23
g24
(S'\x07\xe0\x01\x16'
p262
tp263
Rp264
sg28
I500
sg29
I100
sg30
I0
sba(i__main__
DayData
p265
(dp266
g3
(dp267
sg5
(dp268
sg7
I3
sg8
I100
sg9
I45
sg10
g11
sg12
I-200
sg13
I6
sg14
g15
((dp269
tp270
Rp271
sg19
g15
((dp272
tp273
Rp274
sg23
g24
(S'\x07\xe0\x01\x17'
p275
tp276
Rp277
sg28
I600
sg29
I100
sg30
I0
sba(i__main__
DayData
p278
(dp279
g3
(dp280
sg5
(dp281
sg7
I3
sg8
I100
sg9
I45
sg10
g11
sg12
I-200
sg13
I7
sg14
g15
((dp282
tp283
Rp284
sg19
g15
((dp285
tp286
Rp287
sg23
g24
(S'\x07\xe0\x01\x18'
p288
tp289
Rp290
sg28
I700
sg29
I100
sg30
I0
sba(i__main__
DayData
p291
(dp292
g3
(dp293
sg5
(dp294
sg7
I4
sg8
I100
sg9
I45
sg10
g11
sg12
I-300
sg13
I1
sg14
g15
((dp295
tp296
Rp297
sg19
g15
((dp298
tp299
Rp300
sg23
g24
(S'\x07\xe0\x01\x19'
p301
tp302
Rp303
sg28
I100
sg29
I100
sg30
I0
sba(i__main__
DayData
p304
(dp305
g3
(dp306
sg5
(dp307
sg7
I4
sg8
I100
sg9
I45
sg10
g11
sg12
I-300
sg13
I2
sg14
g15
((dp308
tp309
Rp310
sg19
g15
((dp311
tp312
Rp313
sg23
g24
(S'\x07\xe0\x01\x1a'
p314
tp315
Rp316
sg28
I200
sg29
I100
sg30
I0
sba(i__main__
DayData
p317
(dp318
g3
(dp319
sg5
(dp320
sg7
I4
sg8
I100
sg9
I45
sg10
g11
sg12
I-300
sg13
I3
sg14
g15
((dp321
tp322
Rp323
sg19
g15
((dp324
tp325
Rp326
sg23
g24
(S'\x07\xe0\x01\x1b'
p327
tp328
Rp329
sg28
I300
sg29
I100
sg30
I0
sba(i__main__
DayData
p330
(dp331
g3
(dp332
sg5
(dp333
sg7
I4
sg8
I100
sg9
I45
sg10
g11
sg12
I-300
sg13
I4
sg14
g15
((dp334
tp335
Rp336
sg19
g15
((dp337
tp338
Rp339
sg23
g24
(S'\x07\xe0\x01\x1c'
p340
tp341
Rp342
sg28
I400
sg29
I100
sg30
I0
sba(i__main__
DayData
p343
(dp344
g3
(dp345
sg5
(dp346
sg7
I4
sg8
I100
sg9
I45
sg10
g11
sg12
I-300
sg13
I5
sg14
g15
((dp347
tp348
Rp349
sg19
g15
((dp350
tp351
Rp352
sg23
g24
(S'\x07\xe0\x01\x1d'
p353
tp354
Rp355
sg28
I500
sg29
I100
sg30
I0
sba(i__main__
DayData
p356
(dp357
g3
(dp358
sg5
(dp359
sg7
I4
sg8
I100
sg9
I45
sg10
g11
sg12
I-300
sg13
I6
sg14
g15
((dp360
tp361
Rp362
sg19
g15
((dp363
tp364
Rp365
sg23
g24
(S'\x07\xe0\x01\x1e'
p366
tp367
Rp368
sg28
I600
sg29
I100
sg30
I0
sba(i__main__
DayData
p369
(dp370
g3
(dp371
sg5
(dp372
sg7
I4
sg8
I100
sg9
I45
sg10
g11
sg12
I-300
sg13
I7
sg14
g15
((dp373
tp374
Rp375
sg19
g15
((dp376
tp377
Rp378
sg23
g24
(S'\x07\xe0\x01\x1f'
p379
tp380
Rp381
sg28
I700
sg29
I100
sg30
I0
sba.