(lp0
(i__main__
DayData
p1
(dp2
S'week_no'
p3
I45
sS'box_size_x'
p4
I100
sS'observer_id'
p5
I282
sS'cell_colour'
p6
S'white'
p7
sS'y'
p8
I500
sS'week_day'
p9
I5
sS'observations'
p10
ccollections
Counter
p11
((dp12
tp13
Rp14
sS'reg_ids'
p15
g11
((dp16
tp17
Rp18
sS'date'
p19
cdatetime
date
p20
(S'\x07\xdf\x0b\x06'
p21
tp22
Rp23
sS'x'
p24
I500
sS'box_size_y'
p25
I100
sS'number_obs'
p26
I0
sba(i__main__
DayData
p27
(dp28
g3
I45
sg4
I100
sg5
I282
sg6
g7
sg8
I500
sg9
I6
sg10
g11
((dp29
tp30
Rp31
sg15
g11
((dp32
tp33
Rp34
sg19
g20
(S'\x07\xdf\x0b\x07'
p35
tp36
Rp37
sg24
I600
sg25
I100
sg26
I0
sba(i__main__
DayData
p38
(dp39
g3
I45
sg4
I100
sg5
I282
sg6
g7
sg8
I500
sg9
I7
sg10
g11
((dp40
tp41
Rp42
sg15
g11
((dp43
tp44
Rp45
sg19
g20
(S'\x07\xdf\x0b\x08'
p46
tp47
Rp48
sg24
I700
sg25
I100
sg26
I0
sba(i__main__
DayData
p49
(dp50
g3
I46
sg4
I100
sg5
I282
sg6
g7
sg8
I400
sg9
I1
sg10
g11
((dp51
tp52
Rp53
sg15
g11
((dp54
tp55
Rp56
sg19
g20
(S'\x07\xdf\x0b\t'
p57
tp58
Rp59
sg24
I100
sg25
I100
sg26
I0
sba(i__main__
DayData
p60
(dp61
g3
I46
sg4
I100
sg5
I282
sg6
g7
sg8
I400
sg9
I2
sg10
g11
((dp62
tp63
Rp64
sg15
g11
((dp65
tp66
Rp67
sg19
g20
(S'\x07\xdf\x0b\n'
p68
tp69
Rp70
sg24
I200
sg25
I100
sg26
I0
sba(i__main__
DayData
p71
(dp72
g3
I46
sg4
I100
sg5
I282
sg6
g7
sg8
I400
sg9
I3
sg10
g11
((dp73
tp74
Rp75
sg15
g11
((dp76
tp77
Rp78
sg19
g20
(S'\x07\xdf\x0b\x0b'
p79
tp80
Rp81
sg24
I300
sg25
I100
sg26
I0
sba(i__main__
DayData
p82
(dp83
g3
I46
sg4
I100
sg5
I282
sg6
g7
sg8
I400
sg9
I4
sg10
g11
((dp84
tp85
Rp86
sg15
g11
((dp87
tp88
Rp89
sg19
g20
(S'\x07\xdf\x0b\x0c'
p90
tp91
Rp92
sg24
I400
sg25
I100
sg26
I0
sba(i__main__
DayData
p93
(dp94
g3
I46
sg4
I100
sg5
I282
sg6
g7
sg8
I400
sg9
I5
sg10
g11
((dp95
tp96
Rp97
sg15
g11
((dp98
tp99
Rp100
sg19
g20
(S'\x07\xdf\x0b\r'
p101
tp102
Rp103
sg24
I500
sg25
I100
sg26
I0
sba(i__main__
DayData
p104
(dp105
g3
I46
sg4
I100
sg5
I282
sg6
g7
sg8
I400
sg9
I6
sg10
g11
((dp106
tp107
Rp108
sg15
g11
((dp109
tp110
Rp111
sg19
g20
(S'\x07\xdf\x0b\x0e'
p112
tp113
Rp114
sg24
I600
sg25
I100
sg26
I0
sba(i__main__
DayData
p115
(dp116
g3
I46
sg4
I100
sg5
I282
sg6
g7
sg8
I400
sg9
I7
sg10
g11
((dp117
tp118
Rp119
sg15
g11
((dp120
tp121
Rp122
sg19
g20
(S'\x07\xdf\x0b\x0f'
p123
tp124
Rp125
sg24
I700
sg25
I100
sg26
I0
sba(i__main__
DayData
p126
(dp127
g3
I47
sg4
I100
sg5
I282
sg6
g7
sg8
I300
sg9
I1
sg10
g11
((dp128
tp129
Rp130
sg15
g11
((dp131
tp132
Rp133
sg19
g20
(S'\x07\xdf\x0b\x10'
p134
tp135
Rp136
sg24
I100
sg25
I100
sg26
I0
sba(i__main__
DayData
p137
(dp138
g3
I47
sg4
I100
sg5
I282
sg6
g7
sg8
I300
sg9
I2
sg10
g11
((dp139
tp140
Rp141
sg15
g11
((dp142
tp143
Rp144
sg19
g20
(S'\x07\xdf\x0b\x11'
p145
tp146
Rp147
sg24
I200
sg25
I100
sg26
I0
sba(i__main__
DayData
p148
(dp149
g3
I47
sg4
I100
sg5
I282
sg6
g7
sg8
I300
sg9
I3
sg10
g11
((dp150
tp151
Rp152
sg15
g11
((dp153
tp154
Rp155
sg19
g20
(S'\x07\xdf\x0b\x12'
p156
tp157
Rp158
sg24
I300
sg25
I100
sg26
I0
sba(i__main__
DayData
p159
(dp160
g3
I47
sg4
I100
sg5
I282
sg6
g7
sg8
I300
sg9
I4
sg10
g11
((dp161
tp162
Rp163
sg15
g11
((dp164
tp165
Rp166
sg19
g20
(S'\x07\xdf\x0b\x13'
p167
tp168
Rp169
sg24
I400
sg25
I100
sg26
I0
sba(i__main__
DayData
p170
(dp171
g3
I47
sg4
I100
sg5
I282
sg6
S'gray'
p172
sg8
I300
sg9
I5
sg10
g11
((dp173
S'Faretegn'
p174
I1
sS'Observert vaer'
p175
I1
stp176
Rp177
sg15
g11
((dp178
I68158
I2
stp179
Rp180
sg19
g20
(S'\x07\xdf\x0b\x14'
p181
tp182
Rp183
sg24
I500
sg25
I100
sg26
I2
sba(i__main__
DayData
p184
(dp185
g3
I47
sg4
I100
sg5
I282
sg6
g172
sg8
I300
sg9
I6
sg10
g11
((dp186
S'Faretegn'
p187
I1
sS'Bilde'
p188
I1
sS'Observert vaer'
p189
I1
stp190
Rp191
sg15
g11
((dp192
I68162
I3
stp193
Rp194
sg19
g20
(S'\x07\xdf\x0b\x15'
p195
tp196
Rp197
sg24
I600
sg25
I100
sg26
I3
sba(i__main__
DayData
p198
(dp199
g3
I47
sg4
I100
sg5
I282
sg6
g7
sg8
I300
sg9
I7
sg10
g11
((dp200
tp201
Rp202
sg15
g11
((dp203
tp204
Rp205
sg19
g20
(S'\x07\xdf\x0b\x16'
p206
tp207
Rp208
sg24
I700
sg25
I100
sg26
I0
sba(i__main__
DayData
p209
(dp210
g3
I48
sg4
I100
sg5
I282
sg6
g7
sg8
I200
sg9
I1
sg10
g11
((dp211
tp212
Rp213
sg15
g11
((dp214
tp215
Rp216
sg19
g20
(S'\x07\xdf\x0b\x17'
p217
tp218
Rp219
sg24
I100
sg25
I100
sg26
I0
sba(i__main__
DayData
p220
(dp221
g3
I48
sg4
I100
sg5
I282
sg6
g172
sg8
I200
sg9
I2
sg10
g11
((dp222
S'Snoedekke'
p223
I1
stp224
Rp225
sg15
g11
((dp226
I68293
I1
stp227
Rp228
sg19
g20
(S'\x07\xdf\x0b\x18'
p229
tp230
Rp231
sg24
I200
sg25
I100
sg26
I1
sba(i__main__
DayData
p232
(dp233
g3
I48
sg4
I100
sg5
I282
sg6
g7
sg8
I200
sg9
I3
sg10
g11
((dp234
tp235
Rp236
sg15
g11
((dp237
tp238
Rp239
sg19
g20
(S'\x07\xdf\x0b\x19'
p240
tp241
Rp242
sg24
I300
sg25
I100
sg26
I0
sba(i__main__
DayData
p243
(dp244
g3
I48
sg4
I100
sg5
I282
sg6
g7
sg8
I200
sg9
I4
sg10
g11
((dp245
tp246
Rp247
sg15
g11
((dp248
tp249
Rp250
sg19
g20
(S'\x07\xdf\x0b\x1a'
p251
tp252
Rp253
sg24
I400
sg25
I100
sg26
I0
sba(i__main__
DayData
p254
(dp255
g3
I48
sg4
I100
sg5
I282
sg6
g7
sg8
I200
sg9
I5
sg10
g11
((dp256
tp257
Rp258
sg15
g11
((dp259
tp260
Rp261
sg19
g20
(S'\x07\xdf\x0b\x1b'
p262
tp263
Rp264
sg24
I500
sg25
I100
sg26
I0
sba(i__main__
DayData
p265
(dp266
g3
I48
sg4
I100
sg5
I282
sg6
g172
sg8
I200
sg9
I6
sg10
g11
((dp267
S'Snoedekke'
p268
I2
sS'Faretegn'
p269
I1
sS'Observert vaer'
p270
I2
sS'Observert skred'
p271
I1
sS'Skredfarevurdering (2014)'
p272
I1
sS'Skredproblem (2014)'
p273
I1
sS'Bilde'
p274
I5
sS'Snoeprofil'
p275
I2
stp276
Rp277
sg15
g11
((dp278
I68570
I3
sI68575
I2
sI68574
I2
sI68583
I8
stp279
Rp280
sg19
g20
(S'\x07\xdf\x0b\x1c'
p281
tp282
Rp283
sg24
I600
sg25
I100
sg26
I15
sba(i__main__
DayData
p284
(dp285
g3
I48
sg4
I100
sg5
I282
sg6
g172
sg8
I200
sg9
I7
sg10
g11
((dp286
S'Snoedekke'
p287
I1
sS'Bilde'
p288
I1
sS'Observert vaer'
p289
I1
stp290
Rp291
sg15
g11
((dp292
I68602
I3
stp293
Rp294
sg19
g20
(S'\x07\xdf\x0b\x1d'
p295
tp296
Rp297
sg24
I700
sg25
I100
sg26
I3
sba(i__main__
DayData
p298
(dp299
g3
I49
sg4
I100
sg5
I282
sg6
g172
sg8
I100
sg9
I1
sg10
g11
((dp300
S'Snoedekke'
p301
I3
sS'Faretegn'
p302
I1
sS'Observert vaer'
p303
I2
sS'Skredfarevurdering (2014)'
p304
I1
sS'Skredproblem (2014)'
p305
I1
sS'Observert skredaktivitet'
p306
I1
sS'Bilde'
p307
I6
sg275
I2
stp308
Rp309
sg15
g11
((dp310
I68632
I3
sI68697
I3
sI68658
I2
sI68708
I4
sI68728
I5
stp311
Rp312
sg19
g20
(S'\x07\xdf\x0b\x1e'
p313
tp314
Rp315
sg24
I100
sg25
I100
sg26
I17
sba.