(lp0
(i__main__
DayData
p1
(dp2
S'obs_pr_regid'
p3
(dp4
I68849
(lp5
S'Bilde'
p6
aS'Bilde'
p7
aS'Snoedekke'
p8
assS'loc_pr_regid'
p9
(dp10
I68849
S'Sogn'
p11
ssS'week_no'
p12
I49
sS'box_size_x'
p13
I100
sS'observer_id'
p14
I282
sS'cell_colour'
p15
S'gainsboro'
p16
sS'y'
p17
I0
sS'week_day'
p18
I2
sS'observations'
p19
ccollections
Counter
p20
((dp21
g8
I1
sg6
I2
stp22
Rp23
sS'reg_ids'
p24
g20
((dp25
I68849
I3
stp26
Rp27
sS'date'
p28
cdatetime
date
p29
(S'\x07\xdf\x0c\x01'
p30
tp31
Rp32
sS'x'
p33
I200
sS'box_size_y'
p34
I100
sS'number_obs'
p35
I3
sba(i__main__
DayData
p36
(dp37
g3
(dp38
I68954
(lp39
S'Bilde'
p40
aS'Snoedekke'
p41
asI69019
(lp42
S'Snoedekke'
p43
asI68996
(lp44
S'Bilde'
p45
aS'Bilde'
p46
aS'Faretegn'
p47
aS'Observert vaer'
p48
aS'Snoedekke'
p49
aS'Observert skredaktivitet(2014)'
p50
aS'Skredfarevurdering'
p51
aS'Skredproblem'
p52
assg9
(dp53
I68954
S'Sogn'
p54
sI69019
S'Sogn'
p55
sI68996
S'Sogn'
p56
ssg12
I49
sg13
I100
sg14
I282
sg15
g16
sg17
I0
sg18
I3
sg19
g20
((dp57
g41
I3
sg52
I1
sg50
I1
sg48
I1
sg47
I1
sg51
I1
sg40
I2
sS'Snoeprofil'
p58
I1
stp59
Rp60
sg24
g20
((dp61
I68954
I2
sI69019
I1
sI68996
I8
stp62
Rp63
sg28
g29
(S'\x07\xdf\x0c\x02'
p64
tp65
Rp66
sg33
I300
sg34
I100
sg35
I11
sba(i__main__
DayData
p67
(dp68
g3
(dp69
I69043
(lp70
S'Bilde'
p71
aS'Observert vaer'
p72
assg9
(dp73
I69043
S'Sogn'
p74
ssg12
I49
sg13
I100
sg14
I282
sg15
g16
sg17
I0
sg18
I4
sg19
g20
((dp75
g71
I1
sg72
I1
stp76
Rp77
sg24
g20
((dp78
I69043
I2
stp79
Rp80
sg28
g29
(S'\x07\xdf\x0c\x03'
p81
tp82
Rp83
sg33
I400
sg34
I100
sg35
I2
sba(i__main__
DayData
p84
(dp85
g3
(dp86
I69288
(lp87
S'Bilde'
p88
aS'Faretegn'
p89
aS'Snoedekke'
p90
aS'Skredfarevurdering'
p91
aS'Skredproblem'
p92
asI69226
(lp93
S'Bilde'
p94
aS'Bilde'
p95
aS'Faretegn'
p96
asI69189
(lp97
S'Bilde'
p98
aS'Observert vaer'
p99
aS'Snoedekke'
p100
asI69229
(lp101
S'Bilde'
p102
aS'Faretegn'
p103
asI69221
(lp104
S'Bilde'
p105
aS'Snoedekke'
p106
assg9
(dp107
I69288
S'Sogn'
p108
sI69226
S'Sogn'
p109
sI69189
S'Sogn'
p110
sI69229
S'Sogn'
p111
sI69221
S'Sogn'
p112
ssg12
I49
sg13
I100
sg14
I282
sg15
g16
sg17
I0
sg18
I5
sg19
g20
((dp113
g100
I3
sg92
I1
sg89
I3
sg99
I1
sg98
I6
sg91
I1
stp114
Rp115
sg24
g20
((dp116
I69288
I5
sI69226
I3
sI69189
I3
sI69221
I2
sI69229
I2
stp117
Rp118
sg28
g29
(S'\x07\xdf\x0c\x04'
p119
tp120
Rp121
sg33
I500
sg34
I100
sg35
I15
sba(i__main__
DayData
p122
(dp123
g3
(dp124
I69444
(lp125
S'Observert vaer'
p126
asI69375
(lp127
S'Bilde'
p128
assg9
(dp129
I69444
S'Sogn'
p130
sI69375
S'Sogn'
p131
ssg12
I49
sg13
I100
sg14
I282
sg15
g16
sg17
I0
sg18
I6
sg19
g20
((dp132
g128
I1
sg126
I1
stp133
Rp134
sg24
g20
((dp135
I69444
I1
sI69375
I1
stp136
Rp137
sg28
g29
(S'\x07\xdf\x0c\x05'
p138
tp139
Rp140
sg33
I600
sg34
I100
sg35
I2
sba(i__main__
DayData
p141
(dp142
g3
(dp143
I69479
(lp144
S'Bilde'
p145
aS'Observert vaer'
p146
aS'Snoedekke'
p147
assg9
(dp148
I69479
S'Sogn'
p149
ssg12
I49
sg13
I100
sg14
I282
sg15
g16
sg17
I0
sg18
I7
sg19
g20
((dp150
g147
I1
sg145
I1
sg146
I1
stp151
Rp152
sg24
g20
((dp153
I69479
I3
stp154
Rp155
sg28
g29
(S'\x07\xdf\x0c\x06'
p156
tp157
Rp158
sg33
I700
sg34
I100
sg35
I3
sba(i__main__
DayData
p159
(dp160
g3
(dp161
I69664
(lp162
S'Bilde'
p163
aS'Bilde'
p164
aS'Observert vaer'
p165
aS'Observert skredaktivitet(2014)'
p166
asI69665
(lp167
S'Bilde'
p168
aS'Observert skredaktivitet(2014)'
p169
asI69666
(lp170
S'Bilde'
p171
aS'Snoedekke'
p172
aS'Observert skredaktivitet(2014)'
p173
asI69671
(lp174
S'Bilde'
p175
aS'Bilde'
p176
aS'Faretegn'
p177
aS'Observert vaer'
p178
aS'Snoedekke'
p179
asI69680
(lp180
S'Bilde'
p181
asI69681
(lp182
S'Skredfarevurdering'
p183
aS'Skredproblem'
p184
aS'Skredproblem'
p185
asI69589
(lp186
S'Observert vaer'
p187
asI69595
(lp188
S'Bilde'
p189
aS'Bilde'
p190
aS'Observert vaer'
p191
aS'Snoedekke'
p192
asI69663
(lp193
S'Bilde'
p194
aS'Bilde'
p195
aS'Faretegn'
p196
assg9
(dp197
I69664
S'Sogn'
p198
sI69665
S'Sogn'
p199
sI69666
S'Sogn'
p200
sI69671
S'Sogn'
p201
sI69680
S'Sogn'
p202
sI69681
S'Sogn'
p203
sI69589
S'Sogn'
p204
sI69595
S'Sogn'
p205
sI69663
S'Sogn'
p206
ssg12
I50
sg13
I100
sg14
I282
sg15
g16
sg17
I-100
sg18
I1
sg19
g20
((dp207
g192
I3
sg184
I2
sg166
I3
sg196
I2
sg187
I4
sg183
I1
sg189
I10
sg58
I1
stp208
Rp209
sg24
g20
((dp210
I69664
I4
sI69665
I2
sI69666
I3
sI69671
I5
sI69680
I1
sI69681
I3
sI69589
I1
sI69595
I4
sI69663
I3
stp211
Rp212
sg28
g29
(S'\x07\xdf\x0c\x07'
p213
tp214
Rp215
sg33
I100
sg34
I100
sg35
I26
sba(i__main__
DayData
p216
(dp217
g3
(dp218
I69730
(lp219
S'Observert vaer'
p220
assg9
(dp221
I69730
S'Sogn'
p222
ssg12
I50
sg13
I100
sg14
I282
sg15
g16
sg17
I-100
sg18
I2
sg19
g20
((dp223
g220
I1
stp224
Rp225
sg24
g20
((dp226
I69730
I1
stp227
Rp228
sg28
g29
(S'\x07\xdf\x0c\x08'
p229
tp230
Rp231
sg33
I200
sg34
I100
sg35
I1
sba(i__main__
DayData
p232
(dp233
g3
(dp234
I69908
(lp235
S'Bilde'
p236
aS'Snoedekke'
p237
asI69946
(lp238
S'Bilde'
p239
aS'Bilde'
p240
aS'Faretegn'
p241
aS'Faretegn'
p242
aS'Observert vaer'
p243
aS'Snoedekke'
p244
aS'Observert skredaktivitet(2014)'
p245
aS'Skredfarevurdering'
p246
aS'Skredproblem'
p247
aS'Skredproblem'
p248
asI69875
(lp249
S'Bilde'
p250
aS'Snoedekke'
p251
asI69868
(lp252
S'Observert vaer'
p253
aS'Snoedekke'
p254
asI69883
(lp255
S'Bilde'
p256
aS'Snoedekke'
p257
assg9
(dp258
I69908
S'Sogn'
p259
sI69946
S'Sogn'
p260
sI69875
S'Sogn'
p261
sI69868
S'Sogn'
p262
sI69883
S'Sogn'
p263
ssg12
I50
sg13
I100
sg14
I282
sg15
g16
sg17
I-100
sg18
I3
sg19
g20
((dp264
g254
I5
sg247
I2
sg245
I1
sg241
I2
sg253
I2
sg250
I5
sg246
I1
stp265
Rp266
sg24
g20
((dp267
I69868
I2
sI69946
I10
sI69875
I2
sI69908
I2
sI69883
I2
stp268
Rp269
sg28
g29
(S'\x07\xdf\x0c\t'
p270
tp271
Rp272
sg33
I300
sg34
I100
sg35
I18
sba(i__main__
DayData
p273
(dp274
g3
(dp275
I70166
(lp276
S'Observert vaer'
p277
asI70071
(lp278
S'Bilde'
p279
aS'Observert vaer'
p280
aS'Snoedekke'
p281
assg9
(dp282
I70166
S'Sogn'
p283
sI70071
S'Sogn'
p284
ssg12
I50
sg13
I100
sg14
I282
sg15
g16
sg17
I-100
sg18
I4
sg19
g20
((dp285
g281
I1
sg279
I1
sg280
I2
stp286
Rp287
sg24
g20
((dp288
I70166
I1
sI70071
I3
stp289
Rp290
sg28
g29
(S'\x07\xdf\x0c\n'
p291
tp292
Rp293
sg33
I400
sg34
I100
sg35
I4
sba(i__main__
DayData
p294
(dp295
g3
(dp296
I70261
(lp297
S'Bilde'
p298
aS'Faretegn'
p299
aS'Faretegn'
p300
aS'Observert vaer'
p301
aS'Snoedekke'
p302
aS'Skredfarevurdering'
p303
aS'Skredproblem'
p304
aS'Skredproblem'
p305
asI70262
(lp306
S'Bilde'
p307
aS'Faretegn'
p308
aS'Faretegn'
p309
aS'Observert vaer'
p310
aS'Snoedekke'
p311
aS'Kompresjonstest'
p312
aS'Skredfarevurdering'
p313
aS'Skredproblem'
p314
aS'Skredproblem'
p315
asI70215
(lp316
S'Observert vaer'
p317
assg9
(dp318
I70261
S'Sogn'
p319
sI70262
S'Sogn'
p320
sI70215
S'Sogn'
p321
ssg12
I50
sg13
I100
sg14
I282
sg15
g16
sg17
I-100
sg18
I5
sg19
g20
((dp322
g302
I2
sg304
I4
sg299
I4
sg317
I3
sg312
I1
sg58
I2
sg303
I2
stp323
Rp324
sg24
g20
((dp325
I70261
I8
sI70262
I9
sI70215
I1
stp326
Rp327
sg28
g29
(S'\x07\xdf\x0c\x0b'
p328
tp329
Rp330
sg33
I500
sg34
I100
sg35
I18
sba(i__main__
DayData
p331
(dp332
g3
(dp333
I70324
(lp334
S'Bilde'
p335
aS'Observert vaer'
p336
aS'Snoedekke'
p337
assg9
(dp338
I70324
S'Sogn'
p339
ssg12
I50
sg13
I100
sg14
I282
sg15
g16
sg17
I-100
sg18
I6
sg19
g20
((dp340
g337
I1
sg335
I1
sg336
I1
stp341
Rp342
sg24
g20
((dp343
I70324
I3
stp344
Rp345
sg28
g29
(S'\x07\xdf\x0c\x0c'
p346
tp347
Rp348
sg33
I600
sg34
I100
sg35
I3
sba(i__main__
DayData
p349
(dp350
g3
(dp351
sg9
(dp352
sg12
I50
sg13
I100
sg14
I282
sg15
S'white'
p353
sg17
I-100
sg18
I7
sg19
g20
((dp354
tp355
Rp356
sg24
g20
((dp357
tp358
Rp359
sg28
g29
(S'\x07\xdf\x0c\r'
p360
tp361
Rp362
sg33
I700
sg34
I100
sg35
I0
sba(i__main__
DayData
p363
(dp364
g3
(dp365
I70569
(lp366
S'Bilde'
p367
aS'Observert vaer'
p368
aS'Snoedekke'
p369
asI70638
(lp370
S'Bilde'
p371
aS'Bilde'
p372
aS'Bilde'
p373
aS'Faretegn'
p374
aS'Observert vaer'
p375
aS'Skredfarevurdering'
p376
aS'Skredproblem'
p377
asI70591
(lp378
S'Bilde'
p379
aS'Observert skred'
p380
assg9
(dp381
I70569
S'Sogn'
p382
sI70638
S'Sogn'
p383
sI70591
S'Sogn'
p384
ssg12
I51
sg13
I100
sg14
I282
sg15
g16
sg17
I-200
sg18
I1
sg19
g20
((dp385
g369
I1
sg377
I1
sg374
I1
sg368
I2
sg380
I1
sg376
I1
sg367
I4
sg58
I1
stp386
Rp387
sg24
g20
((dp388
I70569
I3
sI70638
I7
sI70591
I2
stp389
Rp390
sg28
g29
(S'\x07\xdf\x0c\x0e'
p391
tp392
Rp393
sg33
I100
sg34
I100
sg35
I12
sba(i__main__
DayData
p394
(dp395
g3
(dp396
I70722
(lp397
S'Bilde'
p398
aS'Faretegn'
p399
asI70733
(lp400
S'Bilde'
p401
aS'Bilde'
p402
aS'Observert vaer'
p403
aS'Snoedekke'
p404
aS'Observert skredaktivitet(2014)'
p405
aS'Skredfarevurdering'
p406
aS'Skredproblem'
p407
assg9
(dp408
I70722
S'Sogn'
p409
sI70733
S'Sogn'
p410
ssg12
I51
sg13
I100
sg14
I282
sg15
g16
sg17
I-200
sg18
I2
sg19
g20
((dp411
g404
I1
sg407
I1
sg405
I1
sg403
I1
sg399
I1
sg398
I3
sg406
I1
stp412
Rp413
sg24
g20
((dp414
I70722
I2
sI70733
I7
stp415
Rp416
sg28
g29
(S'\x07\xdf\x0c\x0f'
p417
tp418
Rp419
sg33
I200
sg34
I100
sg35
I9
sba(i__main__
DayData
p420
(dp421
g3
(dp422
I70953
(lp423
S'Observert vaer'
p424
asI70930
(lp425
S'Bilde'
p426
aS'Bilde'
p427
aS'Bilde'
p428
aS'Bilde'
p429
aS'Faretegn'
p430
aS'Observert vaer'
p431
aS'Snoedekke'
p432
aS'Observert skredaktivitet(2014)'
p433
aS'Skredfarevurdering'
p434
aS'Skredproblem'
p435
assg9
(dp436
I70953
S'Sogn'
p437
sI70930
S'Sogn'
p438
ssg12
I51
sg13
I100
sg14
I282
sg15
g16
sg17
I-200
sg18
I3
sg19
g20
((dp439
g432
I1
sg435
I1
sg433
I1
sg431
I2
sg430
I1
sg434
I1
sg426
I3
sg58
I1
stp440
Rp441
sg24
g20
((dp442
I70953
I1
sI70930
I10
stp443
Rp444
sg28
g29
(S'\x07\xdf\x0c\x10'
p445
tp446
Rp447
sg33
I300
sg34
I100
sg35
I11
sba(i__main__
DayData
p448
(dp449
g3
(dp450
I71076
(lp451
S'Snoedekke'
p452
assg9
(dp453
I71076
S'Sogn'
p454
ssg12
I51
sg13
I100
sg14
I282
sg15
g16
sg17
I-200
sg18
I4
sg19
g20
((dp455
g452
I1
stp456
Rp457
sg24
g20
((dp458
I71076
I1
stp459
Rp460
sg28
g29
(S'\x07\xdf\x0c\x11'
p461
tp462
Rp463
sg33
I400
sg34
I100
sg35
I1
sba(i__main__
DayData
p464
(dp465
g3
(dp466
sg9
(dp467
sg12
I51
sg13
I100
sg14
I282
sg15
g353
sg17
I-200
sg18
I5
sg19
g20
((dp468
tp469
Rp470
sg24
g20
((dp471
tp472
Rp473
sg28
g29
(S'\x07\xdf\x0c\x12'
p474
tp475
Rp476
sg33
I500
sg34
I100
sg35
I0
sba(i__main__
DayData
p477
(dp478
g3
(dp479
sg9
(dp480
sg12
I51
sg13
I100
sg14
I282
sg15
g353
sg17
I-200
sg18
I6
sg19
g20
((dp481
tp482
Rp483
sg24
g20
((dp484
tp485
Rp486
sg28
g29
(S'\x07\xdf\x0c\x13'
p487
tp488
Rp489
sg33
I600
sg34
I100
sg35
I0
sba(i__main__
DayData
p490
(dp491
g3
(dp492
sg9
(dp493
sg12
I51
sg13
I100
sg14
I282
sg15
g353
sg17
I-200
sg18
I7
sg19
g20
((dp494
tp495
Rp496
sg24
g20
((dp497
tp498
Rp499
sg28
g29
(S'\x07\xdf\x0c\x14'
p500
tp501
Rp502
sg33
I700
sg34
I100
sg35
I0
sba(i__main__
DayData
p503
(dp504
g3
(dp505
I71526
(lp506
S'Bilde'
p507
aS'Bilde'
p508
aS'Faretegn'
p509
aS'Observert vaer'
p510
aS'Snoedekke'
p511
aS'Observert skredaktivitet(2014)'
p512
aS'Skredfarevurdering'
p513
aS'Skredproblem'
p514
assg9
(dp515
I71526
S'Sogn'
p516
ssg12
I52
sg13
I100
sg14
I282
sg15
g16
sg17
I-300
sg18
I1
sg19
g20
((dp517
g511
I1
sg514
I1
sg512
I1
sg510
I1
sg509
I1
sg507
I2
sg513
I1
stp518
Rp519
sg24
g20
((dp520
I71526
I8
stp521
Rp522
sg28
g29
(S'\x07\xdf\x0c\x15'
p523
tp524
Rp525
sg33
I100
sg34
I100
sg35
I8
sba(i__main__
DayData
p526
(dp527
g3
(dp528
I71689
(lp529
S'Observert vaer'
p530
assg9
(dp531
I71689
S'Sogn'
p532
ssg12
I52
sg13
I100
sg14
I282
sg15
g16
sg17
I-300
sg18
I2
sg19
g20
((dp533
g530
I1
stp534
Rp535
sg24
g20
((dp536
I71689
I1
stp537
Rp538
sg28
g29
(S'\x07\xdf\x0c\x16'
p539
tp540
Rp541
sg33
I200
sg34
I100
sg35
I1
sba(i__main__
DayData
p542
(dp543
g3
(dp544
I71770
(lp545
S'Bilde'
p546
aS'Faretegn'
p547
aS'Observert vaer'
p548
aS'Snoedekke'
p549
aS'Observert skredaktivitet(2014)'
p550
aS'Skredfarevurdering'
p551
aS'Skredproblem'
p552
asI71771
(lp553
S'Faretegn'
p554
aS'Observert vaer'
p555
aS'Snoedekke'
p556
aS'Observert skredaktivitet(2014)'
p557
aS'Skredfarevurdering'
p558
aS'Skredproblem'
p559
assg9
(dp560
I71770
S'Sogn'
p561
sI71771
S'Sogn'
p562
ssg12
I52
sg13
I100
sg14
I282
sg15
g16
sg17
I-300
sg18
I3
sg19
g20
((dp563
g549
I2
sg552
I2
sg550
I2
sg548
I2
sg547
I2
sg58
I1
sg551
I2
stp564
Rp565
sg24
g20
((dp566
I71770
I7
sI71771
I6
stp567
Rp568
sg28
g29
(S'\x07\xdf\x0c\x17'
p569
tp570
Rp571
sg33
I300
sg34
I100
sg35
I13
sba(i__main__
DayData
p572
(dp573
g3
(dp574
sg9
(dp575
sg12
I52
sg13
I100
sg14
I282
sg15
g353
sg17
I-300
sg18
I4
sg19
g20
((dp576
tp577
Rp578
sg24
g20
((dp579
tp580
Rp581
sg28
g29
(S'\x07\xdf\x0c\x18'
p582
tp583
Rp584
sg33
I400
sg34
I100
sg35
I0
sba(i__main__
DayData
p585
(dp586
g3
(dp587
I71937
(lp588
S'Bilde'
p589
aS'Faretegn'
p590
aS'Observert skredaktivitet(2014)'
p591
aS'Skredfarevurdering'
p592
aS'Skredproblem'
p593
asI71913
(lp594
S'Bilde'
p595
aS'Snoedekke'
p596
asI71915
(lp597
S'Bilde'
p598
aS'Snoedekke'
p599
asI71921
(lp600
S'Bilde'
p601
aS'Faretegn'
p602
aS'Snoedekke'
p603
asI71932
(lp604
S'Bilde'
p605
asI71935
(lp606
S'Bilde'
p607
aS'Faretegn'
p608
assg9
(dp609
I71937
S'Sogn'
p610
sI71913
S'Sogn'
p611
sI71915
S'Sogn'
p612
sI71921
S'Sogn'
p613
sI71932
S'Sogn'
p614
sI71935
S'Sogn'
p615
ssg12
I52
sg13
I100
sg14
I282
sg15
g16
sg17
I-300
sg18
I5
sg19
g20
((dp616
g596
I3
sg593
I1
sg591
I1
sg595
I5
sg602
I3
sg58
I1
sg592
I1
stp617
Rp618
sg24
g20
((dp619
I71937
I5
sI71921
I3
sI71913
I2
sI71915
I2
sI71932
I1
sI71935
I2
stp620
Rp621
sg28
g29
(S'\x07\xdf\x0c\x19'
p622
tp623
Rp624
sg33
I500
sg34
I100
sg35
I15
sba(i__main__
DayData
p625
(dp626
g3
(dp627
sg9
(dp628
sg12
I52
sg13
I100
sg14
I282
sg15
g353
sg17
I-300
sg18
I6
sg19
g20
((dp629
tp630
Rp631
sg24
g20
((dp632
tp633
Rp634
sg28
g29
(S'\x07\xdf\x0c\x1a'
p635
tp636
Rp637
sg33
I600
sg34
I100
sg35
I0
sba(i__main__
DayData
p638
(dp639
g3
(dp640
sg9
(dp641
sg12
I52
sg13
I100
sg14
I282
sg15
g353
sg17
I-300
sg18
I7
sg19
g20
((dp642
tp643
Rp644
sg24
g20
((dp645
tp646
Rp647
sg28
g29
(S'\x07\xdf\x0c\x1b'
p648
tp649
Rp650
sg33
I700
sg34
I100
sg35
I0
sba(i__main__
DayData
p651
(dp652
g3
(dp653
I72299
(lp654
S'Bilde'
p655
aS'Snoedekke'
p656
asI72323
(lp657
S'Bilde'
p658
aS'Bilde'
p659
aS'Bilde'
p660
aS'Observert vaer'
p661
aS'Snoedekke'
p662
aS'Observert skredaktivitet(2014)'
p663
aS'Skredfarevurdering'
p664
aS'Skredproblem'
p665
asI72310
(lp666
S'Bilde'
p667
aS'Faretegn'
p668
asI72307
(lp669
S'Bilde'
p670
aS'Snoedekke'
p671
assg9
(dp672
I72299
S'Sogn'
p673
sI72323
S'Sogn'
p674
sI72310
S'Sogn'
p675
sI72307
S'Sogn'
p676
ssg12
I53
sg13
I100
sg14
I282
sg15
g16
sg17
I-400
sg18
I1
sg19
g20
((dp677
g656
I3
sg665
I1
sg663
I1
sg661
I1
sg668
I1
sg655
I6
sg664
I1
stp678
Rp679
sg24
g20
((dp680
I72307
I2
sI72299
I2
sI72323
I8
sI72310
I2
stp681
Rp682
sg28
g29
(S'\x07\xdf\x0c\x1c'
p683
tp684
Rp685
sg33
I100
sg34
I100
sg35
I14
sba(i__main__
DayData
p686
(dp687
g3
(dp688
sg9
(dp689
sg12
I53
sg13
I100
sg14
I282
sg15
g353
sg17
I-400
sg18
I2
sg19
g20
((dp690
tp691
Rp692
sg24
g20
((dp693
tp694
Rp695
sg28
g29
(S'\x07\xdf\x0c\x1d'
p696
tp697
Rp698
sg33
I200
sg34
I100
sg35
I0
sba(i__main__
DayData
p699
(dp700
g3
(dp701
I72608
(lp702
S'Faretegn'
p703
asI72580
(lp704
S'Faretegn'
p705
asI72587
(lp706
S'Observert vaer'
p707
aS'Observert skredaktivitet(2014)'
p708
aS'Skredfarevurdering'
p709
aS'Skredproblem'
p710
asI72596
(lp711
S'Observert vaer'
p712
asI72567
(lp713
S'Observert vaer'
p714
aS'Snoedekke'
p715
asI72568
(lp716
S'Bilde'
p717
aS'Bilde'
p718
aS'Snoedekke'
p719
assg9
(dp720
I72608
S'Sogn'
p721
sI72580
S'Sogn'
p722
sI72587
S'Sogn'
p723
sI72596
S'Sogn'
p724
sI72567
S'Sogn'
p725
sI72568
S'Sogn'
p726
ssg12
I53
sg13
I100
sg14
I282
sg15
g16
sg17
I-400
sg18
I3
sg19
g20
((dp727
g715
I2
sg710
I1
sg708
I1
sg705
I2
sg714
I3
sg717
I2
sg709
I1
stp728
Rp729
sg24
g20
((dp730
I72608
I1
sI72580
I1
sI72567
I2
sI72568
I3
sI72596
I1
sI72587
I4
stp731
Rp732
sg28
g29
(S'\x07\xdf\x0c\x1e'
p733
tp734
Rp735
sg33
I300
sg34
I100
sg35
I12
sba(i__main__
DayData
p736
(dp737
g3
(dp738
I72673
(lp739
S'Bilde'
p740
aS'Snoedekke'
p741
assg9
(dp742
I72673
S'Sogn'
p743
ssg12
I53
sg13
I100
sg14
I282
sg15
g16
sg17
I-400
sg18
I4
sg19
g20
((dp744
g741
I1
sg740
I1
stp745
Rp746
sg24
g20
((dp747
I72673
I2
stp748
Rp749
sg28
g29
(S'\x07\xdf\x0c\x1f'
p750
tp751
Rp752
sg33
I400
sg34
I100
sg35
I2
sba.