(lp0
(i__main__
DayData
p1
(dp2
S'obs_pr_regid'
p3
(dp4
I68939
(lp5
S'Fritekstfelt'
p6
aS'Bilde'
p7
aS'Bilde'
p8
aS'Bilde'
p9
aS'Bilde'
p10
aS'Bilde'
p11
aS'Bilde'
p12
aS'Faretegn'
p13
aS'Observert vaer'
p14
aS'Snoedekke'
p15
aS'Skredfarevurdering'
p16
aS'Skredproblem'
p17
assS'loc_pr_regid'
p18
(dp19
I68939
S'Senja'
p20
ssS'week_no'
p21
I49
sS'box_size_x'
p22
I100
sS'observer_id'
p23
I759
sS'cell_colour'
p24
S'gainsboro'
p25
sS'y'
p26
I0
sS'week_day'
p27
I2
sS'observations'
p28
ccollections
Counter
p29
((dp30
g15
I1
sg17
I1
sg14
I1
sg13
I1
sg16
I1
sg7
I3
sg6
I1
sS'Snoeprofil'
p31
I3
stp32
Rp33
sS'reg_ids'
p34
g29
((dp35
I68939
I12
stp36
Rp37
sS'date'
p38
cdatetime
date
p39
(S'\x07\xdf\x0c\x01'
p40
tp41
Rp42
sS'x'
p43
I200
sS'box_size_y'
p44
I100
sS'number_obs'
p45
I12
sba(i__main__
DayData
p46
(dp47
g3
(dp48
sg18
(dp49
sg21
I49
sg22
I100
sg23
I759
sg24
S'white'
p50
sg26
I0
sg27
I3
sg28
g29
((dp51
tp52
Rp53
sg34
g29
((dp54
tp55
Rp56
sg38
g39
(S'\x07\xdf\x0c\x02'
p57
tp58
Rp59
sg43
I300
sg44
I100
sg45
I0
sba(i__main__
DayData
p60
(dp61
g3
(dp62
I69146
(lp63
S'Observert vaer'
p64
aS'Skredfarevurdering'
p65
aS'Skredproblem'
p66
assg18
(dp67
I69146
S'Senja'
p68
ssg21
I49
sg22
I100
sg23
I759
sg24
g25
sg26
I0
sg27
I4
sg28
g29
((dp69
g66
I1
sg64
I1
sg65
I1
stp70
Rp71
sg34
g29
((dp72
I69146
I3
stp73
Rp74
sg38
g39
(S'\x07\xdf\x0c\x03'
p75
tp76
Rp77
sg43
I400
sg44
I100
sg45
I3
sba(i__main__
DayData
p78
(dp79
g3
(dp80
sg18
(dp81
sg21
I49
sg22
I100
sg23
I759
sg24
g50
sg26
I0
sg27
I5
sg28
g29
((dp82
tp83
Rp84
sg34
g29
((dp85
tp86
Rp87
sg38
g39
(S'\x07\xdf\x0c\x04'
p88
tp89
Rp90
sg43
I500
sg44
I100
sg45
I0
sba(i__main__
DayData
p91
(dp92
g3
(dp93
sg18
(dp94
sg21
I49
sg22
I100
sg23
I759
sg24
g50
sg26
I0
sg27
I6
sg28
g29
((dp95
tp96
Rp97
sg34
g29
((dp98
tp99
Rp100
sg38
g39
(S'\x07\xdf\x0c\x05'
p101
tp102
Rp103
sg43
I600
sg44
I100
sg45
I0
sba(i__main__
DayData
p104
(dp105
g3
(dp106
sg18
(dp107
sg21
I49
sg22
I100
sg23
I759
sg24
g50
sg26
I0
sg27
I7
sg28
g29
((dp108
tp109
Rp110
sg34
g29
((dp111
tp112
Rp113
sg38
g39
(S'\x07\xdf\x0c\x06'
p114
tp115
Rp116
sg43
I700
sg44
I100
sg45
I0
sba(i__main__
DayData
p117
(dp118
g3
(dp119
sg18
(dp120
sg21
I50
sg22
I100
sg23
I759
sg24
g50
sg26
I-100
sg27
I1
sg28
g29
((dp121
tp122
Rp123
sg34
g29
((dp124
tp125
Rp126
sg38
g39
(S'\x07\xdf\x0c\x07'
p127
tp128
Rp129
sg43
I100
sg44
I100
sg45
I0
sba(i__main__
DayData
p130
(dp131
g3
(dp132
I69823
(lp133
S'Bilde'
p134
aS'Bilde'
p135
assg18
(dp136
I69823
S'Hallingdal'
p137
ssg21
I50
sg22
I100
sg23
I759
sg24
g25
sg26
I-100
sg27
I2
sg28
g29
((dp138
g31
I2
stp139
Rp140
sg34
g29
((dp141
I69823
I2
stp142
Rp143
sg38
g39
(S'\x07\xdf\x0c\x08'
p144
tp145
Rp146
sg43
I200
sg44
I100
sg45
I2
sba(i__main__
DayData
p147
(dp148
g3
(dp149
I69998
(lp150
S'Bilde'
p151
aS'Bilde'
p152
aS'Bilde'
p153
aS'Bilde'
p154
aS'Bilde'
p155
aS'Bilde'
p156
aS'Faretegn'
p157
aS'Observert vaer'
p158
aS'Kompresjonstest'
p159
aS'Skredfarevurdering'
p160
aS'Skredproblem'
p161
assg18
(dp162
I69998
S'Hallingdal'
p163
ssg21
I50
sg22
I100
sg23
I759
sg24
g25
sg26
I-100
sg27
I3
sg28
g29
((dp164
g161
I1
sg158
I1
sg157
I1
sg159
I1
sg31
I6
sg160
I1
stp165
Rp166
sg34
g29
((dp167
I69998
I11
stp168
Rp169
sg38
g39
(S'\x07\xdf\x0c\t'
p170
tp171
Rp172
sg43
I300
sg44
I100
sg45
I11
sba(i__main__
DayData
p173
(dp174
g3
(dp175
I70109
(lp176
S'Bilde'
p177
aS'Bilde'
p178
aS'Bilde'
p179
aS'Bilde'
p180
aS'Faretegn'
p181
aS'Observert vaer'
p182
aS'Snoedekke'
p183
aS'Kompresjonstest'
p184
aS'Observert skredaktivitet(2014)'
p185
aS'Skredfarevurdering'
p186
aS'Skredproblem'
p187
assg18
(dp188
I70109
S'Hallingdal'
p189
ssg21
I50
sg22
I100
sg23
I759
sg24
g25
sg26
I-100
sg27
I4
sg28
g29
((dp190
g183
I1
sg187
I1
sg185
I1
sg182
I1
sg181
I1
sg184
I1
sg186
I1
sg177
I3
sg31
I1
stp191
Rp192
sg34
g29
((dp193
I70109
I11
stp194
Rp195
sg38
g39
(S'\x07\xdf\x0c\n'
p196
tp197
Rp198
sg43
I400
sg44
I100
sg45
I11
sba(i__main__
DayData
p199
(dp200
g3
(dp201
sg18
(dp202
sg21
I50
sg22
I100
sg23
I759
sg24
g50
sg26
I-100
sg27
I5
sg28
g29
((dp203
tp204
Rp205
sg34
g29
((dp206
tp207
Rp208
sg38
g39
(S'\x07\xdf\x0c\x0b'
p209
tp210
Rp211
sg43
I500
sg44
I100
sg45
I0
sba(i__main__
DayData
p212
(dp213
g3
(dp214
I70380
(lp215
S'Snoedekke'
p216
aS'Skredfarevurdering'
p217
assg18
(dp218
I70380
S'Balsfjord'
p219
ssg21
I50
sg22
I100
sg23
I759
sg24
g25
sg26
I-100
sg27
I6
sg28
g29
((dp220
g216
I1
sg217
I1
stp221
Rp222
sg34
g29
((dp223
I70380
I2
stp224
Rp225
sg38
g39
(S'\x07\xdf\x0c\x0c'
p226
tp227
Rp228
sg43
I600
sg44
I100
sg45
I2
sba(i__main__
DayData
p229
(dp230
g3
(dp231
I70457
(lp232
S'Bilde'
p233
aS'Faretegn'
p234
aS'Skredfarevurdering'
p235
assg18
(dp236
I70457
S'Balsfjord'
p237
ssg21
I50
sg22
I100
sg23
I759
sg24
g25
sg26
I-100
sg27
I7
sg28
g29
((dp238
g233
I1
sg234
I1
sg235
I1
stp239
Rp240
sg34
g29
((dp241
I70457
I3
stp242
Rp243
sg38
g39
(S'\x07\xdf\x0c\r'
p244
tp245
Rp246
sg43
I700
sg44
I100
sg45
I3
sba(i__main__
DayData
p247
(dp248
g3
(dp249
I70482
(lp250
S'Hendelse'
p251
aS'Faretegn'
p252
aS'Observert skred'
p253
aS'Skredfarevurdering'
p254
assg18
(dp255
I70482
S'Balsfjord'
p256
ssg21
I51
sg22
I100
sg23
I759
sg24
g25
sg26
I-200
sg27
I1
sg28
g29
((dp257
g251
I1
sg252
I1
sg253
I1
sg254
I1
stp258
Rp259
sg34
g29
((dp260
I70482
I4
stp261
Rp262
sg38
g39
(S'\x07\xdf\x0c\x0e'
p263
tp264
Rp265
sg43
I100
sg44
I100
sg45
I4
sba(i__main__
DayData
p266
(dp267
g3
(dp268
sg18
(dp269
sg21
I51
sg22
I100
sg23
I759
sg24
g50
sg26
I-200
sg27
I2
sg28
g29
((dp270
tp271
Rp272
sg34
g29
((dp273
tp274
Rp275
sg38
g39
(S'\x07\xdf\x0c\x0f'
p276
tp277
Rp278
sg43
I200
sg44
I100
sg45
I0
sba(i__main__
DayData
p279
(dp280
g3
(dp281
sg18
(dp282
sg21
I51
sg22
I100
sg23
I759
sg24
g50
sg26
I-200
sg27
I3
sg28
g29
((dp283
tp284
Rp285
sg34
g29
((dp286
tp287
Rp288
sg38
g39
(S'\x07\xdf\x0c\x10'
p289
tp290
Rp291
sg43
I300
sg44
I100
sg45
I0
sba(i__main__
DayData
p292
(dp293
g3
(dp294
sg18
(dp295
sg21
I51
sg22
I100
sg23
I759
sg24
g50
sg26
I-200
sg27
I4
sg28
g29
((dp296
tp297
Rp298
sg34
g29
((dp299
tp300
Rp301
sg38
g39
(S'\x07\xdf\x0c\x11'
p302
tp303
Rp304
sg43
I400
sg44
I100
sg45
I0
sba(i__main__
DayData
p305
(dp306
g3
(dp307
sg18
(dp308
sg21
I51
sg22
I100
sg23
I759
sg24
g50
sg26
I-200
sg27
I5
sg28
g29
((dp309
tp310
Rp311
sg34
g29
((dp312
tp313
Rp314
sg38
g39
(S'\x07\xdf\x0c\x12'
p315
tp316
Rp317
sg43
I500
sg44
I100
sg45
I0
sba(i__main__
DayData
p318
(dp319
g3
(dp320
sg18
(dp321
sg21
I51
sg22
I100
sg23
I759
sg24
g50
sg26
I-200
sg27
I6
sg28
g29
((dp322
tp323
Rp324
sg34
g29
((dp325
tp326
Rp327
sg38
g39
(S'\x07\xdf\x0c\x13'
p328
tp329
Rp330
sg43
I600
sg44
I100
sg45
I0
sba(i__main__
DayData
p331
(dp332
g3
(dp333
sg18
(dp334
sg21
I51
sg22
I100
sg23
I759
sg24
g50
sg26
I-200
sg27
I7
sg28
g29
((dp335
tp336
Rp337
sg34
g29
((dp338
tp339
Rp340
sg38
g39
(S'\x07\xdf\x0c\x14'
p341
tp342
Rp343
sg43
I700
sg44
I100
sg45
I0
sba(i__main__
DayData
p344
(dp345
g3
(dp346
sg18
(dp347
sg21
I52
sg22
I100
sg23
I759
sg24
g50
sg26
I-300
sg27
I1
sg28
g29
((dp348
tp349
Rp350
sg34
g29
((dp351
tp352
Rp353
sg38
g39
(S'\x07\xdf\x0c\x15'
p354
tp355
Rp356
sg43
I100
sg44
I100
sg45
I0
sba(i__main__
DayData
p357
(dp358
g3
(dp359
sg18
(dp360
sg21
I52
sg22
I100
sg23
I759
sg24
g50
sg26
I-300
sg27
I2
sg28
g29
((dp361
tp362
Rp363
sg34
g29
((dp364
tp365
Rp366
sg38
g39
(S'\x07\xdf\x0c\x16'
p367
tp368
Rp369
sg43
I200
sg44
I100
sg45
I0
sba(i__main__
DayData
p370
(dp371
g3
(dp372
sg18
(dp373
sg21
I52
sg22
I100
sg23
I759
sg24
g50
sg26
I-300
sg27
I3
sg28
g29
((dp374
tp375
Rp376
sg34
g29
((dp377
tp378
Rp379
sg38
g39
(S'\x07\xdf\x0c\x17'
p380
tp381
Rp382
sg43
I300
sg44
I100
sg45
I0
sba(i__main__
DayData
p383
(dp384
g3
(dp385
sg18
(dp386
sg21
I52
sg22
I100
sg23
I759
sg24
g50
sg26
I-300
sg27
I4
sg28
g29
((dp387
tp388
Rp389
sg34
g29
((dp390
tp391
Rp392
sg38
g39
(S'\x07\xdf\x0c\x18'
p393
tp394
Rp395
sg43
I400
sg44
I100
sg45
I0
sba(i__main__
DayData
p396
(dp397
g3
(dp398
sg18
(dp399
sg21
I52
sg22
I100
sg23
I759
sg24
g50
sg26
I-300
sg27
I5
sg28
g29
((dp400
tp401
Rp402
sg34
g29
((dp403
tp404
Rp405
sg38
g39
(S'\x07\xdf\x0c\x19'
p406
tp407
Rp408
sg43
I500
sg44
I100
sg45
I0
sba(i__main__
DayData
p409
(dp410
g3
(dp411
sg18
(dp412
sg21
I52
sg22
I100
sg23
I759
sg24
g50
sg26
I-300
sg27
I6
sg28
g29
((dp413
tp414
Rp415
sg34
g29
((dp416
tp417
Rp418
sg38
g39
(S'\x07\xdf\x0c\x1a'
p419
tp420
Rp421
sg43
I600
sg44
I100
sg45
I0
sba(i__main__
DayData
p422
(dp423
g3
(dp424
sg18
(dp425
sg21
I52
sg22
I100
sg23
I759
sg24
g50
sg26
I-300
sg27
I7
sg28
g29
((dp426
tp427
Rp428
sg34
g29
((dp429
tp430
Rp431
sg38
g39
(S'\x07\xdf\x0c\x1b'
p432
tp433
Rp434
sg43
I700
sg44
I100
sg45
I0
sba(i__main__
DayData
p435
(dp436
g3
(dp437
sg18
(dp438
sg21
I53
sg22
I100
sg23
I759
sg24
g50
sg26
I-400
sg27
I1
sg28
g29
((dp439
tp440
Rp441
sg34
g29
((dp442
tp443
Rp444
sg38
g39
(S'\x07\xdf\x0c\x1c'
p445
tp446
Rp447
sg43
I100
sg44
I100
sg45
I0
sba(i__main__
DayData
p448
(dp449
g3
(dp450
sg18
(dp451
sg21
I53
sg22
I100
sg23
I759
sg24
g50
sg26
I-400
sg27
I2
sg28
g29
((dp452
tp453
Rp454
sg34
g29
((dp455
tp456
Rp457
sg38
g39
(S'\x07\xdf\x0c\x1d'
p458
tp459
Rp460
sg43
I200
sg44
I100
sg45
I0
sba(i__main__
DayData
p461
(dp462
g3
(dp463
sg18
(dp464
sg21
I53
sg22
I100
sg23
I759
sg24
g50
sg26
I-400
sg27
I3
sg28
g29
((dp465
tp466
Rp467
sg34
g29
((dp468
tp469
Rp470
sg38
g39
(S'\x07\xdf\x0c\x1e'
p471
tp472
Rp473
sg43
I300
sg44
I100
sg45
I0
sba(i__main__
DayData
p474
(dp475
g3
(dp476
sg18
(dp477
sg21
I53
sg22
I100
sg23
I759
sg24
g50
sg26
I-400
sg27
I4
sg28
g29
((dp478
tp479
Rp480
sg34
g29
((dp481
tp482
Rp483
sg38
g39
(S'\x07\xdf\x0c\x1f'
p484
tp485
Rp486
sg43
I400
sg44
I100
sg45
I0
sba.