(lp0
(i__main__
DayData
p1
(dp2
S'week_no'
p3
I49
sS'box_size_x'
p4
I100
sS'observer_id'
p5
I111
sS'cell_colour'
p6
S'white'
p7
sS'y'
p8
I500
sS'week_day'
p9
I2
sS'observations'
p10
ccollections
Counter
p11
((dp12
tp13
Rp14
sS'reg_ids'
p15
g11
((dp16
tp17
Rp18
sS'date'
p19
cdatetime
date
p20
(S'\x07\xdf\x0c\x01'
p21
tp22
Rp23
sS'x'
p24
I200
sS'box_size_y'
p25
I100
sS'number_obs'
p26
I0
sba(i__main__
DayData
p27
(dp28
g3
I49
sg4
I100
sg5
I111
sg6
S'gray'
p29
sg8
I500
sg9
I3
sg10
g11
((dp30
S'Snoedekke'
p31
I2
sS'Observert vaer'
p32
I1
sS'Faretegn'
p33
I1
sS'Kompresjonstest'
p34
I1
sS'Skredfarevurdering (2014)'
p35
I1
sS'Skredproblem (2014)'
p36
I1
sS'Observert skredaktivitet'
p37
I1
sS'Bilde'
p38
I1
sS'Fritekstfelt'
p39
I1
sS'Snoeprofil'
p40
I2
stp41
Rp42
sg15
g11
((dp43
I68986
I2
sI68979
I1
sI69007
I9
stp44
Rp45
sg19
g20
(S'\x07\xdf\x0c\x02'
p46
tp47
Rp48
sg24
I300
sg25
I100
sg26
I12
sba(i__main__
DayData
p49
(dp50
g3
I49
sg4
I100
sg5
I111
sg6
g29
sg8
I500
sg9
I4
sg10
g11
((dp51
S'Snoedekke'
p52
I1
sS'Observert vaer'
p53
I1
stp54
Rp55
sg15
g11
((dp56
I69089
I2
stp57
Rp58
sg19
g20
(S'\x07\xdf\x0c\x03'
p59
tp60
Rp61
sg24
I400
sg25
I100
sg26
I2
sba(i__main__
DayData
p62
(dp63
g3
I49
sg4
I100
sg5
I111
sg6
g7
sg8
I500
sg9
I5
sg10
g11
((dp64
tp65
Rp66
sg15
g11
((dp67
tp68
Rp69
sg19
g20
(S'\x07\xdf\x0c\x04'
p70
tp71
Rp72
sg24
I500
sg25
I100
sg26
I0
sba(i__main__
DayData
p73
(dp74
g3
I49
sg4
I100
sg5
I111
sg6
g29
sg8
I500
sg9
I6
sg10
g11
((dp75
S'Faretegn'
p76
I1
sS'Observert vaer'
p77
I1
stp78
Rp79
sg15
g11
((dp80
I69418
I2
stp81
Rp82
sg19
g20
(S'\x07\xdf\x0c\x05'
p83
tp84
Rp85
sg24
I600
sg25
I100
sg26
I2
sba(i__main__
DayData
p86
(dp87
g3
I49
sg4
I100
sg5
I111
sg6
g7
sg8
I500
sg9
I7
sg10
g11
((dp88
tp89
Rp90
sg15
g11
((dp91
tp92
Rp93
sg19
g20
(S'\x07\xdf\x0c\x06'
p94
tp95
Rp96
sg24
I700
sg25
I100
sg26
I0
sba(i__main__
DayData
p97
(dp98
g3
I50
sg4
I100
sg5
I111
sg6
g7
sg8
I400
sg9
I1
sg10
g11
((dp99
tp100
Rp101
sg15
g11
((dp102
tp103
Rp104
sg19
g20
(S'\x07\xdf\x0c\x07'
p105
tp106
Rp107
sg24
I100
sg25
I100
sg26
I0
sba(i__main__
DayData
p108
(dp109
g3
I50
sg4
I100
sg5
I111
sg6
g29
sg8
I400
sg9
I2
sg10
g11
((dp110
S'Snoedekke'
p111
I1
sS'Observert vaer'
p112
I1
sS'Faretegn'
p113
I1
sS'Kompresjonstest'
p114
I1
sS'Skredfarevurdering (2014)'
p115
I1
sS'Skredproblem (2014)'
p116
I1
sS'Observert skredaktivitet'
p117
I1
sg40
I1
stp118
Rp119
sg15
g11
((dp120
I69882
I8
stp121
Rp122
sg19
g20
(S'\x07\xdf\x0c\x08'
p123
tp124
Rp125
sg24
I200
sg25
I100
sg26
I8
sba(i__main__
DayData
p126
(dp127
g3
I50
sg4
I100
sg5
I111
sg6
g7
sg8
I400
sg9
I3
sg10
g11
((dp128
tp129
Rp130
sg15
g11
((dp131
tp132
Rp133
sg19
g20
(S'\x07\xdf\x0c\t'
p134
tp135
Rp136
sg24
I300
sg25
I100
sg26
I0
sba(i__main__
DayData
p137
(dp138
g3
I50
sg4
I100
sg5
I111
sg6
g29
sg8
I400
sg9
I4
sg10
g11
((dp139
S'Snoedekke'
p140
I1
sS'Observert vaer'
p141
I1
stp142
Rp143
sg15
g11
((dp144
I70179
I2
stp145
Rp146
sg19
g20
(S'\x07\xdf\x0c\n'
p147
tp148
Rp149
sg24
I400
sg25
I100
sg26
I2
sba(i__main__
DayData
p150
(dp151
g3
I50
sg4
I100
sg5
I111
sg6
g7
sg8
I400
sg9
I5
sg10
g11
((dp152
tp153
Rp154
sg15
g11
((dp155
tp156
Rp157
sg19
g20
(S'\x07\xdf\x0c\x0b'
p158
tp159
Rp160
sg24
I500
sg25
I100
sg26
I0
sba(i__main__
DayData
p161
(dp162
g3
I50
sg4
I100
sg5
I111
sg6
g7
sg8
I400
sg9
I6
sg10
g11
((dp163
tp164
Rp165
sg15
g11
((dp166
tp167
Rp168
sg19
g20
(S'\x07\xdf\x0c\x0c'
p169
tp170
Rp171
sg24
I600
sg25
I100
sg26
I0
sba(i__main__
DayData
p172
(dp173
g3
I50
sg4
I100
sg5
I111
sg6
g7
sg8
I400
sg9
I7
sg10
g11
((dp174
tp175
Rp176
sg15
g11
((dp177
tp178
Rp179
sg19
g20
(S'\x07\xdf\x0c\r'
p180
tp181
Rp182
sg24
I700
sg25
I100
sg26
I0
sba(i__main__
DayData
p183
(dp184
g3
I51
sg4
I100
sg5
I111
sg6
g7
sg8
I300
sg9
I1
sg10
g11
((dp185
tp186
Rp187
sg15
g11
((dp188
tp189
Rp190
sg19
g20
(S'\x07\xdf\x0c\x0e'
p191
tp192
Rp193
sg24
I100
sg25
I100
sg26
I0
sba(i__main__
DayData
p194
(dp195
g3
I51
sg4
I100
sg5
I111
sg6
g7
sg8
I300
sg9
I2
sg10
g11
((dp196
tp197
Rp198
sg15
g11
((dp199
tp200
Rp201
sg19
g20
(S'\x07\xdf\x0c\x0f'
p202
tp203
Rp204
sg24
I200
sg25
I100
sg26
I0
sba(i__main__
DayData
p205
(dp206
g3
I51
sg4
I100
sg5
I111
sg6
g7
sg8
I300
sg9
I3
sg10
g11
((dp207
tp208
Rp209
sg15
g11
((dp210
tp211
Rp212
sg19
g20
(S'\x07\xdf\x0c\x10'
p213
tp214
Rp215
sg24
I300
sg25
I100
sg26
I0
sba(i__main__
DayData
p216
(dp217
g3
I51
sg4
I100
sg5
I111
sg6
g7
sg8
I300
sg9
I4
sg10
g11
((dp218
tp219
Rp220
sg15
g11
((dp221
tp222
Rp223
sg19
g20
(S'\x07\xdf\x0c\x11'
p224
tp225
Rp226
sg24
I400
sg25
I100
sg26
I0
sba(i__main__
DayData
p227
(dp228
g3
I51
sg4
I100
sg5
I111
sg6
g7
sg8
I300
sg9
I5
sg10
g11
((dp229
tp230
Rp231
sg15
g11
((dp232
tp233
Rp234
sg19
g20
(S'\x07\xdf\x0c\x12'
p235
tp236
Rp237
sg24
I500
sg25
I100
sg26
I0
sba(i__main__
DayData
p238
(dp239
g3
I51
sg4
I100
sg5
I111
sg6
g7
sg8
I300
sg9
I6
sg10
g11
((dp240
tp241
Rp242
sg15
g11
((dp243
tp244
Rp245
sg19
g20
(S'\x07\xdf\x0c\x13'
p246
tp247
Rp248
sg24
I600
sg25
I100
sg26
I0
sba(i__main__
DayData
p249
(dp250
g3
I51
sg4
I100
sg5
I111
sg6
g7
sg8
I300
sg9
I7
sg10
g11
((dp251
tp252
Rp253
sg15
g11
((dp254
tp255
Rp256
sg19
g20
(S'\x07\xdf\x0c\x14'
p257
tp258
Rp259
sg24
I700
sg25
I100
sg26
I0
sba(i__main__
DayData
p260
(dp261
g3
I52
sg4
I100
sg5
I111
sg6
g7
sg8
I200
sg9
I1
sg10
g11
((dp262
tp263
Rp264
sg15
g11
((dp265
tp266
Rp267
sg19
g20
(S'\x07\xdf\x0c\x15'
p268
tp269
Rp270
sg24
I100
sg25
I100
sg26
I0
sba(i__main__
DayData
p271
(dp272
g3
I52
sg4
I100
sg5
I111
sg6
g7
sg8
I200
sg9
I2
sg10
g11
((dp273
tp274
Rp275
sg15
g11
((dp276
tp277
Rp278
sg19
g20
(S'\x07\xdf\x0c\x16'
p279
tp280
Rp281
sg24
I200
sg25
I100
sg26
I0
sba(i__main__
DayData
p282
(dp283
g3
I52
sg4
I100
sg5
I111
sg6
g7
sg8
I200
sg9
I3
sg10
g11
((dp284
tp285
Rp286
sg15
g11
((dp287
tp288
Rp289
sg19
g20
(S'\x07\xdf\x0c\x17'
p290
tp291
Rp292
sg24
I300
sg25
I100
sg26
I0
sba(i__main__
DayData
p293
(dp294
g3
I52
sg4
I100
sg5
I111
sg6
g7
sg8
I200
sg9
I4
sg10
g11
((dp295
tp296
Rp297
sg15
g11
((dp298
tp299
Rp300
sg19
g20
(S'\x07\xdf\x0c\x18'
p301
tp302
Rp303
sg24
I400
sg25
I100
sg26
I0
sba(i__main__
DayData
p304
(dp305
g3
I52
sg4
I100
sg5
I111
sg6
g7
sg8
I200
sg9
I5
sg10
g11
((dp306
tp307
Rp308
sg15
g11
((dp309
tp310
Rp311
sg19
g20
(S'\x07\xdf\x0c\x19'
p312
tp313
Rp314
sg24
I500
sg25
I100
sg26
I0
sba(i__main__
DayData
p315
(dp316
g3
I52
sg4
I100
sg5
I111
sg6
g7
sg8
I200
sg9
I6
sg10
g11
((dp317
tp318
Rp319
sg15
g11
((dp320
tp321
Rp322
sg19
g20
(S'\x07\xdf\x0c\x1a'
p323
tp324
Rp325
sg24
I600
sg25
I100
sg26
I0
sba(i__main__
DayData
p326
(dp327
g3
I52
sg4
I100
sg5
I111
sg6
g7
sg8
I200
sg9
I7
sg10
g11
((dp328
tp329
Rp330
sg15
g11
((dp331
tp332
Rp333
sg19
g20
(S'\x07\xdf\x0c\x1b'
p334
tp335
Rp336
sg24
I700
sg25
I100
sg26
I0
sba(i__main__
DayData
p337
(dp338
g3
I53
sg4
I100
sg5
I111
sg6
g7
sg8
I100
sg9
I1
sg10
g11
((dp339
tp340
Rp341
sg15
g11
((dp342
tp343
Rp344
sg19
g20
(S'\x07\xdf\x0c\x1c'
p345
tp346
Rp347
sg24
I100
sg25
I100
sg26
I0
sba(i__main__
DayData
p348
(dp349
g3
I53
sg4
I100
sg5
I111
sg6
g7
sg8
I100
sg9
I2
sg10
g11
((dp350
tp351
Rp352
sg15
g11
((dp353
tp354
Rp355
sg19
g20
(S'\x07\xdf\x0c\x1d'
p356
tp357
Rp358
sg24
I200
sg25
I100
sg26
I0
sba(i__main__
DayData
p359
(dp360
g3
I53
sg4
I100
sg5
I111
sg6
g7
sg8
I100
sg9
I3
sg10
g11
((dp361
tp362
Rp363
sg15
g11
((dp364
tp365
Rp366
sg19
g20
(S'\x07\xdf\x0c\x1e'
p367
tp368
Rp369
sg24
I300
sg25
I100
sg26
I0
sba(i__main__
DayData
p370
(dp371
g3
I53
sg4
I100
sg5
I111
sg6
g7
sg8
I100
sg9
I4
sg10
g11
((dp372
tp373
Rp374
sg15
g11
((dp375
tp376
Rp377
sg19
g20
(S'\x07\xdf\x0c\x1f'
p378
tp379
Rp380
sg24
I400
sg25
I100
sg26
I0
sba.