(lp0
(i__main__
DayData
p1
(dp2
S'week_no'
p3
I45
sS'box_size_x'
p4
I100
sS'observer_id'
p5
I111
sS'cell_colour'
p6
S'white'
p7
sS'y'
p8
I500
sS'week_day'
p9
I5
sS'observations'
p10
ccollections
Counter
p11
((dp12
tp13
Rp14
sS'reg_ids'
p15
g11
((dp16
tp17
Rp18
sS'date'
p19
cdatetime
date
p20
(S'\x07\xdf\x0b\x06'
p21
tp22
Rp23
sS'x'
p24
I500
sS'box_size_y'
p25
I100
sS'number_obs'
p26
I0
sba(i__main__
DayData
p27
(dp28
g3
I45
sg4
I100
sg5
I111
sg6
g7
sg8
I500
sg9
I6
sg10
g11
((dp29
tp30
Rp31
sg15
g11
((dp32
tp33
Rp34
sg19
g20
(S'\x07\xdf\x0b\x07'
p35
tp36
Rp37
sg24
I600
sg25
I100
sg26
I0
sba(i__main__
DayData
p38
(dp39
g3
I45
sg4
I100
sg5
I111
sg6
g7
sg8
I500
sg9
I7
sg10
g11
((dp40
tp41
Rp42
sg15
g11
((dp43
tp44
Rp45
sg19
g20
(S'\x07\xdf\x0b\x08'
p46
tp47
Rp48
sg24
I700
sg25
I100
sg26
I0
sba(i__main__
DayData
p49
(dp50
g3
I46
sg4
I100
sg5
I111
sg6
g7
sg8
I400
sg9
I1
sg10
g11
((dp51
tp52
Rp53
sg15
g11
((dp54
tp55
Rp56
sg19
g20
(S'\x07\xdf\x0b\t'
p57
tp58
Rp59
sg24
I100
sg25
I100
sg26
I0
sba(i__main__
DayData
p60
(dp61
g3
I46
sg4
I100
sg5
I111
sg6
g7
sg8
I400
sg9
I2
sg10
g11
((dp62
tp63
Rp64
sg15
g11
((dp65
tp66
Rp67
sg19
g20
(S'\x07\xdf\x0b\n'
p68
tp69
Rp70
sg24
I200
sg25
I100
sg26
I0
sba(i__main__
DayData
p71
(dp72
g3
I46
sg4
I100
sg5
I111
sg6
g7
sg8
I400
sg9
I3
sg10
g11
((dp73
tp74
Rp75
sg15
g11
((dp76
tp77
Rp78
sg19
g20
(S'\x07\xdf\x0b\x0b'
p79
tp80
Rp81
sg24
I300
sg25
I100
sg26
I0
sba(i__main__
DayData
p82
(dp83
g3
I46
sg4
I100
sg5
I111
sg6
g7
sg8
I400
sg9
I4
sg10
g11
((dp84
tp85
Rp86
sg15
g11
((dp87
tp88
Rp89
sg19
g20
(S'\x07\xdf\x0b\x0c'
p90
tp91
Rp92
sg24
I400
sg25
I100
sg26
I0
sba(i__main__
DayData
p93
(dp94
g3
I46
sg4
I100
sg5
I111
sg6
g7
sg8
I400
sg9
I5
sg10
g11
((dp95
tp96
Rp97
sg15
g11
((dp98
tp99
Rp100
sg19
g20
(S'\x07\xdf\x0b\r'
p101
tp102
Rp103
sg24
I500
sg25
I100
sg26
I0
sba(i__main__
DayData
p104
(dp105
g3
I46
sg4
I100
sg5
I111
sg6
g7
sg8
I400
sg9
I6
sg10
g11
((dp106
tp107
Rp108
sg15
g11
((dp109
tp110
Rp111
sg19
g20
(S'\x07\xdf\x0b\x0e'
p112
tp113
Rp114
sg24
I600
sg25
I100
sg26
I0
sba(i__main__
DayData
p115
(dp116
g3
I46
sg4
I100
sg5
I111
sg6
g7
sg8
I400
sg9
I7
sg10
g11
((dp117
tp118
Rp119
sg15
g11
((dp120
tp121
Rp122
sg19
g20
(S'\x07\xdf\x0b\x0f'
p123
tp124
Rp125
sg24
I700
sg25
I100
sg26
I0
sba(i__main__
DayData
p126
(dp127
g3
I47
sg4
I100
sg5
I111
sg6
g7
sg8
I300
sg9
I1
sg10
g11
((dp128
tp129
Rp130
sg15
g11
((dp131
tp132
Rp133
sg19
g20
(S'\x07\xdf\x0b\x10'
p134
tp135
Rp136
sg24
I100
sg25
I100
sg26
I0
sba(i__main__
DayData
p137
(dp138
g3
I47
sg4
I100
sg5
I111
sg6
g7
sg8
I300
sg9
I2
sg10
g11
((dp139
tp140
Rp141
sg15
g11
((dp142
tp143
Rp144
sg19
g20
(S'\x07\xdf\x0b\x11'
p145
tp146
Rp147
sg24
I200
sg25
I100
sg26
I0
sba(i__main__
DayData
p148
(dp149
g3
I47
sg4
I100
sg5
I111
sg6
g7
sg8
I300
sg9
I3
sg10
g11
((dp150
tp151
Rp152
sg15
g11
((dp153
tp154
Rp155
sg19
g20
(S'\x07\xdf\x0b\x12'
p156
tp157
Rp158
sg24
I300
sg25
I100
sg26
I0
sba(i__main__
DayData
p159
(dp160
g3
I47
sg4
I100
sg5
I111
sg6
g7
sg8
I300
sg9
I4
sg10
g11
((dp161
tp162
Rp163
sg15
g11
((dp164
tp165
Rp166
sg19
g20
(S'\x07\xdf\x0b\x13'
p167
tp168
Rp169
sg24
I400
sg25
I100
sg26
I0
sba(i__main__
DayData
p170
(dp171
g3
I47
sg4
I100
sg5
I111
sg6
g7
sg8
I300
sg9
I5
sg10
g11
((dp172
tp173
Rp174
sg15
g11
((dp175
tp176
Rp177
sg19
g20
(S'\x07\xdf\x0b\x14'
p178
tp179
Rp180
sg24
I500
sg25
I100
sg26
I0
sba(i__main__
DayData
p181
(dp182
g3
I47
sg4
I100
sg5
I111
sg6
S'gray'
p183
sg8
I300
sg9
I6
sg10
g11
((dp184
S'Snoedekke'
p185
I1
sS'Skredfarevurdering (2014)'
p186
I1
sS'Observert skredaktivitet'
p187
I1
sS'Observert vaer'
p188
I1
sS'Faretegn'
p189
I1
sS'Skredproblem (2014)'
p190
I2
sS'Snoeprofil'
p191
I1
stp192
Rp193
sg15
g11
((dp194
I68180
I8
stp195
Rp196
sg19
g20
(S'\x07\xdf\x0b\x15'
p197
tp198
Rp199
sg24
I600
sg25
I100
sg26
I8
sba(i__main__
DayData
p200
(dp201
g3
I47
sg4
I100
sg5
I111
sg6
g7
sg8
I300
sg9
I7
sg10
g11
((dp202
tp203
Rp204
sg15
g11
((dp205
tp206
Rp207
sg19
g20
(S'\x07\xdf\x0b\x16'
p208
tp209
Rp210
sg24
I700
sg25
I100
sg26
I0
sba(i__main__
DayData
p211
(dp212
g3
I48
sg4
I100
sg5
I111
sg6
g7
sg8
I200
sg9
I1
sg10
g11
((dp213
tp214
Rp215
sg15
g11
((dp216
tp217
Rp218
sg19
g20
(S'\x07\xdf\x0b\x17'
p219
tp220
Rp221
sg24
I100
sg25
I100
sg26
I0
sba(i__main__
DayData
p222
(dp223
g3
I48
sg4
I100
sg5
I111
sg6
g7
sg8
I200
sg9
I2
sg10
g11
((dp224
tp225
Rp226
sg15
g11
((dp227
tp228
Rp229
sg19
g20
(S'\x07\xdf\x0b\x18'
p230
tp231
Rp232
sg24
I200
sg25
I100
sg26
I0
sba(i__main__
DayData
p233
(dp234
g3
I48
sg4
I100
sg5
I111
sg6
g7
sg8
I200
sg9
I3
sg10
g11
((dp235
tp236
Rp237
sg15
g11
((dp238
tp239
Rp240
sg19
g20
(S'\x07\xdf\x0b\x19'
p241
tp242
Rp243
sg24
I300
sg25
I100
sg26
I0
sba(i__main__
DayData
p244
(dp245
g3
I48
sg4
I100
sg5
I111
sg6
g7
sg8
I200
sg9
I4
sg10
g11
((dp246
tp247
Rp248
sg15
g11
((dp249
tp250
Rp251
sg19
g20
(S'\x07\xdf\x0b\x1a'
p252
tp253
Rp254
sg24
I400
sg25
I100
sg26
I0
sba(i__main__
DayData
p255
(dp256
g3
I48
sg4
I100
sg5
I111
sg6
g7
sg8
I200
sg9
I5
sg10
g11
((dp257
tp258
Rp259
sg15
g11
((dp260
tp261
Rp262
sg19
g20
(S'\x07\xdf\x0b\x1b'
p263
tp264
Rp265
sg24
I500
sg25
I100
sg26
I0
sba(i__main__
DayData
p266
(dp267
g3
I48
sg4
I100
sg5
I111
sg6
g7
sg8
I200
sg9
I6
sg10
g11
((dp268
tp269
Rp270
sg15
g11
((dp271
tp272
Rp273
sg19
g20
(S'\x07\xdf\x0b\x1c'
p274
tp275
Rp276
sg24
I600
sg25
I100
sg26
I0
sba(i__main__
DayData
p277
(dp278
g3
I48
sg4
I100
sg5
I111
sg6
g183
sg8
I200
sg9
I7
sg10
g11
((dp279
S'Snoedekke'
p280
I1
sS'Observert vaer'
p281
I1
sS'Faretegn'
p282
I1
sS'Kompresjonstest'
p283
I1
sS'Skredfarevurdering (2014)'
p284
I1
sS'Skredproblem (2014)'
p285
I1
sS'Observert skredaktivitet'
p286
I1
sS'Bilde'
p287
I1
sg191
I1
stp288
Rp289
sg15
g11
((dp290
I68625
I9
stp291
Rp292
sg19
g20
(S'\x07\xdf\x0b\x1d'
p293
tp294
Rp295
sg24
I700
sg25
I100
sg26
I9
sba(i__main__
DayData
p296
(dp297
g3
I49
sg4
I100
sg5
I111
sg6
g7
sg8
I100
sg9
I1
sg10
g11
((dp298
tp299
Rp300
sg15
g11
((dp301
tp302
Rp303
sg19
g20
(S'\x07\xdf\x0b\x1e'
p304
tp305
Rp306
sg24
I100
sg25
I100
sg26
I0
sba.