(lp0
(i__main__
DayData
p1
(dp2
S'obs_pr_regid'
p3
(dp4
sS'loc_pr_regid'
p5
(dp6
sS'week_no'
p7
I45
sS'box_size_x'
p8
I100
sS'observer_id'
p9
I325
sS'cell_colour'
p10
S'white'
p11
sS'y'
p12
I0
sS'week_day'
p13
I5
sS'observations'
p14
ccollections
Counter
p15
((dp16
tp17
Rp18
sS'reg_ids'
p19
g15
((dp20
tp21
Rp22
sS'date'
p23
cdatetime
date
p24
(S'\x07\xdf\x0b\x06'
p25
tp26
Rp27
sS'x'
p28
I500
sS'box_size_y'
p29
I100
sS'number_obs'
p30
I0
sba(i__main__
DayData
p31
(dp32
g3
(dp33
sg5
(dp34
sg7
I45
sg8
I100
sg9
I325
sg10
g11
sg12
I0
sg13
I6
sg14
g15
((dp35
tp36
Rp37
sg19
g15
((dp38
tp39
Rp40
sg23
g24
(S'\x07\xdf\x0b\x07'
p41
tp42
Rp43
sg28
I600
sg29
I100
sg30
I0
sba(i__main__
DayData
p44
(dp45
g3
(dp46
sg5
(dp47
sg7
I45
sg8
I100
sg9
I325
sg10
g11
sg12
I0
sg13
I7
sg14
g15
((dp48
tp49
Rp50
sg19
g15
((dp51
tp52
Rp53
sg23
g24
(S'\x07\xdf\x0b\x08'
p54
tp55
Rp56
sg28
I700
sg29
I100
sg30
I0
sba(i__main__
DayData
p57
(dp58
g3
(dp59
sg5
(dp60
sg7
I46
sg8
I100
sg9
I325
sg10
g11
sg12
I-100
sg13
I1
sg14
g15
((dp61
tp62
Rp63
sg19
g15
((dp64
tp65
Rp66
sg23
g24
(S'\x07\xdf\x0b\t'
p67
tp68
Rp69
sg28
I100
sg29
I100
sg30
I0
sba(i__main__
DayData
p70
(dp71
g3
(dp72
sg5
(dp73
sg7
I46
sg8
I100
sg9
I325
sg10
g11
sg12
I-100
sg13
I2
sg14
g15
((dp74
tp75
Rp76
sg19
g15
((dp77
tp78
Rp79
sg23
g24
(S'\x07\xdf\x0b\n'
p80
tp81
Rp82
sg28
I200
sg29
I100
sg30
I0
sba(i__main__
DayData
p83
(dp84
g3
(dp85
sg5
(dp86
sg7
I46
sg8
I100
sg9
I325
sg10
g11
sg12
I-100
sg13
I3
sg14
g15
((dp87
tp88
Rp89
sg19
g15
((dp90
tp91
Rp92
sg23
g24
(S'\x07\xdf\x0b\x0b'
p93
tp94
Rp95
sg28
I300
sg29
I100
sg30
I0
sba(i__main__
DayData
p96
(dp97
g3
(dp98
sg5
(dp99
sg7
I46
sg8
I100
sg9
I325
sg10
g11
sg12
I-100
sg13
I4
sg14
g15
((dp100
tp101
Rp102
sg19
g15
((dp103
tp104
Rp105
sg23
g24
(S'\x07\xdf\x0b\x0c'
p106
tp107
Rp108
sg28
I400
sg29
I100
sg30
I0
sba(i__main__
DayData
p109
(dp110
g3
(dp111
sg5
(dp112
sg7
I46
sg8
I100
sg9
I325
sg10
g11
sg12
I-100
sg13
I5
sg14
g15
((dp113
tp114
Rp115
sg19
g15
((dp116
tp117
Rp118
sg23
g24
(S'\x07\xdf\x0b\r'
p119
tp120
Rp121
sg28
I500
sg29
I100
sg30
I0
sba(i__main__
DayData
p122
(dp123
g3
(dp124
sg5
(dp125
sg7
I46
sg8
I100
sg9
I325
sg10
g11
sg12
I-100
sg13
I6
sg14
g15
((dp126
tp127
Rp128
sg19
g15
((dp129
tp130
Rp131
sg23
g24
(S'\x07\xdf\x0b\x0e'
p132
tp133
Rp134
sg28
I600
sg29
I100
sg30
I0
sba(i__main__
DayData
p135
(dp136
g3
(dp137
sg5
(dp138
sg7
I46
sg8
I100
sg9
I325
sg10
g11
sg12
I-100
sg13
I7
sg14
g15
((dp139
tp140
Rp141
sg19
g15
((dp142
tp143
Rp144
sg23
g24
(S'\x07\xdf\x0b\x0f'
p145
tp146
Rp147
sg28
I700
sg29
I100
sg30
I0
sba(i__main__
DayData
p148
(dp149
g3
(dp150
sg5
(dp151
sg7
I47
sg8
I100
sg9
I325
sg10
g11
sg12
I-200
sg13
I1
sg14
g15
((dp152
tp153
Rp154
sg19
g15
((dp155
tp156
Rp157
sg23
g24
(S'\x07\xdf\x0b\x10'
p158
tp159
Rp160
sg28
I100
sg29
I100
sg30
I0
sba(i__main__
DayData
p161
(dp162
g3
(dp163
I67697
(lp164
S'Fritekstfelt'
p165
aS'Bilde'
p166
asI67694
(lp167
S'Bilde'
p168
aS'Bilde'
p169
aS'Observert vaer'
p170
aS'Snoedekke'
p171
aS'Skredfarevurdering'
p172
assg5
(dp173
I67697
S'Rauland'
p174
sI67694
S'Telemark'
p175
ssg7
I47
sg8
I100
sg9
I325
sg10
S'gainsboro'
p176
sg12
I-200
sg13
I2
sg14
g15
((dp177
g171
I1
sg165
I1
sg168
I3
sg170
I1
sg172
I1
stp178
Rp179
sg19
g15
((dp180
I67697
I2
sI67694
I5
stp181
Rp182
sg23
g24
(S'\x07\xdf\x0b\x11'
p183
tp184
Rp185
sg28
I200
sg29
I100
sg30
I7
sba(i__main__
DayData
p186
(dp187
g3
(dp188
sg5
(dp189
sg7
I47
sg8
I100
sg9
I325
sg10
g11
sg12
I-200
sg13
I3
sg14
g15
((dp190
tp191
Rp192
sg19
g15
((dp193
tp194
Rp195
sg23
g24
(S'\x07\xdf\x0b\x12'
p196
tp197
Rp198
sg28
I300
sg29
I100
sg30
I0
sba(i__main__
DayData
p199
(dp200
g3
(dp201
sg5
(dp202
sg7
I47
sg8
I100
sg9
I325
sg10
g11
sg12
I-200
sg13
I4
sg14
g15
((dp203
tp204
Rp205
sg19
g15
((dp206
tp207
Rp208
sg23
g24
(S'\x07\xdf\x0b\x13'
p209
tp210
Rp211
sg28
I400
sg29
I100
sg30
I0
sba(i__main__
DayData
p212
(dp213
g3
(dp214
sg5
(dp215
sg7
I47
sg8
I100
sg9
I325
sg10
g11
sg12
I-200
sg13
I5
sg14
g15
((dp216
tp217
Rp218
sg19
g15
((dp219
tp220
Rp221
sg23
g24
(S'\x07\xdf\x0b\x14'
p222
tp223
Rp224
sg28
I500
sg29
I100
sg30
I0
sba(i__main__
DayData
p225
(dp226
g3
(dp227
I68178
(lp228
S'Fritekstfelt'
p229
aS'Bilde'
p230
assg5
(dp231
I68178
S'Rauland'
p232
ssg7
I47
sg8
I100
sg9
I325
sg10
g176
sg12
I-200
sg13
I6
sg14
g15
((dp233
g229
I1
sg230
I1
stp234
Rp235
sg19
g15
((dp236
I68178
I2
stp237
Rp238
sg23
g24
(S'\x07\xdf\x0b\x15'
p239
tp240
Rp241
sg28
I600
sg29
I100
sg30
I2
sba(i__main__
DayData
p242
(dp243
g3
(dp244
sg5
(dp245
sg7
I47
sg8
I100
sg9
I325
sg10
g11
sg12
I-200
sg13
I7
sg14
g15
((dp246
tp247
Rp248
sg19
g15
((dp249
tp250
Rp251
sg23
g24
(S'\x07\xdf\x0b\x16'
p252
tp253
Rp254
sg28
I700
sg29
I100
sg30
I0
sba(i__main__
DayData
p255
(dp256
g3
(dp257
sg5
(dp258
sg7
I48
sg8
I100
sg9
I325
sg10
g11
sg12
I-300
sg13
I1
sg14
g15
((dp259
tp260
Rp261
sg19
g15
((dp262
tp263
Rp264
sg23
g24
(S'\x07\xdf\x0b\x17'
p265
tp266
Rp267
sg28
I100
sg29
I100
sg30
I0
sba(i__main__
DayData
p268
(dp269
g3
(dp270
I68315
(lp271
S'Bilde'
p272
aS'Bilde'
p273
aS'Bilde'
p274
aS'Bilde'
p275
aS'Bilde'
p276
aS'Bilde'
p277
aS'Bilde'
p278
aS'Bilde'
p279
aS'Bilde'
p280
aS'Bilde'
p281
aS'Bilde'
p282
aS'Faretegn'
p283
aS'Observert vaer'
p284
aS'Snoedekke'
p285
aS'Skredfarevurdering'
p286
aS'Skredproblem'
p287
assg5
(dp288
I68315
S'Rauland'
p289
ssg7
I48
sg8
I100
sg9
I325
sg10
g176
sg12
I-300
sg13
I2
sg14
g15
((dp290
g285
I1
sg287
I1
sS'Snoeprofil'
p291
I2
sg284
I1
sg283
I1
sg272
I9
sg286
I1
stp292
Rp293
sg19
g15
((dp294
I68315
I16
stp295
Rp296
sg23
g24
(S'\x07\xdf\x0b\x18'
p297
tp298
Rp299
sg28
I200
sg29
I100
sg30
I16
sba(i__main__
DayData
p300
(dp301
g3
(dp302
sg5
(dp303
sg7
I48
sg8
I100
sg9
I325
sg10
g11
sg12
I-300
sg13
I3
sg14
g15
((dp304
tp305
Rp306
sg19
g15
((dp307
tp308
Rp309
sg23
g24
(S'\x07\xdf\x0b\x19'
p310
tp311
Rp312
sg28
I300
sg29
I100
sg30
I0
sba(i__main__
DayData
p313
(dp314
g3
(dp315
I68492
(lp316
S'Bilde'
p317
aS'Bilde'
p318
aS'Bilde'
p319
aS'Bilde'
p320
aS'Faretegn'
p321
aS'Observert vaer'
p322
aS'Snoedekke'
p323
aS'Skredfarevurdering'
p324
aS'Skredproblem'
p325
assg5
(dp326
I68492
S'Rauland'
p327
ssg7
I48
sg8
I100
sg9
I325
sg10
g176
sg12
I-300
sg13
I4
sg14
g15
((dp328
g323
I1
sg325
I1
sg291
I1
sg322
I1
sg321
I1
sg317
I3
sg324
I1
stp329
Rp330
sg19
g15
((dp331
I68492
I9
stp332
Rp333
sg23
g24
(S'\x07\xdf\x0b\x1a'
p334
tp335
Rp336
sg28
I400
sg29
I100
sg30
I9
sba(i__main__
DayData
p337
(dp338
g3
(dp339
I68556
(lp340
S'Bilde'
p341
asI68557
(lp342
S'Bilde'
p343
aS'Observert vaer'
p344
assg5
(dp345
I68556
S'Rauland'
p346
sI68557
S'Rauland'
p347
ssg7
I48
sg8
I100
sg9
I325
sg10
g176
sg12
I-300
sg13
I5
sg14
g15
((dp348
g341
I2
sg344
I1
stp349
Rp350
sg19
g15
((dp351
I68556
I1
sI68557
I2
stp352
Rp353
sg23
g24
(S'\x07\xdf\x0b\x1b'
p354
tp355
Rp356
sg28
I500
sg29
I100
sg30
I3
sba(i__main__
DayData
p357
(dp358
g3
(dp359
I68597
(lp360
S'Bilde'
p361
aS'Bilde'
p362
aS'Bilde'
p363
aS'Bilde'
p364
aS'Bilde'
p365
aS'Bilde'
p366
aS'Bilde'
p367
aS'Bilde'
p368
aS'Bilde'
p369
aS'Bilde'
p370
aS'Bilde'
p371
aS'Faretegn'
p372
aS'Observert vaer'
p373
aS'Snoedekke'
p374
aS'Observert skredaktivitet(2014)'
p375
aS'Skredfarevurdering'
p376
aS'Skredproblem'
p377
assg5
(dp378
I68597
S'Rauland'
p379
ssg7
I48
sg8
I100
sg9
I325
sg10
g176
sg12
I-300
sg13
I6
sg14
g15
((dp380
g374
I1
sg377
I1
sg375
I1
sg373
I1
sg372
I1
sg376
I1
sg361
I9
sg291
I2
stp381
Rp382
sg19
g15
((dp383
I68597
I17
stp384
Rp385
sg23
g24
(S'\x07\xdf\x0b\x1c'
p386
tp387
Rp388
sg28
I600
sg29
I100
sg30
I17
sba(i__main__
DayData
p389
(dp390
g3
(dp391
I68627
(lp392
S'Observert vaer'
p393
aS'Snoedekke'
p394
assg5
(dp395
I68627
S'Rauland'
p396
ssg7
I48
sg8
I100
sg9
I325
sg10
g176
sg12
I-300
sg13
I7
sg14
g15
((dp397
g394
I1
sg393
I1
stp398
Rp399
sg19
g15
((dp400
I68627
I2
stp401
Rp402
sg23
g24
(S'\x07\xdf\x0b\x1d'
p403
tp404
Rp405
sg28
I700
sg29
I100
sg30
I2
sba(i__main__
DayData
p406
(dp407
g3
(dp408
I68752
(lp409
S'Fritekstfelt'
p410
assg5
(dp411
I68752
S'Rauland'
p412
ssg7
I49
sg8
I100
sg9
I325
sg10
g176
sg12
I-400
sg13
I1
sg14
g15
((dp413
g410
I1
stp414
Rp415
sg19
g15
((dp416
I68752
I1
stp417
Rp418
sg23
g24
(S'\x07\xdf\x0b\x1e'
p419
tp420
Rp421
sg28
I100
sg29
I100
sg30
I1
sba.