(lp0
(i__main__
DayData
p1
(dp2
S'obs_pr_regid'
p3
(dp4
sS'loc_pr_regid'
p5
(dp6
sS'week_no'
p7
I45
sS'box_size_x'
p8
I100
sS'observer_id'
p9
I45
sS'cell_colour'
p10
S'white'
p11
sS'y'
p12
I0
sS'week_day'
p13
I5
sS'observations'
p14
ccollections
Counter
p15
((dp16
tp17
Rp18
sS'reg_ids'
p19
g15
((dp20
tp21
Rp22
sS'date'
p23
cdatetime
date
p24
(S'\x07\xdf\x0b\x06'
p25
tp26
Rp27
sS'x'
p28
I500
sS'box_size_y'
p29
I100
sS'number_obs'
p30
I0
sba(i__main__
DayData
p31
(dp32
g3
(dp33
sg5
(dp34
sg7
I45
sg8
I100
sg9
I45
sg10
g11
sg12
I0
sg13
I6
sg14
g15
((dp35
tp36
Rp37
sg19
g15
((dp38
tp39
Rp40
sg23
g24
(S'\x07\xdf\x0b\x07'
p41
tp42
Rp43
sg28
I600
sg29
I100
sg30
I0
sba(i__main__
DayData
p44
(dp45
g3
(dp46
sg5
(dp47
sg7
I45
sg8
I100
sg9
I45
sg10
g11
sg12
I0
sg13
I7
sg14
g15
((dp48
tp49
Rp50
sg19
g15
((dp51
tp52
Rp53
sg23
g24
(S'\x07\xdf\x0b\x08'
p54
tp55
Rp56
sg28
I700
sg29
I100
sg30
I0
sba(i__main__
DayData
p57
(dp58
g3
(dp59
sg5
(dp60
sg7
I46
sg8
I100
sg9
I45
sg10
g11
sg12
I-100
sg13
I1
sg14
g15
((dp61
tp62
Rp63
sg19
g15
((dp64
tp65
Rp66
sg23
g24
(S'\x07\xdf\x0b\t'
p67
tp68
Rp69
sg28
I100
sg29
I100
sg30
I0
sba(i__main__
DayData
p70
(dp71
g3
(dp72
sg5
(dp73
sg7
I46
sg8
I100
sg9
I45
sg10
g11
sg12
I-100
sg13
I2
sg14
g15
((dp74
tp75
Rp76
sg19
g15
((dp77
tp78
Rp79
sg23
g24
(S'\x07\xdf\x0b\n'
p80
tp81
Rp82
sg28
I200
sg29
I100
sg30
I0
sba(i__main__
DayData
p83
(dp84
g3
(dp85
I67165
(lp86
S'Bilde'
p87
aS'Snoedekke'
p88
assg5
(dp89
I67165
S'Sogn'
p90
ssg7
I46
sg8
I100
sg9
I45
sg10
S'gainsboro'
p91
sg12
I-100
sg13
I3
sg14
g15
((dp92
g88
I1
sg87
I1
stp93
Rp94
sg19
g15
((dp95
I67165
I2
stp96
Rp97
sg23
g24
(S'\x07\xdf\x0b\x0b'
p98
tp99
Rp100
sg28
I300
sg29
I100
sg30
I2
sba(i__main__
DayData
p101
(dp102
g3
(dp103
sg5
(dp104
sg7
I46
sg8
I100
sg9
I45
sg10
g11
sg12
I-100
sg13
I4
sg14
g15
((dp105
tp106
Rp107
sg19
g15
((dp108
tp109
Rp110
sg23
g24
(S'\x07\xdf\x0b\x0c'
p111
tp112
Rp113
sg28
I400
sg29
I100
sg30
I0
sba(i__main__
DayData
p114
(dp115
g3
(dp116
sg5
(dp117
sg7
I46
sg8
I100
sg9
I45
sg10
g11
sg12
I-100
sg13
I5
sg14
g15
((dp118
tp119
Rp120
sg19
g15
((dp121
tp122
Rp123
sg23
g24
(S'\x07\xdf\x0b\r'
p124
tp125
Rp126
sg28
I500
sg29
I100
sg30
I0
sba(i__main__
DayData
p127
(dp128
g3
(dp129
I67247
(lp130
S'Bilde'
p131
aS'Snoedekke'
p132
assg5
(dp133
I67247
S'Sogn'
p134
ssg7
I46
sg8
I100
sg9
I45
sg10
g91
sg12
I-100
sg13
I6
sg14
g15
((dp135
g132
I1
sg131
I1
stp136
Rp137
sg19
g15
((dp138
I67247
I2
stp139
Rp140
sg23
g24
(S'\x07\xdf\x0b\x0e'
p141
tp142
Rp143
sg28
I600
sg29
I100
sg30
I2
sba(i__main__
DayData
p144
(dp145
g3
(dp146
sg5
(dp147
sg7
I46
sg8
I100
sg9
I45
sg10
g11
sg12
I-100
sg13
I7
sg14
g15
((dp148
tp149
Rp150
sg19
g15
((dp151
tp152
Rp153
sg23
g24
(S'\x07\xdf\x0b\x0f'
p154
tp155
Rp156
sg28
I700
sg29
I100
sg30
I0
sba(i__main__
DayData
p157
(dp158
g3
(dp159
sg5
(dp160
sg7
I47
sg8
I100
sg9
I45
sg10
g11
sg12
I-200
sg13
I1
sg14
g15
((dp161
tp162
Rp163
sg19
g15
((dp164
tp165
Rp166
sg23
g24
(S'\x07\xdf\x0b\x10'
p167
tp168
Rp169
sg28
I100
sg29
I100
sg30
I0
sba(i__main__
DayData
p170
(dp171
g3
(dp172
sg5
(dp173
sg7
I47
sg8
I100
sg9
I45
sg10
g11
sg12
I-200
sg13
I2
sg14
g15
((dp174
tp175
Rp176
sg19
g15
((dp177
tp178
Rp179
sg23
g24
(S'\x07\xdf\x0b\x11'
p180
tp181
Rp182
sg28
I200
sg29
I100
sg30
I0
sba(i__main__
DayData
p183
(dp184
g3
(dp185
sg5
(dp186
sg7
I47
sg8
I100
sg9
I45
sg10
g11
sg12
I-200
sg13
I3
sg14
g15
((dp187
tp188
Rp189
sg19
g15
((dp190
tp191
Rp192
sg23
g24
(S'\x07\xdf\x0b\x12'
p193
tp194
Rp195
sg28
I300
sg29
I100
sg30
I0
sba(i__main__
DayData
p196
(dp197
g3
(dp198
sg5
(dp199
sg7
I47
sg8
I100
sg9
I45
sg10
g11
sg12
I-200
sg13
I4
sg14
g15
((dp200
tp201
Rp202
sg19
g15
((dp203
tp204
Rp205
sg23
g24
(S'\x07\xdf\x0b\x13'
p206
tp207
Rp208
sg28
I400
sg29
I100
sg30
I0
sba(i__main__
DayData
p209
(dp210
g3
(dp211
sg5
(dp212
sg7
I47
sg8
I100
sg9
I45
sg10
g11
sg12
I-200
sg13
I5
sg14
g15
((dp213
tp214
Rp215
sg19
g15
((dp216
tp217
Rp218
sg23
g24
(S'\x07\xdf\x0b\x14'
p219
tp220
Rp221
sg28
I500
sg29
I100
sg30
I0
sba(i__main__
DayData
p222
(dp223
g3
(dp224
sg5
(dp225
sg7
I47
sg8
I100
sg9
I45
sg10
g11
sg12
I-200
sg13
I6
sg14
g15
((dp226
tp227
Rp228
sg19
g15
((dp229
tp230
Rp231
sg23
g24
(S'\x07\xdf\x0b\x15'
p232
tp233
Rp234
sg28
I600
sg29
I100
sg30
I0
sba(i__main__
DayData
p235
(dp236
g3
(dp237
sg5
(dp238
sg7
I47
sg8
I100
sg9
I45
sg10
g11
sg12
I-200
sg13
I7
sg14
g15
((dp239
tp240
Rp241
sg19
g15
((dp242
tp243
Rp244
sg23
g24
(S'\x07\xdf\x0b\x16'
p245
tp246
Rp247
sg28
I700
sg29
I100
sg30
I0
sba(i__main__
DayData
p248
(dp249
g3
(dp250
sg5
(dp251
sg7
I48
sg8
I100
sg9
I45
sg10
g11
sg12
I-300
sg13
I1
sg14
g15
((dp252
tp253
Rp254
sg19
g15
((dp255
tp256
Rp257
sg23
g24
(S'\x07\xdf\x0b\x17'
p258
tp259
Rp260
sg28
I100
sg29
I100
sg30
I0
sba(i__main__
DayData
p261
(dp262
g3
(dp263
sg5
(dp264
sg7
I48
sg8
I100
sg9
I45
sg10
g11
sg12
I-300
sg13
I2
sg14
g15
((dp265
tp266
Rp267
sg19
g15
((dp268
tp269
Rp270
sg23
g24
(S'\x07\xdf\x0b\x18'
p271
tp272
Rp273
sg28
I200
sg29
I100
sg30
I0
sba(i__main__
DayData
p274
(dp275
g3
(dp276
sg5
(dp277
sg7
I48
sg8
I100
sg9
I45
sg10
g11
sg12
I-300
sg13
I3
sg14
g15
((dp278
tp279
Rp280
sg19
g15
((dp281
tp282
Rp283
sg23
g24
(S'\x07\xdf\x0b\x19'
p284
tp285
Rp286
sg28
I300
sg29
I100
sg30
I0
sba(i__main__
DayData
p287
(dp288
g3
(dp289
sg5
(dp290
sg7
I48
sg8
I100
sg9
I45
sg10
g11
sg12
I-300
sg13
I4
sg14
g15
((dp291
tp292
Rp293
sg19
g15
((dp294
tp295
Rp296
sg23
g24
(S'\x07\xdf\x0b\x1a'
p297
tp298
Rp299
sg28
I400
sg29
I100
sg30
I0
sba(i__main__
DayData
p300
(dp301
g3
(dp302
sg5
(dp303
sg7
I48
sg8
I100
sg9
I45
sg10
g11
sg12
I-300
sg13
I5
sg14
g15
((dp304
tp305
Rp306
sg19
g15
((dp307
tp308
Rp309
sg23
g24
(S'\x07\xdf\x0b\x1b'
p310
tp311
Rp312
sg28
I500
sg29
I100
sg30
I0
sba(i__main__
DayData
p313
(dp314
g3
(dp315
sg5
(dp316
sg7
I48
sg8
I100
sg9
I45
sg10
g11
sg12
I-300
sg13
I6
sg14
g15
((dp317
tp318
Rp319
sg19
g15
((dp320
tp321
Rp322
sg23
g24
(S'\x07\xdf\x0b\x1c'
p323
tp324
Rp325
sg28
I600
sg29
I100
sg30
I0
sba(i__main__
DayData
p326
(dp327
g3
(dp328
sg5
(dp329
sg7
I48
sg8
I100
sg9
I45
sg10
g11
sg12
I-300
sg13
I7
sg14
g15
((dp330
tp331
Rp332
sg19
g15
((dp333
tp334
Rp335
sg23
g24
(S'\x07\xdf\x0b\x1d'
p336
tp337
Rp338
sg28
I700
sg29
I100
sg30
I0
sba(i__main__
DayData
p339
(dp340
g3
(dp341
sg5
(dp342
sg7
I49
sg8
I100
sg9
I45
sg10
g11
sg12
I-400
sg13
I1
sg14
g15
((dp343
tp344
Rp345
sg19
g15
((dp346
tp347
Rp348
sg23
g24
(S'\x07\xdf\x0b\x1e'
p349
tp350
Rp351
sg28
I100
sg29
I100
sg30
I0
sba.