(lp0
(i__main__
DayData
p1
(dp2
S'obs_pr_regid'
p3
(dp4
I73092
(lp5
S'Fritekstfelt'
p6
aS'Bilde'
p7
asI73157
(lp8
S'Fritekstfelt'
p9
aS'Bilde'
p10
aS'Bilde'
p11
aS'Bilde'
p12
aS'Bilde'
p13
aS'Bilde'
p14
aS'Bilde'
p15
aS'Bilde'
p16
aS'Bilde'
p17
aS'Observert vaer'
p18
aS'Snoedekke'
p19
aS'Skredfarevurdering'
p20
aS'Skredproblem'
p21
aS'Skredproblem'
p22
asI73163
(lp23
S'Observert vaer'
p24
aS'Snoedekke'
p25
asI73166
(lp26
S'Faretegn'
p27
aS'Observert vaer'
p28
aS'Snoedekke'
p29
asI73104
(lp30
S'Bilde'
p31
aS'Bilde'
p32
aS'Faretegn'
p33
asI73075
(lp34
S'Bilde'
p35
aS'Faretegn'
p36
asI73053
(lp37
S'Bilde'
p38
aS'Observert vaer'
p39
aS'Snoedekke'
p40
asI73087
(lp41
S'Fritekstfelt'
p42
aS'Bilde'
p43
aS'Bilde'
p44
aS'Bilde'
p45
aS'Observert skred'
p46
assS'loc_pr_regid'
p47
(dp48
I73092
S'Hallingdal'
p49
sI73157
S'Hallingdal'
p50
sI73163
S'Sogn'
p51
sI73166
S'Sogn'
p52
sI73104
S'Hallingdal'
p53
sI73075
S'Hallingdal'
p54
sI73053
S'Hallingdal'
p55
sI73087
S'Hallingdal'
p56
ssS'week_no'
p57
I1
sS'box_size_x'
p58
I100
sS'observer_id'
p59
I325
sS'cell_colour'
p60
S'gainsboro'
p61
sS'y'
p62
I0
sS'week_day'
p63
I1
sS'observations'
p64
ccollections
Counter
p65
((dp66
g40
I4
sg21
I2
sg36
I3
sg39
I4
sg46
I1
sg20
I1
sg38
I14
sg42
I3
sS'Snoeprofil'
p67
I2
stp68
Rp69
sS'reg_ids'
p70
g65
((dp71
I73092
I2
sI73157
I14
sI73163
I2
sI73166
I3
sI73104
I3
sI73075
I2
sI73053
I3
sI73087
I5
stp72
Rp73
sS'date'
p74
cdatetime
date
p75
(S'\x07\xe0\x01\x04'
p76
tp77
Rp78
sS'x'
p79
I100
sS'box_size_y'
p80
I100
sS'number_obs'
p81
I34
sba(i__main__
DayData
p82
(dp83
g3
(dp84
I73281
(lp85
S'Bilde'
p86
aS'Bilde'
p87
aS'Bilde'
p88
aS'Faretegn'
p89
aS'Observert vaer'
p90
aS'Snoedekke'
p91
aS'Observert skredaktivitet(2014)'
p92
aS'Skredfarevurdering'
p93
aS'Skredproblem'
p94
asI73199
(lp95
S'Observert vaer'
p96
aS'Snoedekke'
p97
assg47
(dp98
I73281
S'Sogn'
p99
sI73199
S'Sogn'
p100
ssg57
I1
sg58
I100
sg59
I325
sg60
g61
sg62
I0
sg63
I2
sg64
g65
((dp101
g97
I2
sg94
I1
sg92
I1
sg89
I1
sg96
I2
sg93
I1
sg86
I2
sg67
I1
stp102
Rp103
sg70
g65
((dp104
I73281
I9
sI73199
I2
stp105
Rp106
sg74
g75
(S'\x07\xe0\x01\x05'
p107
tp108
Rp109
sg79
I200
sg80
I100
sg81
I11
sba(i__main__
DayData
p110
(dp111
g3
(dp112
I73356
(lp113
S'Bilde'
p114
aS'Observert vaer'
p115
aS'Snoedekke'
p116
aS'Skredfarevurdering'
p117
assg47
(dp118
I73356
S'Sogn'
p119
ssg57
I1
sg58
I100
sg59
I325
sg60
g61
sg62
I0
sg63
I3
sg64
g65
((dp120
g116
I1
sg114
I1
sg115
I1
sg117
I1
stp121
Rp122
sg70
g65
((dp123
I73356
I4
stp124
Rp125
sg74
g75
(S'\x07\xe0\x01\x06'
p126
tp127
Rp128
sg79
I300
sg80
I100
sg81
I4
sba(i__main__
DayData
p129
(dp130
g3
(dp131
sg47
(dp132
sg57
I1
sg58
I100
sg59
I325
sg60
S'white'
p133
sg62
I0
sg63
I4
sg64
g65
((dp134
tp135
Rp136
sg70
g65
((dp137
tp138
Rp139
sg74
g75
(S'\x07\xe0\x01\x07'
p140
tp141
Rp142
sg79
I400
sg80
I100
sg81
I0
sba(i__main__
DayData
p143
(dp144
g3
(dp145
sg47
(dp146
sg57
I1
sg58
I100
sg59
I325
sg60
g133
sg62
I0
sg63
I5
sg64
g65
((dp147
tp148
Rp149
sg70
g65
((dp150
tp151
Rp152
sg74
g75
(S'\x07\xe0\x01\x08'
p153
tp154
Rp155
sg79
I500
sg80
I100
sg81
I0
sba(i__main__
DayData
p156
(dp157
g3
(dp158
sg47
(dp159
sg57
I1
sg58
I100
sg59
I325
sg60
g133
sg62
I0
sg63
I6
sg64
g65
((dp160
tp161
Rp162
sg70
g65
((dp163
tp164
Rp165
sg74
g75
(S'\x07\xe0\x01\t'
p166
tp167
Rp168
sg79
I600
sg80
I100
sg81
I0
sba(i__main__
DayData
p169
(dp170
g3
(dp171
sg47
(dp172
sg57
I1
sg58
I100
sg59
I325
sg60
g133
sg62
I0
sg63
I7
sg64
g65
((dp173
tp174
Rp175
sg70
g65
((dp176
tp177
Rp178
sg74
g75
(S'\x07\xe0\x01\n'
p179
tp180
Rp181
sg79
I700
sg80
I100
sg81
I0
sba(i__main__
DayData
p182
(dp183
g3
(dp184
sg47
(dp185
sg57
I2
sg58
I100
sg59
I325
sg60
g133
sg62
I-100
sg63
I1
sg64
g65
((dp186
tp187
Rp188
sg70
g65
((dp189
tp190
Rp191
sg74
g75
(S'\x07\xe0\x01\x0b'
p192
tp193
Rp194
sg79
I100
sg80
I100
sg81
I0
sba(i__main__
DayData
p195
(dp196
g3
(dp197
sg47
(dp198
sg57
I2
sg58
I100
sg59
I325
sg60
g133
sg62
I-100
sg63
I2
sg64
g65
((dp199
tp200
Rp201
sg70
g65
((dp202
tp203
Rp204
sg74
g75
(S'\x07\xe0\x01\x0c'
p205
tp206
Rp207
sg79
I200
sg80
I100
sg81
I0
sba(i__main__
DayData
p208
(dp209
g3
(dp210
sg47
(dp211
sg57
I2
sg58
I100
sg59
I325
sg60
g133
sg62
I-100
sg63
I3
sg64
g65
((dp212
tp213
Rp214
sg70
g65
((dp215
tp216
Rp217
sg74
g75
(S'\x07\xe0\x01\r'
p218
tp219
Rp220
sg79
I300
sg80
I100
sg81
I0
sba(i__main__
DayData
p221
(dp222
g3
(dp223
sg47
(dp224
sg57
I2
sg58
I100
sg59
I325
sg60
g133
sg62
I-100
sg63
I4
sg64
g65
((dp225
tp226
Rp227
sg70
g65
((dp228
tp229
Rp230
sg74
g75
(S'\x07\xe0\x01\x0e'
p231
tp232
Rp233
sg79
I400
sg80
I100
sg81
I0
sba(i__main__
DayData
p234
(dp235
g3
(dp236
sg47
(dp237
sg57
I2
sg58
I100
sg59
I325
sg60
g133
sg62
I-100
sg63
I5
sg64
g65
((dp238
tp239
Rp240
sg70
g65
((dp241
tp242
Rp243
sg74
g75
(S'\x07\xe0\x01\x0f'
p244
tp245
Rp246
sg79
I500
sg80
I100
sg81
I0
sba(i__main__
DayData
p247
(dp248
g3
(dp249
sg47
(dp250
sg57
I2
sg58
I100
sg59
I325
sg60
g133
sg62
I-100
sg63
I6
sg64
g65
((dp251
tp252
Rp253
sg70
g65
((dp254
tp255
Rp256
sg74
g75
(S'\x07\xe0\x01\x10'
p257
tp258
Rp259
sg79
I600
sg80
I100
sg81
I0
sba(i__main__
DayData
p260
(dp261
g3
(dp262
sg47
(dp263
sg57
I2
sg58
I100
sg59
I325
sg60
g133
sg62
I-100
sg63
I7
sg64
g65
((dp264
tp265
Rp266
sg70
g65
((dp267
tp268
Rp269
sg74
g75
(S'\x07\xe0\x01\x11'
p270
tp271
Rp272
sg79
I700
sg80
I100
sg81
I0
sba(i__main__
DayData
p273
(dp274
g3
(dp275
sg47
(dp276
sg57
I3
sg58
I100
sg59
I325
sg60
g133
sg62
I-200
sg63
I1
sg64
g65
((dp277
tp278
Rp279
sg70
g65
((dp280
tp281
Rp282
sg74
g75
(S'\x07\xe0\x01\x12'
p283
tp284
Rp285
sg79
I100
sg80
I100
sg81
I0
sba(i__main__
DayData
p286
(dp287
g3
(dp288
sg47
(dp289
sg57
I3
sg58
I100
sg59
I325
sg60
g133
sg62
I-200
sg63
I2
sg64
g65
((dp290
tp291
Rp292
sg70
g65
((dp293
tp294
Rp295
sg74
g75
(S'\x07\xe0\x01\x13'
p296
tp297
Rp298
sg79
I200
sg80
I100
sg81
I0
sba(i__main__
DayData
p299
(dp300
g3
(dp301
sg47
(dp302
sg57
I3
sg58
I100
sg59
I325
sg60
g133
sg62
I-200
sg63
I3
sg64
g65
((dp303
tp304
Rp305
sg70
g65
((dp306
tp307
Rp308
sg74
g75
(S'\x07\xe0\x01\x14'
p309
tp310
Rp311
sg79
I300
sg80
I100
sg81
I0
sba(i__main__
DayData
p312
(dp313
g3
(dp314
sg47
(dp315
sg57
I3
sg58
I100
sg59
I325
sg60
g133
sg62
I-200
sg63
I4
sg64
g65
((dp316
tp317
Rp318
sg70
g65
((dp319
tp320
Rp321
sg74
g75
(S'\x07\xe0\x01\x15'
p322
tp323
Rp324
sg79
I400
sg80
I100
sg81
I0
sba(i__main__
DayData
p325
(dp326
g3
(dp327
sg47
(dp328
sg57
I3
sg58
I100
sg59
I325
sg60
g133
sg62
I-200
sg63
I5
sg64
g65
((dp329
tp330
Rp331
sg70
g65
((dp332
tp333
Rp334
sg74
g75
(S'\x07\xe0\x01\x16'
p335
tp336
Rp337
sg79
I500
sg80
I100
sg81
I0
sba(i__main__
DayData
p338
(dp339
g3
(dp340
sg47
(dp341
sg57
I3
sg58
I100
sg59
I325
sg60
g133
sg62
I-200
sg63
I6
sg64
g65
((dp342
tp343
Rp344
sg70
g65
((dp345
tp346
Rp347
sg74
g75
(S'\x07\xe0\x01\x17'
p348
tp349
Rp350
sg79
I600
sg80
I100
sg81
I0
sba(i__main__
DayData
p351
(dp352
g3
(dp353
sg47
(dp354
sg57
I3
sg58
I100
sg59
I325
sg60
g133
sg62
I-200
sg63
I7
sg64
g65
((dp355
tp356
Rp357
sg70
g65
((dp358
tp359
Rp360
sg74
g75
(S'\x07\xe0\x01\x18'
p361
tp362
Rp363
sg79
I700
sg80
I100
sg81
I0
sba(i__main__
DayData
p364
(dp365
g3
(dp366
sg47
(dp367
sg57
I4
sg58
I100
sg59
I325
sg60
g133
sg62
I-300
sg63
I1
sg64
g65
((dp368
tp369
Rp370
sg70
g65
((dp371
tp372
Rp373
sg74
g75
(S'\x07\xe0\x01\x19'
p374
tp375
Rp376
sg79
I100
sg80
I100
sg81
I0
sba(i__main__
DayData
p377
(dp378
g3
(dp379
sg47
(dp380
sg57
I4
sg58
I100
sg59
I325
sg60
g133
sg62
I-300
sg63
I2
sg64
g65
((dp381
tp382
Rp383
sg70
g65
((dp384
tp385
Rp386
sg74
g75
(S'\x07\xe0\x01\x1a'
p387
tp388
Rp389
sg79
I200
sg80
I100
sg81
I0
sba(i__main__
DayData
p390
(dp391
g3
(dp392
sg47
(dp393
sg57
I4
sg58
I100
sg59
I325
sg60
g133
sg62
I-300
sg63
I3
sg64
g65
((dp394
tp395
Rp396
sg70
g65
((dp397
tp398
Rp399
sg74
g75
(S'\x07\xe0\x01\x1b'
p400
tp401
Rp402
sg79
I300
sg80
I100
sg81
I0
sba(i__main__
DayData
p403
(dp404
g3
(dp405
sg47
(dp406
sg57
I4
sg58
I100
sg59
I325
sg60
g133
sg62
I-300
sg63
I4
sg64
g65
((dp407
tp408
Rp409
sg70
g65
((dp410
tp411
Rp412
sg74
g75
(S'\x07\xe0\x01\x1c'
p413
tp414
Rp415
sg79
I400
sg80
I100
sg81
I0
sba(i__main__
DayData
p416
(dp417
g3
(dp418
sg47
(dp419
sg57
I4
sg58
I100
sg59
I325
sg60
g133
sg62
I-300
sg63
I5
sg64
g65
((dp420
tp421
Rp422
sg70
g65
((dp423
tp424
Rp425
sg74
g75
(S'\x07\xe0\x01\x1d'
p426
tp427
Rp428
sg79
I500
sg80
I100
sg81
I0
sba(i__main__
DayData
p429
(dp430
g3
(dp431
sg47
(dp432
sg57
I4
sg58
I100
sg59
I325
sg60
g133
sg62
I-300
sg63
I6
sg64
g65
((dp433
tp434
Rp435
sg70
g65
((dp436
tp437
Rp438
sg74
g75
(S'\x07\xe0\x01\x1e'
p439
tp440
Rp441
sg79
I600
sg80
I100
sg81
I0
sba(i__main__
DayData
p442
(dp443
g3
(dp444
sg47
(dp445
sg57
I4
sg58
I100
sg59
I325
sg60
g133
sg62
I-300
sg63
I7
sg64
g65
((dp446
tp447
Rp448
sg70
g65
((dp449
tp450
Rp451
sg74
g75
(S'\x07\xe0\x01\x1f'
p452
tp453
Rp454
sg79
I700
sg80
I100
sg81
I0
sba.