(lp0
(i__main__
DayData
p1
(dp2
S'obs_pr_regid'
p3
(dp4
sS'loc_pr_regid'
p5
(dp6
sS'week_no'
p7
I1
sS'box_size_x'
p8
I100
sS'observer_id'
p9
I282
sS'cell_colour'
p10
S'white'
p11
sS'y'
p12
I0
sS'week_day'
p13
I1
sS'observations'
p14
ccollections
Counter
p15
((dp16
tp17
Rp18
sS'reg_ids'
p19
g15
((dp20
tp21
Rp22
sS'date'
p23
cdatetime
date
p24
(S'\x07\xe0\x01\x04'
p25
tp26
Rp27
sS'x'
p28
I100
sS'box_size_y'
p29
I100
sS'number_obs'
p30
I0
sba(i__main__
DayData
p31
(dp32
g3
(dp33
I73242
(lp34
S'Faretegn'
p35
aS'Observert vaer'
p36
aS'Snoedekke'
p37
aS'Observert skredaktivitet(2014)'
p38
aS'Skredfarevurdering'
p39
aS'Skredproblem'
p40
asI73255
(lp41
S'Bilde'
p42
aS'Bilde'
p43
aS'Bilde'
p44
aS'Bilde'
p45
aS'Bilde'
p46
aS'Bilde'
p47
aS'Snoedekke'
p48
assg5
(dp49
I73242
S'Sogn'
p50
sI73255
S'Sogn'
p51
ssg7
I1
sg8
I100
sg9
I282
sg10
S'gainsboro'
p52
sg12
I0
sg13
I2
sg14
g15
((dp53
g37
I2
sg40
I1
sg38
I1
sg36
I1
sg35
I1
sg42
I6
sg39
I1
stp54
Rp55
sg19
g15
((dp56
I73242
I6
sI73255
I7
stp57
Rp58
sg23
g24
(S'\x07\xe0\x01\x05'
p59
tp60
Rp61
sg28
I200
sg29
I100
sg30
I13
sba(i__main__
DayData
p62
(dp63
g3
(dp64
sg5
(dp65
sg7
I1
sg8
I100
sg9
I282
sg10
g11
sg12
I0
sg13
I3
sg14
g15
((dp66
tp67
Rp68
sg19
g15
((dp69
tp70
Rp71
sg23
g24
(S'\x07\xe0\x01\x06'
p72
tp73
Rp74
sg28
I300
sg29
I100
sg30
I0
sba(i__main__
DayData
p75
(dp76
g3
(dp77
sg5
(dp78
sg7
I1
sg8
I100
sg9
I282
sg10
g11
sg12
I0
sg13
I4
sg14
g15
((dp79
tp80
Rp81
sg19
g15
((dp82
tp83
Rp84
sg23
g24
(S'\x07\xe0\x01\x07'
p85
tp86
Rp87
sg28
I400
sg29
I100
sg30
I0
sba(i__main__
DayData
p88
(dp89
g3
(dp90
sg5
(dp91
sg7
I1
sg8
I100
sg9
I282
sg10
g11
sg12
I0
sg13
I5
sg14
g15
((dp92
tp93
Rp94
sg19
g15
((dp95
tp96
Rp97
sg23
g24
(S'\x07\xe0\x01\x08'
p98
tp99
Rp100
sg28
I500
sg29
I100
sg30
I0
sba(i__main__
DayData
p101
(dp102
g3
(dp103
sg5
(dp104
sg7
I1
sg8
I100
sg9
I282
sg10
g11
sg12
I0
sg13
I6
sg14
g15
((dp105
tp106
Rp107
sg19
g15
((dp108
tp109
Rp110
sg23
g24
(S'\x07\xe0\x01\t'
p111
tp112
Rp113
sg28
I600
sg29
I100
sg30
I0
sba(i__main__
DayData
p114
(dp115
g3
(dp116
sg5
(dp117
sg7
I1
sg8
I100
sg9
I282
sg10
g11
sg12
I0
sg13
I7
sg14
g15
((dp118
tp119
Rp120
sg19
g15
((dp121
tp122
Rp123
sg23
g24
(S'\x07\xe0\x01\n'
p124
tp125
Rp126
sg28
I700
sg29
I100
sg30
I0
sba(i__main__
DayData
p127
(dp128
g3
(dp129
sg5
(dp130
sg7
I2
sg8
I100
sg9
I282
sg10
g11
sg12
I-100
sg13
I1
sg14
g15
((dp131
tp132
Rp133
sg19
g15
((dp134
tp135
Rp136
sg23
g24
(S'\x07\xe0\x01\x0b'
p137
tp138
Rp139
sg28
I100
sg29
I100
sg30
I0
sba(i__main__
DayData
p140
(dp141
g3
(dp142
sg5
(dp143
sg7
I2
sg8
I100
sg9
I282
sg10
g11
sg12
I-100
sg13
I2
sg14
g15
((dp144
tp145
Rp146
sg19
g15
((dp147
tp148
Rp149
sg23
g24
(S'\x07\xe0\x01\x0c'
p150
tp151
Rp152
sg28
I200
sg29
I100
sg30
I0
sba(i__main__
DayData
p153
(dp154
g3
(dp155
sg5
(dp156
sg7
I2
sg8
I100
sg9
I282
sg10
g11
sg12
I-100
sg13
I3
sg14
g15
((dp157
tp158
Rp159
sg19
g15
((dp160
tp161
Rp162
sg23
g24
(S'\x07\xe0\x01\r'
p163
tp164
Rp165
sg28
I300
sg29
I100
sg30
I0
sba(i__main__
DayData
p166
(dp167
g3
(dp168
sg5
(dp169
sg7
I2
sg8
I100
sg9
I282
sg10
g11
sg12
I-100
sg13
I4
sg14
g15
((dp170
tp171
Rp172
sg19
g15
((dp173
tp174
Rp175
sg23
g24
(S'\x07\xe0\x01\x0e'
p176
tp177
Rp178
sg28
I400
sg29
I100
sg30
I0
sba(i__main__
DayData
p179
(dp180
g3
(dp181
sg5
(dp182
sg7
I2
sg8
I100
sg9
I282
sg10
g11
sg12
I-100
sg13
I5
sg14
g15
((dp183
tp184
Rp185
sg19
g15
((dp186
tp187
Rp188
sg23
g24
(S'\x07\xe0\x01\x0f'
p189
tp190
Rp191
sg28
I500
sg29
I100
sg30
I0
sba(i__main__
DayData
p192
(dp193
g3
(dp194
sg5
(dp195
sg7
I2
sg8
I100
sg9
I282
sg10
g11
sg12
I-100
sg13
I6
sg14
g15
((dp196
tp197
Rp198
sg19
g15
((dp199
tp200
Rp201
sg23
g24
(S'\x07\xe0\x01\x10'
p202
tp203
Rp204
sg28
I600
sg29
I100
sg30
I0
sba(i__main__
DayData
p205
(dp206
g3
(dp207
sg5
(dp208
sg7
I2
sg8
I100
sg9
I282
sg10
g11
sg12
I-100
sg13
I7
sg14
g15
((dp209
tp210
Rp211
sg19
g15
((dp212
tp213
Rp214
sg23
g24
(S'\x07\xe0\x01\x11'
p215
tp216
Rp217
sg28
I700
sg29
I100
sg30
I0
sba(i__main__
DayData
p218
(dp219
g3
(dp220
sg5
(dp221
sg7
I3
sg8
I100
sg9
I282
sg10
g11
sg12
I-200
sg13
I1
sg14
g15
((dp222
tp223
Rp224
sg19
g15
((dp225
tp226
Rp227
sg23
g24
(S'\x07\xe0\x01\x12'
p228
tp229
Rp230
sg28
I100
sg29
I100
sg30
I0
sba(i__main__
DayData
p231
(dp232
g3
(dp233
sg5
(dp234
sg7
I3
sg8
I100
sg9
I282
sg10
g11
sg12
I-200
sg13
I2
sg14
g15
((dp235
tp236
Rp237
sg19
g15
((dp238
tp239
Rp240
sg23
g24
(S'\x07\xe0\x01\x13'
p241
tp242
Rp243
sg28
I200
sg29
I100
sg30
I0
sba(i__main__
DayData
p244
(dp245
g3
(dp246
sg5
(dp247
sg7
I3
sg8
I100
sg9
I282
sg10
g11
sg12
I-200
sg13
I3
sg14
g15
((dp248
tp249
Rp250
sg19
g15
((dp251
tp252
Rp253
sg23
g24
(S'\x07\xe0\x01\x14'
p254
tp255
Rp256
sg28
I300
sg29
I100
sg30
I0
sba(i__main__
DayData
p257
(dp258
g3
(dp259
sg5
(dp260
sg7
I3
sg8
I100
sg9
I282
sg10
g11
sg12
I-200
sg13
I4
sg14
g15
((dp261
tp262
Rp263
sg19
g15
((dp264
tp265
Rp266
sg23
g24
(S'\x07\xe0\x01\x15'
p267
tp268
Rp269
sg28
I400
sg29
I100
sg30
I0
sba(i__main__
DayData
p270
(dp271
g3
(dp272
sg5
(dp273
sg7
I3
sg8
I100
sg9
I282
sg10
g11
sg12
I-200
sg13
I5
sg14
g15
((dp274
tp275
Rp276
sg19
g15
((dp277
tp278
Rp279
sg23
g24
(S'\x07\xe0\x01\x16'
p280
tp281
Rp282
sg28
I500
sg29
I100
sg30
I0
sba(i__main__
DayData
p283
(dp284
g3
(dp285
sg5
(dp286
sg7
I3
sg8
I100
sg9
I282
sg10
g11
sg12
I-200
sg13
I6
sg14
g15
((dp287
tp288
Rp289
sg19
g15
((dp290
tp291
Rp292
sg23
g24
(S'\x07\xe0\x01\x17'
p293
tp294
Rp295
sg28
I600
sg29
I100
sg30
I0
sba(i__main__
DayData
p296
(dp297
g3
(dp298
sg5
(dp299
sg7
I3
sg8
I100
sg9
I282
sg10
g11
sg12
I-200
sg13
I7
sg14
g15
((dp300
tp301
Rp302
sg19
g15
((dp303
tp304
Rp305
sg23
g24
(S'\x07\xe0\x01\x18'
p306
tp307
Rp308
sg28
I700
sg29
I100
sg30
I0
sba(i__main__
DayData
p309
(dp310
g3
(dp311
sg5
(dp312
sg7
I4
sg8
I100
sg9
I282
sg10
g11
sg12
I-300
sg13
I1
sg14
g15
((dp313
tp314
Rp315
sg19
g15
((dp316
tp317
Rp318
sg23
g24
(S'\x07\xe0\x01\x19'
p319
tp320
Rp321
sg28
I100
sg29
I100
sg30
I0
sba(i__main__
DayData
p322
(dp323
g3
(dp324
sg5
(dp325
sg7
I4
sg8
I100
sg9
I282
sg10
g11
sg12
I-300
sg13
I2
sg14
g15
((dp326
tp327
Rp328
sg19
g15
((dp329
tp330
Rp331
sg23
g24
(S'\x07\xe0\x01\x1a'
p332
tp333
Rp334
sg28
I200
sg29
I100
sg30
I0
sba(i__main__
DayData
p335
(dp336
g3
(dp337
sg5
(dp338
sg7
I4
sg8
I100
sg9
I282
sg10
g11
sg12
I-300
sg13
I3
sg14
g15
((dp339
tp340
Rp341
sg19
g15
((dp342
tp343
Rp344
sg23
g24
(S'\x07\xe0\x01\x1b'
p345
tp346
Rp347
sg28
I300
sg29
I100
sg30
I0
sba(i__main__
DayData
p348
(dp349
g3
(dp350
sg5
(dp351
sg7
I4
sg8
I100
sg9
I282
sg10
g11
sg12
I-300
sg13
I4
sg14
g15
((dp352
tp353
Rp354
sg19
g15
((dp355
tp356
Rp357
sg23
g24
(S'\x07\xe0\x01\x1c'
p358
tp359
Rp360
sg28
I400
sg29
I100
sg30
I0
sba(i__main__
DayData
p361
(dp362
g3
(dp363
sg5
(dp364
sg7
I4
sg8
I100
sg9
I282
sg10
g11
sg12
I-300
sg13
I5
sg14
g15
((dp365
tp366
Rp367
sg19
g15
((dp368
tp369
Rp370
sg23
g24
(S'\x07\xe0\x01\x1d'
p371
tp372
Rp373
sg28
I500
sg29
I100
sg30
I0
sba(i__main__
DayData
p374
(dp375
g3
(dp376
sg5
(dp377
sg7
I4
sg8
I100
sg9
I282
sg10
g11
sg12
I-300
sg13
I6
sg14
g15
((dp378
tp379
Rp380
sg19
g15
((dp381
tp382
Rp383
sg23
g24
(S'\x07\xe0\x01\x1e'
p384
tp385
Rp386
sg28
I600
sg29
I100
sg30
I0
sba(i__main__
DayData
p387
(dp388
g3
(dp389
sg5
(dp390
sg7
I4
sg8
I100
sg9
I282
sg10
g11
sg12
I-300
sg13
I7
sg14
g15
((dp391
tp392
Rp393
sg19
g15
((dp394
tp395
Rp396
sg23
g24
(S'\x07\xe0\x01\x1f'
p397
tp398
Rp399
sg28
I700
sg29
I100
sg30
I0
sba.