(lp0
(i__main__
DayData
p1
(dp2
S'week_no'
p3
I49
sS'box_size_x'
p4
I100
sS'observer_id'
p5
I282
sS'cell_colour'
p6
S'gray'
p7
sS'y'
p8
I500
sS'week_day'
p9
I2
sS'observations'
p10
ccollections
Counter
p11
((dp12
S'Snoedekke'
p13
I1
sS'Bilde'
p14
I2
stp15
Rp16
sS'reg_ids'
p17
g11
((dp18
I68849
I3
stp19
Rp20
sS'date'
p21
cdatetime
date
p22
(S'\x07\xdf\x0c\x01'
p23
tp24
Rp25
sS'x'
p26
I200
sS'box_size_y'
p27
I100
sS'number_obs'
p28
I3
sba(i__main__
DayData
p29
(dp30
g3
I49
sg4
I100
sg5
I282
sg6
g7
sg8
I500
sg9
I3
sg10
g11
((dp31
S'Snoedekke'
p32
I3
sS'Observert vaer'
p33
I1
sS'Faretegn'
p34
I1
sS'Skredfarevurdering (2014)'
p35
I1
sS'Skredproblem (2014)'
p36
I1
sS'Observert skredaktivitet'
p37
I1
sS'Bilde'
p38
I2
sS'Snoeprofil'
p39
I1
stp40
Rp41
sg17
g11
((dp42
I68954
I2
sI69019
I1
sI68996
I8
stp43
Rp44
sg21
g22
(S'\x07\xdf\x0c\x02'
p45
tp46
Rp47
sg26
I300
sg27
I100
sg28
I11
sba(i__main__
DayData
p48
(dp49
g3
I49
sg4
I100
sg5
I282
sg6
g7
sg8
I500
sg9
I4
sg10
g11
((dp50
S'Bilde'
p51
I1
sS'Observert vaer'
p52
I1
stp53
Rp54
sg17
g11
((dp55
I69043
I2
stp56
Rp57
sg21
g22
(S'\x07\xdf\x0c\x03'
p58
tp59
Rp60
sg26
I400
sg27
I100
sg28
I2
sba(i__main__
DayData
p61
(dp62
g3
I49
sg4
I100
sg5
I282
sg6
g7
sg8
I500
sg9
I5
sg10
g11
((dp63
S'Snoedekke'
p64
I3
sS'Skredfarevurdering (2014)'
p65
I1
sS'Faretegn'
p66
I3
sS'Observert vaer'
p67
I1
sS'Skredproblem (2014)'
p68
I1
sS'Bilde'
p69
I6
stp70
Rp71
sg17
g11
((dp72
I69288
I5
sI69226
I3
sI69189
I3
sI69221
I2
sI69229
I2
stp73
Rp74
sg21
g22
(S'\x07\xdf\x0c\x04'
p75
tp76
Rp77
sg26
I500
sg27
I100
sg28
I15
sba(i__main__
DayData
p78
(dp79
g3
I49
sg4
I100
sg5
I282
sg6
g7
sg8
I500
sg9
I6
sg10
g11
((dp80
S'Bilde'
p81
I1
sS'Observert vaer'
p82
I1
stp83
Rp84
sg17
g11
((dp85
I69444
I1
sI69375
I1
stp86
Rp87
sg21
g22
(S'\x07\xdf\x0c\x05'
p88
tp89
Rp90
sg26
I600
sg27
I100
sg28
I2
sba(i__main__
DayData
p91
(dp92
g3
I49
sg4
I100
sg5
I282
sg6
g7
sg8
I500
sg9
I7
sg10
g11
((dp93
S'Snoedekke'
p94
I1
sS'Bilde'
p95
I1
sS'Observert vaer'
p96
I1
stp97
Rp98
sg17
g11
((dp99
I69479
I3
stp100
Rp101
sg21
g22
(S'\x07\xdf\x0c\x06'
p102
tp103
Rp104
sg26
I700
sg27
I100
sg28
I3
sba(i__main__
DayData
p105
(dp106
g3
I50
sg4
I100
sg5
I282
sg6
g7
sg8
I400
sg9
I1
sg10
g11
((dp107
S'Snoedekke'
p108
I3
sS'Faretegn'
p109
I2
sS'Observert vaer'
p110
I4
sS'Skredfarevurdering (2014)'
p111
I1
sS'Skredproblem (2014)'
p112
I2
sS'Observert skredaktivitet'
p113
I3
sS'Bilde'
p114
I10
sg39
I1
stp115
Rp116
sg17
g11
((dp117
I69664
I4
sI69665
I2
sI69666
I3
sI69671
I5
sI69680
I1
sI69681
I3
sI69589
I1
sI69595
I4
sI69663
I3
stp118
Rp119
sg21
g22
(S'\x07\xdf\x0c\x07'
p120
tp121
Rp122
sg26
I100
sg27
I100
sg28
I26
sba(i__main__
DayData
p123
(dp124
g3
I50
sg4
I100
sg5
I282
sg6
g7
sg8
I400
sg9
I2
sg10
g11
((dp125
S'Observert vaer'
p126
I1
stp127
Rp128
sg17
g11
((dp129
I69730
I1
stp130
Rp131
sg21
g22
(S'\x07\xdf\x0c\x08'
p132
tp133
Rp134
sg26
I200
sg27
I100
sg28
I1
sba(i__main__
DayData
p135
(dp136
g3
I50
sg4
I100
sg5
I282
sg6
g7
sg8
I400
sg9
I3
sg10
g11
((dp137
S'Snoedekke'
p138
I5
sS'Skredfarevurdering (2014)'
p139
I1
sS'Observert skredaktivitet'
p140
I1
sS'Faretegn'
p141
I2
sS'Observert vaer'
p142
I2
sS'Skredproblem (2014)'
p143
I2
sS'Bilde'
p144
I5
stp145
Rp146
sg17
g11
((dp147
I69868
I2
sI69946
I10
sI69875
I2
sI69908
I2
sI69883
I2
stp148
Rp149
sg21
g22
(S'\x07\xdf\x0c\t'
p150
tp151
Rp152
sg26
I300
sg27
I100
sg28
I18
sba(i__main__
DayData
p153
(dp154
g3
I50
sg4
I100
sg5
I282
sg6
g7
sg8
I400
sg9
I4
sg10
g11
((dp155
S'Snoedekke'
p156
I1
sS'Bilde'
p157
I1
sS'Observert vaer'
p158
I2
stp159
Rp160
sg17
g11
((dp161
I70166
I1
sI70071
I3
stp162
Rp163
sg21
g22
(S'\x07\xdf\x0c\n'
p164
tp165
Rp166
sg26
I400
sg27
I100
sg28
I4
sba(i__main__
DayData
p167
(dp168
g3
I50
sg4
I100
sg5
I282
sg6
g7
sg8
I400
sg9
I5
sg10
g11
((dp169
S'Snoedekke'
p170
I2
sS'Skredfarevurdering (2014)'
p171
I2
sS'Faretegn'
p172
I4
sS'Observert vaer'
p173
I3
sS'Skredproblem (2014)'
p174
I4
sS'Kompresjonstest'
p175
I1
sg39
I2
stp176
Rp177
sg17
g11
((dp178
I70261
I8
sI70262
I9
sI70215
I1
stp179
Rp180
sg21
g22
(S'\x07\xdf\x0c\x0b'
p181
tp182
Rp183
sg26
I500
sg27
I100
sg28
I18
sba(i__main__
DayData
p184
(dp185
g3
I50
sg4
I100
sg5
I282
sg6
g7
sg8
I400
sg9
I6
sg10
g11
((dp186
S'Snoedekke'
p187
I1
sS'Bilde'
p188
I1
sS'Observert vaer'
p189
I1
stp190
Rp191
sg17
g11
((dp192
I70324
I3
stp193
Rp194
sg21
g22
(S'\x07\xdf\x0c\x0c'
p195
tp196
Rp197
sg26
I600
sg27
I100
sg28
I3
sba(i__main__
DayData
p198
(dp199
g3
I50
sg4
I100
sg5
I282
sg6
S'white'
p200
sg8
I400
sg9
I7
sg10
g11
((dp201
tp202
Rp203
sg17
g11
((dp204
tp205
Rp206
sg21
g22
(S'\x07\xdf\x0c\r'
p207
tp208
Rp209
sg26
I700
sg27
I100
sg28
I0
sba(i__main__
DayData
p210
(dp211
g3
I51
sg4
I100
sg5
I282
sg6
g7
sg8
I300
sg9
I1
sg10
g11
((dp212
S'Snoedekke'
p213
I1
sS'Faretegn'
p214
I1
sS'Observert vaer'
p215
I2
sS'Observert skred'
p216
I1
sS'Skredfarevurdering (2014)'
p217
I1
sS'Skredproblem (2014)'
p218
I1
sS'Bilde'
p219
I4
sg39
I1
stp220
Rp221
sg17
g11
((dp222
I70569
I3
sI70638
I7
sI70591
I2
stp223
Rp224
sg21
g22
(S'\x07\xdf\x0c\x0e'
p225
tp226
Rp227
sg26
I100
sg27
I100
sg28
I12
sba(i__main__
DayData
p228
(dp229
g3
I51
sg4
I100
sg5
I282
sg6
g7
sg8
I300
sg9
I2
sg10
g11
((dp230
S'Snoedekke'
p231
I1
sS'Skredfarevurdering (2014)'
p232
I1
sS'Observert skredaktivitet'
p233
I1
sS'Observert vaer'
p234
I1
sS'Faretegn'
p235
I1
sS'Skredproblem (2014)'
p236
I1
sS'Bilde'
p237
I3
stp238
Rp239
sg17
g11
((dp240
I70722
I2
sI70733
I7
stp241
Rp242
sg21
g22
(S'\x07\xdf\x0c\x0f'
p243
tp244
Rp245
sg26
I200
sg27
I100
sg28
I9
sba(i__main__
DayData
p246
(dp247
g3
I51
sg4
I100
sg5
I282
sg6
g7
sg8
I300
sg9
I3
sg10
g11
((dp248
S'Snoedekke'
p249
I1
sS'Observert vaer'
p250
I2
sS'Faretegn'
p251
I1
sS'Skredfarevurdering (2014)'
p252
I1
sS'Skredproblem (2014)'
p253
I1
sS'Observert skredaktivitet'
p254
I1
sS'Bilde'
p255
I3
sg39
I1
stp256
Rp257
sg17
g11
((dp258
I70953
I1
sI70930
I10
stp259
Rp260
sg21
g22
(S'\x07\xdf\x0c\x10'
p261
tp262
Rp263
sg26
I300
sg27
I100
sg28
I11
sba(i__main__
DayData
p264
(dp265
g3
I51
sg4
I100
sg5
I282
sg6
g7
sg8
I300
sg9
I4
sg10
g11
((dp266
S'Snoedekke'
p267
I1
stp268
Rp269
sg17
g11
((dp270
I71076
I1
stp271
Rp272
sg21
g22
(S'\x07\xdf\x0c\x11'
p273
tp274
Rp275
sg26
I400
sg27
I100
sg28
I1
sba(i__main__
DayData
p276
(dp277
g3
I51
sg4
I100
sg5
I282
sg6
g200
sg8
I300
sg9
I5
sg10
g11
((dp278
tp279
Rp280
sg17
g11
((dp281
tp282
Rp283
sg21
g22
(S'\x07\xdf\x0c\x12'
p284
tp285
Rp286
sg26
I500
sg27
I100
sg28
I0
sba(i__main__
DayData
p287
(dp288
g3
I51
sg4
I100
sg5
I282
sg6
g200
sg8
I300
sg9
I6
sg10
g11
((dp289
tp290
Rp291
sg17
g11
((dp292
tp293
Rp294
sg21
g22
(S'\x07\xdf\x0c\x13'
p295
tp296
Rp297
sg26
I600
sg27
I100
sg28
I0
sba(i__main__
DayData
p298
(dp299
g3
I51
sg4
I100
sg5
I282
sg6
g200
sg8
I300
sg9
I7
sg10
g11
((dp300
tp301
Rp302
sg17
g11
((dp303
tp304
Rp305
sg21
g22
(S'\x07\xdf\x0c\x14'
p306
tp307
Rp308
sg26
I700
sg27
I100
sg28
I0
sba(i__main__
DayData
p309
(dp310
g3
I52
sg4
I100
sg5
I282
sg6
g7
sg8
I200
sg9
I1
sg10
g11
((dp311
S'Snoedekke'
p312
I1
sS'Skredfarevurdering (2014)'
p313
I1
sS'Observert skredaktivitet'
p314
I1
sS'Observert vaer'
p315
I1
sS'Faretegn'
p316
I1
sS'Skredproblem (2014)'
p317
I1
sS'Bilde'
p318
I2
stp319
Rp320
sg17
g11
((dp321
I71526
I8
stp322
Rp323
sg21
g22
(S'\x07\xdf\x0c\x15'
p324
tp325
Rp326
sg26
I100
sg27
I100
sg28
I8
sba(i__main__
DayData
p327
(dp328
g3
I52
sg4
I100
sg5
I282
sg6
g7
sg8
I200
sg9
I2
sg10
g11
((dp329
S'Observert vaer'
p330
I1
stp331
Rp332
sg17
g11
((dp333
I71689
I1
stp334
Rp335
sg21
g22
(S'\x07\xdf\x0c\x16'
p336
tp337
Rp338
sg26
I200
sg27
I100
sg28
I1
sba(i__main__
DayData
p339
(dp340
g3
I52
sg4
I100
sg5
I282
sg6
g7
sg8
I200
sg9
I3
sg10
g11
((dp341
S'Snoedekke'
p342
I2
sS'Skredfarevurdering (2014)'
p343
I2
sS'Observert skredaktivitet'
p344
I2
sS'Observert vaer'
p345
I2
sS'Faretegn'
p346
I2
sS'Skredproblem (2014)'
p347
I2
sg39
I1
stp348
Rp349
sg17
g11
((dp350
I71770
I7
sI71771
I6
stp351
Rp352
sg21
g22
(S'\x07\xdf\x0c\x17'
p353
tp354
Rp355
sg26
I300
sg27
I100
sg28
I13
sba(i__main__
DayData
p356
(dp357
g3
I52
sg4
I100
sg5
I282
sg6
g200
sg8
I200
sg9
I4
sg10
g11
((dp358
tp359
Rp360
sg17
g11
((dp361
tp362
Rp363
sg21
g22
(S'\x07\xdf\x0c\x18'
p364
tp365
Rp366
sg26
I400
sg27
I100
sg28
I0
sba(i__main__
DayData
p367
(dp368
g3
I52
sg4
I100
sg5
I282
sg6
g7
sg8
I200
sg9
I5
sg10
g11
((dp369
S'Snoedekke'
p370
I3
sS'Skredfarevurdering (2014)'
p371
I1
sS'Observert skredaktivitet'
p372
I1
sS'Bilde'
p373
I5
sS'Faretegn'
p374
I3
sS'Skredproblem (2014)'
p375
I1
sg39
I1
stp376
Rp377
sg17
g11
((dp378
I71937
I5
sI71921
I3
sI71913
I2
sI71915
I2
sI71932
I1
sI71935
I2
stp379
Rp380
sg21
g22
(S'\x07\xdf\x0c\x19'
p381
tp382
Rp383
sg26
I500
sg27
I100
sg28
I15
sba(i__main__
DayData
p384
(dp385
g3
I52
sg4
I100
sg5
I282
sg6
g200
sg8
I200
sg9
I6
sg10
g11
((dp386
tp387
Rp388
sg17
g11
((dp389
tp390
Rp391
sg21
g22
(S'\x07\xdf\x0c\x1a'
p392
tp393
Rp394
sg26
I600
sg27
I100
sg28
I0
sba(i__main__
DayData
p395
(dp396
g3
I52
sg4
I100
sg5
I282
sg6
g200
sg8
I200
sg9
I7
sg10
g11
((dp397
tp398
Rp399
sg17
g11
((dp400
tp401
Rp402
sg21
g22
(S'\x07\xdf\x0c\x1b'
p403
tp404
Rp405
sg26
I700
sg27
I100
sg28
I0
sba(i__main__
DayData
p406
(dp407
g3
I53
sg4
I100
sg5
I282
sg6
g7
sg8
I100
sg9
I1
sg10
g11
((dp408
S'Snoedekke'
p409
I3
sS'Skredfarevurdering (2014)'
p410
I1
sS'Observert skredaktivitet'
p411
I1
sS'Observert vaer'
p412
I1
sS'Faretegn'
p413
I1
sS'Skredproblem (2014)'
p414
I1
sS'Bilde'
p415
I6
stp416
Rp417
sg17
g11
((dp418
I72307
I2
sI72299
I2
sI72323
I8
sI72310
I2
stp419
Rp420
sg21
g22
(S'\x07\xdf\x0c\x1c'
p421
tp422
Rp423
sg26
I100
sg27
I100
sg28
I14
sba(i__main__
DayData
p424
(dp425
g3
I53
sg4
I100
sg5
I282
sg6
g200
sg8
I100
sg9
I2
sg10
g11
((dp426
tp427
Rp428
sg17
g11
((dp429
tp430
Rp431
sg21
g22
(S'\x07\xdf\x0c\x1d'
p432
tp433
Rp434
sg26
I200
sg27
I100
sg28
I0
sba(i__main__
DayData
p435
(dp436
g3
I53
sg4
I100
sg5
I282
sg6
g7
sg8
I100
sg9
I3
sg10
g11
((dp437
S'Snoedekke'
p438
I2
sS'Skredfarevurdering (2014)'
p439
I1
sS'Observert skredaktivitet'
p440
I1
sS'Faretegn'
p441
I2
sS'Observert vaer'
p442
I3
sS'Skredproblem (2014)'
p443
I1
sS'Bilde'
p444
I2
stp445
Rp446
sg17
g11
((dp447
I72608
I1
sI72580
I1
sI72567
I2
sI72568
I3
sI72596
I1
sI72587
I4
stp448
Rp449
sg21
g22
(S'\x07\xdf\x0c\x1e'
p450
tp451
Rp452
sg26
I300
sg27
I100
sg28
I12
sba(i__main__
DayData
p453
(dp454
g3
I53
sg4
I100
sg5
I282
sg6
g200
sg8
I100
sg9
I4
sg10
g11
((dp455
tp456
Rp457
sg17
g11
((dp458
tp459
Rp460
sg21
g22
(S'\x07\xdf\x0c\x1f'
p461
tp462
Rp463
sg26
I400
sg27
I100
sg28
I0
sba.