(lp0
(i__main__
DayData
p1
(dp2
S'obs_pr_regid'
p3
(dp4
sS'loc_pr_regid'
p5
(dp6
sS'week_no'
p7
I45
sS'box_size_x'
p8
I100
sS'observer_id'
p9
I282
sS'cell_colour'
p10
S'white'
p11
sS'y'
p12
I0
sS'week_day'
p13
I5
sS'observations'
p14
ccollections
Counter
p15
((dp16
tp17
Rp18
sS'reg_ids'
p19
g15
((dp20
tp21
Rp22
sS'date'
p23
cdatetime
date
p24
(S'\x07\xdf\x0b\x06'
p25
tp26
Rp27
sS'x'
p28
I500
sS'box_size_y'
p29
I100
sS'number_obs'
p30
I0
sba(i__main__
DayData
p31
(dp32
g3
(dp33
sg5
(dp34
sg7
I45
sg8
I100
sg9
I282
sg10
g11
sg12
I0
sg13
I6
sg14
g15
((dp35
tp36
Rp37
sg19
g15
((dp38
tp39
Rp40
sg23
g24
(S'\x07\xdf\x0b\x07'
p41
tp42
Rp43
sg28
I600
sg29
I100
sg30
I0
sba(i__main__
DayData
p44
(dp45
g3
(dp46
sg5
(dp47
sg7
I45
sg8
I100
sg9
I282
sg10
g11
sg12
I0
sg13
I7
sg14
g15
((dp48
tp49
Rp50
sg19
g15
((dp51
tp52
Rp53
sg23
g24
(S'\x07\xdf\x0b\x08'
p54
tp55
Rp56
sg28
I700
sg29
I100
sg30
I0
sba(i__main__
DayData
p57
(dp58
g3
(dp59
sg5
(dp60
sg7
I46
sg8
I100
sg9
I282
sg10
g11
sg12
I-100
sg13
I1
sg14
g15
((dp61
tp62
Rp63
sg19
g15
((dp64
tp65
Rp66
sg23
g24
(S'\x07\xdf\x0b\t'
p67
tp68
Rp69
sg28
I100
sg29
I100
sg30
I0
sba(i__main__
DayData
p70
(dp71
g3
(dp72
sg5
(dp73
sg7
I46
sg8
I100
sg9
I282
sg10
g11
sg12
I-100
sg13
I2
sg14
g15
((dp74
tp75
Rp76
sg19
g15
((dp77
tp78
Rp79
sg23
g24
(S'\x07\xdf\x0b\n'
p80
tp81
Rp82
sg28
I200
sg29
I100
sg30
I0
sba(i__main__
DayData
p83
(dp84
g3
(dp85
sg5
(dp86
sg7
I46
sg8
I100
sg9
I282
sg10
g11
sg12
I-100
sg13
I3
sg14
g15
((dp87
tp88
Rp89
sg19
g15
((dp90
tp91
Rp92
sg23
g24
(S'\x07\xdf\x0b\x0b'
p93
tp94
Rp95
sg28
I300
sg29
I100
sg30
I0
sba(i__main__
DayData
p96
(dp97
g3
(dp98
sg5
(dp99
sg7
I46
sg8
I100
sg9
I282
sg10
g11
sg12
I-100
sg13
I4
sg14
g15
((dp100
tp101
Rp102
sg19
g15
((dp103
tp104
Rp105
sg23
g24
(S'\x07\xdf\x0b\x0c'
p106
tp107
Rp108
sg28
I400
sg29
I100
sg30
I0
sba(i__main__
DayData
p109
(dp110
g3
(dp111
sg5
(dp112
sg7
I46
sg8
I100
sg9
I282
sg10
g11
sg12
I-100
sg13
I5
sg14
g15
((dp113
tp114
Rp115
sg19
g15
((dp116
tp117
Rp118
sg23
g24
(S'\x07\xdf\x0b\r'
p119
tp120
Rp121
sg28
I500
sg29
I100
sg30
I0
sba(i__main__
DayData
p122
(dp123
g3
(dp124
sg5
(dp125
sg7
I46
sg8
I100
sg9
I282
sg10
g11
sg12
I-100
sg13
I6
sg14
g15
((dp126
tp127
Rp128
sg19
g15
((dp129
tp130
Rp131
sg23
g24
(S'\x07\xdf\x0b\x0e'
p132
tp133
Rp134
sg28
I600
sg29
I100
sg30
I0
sba(i__main__
DayData
p135
(dp136
g3
(dp137
sg5
(dp138
sg7
I46
sg8
I100
sg9
I282
sg10
g11
sg12
I-100
sg13
I7
sg14
g15
((dp139
tp140
Rp141
sg19
g15
((dp142
tp143
Rp144
sg23
g24
(S'\x07\xdf\x0b\x0f'
p145
tp146
Rp147
sg28
I700
sg29
I100
sg30
I0
sba(i__main__
DayData
p148
(dp149
g3
(dp150
sg5
(dp151
sg7
I47
sg8
I100
sg9
I282
sg10
g11
sg12
I-200
sg13
I1
sg14
g15
((dp152
tp153
Rp154
sg19
g15
((dp155
tp156
Rp157
sg23
g24
(S'\x07\xdf\x0b\x10'
p158
tp159
Rp160
sg28
I100
sg29
I100
sg30
I0
sba(i__main__
DayData
p161
(dp162
g3
(dp163
sg5
(dp164
sg7
I47
sg8
I100
sg9
I282
sg10
g11
sg12
I-200
sg13
I2
sg14
g15
((dp165
tp166
Rp167
sg19
g15
((dp168
tp169
Rp170
sg23
g24
(S'\x07\xdf\x0b\x11'
p171
tp172
Rp173
sg28
I200
sg29
I100
sg30
I0
sba(i__main__
DayData
p174
(dp175
g3
(dp176
sg5
(dp177
sg7
I47
sg8
I100
sg9
I282
sg10
g11
sg12
I-200
sg13
I3
sg14
g15
((dp178
tp179
Rp180
sg19
g15
((dp181
tp182
Rp183
sg23
g24
(S'\x07\xdf\x0b\x12'
p184
tp185
Rp186
sg28
I300
sg29
I100
sg30
I0
sba(i__main__
DayData
p187
(dp188
g3
(dp189
sg5
(dp190
sg7
I47
sg8
I100
sg9
I282
sg10
g11
sg12
I-200
sg13
I4
sg14
g15
((dp191
tp192
Rp193
sg19
g15
((dp194
tp195
Rp196
sg23
g24
(S'\x07\xdf\x0b\x13'
p197
tp198
Rp199
sg28
I400
sg29
I100
sg30
I0
sba(i__main__
DayData
p200
(dp201
g3
(dp202
I68158
(lp203
S'Faretegn'
p204
aS'Observert vaer'
p205
assg5
(dp206
I68158
S'Sogn'
p207
ssg7
I47
sg8
I100
sg9
I282
sg10
S'gainsboro'
p208
sg12
I-200
sg13
I5
sg14
g15
((dp209
g204
I1
sg205
I1
stp210
Rp211
sg19
g15
((dp212
I68158
I2
stp213
Rp214
sg23
g24
(S'\x07\xdf\x0b\x14'
p215
tp216
Rp217
sg28
I500
sg29
I100
sg30
I2
sba(i__main__
DayData
p218
(dp219
g3
(dp220
I68162
(lp221
S'Bilde'
p222
aS'Faretegn'
p223
aS'Observert vaer'
p224
assg5
(dp225
I68162
S'Sogn'
p226
ssg7
I47
sg8
I100
sg9
I282
sg10
g208
sg12
I-200
sg13
I6
sg14
g15
((dp227
g223
I1
sg222
I1
sg224
I1
stp228
Rp229
sg19
g15
((dp230
I68162
I3
stp231
Rp232
sg23
g24
(S'\x07\xdf\x0b\x15'
p233
tp234
Rp235
sg28
I600
sg29
I100
sg30
I3
sba(i__main__
DayData
p236
(dp237
g3
(dp238
sg5
(dp239
sg7
I47
sg8
I100
sg9
I282
sg10
g11
sg12
I-200
sg13
I7
sg14
g15
((dp240
tp241
Rp242
sg19
g15
((dp243
tp244
Rp245
sg23
g24
(S'\x07\xdf\x0b\x16'
p246
tp247
Rp248
sg28
I700
sg29
I100
sg30
I0
sba(i__main__
DayData
p249
(dp250
g3
(dp251
sg5
(dp252
sg7
I48
sg8
I100
sg9
I282
sg10
g11
sg12
I-300
sg13
I1
sg14
g15
((dp253
tp254
Rp255
sg19
g15
((dp256
tp257
Rp258
sg23
g24
(S'\x07\xdf\x0b\x17'
p259
tp260
Rp261
sg28
I100
sg29
I100
sg30
I0
sba(i__main__
DayData
p262
(dp263
g3
(dp264
I68293
(lp265
S'Snoedekke'
p266
assg5
(dp267
I68293
S'Sogn'
p268
ssg7
I48
sg8
I100
sg9
I282
sg10
g208
sg12
I-300
sg13
I2
sg14
g15
((dp269
g266
I1
stp270
Rp271
sg19
g15
((dp272
I68293
I1
stp273
Rp274
sg23
g24
(S'\x07\xdf\x0b\x18'
p275
tp276
Rp277
sg28
I200
sg29
I100
sg30
I1
sba(i__main__
DayData
p278
(dp279
g3
(dp280
sg5
(dp281
sg7
I48
sg8
I100
sg9
I282
sg10
g11
sg12
I-300
sg13
I3
sg14
g15
((dp282
tp283
Rp284
sg19
g15
((dp285
tp286
Rp287
sg23
g24
(S'\x07\xdf\x0b\x19'
p288
tp289
Rp290
sg28
I300
sg29
I100
sg30
I0
sba(i__main__
DayData
p291
(dp292
g3
(dp293
sg5
(dp294
sg7
I48
sg8
I100
sg9
I282
sg10
g11
sg12
I-300
sg13
I4
sg14
g15
((dp295
tp296
Rp297
sg19
g15
((dp298
tp299
Rp300
sg23
g24
(S'\x07\xdf\x0b\x1a'
p301
tp302
Rp303
sg28
I400
sg29
I100
sg30
I0
sba(i__main__
DayData
p304
(dp305
g3
(dp306
sg5
(dp307
sg7
I48
sg8
I100
sg9
I282
sg10
g11
sg12
I-300
sg13
I5
sg14
g15
((dp308
tp309
Rp310
sg19
g15
((dp311
tp312
Rp313
sg23
g24
(S'\x07\xdf\x0b\x1b'
p314
tp315
Rp316
sg28
I500
sg29
I100
sg30
I0
sba(i__main__
DayData
p317
(dp318
g3
(dp319
I68570
(lp320
S'Bilde'
p321
aS'Bilde'
p322
aS'Observert vaer'
p323
asI68583
(lp324
S'Bilde'
p325
aS'Bilde'
p326
aS'Bilde'
p327
aS'Faretegn'
p328
aS'Observert vaer'
p329
aS'Snoedekke'
p330
aS'Skredfarevurdering'
p331
aS'Skredproblem'
p332
asI68574
(lp333
S'Bilde'
p334
aS'Observert skred'
p335
asI68575
(lp336
S'Bilde'
p337
aS'Snoedekke'
p338
assg5
(dp339
I68570
S'Sogn'
p340
sI68583
S'Sogn'
p341
sI68574
S'Sogn'
p342
sI68575
S'Sogn'
p343
ssg7
I48
sg8
I100
sg9
I282
sg10
g208
sg12
I-300
sg13
I6
sg14
g15
((dp344
g338
I2
sg332
I1
sg328
I1
sg323
I2
sg335
I1
sg331
I1
sg321
I5
sS'Snoeprofil'
p345
I2
stp346
Rp347
sg19
g15
((dp348
I68570
I3
sI68575
I2
sI68574
I2
sI68583
I8
stp349
Rp350
sg23
g24
(S'\x07\xdf\x0b\x1c'
p351
tp352
Rp353
sg28
I600
sg29
I100
sg30
I15
sba(i__main__
DayData
p354
(dp355
g3
(dp356
I68602
(lp357
S'Bilde'
p358
aS'Observert vaer'
p359
aS'Snoedekke'
p360
assg5
(dp361
I68602
S'Sogn'
p362
ssg7
I48
sg8
I100
sg9
I282
sg10
g208
sg12
I-300
sg13
I7
sg14
g15
((dp363
g360
I1
sg358
I1
sg359
I1
stp364
Rp365
sg19
g15
((dp366
I68602
I3
stp367
Rp368
sg23
g24
(S'\x07\xdf\x0b\x1d'
p369
tp370
Rp371
sg28
I700
sg29
I100
sg30
I3
sba(i__main__
DayData
p372
(dp373
g3
(dp374
I68632
(lp375
S'Bilde'
p376
aS'Observert vaer'
p377
aS'Snoedekke'
p378
asI68697
(lp379
S'Bilde'
p380
aS'Bilde'
p381
aS'Observert vaer'
p382
asI68658
(lp383
S'Bilde'
p384
aS'Snoedekke'
p385
asI68708
(lp386
S'Bilde'
p387
aS'Bilde'
p388
aS'Bilde'
p389
aS'Snoedekke'
p390
asI68728
(lp391
S'Bilde'
p392
aS'Faretegn'
p393
aS'Observert skredaktivitet(2014)'
p394
aS'Skredfarevurdering'
p395
aS'Skredproblem'
p396
assg5
(dp397
I68632
S'Sogn'
p398
sI68697
S'Sogn'
p399
sI68658
S'Sogn'
p400
sI68708
S'Sogn'
p401
sI68728
S'Sogn'
p402
ssg7
I49
sg8
I100
sg9
I282
sg10
g208
sg12
I-400
sg13
I1
sg14
g15
((dp403
g378
I3
sg396
I1
sg394
I1
sg393
I1
sg377
I2
sg395
I1
sg376
I6
sg345
I2
stp404
Rp405
sg19
g15
((dp406
I68632
I3
sI68697
I3
sI68658
I2
sI68708
I4
sI68728
I5
stp407
Rp408
sg23
g24
(S'\x07\xdf\x0b\x1e'
p409
tp410
Rp411
sg28
I100
sg29
I100
sg30
I17
sba.