(lp0
(i__main__
DayData
p1
(dp2
S'week_no'
p3
I45
sS'box_size_x'
p4
I100
sS'observer_id'
p5
I325
sS'cell_colour'
p6
S'white'
p7
sS'y'
p8
I500
sS'week_day'
p9
I5
sS'observations'
p10
ccollections
Counter
p11
((dp12
tp13
Rp14
sS'reg_ids'
p15
g11
((dp16
tp17
Rp18
sS'date'
p19
cdatetime
date
p20
(S'\x07\xdf\x0b\x06'
p21
tp22
Rp23
sS'x'
p24
I500
sS'box_size_y'
p25
I100
sS'number_obs'
p26
I0
sba(i__main__
DayData
p27
(dp28
g3
I45
sg4
I100
sg5
I325
sg6
g7
sg8
I500
sg9
I6
sg10
g11
((dp29
tp30
Rp31
sg15
g11
((dp32
tp33
Rp34
sg19
g20
(S'\x07\xdf\x0b\x07'
p35
tp36
Rp37
sg24
I600
sg25
I100
sg26
I0
sba(i__main__
DayData
p38
(dp39
g3
I45
sg4
I100
sg5
I325
sg6
g7
sg8
I500
sg9
I7
sg10
g11
((dp40
tp41
Rp42
sg15
g11
((dp43
tp44
Rp45
sg19
g20
(S'\x07\xdf\x0b\x08'
p46
tp47
Rp48
sg24
I700
sg25
I100
sg26
I0
sba(i__main__
DayData
p49
(dp50
g3
I46
sg4
I100
sg5
I325
sg6
g7
sg8
I400
sg9
I1
sg10
g11
((dp51
tp52
Rp53
sg15
g11
((dp54
tp55
Rp56
sg19
g20
(S'\x07\xdf\x0b\t'
p57
tp58
Rp59
sg24
I100
sg25
I100
sg26
I0
sba(i__main__
DayData
p60
(dp61
g3
I46
sg4
I100
sg5
I325
sg6
g7
sg8
I400
sg9
I2
sg10
g11
((dp62
tp63
Rp64
sg15
g11
((dp65
tp66
Rp67
sg19
g20
(S'\x07\xdf\x0b\n'
p68
tp69
Rp70
sg24
I200
sg25
I100
sg26
I0
sba(i__main__
DayData
p71
(dp72
g3
I46
sg4
I100
sg5
I325
sg6
g7
sg8
I400
sg9
I3
sg10
g11
((dp73
tp74
Rp75
sg15
g11
((dp76
tp77
Rp78
sg19
g20
(S'\x07\xdf\x0b\x0b'
p79
tp80
Rp81
sg24
I300
sg25
I100
sg26
I0
sba(i__main__
DayData
p82
(dp83
g3
I46
sg4
I100
sg5
I325
sg6
g7
sg8
I400
sg9
I4
sg10
g11
((dp84
tp85
Rp86
sg15
g11
((dp87
tp88
Rp89
sg19
g20
(S'\x07\xdf\x0b\x0c'
p90
tp91
Rp92
sg24
I400
sg25
I100
sg26
I0
sba(i__main__
DayData
p93
(dp94
g3
I46
sg4
I100
sg5
I325
sg6
g7
sg8
I400
sg9
I5
sg10
g11
((dp95
tp96
Rp97
sg15
g11
((dp98
tp99
Rp100
sg19
g20
(S'\x07\xdf\x0b\r'
p101
tp102
Rp103
sg24
I500
sg25
I100
sg26
I0
sba(i__main__
DayData
p104
(dp105
g3
I46
sg4
I100
sg5
I325
sg6
g7
sg8
I400
sg9
I6
sg10
g11
((dp106
tp107
Rp108
sg15
g11
((dp109
tp110
Rp111
sg19
g20
(S'\x07\xdf\x0b\x0e'
p112
tp113
Rp114
sg24
I600
sg25
I100
sg26
I0
sba(i__main__
DayData
p115
(dp116
g3
I46
sg4
I100
sg5
I325
sg6
g7
sg8
I400
sg9
I7
sg10
g11
((dp117
tp118
Rp119
sg15
g11
((dp120
tp121
Rp122
sg19
g20
(S'\x07\xdf\x0b\x0f'
p123
tp124
Rp125
sg24
I700
sg25
I100
sg26
I0
sba(i__main__
DayData
p126
(dp127
g3
I47
sg4
I100
sg5
I325
sg6
g7
sg8
I300
sg9
I1
sg10
g11
((dp128
tp129
Rp130
sg15
g11
((dp131
tp132
Rp133
sg19
g20
(S'\x07\xdf\x0b\x10'
p134
tp135
Rp136
sg24
I100
sg25
I100
sg26
I0
sba(i__main__
DayData
p137
(dp138
g3
I47
sg4
I100
sg5
I325
sg6
S'gray'
p139
sg8
I300
sg9
I2
sg10
g11
((dp140
S'Snoedekke'
p141
I1
sS'Skredfarevurdering (2014)'
p142
I1
sS'Bilde'
p143
I3
sS'Observert vaer'
p144
I1
sS'Fritekstfelt'
p145
I1
stp146
Rp147
sg15
g11
((dp148
I67697
I2
sI67694
I5
stp149
Rp150
sg19
g20
(S'\x07\xdf\x0b\x11'
p151
tp152
Rp153
sg24
I200
sg25
I100
sg26
I7
sba(i__main__
DayData
p154
(dp155
g3
I47
sg4
I100
sg5
I325
sg6
g7
sg8
I300
sg9
I3
sg10
g11
((dp156
tp157
Rp158
sg15
g11
((dp159
tp160
Rp161
sg19
g20
(S'\x07\xdf\x0b\x12'
p162
tp163
Rp164
sg24
I300
sg25
I100
sg26
I0
sba(i__main__
DayData
p165
(dp166
g3
I47
sg4
I100
sg5
I325
sg6
g7
sg8
I300
sg9
I4
sg10
g11
((dp167
tp168
Rp169
sg15
g11
((dp170
tp171
Rp172
sg19
g20
(S'\x07\xdf\x0b\x13'
p173
tp174
Rp175
sg24
I400
sg25
I100
sg26
I0
sba(i__main__
DayData
p176
(dp177
g3
I47
sg4
I100
sg5
I325
sg6
g7
sg8
I300
sg9
I5
sg10
g11
((dp178
tp179
Rp180
sg15
g11
((dp181
tp182
Rp183
sg19
g20
(S'\x07\xdf\x0b\x14'
p184
tp185
Rp186
sg24
I500
sg25
I100
sg26
I0
sba(i__main__
DayData
p187
(dp188
g3
I47
sg4
I100
sg5
I325
sg6
g139
sg8
I300
sg9
I6
sg10
g11
((dp189
S'Fritekstfelt'
p190
I1
sS'Bilde'
p191
I1
stp192
Rp193
sg15
g11
((dp194
I68178
I2
stp195
Rp196
sg19
g20
(S'\x07\xdf\x0b\x15'
p197
tp198
Rp199
sg24
I600
sg25
I100
sg26
I2
sba(i__main__
DayData
p200
(dp201
g3
I47
sg4
I100
sg5
I325
sg6
g7
sg8
I300
sg9
I7
sg10
g11
((dp202
tp203
Rp204
sg15
g11
((dp205
tp206
Rp207
sg19
g20
(S'\x07\xdf\x0b\x16'
p208
tp209
Rp210
sg24
I700
sg25
I100
sg26
I0
sba(i__main__
DayData
p211
(dp212
g3
I48
sg4
I100
sg5
I325
sg6
g7
sg8
I200
sg9
I1
sg10
g11
((dp213
tp214
Rp215
sg15
g11
((dp216
tp217
Rp218
sg19
g20
(S'\x07\xdf\x0b\x17'
p219
tp220
Rp221
sg24
I100
sg25
I100
sg26
I0
sba(i__main__
DayData
p222
(dp223
g3
I48
sg4
I100
sg5
I325
sg6
g139
sg8
I200
sg9
I2
sg10
g11
((dp224
S'Snoedekke'
p225
I1
sS'Skredfarevurdering (2014)'
p226
I1
sS'Observert vaer'
p227
I1
sS'Faretegn'
p228
I1
sS'Skredproblem (2014)'
p229
I1
sS'Snoeprofil'
p230
I2
sS'Bilde'
p231
I9
stp232
Rp233
sg15
g11
((dp234
I68315
I16
stp235
Rp236
sg19
g20
(S'\x07\xdf\x0b\x18'
p237
tp238
Rp239
sg24
I200
sg25
I100
sg26
I16
sba(i__main__
DayData
p240
(dp241
g3
I48
sg4
I100
sg5
I325
sg6
g7
sg8
I200
sg9
I3
sg10
g11
((dp242
tp243
Rp244
sg15
g11
((dp245
tp246
Rp247
sg19
g20
(S'\x07\xdf\x0b\x19'
p248
tp249
Rp250
sg24
I300
sg25
I100
sg26
I0
sba(i__main__
DayData
p251
(dp252
g3
I48
sg4
I100
sg5
I325
sg6
g139
sg8
I200
sg9
I4
sg10
g11
((dp253
S'Snoedekke'
p254
I1
sS'Skredfarevurdering (2014)'
p255
I1
sS'Observert vaer'
p256
I1
sS'Faretegn'
p257
I1
sS'Skredproblem (2014)'
p258
I1
sg230
I1
sS'Bilde'
p259
I3
stp260
Rp261
sg15
g11
((dp262
I68492
I9
stp263
Rp264
sg19
g20
(S'\x07\xdf\x0b\x1a'
p265
tp266
Rp267
sg24
I400
sg25
I100
sg26
I9
sba(i__main__
DayData
p268
(dp269
g3
I48
sg4
I100
sg5
I325
sg6
g139
sg8
I200
sg9
I5
sg10
g11
((dp270
S'Bilde'
p271
I2
sS'Observert vaer'
p272
I1
stp273
Rp274
sg15
g11
((dp275
I68556
I1
sI68557
I2
stp276
Rp277
sg19
g20
(S'\x07\xdf\x0b\x1b'
p278
tp279
Rp280
sg24
I500
sg25
I100
sg26
I3
sba(i__main__
DayData
p281
(dp282
g3
I48
sg4
I100
sg5
I325
sg6
g139
sg8
I200
sg9
I6
sg10
g11
((dp283
S'Snoedekke'
p284
I1
sS'Observert vaer'
p285
I1
sS'Faretegn'
p286
I1
sS'Skredfarevurdering (2014)'
p287
I1
sS'Skredproblem (2014)'
p288
I1
sS'Observert skredaktivitet'
p289
I1
sS'Bilde'
p290
I9
sg230
I2
stp291
Rp292
sg15
g11
((dp293
I68597
I17
stp294
Rp295
sg19
g20
(S'\x07\xdf\x0b\x1c'
p296
tp297
Rp298
sg24
I600
sg25
I100
sg26
I17
sba(i__main__
DayData
p299
(dp300
g3
I48
sg4
I100
sg5
I325
sg6
g139
sg8
I200
sg9
I7
sg10
g11
((dp301
S'Snoedekke'
p302
I1
sS'Observert vaer'
p303
I1
stp304
Rp305
sg15
g11
((dp306
I68627
I2
stp307
Rp308
sg19
g20
(S'\x07\xdf\x0b\x1d'
p309
tp310
Rp311
sg24
I700
sg25
I100
sg26
I2
sba(i__main__
DayData
p312
(dp313
g3
I49
sg4
I100
sg5
I325
sg6
g139
sg8
I100
sg9
I1
sg10
g11
((dp314
S'Fritekstfelt'
p315
I1
stp316
Rp317
sg15
g11
((dp318
I68752
I1
stp319
Rp320
sg19
g20
(S'\x07\xdf\x0b\x1e'
p321
tp322
Rp323
sg24
I100
sg25
I100
sg26
I1
sba.