(lp0
(i__main__
DayData
p1
(dp2
S'obs_pr_regid'
p3
(dp4
I68946
(lp5
S'Bilde'
p6
aS'Bilde'
p7
aS'Bilde'
p8
aS'Bilde'
p9
aS'Observert vaer'
p10
aS'Snoedekke'
p11
assS'loc_pr_regid'
p12
(dp13
I68946
S'Telemark'
p14
ssS'week_no'
p15
I49
sS'box_size_x'
p16
I100
sS'observer_id'
p17
I325
sS'cell_colour'
p18
S'gainsboro'
p19
sS'y'
p20
I0
sS'week_day'
p21
I2
sS'observations'
p22
ccollections
Counter
p23
((dp24
g11
I1
sg6
I4
sg10
I1
stp25
Rp26
sS'reg_ids'
p27
g23
((dp28
I68946
I6
stp29
Rp30
sS'date'
p31
cdatetime
date
p32
(S'\x07\xdf\x0c\x01'
p33
tp34
Rp35
sS'x'
p36
I200
sS'box_size_y'
p37
I100
sS'number_obs'
p38
I6
sba(i__main__
DayData
p39
(dp40
g3
(dp41
sg12
(dp42
sg15
I49
sg16
I100
sg17
I325
sg18
S'white'
p43
sg20
I0
sg21
I3
sg22
g23
((dp44
tp45
Rp46
sg27
g23
((dp47
tp48
Rp49
sg31
g32
(S'\x07\xdf\x0c\x02'
p50
tp51
Rp52
sg36
I300
sg37
I100
sg38
I0
sba(i__main__
DayData
p53
(dp54
g3
(dp55
sg12
(dp56
sg15
I49
sg16
I100
sg17
I325
sg18
g43
sg20
I0
sg21
I4
sg22
g23
((dp57
tp58
Rp59
sg27
g23
((dp60
tp61
Rp62
sg31
g32
(S'\x07\xdf\x0c\x03'
p63
tp64
Rp65
sg36
I400
sg37
I100
sg38
I0
sba(i__main__
DayData
p66
(dp67
g3
(dp68
I69252
(lp69
S'Bilde'
p70
aS'Observert vaer'
p71
aS'Snoedekke'
p72
assg12
(dp73
I69252
S'Telemark'
p74
ssg15
I49
sg16
I100
sg17
I325
sg18
g19
sg20
I0
sg21
I5
sg22
g23
((dp75
g72
I1
sg70
I1
sg71
I1
stp76
Rp77
sg27
g23
((dp78
I69252
I3
stp79
Rp80
sg31
g32
(S'\x07\xdf\x0c\x04'
p81
tp82
Rp83
sg36
I500
sg37
I100
sg38
I3
sba(i__main__
DayData
p84
(dp85
g3
(dp86
I69408
(lp87
S'Bilde'
p88
aS'Bilde'
p89
aS'Faretegn'
p90
aS'Faretegn'
p91
aS'Observert skredaktivitet(2014)'
p92
asI69443
(lp93
S'Observert vaer'
p94
asI69436
(lp95
S'Bilde'
p96
aS'Bilde'
p97
aS'Bilde'
p98
aS'Bilde'
p99
aS'Bilde'
p100
aS'Bilde'
p101
aS'Bilde'
p102
aS'Bilde'
p103
aS'Bilde'
p104
aS'Bilde'
p105
aS'Bilde'
p106
aS'Bilde'
p107
aS'Faretegn'
p108
aS'Faretegn'
p109
aS'Faretegn'
p110
aS'Faretegn'
p111
aS'Observert vaer'
p112
aS'Snoedekke'
p113
aS'Observert skredaktivitet(2014)'
p114
aS'Skredfarevurdering'
p115
aS'Skredproblem'
p116
aS'Skredproblem'
p117
aS'Skredproblem'
p118
assg12
(dp119
I69408
S'Rauland'
p120
sI69443
S'Telemark'
p121
sI69436
S'Rauland'
p122
ssg15
I49
sg16
I100
sg17
I325
sg18
g19
sg20
I0
sg21
I6
sg22
g23
((dp123
g113
I1
sg116
I3
sg92
I2
sg112
I2
sg90
I6
sg115
I1
sg88
I12
sS'Snoeprofil'
p124
I2
stp125
Rp126
sg27
g23
((dp127
I69408
I5
sI69443
I1
sI69436
I23
stp128
Rp129
sg31
g32
(S'\x07\xdf\x0c\x05'
p130
tp131
Rp132
sg36
I600
sg37
I100
sg38
I29
sba(i__main__
DayData
p133
(dp134
g3
(dp135
I69546
(lp136
S'Fritekstfelt'
p137
aS'Bilde'
p138
aS'Bilde'
p139
aS'Bilde'
p140
aS'Bilde'
p141
aS'Bilde'
p142
aS'Bilde'
p143
aS'Bilde'
p144
aS'Bilde'
p145
aS'Faretegn'
p146
aS'Observert vaer'
p147
aS'Snoedekke'
p148
aS'Skredfarevurdering'
p149
aS'Skredproblem'
p150
asI69499
(lp151
S'Observert vaer'
p152
asI69507
(lp153
S'Snoedekke'
p154
asI69518
(lp155
S'Fritekstfelt'
p156
aS'Bilde'
p157
aS'Bilde'
p158
asI69551
(lp159
S'Fritekstfelt'
p160
assg12
(dp161
I69546
S'Rauland'
p162
sI69499
S'Rauland'
p163
sI69507
S'Rauland'
p164
sI69518
S'Rauland'
p165
sI69551
S'Rauland'
p166
ssg15
I49
sg16
I100
sg17
I325
sg18
g19
sg20
I0
sg21
I7
sg22
g23
((dp167
g154
I2
sg150
I1
sg146
I1
sg152
I2
sg149
I1
sg157
I9
sg156
I3
sg124
I1
stp168
Rp169
sg27
g23
((dp170
I69546
I14
sI69499
I1
sI69507
I1
sI69518
I3
sI69551
I1
stp171
Rp172
sg31
g32
(S'\x07\xdf\x0c\x06'
p173
tp174
Rp175
sg36
I700
sg37
I100
sg38
I20
sba(i__main__
DayData
p176
(dp177
g3
(dp178
I69694
(lp179
S'Fritekstfelt'
p180
aS'Bilde'
p181
aS'Bilde'
p182
aS'Bilde'
p183
aS'Bilde'
p184
aS'Bilde'
p185
aS'Bilde'
p186
aS'Bilde'
p187
aS'Bilde'
p188
aS'Bilde'
p189
aS'Bilde'
p190
aS'Bilde'
p191
aS'Bilde'
p192
aS'Bilde'
p193
aS'Bilde'
p194
aS'Faretegn'
p195
aS'Observert vaer'
p196
aS'Snoedekke'
p197
aS'Observert skredaktivitet(2014)'
p198
aS'Skredfarevurdering'
p199
aS'Skredproblem'
p200
assg12
(dp201
I69694
S'Rauland'
p202
ssg15
I50
sg16
I100
sg17
I325
sg18
g19
sg20
I-100
sg21
I1
sg22
g23
((dp203
g197
I1
sg200
I1
sg198
I1
sg196
I1
sg195
I1
sg199
I1
sg181
I11
sg180
I1
sg124
I3
stp204
Rp205
sg27
g23
((dp206
I69694
I21
stp207
Rp208
sg31
g32
(S'\x07\xdf\x0c\x07'
p209
tp210
Rp211
sg36
I100
sg37
I100
sg38
I21
sba(i__main__
DayData
p212
(dp213
g3
(dp214
I69819
(lp215
S'Skredfarevurdering'
p216
assg12
(dp217
I69819
S'Rauland'
p218
ssg15
I50
sg16
I100
sg17
I325
sg18
g19
sg20
I-100
sg21
I2
sg22
g23
((dp219
g216
I1
stp220
Rp221
sg27
g23
((dp222
I69819
I1
stp223
Rp224
sg31
g32
(S'\x07\xdf\x0c\x08'
p225
tp226
Rp227
sg36
I200
sg37
I100
sg38
I1
sba(i__main__
DayData
p228
(dp229
g3
(dp230
I69994
(lp231
S'Bilde'
p232
aS'Bilde'
p233
aS'Bilde'
p234
aS'Snoedekke'
p235
asI69999
(lp236
S'Bilde'
p237
aS'Observert vaer'
p238
assg12
(dp239
I69994
S'Telemark'
p240
sI69999
S'Telemark'
p241
ssg15
I50
sg16
I100
sg17
I325
sg18
g19
sg20
I-100
sg21
I3
sg22
g23
((dp242
g235
I1
sg232
I4
sg238
I1
stp243
Rp244
sg27
g23
((dp245
I69994
I4
sI69999
I2
stp246
Rp247
sg31
g32
(S'\x07\xdf\x0c\t'
p248
tp249
Rp250
sg36
I300
sg37
I100
sg38
I6
sba(i__main__
DayData
p251
(dp252
g3
(dp253
I70188
(lp254
S'Observert vaer'
p255
aS'Snoedekke'
p256
assg12
(dp257
I70188
S'Hallingdal'
p258
ssg15
I50
sg16
I100
sg17
I325
sg18
g19
sg20
I-100
sg21
I4
sg22
g23
((dp259
g256
I1
sg255
I1
stp260
Rp261
sg27
g23
((dp262
I70188
I2
stp263
Rp264
sg31
g32
(S'\x07\xdf\x0c\n'
p265
tp266
Rp267
sg36
I400
sg37
I100
sg38
I2
sba(i__main__
DayData
p268
(dp269
g3
(dp270
I70271
(lp271
S'Hendelse'
p272
aS'Bilde'
p273
aS'Bilde'
p274
aS'Bilde'
p275
aS'Bilde'
p276
aS'Bilde'
p277
aS'Faretegn'
p278
aS'Observert skred'
p279
asI70222
(lp280
S'Bilde'
p281
aS'Faretegn'
p282
aS'Observert vaer'
p283
asI70263
(lp284
S'Bilde'
p285
aS'Bilde'
p286
aS'Skredfarevurdering'
p287
aS'Skredproblem'
p288
assg12
(dp289
I70271
S'Hallingdal'
p290
sI70222
S'Hallingdal'
p291
sI70263
S'Hallingdal'
p292
ssg15
I50
sg16
I100
sg17
I325
sg18
g19
sg20
I-100
sg21
I5
sg22
g23
((dp293
g288
I1
sg272
I1
sg283
I1
sg282
I2
sg281
I8
sg279
I1
sg287
I1
stp294
Rp295
sg27
g23
((dp296
I70263
I4
sI70222
I3
sI70271
I8
stp297
Rp298
sg31
g32
(S'\x07\xdf\x0c\x0b'
p299
tp300
Rp301
sg36
I500
sg37
I100
sg38
I15
sba(i__main__
DayData
p302
(dp303
g3
(dp304
I70378
(lp305
S'Fritekstfelt'
p306
aS'Bilde'
p307
aS'Faretegn'
p308
aS'Skredfarevurdering'
p309
aS'Skredproblem'
p310
asI70366
(lp311
S'Observert vaer'
p312
aS'Snoedekke'
p313
assg12
(dp314
I70378
S'Hallingdal'
p315
sI70366
S'Hallingdal'
p316
ssg15
I50
sg16
I100
sg17
I325
sg18
g19
sg20
I-100
sg21
I6
sg22
g23
((dp317
g313
I1
sg310
I1
sg308
I1
sg312
I1
sg306
I1
sg307
I1
sg309
I1
stp318
Rp319
sg27
g23
((dp320
I70378
I5
sI70366
I2
stp321
Rp322
sg31
g32
(S'\x07\xdf\x0c\x0c'
p323
tp324
Rp325
sg36
I600
sg37
I100
sg38
I7
sba(i__main__
DayData
p326
(dp327
g3
(dp328
sg12
(dp329
sg15
I50
sg16
I100
sg17
I325
sg18
g43
sg20
I-100
sg21
I7
sg22
g23
((dp330
tp331
Rp332
sg27
g23
((dp333
tp334
Rp335
sg31
g32
(S'\x07\xdf\x0c\r'
p336
tp337
Rp338
sg36
I700
sg37
I100
sg38
I0
sba(i__main__
DayData
p339
(dp340
g3
(dp341
I70642
(lp342
S'Fritekstfelt'
p343
aS'Bilde'
p344
aS'Bilde'
p345
aS'Bilde'
p346
aS'Bilde'
p347
aS'Bilde'
p348
aS'Bilde'
p349
aS'Bilde'
p350
aS'Bilde'
p351
aS'Bilde'
p352
aS'Faretegn'
p353
aS'Observert vaer'
p354
aS'Snoedekke'
p355
aS'Observert skredaktivitet(2014)'
p356
aS'Skredfarevurdering'
p357
aS'Skredproblem'
p358
assg12
(dp359
I70642
S'Hallingdal'
p360
ssg15
I51
sg16
I100
sg17
I325
sg18
g19
sg20
I-200
sg21
I1
sg22
g23
((dp361
g355
I1
sg358
I1
sg356
I1
sg354
I1
sg353
I1
sg357
I1
sg344
I7
sg343
I1
sg124
I2
stp362
Rp363
sg27
g23
((dp364
I70642
I16
stp365
Rp366
sg31
g32
(S'\x07\xdf\x0c\x0e'
p367
tp368
Rp369
sg36
I100
sg37
I100
sg38
I16
sba(i__main__
DayData
p370
(dp371
g3
(dp372
I70694
(lp373
S'Observert vaer'
p374
asI70711
(lp375
S'Faretegn'
p376
assg12
(dp377
I70694
S'Hallingdal'
p378
sI70711
S'Hallingdal'
p379
ssg15
I51
sg16
I100
sg17
I325
sg18
g19
sg20
I-200
sg21
I2
sg22
g23
((dp380
g374
I1
sg376
I1
stp381
Rp382
sg27
g23
((dp383
I70694
I1
sI70711
I1
stp384
Rp385
sg31
g32
(S'\x07\xdf\x0c\x0f'
p386
tp387
Rp388
sg36
I200
sg37
I100
sg38
I2
sba(i__main__
DayData
p389
(dp390
g3
(dp391
I70811
(lp392
S'Bilde'
p393
aS'Skredfarevurdering'
p394
asI70940
(lp395
S'Fritekstfelt'
p396
aS'Bilde'
p397
aS'Faretegn'
p398
aS'Observert vaer'
p399
aS'Snoedekke'
p400
aS'Skredfarevurdering'
p401
aS'Skredproblem'
p402
assg12
(dp403
I70811
S'Hallingdal'
p404
sI70940
S'Hallingdal'
p405
ssg15
I51
sg16
I100
sg17
I325
sg18
g19
sg20
I-200
sg21
I3
sg22
g23
((dp406
g400
I1
sg402
I1
sg399
I1
sg398
I1
sg394
I2
sg393
I1
sg396
I1
sg124
I1
stp407
Rp408
sg27
g23
((dp409
I70811
I2
sI70940
I7
stp410
Rp411
sg31
g32
(S'\x07\xdf\x0c\x10'
p412
tp413
Rp414
sg36
I300
sg37
I100
sg38
I9
sba(i__main__
DayData
p415
(dp416
g3
(dp417
I71004
(lp418
S'Bilde'
p419
aS'Bilde'
p420
aS'Observert vaer'
p421
asI71078
(lp422
S'Fritekstfelt'
p423
aS'Faretegn'
p424
aS'Observert skredaktivitet(2014)'
p425
asI71111
(lp426
S'Observert vaer'
p427
assg12
(dp428
I71004
S'Hallingdal'
p429
sI71078
S'Hallingdal'
p430
sI71111
S'Hallingdal'
p431
ssg15
I51
sg16
I100
sg17
I325
sg18
g19
sg20
I-200
sg21
I4
sg22
g23
((dp432
g421
I2
sg423
I1
sg425
I1
sg419
I2
sg424
I1
stp433
Rp434
sg27
g23
((dp435
I71004
I3
sI71078
I3
sI71111
I1
stp436
Rp437
sg31
g32
(S'\x07\xdf\x0c\x11'
p438
tp439
Rp440
sg36
I400
sg37
I100
sg38
I7
sba(i__main__
DayData
p441
(dp442
g3
(dp443
I71176
(lp444
S'Observert vaer'
p445
aS'Snoedekke'
p446
asI71193
(lp447
S'Fritekstfelt'
p448
aS'Skredfarevurdering'
p449
asI71234
(lp450
S'Observert vaer'
p451
asI71232
(lp452
S'Observert vaer'
p453
assg12
(dp454
I71176
S'Hallingdal'
p455
sI71193
S'Hallingdal'
p456
sI71234
S'Hallingdal'
p457
sI71232
S'Hallingdal'
p458
ssg15
I51
sg16
I100
sg17
I325
sg18
g19
sg20
I-200
sg21
I5
sg22
g23
((dp459
g446
I1
sg448
I1
sg445
I3
sg449
I1
stp460
Rp461
sg27
g23
((dp462
I71176
I2
sI71193
I2
sI71234
I1
sI71232
I1
stp463
Rp464
sg31
g32
(S'\x07\xdf\x0c\x12'
p465
tp466
Rp467
sg36
I500
sg37
I100
sg38
I6
sba(i__main__
DayData
p468
(dp469
g3
(dp470
I71288
(lp471
S'Bilde'
p472
aS'Observert vaer'
p473
asI71305
(lp474
S'Faretegn'
p475
aS'Observert vaer'
p476
aS'Snoedekke'
p477
aS'Observert skredaktivitet(2014)'
p478
aS'Skredfarevurdering'
p479
aS'Skredproblem'
p480
assg12
(dp481
I71288
S'Hallingdal'
p482
sI71305
S'Hallingdal'
p483
ssg15
I51
sg16
I100
sg17
I325
sg18
g19
sg20
I-200
sg21
I6
sg22
g23
((dp484
g477
I1
sg480
I1
sg478
I1
sg475
I1
sg473
I2
sg472
I1
sg479
I1
stp485
Rp486
sg27
g23
((dp487
I71288
I2
sI71305
I6
stp488
Rp489
sg31
g32
(S'\x07\xdf\x0c\x13'
p490
tp491
Rp492
sg36
I600
sg37
I100
sg38
I8
sba(i__main__
DayData
p493
(dp494
g3
(dp495
I71409
(lp496
S'Bilde'
p497
aS'Observert vaer'
p498
asI71434
(lp499
S'Observert vaer'
p500
aS'Skredfarevurdering'
p501
aS'Skredproblem'
p502
asI71423
(lp503
S'Bilde'
p504
aS'Bilde'
p505
aS'Snoedekke'
p506
aS'Skredfarevurdering'
p507
assg12
(dp508
I71409
S'Hallingdal'
p509
sI71434
S'Hallingdal'
p510
sI71423
S'Hallingdal'
p511
ssg15
I51
sg16
I100
sg17
I325
sg18
g19
sg20
I-200
sg21
I7
sg22
g23
((dp512
g506
I1
sg502
I1
sg497
I3
sg498
I2
sg507
I2
stp513
Rp514
sg27
g23
((dp515
I71409
I2
sI71434
I3
sI71423
I4
stp516
Rp517
sg31
g32
(S'\x07\xdf\x0c\x14'
p518
tp519
Rp520
sg36
I700
sg37
I100
sg38
I9
sba(i__main__
DayData
p521
(dp522
g3
(dp523
I71528
(lp524
S'Faretegn'
p525
aS'Observert vaer'
p526
aS'Snoedekke'
p527
asI71544
(lp528
S'Fritekstfelt'
p529
aS'Bilde'
p530
aS'Bilde'
p531
aS'Bilde'
p532
aS'Bilde'
p533
aS'Bilde'
p534
aS'Bilde'
p535
aS'Bilde'
p536
aS'Faretegn'
p537
aS'Faretegn'
p538
aS'Observert vaer'
p539
aS'Snoedekke'
p540
aS'Observert skredaktivitet(2014)'
p541
aS'Skredfarevurdering'
p542
aS'Skredproblem'
p543
asI71546
(lp544
S'Fritekstfelt'
p545
asI71547
(lp546
S'Fritekstfelt'
p547
asI71445
(lp548
S'Observert vaer'
p549
assg12
(dp550
I71528
S'Hallingdal'
p551
sI71544
S'Hallingdal'
p552
sI71546
S'Hallingdal'
p553
sI71547
S'Hallingdal'
p554
sI71445
S'Hallingdal'
p555
ssg15
I52
sg16
I100
sg17
I325
sg18
g19
sg20
I-300
sg21
I1
sg22
g23
((dp556
g527
I2
sg543
I1
sg541
I1
sg525
I3
sg549
I3
sg542
I1
sg530
I7
sg529
I3
stp557
Rp558
sg27
g23
((dp559
I71528
I3
sI71544
I15
sI71546
I1
sI71547
I1
sI71445
I1
stp560
Rp561
sg31
g32
(S'\x07\xdf\x0c\x15'
p562
tp563
Rp564
sg36
I100
sg37
I100
sg38
I21
sba(i__main__
DayData
p565
(dp566
g3
(dp567
I71684
(lp568
S'Bilde'
p569
aS'Observert vaer'
p570
asI71692
(lp571
S'Observert vaer'
p572
aS'Snoedekke'
p573
asI71694
(lp574
S'Observert vaer'
p575
aS'Snoedekke'
p576
asI71695
(lp577
S'Skredfarevurdering'
p578
aS'Skredproblem'
p579
asI71676
(lp580
S'Bilde'
p581
aS'Observert vaer'
p582
aS'Snoedekke'
p583
aS'Skredfarevurdering'
p584
asI71679
(lp585
S'Skredproblem'
p586
assg12
(dp587
I71684
S'Hallingdal'
p588
sI71692
S'Hallingdal'
p589
sI71694
S'Hallingdal'
p590
sI71695
S'Hallingdal'
p591
sI71676
S'Hallingdal'
p592
sI71679
S'Hallingdal'
p593
ssg15
I52
sg16
I100
sg17
I325
sg18
g19
sg20
I-300
sg21
I2
sg22
g23
((dp594
g583
I3
sg586
I2
sg581
I2
sg582
I4
sg584
I2
stp595
Rp596
sg27
g23
((dp597
I71684
I2
sI71676
I4
sI71679
I1
sI71692
I2
sI71694
I2
sI71695
I2
stp598
Rp599
sg31
g32
(S'\x07\xdf\x0c\x16'
p600
tp601
Rp602
sg36
I200
sg37
I100
sg38
I13
sba(i__main__
DayData
p603
(dp604
g3
(dp605
I71800
(lp606
S'Bilde'
p607
aS'Observert vaer'
p608
aS'Snoedekke'
p609
assg12
(dp610
I71800
S'Oslo'
p611
ssg15
I52
sg16
I100
sg17
I325
sg18
g19
sg20
I-300
sg21
I3
sg22
g23
((dp612
g609
I1
sg607
I1
sg608
I1
stp613
Rp614
sg27
g23
((dp615
I71800
I3
stp616
Rp617
sg31
g32
(S'\x07\xdf\x0c\x17'
p618
tp619
Rp620
sg36
I300
sg37
I100
sg38
I3
sba(i__main__
DayData
p621
(dp622
g3
(dp623
sg12
(dp624
sg15
I52
sg16
I100
sg17
I325
sg18
g43
sg20
I-300
sg21
I4
sg22
g23
((dp625
tp626
Rp627
sg27
g23
((dp628
tp629
Rp630
sg31
g32
(S'\x07\xdf\x0c\x18'
p631
tp632
Rp633
sg36
I400
sg37
I100
sg38
I0
sba(i__main__
DayData
p634
(dp635
g3
(dp636
sg12
(dp637
sg15
I52
sg16
I100
sg17
I325
sg18
g43
sg20
I-300
sg21
I5
sg22
g23
((dp638
tp639
Rp640
sg27
g23
((dp641
tp642
Rp643
sg31
g32
(S'\x07\xdf\x0c\x19'
p644
tp645
Rp646
sg36
I500
sg37
I100
sg38
I0
sba(i__main__
DayData
p647
(dp648
g3
(dp649
I72029
(lp650
S'Bilde'
p651
aS'Bilde'
p652
aS'Observert vaer'
p653
aS'Snoedekke'
p654
assg12
(dp655
I72029
S'Buskerud'
p656
ssg15
I52
sg16
I100
sg17
I325
sg18
g19
sg20
I-300
sg21
I6
sg22
g23
((dp657
g654
I1
sg651
I2
sg653
I1
stp658
Rp659
sg27
g23
((dp660
I72029
I4
stp661
Rp662
sg31
g32
(S'\x07\xdf\x0c\x1a'
p663
tp664
Rp665
sg36
I600
sg37
I100
sg38
I4
sba(i__main__
DayData
p666
(dp667
g3
(dp668
I72210
(lp669
S'Bilde'
p670
aS'Bilde'
p671
aS'Bilde'
p672
aS'Observert vaer'
p673
aS'Snoedekke'
p674
aS'Skredfarevurdering'
p675
assg12
(dp676
I72210
S'Buskerud'
p677
ssg15
I52
sg16
I100
sg17
I325
sg18
g19
sg20
I-300
sg21
I7
sg22
g23
((dp678
g674
I1
sg670
I3
sg673
I1
sg675
I1
stp679
Rp680
sg27
g23
((dp681
I72210
I6
stp682
Rp683
sg31
g32
(S'\x07\xdf\x0c\x1b'
p684
tp685
Rp686
sg36
I700
sg37
I100
sg38
I6
sba(i__main__
DayData
p687
(dp688
g3
(dp689
sg12
(dp690
sg15
I53
sg16
I100
sg17
I325
sg18
g43
sg20
I-400
sg21
I1
sg22
g23
((dp691
tp692
Rp693
sg27
g23
((dp694
tp695
Rp696
sg31
g32
(S'\x07\xdf\x0c\x1c'
p697
tp698
Rp699
sg36
I100
sg37
I100
sg38
I0
sba(i__main__
DayData
p700
(dp701
g3
(dp702
I72484
(lp703
S'Bilde'
p704
aS'Observert vaer'
p705
aS'Snoedekke'
p706
asI72486
(lp707
S'Observert vaer'
p708
assg12
(dp709
I72484
S'Telemark'
p710
sI72486
S'Telemark'
p711
ssg15
I53
sg16
I100
sg17
I325
sg18
g19
sg20
I-400
sg21
I2
sg22
g23
((dp712
g706
I1
sg704
I1
sg705
I2
stp713
Rp714
sg27
g23
((dp715
I72484
I3
sI72486
I1
stp716
Rp717
sg31
g32
(S'\x07\xdf\x0c\x1d'
p718
tp719
Rp720
sg36
I200
sg37
I100
sg38
I4
sba(i__main__
DayData
p721
(dp722
g3
(dp723
I72546
(lp724
S'Observert vaer'
p725
aS'Snoedekke'
p726
asI72620
(lp727
S'Observert vaer'
p728
aS'Snoedekke'
p729
aS'Skredfarevurdering'
p730
aS'Skredproblem'
p731
asI72629
(lp732
S'Faretegn'
p733
aS'Observert vaer'
p734
aS'Snoedekke'
p735
assg12
(dp736
I72546
S'Telemark'
p737
sI72620
S'Hallingdal'
p738
sI72629
S'Hallingdal'
p739
ssg15
I53
sg16
I100
sg17
I325
sg18
g19
sg20
I-400
sg21
I3
sg22
g23
((dp740
g726
I3
sg731
I1
sg725
I3
sg733
I1
sg730
I1
stp741
Rp742
sg27
g23
((dp743
I72546
I2
sI72620
I4
sI72629
I3
stp744
Rp745
sg31
g32
(S'\x07\xdf\x0c\x1e'
p746
tp747
Rp748
sg36
I300
sg37
I100
sg38
I9
sba(i__main__
DayData
p749
(dp750
g3
(dp751
I72688
(lp752
S'Bilde'
p753
aS'Faretegn'
p754
asI72686
(lp755
S'Bilde'
p756
aS'Faretegn'
p757
aS'Observert vaer'
p758
aS'Snoedekke'
p759
aS'Skredfarevurdering'
p760
aS'Skredproblem'
p761
asI72711
(lp762
S'Snoedekke'
p763
aS'Skredfarevurdering'
p764
assg12
(dp765
I72688
S'Hallingdal'
p766
sI72686
S'Hallingdal'
p767
sI72711
S'Hallingdal'
p768
ssg15
I53
sg16
I100
sg17
I325
sg18
g19
sg20
I-400
sg21
I4
sg22
g23
((dp769
g759
I2
sg761
I1
sg758
I1
sg757
I2
sg756
I2
sg760
I2
stp770
Rp771
sg27
g23
((dp772
I72688
I2
sI72686
I6
sI72711
I2
stp773
Rp774
sg31
g32
(S'\x07\xdf\x0c\x1f'
p775
tp776
Rp777
sg36
I400
sg37
I100
sg38
I10
sba.