ccollections
OrderedDict
p0
((lp1
(lp2
I0
a(i__main__
KDVelement
p3
(dp4
S'Description'
p5
NsS'Langkey'
p6
I1
sS'SortOrder'
p7
I0
sS'ID'
p8
I0
sS'IsActive'
p9
I01
sS'Name'
p10
S'Ikke observert'
p11
sbaa(lp12
I1
a(i__main__
KDVelement
p13
(dp14
g5
Nsg6
I1
sg7
I1
sg8
I1
sg9
I01
sg10
S'Ikke snoe'
p15
sbaa(lp16
I10
a(i__main__
KDVelement
p17
(dp18
g5
Nsg6
I1
sg7
I2
sg8
I10
sg9
I01
sg10
S'PP Nysnoe'
p19
sbaa(lp20
I20
a(i__main__
KDVelement
p21
(dp22
g5
Nsg6
I1
sg7
I3
sg8
I20
sg9
I01
sg10
S'PPgp Sproehagl'
p23
sbaa(lp24
I30
a(i__main__
KDVelement
p25
(dp26
g5
Nsg6
I1
sg7
I4
sg8
I30
sg9
I01
sg10
S'DF Delvis nedbrutt nysnoe'
p27
sbaa(lp28
I40
a(i__main__
KDVelement
p29
(dp30
g5
S'ogsaa vindpaavirket'
p31
sg6
I1
sg7
I5
sg8
I40
sg9
I01
sg10
S'RG Avrundete korn'
p32
sbaa(lp33
I50
a(i__main__
KDVelement
p34
(dp35
g5
Nsg6
I1
sg7
I6
sg8
I50
sg9
I01
sg10
S'FC Kantkornet snoe'
p36
sbaa(lp37
I60
a(i__main__
KDVelement
p38
(dp39
g5
Nsg6
I1
sg7
I7
sg8
I60
sg9
I01
sg10
S'SH Overflaterim/hulromsrim'
p40
sbaa(lp41
I70
a(i__main__
KDVelement
p42
(dp43
g5
S'NB ikke skare'
p44
sg6
I1
sg7
I8
sg8
I70
sg9
I01
sg10
S'MF Smelteomdannede korn'
p45
sbaa(lp46
I80
a(i__main__
KDVelement
p47
(dp48
g5
Nsg6
I1
sg7
I9
sg8
I80
sg9
I01
sg10
S'MFcr Gjenfroset smeltelag'
p49
sbaa(lp50
I90
a(i__main__
KDVelement
p51
(dp52
g5
Nsg6
I1
sg7
I10
sg8
I90
sg9
I01
sg10
S'IF Is og skare'
p53
sbaa(lp54
I99
a(i__main__
KDVelement
p55
(dp56
g5
Nsg6
I1
sg7
I11
sg8
I99
sg9
I01
sg10
S'Annen type'
p57
sbaatp58
Rp59
.